MODULE Linux x86_64 2AF505E7A164EE5294C3D07B060622B40 IEC103_SFIEC103
FUNC 133f4 1b0 0 main
FUNC 135a4 1c4 0 __static_initialization_and_destruction_0
FUNC 13768 15 0 _GLOBAL__I_IEC103.cpp
FUNC 1377e 1c 0 std::exception::exception
FUNC 1379a 2c 0 std::bad_exception::bad_exception
FUNC 137c6 2c 0 std::bad_alloc::bad_alloc
FUNC 137f2 29 0 Config::setChannelName
FUNC 1381c 19 0 boost::error_info<boost::throw_function_, const char*>::error_info
FUNC 13836 19 0 boost::error_info<boost::throw_file_, const char*>::error_info
FUNC 13850 16 0 boost::error_info<boost::throw_line_, int>::error_info
FUNC 13866 53 0 boost::exception::exception
FUNC 138ba 5d 0 boost::exception::~exception
FUNC 13918 26 0 boost::exception::~exception
FUNC 1393e 35 0 boost::exception_detail::clone_base::~clone_base
FUNC 13974 26 0 boost::exception_detail::clone_base::~clone_base
FUNC 1399a 10d 0 boost::exception_detail::copy_boost_exception
FUNC 13aa7 22 0 boost::detail::atomic_exchange_and_add
FUNC 13ac9 15 0 boost::detail::atomic_increment
FUNC 13ade 32 0 boost::detail::sp_counted_base::sp_counted_base
FUNC 13b10 35 0 boost::detail::sp_counted_base::~sp_counted_base
FUNC 13b46 26 0 boost::detail::sp_counted_base::~sp_counted_base
FUNC 13b6c 2c 0 boost::detail::sp_counted_base::destroy
FUNC 13b98 1e 0 boost::detail::sp_counted_base::add_ref_copy
FUNC 13bb6 50 0 boost::detail::sp_counted_base::release
FUNC 13c06 44 0 boost::detail::sp_counted_base::weak_release
FUNC 13c4a 29 0 boost::detail::shared_count::~shared_count
FUNC 13c74 3b 0 boost::detail::shared_count::shared_count
FUNC 13caf 6 0 boost::detail::sp_enable_shared_from_this
FUNC 13cb6 1e 0 boost::shared_ptr<const boost::exception_detail::clone_base>::~shared_ptr
FUNC 13cd4 3b 0 boost::shared_ptr<const boost::exception_detail::clone_base>::shared_ptr
FUNC 13d10 25 0 boost::exception_ptr::exception_ptr
FUNC 13d36 7c 0 boost::exception_detail::bad_alloc_::~bad_alloc_
FUNC 13dc2 26 0 boost::exception_detail::bad_alloc_::~bad_alloc_
FUNC 13de8 7c 0 boost::exception_detail::bad_exception_::~bad_exception_
FUNC 13e74 26 0 boost::exception_detail::bad_exception_::~bad_exception_
FUNC 13e9a 6d 0 boost::exception::exception
FUNC 13f08 1a 0 boost::exception_ptr::~exception_ptr
FUNC 13f22 25 0 boost::exception_ptr::exception_ptr
FUNC 13f48 15 0 boost::exception_detail::refcount_ptr<boost::exception_detail::error_info_container>::refcount_ptr
FUNC 13f5e 1a 0 boost::exception_detail::refcount_ptr<boost::exception_detail::error_info_container>::~refcount_ptr
FUNC 13f78 11 0 boost::exception_detail::refcount_ptr<boost::exception_detail::error_info_container>::get
FUNC 13f8a 2c 0 boost::exception_detail::refcount_ptr<boost::exception_detail::error_info_container>::operator=
FUNC 13fb6 20 0 std::exception::exception
FUNC 13fd6 20 0 boost::exception_detail::clone_base::clone_base
FUNC 13ff6 a 0 boost::arg<1>::arg
FUNC 14000 a 0 boost::arg<2>::arg
FUNC 1400a a 0 boost::arg<3>::arg
FUNC 14014 a 0 boost::arg<4>::arg
FUNC 1401e a 0 boost::arg<5>::arg
FUNC 14028 a 0 boost::arg<6>::arg
FUNC 14032 a 0 boost::arg<7>::arg
FUNC 1403c a 0 boost::arg<8>::arg
FUNC 14046 a 0 boost::arg<9>::arg
FUNC 14050 35 0 boost::exception_detail::refcount_ptr<boost::exception_detail::error_info_container>::adopt
FUNC 14086 2c 0 boost::exception_detail::refcount_ptr<boost::exception_detail::error_info_container>::refcount_ptr
FUNC 140b2 4f 0 boost::exception_detail::bad_alloc_::bad_alloc_
FUNC 14102 37 0 std::bad_alloc::bad_alloc
FUNC 1413a 65 0 boost::exception_detail::bad_alloc_::bad_alloc_
FUNC 141a0 78 0 boost::exception_detail::clone_impl<boost::exception_detail::bad_alloc_>::clone_impl
FUNC 14218 228 0 boost::exception_detail::get_static_exception_object<boost::exception_detail::bad_alloc_>
FUNC 14440 4f 0 boost::exception_detail::bad_exception_::bad_exception_
FUNC 14490 37 0 std::bad_exception::bad_exception
FUNC 144c8 65 0 boost::exception_detail::bad_exception_::bad_exception_
FUNC 1452e 78 0 boost::exception_detail::clone_impl<boost::exception_detail::bad_exception_>::clone_impl
FUNC 145a6 228 0 boost::exception_detail::get_static_exception_object<boost::exception_detail::bad_exception_>
FUNC 147ce 56 0 boost::exception_detail::refcount_ptr<boost::exception_detail::error_info_container>::release
FUNC 14824 37 0 boost::exception_detail::refcount_ptr<boost::exception_detail::error_info_container>::add_ref
FUNC 1485c 1c 0 boost::exception_detail::clone_base::clone_base
FUNC 14878 c6 0 boost::exception_detail::clone_impl<boost::exception_detail::bad_alloc_>::clone_impl
FUNC 1493e 8f 0 boost::exception_detail::clone_impl<boost::exception_detail::bad_alloc_>::~clone_impl
FUNC 149ec 26 0 boost::exception_detail::clone_impl<boost::exception_detail::bad_alloc_>::~clone_impl
FUNC 14a12 25 0 boost::operator<< <boost::exception_detail::clone_impl<boost::exception_detail::bad_alloc_>, boost::throw_function_, const char*>
FUNC 14a37 25 0 boost::operator<< <boost::exception_detail::clone_impl<boost::exception_detail::bad_alloc_>, boost::throw_file_, const char*>
FUNC 14a5c 25 0 boost::operator<< <boost::exception_detail::clone_impl<boost::exception_detail::bad_alloc_>, boost::throw_line_, int>
FUNC 14a82 62 0 boost::shared_ptr<const boost::exception_detail::clone_base>::shared_ptr<boost::exception_detail::clone_impl<boost::exception_detail::bad_alloc_> >
FUNC 14ae4 c6 0 boost::exception_detail::clone_impl<boost::exception_detail::bad_exception_>::clone_impl
FUNC 14baa 8f 0 boost::exception_detail::clone_impl<boost::exception_detail::bad_exception_>::~clone_impl
FUNC 14c58 26 0 boost::exception_detail::clone_impl<boost::exception_detail::bad_exception_>::~clone_impl
FUNC 14c7e 25 0 boost::operator<< <boost::exception_detail::clone_impl<boost::exception_detail::bad_exception_>, boost::throw_function_, const char*>
FUNC 14ca3 25 0 boost::operator<< <boost::exception_detail::clone_impl<boost::exception_detail::bad_exception_>, boost::throw_file_, const char*>
FUNC 14cc8 25 0 boost::operator<< <boost::exception_detail::clone_impl<boost::exception_detail::bad_exception_>, boost::throw_line_, int>
FUNC 14cee 62 0 boost::shared_ptr<const boost::exception_detail::clone_base>::shared_ptr<boost::exception_detail::clone_impl<boost::exception_detail::bad_exception_> >
FUNC 14d50 21 0 boost::exception_detail::set_info<boost::exception_detail::clone_impl<boost::exception_detail::bad_alloc_> >
FUNC 14d71 21 0 boost::exception_detail::set_info<boost::exception_detail::clone_impl<boost::exception_detail::bad_alloc_> >
FUNC 14d92 1f 0 boost::exception_detail::set_info<boost::exception_detail::clone_impl<boost::exception_detail::bad_alloc_> >
FUNC 14db2 a0 0 boost::detail::shared_count::shared_count<boost::exception_detail::clone_impl<boost::exception_detail::bad_alloc_> >
FUNC 14e52 21 0 boost::exception_detail::set_info<boost::exception_detail::clone_impl<boost::exception_detail::bad_exception_> >
FUNC 14e73 21 0 boost::exception_detail::set_info<boost::exception_detail::clone_impl<boost::exception_detail::bad_exception_> >
FUNC 14e94 1f 0 boost::exception_detail::set_info<boost::exception_detail::clone_impl<boost::exception_detail::bad_exception_> >
FUNC 14eb4 a0 0 boost::detail::shared_count::shared_count<boost::exception_detail::clone_impl<boost::exception_detail::bad_exception_> >
FUNC 14f54 3c 0 boost::detail::sp_counted_impl_p<boost::exception_detail::clone_impl<boost::exception_detail::bad_alloc_> >::sp_counted_impl_p
FUNC 14f90 2c 0 boost::checked_delete<boost::exception_detail::clone_impl<boost::exception_detail::bad_alloc_> >
FUNC 14fbc 3c 0 boost::detail::sp_counted_impl_p<boost::exception_detail::clone_impl<boost::exception_detail::bad_exception_> >::sp_counted_impl_p
FUNC 14ff8 2c 0 boost::checked_delete<boost::exception_detail::clone_impl<boost::exception_detail::bad_exception_> >
FUNC 15024 41 0 boost::detail::sp_counted_impl_p<boost::exception_detail::clone_impl<boost::exception_detail::bad_exception_> >::~sp_counted_impl_p
FUNC 15066 26 0 boost::detail::sp_counted_impl_p<boost::exception_detail::clone_impl<boost::exception_detail::bad_exception_> >::~sp_counted_impl_p
FUNC 1508c 41 0 boost::detail::sp_counted_impl_p<boost::exception_detail::clone_impl<boost::exception_detail::bad_alloc_> >::~sp_counted_impl_p
FUNC 150ce 26 0 boost::detail::sp_counted_impl_p<boost::exception_detail::clone_impl<boost::exception_detail::bad_alloc_> >::~sp_counted_impl_p
FUNC 150f4 1e 0 boost::detail::sp_counted_impl_p<boost::exception_detail::clone_impl<boost::exception_detail::bad_exception_> >::dispose
FUNC 15112 13 0 boost::detail::sp_counted_impl_p<boost::exception_detail::clone_impl<boost::exception_detail::bad_exception_> >::get_deleter
FUNC 15126 1e 0 boost::detail::sp_counted_impl_p<boost::exception_detail::clone_impl<boost::exception_detail::bad_alloc_> >::dispose
FUNC 15144 13 0 boost::detail::sp_counted_impl_p<boost::exception_detail::clone_impl<boost::exception_detail::bad_alloc_> >::get_deleter
FUNC 1515e 6c 0 boost::exception_detail::clone_impl<boost::exception_detail::bad_exception_>::clone
FUNC 151d0 5d 0 boost::exception_detail::clone_impl<boost::exception_detail::bad_exception_>::rethrow
FUNC 15234 6c 0 boost::exception_detail::clone_impl<boost::exception_detail::bad_alloc_>::clone
FUNC 152a6 5d 0 boost::exception_detail::clone_impl<boost::exception_detail::bad_alloc_>::rethrow
FUNC 15304 570 0 Config::Config
FUNC 15874 74 0 Config::GetInstance
FUNC 158e8 2a3 0 Config::~Config
FUNC 15b8c 26 0 Config::~Config
FUNC 15bb2 cbf 0 Config::Init
FUNC 16872 27 0 Config::IsSpace
FUNC 1689a 24 0 Config::IsCommentChar
FUNC 168be 173 0 Config::Trim
FUNC 16a32 21d 0 Config::AnalyseLine
FUNC 16c50 238 0 Config::ReadConfig
FUNC 16e88 ad 0 Config::GetStrValueByKey
FUNC 16f36 d03 0 Config::InitMysqlParams
FUNC 17c3a 134 0 Config::Split
FUNC 17d6e 48 0 __static_initialization_and_destruction_0
FUNC 17db6 15 0 _GLOBAL__I_Config.cpp
FUNC 17dcb 12 0 operator new
FUNC 17ddd e 0 operator delete
FUNC 17deb 14 0 std::operator|
FUNC 17e00 1a 0 std::map<std::basic_string<char, std::char_traits<char>, std::allocator<char> >, std::basic_string<char, std::char_traits<char>, std::allocator<char> >, std::less<std::basic_string<char, std::char_traits<char>, std::allocator<char> > >, std::allocator<std::pair<const std::basic_string<char, std::char_traits<char>, std::allocator<char> >, std::basic_string<char, std::char_traits<char>, std::allocator<char> > > > >::~map
FUNC 17e1a 1a 0 std::map<std::basic_string<char, std::char_traits<char>, std::allocator<char> >, std::basic_string<char, std::char_traits<char>, std::allocator<char> >, std::less<std::basic_string<char, std::char_traits<char>, std::allocator<char> > >, std::allocator<std::pair<const std::basic_string<char, std::char_traits<char>, std::allocator<char> >, std::basic_string<char, std::char_traits<char>, std::allocator<char> > > > >::map
FUNC 17e34 1a 0 std::_Rb_tree<std::basic_string<char, std::char_traits<char>, std::allocator<char> >, std::pair<const std::basic_string<char, std::char_traits<char>, std::allocator<char> >, std::basic_string<char, std::char_traits<char>, std::allocator<char> > >, std::_Select1st<std::pair<const std::basic_string<char, std::char_traits<char>, std::allocator<char> >, std::basic_string<char, std::char_traits<char>, std::allocator<char> > > >, std::less<std::basic_string<char, std::char_traits<char>, std::allocator<char> > >, std::allocator<std::pair<const std::basic_string<char, std::char_traits<char>, std::allocator<char> >, std::basic_string<char, std::char_traits<char>, std::allocator<char> > > > >::_Rb_tree_impl<std::less<std::basic_string<char, std::char_traits<char>, std::allocator<char> > >, false>::~_Rb_tree_impl
FUNC 17e4e 63 0 std::_Rb_tree<std::basic_string<char, std::char_traits<char>, std::allocator<char> >, std::pair<const std::basic_string<char, std::char_traits<char>, std::allocator<char> >, std::basic_string<char, std::char_traits<char>, std::allocator<char> > >, std::_Select1st<std::pair<const std::basic_string<char, std::char_traits<char>, std::allocator<char> >, std::basic_string<char, std::char_traits<char>, std::allocator<char> > > >, std::less<std::basic_string<char, std::char_traits<char>, std::allocator<char> > >, std::allocator<std::pair<const std::basic_string<char, std::char_traits<char>, std::allocator<char> >, std::basic_string<char, std::char_traits<char>, std::allocator<char> > > > >::~_Rb_tree
FUNC 17eb2 1a 0 std::vector<short unsigned int, std::allocator<short unsigned int> >::vector
FUNC 17ecc 6e 0 std::vector<short unsigned int, std::allocator<short unsigned int> >::~vector
FUNC 17f3a 1a 0 std::vector<std::basic_string<char, std::char_traits<char>, std::allocator<char> >, std::allocator<std::basic_string<char, std::char_traits<char>, std::allocator<char> > > >::vector
FUNC 17f54 6e 0 std::vector<std::basic_string<char, std::char_traits<char>, std::allocator<char> >, std::allocator<std::basic_string<char, std::char_traits<char>, std::allocator<char> > > >::~vector
FUNC 17fc2 24 0 std::vector<short unsigned int, std::allocator<short unsigned int> >::clear
FUNC 17fe6 24 0 std::vector<std::basic_string<char, std::char_traits<char>, std::allocator<char> >, std::allocator<std::basic_string<char, std::char_traits<char>, std::allocator<char> > > >::clear
FUNC 1800a 16d 0 Config::GetValueByKey<int32_t>
FUNC 18178 16d 0 Config::GetValueByKey<uint16_t>
FUNC 182e6 1a 0 std::map<std::basic_string<char, std::char_traits<char>, std::allocator<char> >, std::basic_string<char, std::char_traits<char>, std::allocator<char> >, std::less<std::basic_string<char, std::char_traits<char>, std::allocator<char> > >, std::allocator<std::pair<const std::basic_string<char, std::char_traits<char>, std::allocator<char> >, std::basic_string<char, std::char_traits<char>, std::allocator<char> > > > >::clear
FUNC 18300 55 0 std::pair<const std::basic_string<char, std::char_traits<char>, std::allocator<char> >, std::basic_string<char, std::char_traits<char>, std::allocator<char> > >::~pair
FUNC 18356 146 0 std::map<std::basic_string<char, std::char_traits<char>, std::allocator<char> >, std::basic_string<char, std::char_traits<char>, std::allocator<char> >, std::less<std::basic_string<char, std::char_traits<char>, std::allocator<char> > >, std::allocator<std::pair<const std::basic_string<char, std::char_traits<char>, std::allocator<char> >, std::basic_string<char, std::char_traits<char>, std::allocator<char> > > > >::operator[]
FUNC 1849c 25 0 std::map<std::basic_string<char, std::char_traits<char>, std::allocator<char> >, std::basic_string<char, std::char_traits<char>, std::allocator<char> >, std::less<std::basic_string<char, std::char_traits<char>, std::allocator<char> > >, std::allocator<std::pair<const std::basic_string<char, std::char_traits<char>, std::allocator<char> >, std::basic_string<char, std::char_traits<char>, std::allocator<char> > > > >::find
FUNC 184c2 1c 0 std::_Rb_tree_const_iterator<std::pair<const std::basic_string<char, std::char_traits<char>, std::allocator<char> >, std::basic_string<char, std::char_traits<char>, std::allocator<char> > > >::_Rb_tree_const_iterator
FUNC 184de 1a 0 std::map<std::basic_string<char, std::char_traits<char>, std::allocator<char> >, std::basic_string<char, std::char_traits<char>, std::allocator<char> >, std::less<std::basic_string<char, std::char_traits<char>, std::allocator<char> > >, std::allocator<std::pair<const std::basic_string<char, std::char_traits<char>, std::allocator<char> >, std::basic_string<char, std::char_traits<char>, std::allocator<char> > > > >::end
FUNC 184f8 22 0 std::_Rb_tree_const_iterator<std::pair<const std::basic_string<char, std::char_traits<char>, std::allocator<char> >, std::basic_string<char, std::char_traits<char>, std::allocator<char> > > >::operator!=
FUNC 1851a 15 0 std::_Rb_tree_const_iterator<std::pair<const std::basic_string<char, std::char_traits<char>, std::allocator<char> >, std::basic_string<char, std::char_traits<char>, std::allocator<char> > > >::operator->
FUNC 18530 20 0 std::vector<std::basic_string<char, std::char_traits<char>, std::allocator<char> >, std::allocator<std::basic_string<char, std::char_traits<char>, std::allocator<char> > > >::operator[]
FUNC 18550 f3 0 Config::String2Int<uint16_t>
FUNC 18644 25 0 std::vector<std::basic_string<char, std::char_traits<char>, std::allocator<char> >, std::allocator<std::basic_string<char, std::char_traits<char>, std::allocator<char> > > >::begin
FUNC 1866a 28 0 __gnu_cxx::__normal_iterator<const std::basic_string<char, std::char_traits<char>, std::allocator<char> >*, std::vector<std::basic_string<char, std::char_traits<char>, std::allocator<char> >, std::allocator<std::basic_string<char, std::char_traits<char>, std::allocator<char> > > > >::__normal_iterator<std::basic_string<char, std::char_traits<char>, std::allocator<char> >*>
FUNC 18692 29 0 std::vector<std::basic_string<char, std::char_traits<char>, std::allocator<char> >, std::allocator<std::basic_string<char, std::char_traits<char>, std::allocator<char> > > >::end
FUNC 186bb 3c 0 __gnu_cxx::operator!=<const std::basic_string<char, std::char_traits<char>, std::allocator<char> >*, std::basic_string<char, std::char_traits<char>, std::allocator<char> >*, std::vector<std::basic_string<char, std::char_traits<char>, std::allocator<char> >, std::allocator<std::basic_string<char, std::char_traits<char>, std::allocator<char> > > > >
FUNC 186f8 20 0 __gnu_cxx::__normal_iterator<const std::basic_string<char, std::char_traits<char>, std::allocator<char> >*, std::vector<std::basic_string<char, std::char_traits<char>, std::allocator<char> >, std::allocator<std::basic_string<char, std::char_traits<char>, std::allocator<char> > > > >::operator++
FUNC 18718 11 0 __gnu_cxx::__normal_iterator<const std::basic_string<char, std::char_traits<char>, std::allocator<char> >*, std::vector<std::basic_string<char, std::char_traits<char>, std::allocator<char> >, std::allocator<std::basic_string<char, std::char_traits<char>, std::allocator<char> > > > >::operator*
FUNC 1872a 7a 0 std::vector<short unsigned int, std::allocator<short unsigned int> >::push_back
FUNC 187a4 41 0 std::vector<short unsigned int, std::allocator<short unsigned int> >::empty
FUNC 187e6 1f 0 std::vector<short unsigned int, std::allocator<short unsigned int> >::operator[]
FUNC 18806 f3 0 Config::String2Int<int32_t>
FUNC 188fa 242 0 std::vector<std::basic_string<char, std::char_traits<char>, std::allocator<char> >, std::allocator<std::basic_string<char, std::char_traits<char>, std::allocator<char> > > >::operator=
FUNC 18b3c 29 0 std::vector<std::basic_string<char, std::char_traits<char>, std::allocator<char> >, std::allocator<std::basic_string<char, std::char_traits<char>, std::allocator<char> > > >::size
FUNC 18b66 7a 0 std::vector<std::basic_string<char, std::char_traits<char>, std::allocator<char> >, std::allocator<std::basic_string<char, std::char_traits<char>, std::allocator<char> > > >::push_back
FUNC 18be0 1a 0 std::_Rb_tree<std::basic_string<char, std::char_traits<char>, std::allocator<char> >, std::pair<const std::basic_string<char, std::char_traits<char>, std::allocator<char> >, std::basic_string<char, std::char_traits<char>, std::allocator<char> > >, std::_Select1st<std::pair<const std::basic_string<char, std::char_traits<char>, std::allocator<char> >, std::basic_string<char, std::char_traits<char>, std::allocator<char> > > >, std::less<std::basic_string<char, std::char_traits<char>, std::allocator<char> > >, std::allocator<std::pair<const std::basic_string<char, std::char_traits<char>, std::allocator<char> >, std::basic_string<char, std::char_traits<char>, std::allocator<char> > > > >::_Rb_tree
FUNC 18bfa 1a 0 std::allocator<std::_Rb_tree_node<std::pair<const std::basic_string<char, std::char_traits<char>, std::allocator<char> >, std::basic_string<char, std::char_traits<char>, std::allocator<char> > > > >::~allocator
FUNC 18c14 69 0 std::_Rb_tree<std::basic_string<char, std::char_traits<char>, std::allocator<char> >, std::pair<const std::basic_string<char, std::char_traits<char>, std::allocator<char> >, std::basic_string<char, std::char_traits<char>, std::allocator<char> > >, std::_Select1st<std::pair<const std::basic_string<char, std::char_traits<char>, std::allocator<char> >, std::basic_string<char, std::char_traits<char>, std::allocator<char> > > >, std::less<std::basic_string<char, std::char_traits<char>, std::allocator<char> > >, std::allocator<std::pair<const std::basic_string<char, std::char_traits<char>, std::allocator<char> >, std::basic_string<char, std::char_traits<char>, std::allocator<char> > > > >::_M_erase
FUNC 18c7e 12 0 std::_Rb_tree<std::basic_string<char, std::char_traits<char>, std::allocator<char> >, std::pair<const std::basic_string<char, std::char_traits<char>, std::allocator<char> >, std::basic_string<char, std::char_traits<char>, std::allocator<char> > >, std::_Select1st<std::pair<const std::basic_string<char, std::char_traits<char>, std::allocator<char> >, std::basic_string<char, std::char_traits<char>, std::allocator<char> > > >, std::less<std::basic_string<char, std::char_traits<char>, std::allocator<char> > >, std::allocator<std::pair<const std::basic_string<char, std::char_traits<char>, std::allocator<char> >, std::basic_string<char, std::char_traits<char>, std::allocator<char> > > > >::_M_begin
FUNC 18c90 1a 0 std::_Vector_base<short unsigned int, std::allocator<short unsigned int> >::_Vector_impl::~_Vector_impl
FUNC 18caa 1a 0 std::_Vector_base<short unsigned int, std::allocator<short unsigned int> >::_Vector_base
FUNC 18cc4 7c 0 std::_Vector_base<short unsigned int, std::allocator<short unsigned int> >::~_Vector_base
FUNC 18d40 e 0 std::_Vector_base<short unsigned int, std::allocator<short unsigned int> >::_M_get_Tp_allocator
FUNC 18d4e 29 0 std::_Destroy<short unsigned int*, short unsigned int>
FUNC 18d78 1a 0 std::_Vector_base<std::basic_string<char, std::char_traits<char>, std::allocator<char> >, std::allocator<std::basic_string<char, std::char_traits<char>, std::allocator<char> > > >::_Vector_impl::~_Vector_impl
FUNC 18d92 1a 0 std::_Vector_base<std::basic_string<char, std::char_traits<char>, std::allocator<char> >, std::allocator<std::basic_string<char, std::char_traits<char>, std::allocator<char> > > >::_Vector_base
FUNC 18dac 7d 0 std::_Vector_base<std::basic_string<char, std::char_traits<char>, std::allocator<char> >, std::allocator<std::basic_string<char, std::char_traits<char>, std::allocator<char> > > >::~_Vector_base
FUNC 18e2a e 0 std::_Vector_base<std::basic_string<char, std::char_traits<char>, std::allocator<char> >, std::allocator<std::basic_string<char, std::char_traits<char>, std::allocator<char> > > >::_M_get_Tp_allocator
FUNC 18e38 29 0 std::_Destroy<std::basic_string<char, std::char_traits<char>, std::allocator<char> >*, std::basic_string<char, std::char_traits<char>, std::allocator<char> > >
FUNC 18e62 44 0 std::vector<short unsigned int, std::allocator<short unsigned int> >::_M_erase_at_end
FUNC 18ea6 44 0 std::vector<std::basic_string<char, std::char_traits<char>, std::allocator<char> >, std::allocator<std::basic_string<char, std::char_traits<char>, std::allocator<char> > > >::_M_erase_at_end
FUNC 18eea 8d 0 std::_Rb_tree<std::basic_string<char, std::char_traits<char>, std::allocator<char> >, std::pair<const std::basic_string<char, std::char_traits<char>, std::allocator<char> >, std::basic_string<char, std::char_traits<char>, std::allocator<char> > >, std::_Select1st<std::pair<const std::basic_string<char, std::char_traits<char>, std::allocator<char> >, std::basic_string<char, std::char_traits<char>, std::allocator<char> > > >, std::less<std::basic_string<char, std::char_traits<char>, std::allocator<char> > >, std::allocator<std::pair<const std::basic_string<char, std::char_traits<char>, std::allocator<char> >, std::basic_string<char, std::char_traits<char>, std::allocator<char> > > > >::clear
FUNC 18f78 25 0 std::map<std::basic_string<char, std::char_traits<char>, std::allocator<char> >, std::basic_string<char, std::char_traits<char>, std::allocator<char> >, std::less<std::basic_string<char, std::char_traits<char>, std::allocator<char> > >, std::allocator<std::pair<const std::basic_string<char, std::char_traits<char>, std::allocator<char> >, std::basic_string<char, std::char_traits<char>, std::allocator<char> > > > >::lower_bound
FUNC 18f9e 1a 0 std::map<std::basic_string<char, std::char_traits<char>, std::allocator<char> >, std::basic_string<char, std::char_traits<char>, std::allocator<char> >, std::less<std::basic_string<char, std::char_traits<char>, std::allocator<char> > >, std::allocator<std::pair<const std::basic_string<char, std::char_traits<char>, std::allocator<char> >, std::basic_string<char, std::char_traits<char>, std::allocator<char> > > > >::key_comp
FUNC 18fb8 15 0 std::_Rb_tree_iterator<std::pair<const std::basic_string<char, std::char_traits<char>, std::allocator<char> >, std::basic_string<char, std::char_traits<char>, std::allocator<char> > > >::operator*
FUNC 18fce 29 0 std::less<std::basic_string<char, std::char_traits<char>, std::allocator<char> > >::operator()
FUNC 18ff8 22 0 std::_Rb_tree_iterator<std::pair<const std::basic_string<char, std::char_traits<char>, std::allocator<char> >, std::basic_string<char, std::char_traits<char>, std::allocator<char> > > >::operator==
FUNC 1901a 6b 0 std::pair<const std::basic_string<char, std::char_traits<char>, std::allocator<char> >, std::basic_string<char, std::char_traits<char>, std::allocator<char> > >::pair
FUNC 19086 40 0 std::map<std::basic_string<char, std::char_traits<char>, std::allocator<char> >, std::basic_string<char, std::char_traits<char>, std::allocator<char> >, std::less<std::basic_string<char, std::char_traits<char>, std::allocator<char> > >, std::allocator<std::pair<const std::basic_string<char, std::char_traits<char>, std::allocator<char> >, std::basic_string<char, std::char_traits<char>, std::allocator<char> > > > >::insert
FUNC 190c6 b6 0 std::_Rb_tree<std::basic_string<char, std::char_traits<char>, std::allocator<char> >, std::pair<const std::basic_string<char, std::char_traits<char>, std::allocator<char> >, std::basic_string<char, std::char_traits<char>, std::allocator<char> > >, std::_Select1st<std::pair<const std::basic_string<char, std::char_traits<char>, std::allocator<char> >, std::basic_string<char, std::char_traits<char>, std::allocator<char> > > >, std::less<std::basic_string<char, std::char_traits<char>, std::allocator<char> > >, std::allocator<std::pair<const std::basic_string<char, std::char_traits<char>, std::allocator<char> >, std::basic_string<char, std::char_traits<char>, std::allocator<char> > > > >::find
FUNC 1917c 2c 0 std::_Rb_tree<std::basic_string<char, std::char_traits<char>, std::allocator<char> >, std::pair<const std::basic_string<char, std::char_traits<char>, std::allocator<char> >, std::basic_string<char, std::char_traits<char>, std::allocator<char> > >, std::_Select1st<std::pair<const std::basic_string<char, std::char_traits<char>, std::allocator<char> >, std::basic_string<char, std::char_traits<char>, std::allocator<char> > > >, std::less<std::basic_string<char, std::char_traits<char>, std::allocator<char> > >, std::allocator<std::pair<const std::basic_string<char, std::char_traits<char>, std::allocator<char> >, std::basic_string<char, std::char_traits<char>, std::allocator<char> > > > >::end
FUNC 191a8 1c 0 __gnu_cxx::__normal_iterator<std::basic_string<char, std::char_traits<char>, std::allocator<char> >*, std::vector<std::basic_string<char, std::char_traits<char>, std::allocator<char> >, std::allocator<std::basic_string<char, std::char_traits<char>, std::allocator<char> > > > >::__normal_iterator
FUNC 191c4 e 0 __gnu_cxx::__normal_iterator<std::basic_string<char, std::char_traits<char>, std::allocator<char> >*, std::vector<std::basic_string<char, std::char_traits<char>, std::allocator<char> >, std::allocator<std::basic_string<char, std::char_traits<char>, std::allocator<char> > > > >::base
FUNC 191d2 e 0 __gnu_cxx::__normal_iterator<const std::basic_string<char, std::char_traits<char>, std::allocator<char> >*, std::vector<std::basic_string<char, std::char_traits<char>, std::allocator<char> >, std::allocator<std::basic_string<char, std::char_traits<char>, std::allocator<char> > > > >::base
FUNC 191e0 39 0 __gnu_cxx::new_allocator<short unsigned int>::construct
FUNC 1921a 2e5 0 std::vector<short unsigned int, std::allocator<short unsigned int> >::_M_insert_aux
FUNC 19500 29 0 std::vector<short unsigned int, std::allocator<short unsigned int> >::end
FUNC 1952a 31 0 std::vector<short unsigned int, std::allocator<short unsigned int> >::end
FUNC 1955c 30 0 std::vector<short unsigned int, std::allocator<short unsigned int> >::begin
FUNC 1958c 3c 0 __gnu_cxx::operator==<const short unsigned int*, std::vector<short unsigned int, std::allocator<short unsigned int> > >
FUNC 195c8 29 0 std::vector<std::basic_string<char, std::char_traits<char>, std::allocator<char> >, std::allocator<std::basic_string<char, std::char_traits<char>, std::allocator<char> > > >::capacity
FUNC 195f2 30 0 std::vector<std::basic_string<char, std::char_traits<char>, std::allocator<char> >, std::allocator<std::basic_string<char, std::char_traits<char>, std::allocator<char> > > >::begin
FUNC 19622 31 0 std::vector<std::basic_string<char, std::char_traits<char>, std::allocator<char> >, std::allocator<std::basic_string<char, std::char_traits<char>, std::allocator<char> > > >::end
FUNC 19654 a1 0 std::vector<std::basic_string<char, std::char_traits<char>, std::allocator<char> >, std::allocator<std::basic_string<char, std::char_traits<char>, std::allocator<char> > > >::_M_allocate_and_copy<__gnu_cxx::__normal_iterator<const std::basic_string<char, std::char_traits<char>, std::allocator<char> >*, std::vector<std::basic_string<char, std::char_traits<char>, std::allocator<char> >, std::allocator<std::basic_string<char, std::char_traits<char>, std::allocator<char> > > > > >
FUNC 196f6 34 0 std::_Vector_base<std::basic_string<char, std::char_traits<char>, std::allocator<char> >, std::allocator<std::basic_string<char, std::char_traits<char>, std::allocator<char> > > >::_M_deallocate
FUNC 1972a 46 0 std::copy<__gnu_cxx::__normal_iterator<const std::basic_string<char, std::char_traits<char>, std::allocator<char> >*, std::vector<std::basic_string<char, std::char_traits<char>, std::allocator<char> >, std::allocator<std::basic_string<char, std::char_traits<char>, std::allocator<char> > > > >, __gnu_cxx::__normal_iterator<std::basic_string<char, std::char_traits<char>, std::allocator<char> >*, std::vector<std::basic_string<char, std::char_traits<char>, std::allocator<char> >, std::allocator<std::basic_string<char, std::char_traits<char>, std::allocator<char> > > > > >
FUNC 19770 29 0 std::_Destroy<__gnu_cxx::__normal_iterator<std::basic_string<char, std::char_traits<char>, std::allocator<char> >*, std::vector<std::basic_string<char, std::char_traits<char>, std::allocator<char> >, std::allocator<std::basic_string<char, std::char_traits<char>, std::allocator<char> > > > >, std::basic_string<char, std::char_traits<char>, std::allocator<char> > >
FUNC 19799 46 0 std::copy<std::basic_string<char, std::char_traits<char>, std::allocator<char> >*, std::basic_string<char, std::char_traits<char>, std::allocator<char> >*>
FUNC 197df 31 0 std::__uninitialized_copy_a<std::basic_string<char, std::char_traits<char>, std::allocator<char> >*, std::basic_string<char, std::char_traits<char>, std::allocator<char> >*, std::basic_string<char, std::char_traits<char>, std::allocator<char> > >
FUNC 19810 77 0 __gnu_cxx::new_allocator<std::basic_string<char, std::char_traits<char>, std::allocator<char> > >::construct
FUNC 19888 326 0 std::vector<std::basic_string<char, std::char_traits<char>, std::allocator<char> >, std::allocator<std::basic_string<char, std::char_traits<char>, std::allocator<char> > > >::_M_insert_aux
FUNC 19bae e 0 std::_Vector_base<std::basic_string<char, std::char_traits<char>, std::allocator<char> >, std::allocator<std::basic_string<char, std::char_traits<char>, std::allocator<char> > > >::_M_get_Tp_allocator
FUNC 19bbc 31 0 std::__uninitialized_copy_a<__gnu_cxx::__normal_iterator<const std::basic_string<char, std::char_traits<char>, std::allocator<char> >*, std::vector<std::basic_string<char, std::char_traits<char>, std::allocator<char> >, std::allocator<std::basic_string<char, std::char_traits<char>, std::allocator<char> > > > >, std::basic_string<char, std::char_traits<char>, std::allocator<char> >*, std::basic_string<char, std::char_traits<char>, std::allocator<char> > >
FUNC 19bee 12 0 std::_Rb_tree<std::basic_string<char, std::char_traits<char>, std::allocator<char> >, std::pair<const std::basic_string<char, std::char_traits<char>, std::allocator<char> >, std::basic_string<char, std::char_traits<char>, std::allocator<char> > >, std::_Select1st<std::pair<const std::basic_string<char, std::char_traits<char>, std::allocator<char> >, std::basic_string<char, std::char_traits<char>, std::allocator<char> > > >, std::less<std::basic_string<char, std::char_traits<char>, std::allocator<char> > >, std::allocator<std::pair<const std::basic_string<char, std::char_traits<char>, std::allocator<char> >, std::basic_string<char, std::char_traits<char>, std::allocator<char> > > > >::_M_end
FUNC 19c00 12 0 std::_Rb_tree<std::basic_string<char, std::char_traits<char>, std::allocator<char> >, std::pair<const std::basic_string<char, std::char_traits<char>, std::allocator<char> >, std::basic_string<char, std::char_traits<char>, std::allocator<char> > >, std::_Select1st<std::pair<const std::basic_string<char, std::char_traits<char>, std::allocator<char> >, std::basic_string<char, std::char_traits<char>, std::allocator<char> > > >, std::less<std::basic_string<char, std::char_traits<char>, std::allocator<char> > >, std::allocator<std::pair<const std::basic_string<char, std::char_traits<char>, std::allocator<char> >, std::basic_string<char, std::char_traits<char>, std::allocator<char> > > > >::_M_root
FUNC 19c12 12 0 std::_Rb_tree<std::basic_string<char, std::char_traits<char>, std::allocator<char> >, std::pair<const std::basic_string<char, std::char_traits<char>, std::allocator<char> >, std::basic_string<char, std::char_traits<char>, std::allocator<char> > >, std::_Select1st<std::pair<const std::basic_string<char, std::char_traits<char>, std::allocator<char> >, std::basic_string<char, std::char_traits<char>, std::allocator<char> > > >, std::less<std::basic_string<char, std::char_traits<char>, std::allocator<char> > >, std::allocator<std::pair<const std::basic_string<char, std::char_traits<char>, std::allocator<char> >, std::basic_string<char, std::char_traits<char>, std::allocator<char> > > > >::_M_leftmost
FUNC 19c24 12 0 std::_Rb_tree<std::basic_string<char, std::char_traits<char>, std::allocator<char> >, std::pair<const std::basic_string<char, std::char_traits<char>, std::allocator<char> >, std::basic_string<char, std::char_traits<char>, std::allocator<char> > >, std::_Select1st<std::pair<const std::basic_string<char, std::char_traits<char>, std::allocator<char> >, std::basic_string<char, std::char_traits<char>, std::allocator<char> > > >, std::less<std::basic_string<char, std::char_traits<char>, std::allocator<char> > >, std::allocator<std::pair<const std::basic_string<char, std::char_traits<char>, std::allocator<char> >, std::basic_string<char, std::char_traits<char>, std::allocator<char> > > > >::_M_rightmost
FUNC 19c36 8c 0 std::_Rb_tree<std::basic_string<char, std::char_traits<char>, std::allocator<char> >, std::pair<const std::basic_string<char, std::char_traits<char>, std::allocator<char> >, std::basic_string<char, std::char_traits<char>, std::allocator<char> > >, std::_Select1st<std::pair<const std::basic_string<char, std::char_traits<char>, std::allocator<char> >, std::basic_string<char, std::char_traits<char>, std::allocator<char> > > >, std::less<std::basic_string<char, std::char_traits<char>, std::allocator<char> > >, std::allocator<std::pair<const std::basic_string<char, std::char_traits<char>, std::allocator<char> >, std::basic_string<char, std::char_traits<char>, std::allocator<char> > > > >::_Rb_tree_impl<std::less<std::basic_string<char, std::char_traits<char>, std::allocator<char> > >, false>::_Rb_tree_impl
FUNC 19cc2 a 0 __gnu_cxx::new_allocator<std::_Rb_tree_node<std::pair<const std::basic_string<char, std::char_traits<char>, std::allocator<char> >, std::basic_string<char, std::char_traits<char>, std::allocator<char> > > > >::~new_allocator
FUNC 19ccc 12 0 std::_Rb_tree<std::basic_string<char, std::char_traits<char>, std::allocator<char> >, std::pair<const std::basic_string<char, std::char_traits<char>, std::allocator<char> >, std::basic_string<char, std::char_traits<char>, std::allocator<char> > >, std::_Select1st<std::pair<const std::basic_string<char, std::char_traits<char>, std::allocator<char> >, std::basic_string<char, std::char_traits<char>, std::allocator<char> > > >, std::less<std::basic_string<char, std::char_traits<char>, std::allocator<char> > >, std::allocator<std::pair<const std::basic_string<char, std::char_traits<char>, std::allocator<char> >, std::basic_string<char, std::char_traits<char>, std::allocator<char> > > > >::_S_right
FUNC 19cde 12 0 std::_Rb_tree<std::basic_string<char, std::char_traits<char>, std::allocator<char> >, std::pair<const std::basic_string<char, std::char_traits<char>, std::allocator<char> >, std::basic_string<char, std::char_traits<char>, std::allocator<char> > >, std::_Select1st<std::pair<const std::basic_string<char, std::char_traits<char>, std::allocator<char> >, std::basic_string<char, std::char_traits<char>, std::allocator<char> > > >, std::less<std::basic_string<char, std::char_traits<char>, std::allocator<char> > >, std::allocator<std::pair<const std::basic_string<char, std::char_traits<char>, std::allocator<char> >, std::basic_string<char, std::char_traits<char>, std::allocator<char> > > > >::_S_left
FUNC 19cf0 86 0 std::_Rb_tree<std::basic_string<char, std::char_traits<char>, std::allocator<char> >, std::pair<const std::basic_string<char, std::char_traits<char>, std::allocator<char> >, std::basic_string<char, std::char_traits<char>, std::allocator<char> > >, std::_Select1st<std::pair<const std::basic_string<char, std::char_traits<char>, std::allocator<char> >, std::basic_string<char, std::char_traits<char>, std::allocator<char> > > >, std::less<std::basic_string<char, std::char_traits<char>, std::allocator<char> > >, std::allocator<std::pair<const std::basic_string<char, std::char_traits<char>, std::allocator<char> >, std::basic_string<char, std::char_traits<char>, std::allocator<char> > > > >::_M_destroy_node
FUNC 19d76 3d 0 std::_Vector_base<short unsigned int, std::allocator<short unsigned int> >::_Vector_impl::_Vector_impl
FUNC 19db4 1a 0 std::allocator<short unsigned int>::~allocator
FUNC 19dce 34 0 std::_Vector_base<short unsigned int, std::allocator<short unsigned int> >::_M_deallocate
FUNC 19e02 25 0 std::_Destroy<short unsigned int*>
FUNC 19e28 3d 0 std::_Vector_base<std::basic_string<char, std::char_traits<char>, std::allocator<char> >, std::allocator<std::basic_string<char, std::char_traits<char>, std::allocator<char> > > >::_Vector_impl::_Vector_impl
FUNC 19e66 1a 0 std::allocator<std::basic_string<char, std::char_traits<char>, std::allocator<char> > >::~allocator
FUNC 19e80 25 0 std::_Destroy<std::basic_string<char, std::char_traits<char>, std::allocator<char> >*>
FUNC 19ea6 53 0 std::_Rb_tree<std::basic_string<char, std::char_traits<char>, std::allocator<char> >, std::pair<const std::basic_string<char, std::char_traits<char>, std::allocator<char> >, std::basic_string<char, std::char_traits<char>, std::allocator<char> > >, std::_Select1st<std::pair<const std::basic_string<char, std::char_traits<char>, std::allocator<char> >, std::basic_string<char, std::char_traits<char>, std::allocator<char> > > >, std::less<std::basic_string<char, std::char_traits<char>, std::allocator<char> > >, std::allocator<std::pair<const std::basic_string<char, std::char_traits<char>, std::allocator<char> >, std::basic_string<char, std::char_traits<char>, std::allocator<char> > > > >::lower_bound
FUNC 19efa a 0 std::_Rb_tree<std::basic_string<char, std::char_traits<char>, std::allocator<char> >, std::pair<const std::basic_string<char, std::char_traits<char>, std::allocator<char> >, std::basic_string<char, std::char_traits<char>, std::allocator<char> > >, std::_Select1st<std::pair<const std::basic_string<char, std::char_traits<char>, std::allocator<char> >, std::basic_string<char, std::char_traits<char>, std::allocator<char> > > >, std::less<std::basic_string<char, std::char_traits<char>, std::allocator<char> > >, std::allocator<std::pair<const std::basic_string<char, std::char_traits<char>, std::allocator<char> >, std::basic_string<char, std::char_traits<char>, std::allocator<char> > > > >::key_comp
FUNC 19f04 28 0 std::operator< <char, std::char_traits<char>, std::allocator<char> >
FUNC 19f2c 4c0 0 std::_Rb_tree<std::basic_string<char, std::char_traits<char>, std::allocator<char> >, std::pair<const std::basic_string<char, std::char_traits<char>, std::allocator<char> >, std::basic_string<char, std::char_traits<char>, std::allocator<char> > >, std::_Select1st<std::pair<const std::basic_string<char, std::char_traits<char>, std::allocator<char> >, std::basic_string<char, std::char_traits<char>, std::allocator<char> > > >, std::less<std::basic_string<char, std::char_traits<char>, std::allocator<char> > >, std::allocator<std::pair<const std::basic_string<char, std::char_traits<char>, std::allocator<char> >, std::basic_string<char, std::char_traits<char>, std::allocator<char> > > > >::_M_insert_unique_
FUNC 1a3ec 92 0 std::_Rb_tree<std::basic_string<char, std::char_traits<char>, std::allocator<char> >, std::pair<const std::basic_string<char, std::char_traits<char>, std::allocator<char> >, std::basic_string<char, std::char_traits<char>, std::allocator<char> > >, std::_Select1st<std::pair<const std::basic_string<char, std::char_traits<char>, std::allocator<char> >, std::basic_string<char, std::char_traits<char>, std::allocator<char> > > >, std::less<std::basic_string<char, std::char_traits<char>, std::allocator<char> > >, std::allocator<std::pair<const std::basic_string<char, std::char_traits<char>, std::allocator<char> >, std::basic_string<char, std::char_traits<char>, std::allocator<char> > > > >::_M_lower_bound
FUNC 1a47e 2c 0 std::_Rb_tree<std::basic_string<char, std::char_traits<char>, std::allocator<char> >, std::pair<const std::basic_string<char, std::char_traits<char>, std::allocator<char> >, std::basic_string<char, std::char_traits<char>, std::allocator<char> > >, std::_Select1st<std::pair<const std::basic_string<char, std::char_traits<char>, std::allocator<char> >, std::basic_string<char, std::char_traits<char>, std::allocator<char> > > >, std::less<std::basic_string<char, std::char_traits<char>, std::allocator<char> > >, std::allocator<std::pair<const std::basic_string<char, std::char_traits<char>, std::allocator<char> >, std::basic_string<char, std::char_traits<char>, std::allocator<char> > > > >::_S_key
FUNC 1a4aa 19 0 std::_Rb_tree_iterator<std::pair<const std::basic_string<char, std::char_traits<char>, std::allocator<char> >, std::basic_string<char, std::char_traits<char>, std::allocator<char> > > >::_Rb_tree_iterator
FUNC 1a4c4 e 0 __gnu_cxx::__normal_iterator<short unsigned int*, std::vector<short unsigned int, std::allocator<short unsigned int> > >::base
FUNC 1a4d2 46 0 std::copy_backward<short unsigned int*, short unsigned int*>
FUNC 1a518 11 0 __gnu_cxx::__normal_iterator<short unsigned int*, std::vector<short unsigned int, std::allocator<short unsigned int> > >::operator*
FUNC 1a52a ca 0 std::vector<short unsigned int, std::allocator<short unsigned int> >::_M_check_len
FUNC 1a5f4 25 0 std::vector<short unsigned int, std::allocator<short unsigned int> >::begin
FUNC 1a619 45 0 __gnu_cxx::operator-<short unsigned int*, std::vector<short unsigned int, std::allocator<short unsigned int> > >
FUNC 1a65e 38 0 std::_Vector_base<short unsigned int, std::allocator<short unsigned int> >::_M_allocate
FUNC 1a696 3b 0 std::__uninitialized_move_a<short unsigned int*, short unsigned int*, std::allocator<short unsigned int> >
FUNC 1a6d2 e 0 __gnu_cxx::new_allocator<short unsigned int>::destroy
FUNC 1a6e0 1c 0 __gnu_cxx::__normal_iterator<short unsigned int*, std::vector<short unsigned int, std::allocator<short unsigned int> > >::__normal_iterator
FUNC 1a6fc 1c 0 __gnu_cxx::__normal_iterator<const short unsigned int*, std::vector<short unsigned int, std::allocator<short unsigned int> > >::__normal_iterator
FUNC 1a718 e 0 __gnu_cxx::__normal_iterator<const short unsigned int*, std::vector<short unsigned int, std::allocator<short unsigned int> > >::base
FUNC 1a726 1c 0 __gnu_cxx::__normal_iterator<const std::basic_string<char, std::char_traits<char>, std::allocator<char> >*, std::vector<std::basic_string<char, std::char_traits<char>, std::allocator<char> >, std::allocator<std::basic_string<char, std::char_traits<char>, std::allocator<char> > > > >::__normal_iterator
FUNC 1a742 38 0 std::_Vector_base<std::basic_string<char, std::char_traits<char>, std::allocator<char> >, std::allocator<std::basic_string<char, std::char_traits<char>, std::allocator<char> > > >::_M_allocate
FUNC 1a77a 22 0 __gnu_cxx::new_allocator<std::basic_string<char, std::char_traits<char>, std::allocator<char> > >::deallocate
FUNC 1a79c e 0 std::__miter_base<__gnu_cxx::__normal_iterator<const std::basic_string<char, std::char_traits<char>, std::allocator<char> >*, std::vector<std::basic_string<char, std::char_traits<char>, std::allocator<char> >, std::allocator<std::basic_string<char, std::char_traits<char>, std::allocator<char> > > > >, false>::__b
FUNC 1a7aa 73 0 std::__copy_move_a2<false, __gnu_cxx::__normal_iterator<const std::basic_string<char, std::char_traits<char>, std::allocator<char> >*, std::vector<std::basic_string<char, std::char_traits<char>, std::allocator<char> >, std::allocator<std::basic_string<char, std::char_traits<char>, std::allocator<char> > > > >, __gnu_cxx::__normal_iterator<std::basic_string<char, std::char_traits<char>, std::allocator<char> >*, std::vector<std::basic_string<char, std::char_traits<char>, std::allocator<char> >, std::allocator<std::basic_string<char, std::char_traits<char>, std::allocator<char> > > > > >
FUNC 1a81d 25 0 std::_Destroy<__gnu_cxx::__normal_iterator<std::basic_string<char, std::char_traits<char>, std::allocator<char> >*, std::vector<std::basic_string<char, std::char_traits<char>, std::allocator<char> >, std::allocator<std::basic_string<char, std::char_traits<char>, std::allocator<char> > > > > >
FUNC 1a842 e 0 std::__miter_base<std::basic_string<char, std::char_traits<char>, std::allocator<char> >*, false>::__b
FUNC 1a850 58 0 std::__copy_move_a2<false, std::basic_string<char, std::char_traits<char>, std::allocator<char> >*, std::basic_string<char, std::char_traits<char>, std::allocator<char> >*>
FUNC 1a8a8 2d 0 std::uninitialized_copy<std::basic_string<char, std::char_traits<char>, std::allocator<char> >*, std::basic_string<char, std::char_traits<char>, std::allocator<char> >*>
FUNC 1a8d5 46 0 std::copy_backward<std::basic_string<char, std::char_traits<char>, std::allocator<char> >*, std::basic_string<char, std::char_traits<char>, std::allocator<char> >*>
FUNC 1a91c 11 0 __gnu_cxx::__normal_iterator<std::basic_string<char, std::char_traits<char>, std::allocator<char> >*, std::vector<std::basic_string<char, std::char_traits<char>, std::allocator<char> >, std::allocator<std::basic_string<char, std::char_traits<char>, std::allocator<char> > > > >::operator*
FUNC 1a92e ca 0 std::vector<std::basic_string<char, std::char_traits<char>, std::allocator<char> >, std::allocator<std::basic_string<char, std::char_traits<char>, std::allocator<char> > > >::_M_check_len
FUNC 1a9f8 46 0 __gnu_cxx::operator-<std::basic_string<char, std::char_traits<char>, std::allocator<char> >*, std::vector<std::basic_string<char, std::char_traits<char>, std::allocator<char> >, std::allocator<std::basic_string<char, std::char_traits<char>, std::allocator<char> > > > >
FUNC 1aa3e 3b 0 std::__uninitialized_move_a<std::basic_string<char, std::char_traits<char>, std::allocator<char> >*, std::basic_string<char, std::char_traits<char>, std::allocator<char> >*, std::allocator<std::basic_string<char, std::char_traits<char>, std::allocator<char> > > >
FUNC 1aa7a 1e 0 __gnu_cxx::new_allocator<std::basic_string<char, std::char_traits<char>, std::allocator<char> > >::destroy
FUNC 1aa98 2d 0 std::uninitialized_copy<__gnu_cxx::__normal_iterator<const std::basic_string<char, std::char_traits<char>, std::allocator<char> >*, std::vector<std::basic_string<char, std::char_traits<char>, std::allocator<char> >, std::allocator<std::basic_string<char, std::char_traits<char>, std::allocator<char> > > > >, std::basic_string<char, std::char_traits<char>, std::allocator<char> >*>
FUNC 1aac5 12 0 std::_Rb_tree<std::basic_string<char, std::char_traits<char>, std::allocator<char> >, std::pair<const std::basic_string<char, std::char_traits<char>, std::allocator<char> >, std::basic_string<char, std::char_traits<char>, std::allocator<char> > >, std::_Select1st<std::pair<const std::basic_string<char, std::char_traits<char>, std::allocator<char> >, std::basic_string<char, std::char_traits<char>, std::allocator<char> > > >, std::less<std::basic_string<char, std::char_traits<char>, std::allocator<char> > >, std::allocator<std::pair<const std::basic_string<char, std::char_traits<char>, std::allocator<char> >, std::basic_string<char, std::char_traits<char>, std::allocator<char> > > > >::_S_right
FUNC 1aad8 1a 0 std::allocator<std::_Rb_tree_node<std::pair<const std::basic_string<char, std::char_traits<char>, std::allocator<char> >, std::basic_string<char, std::char_traits<char>, std::allocator<char> > > > >::allocator
FUNC 1aaf2 41 0 std::_Rb_tree<std::basic_string<char, std::char_traits<char>, std::allocator<char> >, std::pair<const std::basic_string<char, std::char_traits<char>, std::allocator<char> >, std::basic_string<char, std::char_traits<char>, std::allocator<char> > >, std::_Select1st<std::pair<const std::basic_string<char, std::char_traits<char>, std::allocator<char> >, std::basic_string<char, std::char_traits<char>, std::allocator<char> > > >, std::less<std::basic_string<char, std::char_traits<char>, std::allocator<char> > >, std::allocator<std::pair<const std::basic_string<char, std::char_traits<char>, std::allocator<char> >, std::basic_string<char, std::char_traits<char>, std::allocator<char> > > > >::_Rb_tree_impl<std::less<std::basic_string<char, std::char_traits<char>, std::allocator<char> > >, false>::_M_initialize
FUNC 1ab34 3b 0 std::_Rb_tree<std::basic_string<char, std::char_traits<char>, std::allocator<char> >, std::pair<const std::basic_string<char, std::char_traits<char>, std::allocator<char> >, std::basic_string<char, std::char_traits<char>, std::allocator<char> > >, std::_Select1st<std::pair<const std::basic_string<char, std::char_traits<char>, std::allocator<char> >, std::basic_string<char, std::char_traits<char>, std::allocator<char> > > >, std::less<std::basic_string<char, std::char_traits<char>, std::allocator<char> > >, std::allocator<std::pair<const std::basic_string<char, std::char_traits<char>, std::allocator<char> >, std::basic_string<char, std::char_traits<char>, std::allocator<char> > > > >::get_allocator
FUNC 1ab70 1a 0 std::allocator<std::pair<const std::basic_string<char, std::char_traits<char>, std::allocator<char> >, std::basic_string<char, std::char_traits<char>, std::allocator<char> > > >::~allocator
FUNC 1ab8a 1e 0 __gnu_cxx::new_allocator<std::pair<const std::basic_string<char, std::char_traits<char>, std::allocator<char> >, std::basic_string<char, std::char_traits<char>, std::allocator<char> > > >::destroy
FUNC 1aba8 2a 0 std::_Rb_tree<std::basic_string<char, std::char_traits<char>, std::allocator<char> >, std::pair<const std::basic_string<char, std::char_traits<char>, std::allocator<char> >, std::basic_string<char, std::char_traits<char>, std::allocator<char> > >, std::_Select1st<std::pair<const std::basic_string<char, std::char_traits<char>, std::allocator<char> >, std::basic_string<char, std::char_traits<char>, std::allocator<char> > > >, std::less<std::basic_string<char, std::char_traits<char>, std::allocator<char> > >, std::allocator<std::pair<const std::basic_string<char, std::char_traits<char>, std::allocator<char> >, std::basic_string<char, std::char_traits<char>, std::allocator<char> > > > >::_M_put_node
FUNC 1abd2 1a 0 std::allocator<short unsigned int>::allocator
FUNC 1abec a 0 __gnu_cxx::new_allocator<short unsigned int>::~new_allocator
FUNC 1abf6 22 0 __gnu_cxx::new_allocator<short unsigned int>::deallocate
FUNC 1ac18 e 0 std::_Destroy_aux<true>::__destroy<short unsigned int*>
FUNC 1ac26 1a 0 std::allocator<std::basic_string<char, std::char_traits<char>, std::allocator<char> > >::allocator
FUNC 1ac40 a 0 __gnu_cxx::new_allocator<std::basic_string<char, std::char_traits<char>, std::allocator<char> > >::~new_allocator
FUNC 1ac4a 34 0 std::_Destroy_aux<false>::__destroy<std::basic_string<char, std::char_traits<char>, std::allocator<char> >*>
FUNC 1ac7e 12 0 std::_Select1st<std::pair<const std::basic_string<char, std::char_traits<char>, std::allocator<char> >, std::basic_string<char, std::char_traits<char>, std::allocator<char> > > >::operator()
FUNC 1ac90 12 0 std::_Rb_tree<std::basic_string<char, std::char_traits<char>, std::allocator<char> >, std::pair<const std::basic_string<char, std::char_traits<char>, std::allocator<char> >, std::basic_string<char, std::char_traits<char>, std::allocator<char> > >, std::_Select1st<std::pair<const std::basic_string<char, std::char_traits<char>, std::allocator<char> >, std::basic_string<char, std::char_traits<char>, std::allocator<char> > > >, std::less<std::basic_string<char, std::char_traits<char>, std::allocator<char> > >, std::allocator<std::pair<const std::basic_string<char, std::char_traits<char>, std::allocator<char> >, std::basic_string<char, std::char_traits<char>, std::allocator<char> > > > >::size
FUNC 1aca2 e3 0 std::_Rb_tree<std::basic_string<char, std::char_traits<char>, std::allocator<char> >, std::pair<const std::basic_string<char, std::char_traits<char>, std::allocator<char> >, std::basic_string<char, std::char_traits<char>, std::allocator<char> > >, std::_Select1st<std::pair<const std::basic_string<char, std::char_traits<char>, std::allocator<char> >, std::basic_string<char, std::char_traits<char>, std::allocator<char> > > >, std::less<std::basic_string<char, std::char_traits<char>, std::allocator<char> > >, std::allocator<std::pair<const std::basic_string<char, std::char_traits<char>, std::allocator<char> >, std::basic_string<char, std::char_traits<char>, std::allocator<char> > > > >::_M_insert_
FUNC 1ad86 271 0 std::_Rb_tree<std::basic_string<char, std::char_traits<char>, std::allocator<char> >, std::pair<const std::basic_string<char, std::char_traits<char>, std::allocator<char> >, std::basic_string<char, std::char_traits<char>, std::allocator<char> > >, std::_Select1st<std::pair<const std::basic_string<char, std::char_traits<char>, std::allocator<char> >, std::basic_string<char, std::char_traits<char>, std::allocator<char> > > >, std::less<std::basic_string<char, std::char_traits<char>, std::allocator<char> > >, std::allocator<std::pair<const std::basic_string<char, std::char_traits<char>, std::allocator<char> >, std::basic_string<char, std::char_traits<char>, std::allocator<char> > > > >::_M_insert_unique
FUNC 1aff8 28 0 std::_Rb_tree_const_iterator<std::pair<const std::basic_string<char, std::char_traits<char>, std::allocator<char> >, std::basic_string<char, std::char_traits<char>, std::allocator<char> > > >::operator--
FUNC 1b020 28 0 std::_Rb_tree_const_iterator<std::pair<const std::basic_string<char, std::char_traits<char>, std::allocator<char> >, std::basic_string<char, std::char_traits<char>, std::allocator<char> > > >::operator++
FUNC 1b048 2c 0 std::_Rb_tree<std::basic_string<char, std::char_traits<char>, std::allocator<char> >, std::pair<const std::basic_string<char, std::char_traits<char>, std::allocator<char> >, std::basic_string<char, std::char_traits<char>, std::allocator<char> > >, std::_Select1st<std::pair<const std::basic_string<char, std::char_traits<char>, std::allocator<char> >, std::basic_string<char, std::char_traits<char>, std::allocator<char> > > >, std::less<std::basic_string<char, std::char_traits<char>, std::allocator<char> > >, std::allocator<std::pair<const std::basic_string<char, std::char_traits<char>, std::allocator<char> >, std::basic_string<char, std::char_traits<char>, std::allocator<char> > > > >::_S_key
FUNC 1b074 12 0 std::_Rb_tree<std::basic_string<char, std::char_traits<char>, std::allocator<char> >, std::pair<const std::basic_string<char, std::char_traits<char>, std::allocator<char> >, std::basic_string<char, std::char_traits<char>, std::allocator<char> > >, std::_Select1st<std::pair<const std::basic_string<char, std::char_traits<char>, std::allocator<char> >, std::basic_string<char, std::char_traits<char>, std::allocator<char> > > >, std::less<std::basic_string<char, std::char_traits<char>, std::allocator<char> > >, std::allocator<std::pair<const std::basic_string<char, std::char_traits<char>, std::allocator<char> >, std::basic_string<char, std::char_traits<char>, std::allocator<char> > > > >::_S_value
FUNC 1b086 e 0 std::__miter_base<short unsigned int*, false>::__b
FUNC 1b094 58 0 std::__copy_move_backward_a2<false, short unsigned int*, short unsigned int*>
FUNC 1b0ec 28 0 std::vector<short unsigned int, std::allocator<short unsigned int> >::size
FUNC 1b114 22 0 std::vector<short unsigned int, std::allocator<short unsigned int> >::max_size
FUNC 1b136 2b 0 std::max<size_t>
FUNC 1b162 4a 0 __gnu_cxx::new_allocator<short unsigned int>::allocate
FUNC 1b1ac 31 0 std::__uninitialized_copy_a<short unsigned int*, short unsigned int*, short unsigned int>
FUNC 1b1de 4b 0 __gnu_cxx::new_allocator<std::basic_string<char, std::char_traits<char>, std::allocator<char> > >::allocate
FUNC 1b229 1d 0 std::__niter_base<__gnu_cxx::__normal_iterator<const std::basic_string<char, std::char_traits<char>, std::allocator<char> >*, std::vector<std::basic_string<char, std::char_traits<char>, std::allocator<char> >, std::allocator<std::basic_string<char, std::char_traits<char>, std::allocator<char> > > > >, true>::__b
FUNC 1b246 1d 0 std::__niter_base<__gnu_cxx::__normal_iterator<std::basic_string<char, std::char_traits<char>, std::allocator<char> >*, std::vector<std::basic_string<char, std::char_traits<char>, std::allocator<char> >, std::allocator<std::basic_string<char, std::char_traits<char>, std::allocator<char> > > > >, true>::__b
FUNC 1b263 31 0 std::__copy_move_a<false, const std::basic_string<char, std::char_traits<char>, std::allocator<char> >*, std::basic_string<char, std::char_traits<char>, std::allocator<char> >*>
FUNC 1b294 4b 0 std::_Destroy_aux<false>::__destroy<__gnu_cxx::__normal_iterator<std::basic_string<char, std::char_traits<char>, std::allocator<char> >*, std::vector<std::basic_string<char, std::char_traits<char>, std::allocator<char> >, std::allocator<std::basic_string<char, std::char_traits<char>, std::allocator<char> > > > > >
FUNC 1b2df e 0 std::__niter_base<std::basic_string<char, std::char_traits<char>, std::allocator<char> >*, false>::__b
FUNC 1b2ed 31 0 std::__copy_move_a<false, std::basic_string<char, std::char_traits<char>, std::allocator<char> >*, std::basic_string<char, std::char_traits<char>, std::allocator<char> >*>
FUNC 1b31e 92 0 std::__uninitialized_copy<false>::uninitialized_copy<std::basic_string<char, std::char_traits<char>, std::allocator<char> >*, std::basic_string<char, std::char_traits<char>, std::allocator<char> >*>
FUNC 1b3b0 58 0 std::__copy_move_backward_a2<false, std::basic_string<char, std::char_traits<char>, std::allocator<char> >*, std::basic_string<char, std::char_traits<char>, std::allocator<char> >*>
FUNC 1b408 22 0 std::vector<std::basic_string<char, std::char_traits<char>, std::allocator<char> >, std::allocator<std::basic_string<char, std::char_traits<char>, std::allocator<char> > > >::max_size
FUNC 1b42a ac 0 std::__uninitialized_copy<false>::uninitialized_copy<__gnu_cxx::__normal_iterator<const std::basic_string<char, std::char_traits<char>, std::allocator<char> >*, std::vector<std::basic_string<char, std::char_traits<char>, std::allocator<char> >, std::allocator<std::basic_string<char, std::char_traits<char>, std::allocator<char> > > > >, std::basic_string<char, std::char_traits<char>, std::allocator<char> >*>
FUNC 1b4d6 bd 0 std::_Rb_tree<std::basic_string<char, std::char_traits<char>, std::allocator<char> >, std::pair<const std::basic_string<char, std::char_traits<char>, std::allocator<char> >, std::basic_string<char, std::char_traits<char>, std::allocator<char> > >, std::_Select1st<std::pair<const std::basic_string<char, std::char_traits<char>, std::allocator<char> >, std::basic_string<char, std::char_traits<char>, std::allocator<char> > > >, std::less<std::basic_string<char, std::char_traits<char>, std::allocator<char> > >, std::allocator<std::pair<const std::basic_string<char, std::char_traits<char>, std::allocator<char> >, std::basic_string<char, std::char_traits<char>, std::allocator<char> > > > >::_M_create_node
FUNC 1b594 a 0 __gnu_cxx::new_allocator<std::_Rb_tree_node<std::pair<const std::basic_string<char, std::char_traits<char>, std::allocator<char> >, std::basic_string<char, std::char_traits<char>, std::allocator<char> > > > >::new_allocator
FUNC 1b59e e 0 std::_Rb_tree<std::basic_string<char, std::char_traits<char>, std::allocator<char> >, std::pair<const std::basic_string<char, std::char_traits<char>, std::allocator<char> >, std::basic_string<char, std::char_traits<char>, std::allocator<char> > >, std::_Select1st<std::pair<const std::basic_string<char, std::char_traits<char>, std::allocator<char> >, std::basic_string<char, std::char_traits<char>, std::allocator<char> > > >, std::less<std::basic_string<char, std::char_traits<char>, std::allocator<char> > >, std::allocator<std::pair<const std::basic_string<char, std::char_traits<char>, std::allocator<char> >, std::basic_string<char, std::char_traits<char>, std::allocator<char> > > > >::_M_get_Node_allocator
FUNC 1b5ac 1e 0 std::allocator<std::pair<const std::basic_string<char, std::char_traits<char>, std::allocator<char> >, std::basic_string<char, std::char_traits<char>, std::allocator<char> > > >::allocator<std::_Rb_tree_node<std::pair<const std::basic_string<char, std::char_traits<char>, std::allocator<char> >, std::basic_string<char, std::char_traits<char>, std::allocator<char> > > > >
FUNC 1b5ca a 0 __gnu_cxx::new_allocator<std::pair<const std::basic_string<char, std::char_traits<char>, std::allocator<char> >, std::basic_string<char, std::char_traits<char>, std::allocator<char> > > >::~new_allocator
FUNC 1b5d4 22 0 __gnu_cxx::new_allocator<std::_Rb_tree_node<std::pair<const std::basic_string<char, std::char_traits<char>, std::allocator<char> >, std::basic_string<char, std::char_traits<char>, std::allocator<char> > > > >::deallocate
FUNC 1b5f6 a 0 __gnu_cxx::new_allocator<short unsigned int>::new_allocator
FUNC 1b600 a 0 __gnu_cxx::new_allocator<std::basic_string<char, std::char_traits<char>, std::allocator<char> > >::new_allocator
FUNC 1b60a 1a 0 std::_Destroy<std::basic_string<char, std::char_traits<char>, std::allocator<char> > >
FUNC 1b624 2c 0 std::_Rb_tree<std::basic_string<char, std::char_traits<char>, std::allocator<char> >, std::pair<const std::basic_string<char, std::char_traits<char>, std::allocator<char> >, std::basic_string<char, std::char_traits<char>, std::allocator<char> > >, std::_Select1st<std::pair<const std::basic_string<char, std::char_traits<char>, std::allocator<char> >, std::basic_string<char, std::char_traits<char>, std::allocator<char> > > >, std::less<std::basic_string<char, std::char_traits<char>, std::allocator<char> > >, std::allocator<std::pair<const std::basic_string<char, std::char_traits<char>, std::allocator<char> >, std::basic_string<char, std::char_traits<char>, std::allocator<char> > > > >::begin
FUNC 1b650 2e 0 std::pair<std::_Rb_tree_iterator<std::pair<const std::basic_string<char, std::char_traits<char>, std::allocator<char> >, std::basic_string<char, std::char_traits<char>, std::allocator<char> > > >, bool>::pair
FUNC 1b67e 28 0 std::_Rb_tree_iterator<std::pair<const std::basic_string<char, std::char_traits<char>, std::allocator<char> >, std::basic_string<char, std::char_traits<char>, std::allocator<char> > > >::operator--
FUNC 1b6a6 12 0 std::_Rb_tree<std::basic_string<char, std::char_traits<char>, std::allocator<char> >, std::pair<const std::basic_string<char, std::char_traits<char>, std::allocator<char> >, std::basic_string<char, std::char_traits<char>, std::allocator<char> > >, std::_Select1st<std::pair<const std::basic_string<char, std::char_traits<char>, std::allocator<char> >, std::basic_string<char, std::char_traits<char>, std::allocator<char> > > >, std::less<std::basic_string<char, std::char_traits<char>, std::allocator<char> > >, std::allocator<std::pair<const std::basic_string<char, std::char_traits<char>, std::allocator<char> >, std::basic_string<char, std::char_traits<char>, std::allocator<char> > > > >::_S_value
FUNC 1b6b8 e 0 std::__niter_base<short unsigned int*, false>::__b
FUNC 1b6c6 31 0 std::__copy_move_backward_a<false, short unsigned int*, short unsigned int*>
FUNC 1b6f8 e 0 std::_Vector_base<short unsigned int, std::allocator<short unsigned int> >::_M_get_Tp_allocator
FUNC 1b706 14 0 __gnu_cxx::new_allocator<short unsigned int>::max_size
FUNC 1b71a 2d 0 std::uninitialized_copy<short unsigned int*, short unsigned int*>
FUNC 1b748 14 0 __gnu_cxx::new_allocator<std::basic_string<char, std::char_traits<char>, std::allocator<char> > >::max_size
FUNC 1b75c 63 0 std::__copy_move<false, false, std::random_access_iterator_tag>::__copy_m<const std::basic_string<char, std::char_traits<char>, std::allocator<char> >*, std::basic_string<char, std::char_traits<char>, std::allocator<char> >*>
FUNC 1b7bf 3c 0 __gnu_cxx::operator!=<std::basic_string<char, std::char_traits<char>, std::allocator<char> >*, std::vector<std::basic_string<char, std::char_traits<char>, std::allocator<char> >, std::allocator<std::basic_string<char, std::char_traits<char>, std::allocator<char> > > > >
FUNC 1b7fc 20 0 __gnu_cxx::__normal_iterator<std::basic_string<char, std::char_traits<char>, std::allocator<char> >*, std::vector<std::basic_string<char, std::char_traits<char>, std::allocator<char> >, std::allocator<std::basic_string<char, std::char_traits<char>, std::allocator<char> > > > >::operator++
FUNC 1b81c 63 0 std::__copy_move<false, false, std::random_access_iterator_tag>::__copy_m<std::basic_string<char, std::char_traits<char>, std::allocator<char> >*, std::basic_string<char, std::char_traits<char>, std::allocator<char> >*>
FUNC 1b87f 73 0 std::_Construct<std::basic_string<char, std::char_traits<char>, std::allocator<char> >, std::basic_string<char, std::char_traits<char>, std::allocator<char> > >
FUNC 1b8f2 31 0 std::__copy_move_backward_a<false, std::basic_string<char, std::char_traits<char>, std::allocator<char> >*, std::basic_string<char, std::char_traits<char>, std::allocator<char> >*>
FUNC 1b923 3c 0 __gnu_cxx::operator!=<const std::basic_string<char, std::char_traits<char>, std::allocator<char> >*, std::vector<std::basic_string<char, std::char_traits<char>, std::allocator<char> >, std::allocator<std::basic_string<char, std::char_traits<char>, std::allocator<char> > > > >
FUNC 1b960 24 0 std::_Rb_tree<std::basic_string<char, std::char_traits<char>, std::allocator<char> >, std::pair<const std::basic_string<char, std::char_traits<char>, std::allocator<char> >, std::basic_string<char, std::char_traits<char>, std::allocator<char> > >, std::_Select1st<std::pair<const std::basic_string<char, std::char_traits<char>, std::allocator<char> >, std::basic_string<char, std::char_traits<char>, std::allocator<char> > > >, std::less<std::basic_string<char, std::char_traits<char>, std::allocator<char> > >, std::allocator<std::pair<const std::basic_string<char, std::char_traits<char>, std::allocator<char> >, std::basic_string<char, std::char_traits<char>, std::allocator<char> > > > >::_M_get_node
FUNC 1b984 6b 0 std::pair<const std::basic_string<char, std::char_traits<char>, std::allocator<char> >, std::basic_string<char, std::char_traits<char>, std::allocator<char> > >::pair
FUNC 1b9f0 77 0 __gnu_cxx::new_allocator<std::pair<const std::basic_string<char, std::char_traits<char>, std::allocator<char> >, std::basic_string<char, std::char_traits<char>, std::allocator<char> > > >::construct
FUNC 1ba68 a 0 __gnu_cxx::new_allocator<std::pair<const std::basic_string<char, std::char_traits<char>, std::allocator<char> >, std::basic_string<char, std::char_traits<char>, std::allocator<char> > > >::new_allocator
FUNC 1ba72 61 0 std::__copy_move_backward<false, true, std::random_access_iterator_tag>::__copy_move_b<short unsigned int>
FUNC 1bad3 2d 0 std::__uninitialized_copy<true>::uninitialized_copy<short unsigned int*, short unsigned int*>
FUNC 1bb00 63 0 std::__copy_move_backward<false, false, std::random_access_iterator_tag>::__copy_move_b<std::basic_string<char, std::char_traits<char>, std::allocator<char> >*, std::basic_string<char, std::char_traits<char>, std::allocator<char> >*>
FUNC 1bb64 54 0 __gnu_cxx::new_allocator<std::_Rb_tree_node<std::pair<const std::basic_string<char, std::char_traits<char>, std::allocator<char> >, std::basic_string<char, std::char_traits<char>, std::allocator<char> > > > >::allocate
FUNC 1bbb8 46 0 std::copy<short unsigned int*, short unsigned int*>
FUNC 1bbfe 14 0 __gnu_cxx::new_allocator<std::_Rb_tree_node<std::pair<const std::basic_string<char, std::char_traits<char>, std::allocator<char> >, std::basic_string<char, std::char_traits<char>, std::allocator<char> > > > >::max_size
FUNC 1bc12 58 0 std::__copy_move_a2<false, short unsigned int*, short unsigned int*>
FUNC 1bc6a 31 0 std::__copy_move_a<false, short unsigned int*, short unsigned int*>
FUNC 1bc9b 5c 0 std::__copy_move<false, true, std::random_access_iterator_tag>::__copy_m<short unsigned int>
FUNC 1bcf8 119 0 EncapMysql::EncapMysql
FUNC 1be12 102 0 EncapMysql::~EncapMysql
FUNC 1bf14 74 0 EncapMysql::GetInstance
FUNC 1bf88 112 0 EncapMysql::Connect
FUNC 1c09a 31 0 EncapMysql::CloseConnect
FUNC 1c0cc 402 0 EncapMysql::SelectQuery
FUNC 1c4ce 1e3 0 EncapMysql::ModifyQuery
FUNC 1c6b2 4e 0 EncapMysql::FetchRow
FUNC 1c700 c3 0 EncapMysql::GetField
FUNC 1c7c4 3b 0 EncapMysql::GetField
FUNC 1c800 40 0 EncapMysql::FreePreResult
FUNC 1c840 12 0 EncapMysql::GetErrMsg
FUNC 1c852 12 0 EncapMysql::IsConnected
FUNC 1c864 1a 0 EncapMysql::SetConnected
FUNC 1c87e 68 0 EncapMysql::SaveParam
FUNC 1c8e6 107 0 EncapMysql::ReConnect
FUNC 1c9ee 11 0 EncapMysql::SetUsed
FUNC 1ca00 11 0 EncapMysql::SetIdle
FUNC 1ca12 14 0 EncapMysql::IsIdle
FUNC 1ca26 77 0 __static_initialization_and_destruction_0
FUNC 1ca9d 15 0 _GLOBAL__I_EncapMysql.cpp
FUNC 1cab2 1a 0 Mutex::WriterLock
FUNC 1cacc 1a 0 Mutex::WriterUnlock
FUNC 1cae6 12 0 Mutex::SetIsSafe
FUNC 1caf8 50 0 Mutex::Mutex
FUNC 1cb48 3f 0 Mutex::~Mutex
FUNC 1cb88 3f 0 Mutex::Lock
FUNC 1cbc8 3f 0 Mutex::Unlock
FUNC 1cc08 2c 0 WriterMutexLock::WriterMutexLock
FUNC 1cc34 1d 0 WriterMutexLock::~WriterMutexLock
FUNC 1cc52 1a 0 std::map<std::basic_string<char, std::char_traits<char>, std::allocator<char> >, int, std::less<std::basic_string<char, std::char_traits<char>, std::allocator<char> > >, std::allocator<std::pair<const std::basic_string<char, std::char_traits<char>, std::allocator<char> >, int> > >::~map
FUNC 1cc6c 1a 0 std::map<std::basic_string<char, std::char_traits<char>, std::allocator<char> >, int, std::less<std::basic_string<char, std::char_traits<char>, std::allocator<char> > >, std::allocator<std::pair<const std::basic_string<char, std::char_traits<char>, std::allocator<char> >, int> > >::map
FUNC 1cc86 1a 0 std::_Rb_tree<std::basic_string<char, std::char_traits<char>, std::allocator<char> >, std::pair<const std::basic_string<char, std::char_traits<char>, std::allocator<char> >, int>, std::_Select1st<std::pair<const std::basic_string<char, std::char_traits<char>, std::allocator<char> >, int> >, std::less<std::basic_string<char, std::char_traits<char>, std::allocator<char> > >, std::allocator<std::pair<const std::basic_string<char, std::char_traits<char>, std::allocator<char> >, int> > >::_Rb_tree_impl<std::less<std::basic_string<char, std::char_traits<char>, std::allocator<char> > >, false>::~_Rb_tree_impl
FUNC 1cca0 63 0 std::_Rb_tree<std::basic_string<char, std::char_traits<char>, std::allocator<char> >, std::pair<const std::basic_string<char, std::char_traits<char>, std::allocator<char> >, int>, std::_Select1st<std::pair<const std::basic_string<char, std::char_traits<char>, std::allocator<char> >, int> >, std::less<std::basic_string<char, std::char_traits<char>, std::allocator<char> > >, std::allocator<std::pair<const std::basic_string<char, std::char_traits<char>, std::allocator<char> >, int> > >::~_Rb_tree
FUNC 1cd04 1a 0 std::map<std::basic_string<char, std::char_traits<char>, std::allocator<char> >, int, std::less<std::basic_string<char, std::char_traits<char>, std::allocator<char> > >, std::allocator<std::pair<const std::basic_string<char, std::char_traits<char>, std::allocator<char> >, int> > >::clear
FUNC 1cd1e 1a 0 std::pair<const std::basic_string<char, std::char_traits<char>, std::allocator<char> >, int>::~pair
FUNC 1cd38 118 0 std::map<std::basic_string<char, std::char_traits<char>, std::allocator<char> >, int, std::less<std::basic_string<char, std::char_traits<char>, std::allocator<char> > >, std::allocator<std::pair<const std::basic_string<char, std::char_traits<char>, std::allocator<char> >, int> > >::operator[]
FUNC 1ce50 1a 0 std::_Rb_tree<std::basic_string<char, std::char_traits<char>, std::allocator<char> >, std::pair<const std::basic_string<char, std::char_traits<char>, std::allocator<char> >, int>, std::_Select1st<std::pair<const std::basic_string<char, std::char_traits<char>, std::allocator<char> >, int> >, std::less<std::basic_string<char, std::char_traits<char>, std::allocator<char> > >, std::allocator<std::pair<const std::basic_string<char, std::char_traits<char>, std::allocator<char> >, int> > >::_Rb_tree
FUNC 1ce6a 1a 0 std::allocator<std::_Rb_tree_node<std::pair<const std::basic_string<char, std::char_traits<char>, std::allocator<char> >, int> > >::~allocator
FUNC 1ce84 69 0 std::_Rb_tree<std::basic_string<char, std::char_traits<char>, std::allocator<char> >, std::pair<const std::basic_string<char, std::char_traits<char>, std::allocator<char> >, int>, std::_Select1st<std::pair<const std::basic_string<char, std::char_traits<char>, std::allocator<char> >, int> >, std::less<std::basic_string<char, std::char_traits<char>, std::allocator<char> > >, std::allocator<std::pair<const std::basic_string<char, std::char_traits<char>, std::allocator<char> >, int> > >::_M_erase
FUNC 1ceee 12 0 std::_Rb_tree<std::basic_string<char, std::char_traits<char>, std::allocator<char> >, std::pair<const std::basic_string<char, std::char_traits<char>, std::allocator<char> >, int>, std::_Select1st<std::pair<const std::basic_string<char, std::char_traits<char>, std::allocator<char> >, int> >, std::less<std::basic_string<char, std::char_traits<char>, std::allocator<char> > >, std::allocator<std::pair<const std::basic_string<char, std::char_traits<char>, std::allocator<char> >, int> > >::_M_begin
FUNC 1cf00 8d 0 std::_Rb_tree<std::basic_string<char, std::char_traits<char>, std::allocator<char> >, std::pair<const std::basic_string<char, std::char_traits<char>, std::allocator<char> >, int>, std::_Select1st<std::pair<const std::basic_string<char, std::char_traits<char>, std::allocator<char> >, int> >, std::less<std::basic_string<char, std::char_traits<char>, std::allocator<char> > >, std::allocator<std::pair<const std::basic_string<char, std::char_traits<char>, std::allocator<char> >, int> > >::clear
FUNC 1cf8e 25 0 std::map<std::basic_string<char, std::char_traits<char>, std::allocator<char> >, int, std::less<std::basic_string<char, std::char_traits<char>, std::allocator<char> > >, std::allocator<std::pair<const std::basic_string<char, std::char_traits<char>, std::allocator<char> >, int> > >::lower_bound
FUNC 1cfb4 1a 0 std::map<std::basic_string<char, std::char_traits<char>, std::allocator<char> >, int, std::less<std::basic_string<char, std::char_traits<char>, std::allocator<char> > >, std::allocator<std::pair<const std::basic_string<char, std::char_traits<char>, std::allocator<char> >, int> > >::key_comp
FUNC 1cfce 15 0 std::_Rb_tree_iterator<std::pair<const std::basic_string<char, std::char_traits<char>, std::allocator<char> >, int> >::operator*
FUNC 1cfe4 1a 0 std::map<std::basic_string<char, std::char_traits<char>, std::allocator<char> >, int, std::less<std::basic_string<char, std::char_traits<char>, std::allocator<char> > >, std::allocator<std::pair<const std::basic_string<char, std::char_traits<char>, std::allocator<char> >, int> > >::end
FUNC 1cffe 22 0 std::_Rb_tree_iterator<std::pair<const std::basic_string<char, std::char_traits<char>, std::allocator<char> >, int> >::operator==
FUNC 1d020 36 0 std::pair<const std::basic_string<char, std::char_traits<char>, std::allocator<char> >, int>::pair
FUNC 1d056 40 0 std::map<std::basic_string<char, std::char_traits<char>, std::allocator<char> >, int, std::less<std::basic_string<char, std::char_traits<char>, std::allocator<char> > >, std::allocator<std::pair<const std::basic_string<char, std::char_traits<char>, std::allocator<char> >, int> > >::insert
FUNC 1d096 8c 0 std::_Rb_tree<std::basic_string<char, std::char_traits<char>, std::allocator<char> >, std::pair<const std::basic_string<char, std::char_traits<char>, std::allocator<char> >, int>, std::_Select1st<std::pair<const std::basic_string<char, std::char_traits<char>, std::allocator<char> >, int> >, std::less<std::basic_string<char, std::char_traits<char>, std::allocator<char> > >, std::allocator<std::pair<const std::basic_string<char, std::char_traits<char>, std::allocator<char> >, int> > >::_Rb_tree_impl<std::less<std::basic_string<char, std::char_traits<char>, std::allocator<char> > >, false>::_Rb_tree_impl
FUNC 1d122 a 0 __gnu_cxx::new_allocator<std::_Rb_tree_node<std::pair<const std::basic_string<char, std::char_traits<char>, std::allocator<char> >, int> > >::~new_allocator
FUNC 1d12c 12 0 std::_Rb_tree<std::basic_string<char, std::char_traits<char>, std::allocator<char> >, std::pair<const std::basic_string<char, std::char_traits<char>, std::allocator<char> >, int>, std::_Select1st<std::pair<const std::basic_string<char, std::char_traits<char>, std::allocator<char> >, int> >, std::less<std::basic_string<char, std::char_traits<char>, std::allocator<char> > >, std::allocator<std::pair<const std::basic_string<char, std::char_traits<char>, std::allocator<char> >, int> > >::_S_right
FUNC 1d13e 12 0 std::_Rb_tree<std::basic_string<char, std::char_traits<char>, std::allocator<char> >, std::pair<const std::basic_string<char, std::char_traits<char>, std::allocator<char> >, int>, std::_Select1st<std::pair<const std::basic_string<char, std::char_traits<char>, std::allocator<char> >, int> >, std::less<std::basic_string<char, std::char_traits<char>, std::allocator<char> > >, std::allocator<std::pair<const std::basic_string<char, std::char_traits<char>, std::allocator<char> >, int> > >::_S_left
FUNC 1d150 86 0 std::_Rb_tree<std::basic_string<char, std::char_traits<char>, std::allocator<char> >, std::pair<const std::basic_string<char, std::char_traits<char>, std::allocator<char> >, int>, std::_Select1st<std::pair<const std::basic_string<char, std::char_traits<char>, std::allocator<char> >, int> >, std::less<std::basic_string<char, std::char_traits<char>, std::allocator<char> > >, std::allocator<std::pair<const std::basic_string<char, std::char_traits<char>, std::allocator<char> >, int> > >::_M_destroy_node
FUNC 1d1d6 12 0 std::_Rb_tree<std::basic_string<char, std::char_traits<char>, std::allocator<char> >, std::pair<const std::basic_string<char, std::char_traits<char>, std::allocator<char> >, int>, std::_Select1st<std::pair<const std::basic_string<char, std::char_traits<char>, std::allocator<char> >, int> >, std::less<std::basic_string<char, std::char_traits<char>, std::allocator<char> > >, std::allocator<std::pair<const std::basic_string<char, std::char_traits<char>, std::allocator<char> >, int> > >::_M_end
FUNC 1d1e8 12 0 std::_Rb_tree<std::basic_string<char, std::char_traits<char>, std::allocator<char> >, std::pair<const std::basic_string<char, std::char_traits<char>, std::allocator<char> >, int>, std::_Select1st<std::pair<const std::basic_string<char, std::char_traits<char>, std::allocator<char> >, int> >, std::less<std::basic_string<char, std::char_traits<char>, std::allocator<char> > >, std::allocator<std::pair<const std::basic_string<char, std::char_traits<char>, std::allocator<char> >, int> > >::_M_leftmost
FUNC 1d1fa 12 0 std::_Rb_tree<std::basic_string<char, std::char_traits<char>, std::allocator<char> >, std::pair<const std::basic_string<char, std::char_traits<char>, std::allocator<char> >, int>, std::_Select1st<std::pair<const std::basic_string<char, std::char_traits<char>, std::allocator<char> >, int> >, std::less<std::basic_string<char, std::char_traits<char>, std::allocator<char> > >, std::allocator<std::pair<const std::basic_string<char, std::char_traits<char>, std::allocator<char> >, int> > >::_M_root
FUNC 1d20c 12 0 std::_Rb_tree<std::basic_string<char, std::char_traits<char>, std::allocator<char> >, std::pair<const std::basic_string<char, std::char_traits<char>, std::allocator<char> >, int>, std::_Select1st<std::pair<const std::basic_string<char, std::char_traits<char>, std::allocator<char> >, int> >, std::less<std::basic_string<char, std::char_traits<char>, std::allocator<char> > >, std::allocator<std::pair<const std::basic_string<char, std::char_traits<char>, std::allocator<char> >, int> > >::_M_rightmost
FUNC 1d21e 53 0 std::_Rb_tree<std::basic_string<char, std::char_traits<char>, std::allocator<char> >, std::pair<const std::basic_string<char, std::char_traits<char>, std::allocator<char> >, int>, std::_Select1st<std::pair<const std::basic_string<char, std::char_traits<char>, std::allocator<char> >, int> >, std::less<std::basic_string<char, std::char_traits<char>, std::allocator<char> > >, std::allocator<std::pair<const std::basic_string<char, std::char_traits<char>, std::allocator<char> >, int> > >::lower_bound
FUNC 1d272 a 0 std::_Rb_tree<std::basic_string<char, std::char_traits<char>, std::allocator<char> >, std::pair<const std::basic_string<char, std::char_traits<char>, std::allocator<char> >, int>, std::_Select1st<std::pair<const std::basic_string<char, std::char_traits<char>, std::allocator<char> >, int> >, std::less<std::basic_string<char, std::char_traits<char>, std::allocator<char> > >, std::allocator<std::pair<const std::basic_string<char, std::char_traits<char>, std::allocator<char> >, int> > >::key_comp
FUNC 1d27c 2c 0 std::_Rb_tree<std::basic_string<char, std::char_traits<char>, std::allocator<char> >, std::pair<const std::basic_string<char, std::char_traits<char>, std::allocator<char> >, int>, std::_Select1st<std::pair<const std::basic_string<char, std::char_traits<char>, std::allocator<char> >, int> >, std::less<std::basic_string<char, std::char_traits<char>, std::allocator<char> > >, std::allocator<std::pair<const std::basic_string<char, std::char_traits<char>, std::allocator<char> >, int> > >::end
FUNC 1d2a8 1c 0 std::_Rb_tree_const_iterator<std::pair<const std::basic_string<char, std::char_traits<char>, std::allocator<char> >, int> >::_Rb_tree_const_iterator
FUNC 1d2c4 4c0 0 std::_Rb_tree<std::basic_string<char, std::char_traits<char>, std::allocator<char> >, std::pair<const std::basic_string<char, std::char_traits<char>, std::allocator<char> >, int>, std::_Select1st<std::pair<const std::basic_string<char, std::char_traits<char>, std::allocator<char> >, int> >, std::less<std::basic_string<char, std::char_traits<char>, std::allocator<char> > >, std::allocator<std::pair<const std::basic_string<char, std::char_traits<char>, std::allocator<char> >, int> > >::_M_insert_unique_
FUNC 1d784 1a 0 std::allocator<std::_Rb_tree_node<std::pair<const std::basic_string<char, std::char_traits<char>, std::allocator<char> >, int> > >::allocator
FUNC 1d79e 41 0 std::_Rb_tree<std::basic_string<char, std::char_traits<char>, std::allocator<char> >, std::pair<const std::basic_string<char, std::char_traits<char>, std::allocator<char> >, int>, std::_Select1st<std::pair<const std::basic_string<char, std::char_traits<char>, std::allocator<char> >, int> >, std::less<std::basic_string<char, std::char_traits<char>, std::allocator<char> > >, std::allocator<std::pair<const std::basic_string<char, std::char_traits<char>, std::allocator<char> >, int> > >::_Rb_tree_impl<std::less<std::basic_string<char, std::char_traits<char>, std::allocator<char> > >, false>::_M_initialize
FUNC 1d7e0 3b 0 std::_Rb_tree<std::basic_string<char, std::char_traits<char>, std::allocator<char> >, std::pair<const std::basic_string<char, std::char_traits<char>, std::allocator<char> >, int>, std::_Select1st<std::pair<const std::basic_string<char, std::char_traits<char>, std::allocator<char> >, int> >, std::less<std::basic_string<char, std::char_traits<char>, std::allocator<char> > >, std::allocator<std::pair<const std::basic_string<char, std::char_traits<char>, std::allocator<char> >, int> > >::get_allocator
FUNC 1d81c 1a 0 std::allocator<std::pair<const std::basic_string<char, std::char_traits<char>, std::allocator<char> >, int> >::~allocator
FUNC 1d836 1e 0 __gnu_cxx::new_allocator<std::pair<const std::basic_string<char, std::char_traits<char>, std::allocator<char> >, int> >::destroy
FUNC 1d854 2a 0 std::_Rb_tree<std::basic_string<char, std::char_traits<char>, std::allocator<char> >, std::pair<const std::basic_string<char, std::char_traits<char>, std::allocator<char> >, int>, std::_Select1st<std::pair<const std::basic_string<char, std::char_traits<char>, std::allocator<char> >, int> >, std::less<std::basic_string<char, std::char_traits<char>, std::allocator<char> > >, std::allocator<std::pair<const std::basic_string<char, std::char_traits<char>, std::allocator<char> >, int> > >::_M_put_node
FUNC 1d87e 92 0 std::_Rb_tree<std::basic_string<char, std::char_traits<char>, std::allocator<char> >, std::pair<const std::basic_string<char, std::char_traits<char>, std::allocator<char> >, int>, std::_Select1st<std::pair<const std::basic_string<char, std::char_traits<char>, std::allocator<char> >, int> >, std::less<std::basic_string<char, std::char_traits<char>, std::allocator<char> > >, std::allocator<std::pair<const std::basic_string<char, std::char_traits<char>, std::allocator<char> >, int> > >::_M_lower_bound
FUNC 1d910 19 0 std::_Rb_tree_iterator<std::pair<const std::basic_string<char, std::char_traits<char>, std::allocator<char> >, int> >::_Rb_tree_iterator
FUNC 1d929 2c 0 std::_Rb_tree<std::basic_string<char, std::char_traits<char>, std::allocator<char> >, std::pair<const std::basic_string<char, std::char_traits<char>, std::allocator<char> >, int>, std::_Select1st<std::pair<const std::basic_string<char, std::char_traits<char>, std::allocator<char> >, int> >, std::less<std::basic_string<char, std::char_traits<char>, std::allocator<char> > >, std::allocator<std::pair<const std::basic_string<char, std::char_traits<char>, std::allocator<char> >, int> > >::_S_key
FUNC 1d956 12 0 std::_Select1st<std::pair<const std::basic_string<char, std::char_traits<char>, std::allocator<char> >, int> >::operator()
FUNC 1d968 12 0 std::_Rb_tree<std::basic_string<char, std::char_traits<char>, std::allocator<char> >, std::pair<const std::basic_string<char, std::char_traits<char>, std::allocator<char> >, int>, std::_Select1st<std::pair<const std::basic_string<char, std::char_traits<char>, std::allocator<char> >, int> >, std::less<std::basic_string<char, std::char_traits<char>, std::allocator<char> > >, std::allocator<std::pair<const std::basic_string<char, std::char_traits<char>, std::allocator<char> >, int> > >::size
FUNC 1d97a e3 0 std::_Rb_tree<std::basic_string<char, std::char_traits<char>, std::allocator<char> >, std::pair<const std::basic_string<char, std::char_traits<char>, std::allocator<char> >, int>, std::_Select1st<std::pair<const std::basic_string<char, std::char_traits<char>, std::allocator<char> >, int> >, std::less<std::basic_string<char, std::char_traits<char>, std::allocator<char> > >, std::allocator<std::pair<const std::basic_string<char, std::char_traits<char>, std::allocator<char> >, int> > >::_M_insert_
FUNC 1da5e 271 0 std::_Rb_tree<std::basic_string<char, std::char_traits<char>, std::allocator<char> >, std::pair<const std::basic_string<char, std::char_traits<char>, std::allocator<char> >, int>, std::_Select1st<std::pair<const std::basic_string<char, std::char_traits<char>, std::allocator<char> >, int> >, std::less<std::basic_string<char, std::char_traits<char>, std::allocator<char> > >, std::allocator<std::pair<const std::basic_string<char, std::char_traits<char>, std::allocator<char> >, int> > >::_M_insert_unique
FUNC 1dcd0 28 0 std::_Rb_tree_const_iterator<std::pair<const std::basic_string<char, std::char_traits<char>, std::allocator<char> >, int> >::operator--
FUNC 1dcf8 12 0 std::_Rb_tree<std::basic_string<char, std::char_traits<char>, std::allocator<char> >, std::pair<const std::basic_string<char, std::char_traits<char>, std::allocator<char> >, int>, std::_Select1st<std::pair<const std::basic_string<char, std::char_traits<char>, std::allocator<char> >, int> >, std::less<std::basic_string<char, std::char_traits<char>, std::allocator<char> > >, std::allocator<std::pair<const std::basic_string<char, std::char_traits<char>, std::allocator<char> >, int> > >::_S_right
FUNC 1dd0a 28 0 std::_Rb_tree_const_iterator<std::pair<const std::basic_string<char, std::char_traits<char>, std::allocator<char> >, int> >::operator++
FUNC 1dd32 a 0 __gnu_cxx::new_allocator<std::_Rb_tree_node<std::pair<const std::basic_string<char, std::char_traits<char>, std::allocator<char> >, int> > >::new_allocator
FUNC 1dd3c e 0 std::_Rb_tree<std::basic_string<char, std::char_traits<char>, std::allocator<char> >, std::pair<const std::basic_string<char, std::char_traits<char>, std::allocator<char> >, int>, std::_Select1st<std::pair<const std::basic_string<char, std::char_traits<char>, std::allocator<char> >, int> >, std::less<std::basic_string<char, std::char_traits<char>, std::allocator<char> > >, std::allocator<std::pair<const std::basic_string<char, std::char_traits<char>, std::allocator<char> >, int> > >::_M_get_Node_allocator
FUNC 1dd4a 1e 0 std::allocator<std::pair<const std::basic_string<char, std::char_traits<char>, std::allocator<char> >, int> >::allocator<std::_Rb_tree_node<std::pair<const std::basic_string<char, std::char_traits<char>, std::allocator<char> >, int> > >
FUNC 1dd68 a 0 __gnu_cxx::new_allocator<std::pair<const std::basic_string<char, std::char_traits<char>, std::allocator<char> >, int> >::~new_allocator
FUNC 1dd72 22 0 __gnu_cxx::new_allocator<std::_Rb_tree_node<std::pair<const std::basic_string<char, std::char_traits<char>, std::allocator<char> >, int> > >::deallocate
FUNC 1dd94 2c 0 std::_Rb_tree<std::basic_string<char, std::char_traits<char>, std::allocator<char> >, std::pair<const std::basic_string<char, std::char_traits<char>, std::allocator<char> >, int>, std::_Select1st<std::pair<const std::basic_string<char, std::char_traits<char>, std::allocator<char> >, int> >, std::less<std::basic_string<char, std::char_traits<char>, std::allocator<char> > >, std::allocator<std::pair<const std::basic_string<char, std::char_traits<char>, std::allocator<char> >, int> > >::_S_key
FUNC 1ddc0 12 0 std::_Rb_tree<std::basic_string<char, std::char_traits<char>, std::allocator<char> >, std::pair<const std::basic_string<char, std::char_traits<char>, std::allocator<char> >, int>, std::_Select1st<std::pair<const std::basic_string<char, std::char_traits<char>, std::allocator<char> >, int> >, std::less<std::basic_string<char, std::char_traits<char>, std::allocator<char> > >, std::allocator<std::pair<const std::basic_string<char, std::char_traits<char>, std::allocator<char> >, int> > >::_S_value
FUNC 1ddd2 bd 0 std::_Rb_tree<std::basic_string<char, std::char_traits<char>, std::allocator<char> >, std::pair<const std::basic_string<char, std::char_traits<char>, std::allocator<char> >, int>, std::_Select1st<std::pair<const std::basic_string<char, std::char_traits<char>, std::allocator<char> >, int> >, std::less<std::basic_string<char, std::char_traits<char>, std::allocator<char> > >, std::allocator<std::pair<const std::basic_string<char, std::char_traits<char>, std::allocator<char> >, int> > >::_M_create_node
FUNC 1de90 2c 0 std::_Rb_tree<std::basic_string<char, std::char_traits<char>, std::allocator<char> >, std::pair<const std::basic_string<char, std::char_traits<char>, std::allocator<char> >, int>, std::_Select1st<std::pair<const std::basic_string<char, std::char_traits<char>, std::allocator<char> >, int> >, std::less<std::basic_string<char, std::char_traits<char>, std::allocator<char> > >, std::allocator<std::pair<const std::basic_string<char, std::char_traits<char>, std::allocator<char> >, int> > >::begin
FUNC 1debc 2e 0 std::pair<std::_Rb_tree_iterator<std::pair<const std::basic_string<char, std::char_traits<char>, std::allocator<char> >, int> >, bool>::pair
FUNC 1deea 28 0 std::_Rb_tree_iterator<std::pair<const std::basic_string<char, std::char_traits<char>, std::allocator<char> >, int> >::operator--
FUNC 1df12 a 0 __gnu_cxx::new_allocator<std::pair<const std::basic_string<char, std::char_traits<char>, std::allocator<char> >, int> >::new_allocator
FUNC 1df1c 12 0 std::_Rb_tree<std::basic_string<char, std::char_traits<char>, std::allocator<char> >, std::pair<const std::basic_string<char, std::char_traits<char>, std::allocator<char> >, int>, std::_Select1st<std::pair<const std::basic_string<char, std::char_traits<char>, std::allocator<char> >, int> >, std::less<std::basic_string<char, std::char_traits<char>, std::allocator<char> > >, std::allocator<std::pair<const std::basic_string<char, std::char_traits<char>, std::allocator<char> >, int> > >::_S_value
FUNC 1df2e 24 0 std::_Rb_tree<std::basic_string<char, std::char_traits<char>, std::allocator<char> >, std::pair<const std::basic_string<char, std::char_traits<char>, std::allocator<char> >, int>, std::_Select1st<std::pair<const std::basic_string<char, std::char_traits<char>, std::allocator<char> >, int> >, std::less<std::basic_string<char, std::char_traits<char>, std::allocator<char> > >, std::allocator<std::pair<const std::basic_string<char, std::char_traits<char>, std::allocator<char> >, int> > >::_M_get_node
FUNC 1df52 33 0 std::pair<const std::basic_string<char, std::char_traits<char>, std::allocator<char> >, int>::pair
FUNC 1df86 77 0 __gnu_cxx::new_allocator<std::pair<const std::basic_string<char, std::char_traits<char>, std::allocator<char> >, int> >::construct
FUNC 1dffe 54 0 __gnu_cxx::new_allocator<std::_Rb_tree_node<std::pair<const std::basic_string<char, std::char_traits<char>, std::allocator<char> >, int> > >::allocate
FUNC 1e052 14 0 __gnu_cxx::new_allocator<std::_Rb_tree_node<std::pair<const std::basic_string<char, std::char_traits<char>, std::allocator<char> >, int> > >::max_size
FUNC 1e068 28 0 IEC103Manager::IEC103Manager
FUNC 1e090 61 0 IEC103Manager::~IEC103Manager
FUNC 1e0f2 26 0 IEC103Manager::~IEC103Manager
FUNC 1e118 ac7 0 IEC103Manager::Init
FUNC 1ebe0 2d 0 IEC103Manager::Start
FUNC 1ec0e 1b 0 IEC103Manager::Stop
FUNC 1ec2a 62 0 IEC103Manager::SignalHandle
FUNC 1ec8c 257 0 __static_initialization_and_destruction_0
FUNC 1eee3 15 0 _GLOBAL__I_IEC103Manager.cpp
FUNC 1eef8 1a 0 std::char_traits<char>::length
FUNC 1ef12 2e 0 std::_Rb_tree_node_base::_S_minimum
FUNC 1ef40 2e 0 std::_Rb_tree_node_base::_S_maximum
FUNC 1ef6e 33 0 Config::GetChannelName
FUNC 1efa2 12 0 Config::GetNetType
FUNC 1efb4 29 0 Config::SetIp
FUNC 1efde 1a 0 Config::SetUdpPort
FUNC 1eff8 14 0 Config::GetIec103RunType
FUNC 1f00c 37 0 boost::thread_exception::thread_exception
FUNC 1f044 39 0 boost::thread_exception::thread_exception
FUNC 1f07e 41 0 boost::thread_exception::~thread_exception
FUNC 1f0c0 26 0 boost::thread_exception::~thread_exception
FUNC 1f0e6 34 0 boost::lock_error::lock_error
FUNC 1f11a 41 0 boost::lock_error::~lock_error
FUNC 1f15c 26 0 boost::lock_error::~lock_error
FUNC 1f182 11 0 boost::lock_error::what
FUNC 1f194 2c 0 boost::thread_resource_error::thread_resource_error
FUNC 1f1c0 41 0 boost::thread_resource_error::~thread_resource_error
FUNC 1f202 26 0 boost::thread_resource_error::~thread_resource_error
FUNC 1f228 11 0 boost::thread_resource_error::what
FUNC 1f239 a 0 boost::throw_exception_assert_compatibility
FUNC 1f244 69 0 boost::mutex::mutex
FUNC 1f2ae 3d 0 boost::mutex::~mutex
FUNC 1f2ec 69 0 boost::mutex::lock
FUNC 1f356 3d 0 boost::mutex::unlock
FUNC 1f394 2c 0 Log::Logger::setlogPath
FUNC 1f3c0 bd 0 stLogInfo::stLogInfo
FUNC 1f47e 5d 0 stLogInfo::~stLogInfo
FUNC 1f4dc d1 0 WgjFunctionEx::LogSend
FUNC 1f5ae 1a 0 std::map<std::basic_string<char, std::char_traits<char>, std::allocator<char> >, IEC103::stConfigParam, std::less<std::basic_string<char, std::char_traits<char>, std::allocator<char> > >, std::allocator<std::pair<const std::basic_string<char, std::char_traits<char>, std::allocator<char> >, IEC103::stConfigParam> > >::~map
FUNC 1f5c8 1a 0 std::map<std::basic_string<char, std::char_traits<char>, std::allocator<char> >, std::map<std::basic_string<char, std::char_traits<char>, std::allocator<char> >, std::basic_string<char, std::char_traits<char>, std::allocator<char> >, std::less<std::basic_string<char, std::char_traits<char>, std::allocator<char> > >, std::allocator<std::pair<const std::basic_string<char, std::char_traits<char>, std::allocator<char> >, std::basic_string<char, std::char_traits<char>, std::allocator<char> > > > >, std::less<std::basic_string<char, std::char_traits<char>, std::allocator<char> > >, std::allocator<std::pair<const std::basic_string<char, std::char_traits<char>, std::allocator<char> >, std::map<std::basic_string<char, std::char_traits<char>, std::allocator<char> >, std::basic_string<char, std::char_traits<char>, std::allocator<char> >, std::less<std::basic_string<char, std::char_traits<char>, std::allocator<char> > >, std::allocator<std::pair<const std::basic_string<char, std::char_traits<char>, std::allocator<char> >, std::basic_string<char, std::char_traits<char>, std::allocator<char> > > > > > > >::~map
FUNC 1f5e2 45 0 boost::thread_exception::thread_exception
FUNC 1f628 37 0 boost::thread_resource_error::thread_resource_error
FUNC 1f660 8e 0 boost::exception_detail::error_info_injector<boost::thread_resource_error>::error_info_injector
FUNC 1f6ee 78 0 boost::exception_detail::clone_impl<boost::exception_detail::error_info_injector<boost::thread_resource_error> >::clone_impl
FUNC 1f766 ac 0 boost::throw_exception<boost::thread_resource_error>
FUNC 1f812 37 0 boost::lock_error::lock_error
FUNC 1f84a 8e 0 boost::exception_detail::error_info_injector<boost::lock_error>::error_info_injector
FUNC 1f8d8 78 0 boost::exception_detail::clone_impl<boost::exception_detail::error_info_injector<boost::lock_error> >::clone_impl
FUNC 1f950 ac 0 boost::throw_exception<boost::lock_error>
FUNC 1f9fc 2c 0 boost::lock_guard<boost::mutex>::lock_guard
FUNC 1fa28 1d 0 boost::lock_guard<boost::mutex>::~lock_guard
FUNC 1fa45 ae 0 std::operator+<char, std::char_traits<char>, std::allocator<char> >
FUNC 1faf4 34 0 std::list<stLogInfo, std::allocator<stLogInfo> >::push_back
FUNC 1fb28 e5 0 DesignPattern::Singleton<Log::Logger, 0>::instance
FUNC 1fc0d 6e 0 std::operator+<char, std::char_traits<char>, std::allocator<char> >
FUNC 1fc7c 1a 0 std::_Rb_tree<std::basic_string<char, std::char_traits<char>, std::allocator<char> >, std::pair<const std::basic_string<char, std::char_traits<char>, std::allocator<char> >, IEC103::stConfigParam>, std::_Select1st<std::pair<const std::basic_string<char, std::char_traits<char>, std::allocator<char> >, IEC103::stConfigParam> >, std::less<std::basic_string<char, std::char_traits<char>, std::allocator<char> > >, std::allocator<std::pair<const std::basic_string<char, std::char_traits<char>, std::allocator<char> >, IEC103::stConfigParam> > >::_Rb_tree_impl<std::less<std::basic_string<char, std::char_traits<char>, std::allocator<char> > >, false>::~_Rb_tree_impl
FUNC 1fc96 63 0 std::_Rb_tree<std::basic_string<char, std::char_traits<char>, std::allocator<char> >, std::pair<const std::basic_string<char, std::char_traits<char>, std::allocator<char> >, IEC103::stConfigParam>, std::_Select1st<std::pair<const std::basic_string<char, std::char_traits<char>, std::allocator<char> >, IEC103::stConfigParam> >, std::less<std::basic_string<char, std::char_traits<char>, std::allocator<char> > >, std::allocator<std::pair<const std::basic_string<char, std::char_traits<char>, std::allocator<char> >, IEC103::stConfigParam> > >::~_Rb_tree
FUNC 1fcfa 1a 0 std::map<std::basic_string<char, std::char_traits<char>, std::allocator<char> >, IEC103::stConfigParam, std::less<std::basic_string<char, std::char_traits<char>, std::allocator<char> > >, std::allocator<std::pair<const std::basic_string<char, std::char_traits<char>, std::allocator<char> >, IEC103::stConfigParam> > >::size
FUNC 1fd14 1a 0 std::map<std::basic_string<char, std::char_traits<char>, std::allocator<char> >, IEC103::stConfigParam, std::less<std::basic_string<char, std::char_traits<char>, std::allocator<char> > >, std::allocator<std::pair<const std::basic_string<char, std::char_traits<char>, std::allocator<char> >, IEC103::stConfigParam> > >::begin
FUNC 1fd2e 15 0 std::_Rb_tree_iterator<std::pair<const std::basic_string<char, std::char_traits<char>, std::allocator<char> >, IEC103::stConfigParam> >::operator->
FUNC 1fd44 1a 0 std::_Rb_tree<std::basic_string<char, std::char_traits<char>, std::allocator<char> >, std::pair<const std::basic_string<char, std::char_traits<char>, std::allocator<char> >, std::map<std::basic_string<char, std::char_traits<char>, std::allocator<char> >, std::basic_string<char, std::char_traits<char>, std::allocator<char> >, std::less<std::basic_string<char, std::char_traits<char>, std::allocator<char> > >, std::allocator<std::pair<const std::basic_string<char, std::char_traits<char>, std::allocator<char> >, std::basic_string<char, std::char_traits<char>, std::allocator<char> > > > > >, std::_Select1st<std::pair<const std::basic_string<char, std::char_traits<char>, std::allocator<char> >, std::map<std::basic_string<char, std::char_traits<char>, std::allocator<char> >, std::basic_string<char, std::char_traits<char>, std::allocator<char> >, std::less<std::basic_string<char, std::char_traits<char>, std::allocator<char> > >, std::allocator<std::pair<const std::basic_string<char, std::char_traits<char>, std::allocator<char> >, std::basic_string<char, std::char_traits<char>, std::allocator<char> > > > > > >, std::less<std::basic_string<char, std::char_traits<char>, std::allocator<char> > >, std::allocator<std::pair<const std::basic_string<char, std::char_traits<char>, std::allocator<char> >, std::map<std::basic_string<char, std::char_traits<char>, std::allocator<char> >, std::basic_string<char, std::char_traits<char>, std::allocator<char> >, std::less<std::basic_string<char, std::char_traits<char>, std::allocator<char> > >, std::allocator<std::pair<const std::basic_string<char, std::char_traits<char>, std::allocator<char> >, std::basic_string<char, std::char_traits<char>, std::allocator<char> > > > > > > >::_Rb_tree_impl<std::less<std::basic_string<char, std::char_traits<char>, std::allocator<char> > >, false>::~_Rb_tree_impl
FUNC 1fd5e 63 0 std::_Rb_tree<std::basic_string<char, std::char_traits<char>, std::allocator<char> >, std::pair<const std::basic_string<char, std::char_traits<char>, std::allocator<char> >, std::map<std::basic_string<char, std::char_traits<char>, std::allocator<char> >, std::basic_string<char, std::char_traits<char>, std::allocator<char> >, std::less<std::basic_string<char, std::char_traits<char>, std::allocator<char> > >, std::allocator<std::pair<const std::basic_string<char, std::char_traits<char>, std::allocator<char> >, std::basic_string<char, std::char_traits<char>, std::allocator<char> > > > > >, std::_Select1st<std::pair<const std::basic_string<char, std::char_traits<char>, std::allocator<char> >, std::map<std::basic_string<char, std::char_traits<char>, std::allocator<char> >, std::basic_string<char, std::char_traits<char>, std::allocator<char> >, std::less<std::basic_string<char, std::char_traits<char>, std::allocator<char> > >, std::allocator<std::pair<const std::basic_string<char, std::char_traits<char>, std::allocator<char> >, std::basic_string<char, std::char_traits<char>, std::allocator<char> > > > > > >, std::less<std::basic_string<char, std::char_traits<char>, std::allocator<char> > >, std::allocator<std::pair<const std::basic_string<char, std::char_traits<char>, std::allocator<char> >, std::map<std::basic_string<char, std::char_traits<char>, std::allocator<char> >, std::basic_string<char, std::char_traits<char>, std::allocator<char> >, std::less<std::basic_string<char, std::char_traits<char>, std::allocator<char> > >, std::allocator<std::pair<const std::basic_string<char, std::char_traits<char>, std::allocator<char> >, std::basic_string<char, std::char_traits<char>, std::allocator<char> > > > > > > >::~_Rb_tree
FUNC 1fdc2 1a 0 std::map<std::basic_string<char, std::char_traits<char>, std::allocator<char> >, std::map<std::basic_string<char, std::char_traits<char>, std::allocator<char> >, std::basic_string<char, std::char_traits<char>, std::allocator<char> >, std::less<std::basic_string<char, std::char_traits<char>, std::allocator<char> > >, std::allocator<std::pair<const std::basic_string<char, std::char_traits<char>, std::allocator<char> >, std::basic_string<char, std::char_traits<char>, std::allocator<char> > > > >, std::less<std::basic_string<char, std::char_traits<char>, std::allocator<char> > >, std::allocator<std::pair<const std::basic_string<char, std::char_traits<char>, std::allocator<char> >, std::map<std::basic_string<char, std::char_traits<char>, std::allocator<char> >, std::basic_string<char, std::char_traits<char>, std::allocator<char> >, std::less<std::basic_string<char, std::char_traits<char>, std::allocator<char> > >, std::allocator<std::pair<const std::basic_string<char, std::char_traits<char>, std::allocator<char> >, std::basic_string<char, std::char_traits<char>, std::allocator<char> > > > > > > >::begin
FUNC 1fddc 15 0 std::_Rb_tree_iterator<std::pair<const std::basic_string<char, std::char_traits<char>, std::allocator<char> >, std::map<std::basic_string<char, std::char_traits<char>, std::allocator<char> >, std::basic_string<char, std::char_traits<char>, std::allocator<char> >, std::less<std::basic_string<char, std::char_traits<char>, std::allocator<char> > >, std::allocator<std::pair<const std::basic_string<char, std::char_traits<char>, std::allocator<char> >, std::basic_string<char, std::char_traits<char>, std::allocator<char> > > > > > >::operator->
FUNC 1fdf2 25 0 std::map<std::basic_string<char, std::char_traits<char>, std::allocator<char> >, std::basic_string<char, std::char_traits<char>, std::allocator<char> >, std::less<std::basic_string<char, std::char_traits<char>, std::allocator<char> > >, std::allocator<std::pair<const std::basic_string<char, std::char_traits<char>, std::allocator<char> >, std::basic_string<char, std::char_traits<char>, std::allocator<char> > > > >::map
FUNC 1fe17 2f 0 boost::enable_error_info<boost::thread_resource_error>
FUNC 1fe46 a1 0 boost::exception_detail::error_info_injector<boost::thread_resource_error>::~error_info_injector
FUNC 1fef6 26 0 boost::exception_detail::error_info_injector<boost::thread_resource_error>::~error_info_injector
FUNC 1ff1c 2f 0 boost::enable_current_exception<boost::exception_detail::error_info_injector<boost::thread_resource_error> >
FUNC 1ff4c 8f 0 boost::exception_detail::clone_impl<boost::exception_detail::error_info_injector<boost::thread_resource_error> >::~clone_impl
FUNC 1fffa 26 0 boost::exception_detail::clone_impl<boost::exception_detail::error_info_injector<boost::thread_resource_error> >::~clone_impl
FUNC 20020 2f 0 boost::enable_error_info<boost::lock_error>
FUNC 20050 a1 0 boost::exception_detail::error_info_injector<boost::lock_error>::~error_info_injector
FUNC 20100 26 0 boost::exception_detail::error_info_injector<boost::lock_error>::~error_info_injector
FUNC 20126 2f 0 boost::enable_current_exception<boost::exception_detail::error_info_injector<boost::lock_error> >
FUNC 20156 8f 0 boost::exception_detail::clone_impl<boost::exception_detail::error_info_injector<boost::lock_error> >::~clone_impl
FUNC 20204 26 0 boost::exception_detail::clone_impl<boost::exception_detail::error_info_injector<boost::lock_error> >::~clone_impl
FUNC 2022a 25 0 std::list<stLogInfo, std::allocator<stLogInfo> >::end
FUNC 20250 40 0 std::list<stLogInfo, std::allocator<stLogInfo> >::_M_insert
FUNC 20290 19 0 std::auto_ptr<Log::Logger>::auto_ptr
FUNC 202aa 11 0 std::auto_ptr<Log::Logger>::get
FUNC 202bc 64 0 std::auto_ptr<Log::Logger>::reset
FUNC 20320 1a 0 std::allocator<std::_Rb_tree_node<std::pair<const std::basic_string<char, std::char_traits<char>, std::allocator<char> >, IEC103::stConfigParam> > >::~allocator
FUNC 2033a 69 0 std::_Rb_tree<std::basic_string<char, std::char_traits<char>, std::allocator<char> >, std::pair<const std::basic_string<char, std::char_traits<char>, std::allocator<char> >, IEC103::stConfigParam>, std::_Select1st<std::pair<const std::basic_string<char, std::char_traits<char>, std::allocator<char> >, IEC103::stConfigParam> >, std::less<std::basic_string<char, std::char_traits<char>, std::allocator<char> > >, std::allocator<std::pair<const std::basic_string<char, std::char_traits<char>, std::allocator<char> >, IEC103::stConfigParam> > >::_M_erase
FUNC 203a4 12 0 std::_Rb_tree<std::basic_string<char, std::char_traits<char>, std::allocator<char> >, std::pair<const std::basic_string<char, std::char_traits<char>, std::allocator<char> >, IEC103::stConfigParam>, std::_Select1st<std::pair<const std::basic_string<char, std::char_traits<char>, std::allocator<char> >, IEC103::stConfigParam> >, std::less<std::basic_string<char, std::char_traits<char>, std::allocator<char> > >, std::allocator<std::pair<const std::basic_string<char, std::char_traits<char>, std::allocator<char> >, IEC103::stConfigParam> > >::_M_begin
FUNC 203b6 12 0 std::_Rb_tree<std::basic_string<char, std::char_traits<char>, std::allocator<char> >, std::pair<const std::basic_string<char, std::char_traits<char>, std::allocator<char> >, IEC103::stConfigParam>, std::_Select1st<std::pair<const std::basic_string<char, std::char_traits<char>, std::allocator<char> >, IEC103::stConfigParam> >, std::less<std::basic_string<char, std::char_traits<char>, std::allocator<char> > >, std::allocator<std::pair<const std::basic_string<char, std::char_traits<char>, std::allocator<char> >, IEC103::stConfigParam> > >::size
FUNC 203c8 2c 0 std::_Rb_tree<std::basic_string<char, std::char_traits<char>, std::allocator<char> >, std::pair<const std::basic_string<char, std::char_traits<char>, std::allocator<char> >, IEC103::stConfigParam>, std::_Select1st<std::pair<const std::basic_string<char, std::char_traits<char>, std::allocator<char> >, IEC103::stConfigParam> >, std::less<std::basic_string<char, std::char_traits<char>, std::allocator<char> > >, std::allocator<std::pair<const std::basic_string<char, std::char_traits<char>, std::allocator<char> >, IEC103::stConfigParam> > >::begin
FUNC 203f4 1a 0 std::allocator<std::_Rb_tree_node<std::pair<const std::basic_string<char, std::char_traits<char>, std::allocator<char> >, std::map<std::basic_string<char, std::char_traits<char>, std::allocator<char> >, std::basic_string<char, std::char_traits<char>, std::allocator<char> >, std::less<std::basic_string<char, std::char_traits<char>, std::allocator<char> > >, std::allocator<std::pair<const std::basic_string<char, std::char_traits<char>, std::allocator<char> >, std::basic_string<char, std::char_traits<char>, std::allocator<char> > > > > > > >::~allocator
FUNC 2040e 69 0 std::_Rb_tree<std::basic_string<char, std::char_traits<char>, std::allocator<char> >, std::pair<const std::basic_string<char, std::char_traits<char>, std::allocator<char> >, std::map<std::basic_string<char, std::char_traits<char>, std::allocator<char> >, std::basic_string<char, std::char_traits<char>, std::allocator<char> >, std::less<std::basic_string<char, std::char_traits<char>, std::allocator<char> > >, std::allocator<std::pair<const std::basic_string<char, std::char_traits<char>, std::allocator<char> >, std::basic_string<char, std::char_traits<char>, std::allocator<char> > > > > >, std::_Select1st<std::pair<const std::basic_string<char, std::char_traits<char>, std::allocator<char> >, std::map<std::basic_string<char, std::char_traits<char>, std::allocator<char> >, std::basic_string<char, std::char_traits<char>, std::allocator<char> >, std::less<std::basic_string<char, std::char_traits<char>, std::allocator<char> > >, std::allocator<std::pair<const std::basic_string<char, std::char_traits<char>, std::allocator<char> >, std::basic_string<char, std::char_traits<char>, std::allocator<char> > > > > > >, std::less<std::basic_string<char, std::char_traits<char>, std::allocator<char> > >, std::allocator<std::pair<const std::basic_string<char, std::char_traits<char>, std::allocator<char> >, std::map<std::basic_string<char, std::char_traits<char>, std::allocator<char> >, std::basic_string<char, std::char_traits<char>, std::allocator<char> >, std::less<std::basic_string<char, std::char_traits<char>, std::allocator<char> > >, std::allocator<std::pair<const std::basic_string<char, std::char_traits<char>, std::allocator<char> >, std::basic_string<char, std::char_traits<char>, std::allocator<char> > > > > > > >::_M_erase
FUNC 20478 12 0 std::_Rb_tree<std::basic_string<char, std::char_traits<char>, std::allocator<char> >, std::pair<const std::basic_string<char, std::char_traits<char>, std::allocator<char> >, std::map<std::basic_string<char, std::char_traits<char>, std::allocator<char> >, std::basic_string<char, std::char_traits<char>, std::allocator<char> >, std::less<std::basic_string<char, std::char_traits<char>, std::allocator<char> > >, std::allocator<std::pair<const std::basic_string<char, std::char_traits<char>, std::allocator<char> >, std::basic_string<char, std::char_traits<char>, std::allocator<char> > > > > >, std::_Select1st<std::pair<const std::basic_string<char, std::char_traits<char>, std::allocator<char> >, std::map<std::basic_string<char, std::char_traits<char>, std::allocator<char> >, std::basic_string<char, std::char_traits<char>, std::allocator<char> >, std::less<std::basic_string<char, std::char_traits<char>, std::allocator<char> > >, std::allocator<std::pair<const std::basic_string<char, std::char_traits<char>, std::allocator<char> >, std::basic_string<char, std::char_traits<char>, std::allocator<char> > > > > > >, std::less<std::basic_string<char, std::char_traits<char>, std::allocator<char> > >, std::allocator<std::pair<const std::basic_string<char, std::char_traits<char>, std::allocator<char> >, std::map<std::basic_string<char, std::char_traits<char>, std::allocator<char> >, std::basic_string<char, std::char_traits<char>, std::allocator<char> >, std::less<std::basic_string<char, std::char_traits<char>, std::allocator<char> > >, std::allocator<std::pair<const std::basic_string<char, std::char_traits<char>, std::allocator<char> >, std::basic_string<char, std::char_traits<char>, std::allocator<char> > > > > > > >::_M_begin
FUNC 2048a 2c 0 std::_Rb_tree<std::basic_string<char, std::char_traits<char>, std::allocator<char> >, std::pair<const std::basic_string<char, std::char_traits<char>, std::allocator<char> >, std::map<std::basic_string<char, std::char_traits<char>, std::allocator<char> >, std::basic_string<char, std::char_traits<char>, std::allocator<char> >, std::less<std::basic_string<char, std::char_traits<char>, std::allocator<char> > >, std::allocator<std::pair<const std::basic_string<char, std::char_traits<char>, std::allocator<char> >, std::basic_string<char, std::char_traits<char>, std::allocator<char> > > > > >, std::_Select1st<std::pair<const std::basic_string<char, std::char_traits<char>, std::allocator<char> >, std::map<std::basic_string<char, std::char_traits<char>, std::allocator<char> >, std::basic_string<char, std::char_traits<char>, std::allocator<char> >, std::less<std::basic_string<char, std::char_traits<char>, std::allocator<char> > >, std::allocator<std::pair<const std::basic_string<char, std::char_traits<char>, std::allocator<char> >, std::basic_string<char, std::char_traits<char>, std::allocator<char> > > > > > >, std::less<std::basic_string<char, std::char_traits<char>, std::allocator<char> > >, std::allocator<std::pair<const std::basic_string<char, std::char_traits<char>, std::allocator<char> >, std::map<std::basic_string<char, std::char_traits<char>, std::allocator<char> >, std::basic_string<char, std::char_traits<char>, std::allocator<char> >, std::less<std::basic_string<char, std::char_traits<char>, std::allocator<char> > >, std::allocator<std::pair<const std::basic_string<char, std::char_traits<char>, std::allocator<char> >, std::basic_string<char, std::char_traits<char>, std::allocator<char> > > > > > > >::begin
FUNC 204b6 11d 0 std::_Rb_tree<std::basic_string<char, std::char_traits<char>, std::allocator<char> >, std::pair<const std::basic_string<char, std::char_traits<char>, std::allocator<char> >, std::basic_string<char, std::char_traits<char>, std::allocator<char> > >, std::_Select1st<std::pair<const std::basic_string<char, std::char_traits<char>, std::allocator<char> >, std::basic_string<char, std::char_traits<char>, std::allocator<char> > > >, std::less<std::basic_string<char, std::char_traits<char>, std::allocator<char> > >, std::allocator<std::pair<const std::basic_string<char, std::char_traits<char>, std::allocator<char> >, std::basic_string<char, std::char_traits<char>, std::allocator<char> > > > >::_Rb_tree
FUNC 205d4 12 0 std::_Rb_tree<std::basic_string<char, std::char_traits<char>, std::allocator<char> >, std::pair<const std::basic_string<char, std::char_traits<char>, std::allocator<char> >, std::basic_string<char, std::char_traits<char>, std::allocator<char> > >, std::_Select1st<std::pair<const std::basic_string<char, std::char_traits<char>, std::allocator<char> >, std::basic_string<char, std::char_traits<char>, std::allocator<char> > > >, std::less<std::basic_string<char, std::char_traits<char>, std::allocator<char> > >, std::allocator<std::pair<const std::basic_string<char, std::char_traits<char>, std::allocator<char> >, std::basic_string<char, std::char_traits<char>, std::allocator<char> > > > >::_M_root
FUNC 205e6 169 0 std::_Rb_tree<std::basic_string<char, std::char_traits<char>, std::allocator<char> >, std::pair<const std::basic_string<char, std::char_traits<char>, std::allocator<char> >, std::basic_string<char, std::char_traits<char>, std::allocator<char> > >, std::_Select1st<std::pair<const std::basic_string<char, std::char_traits<char>, std::allocator<char> >, std::basic_string<char, std::char_traits<char>, std::allocator<char> > > >, std::less<std::basic_string<char, std::char_traits<char>, std::allocator<char> > >, std::allocator<std::pair<const std::basic_string<char, std::char_traits<char>, std::allocator<char> >, std::basic_string<char, std::char_traits<char>, std::allocator<char> > > > >::_M_copy
FUNC 20750 12 0 std::_Rb_tree<std::basic_string<char, std::char_traits<char>, std::allocator<char> >, std::pair<const std::basic_string<char, std::char_traits<char>, std::allocator<char> >, std::basic_string<char, std::char_traits<char>, std::allocator<char> > >, std::_Select1st<std::pair<const std::basic_string<char, std::char_traits<char>, std::allocator<char> >, std::basic_string<char, std::char_traits<char>, std::allocator<char> > > >, std::less<std::basic_string<char, std::char_traits<char>, std::allocator<char> > >, std::allocator<std::pair<const std::basic_string<char, std::char_traits<char>, std::allocator<char> >, std::basic_string<char, std::char_traits<char>, std::allocator<char> > > > >::_M_begin
FUNC 20762 1a 0 std::_Rb_tree<std::basic_string<char, std::char_traits<char>, std::allocator<char> >, std::pair<const std::basic_string<char, std::char_traits<char>, std::allocator<char> >, std::basic_string<char, std::char_traits<char>, std::allocator<char> > >, std::_Select1st<std::pair<const std::basic_string<char, std::char_traits<char>, std::allocator<char> >, std::basic_string<char, std::char_traits<char>, std::allocator<char> > > >, std::less<std::basic_string<char, std::char_traits<char>, std::allocator<char> > >, std::allocator<std::pair<const std::basic_string<char, std::char_traits<char>, std::allocator<char> >, std::basic_string<char, std::char_traits<char>, std::allocator<char> > > > >::_S_minimum
FUNC 2077c 1a 0 std::_Rb_tree<std::basic_string<char, std::char_traits<char>, std::allocator<char> >, std::pair<const std::basic_string<char, std::char_traits<char>, std::allocator<char> >, std::basic_string<char, std::char_traits<char>, std::allocator<char> > >, std::_Select1st<std::pair<const std::basic_string<char, std::char_traits<char>, std::allocator<char> >, std::basic_string<char, std::char_traits<char>, std::allocator<char> > > >, std::less<std::basic_string<char, std::char_traits<char>, std::allocator<char> > >, std::allocator<std::pair<const std::basic_string<char, std::char_traits<char>, std::allocator<char> >, std::basic_string<char, std::char_traits<char>, std::allocator<char> > > > >::_S_maximum
FUNC 20796 83 0 boost::exception_detail::error_info_injector<boost::thread_resource_error>::error_info_injector
FUNC 2081a ce 0 boost::exception_detail::clone_impl<boost::exception_detail::error_info_injector<boost::thread_resource_error> >::clone_impl
FUNC 208e8 83 0 boost::exception_detail::error_info_injector<boost::lock_error>::error_info_injector
FUNC 2096c ce 0 boost::exception_detail::clone_impl<boost::exception_detail::error_info_injector<boost::lock_error> >::clone_impl
FUNC 20a3a 19 0 std::_List_iterator<stLogInfo>::_List_iterator
FUNC 20a54 bd 0 std::list<stLogInfo, std::allocator<stLogInfo> >::_M_create_node
FUNC 20b12 a 0 __gnu_cxx::new_allocator<std::_Rb_tree_node<std::pair<const std::basic_string<char, std::char_traits<char>, std::allocator<char> >, IEC103::stConfigParam> > >::~new_allocator
FUNC 20b1c 12 0 std::_Rb_tree<std::basic_string<char, std::char_traits<char>, std::allocator<char> >, std::pair<const std::basic_string<char, std::char_traits<char>, std::allocator<char> >, IEC103::stConfigParam>, std::_Select1st<std::pair<const std::basic_string<char, std::char_traits<char>, std::allocator<char> >, IEC103::stConfigParam> >, std::less<std::basic_string<char, std::char_traits<char>, std::allocator<char> > >, std::allocator<std::pair<const std::basic_string<char, std::char_traits<char>, std::allocator<char> >, IEC103::stConfigParam> > >::_S_right
FUNC 20b2e 12 0 std::_Rb_tree<std::basic_string<char, std::char_traits<char>, std::allocator<char> >, std::pair<const std::basic_string<char, std::char_traits<char>, std::allocator<char> >, IEC103::stConfigParam>, std::_Select1st<std::pair<const std::basic_string<char, std::char_traits<char>, std::allocator<char> >, IEC103::stConfigParam> >, std::less<std::basic_string<char, std::char_traits<char>, std::allocator<char> > >, std::allocator<std::pair<const std::basic_string<char, std::char_traits<char>, std::allocator<char> >, IEC103::stConfigParam> > >::_S_left
FUNC 20b40 86 0 std::_Rb_tree<std::basic_string<char, std::char_traits<char>, std::allocator<char> >, std::pair<const std::basic_string<char, std::char_traits<char>, std::allocator<char> >, IEC103::stConfigParam>, std::_Select1st<std::pair<const std::basic_string<char, std::char_traits<char>, std::allocator<char> >, IEC103::stConfigParam> >, std::less<std::basic_string<char, std::char_traits<char>, std::allocator<char> > >, std::allocator<std::pair<const std::basic_string<char, std::char_traits<char>, std::allocator<char> >, IEC103::stConfigParam> > >::_M_destroy_node
FUNC 20bc6 e 0 std::_Rb_tree<std::basic_string<char, std::char_traits<char>, std::allocator<char> >, std::pair<const std::basic_string<char, std::char_traits<char>, std::allocator<char> >, IEC103::stConfigParam>, std::_Select1st<std::pair<const std::basic_string<char, std::char_traits<char>, std::allocator<char> >, IEC103::stConfigParam> >, std::less<std::basic_string<char, std::char_traits<char>, std::allocator<char> > >, std::allocator<std::pair<const std::basic_string<char, std::char_traits<char>, std::allocator<char> >, IEC103::stConfigParam> > >::_M_get_Node_allocator
FUNC 20bd4 19 0 std::_Rb_tree_iterator<std::pair<const std::basic_string<char, std::char_traits<char>, std::allocator<char> >, IEC103::stConfigParam> >::_Rb_tree_iterator
FUNC 20bee a 0 __gnu_cxx::new_allocator<std::_Rb_tree_node<std::pair<const std::basic_string<char, std::char_traits<char>, std::allocator<char> >, std::map<std::basic_string<char, std::char_traits<char>, std::allocator<char> >, std::basic_string<char, std::char_traits<char>, std::allocator<char> >, std::less<std::basic_string<char, std::char_traits<char>, std::allocator<char> > >, std::allocator<std::pair<const std::basic_string<char, std::char_traits<char>, std::allocator<char> >, std::basic_string<char, std::char_traits<char>, std::allocator<char> > > > > > > >::~new_allocator
FUNC 20bf8 12 0 std::_Rb_tree<std::basic_string<char, std::char_traits<char>, std::allocator<char> >, std::pair<const std::basic_string<char, std::char_traits<char>, std::allocator<char> >, std::map<std::basic_string<char, std::char_traits<char>, std::allocator<char> >, std::basic_string<char, std::char_traits<char>, std::allocator<char> >, std::less<std::basic_string<char, std::char_traits<char>, std::allocator<char> > >, std::allocator<std::pair<const std::basic_string<char, std::char_traits<char>, std::allocator<char> >, std::basic_string<char, std::char_traits<char>, std::allocator<char> > > > > >, std::_Select1st<std::pair<const std::basic_string<char, std::char_traits<char>, std::allocator<char> >, std::map<std::basic_string<char, std::char_traits<char>, std::allocator<char> >, std::basic_string<char, std::char_traits<char>, std::allocator<char> >, std::less<std::basic_string<char, std::char_traits<char>, std::allocator<char> > >, std::allocator<std::pair<const std::basic_string<char, std::char_traits<char>, std::allocator<char> >, std::basic_string<char, std::char_traits<char>, std::allocator<char> > > > > > >, std::less<std::basic_string<char, std::char_traits<char>, std::allocator<char> > >, std::allocator<std::pair<const std::basic_string<char, std::char_traits<char>, std::allocator<char> >, std::map<std::basic_string<char, std::char_traits<char>, std::allocator<char> >, std::basic_string<char, std::char_traits<char>, std::allocator<char> >, std::less<std::basic_string<char, std::char_traits<char>, std::allocator<char> > >, std::allocator<std::pair<const std::basic_string<char, std::char_traits<char>, std::allocator<char> >, std::basic_string<char, std::char_traits<char>, std::allocator<char> > > > > > > >::_S_right
FUNC 20c0a 12 0 std::_Rb_tree<std::basic_string<char, std::char_traits<char>, std::allocator<char> >, std::pair<const std::basic_string<char, std::char_traits<char>, std::allocator<char> >, std::map<std::basic_string<char, std::char_traits<char>, std::allocator<char> >, std::basic_string<char, std::char_traits<char>, std::allocator<char> >, std::less<std::basic_string<char, std::char_traits<char>, std::allocator<char> > >, std::allocator<std::pair<const std::basic_string<char, std::char_traits<char>, std::allocator<char> >, std::basic_string<char, std::char_traits<char>, std::allocator<char> > > > > >, std::_Select1st<std::pair<const std::basic_string<char, std::char_traits<char>, std::allocator<char> >, std::map<std::basic_string<char, std::char_traits<char>, std::allocator<char> >, std::basic_string<char, std::char_traits<char>, std::allocator<char> >, std::less<std::basic_string<char, std::char_traits<char>, std::allocator<char> > >, std::allocator<std::pair<const std::basic_string<char, std::char_traits<char>, std::allocator<char> >, std::basic_string<char, std::char_traits<char>, std::allocator<char> > > > > > >, std::less<std::basic_string<char, std::char_traits<char>, std::allocator<char> > >, std::allocator<std::pair<const std::basic_string<char, std::char_traits<char>, std::allocator<char> >, std::map<std::basic_string<char, std::char_traits<char>, std::allocator<char> >, std::basic_string<char, std::char_traits<char>, std::allocator<char> >, std::less<std::basic_string<char, std::char_traits<char>, std::allocator<char> > >, std::allocator<std::pair<const std::basic_string<char, std::char_traits<char>, std::allocator<char> >, std::basic_string<char, std::char_traits<char>, std::allocator<char> > > > > > > >::_S_left
FUNC 20c1c 86 0 std::_Rb_tree<std::basic_string<char, std::char_traits<char>, std::allocator<char> >, std::pair<const std::basic_string<char, std::char_traits<char>, std::allocator<char> >, std::map<std::basic_string<char, std::char_traits<char>, std::allocator<char> >, std::basic_string<char, std::char_traits<char>, std::allocator<char> >, std::less<std::basic_string<char, std::char_traits<char>, std::allocator<char> > >, std::allocator<std::pair<const std::basic_string<char, std::char_traits<char>, std::allocator<char> >, std::basic_string<char, std::char_traits<char>, std::allocator<char> > > > > >, std::_Select1st<std::pair<const std::basic_string<char, std::char_traits<char>, std::allocator<char> >, std::map<std::basic_string<char, std::char_traits<char>, std::allocator<char> >, std::basic_string<char, std::char_traits<char>, std::allocator<char> >, std::less<std::basic_string<char, std::char_traits<char>, std::allocator<char> > >, std::allocator<std::pair<const std::basic_string<char, std::char_traits<char>, std::allocator<char> >, std::basic_string<char, std::char_traits<char>, std::allocator<char> > > > > > >, std::less<std::basic_string<char, std::char_traits<char>, std::allocator<char> > >, std::allocator<std::pair<const std::basic_string<char, std::char_traits<char>, std::allocator<char> >, std::map<std::basic_string<char, std::char_traits<char>, std::allocator<char> >, std::basic_string<char, std::char_traits<char>, std::allocator<char> >, std::less<std::basic_string<char, std::char_traits<char>, std::allocator<char> > >, std::allocator<std::pair<const std::basic_string<char, std::char_traits<char>, std::allocator<char> >, std::basic_string<char, std::char_traits<char>, std::allocator<char> > > > > > > >::_M_destroy_node
FUNC 20ca2 e 0 std::_Rb_tree<std::basic_string<char, std::char_traits<char>, std::allocator<char> >, std::pair<const std::basic_string<char, std::char_traits<char>, std::allocator<char> >, std::map<std::basic_string<char, std::char_traits<char>, std::allocator<char> >, std::basic_string<char, std::char_traits<char>, std::allocator<char> >, std::less<std::basic_string<char, std::char_traits<char>, std::allocator<char> > >, std::allocator<std::pair<const std::basic_string<char, std::char_traits<char>, std::allocator<char> >, std::basic_string<char, std::char_traits<char>, std::allocator<char> > > > > >, std::_Select1st<std::pair<const std::basic_string<char, std::char_traits<char>, std::allocator<char> >, std::map<std::basic_string<char, std::char_traits<char>, std::allocator<char> >, std::basic_string<char, std::char_traits<char>, std::allocator<char> >, std::less<std::basic_string<char, std::char_traits<char>, std::allocator<char> > >, std::allocator<std::pair<const std::basic_string<char, std::char_traits<char>, std::allocator<char> >, std::basic_string<char, std::char_traits<char>, std::allocator<char> > > > > > >, std::less<std::basic_string<char, std::char_traits<char>, std::allocator<char> > >, std::allocator<std::pair<const std::basic_string<char, std::char_traits<char>, std::allocator<char> >, std::map<std::basic_string<char, std::char_traits<char>, std::allocator<char> >, std::basic_string<char, std::char_traits<char>, std::allocator<char> >, std::less<std::basic_string<char, std::char_traits<char>, std::allocator<char> > >, std::allocator<std::pair<const std::basic_string<char, std::char_traits<char>, std::allocator<char> >, std::basic_string<char, std::char_traits<char>, std::allocator<char> > > > > > > >::_M_get_Node_allocator
FUNC 20cb0 19 0 std::_Rb_tree_iterator<std::pair<const std::basic_string<char, std::char_traits<char>, std::allocator<char> >, std::map<std::basic_string<char, std::char_traits<char>, std::allocator<char> >, std::basic_string<char, std::char_traits<char>, std::allocator<char> >, std::less<std::basic_string<char, std::char_traits<char>, std::allocator<char> > >, std::allocator<std::pair<const std::basic_string<char, std::char_traits<char>, std::allocator<char> >, std::basic_string<char, std::char_traits<char>, std::allocator<char> > > > > > >::_Rb_tree_iterator
FUNC 20cca 9b 0 std::_Rb_tree<std::basic_string<char, std::char_traits<char>, std::allocator<char> >, std::pair<const std::basic_string<char, std::char_traits<char>, std::allocator<char> >, std::basic_string<char, std::char_traits<char>, std::allocator<char> > >, std::_Select1st<std::pair<const std::basic_string<char, std::char_traits<char>, std::allocator<char> >, std::basic_string<char, std::char_traits<char>, std::allocator<char> > > >, std::less<std::basic_string<char, std::char_traits<char>, std::allocator<char> > >, std::allocator<std::pair<const std::basic_string<char, std::char_traits<char>, std::allocator<char> >, std::basic_string<char, std::char_traits<char>, std::allocator<char> > > > >::_Rb_tree_impl<std::less<std::basic_string<char, std::char_traits<char>, std::allocator<char> > >, false>::_Rb_tree_impl
FUNC 20d66 55 0 std::_Rb_tree<std::basic_string<char, std::char_traits<char>, std::allocator<char> >, std::pair<const std::basic_string<char, std::char_traits<char>, std::allocator<char> >, std::basic_string<char, std::char_traits<char>, std::allocator<char> > >, std::_Select1st<std::pair<const std::basic_string<char, std::char_traits<char>, std::allocator<char> >, std::basic_string<char, std::char_traits<char>, std::allocator<char> > > >, std::less<std::basic_string<char, std::char_traits<char>, std::allocator<char> > >, std::allocator<std::pair<const std::basic_string<char, std::char_traits<char>, std::allocator<char> >, std::basic_string<char, std::char_traits<char>, std::allocator<char> > > > >::_M_clone_node
FUNC 20dbb 12 0 std::_Rb_tree<std::basic_string<char, std::char_traits<char>, std::allocator<char> >, std::pair<const std::basic_string<char, std::char_traits<char>, std::allocator<char> >, std::basic_string<char, std::char_traits<char>, std::allocator<char> > >, std::_Select1st<std::pair<const std::basic_string<char, std::char_traits<char>, std::allocator<char> >, std::basic_string<char, std::char_traits<char>, std::allocator<char> > > >, std::less<std::basic_string<char, std::char_traits<char>, std::allocator<char> > >, std::allocator<std::pair<const std::basic_string<char, std::char_traits<char>, std::allocator<char> >, std::basic_string<char, std::char_traits<char>, std::allocator<char> > > > >::_S_left
FUNC 20dce 24 0 std::_List_base<stLogInfo, std::allocator<stLogInfo> >::_M_get_node
FUNC 20df2 3b 0 std::_List_base<stLogInfo, std::allocator<stLogInfo> >::_M_get_Tp_allocator
FUNC 20e2e 1a 0 std::allocator<stLogInfo>::~allocator
FUNC 20e48 91 0 stLogInfo::stLogInfo
FUNC 20eda 77 0 __gnu_cxx::new_allocator<stLogInfo>::construct
FUNC 20f52 2a 0 std::_List_base<stLogInfo, std::allocator<stLogInfo> >::_M_put_node
FUNC 20f7c 3b 0 std::_Rb_tree<std::basic_string<char, std::char_traits<char>, std::allocator<char> >, std::pair<const std::basic_string<char, std::char_traits<char>, std::allocator<char> >, IEC103::stConfigParam>, std::_Select1st<std::pair<const std::basic_string<char, std::char_traits<char>, std::allocator<char> >, IEC103::stConfigParam> >, std::less<std::basic_string<char, std::char_traits<char>, std::allocator<char> > >, std::allocator<std::pair<const std::basic_string<char, std::char_traits<char>, std::allocator<char> >, IEC103::stConfigParam> > >::get_allocator
FUNC 20fb8 1a 0 std::allocator<std::pair<const std::basic_string<char, std::char_traits<char>, std::allocator<char> >, IEC103::stConfigParam> >::~allocator
FUNC 20fd2 84 0 IEC103::stConfigParam::~stConfigParam
FUNC 21056 55 0 std::pair<const std::basic_string<char, std::char_traits<char>, std::allocator<char> >, IEC103::stConfigParam>::~pair
FUNC 210ac 1e 0 __gnu_cxx::new_allocator<std::pair<const std::basic_string<char, std::char_traits<char>, std::allocator<char> >, IEC103::stConfigParam> >::destroy
FUNC 210ca 2a 0 std::_Rb_tree<std::basic_string<char, std::char_traits<char>, std::allocator<char> >, std::pair<const std::basic_string<char, std::char_traits<char>, std::allocator<char> >, IEC103::stConfigParam>, std::_Select1st<std::pair<const std::basic_string<char, std::char_traits<char>, std::allocator<char> >, IEC103::stConfigParam> >, std::less<std::basic_string<char, std::char_traits<char>, std::allocator<char> > >, std::allocator<std::pair<const std::basic_string<char, std::char_traits<char>, std::allocator<char> >, IEC103::stConfigParam> > >::_M_put_node
FUNC 210f4 3b 0 std::_Rb_tree<std::basic_string<char, std::char_traits<char>, std::allocator<char> >, std::pair<const std::basic_string<char, std::char_traits<char>, std::allocator<char> >, std::map<std::basic_string<char, std::char_traits<char>, std::allocator<char> >, std::basic_string<char, std::char_traits<char>, std::allocator<char> >, std::less<std::basic_string<char, std::char_traits<char>, std::allocator<char> > >, std::allocator<std::pair<const std::basic_string<char, std::char_traits<char>, std::allocator<char> >, std::basic_string<char, std::char_traits<char>, std::allocator<char> > > > > >, std::_Select1st<std::pair<const std::basic_string<char, std::char_traits<char>, std::allocator<char> >, std::map<std::basic_string<char, std::char_traits<char>, std::allocator<char> >, std::basic_string<char, std::char_traits<char>, std::allocator<char> >, std::less<std::basic_string<char, std::char_traits<char>, std::allocator<char> > >, std::allocator<std::pair<const std::basic_string<char, std::char_traits<char>, std::allocator<char> >, std::basic_string<char, std::char_traits<char>, std::allocator<char> > > > > > >, std::less<std::basic_string<char, std::char_traits<char>, std::allocator<char> > >, std::allocator<std::pair<const std::basic_string<char, std::char_traits<char>, std::allocator<char> >, std::map<std::basic_string<char, std::char_traits<char>, std::allocator<char> >, std::basic_string<char, std::char_traits<char>, std::allocator<char> >, std::less<std::basic_string<char, std::char_traits<char>, std::allocator<char> > >, std::allocator<std::pair<const std::basic_string<char, std::char_traits<char>, std::allocator<char> >, std::basic_string<char, std::char_traits<char>, std::allocator<char> > > > > > > >::get_allocator
FUNC 21130 1a 0 std::allocator<std::pair<const std::basic_string<char, std::char_traits<char>, std::allocator<char> >, std::map<std::basic_string<char, std::char_traits<char>, std::allocator<char> >, std::basic_string<char, std::char_traits<char>, std::allocator<char> >, std::less<std::basic_string<char, std::char_traits<char>, std::allocator<char> > >, std::allocator<std::pair<const std::basic_string<char, std::char_traits<char>, std::allocator<char> >, std::basic_string<char, std::char_traits<char>, std::allocator<char> > > > > > >::~allocator
FUNC 2114a 55 0 std::pair<const std::basic_string<char, std::char_traits<char>, std::allocator<char> >, std::map<std::basic_string<char, std::char_traits<char>, std::allocator<char> >, std::basic_string<char, std::char_traits<char>, std::allocator<char> >, std::less<std::basic_string<char, std::char_traits<char>, std::allocator<char> > >, std::allocator<std::pair<const std::basic_string<char, std::char_traits<char>, std::allocator<char> >, std::basic_string<char, std::char_traits<char>, std::allocator<char> > > > > >::~pair
FUNC 211a0 1e 0 __gnu_cxx::new_allocator<std::pair<const std::basic_string<char, std::char_traits<char>, std::allocator<char> >, std::map<std::basic_string<char, std::char_traits<char>, std::allocator<char> >, std::basic_string<char, std::char_traits<char>, std::allocator<char> >, std::less<std::basic_string<char, std::char_traits<char>, std::allocator<char> > >, std::allocator<std::pair<const std::basic_string<char, std::char_traits<char>, std::allocator<char> >, std::basic_string<char, std::char_traits<char>, std::allocator<char> > > > > > >::destroy
FUNC 211be 2a 0 std::_Rb_tree<std::basic_string<char, std::char_traits<char>, std::allocator<char> >, std::pair<const std::basic_string<char, std::char_traits<char>, std::allocator<char> >, std::map<std::basic_string<char, std::char_traits<char>, std::allocator<char> >, std::basic_string<char, std::char_traits<char>, std::allocator<char> >, std::less<std::basic_string<char, std::char_traits<char>, std::allocator<char> > >, std::allocator<std::pair<const std::basic_string<char, std::char_traits<char>, std::allocator<char> >, std::basic_string<char, std::char_traits<char>, std::allocator<char> > > > > >, std::_Select1st<std::pair<const std::basic_string<char, std::char_traits<char>, std::allocator<char> >, std::map<std::basic_string<char, std::char_traits<char>, std::allocator<char> >, std::basic_string<char, std::char_traits<char>, std::allocator<char> >, std::less<std::basic_string<char, std::char_traits<char>, std::allocator<char> > >, std::allocator<std::pair<const std::basic_string<char, std::char_traits<char>, std::allocator<char> >, std::basic_string<char, std::char_traits<char>, std::allocator<char> > > > > > >, std::less<std::basic_string<char, std::char_traits<char>, std::allocator<char> > >, std::allocator<std::pair<const std::basic_string<char, std::char_traits<char>, std::allocator<char> >, std::map<std::basic_string<char, std::char_traits<char>, std::allocator<char> >, std::basic_string<char, std::char_traits<char>, std::allocator<char> >, std::less<std::basic_string<char, std::char_traits<char>, std::allocator<char> > >, std::allocator<std::pair<const std::basic_string<char, std::char_traits<char>, std::allocator<char> >, std::basic_string<char, std::char_traits<char>, std::allocator<char> > > > > > > >::_M_put_node
FUNC 211e8 25 0 std::allocator<std::_Rb_tree_node<std::pair<const std::basic_string<char, std::char_traits<char>, std::allocator<char> >, std::basic_string<char, std::char_traits<char>, std::allocator<char> > > > >::allocator
FUNC 2120e 55 0 __gnu_cxx::new_allocator<std::_List_node<stLogInfo> >::allocate
FUNC 21264 e 0 std::_List_base<stLogInfo, std::allocator<stLogInfo> >::_M_get_Node_allocator
FUNC 21272 1e 0 std::allocator<stLogInfo>::allocator<std::_List_node<stLogInfo> >
FUNC 21290 a 0 __gnu_cxx::new_allocator<stLogInfo>::~new_allocator
FUNC 2129a 22 0 __gnu_cxx::new_allocator<std::_List_node<stLogInfo> >::deallocate
FUNC 212bc 1e 0 std::allocator<std::pair<const std::basic_string<char, std::char_traits<char>, std::allocator<char> >, IEC103::stConfigParam> >::allocator<std::_Rb_tree_node<std::pair<const std::basic_string<char, std::char_traits<char>, std::allocator<char> >, IEC103::stConfigParam> > >
FUNC 212da a 0 __gnu_cxx::new_allocator<std::pair<const std::basic_string<char, std::char_traits<char>, std::allocator<char> >, IEC103::stConfigParam> >::~new_allocator
FUNC 212e4 22 0 __gnu_cxx::new_allocator<std::_Rb_tree_node<std::pair<const std::basic_string<char, std::char_traits<char>, std::allocator<char> >, IEC103::stConfigParam> > >::deallocate
FUNC 21306 1e 0 std::allocator<std::pair<const std::basic_string<char, std::char_traits<char>, std::allocator<char> >, std::map<std::basic_string<char, std::char_traits<char>, std::allocator<char> >, std::basic_string<char, std::char_traits<char>, std::allocator<char> >, std::less<std::basic_string<char, std::char_traits<char>, std::allocator<char> > >, std::allocator<std::pair<const std::basic_string<char, std::char_traits<char>, std::allocator<char> >, std::basic_string<char, std::char_traits<char>, std::allocator<char> > > > > > >::allocator<std::_Rb_tree_node<std::pair<const std::basic_string<char, std::char_traits<char>, std::allocator<char> >, std::map<std::basic_string<char, std::char_traits<char>, std::allocator<char> >, std::basic_string<char, std::char_traits<char>, std::allocator<char> >, std::less<std::basic_string<char, std::char_traits<char>, std::allocator<char> > >, std::allocator<std::pair<const std::basic_string<char, std::char_traits<char>, std::allocator<char> >, std::basic_string<char, std::char_traits<char>, std::allocator<char> > > > > > > >
FUNC 21324 a 0 __gnu_cxx::new_allocator<std::pair<const std::basic_string<char, std::char_traits<char>, std::allocator<char> >, std::map<std::basic_string<char, std::char_traits<char>, std::allocator<char> >, std::basic_string<char, std::char_traits<char>, std::allocator<char> >, std::less<std::basic_string<char, std::char_traits<char>, std::allocator<char> > >, std::allocator<std::pair<const std::basic_string<char, std::char_traits<char>, std::allocator<char> >, std::basic_string<char, std::char_traits<char>, std::allocator<char> > > > > > >::~new_allocator
FUNC 2132e 22 0 __gnu_cxx::new_allocator<std::_Rb_tree_node<std::pair<const std::basic_string<char, std::char_traits<char>, std::allocator<char> >, std::map<std::basic_string<char, std::char_traits<char>, std::allocator<char> >, std::basic_string<char, std::char_traits<char>, std::allocator<char> >, std::less<std::basic_string<char, std::char_traits<char>, std::allocator<char> > >, std::allocator<std::pair<const std::basic_string<char, std::char_traits<char>, std::allocator<char> >, std::basic_string<char, std::char_traits<char>, std::allocator<char> > > > > > > >::deallocate
FUNC 21350 e 0 __gnu_cxx::new_allocator<std::_Rb_tree_node<std::pair<const std::basic_string<char, std::char_traits<char>, std::allocator<char> >, std::basic_string<char, std::char_traits<char>, std::allocator<char> > > > >::new_allocator
FUNC 2135e 14 0 __gnu_cxx::new_allocator<std::_List_node<stLogInfo> >::max_size
FUNC 21372 a 0 __gnu_cxx::new_allocator<stLogInfo>::new_allocator
FUNC 2137c a 0 __gnu_cxx::new_allocator<std::pair<const std::basic_string<char, std::char_traits<char>, std::allocator<char> >, IEC103::stConfigParam> >::new_allocator
FUNC 21386 a 0 __gnu_cxx::new_allocator<std::pair<const std::basic_string<char, std::char_traits<char>, std::allocator<char> >, std::map<std::basic_string<char, std::char_traits<char>, std::allocator<char> >, std::basic_string<char, std::char_traits<char>, std::allocator<char> >, std::less<std::basic_string<char, std::char_traits<char>, std::allocator<char> > >, std::allocator<std::pair<const std::basic_string<char, std::char_traits<char>, std::allocator<char> >, std::basic_string<char, std::char_traits<char>, std::allocator<char> > > > > > >::new_allocator
FUNC 21396 6c 0 boost::exception_detail::clone_impl<boost::exception_detail::error_info_injector<boost::lock_error> >::clone
FUNC 21408 5d 0 boost::exception_detail::clone_impl<boost::exception_detail::error_info_injector<boost::lock_error> >::rethrow
FUNC 2146c 6c 0 boost::exception_detail::clone_impl<boost::exception_detail::error_info_injector<boost::thread_resource_error> >::clone
FUNC 214de 5d 0 boost::exception_detail::clone_impl<boost::exception_detail::error_info_injector<boost::thread_resource_error> >::rethrow
FUNC 2153c 30 0 std::auto_ptr<Log::Logger>::~auto_ptr
FUNC 2156c 27 0 Inet::Inet
FUNC 21594 35 0 Inet::~Inet
FUNC 215ca 26 0 Inet::~Inet
FUNC 215f0 13d 0 combine_folder
FUNC 2172d 23e 0 InitPaths
FUNC 2196b 31 0 InitLogging
FUNC 2199c c8 0 GetLocalDate
FUNC 21a64 c8 0 GetCurTime
FUNC 21b2c 2a1 0 Logger::Logger
FUNC 21dce 138 0 Logger::~Logger
FUNC 21f06 26 0 Logger::~Logger
FUNC 21f2c 124 0 Logger::Debug
FUNC 22050 20c 0 Logger::Debug
FUNC 2225c 125 0 Logger::Info
FUNC 22382 20d 0 Logger::Info
FUNC 22590 125 0 Logger::Warn
FUNC 226b6 20d 0 Logger::Warn
FUNC 228c4 125 0 Logger::Error
FUNC 229ea 20d 0 Logger::Error
FUNC 22bf8 125 0 Logger::Fatal
FUNC 22d1e 20d 0 Logger::Fatal
FUNC 22f2c bc 0 Logger::GetInstance
FUNC 22fe8 164 0 Logger::Log
FUNC 2314c 24a 0 Logger::Log
FUNC 23396 266 0 Logger::Log
FUNC 235fc b 0 Logger::GetInstancePtr
FUNC 23608 354 0 Logger::Log
FUNC 2395c 85 0 LogMessage::LogMessage
FUNC 239e2 86 0 LogMessage::~LogMessage
FUNC 23a68 26 0 LogMessage::~LogMessage
FUNC 23a8e 4e 0 __static_initialization_and_destruction_0
FUNC 23adc 15 0 _GLOBAL__I_Logger.cpp
FUNC 23af2 35 0 ILogger::~ILogger
FUNC 23b28 26 0 ILogger::~ILogger
FUNC 23b4e 12 0 Logger::stream
FUNC 23b60 12c 0 FileHelper::CreateDir
FUNC 23c8c 1c 0 ILogger::ILogger
FUNC 23ca8 eb 0 MemCache::MemCache
FUNC 23d94 80 0 MemCache::~MemCache
FUNC 23e14 26 0 MemCache::~MemCache
FUNC 23e3a 74 0 MemCache::GetInstance
FUNC 23eae 4bc 0 MemCache::Init
FUNC 2436a af 0 MemCache::GetFunction
FUNC 2441a 1a2 0 MemCache::WritePointsValue_V
FUNC 245bc 2b 0 MemCache::Post
FUNC 245e8 3c 0 MemCache::Free
FUNC 24624 ca 0 __static_initialization_and_destruction_0
FUNC 246ee 15 0 _GLOBAL__I_MemCache.cpp
FUNC 24704 14 0 Config::GetRedisPostName
FUNC 24718 15 0 Config::GetRedisPostSize
FUNC 2472e 39 0 std::vector<Tag, std::allocator<Tag> >::operator[]
FUNC 24768 2d 0 std::vector<Tag, std::allocator<Tag> >::size
FUNC 24798 123 0 protobuf_RtdbMessage_2eproto::TableStruct::Shutdown
FUNC 248bc 2a7 0 protobuf_RtdbMessage_2eproto::TableStruct::InitDefaultsImpl
FUNC 24b63 1c 0 protobuf_RtdbMessage_2eproto::InitDefaults
FUNC 24b7f 1a 0 protobuf_RtdbMessage_2eproto::AddDescriptorsImpl
FUNC 24b99 1c 0 protobuf_RtdbMessage_2eproto::AddDescriptors
FUNC 24bb5 20 0 PointValueType_IsValid
FUNC 24bd5 20 0 RtdbMessageType_IsValid
FUNC 24bf5 20 0 ObjectType_IsValid
FUNC 24c16 b3 0 RawMessage::RawMessage
FUNC 24cca 1f8 0 RawMessage::RawMessage
FUNC 24ec2 63 0 RawMessage::SharedCtor
FUNC 24f26 a7 0 RawMessage::~RawMessage
FUNC 24fce 26 0 RawMessage::~RawMessage
FUNC 24ff4 3e 0 RawMessage::SharedDtor
FUNC 25032 17 0 RawMessage::SetCachedSize
FUNC 2504a 10 0 RawMessage::default_instance
FUNC 2505a 78 0 RawMessage::New
FUNC 250d2 58 0 RawMessage::Clear
FUNC 2512a 40f 0 RawMessage::MergePartialFromCodedStream
FUNC 2553a 177 0 RawMessage::SerializeWithCachedSizes
FUNC 256b2 117 0 RawMessage::ByteSizeLong
FUNC 257ca 30 0 RawMessage::CheckTypeAndMergeFrom
FUNC 257fa 25d 0 RawMessage::MergeFrom
FUNC 25a58 49 0 RawMessage::CopyFrom
FUNC 25aa2 f 0 RawMessage::IsInitialized
FUNC 25ab2 32 0 RawMessage::Swap
FUNC 25ae4 b9 0 RawMessage::InternalSwap
FUNC 25b9e 73 0 RawMessage::GetTypeName
FUNC 25c12 b3 0 AlarmMessage::AlarmMessage
FUNC 25cc6 2a4 0 AlarmMessage::AlarmMessage
FUNC 25f6a 93 0 AlarmMessage::SharedCtor
FUNC 25ffe a7 0 AlarmMessage::~AlarmMessage
FUNC 260a6 26 0 AlarmMessage::~AlarmMessage
FUNC 260cc 6e 0 AlarmMessage::SharedDtor
FUNC 2613a 17 0 AlarmMessage::SetCachedSize
FUNC 26152 10 0 AlarmMessage::default_instance
FUNC 26162 78 0 AlarmMessage::New
FUNC 261da 88 0 AlarmMessage::Clear
FUNC 26262 5a9 0 AlarmMessage::MergePartialFromCodedStream
FUNC 2680c 2cf 0 AlarmMessage::SerializeWithCachedSizes
FUNC 26adc 1fb 0 AlarmMessage::ByteSizeLong
FUNC 26cd8 30 0 AlarmMessage::CheckTypeAndMergeFrom
FUNC 26d08 35f 0 AlarmMessage::MergeFrom
FUNC 27068 49 0 AlarmMessage::CopyFrom
FUNC 270b2 f 0 AlarmMessage::IsInitialized
FUNC 270c2 32 0 AlarmMessage::Swap
FUNC 270f4 145 0 AlarmMessage::InternalSwap
FUNC 2723a 73 0 AlarmMessage::GetTypeName
FUNC 272ae b3 0 DebugRequest::DebugRequest
FUNC 27362 1a2 0 DebugRequest::DebugRequest
FUNC 27504 4b 0 DebugRequest::SharedCtor
FUNC 27550 a7 0 DebugRequest::~DebugRequest
FUNC 275f8 26 0 DebugRequest::~DebugRequest
FUNC 2761e 26 0 DebugRequest::SharedDtor
FUNC 27644 17 0 DebugRequest::SetCachedSize
FUNC 2765c 10 0 DebugRequest::default_instance
FUNC 2766c 78 0 DebugRequest::New
FUNC 276e4 40 0 DebugRequest::Clear
FUNC 27724 365 0 DebugRequest::MergePartialFromCodedStream
FUNC 27a8a fc 0 DebugRequest::SerializeWithCachedSizes
FUNC 27b86 d9 0 DebugRequest::ByteSizeLong
FUNC 27c60 30 0 DebugRequest::CheckTypeAndMergeFrom
FUNC 27c90 216 0 DebugRequest::MergeFrom
FUNC 27ea6 49 0 DebugRequest::CopyFrom
FUNC 27ef0 f 0 DebugRequest::IsInitialized
FUNC 27f00 32 0 DebugRequest::Swap
FUNC 27f32 8e 0 DebugRequest::InternalSwap
FUNC 27fc0 73 0 DebugRequest::GetTypeName
FUNC 28034 b3 0 SOEMessage::SOEMessage
FUNC 280e8 1a2 0 SOEMessage::SOEMessage
FUNC 2828a 4b 0 SOEMessage::SharedCtor
FUNC 282d6 a7 0 SOEMessage::~SOEMessage
FUNC 2837e 26 0 SOEMessage::~SOEMessage
FUNC 283a4 26 0 SOEMessage::SharedDtor
FUNC 283ca 17 0 SOEMessage::SetCachedSize
FUNC 283e2 10 0 SOEMessage::default_instance
FUNC 283f2 78 0 SOEMessage::New
FUNC 2846a 40 0 SOEMessage::Clear
FUNC 284aa 365 0 SOEMessage::MergePartialFromCodedStream
FUNC 28810 fc 0 SOEMessage::SerializeWithCachedSizes
FUNC 2890c d9 0 SOEMessage::ByteSizeLong
FUNC 289e6 30 0 SOEMessage::CheckTypeAndMergeFrom
FUNC 28a16 216 0 SOEMessage::MergeFrom
FUNC 28c2c 49 0 SOEMessage::CopyFrom
FUNC 28c76 f 0 SOEMessage::IsInitialized
FUNC 28c86 32 0 SOEMessage::Swap
FUNC 28cb8 8e 0 SOEMessage::InternalSwap
FUNC 28d46 73 0 SOEMessage::GetTypeName
FUNC 28dba b3 0 ControlRequet::ControlRequet
FUNC 28e6e 1e7 0 ControlRequet::ControlRequet
FUNC 29056 51 0 ControlRequet::SharedCtor
FUNC 290a8 a7 0 ControlRequet::~ControlRequet
FUNC 29150 26 0 ControlRequet::~ControlRequet
FUNC 29176 3e 0 ControlRequet::SharedDtor
FUNC 291b4 17 0 ControlRequet::SetCachedSize
FUNC 291cc 10 0 ControlRequet::default_instance
FUNC 291dc 78 0 ControlRequet::New
FUNC 29254 46 0 ControlRequet::Clear
FUNC 2929a 3c1 0 ControlRequet::MergePartialFromCodedStream
FUNC 2965c 144 0 ControlRequet::SerializeWithCachedSizes
FUNC 297a0 c4 0 ControlRequet::ByteSizeLong
FUNC 29864 30 0 ControlRequet::CheckTypeAndMergeFrom
FUNC 29894 21f 0 ControlRequet::MergeFrom
FUNC 29ab4 49 0 ControlRequet::CopyFrom
FUNC 29afe f 0 ControlRequet::IsInitialized
FUNC 29b0e 32 0 ControlRequet::Swap
FUNC 29b40 9e 0 ControlRequet::InternalSwap
FUNC 29bde 73 0 ControlRequet::GetTypeName
FUNC 29c52 b3 0 LogRequest::LogRequest
FUNC 29d06 190 0 LogRequest::LogRequest
FUNC 29e96 3c 0 LogRequest::SharedCtor
FUNC 29ed2 a7 0 LogRequest::~LogRequest
FUNC 29f7a 26 0 LogRequest::~LogRequest
FUNC 29fa0 26 0 LogRequest::SharedDtor
FUNC 29fc6 17 0 LogRequest::SetCachedSize
FUNC 29fde 10 0 LogRequest::default_instance
FUNC 29fee 78 0 LogRequest::New
FUNC 2a066 31 0 LogRequest::Clear
FUNC 2a098 326 0 LogRequest::MergePartialFromCodedStream
FUNC 2a3be cb 0 LogRequest::SerializeWithCachedSizes
FUNC 2a48a a5 0 LogRequest::ByteSizeLong
FUNC 2a530 30 0 LogRequest::CheckTypeAndMergeFrom
FUNC 2a560 1dc 0 LogRequest::MergeFrom
FUNC 2a73c 49 0 LogRequest::CopyFrom
FUNC 2a786 f 0 LogRequest::IsInitialized
FUNC 2a796 32 0 LogRequest::Swap
FUNC 2a7c8 73 0 LogRequest::InternalSwap
FUNC 2a83c 73 0 LogRequest::GetTypeName
FUNC 2a8b0 b3 0 RealLogResponse::RealLogResponse
FUNC 2a964 24e 0 RealLogResponse::RealLogResponse
FUNC 2abb2 7b 0 RealLogResponse::SharedCtor
FUNC 2ac2e a7 0 RealLogResponse::~RealLogResponse
FUNC 2acd6 26 0 RealLogResponse::~RealLogResponse
FUNC 2acfc 56 0 RealLogResponse::SharedDtor
FUNC 2ad52 17 0 RealLogResponse::SetCachedSize
FUNC 2ad6a 10 0 RealLogResponse::default_instance
FUNC 2ad7a 78 0 RealLogResponse::New
FUNC 2adf2 70 0 RealLogResponse::Clear
FUNC 2ae62 4e3 0 RealLogResponse::MergePartialFromCodedStream
FUNC 2b346 225 0 RealLogResponse::SerializeWithCachedSizes
FUNC 2b56c 18b 0 RealLogResponse::ByteSizeLong
FUNC 2b6f8 30 0 RealLogResponse::CheckTypeAndMergeFrom
FUNC 2b728 2e1 0 RealLogResponse::MergeFrom
FUNC 2ba0a 49 0 RealLogResponse::CopyFrom
FUNC 2ba54 f 0 RealLogResponse::IsInitialized
FUNC 2ba64 32 0 RealLogResponse::Swap
FUNC 2ba96 ff 0 RealLogResponse::InternalSwap
FUNC 2bb96 73 0 RealLogResponse::GetTypeName
FUNC 2bc0a b3 0 LogQuery::LogQuery
FUNC 2bcbe 1f8 0 LogQuery::LogQuery
FUNC 2beb6 63 0 LogQuery::SharedCtor
FUNC 2bf1a a7 0 LogQuery::~LogQuery
FUNC 2bfc2 26 0 LogQuery::~LogQuery
FUNC 2bfe8 3e 0 LogQuery::SharedDtor
FUNC 2c026 17 0 LogQuery::SetCachedSize
FUNC 2c03e 10 0 LogQuery::default_instance
FUNC 2c04e 78 0 LogQuery::New
FUNC 2c0c6 58 0 LogQuery::Clear
FUNC 2c11e 4c2 0 LogQuery::MergePartialFromCodedStream
FUNC 2c5e0 20e 0 LogQuery::SerializeWithCachedSizes
FUNC 2c7ee 1b7 0 LogQuery::ByteSizeLong
FUNC 2c9a6 30 0 LogQuery::CheckTypeAndMergeFrom
FUNC 2c9d6 311 0 LogQuery::MergeFrom
FUNC 2cce8 49 0 LogQuery::CopyFrom
FUNC 2cd32 f 0 LogQuery::IsInitialized
FUNC 2cd42 32 0 LogQuery::Swap
FUNC 2cd74 10a 0 LogQuery::InternalSwap
FUNC 2ce7e 73 0 LogQuery::GetTypeName
FUNC 2cef2 b3 0 HisLogResponse::HisLogResponse
FUNC 2cfa6 24e 0 HisLogResponse::HisLogResponse
FUNC 2d1f4 7b 0 HisLogResponse::SharedCtor
FUNC 2d270 a7 0 HisLogResponse::~HisLogResponse
FUNC 2d318 26 0 HisLogResponse::~HisLogResponse
FUNC 2d33e 56 0 HisLogResponse::SharedDtor
FUNC 2d394 17 0 HisLogResponse::SetCachedSize
FUNC 2d3ac 10 0 HisLogResponse::default_instance
FUNC 2d3bc 78 0 HisLogResponse::New
FUNC 2d434 70 0 HisLogResponse::Clear
FUNC 2d4a4 51a 0 HisLogResponse::MergePartialFromCodedStream
FUNC 2d9be 256 0 HisLogResponse::SerializeWithCachedSizes
FUNC 2dc14 1bf 0 HisLogResponse::ByteSizeLong
FUNC 2ddd4 30 0 HisLogResponse::CheckTypeAndMergeFrom
FUNC 2de04 31b 0 HisLogResponse::MergeFrom
FUNC 2e120 49 0 HisLogResponse::CopyFrom
FUNC 2e16a f 0 HisLogResponse::IsInitialized
FUNC 2e17a 32 0 HisLogResponse::Swap
FUNC 2e1ac 11a 0 HisLogResponse::InternalSwap
FUNC 2e2c6 73 0 HisLogResponse::GetTypeName
FUNC 2e33a b3 0 NetcardInfoRequest::NetcardInfoRequest
FUNC 2e3ee 184 0 NetcardInfoRequest::NetcardInfoRequest
FUNC 2e572 31 0 NetcardInfoRequest::SharedCtor
FUNC 2e5a4 a7 0 NetcardInfoRequest::~NetcardInfoRequest
FUNC 2e64c 26 0 NetcardInfoRequest::~NetcardInfoRequest
FUNC 2e672 26 0 NetcardInfoRequest::SharedDtor
FUNC 2e698 17 0 NetcardInfoRequest::SetCachedSize
FUNC 2e6b0 10 0 NetcardInfoRequest::default_instance
FUNC 2e6c0 78 0 NetcardInfoRequest::New
FUNC 2e738 26 0 NetcardInfoRequest::Clear
FUNC 2e75e 2e7 0 NetcardInfoRequest::MergePartialFromCodedStream
FUNC 2ea46 9a 0 NetcardInfoRequest::SerializeWithCachedSizes
FUNC 2eae0 71 0 NetcardInfoRequest::ByteSizeLong
FUNC 2eb52 30 0 NetcardInfoRequest::CheckTypeAndMergeFrom
FUNC 2eb82 1a2 0 NetcardInfoRequest::MergeFrom
FUNC 2ed24 49 0 NetcardInfoRequest::CopyFrom
FUNC 2ed6e f 0 NetcardInfoRequest::IsInitialized
FUNC 2ed7e 32 0 NetcardInfoRequest::Swap
FUNC 2edb0 58 0 NetcardInfoRequest::InternalSwap
FUNC 2ee08 73 0 NetcardInfoRequest::GetTypeName
FUNC 2ee7c b3 0 NetcardInfo::NetcardInfo
FUNC 2ef30 286 0 NetcardInfo::NetcardInfo
FUNC 2f1b6 79 0 NetcardInfo::SharedCtor
FUNC 2f230 a7 0 NetcardInfo::~NetcardInfo
FUNC 2f2d8 26 0 NetcardInfo::~NetcardInfo
FUNC 2f2fe 6e 0 NetcardInfo::SharedDtor
FUNC 2f36c 17 0 NetcardInfo::SetCachedSize
FUNC 2f384 10 0 NetcardInfo::default_instance
FUNC 2f394 78 0 NetcardInfo::New
FUNC 2f40c 6e 0 NetcardInfo::Clear
FUNC 2f47a 4c7 0 NetcardInfo::MergePartialFromCodedStream
FUNC 2f942 20b 0 NetcardInfo::SerializeWithCachedSizes
FUNC 2fb4e 12b 0 NetcardInfo::ByteSizeLong
FUNC 2fc7a 30 0 NetcardInfo::CheckTypeAndMergeFrom
FUNC 2fcaa 277 0 NetcardInfo::MergeFrom
FUNC 2ff22 49 0 NetcardInfo::CopyFrom
FUNC 2ff6c f 0 NetcardInfo::IsInitialized
FUNC 2ff7c 32 0 NetcardInfo::Swap
FUNC 2ffae d9 0 NetcardInfo::InternalSwap
FUNC 30088 73 0 NetcardInfo::GetTypeName
FUNC 300fc e0 0 NetcardInfoResponse::NetcardInfoResponse
FUNC 301dc 16a 0 NetcardInfoResponse::NetcardInfoResponse
FUNC 30346 15 0 NetcardInfoResponse::SharedCtor
FUNC 3035c d6 0 NetcardInfoResponse::~NetcardInfoResponse
FUNC 30432 26 0 NetcardInfoResponse::~NetcardInfoResponse
FUNC 30458 a 0 NetcardInfoResponse::SharedDtor
FUNC 30462 17 0 NetcardInfoResponse::SetCachedSize
FUNC 3047a 10 0 NetcardInfoResponse::default_instance
FUNC 3048a 78 0 NetcardInfoResponse::New
FUNC 30502 1e 0 NetcardInfoResponse::Clear
FUNC 30520 284 0 NetcardInfoResponse::MergePartialFromCodedStream
FUNC 307a4 64 0 NetcardInfoResponse::SerializeWithCachedSizes
FUNC 30808 80 0 NetcardInfoResponse::ByteSizeLong
FUNC 30888 30 0 NetcardInfoResponse::CheckTypeAndMergeFrom
FUNC 308b8 17c 0 NetcardInfoResponse::MergeFrom
FUNC 30a34 49 0 NetcardInfoResponse::CopyFrom
FUNC 30a7e f 0 NetcardInfoResponse::IsInitialized
FUNC 30a8e 32 0 NetcardInfoResponse::Swap
FUNC 30ac0 48 0 NetcardInfoResponse::InternalSwap
FUNC 30b08 73 0 NetcardInfoResponse::GetTypeName
FUNC 30b7c b3 0 ProcessData::ProcessData
FUNC 30c30 24e 0 ProcessData::ProcessData
FUNC 30e7e 7b 0 ProcessData::SharedCtor
FUNC 30efa a7 0 ProcessData::~ProcessData
FUNC 30fa2 26 0 ProcessData::~ProcessData
FUNC 30fc8 56 0 ProcessData::SharedDtor
FUNC 3101e 17 0 ProcessData::SetCachedSize
FUNC 31036 10 0 ProcessData::default_instance
FUNC 31046 78 0 ProcessData::New
FUNC 310be 70 0 ProcessData::Clear
FUNC 3112e 5c7 0 ProcessData::MergePartialFromCodedStream
FUNC 316f6 2fb 0 ProcessData::SerializeWithCachedSizes
FUNC 319f2 237 0 ProcessData::ByteSizeLong
FUNC 31c2a 30 0 ProcessData::CheckTypeAndMergeFrom
FUNC 31c5a 3d0 0 ProcessData::MergeFrom
FUNC 3202a 49 0 ProcessData::CopyFrom
FUNC 32074 f 0 ProcessData::IsInitialized
FUNC 32084 32 0 ProcessData::Swap
FUNC 320b6 16b 0 ProcessData::InternalSwap
FUNC 32222 73 0 ProcessData::GetTypeName
FUNC 32296 b3 0 ProcessCtrl::ProcessCtrl
FUNC 3234a 190 0 ProcessCtrl::ProcessCtrl
FUNC 324da 3c 0 ProcessCtrl::SharedCtor
FUNC 32516 a7 0 ProcessCtrl::~ProcessCtrl
FUNC 325be 26 0 ProcessCtrl::~ProcessCtrl
FUNC 325e4 26 0 ProcessCtrl::SharedDtor
FUNC 3260a 17 0 ProcessCtrl::SetCachedSize
FUNC 32622 10 0 ProcessCtrl::default_instance
FUNC 32632 78 0 ProcessCtrl::New
FUNC 326aa 31 0 ProcessCtrl::Clear
FUNC 326dc 326 0 ProcessCtrl::MergePartialFromCodedStream
FUNC 32a02 cb 0 ProcessCtrl::SerializeWithCachedSizes
FUNC 32ace a5 0 ProcessCtrl::ByteSizeLong
FUNC 32b74 30 0 ProcessCtrl::CheckTypeAndMergeFrom
FUNC 32ba4 1dc 0 ProcessCtrl::MergeFrom
FUNC 32d80 49 0 ProcessCtrl::CopyFrom
FUNC 32dca f 0 ProcessCtrl::IsInitialized
FUNC 32dda 32 0 ProcessCtrl::Swap
FUNC 32e0c 73 0 ProcessCtrl::InternalSwap
FUNC 32e80 73 0 ProcessCtrl::GetTypeName
FUNC 32ef4 b3 0 RealPointValue::RealPointValue
FUNC 32fa8 2a4 0 RealPointValue::RealPointValue
FUNC 3324c 93 0 RealPointValue::SharedCtor
FUNC 332e0 a7 0 RealPointValue::~RealPointValue
FUNC 33388 26 0 RealPointValue::~RealPointValue
FUNC 333ae 6e 0 RealPointValue::SharedDtor
FUNC 3341c 17 0 RealPointValue::SetCachedSize
FUNC 33434 10 0 RealPointValue::default_instance
FUNC 33444 78 0 RealPointValue::New
FUNC 334bc 88 0 RealPointValue::Clear
FUNC 33544 540 0 RealPointValue::MergePartialFromCodedStream
FUNC 33a84 26d 0 RealPointValue::SerializeWithCachedSizes
FUNC 33cf2 193 0 RealPointValue::ByteSizeLong
FUNC 33e86 30 0 RealPointValue::CheckTypeAndMergeFrom
FUNC 33eb6 2eb 0 RealPointValue::MergeFrom
FUNC 341a2 49 0 RealPointValue::CopyFrom
FUNC 341ec f 0 RealPointValue::IsInitialized
FUNC 341fc 32 0 RealPointValue::Swap
FUNC 3422e 10f 0 RealPointValue::InternalSwap
FUNC 3433e 73 0 RealPointValue::GetTypeName
FUNC 343b2 b3 0 HeartBeatMessage::HeartBeatMessage
FUNC 34466 190 0 HeartBeatMessage::HeartBeatMessage
FUNC 345f6 3c 0 HeartBeatMessage::SharedCtor
FUNC 34632 a7 0 HeartBeatMessage::~HeartBeatMessage
FUNC 346da 26 0 HeartBeatMessage::~HeartBeatMessage
FUNC 34700 26 0 HeartBeatMessage::SharedDtor
FUNC 34726 17 0 HeartBeatMessage::SetCachedSize
FUNC 3473e 10 0 HeartBeatMessage::default_instance
FUNC 3474e 78 0 HeartBeatMessage::New
FUNC 347c6 31 0 HeartBeatMessage::Clear
FUNC 347f8 326 0 HeartBeatMessage::MergePartialFromCodedStream
FUNC 34b1e cb 0 HeartBeatMessage::SerializeWithCachedSizes
FUNC 34bea a5 0 HeartBeatMessage::ByteSizeLong
FUNC 34c90 30 0 HeartBeatMessage::CheckTypeAndMergeFrom
FUNC 34cc0 1dc 0 HeartBeatMessage::MergeFrom
FUNC 34e9c 49 0 HeartBeatMessage::CopyFrom
FUNC 34ee6 f 0 HeartBeatMessage::IsInitialized
FUNC 34ef6 32 0 HeartBeatMessage::Swap
FUNC 34f28 73 0 HeartBeatMessage::InternalSwap
FUNC 34f9c 73 0 HeartBeatMessage::GetTypeName
FUNC 35010 b3 0 CommunicationPair::CommunicationPair
FUNC 350c4 4fe 0 CommunicationPair::CommunicationPair
FUNC 355c2 13b 0 CommunicationPair::SharedCtor
FUNC 356fe a7 0 CommunicationPair::~CommunicationPair
FUNC 357a6 26 0 CommunicationPair::~CommunicationPair
FUNC 357cc 116 0 CommunicationPair::SharedDtor
FUNC 358e2 17 0 CommunicationPair::SetCachedSize
FUNC 358fa 10 0 CommunicationPair::default_instance
FUNC 3590a 78 0 CommunicationPair::New
FUNC 35982 130 0 CommunicationPair::Clear
FUNC 35ab2 97f 0 CommunicationPair::MergePartialFromCodedStream
FUNC 36432 5fb 0 CommunicationPair::SerializeWithCachedSizes
FUNC 36a2e 379 0 CommunicationPair::ByteSizeLong
FUNC 36da8 30 0 CommunicationPair::CheckTypeAndMergeFrom
FUNC 36dd8 516 0 CommunicationPair::MergeFrom
FUNC 372ee 49 0 CommunicationPair::CopyFrom
FUNC 37338 f 0 CommunicationPair::IsInitialized
FUNC 37348 32 0 CommunicationPair::Swap
FUNC 3737a 2de 0 CommunicationPair::InternalSwap
FUNC 37658 73 0 CommunicationPair::GetTypeName
FUNC 376cc b3 0 FlowThreshold::FlowThreshold
FUNC 37780 286 0 FlowThreshold::FlowThreshold
FUNC 37a06 79 0 FlowThreshold::SharedCtor
FUNC 37a80 a7 0 FlowThreshold::~FlowThreshold
FUNC 37b28 26 0 FlowThreshold::~FlowThreshold
FUNC 37b4e 6e 0 FlowThreshold::SharedDtor
FUNC 37bbc 17 0 FlowThreshold::SetCachedSize
FUNC 37bd4 10 0 FlowThreshold::default_instance
FUNC 37be4 78 0 FlowThreshold::New
FUNC 37c5c 6e 0 FlowThreshold::Clear
FUNC 37cca 4c7 0 FlowThreshold::MergePartialFromCodedStream
FUNC 38192 20b 0 FlowThreshold::SerializeWithCachedSizes
FUNC 3839e 12b 0 FlowThreshold::ByteSizeLong
FUNC 384ca 30 0 FlowThreshold::CheckTypeAndMergeFrom
FUNC 384fa 277 0 FlowThreshold::MergeFrom
FUNC 38772 49 0 FlowThreshold::CopyFrom
FUNC 387bc f 0 FlowThreshold::IsInitialized
FUNC 387cc 32 0 FlowThreshold::Swap
FUNC 387fe d9 0 FlowThreshold::InternalSwap
FUNC 388d8 73 0 FlowThreshold::GetTypeName
FUNC 3894c b3 0 RtdbMessage::RtdbMessage
FUNC 38a00 68b 0 RtdbMessage::RtdbMessage
FUNC 3908c 36 0 RtdbMessage::SharedCtor
FUNC 390c2 a7 0 RtdbMessage::~RtdbMessage
FUNC 3916a 26 0 RtdbMessage::~RtdbMessage
FUNC 39190 31a 0 RtdbMessage::SharedDtor
FUNC 394aa 1a 0 RtdbMessage::SetCachedSize
FUNC 394c4 10 0 RtdbMessage::default_instance
FUNC 394d4 78 0 RtdbMessage::New
FUNC 3954c 556 0 RtdbMessage::Clear
FUNC 39aa2 75c 0 RtdbMessage::MergePartialFromCodedStream
FUNC 3a1fe 354 0 RtdbMessage::SerializeWithCachedSizes
FUNC 3a552 3aa 0 RtdbMessage::ByteSizeLong
FUNC 3a8fc 30 0 RtdbMessage::CheckTypeAndMergeFrom
FUNC 3a92c 5ea 0 RtdbMessage::MergeFrom
FUNC 3af16 49 0 RtdbMessage::CopyFrom
FUNC 3af60 f 0 RtdbMessage::IsInitialized
FUNC 3af70 32 0 RtdbMessage::Swap
FUNC 3afa2 245 0 RtdbMessage::InternalSwap
FUNC 3b1e8 73 0 RtdbMessage::GetTypeName
FUNC 3b25b 2e 0 __static_initialization_and_destruction_0
FUNC 3b289 15 0 _GLOBAL__I_RtdbMessage.pb.cpp
FUNC 3b29e 13 0 google::protobuf::Bits::Log2FloorNonZero
FUNC 3b2b1 16 0 google::protobuf::Bits::Log2FloorNonZero64
FUNC 3b2c8 1c 0 google::protobuf::Closure::Closure
FUNC 3b2e4 4c 0 google::protobuf::internal::FunctionClosure0::FunctionClosure0
FUNC 3b330 19 0 google::protobuf::internal::Acquire_Load
FUNC 3b34a 99 0 google::protobuf::io::CodedInputStream::ReadVarint32
FUNC 3b3e4 9f 0 google::protobuf::io::CodedInputStream::ReadVarint64
FUNC 3b484 83 0 google::protobuf::io::CodedInputStream::ReadVarintSizeAsInt
FUNC 3b508 32 0 google::protobuf::io::CodedInputStream::ReadLittleEndian32FromArray
FUNC 3b53a 68 0 google::protobuf::io::CodedInputStream::ReadLittleEndian32
FUNC 3b5a2 2f 0 google::protobuf::io::CodedOutputStream::VarintSize32
FUNC 3b5d2 33 0 google::protobuf::io::CodedOutputStream::VarintSize64
FUNC 3b606 24 0 google::protobuf::io::CodedOutputStream::VarintSize32SignExtended
FUNC 3b62a 23 0 google::protobuf::io::CodedInputStream::Advance
FUNC 3b64e 21 0 google::protobuf::io::CodedInputStream::BufferSize
FUNC 3b670 19 0 google::protobuf::internal::ArenaStringPtr::UnsafeSetDefault
FUNC 3b68a 4e 0 google::protobuf::internal::ArenaStringPtr::SetNoArena
FUNC 3b6d8 11 0 google::protobuf::internal::ArenaStringPtr::GetNoArena
FUNC 3b6ea 39 0 google::protobuf::internal::ArenaStringPtr::MutableNoArena
FUNC 3b724 41 0 google::protobuf::internal::ArenaStringPtr::DestroyNoArena
FUNC 3b766 2e 0 google::protobuf::internal::ArenaStringPtr::ClearToEmptyNoArena
FUNC 3b794 e 0 google::protobuf::internal::ArenaStringPtr::UnsafeRawStringPointer
FUNC 3b7a2 f0 0 google::protobuf::internal::ArenaStringPtr::CreateInstanceNoArena
FUNC 3b892 68 0 google::protobuf::internal::ArenaStringPtr::AssignWithDefault
FUNC 3b8fa 8b 0 google::protobuf::GoogleOnceInit
FUNC 3b985 15 0 google::protobuf::internal::GetEmptyStringAlreadyInited
FUNC 3b99a e 0 google::protobuf::internal::ToCachedSize
FUNC 3b9a8 1c 0 google::protobuf::MessageLite::MessageLite
FUNC 3b9c4 35 0 google::protobuf::MessageLite::~MessageLite
FUNC 3b9fa 26 0 google::protobuf::MessageLite::~MessageLite
FUNC 3ba20 f 0 google::protobuf::MessageLite::GetArena
FUNC 3ba30 25 0 google::protobuf::MessageLite::GetMaybeArenaPointer
FUNC 3ba56 a 0 google::protobuf::internal::AuxillaryParseTableField::AuxillaryParseTableField
FUNC 3ba60 25 0 google::protobuf::internal::InternalMetadataWithArenaLite::InternalMetadataWithArenaLite
FUNC 3ba86 70 0 google::protobuf::internal::InternalMetadataWithArenaLite::DoMergeFrom
FUNC 3baf6 b 0 google::protobuf::internal::InternalMetadataWithArenaLite::default_instance
FUNC 3bb02 a 0 google::protobuf::internal::RepeatedPtrFieldBase::~RepeatedPtrFieldBase
FUNC 3bb0c 11 0 google::protobuf::internal::RepeatedPtrFieldBase::GetArenaNoVirtual
FUNC 3bb1e 37 0 google::protobuf::internal::RepeatedPtrFieldBase::RepeatedPtrFieldBase
FUNC 3bb56 11 0 google::protobuf::internal::RepeatedPtrFieldBase::size
FUNC 3bb68 f1 0 google::protobuf::internal::RepeatedPtrFieldBase::MergeFromInternal
FUNC 3bc5a 1c3 0 google::protobuf::internal::RepeatedPtrFieldBase::InternalSwap
FUNC 3be1d d 0 RawMessage::internal_default_instance
FUNC 3be2a 2a 0 RawMessage::New
FUNC 3be54 11 0 RawMessage::GetCachedSize
FUNC 3be65 d 0 AlarmMessage::internal_default_instance
FUNC 3be72 2a 0 AlarmMessage::New
FUNC 3be9c 11 0 AlarmMessage::GetCachedSize
FUNC 3bead d 0 DebugRequest::internal_default_instance
FUNC 3beba 2a 0 DebugRequest::New
FUNC 3bee4 11 0 DebugRequest::GetCachedSize
FUNC 3bef5 d 0 SOEMessage::internal_default_instance
FUNC 3bf02 2a 0 SOEMessage::New
FUNC 3bf2c 11 0 SOEMessage::GetCachedSize
FUNC 3bf3d d 0 ControlRequet::internal_default_instance
FUNC 3bf4a 2a 0 ControlRequet::New
FUNC 3bf74 11 0 ControlRequet::GetCachedSize
FUNC 3bf85 d 0 LogRequest::internal_default_instance
FUNC 3bf92 2a 0 LogRequest::New
FUNC 3bfbc 11 0 LogRequest::GetCachedSize
FUNC 3bfcd d 0 RealLogResponse::internal_default_instance
FUNC 3bfda 2a 0 RealLogResponse::New
FUNC 3c004 11 0 RealLogResponse::GetCachedSize
FUNC 3c015 d 0 LogQuery::internal_default_instance
FUNC 3c022 2a 0 LogQuery::New
FUNC 3c04c 11 0 LogQuery::GetCachedSize
FUNC 3c05d d 0 HisLogResponse::internal_default_instance
FUNC 3c06a 2a 0 HisLogResponse::New
FUNC 3c094 11 0 HisLogResponse::GetCachedSize
FUNC 3c0a5 d 0 NetcardInfoRequest::internal_default_instance
FUNC 3c0b2 2a 0 NetcardInfoRequest::New
FUNC 3c0dc 11 0 NetcardInfoRequest::GetCachedSize
FUNC 3c0ed d 0 NetcardInfo::internal_default_instance
FUNC 3c0fa 2a 0 NetcardInfo::New
FUNC 3c124 11 0 NetcardInfo::GetCachedSize
FUNC 3c135 d 0 NetcardInfoResponse::internal_default_instance
FUNC 3c142 2a 0 NetcardInfoResponse::New
FUNC 3c16c 11 0 NetcardInfoResponse::GetCachedSize
FUNC 3c17d d 0 ProcessData::internal_default_instance
FUNC 3c18a 2a 0 ProcessData::New
FUNC 3c1b4 11 0 ProcessData::GetCachedSize
FUNC 3c1c5 d 0 ProcessCtrl::internal_default_instance
FUNC 3c1d2 2a 0 ProcessCtrl::New
FUNC 3c1fc 11 0 ProcessCtrl::GetCachedSize
FUNC 3c20d d 0 RealPointValue::internal_default_instance
FUNC 3c21a 2a 0 RealPointValue::New
FUNC 3c244 11 0 RealPointValue::GetCachedSize
FUNC 3c255 d 0 HeartBeatMessage::internal_default_instance
FUNC 3c262 2a 0 HeartBeatMessage::New
FUNC 3c28c 11 0 HeartBeatMessage::GetCachedSize
FUNC 3c29d d 0 CommunicationPair::internal_default_instance
FUNC 3c2aa 2a 0 CommunicationPair::New
FUNC 3c2d4 11 0 CommunicationPair::GetCachedSize
FUNC 3c2e5 d 0 FlowThreshold::internal_default_instance
FUNC 3c2f2 2a 0 FlowThreshold::New
FUNC 3c31c 11 0 FlowThreshold::GetCachedSize
FUNC 3c32d d 0 RtdbMessage::internal_default_instance
FUNC 3c33a 2a 0 RtdbMessage::New
FUNC 3c364 14 0 RtdbMessage::GetCachedSize
FUNC 3c378 f 0 RtdbMessage::GetArenaNoVirtual
FUNC 3c388 1e 0 RawMessage::data
FUNC 3c3a6 26 0 RawMessage::mutable_data
FUNC 3c3cc 1e 0 RawMessage::filename
FUNC 3c3ea 26 0 RawMessage::mutable_filename
FUNC 3c410 11 0 RawMessage::startoffset
FUNC 3c422 17 0 RawMessage::set_startoffset
FUNC 3c43a 11 0 RawMessage::messagenumber
FUNC 3c44c 17 0 RawMessage::set_messagenumber
FUNC 3c464 1e 0 AlarmMessage::type
FUNC 3c482 26 0 AlarmMessage::mutable_type
FUNC 3c4a8 1e 0 AlarmMessage::ethname
FUNC 3c4c6 26 0 AlarmMessage::mutable_ethname
FUNC 3c4ec 1e 0 AlarmMessage::mac
FUNC 3c50a 26 0 AlarmMessage::mutable_mac
FUNC 3c530 1e 0 AlarmMessage::ip
FUNC 3c54e 26 0 AlarmMessage::mutable_ip
FUNC 3c574 11 0 AlarmMessage::time
FUNC 3c586 17 0 AlarmMessage::set_time
FUNC 3c59e 11 0 AlarmMessage::port
FUNC 3c5b0 17 0 AlarmMessage::set_port
FUNC 3c5c8 11 0 AlarmMessage::alarmid
FUNC 3c5da 17 0 AlarmMessage::set_alarmid
FUNC 3c5f2 11 0 AlarmMessage::alarmstatus
FUNC 3c604 17 0 AlarmMessage::set_alarmstatus
FUNC 3c61c 1e 0 DebugRequest::address
FUNC 3c63a 26 0 DebugRequest::mutable_address
FUNC 3c660 11 0 DebugRequest::time
FUNC 3c672 17 0 DebugRequest::set_time
FUNC 3c68a 11 0 DebugRequest::quality
FUNC 3c69c 17 0 DebugRequest::set_quality
FUNC 3c6b4 1e 0 SOEMessage::address
FUNC 3c6d2 26 0 SOEMessage::mutable_address
FUNC 3c6f8 11 0 SOEMessage::time
FUNC 3c70a 17 0 SOEMessage::set_time
FUNC 3c722 11 0 SOEMessage::quality
FUNC 3c734 17 0 SOEMessage::set_quality
FUNC 3c74c 1e 0 ControlRequet::address
FUNC 3c76a 26 0 ControlRequet::mutable_address
FUNC 3c790 1e 0 ControlRequet::errorinfo
FUNC 3c7ae 26 0 ControlRequet::mutable_errorinfo
FUNC 3c7d4 12 0 ControlRequet::status
FUNC 3c7e6 1a 0 ControlRequet::set_status
FUNC 3c800 1e 0 LogRequest::channelname
FUNC 3c81e 26 0 LogRequest::mutable_channelname
FUNC 3c844 11 0 LogRequest::command
FUNC 3c856 17 0 LogRequest::set_command
FUNC 3c86e 11 0 RealLogResponse::type
FUNC 3c880 17 0 RealLogResponse::set_type
FUNC 3c898 11 0 RealLogResponse::level
FUNC 3c8aa 17 0 RealLogResponse::set_level
FUNC 3c8c2 1e 0 RealLogResponse::channelname
FUNC 3c8e0 26 0 RealLogResponse::mutable_channelname
FUNC 3c906 1e 0 RealLogResponse::devname
FUNC 3c924 26 0 RealLogResponse::mutable_devname
FUNC 3c94a 12 0 RealLogResponse::logtime
FUNC 3c95c 1a 0 RealLogResponse::set_logtime
FUNC 3c976 1e 0 RealLogResponse::logdetail
FUNC 3c994 26 0 RealLogResponse::mutable_logdetail
FUNC 3c9ba 11 0 LogQuery::level
FUNC 3c9cc 17 0 LogQuery::set_level
FUNC 3c9e4 11 0 LogQuery::type
FUNC 3c9f6 17 0 LogQuery::set_type
FUNC 3ca0e 12 0 LogQuery::starttime
FUNC 3ca20 1a 0 LogQuery::set_starttime
FUNC 3ca3a 12 0 LogQuery::endtime
FUNC 3ca4c 1a 0 LogQuery::set_endtime
FUNC 3ca66 1e 0 LogQuery::channelname
FUNC 3ca84 26 0 LogQuery::mutable_channelname
FUNC 3caaa 1e 0 LogQuery::devname
FUNC 3cac8 26 0 LogQuery::mutable_devname
FUNC 3caee 11 0 LogQuery::stopquery
FUNC 3cb00 17 0 LogQuery::set_stopquery
FUNC 3cb18 11 0 HisLogResponse::type
FUNC 3cb2a 17 0 HisLogResponse::set_type
FUNC 3cb42 11 0 HisLogResponse::level
FUNC 3cb54 17 0 HisLogResponse::set_level
FUNC 3cb6c 1e 0 HisLogResponse::channelname
FUNC 3cb8a 26 0 HisLogResponse::mutable_channelname
FUNC 3cbb0 1e 0 HisLogResponse::devname
FUNC 3cbce 26 0 HisLogResponse::mutable_devname
FUNC 3cbf4 12 0 HisLogResponse::logtime
FUNC 3cc06 1a 0 HisLogResponse::set_logtime
FUNC 3cc20 1e 0 HisLogResponse::logdetail
FUNC 3cc3e 26 0 HisLogResponse::mutable_logdetail
FUNC 3cc64 11 0 HisLogResponse::isend
FUNC 3cc76 17 0 HisLogResponse::set_isend
FUNC 3cc8e 1e 0 NetcardInfoRequest::value
FUNC 3ccac 26 0 NetcardInfoRequest::mutable_value
FUNC 3ccd2 1e 0 NetcardInfo::name
FUNC 3ccf0 26 0 NetcardInfo::mutable_name
FUNC 3cd16 1e 0 NetcardInfo::ip
FUNC 3cd34 26 0 NetcardInfo::mutable_ip
FUNC 3cd5a 1e 0 NetcardInfo::mac
FUNC 3cd78 26 0 NetcardInfo::mutable_mac
FUNC 3cd9e 1e 0 NetcardInfo::networktype
FUNC 3cdbc 26 0 NetcardInfo::mutable_networktype
FUNC 3cde2 1e 0 NetcardInfoResponse::netcardinfo_size
FUNC 3ce00 26 0 NetcardInfoResponse::netcardinfo
FUNC 3ce26 1e 0 NetcardInfoResponse::add_netcardinfo
FUNC 3ce44 1e 0 ProcessData::process_id
FUNC 3ce62 26 0 ProcessData::mutable_process_id
FUNC 3ce88 1e 0 ProcessData::process_path
FUNC 3cea6 26 0 ProcessData::mutable_process_path
FUNC 3cecc 1e 0 ProcessData::process_name
FUNC 3ceea 26 0 ProcessData::mutable_process_name
FUNC 3cf10 11 0 ProcessData::start_time
FUNC 3cf22 17 0 ProcessData::set_start_time
FUNC 3cf3a 11 0 ProcessData::process_pid
FUNC 3cf4c 17 0 ProcessData::set_process_pid
FUNC 3cf64 11 0 ProcessData::process_status
FUNC 3cf76 17 0 ProcessData::set_process_status
FUNC 3cf8e 11 0 ProcessData::heart_beat_time
FUNC 3cfa0 17 0 ProcessData::set_heart_beat_time
FUNC 3cfb8 19 0 ProcessData::cpu_use
FUNC 3cfd2 19 0 ProcessData::set_cpu_use
FUNC 3cfec 19 0 ProcessData::ram_use
FUNC 3d006 19 0 ProcessData::set_ram_use
FUNC 3d020 11 0 ProcessData::restart_num
FUNC 3d032 17 0 ProcessData::set_restart_num
FUNC 3d04a 1e 0 ProcessCtrl::process_id
FUNC 3d068 26 0 ProcessCtrl::mutable_process_id
FUNC 3d08e 11 0 ProcessCtrl::command
FUNC 3d0a0 17 0 ProcessCtrl::set_command
FUNC 3d0b8 1e 0 RealPointValue::channelname
FUNC 3d0d6 26 0 RealPointValue::mutable_channelname
FUNC 3d0fc 1e 0 RealPointValue::devicename
FUNC 3d11a 26 0 RealPointValue::mutable_devicename
FUNC 3d140 1e 0 RealPointValue::pointvalue
FUNC 3d15e 26 0 RealPointValue::mutable_pointvalue
FUNC 3d184 1e 0 RealPointValue::pointaddr
FUNC 3d1a2 26 0 RealPointValue::mutable_pointaddr
FUNC 3d1c8 11 0 RealPointValue::valuetype
FUNC 3d1da 17 0 RealPointValue::set_valuetype
FUNC 3d1f2 11 0 RealPointValue::channeltype
FUNC 3d204 17 0 RealPointValue::set_channeltype
FUNC 3d21c 1e 0 HeartBeatMessage::channelname
FUNC 3d23a 26 0 HeartBeatMessage::mutable_channelname
FUNC 3d260 11 0 HeartBeatMessage::time
FUNC 3d272 17 0 HeartBeatMessage::set_time
FUNC 3d28a 1e 0 CommunicationPair::type
FUNC 3d2a8 26 0 CommunicationPair::mutable_type
FUNC 3d2ce 1e 0 CommunicationPair::source_ip
FUNC 3d2ec 26 0 CommunicationPair::mutable_source_ip
FUNC 3d312 1e 0 CommunicationPair::source_mac
FUNC 3d330 26 0 CommunicationPair::mutable_source_mac
FUNC 3d356 11 0 CommunicationPair::soure_port
FUNC 3d368 17 0 CommunicationPair::set_soure_port
FUNC 3d380 1e 0 CommunicationPair::dest_ip
FUNC 3d39e 26 0 CommunicationPair::mutable_dest_ip
FUNC 3d3c4 1e 0 CommunicationPair::dest_mac
FUNC 3d3e2 26 0 CommunicationPair::mutable_dest_mac
FUNC 3d408 11 0 CommunicationPair::dest_port
FUNC 3d41a 17 0 CommunicationPair::set_dest_port
FUNC 3d432 11 0 CommunicationPair::netstatus
FUNC 3d444 17 0 CommunicationPair::set_netstatus
FUNC 3d45c 1e 0 CommunicationPair::lasttime
FUNC 3d47a 26 0 CommunicationPair::mutable_lasttime
FUNC 3d4a0 1e 0 CommunicationPair::eth_name
FUNC 3d4be 26 0 CommunicationPair::mutable_eth_name
FUNC 3d4e4 1e 0 CommunicationPair::conn_start_time
FUNC 3d502 26 0 CommunicationPair::mutable_conn_start_time
FUNC 3d528 1e 0 CommunicationPair::conn_end_time
FUNC 3d546 26 0 CommunicationPair::mutable_conn_end_time
FUNC 3d56c 1e 0 CommunicationPair::packagename
FUNC 3d58a 26 0 CommunicationPair::mutable_packagename
FUNC 3d5b0 1e 0 CommunicationPair::packageline
FUNC 3d5ce 26 0 CommunicationPair::mutable_packageline
FUNC 3d5f4 1e 0 FlowThreshold::messagecount
FUNC 3d612 26 0 FlowThreshold::mutable_messagecount
FUNC 3d638 1e 0 FlowThreshold::flowmax
FUNC 3d656 26 0 FlowThreshold::mutable_flowmax
FUNC 3d67c 1e 0 FlowThreshold::noflowtime
FUNC 3d69a 26 0 FlowThreshold::mutable_noflowtime
FUNC 3d6c0 1e 0 FlowThreshold::linkmax
FUNC 3d6de 26 0 FlowThreshold::mutable_linkmax
FUNC 3d704 11 0 RtdbMessage::fromobject
FUNC 3d716 17 0 RtdbMessage::set_fromobject
FUNC 3d72e 11 0 RtdbMessage::toobject
FUNC 3d740 17 0 RtdbMessage::set_toobject
FUNC 3d758 14 0 RtdbMessage::fromobjecttype
FUNC 3d76c 1a 0 RtdbMessage::set_fromobjecttype
FUNC 3d786 14 0 RtdbMessage::toobjecttype
FUNC 3d79a 1a 0 RtdbMessage::set_toobjecttype
FUNC 3d7b4 14 0 RtdbMessage::messagetype
FUNC 3d7c8 1a 0 RtdbMessage::set_messagetype
FUNC 3d7e2 14 0 RtdbMessage::transactionid
FUNC 3d7f6 1a 0 RtdbMessage::set_transactionid
FUNC 3d810 32 0 RtdbMessage::has_logrequest
FUNC 3d842 2a 0 RtdbMessage::logrequest
FUNC 3d86c 72 0 RtdbMessage::mutable_logrequest
FUNC 3d8de 32 0 RtdbMessage::has_reallogresponse
FUNC 3d910 2a 0 RtdbMessage::reallogresponse
FUNC 3d93a 72 0 RtdbMessage::mutable_reallogresponse
FUNC 3d9ac 32 0 RtdbMessage::has_hislogquery
FUNC 3d9de 2a 0 RtdbMessage::hislogquery
FUNC 3da08 72 0 RtdbMessage::mutable_hislogquery
FUNC 3da7a 32 0 RtdbMessage::has_hislogresponse
FUNC 3daac 2a 0 RtdbMessage::hislogresponse
FUNC 3dad6 72 0 RtdbMessage::mutable_hislogresponse
FUNC 3db48 32 0 RtdbMessage::has_netcardinforequest
FUNC 3db7a 2a 0 RtdbMessage::netcardinforequest
FUNC 3dba4 72 0 RtdbMessage::mutable_netcardinforequest
FUNC 3dc16 32 0 RtdbMessage::has_netcardinforesponse
FUNC 3dc48 2a 0 RtdbMessage::netcardinforesponse
FUNC 3dc72 72 0 RtdbMessage::mutable_netcardinforesponse
FUNC 3dce4 32 0 RtdbMessage::has_processdata
FUNC 3dd16 2a 0 RtdbMessage::processdata
FUNC 3dd40 72 0 RtdbMessage::mutable_processdata
FUNC 3ddb2 32 0 RtdbMessage::has_processctrl
FUNC 3dde4 2a 0 RtdbMessage::processctrl
FUNC 3de0e 72 0 RtdbMessage::mutable_processctrl
FUNC 3de80 32 0 RtdbMessage::has_realpointvalue
FUNC 3deb2 2a 0 RtdbMessage::realpointvalue
FUNC 3dedc 72 0 RtdbMessage::mutable_realpointvalue
FUNC 3df4e 32 0 RtdbMessage::has_heartbeatmessage
FUNC 3df80 2a 0 RtdbMessage::heartbeatmessage
FUNC 3dfaa 72 0 RtdbMessage::mutable_heartbeatmessage
FUNC 3e01c 32 0 RtdbMessage::has_alarmmessage
FUNC 3e04e 2a 0 RtdbMessage::alarmmessage
FUNC 3e078 72 0 RtdbMessage::mutable_alarmmessage
FUNC 3e0ea 32 0 RtdbMessage::has_communicationpair
FUNC 3e11c 2a 0 RtdbMessage::communicationpair
FUNC 3e146 72 0 RtdbMessage::mutable_communicationpair
FUNC 3e1b8 32 0 RtdbMessage::has_flowthreshold
FUNC 3e1ea 2a 0 RtdbMessage::flowthreshold
FUNC 3e214 72 0 RtdbMessage::mutable_flowthreshold
FUNC 3e286 f 0 google::protobuf::internal::WireFormatLite::GetTagWireType
FUNC 3e296 f 0 google::protobuf::internal::WireFormatLite::GetTagFieldNumber
FUNC 3e2a6 1a 0 google::protobuf::internal::WireFormatLite::DecodeFloat
FUNC 3e2c0 25 0 google::protobuf::internal::WireFormatLite::ReadString
FUNC 3e2e6 43 0 google::protobuf::internal::WireFormatLite::ReadPrimitive<int, (google::protobuf::internal::WireFormatLite::FieldType)5u>
FUNC 3e32a 25 0 google::protobuf::internal::WireFormatLite::ReadPrimitive<long unsigned int, (google::protobuf::internal::WireFormatLite::FieldType)4u>
FUNC 3e350 4a 0 google::protobuf::internal::WireFormatLite::ReadPrimitive<float, (google::protobuf::internal::WireFormatLite::FieldType)2u>
FUNC 3e39a 48 0 google::protobuf::internal::WireFormatLite::ReadPrimitive<bool, (google::protobuf::internal::WireFormatLite::FieldType)8u>
FUNC 3e3e2 43 0 google::protobuf::internal::WireFormatLite::ReadPrimitive<int, (google::protobuf::internal::WireFormatLite::FieldType)14u>
FUNC 3e426 17 0 google::protobuf::internal::WireFormatLite::Int32Size
FUNC 3e43e 1a 0 google::protobuf::internal::WireFormatLite::UInt64Size
FUNC 3e458 17 0 google::protobuf::internal::WireFormatLite::EnumSize
FUNC 3e470 22 0 google::protobuf::internal::WireFormatLite::StringSize
FUNC 3e492 1d 0 google::protobuf::internal::WireFormatLite::LengthDelimitedSize
FUNC 3e4b0 1a 0 google::protobuf::internal::InternalMetadataWithArenaLite::~InternalMetadataWithArenaLite
FUNC 3e4ca 32 0 std::swap<std::string*>
FUNC 3e4fc e 0 google::protobuf::internal::ExplicitlyConstructed<std::basic_string<char, std::char_traits<char>, std::allocator<char> > >::get
FUNC 3e50a 1a 0 google::protobuf::internal::InternalMetadataWithArenaBase<std::basic_string<char, std::char_traits<char>, std::allocator<char> >, google::protobuf::internal::InternalMetadataWithArenaLite>::Container::~Container
FUNC 3e524 cf 0 google::protobuf::internal::InternalMetadataWithArenaBase<std::basic_string<char, std::char_traits<char>, std::allocator<char> >, google::protobuf::internal::InternalMetadataWithArenaLite>::~InternalMetadataWithArenaBase
FUNC 3e5f4 19 0 google::protobuf::internal::InternalMetadataWithArenaBase<std::basic_string<char, std::char_traits<char>, std::allocator<char> >, google::protobuf::internal::InternalMetadataWithArenaLite>::InternalMetadataWithArenaBase
FUNC 3e60d 32 0 std::swap<google::protobuf::internal::RepeatedPtrFieldBase::Rep*>
FUNC 3e63f 2c 0 std::swap<int>
FUNC 3e66c 1a 0 google::protobuf::RepeatedPtrField<NetcardInfo>::size
FUNC 3e686 1a 0 google::protobuf::RepeatedPtrField<NetcardInfo>::Clear
FUNC 3e6a0 22 0 google::protobuf::RepeatedPtrField<NetcardInfo>::Get
FUNC 3e6c2 1f 0 google::protobuf::RepeatedPtrField<NetcardInfo>::Add
FUNC 3e6e2 39 0 google::protobuf::internal::ExplicitlyConstructed<RawMessage>::Shutdown
FUNC 3e71c 39 0 google::protobuf::internal::ExplicitlyConstructed<AlarmMessage>::Shutdown
FUNC 3e756 39 0 google::protobuf::internal::ExplicitlyConstructed<DebugRequest>::Shutdown
FUNC 3e790 39 0 google::protobuf::internal::ExplicitlyConstructed<SOEMessage>::Shutdown
FUNC 3e7ca 39 0 google::protobuf::internal::ExplicitlyConstructed<ControlRequet>::Shutdown
FUNC 3e804 39 0 google::protobuf::internal::ExplicitlyConstructed<LogRequest>::Shutdown
FUNC 3e83e 39 0 google::protobuf::internal::ExplicitlyConstructed<RealLogResponse>::Shutdown
FUNC 3e878 39 0 google::protobuf::internal::ExplicitlyConstructed<LogQuery>::Shutdown
FUNC 3e8b2 39 0 google::protobuf::internal::ExplicitlyConstructed<HisLogResponse>::Shutdown
FUNC 3e8ec 39 0 google::protobuf::internal::ExplicitlyConstructed<NetcardInfoRequest>::Shutdown
FUNC 3e926 39 0 google::protobuf::internal::ExplicitlyConstructed<NetcardInfo>::Shutdown
FUNC 3e960 39 0 google::protobuf::internal::ExplicitlyConstructed<NetcardInfoResponse>::Shutdown
FUNC 3e99a 39 0 google::protobuf::internal::ExplicitlyConstructed<ProcessData>::Shutdown
FUNC 3e9d4 39 0 google::protobuf::internal::ExplicitlyConstructed<ProcessCtrl>::Shutdown
FUNC 3ea0e 39 0 google::protobuf::internal::ExplicitlyConstructed<RealPointValue>::Shutdown
FUNC 3ea48 39 0 google::protobuf::internal::ExplicitlyConstructed<HeartBeatMessage>::Shutdown
FUNC 3ea82 39 0 google::protobuf::internal::ExplicitlyConstructed<CommunicationPair>::Shutdown
FUNC 3eabc 39 0 google::protobuf::internal::ExplicitlyConstructed<FlowThreshold>::Shutdown
FUNC 3eaf6 3f 0 google::protobuf::internal::ExplicitlyConstructed<RtdbMessage>::Shutdown
FUNC 3eb36 70 0 google::protobuf::internal::ExplicitlyConstructed<RawMessage>::DefaultConstruct
FUNC 3eba6 70 0 google::protobuf::internal::ExplicitlyConstructed<AlarmMessage>::DefaultConstruct
FUNC 3ec16 70 0 google::protobuf::internal::ExplicitlyConstructed<DebugRequest>::DefaultConstruct
FUNC 3ec86 70 0 google::protobuf::internal::ExplicitlyConstructed<SOEMessage>::DefaultConstruct
FUNC 3ecf6 70 0 google::protobuf::internal::ExplicitlyConstructed<ControlRequet>::DefaultConstruct
FUNC 3ed66 70 0 google::protobuf::internal::ExplicitlyConstructed<LogRequest>::DefaultConstruct
FUNC 3edd6 70 0 google::protobuf::internal::ExplicitlyConstructed<RealLogResponse>::DefaultConstruct
FUNC 3ee46 70 0 google::protobuf::internal::ExplicitlyConstructed<LogQuery>::DefaultConstruct
FUNC 3eeb6 70 0 google::protobuf::internal::ExplicitlyConstructed<HisLogResponse>::DefaultConstruct
FUNC 3ef26 70 0 google::protobuf::internal::ExplicitlyConstructed<NetcardInfoRequest>::DefaultConstruct
FUNC 3ef96 70 0 google::protobuf::internal::ExplicitlyConstructed<NetcardInfo>::DefaultConstruct
FUNC 3f006 70 0 google::protobuf::internal::ExplicitlyConstructed<NetcardInfoResponse>::DefaultConstruct
FUNC 3f076 70 0 google::protobuf::internal::ExplicitlyConstructed<ProcessData>::DefaultConstruct
FUNC 3f0e6 70 0 google::protobuf::internal::ExplicitlyConstructed<ProcessCtrl>::DefaultConstruct
FUNC 3f156 70 0 google::protobuf::internal::ExplicitlyConstructed<RealPointValue>::DefaultConstruct
FUNC 3f1c6 70 0 google::protobuf::internal::ExplicitlyConstructed<HeartBeatMessage>::DefaultConstruct
FUNC 3f236 70 0 google::protobuf::internal::ExplicitlyConstructed<CommunicationPair>::DefaultConstruct
FUNC 3f2a6 70 0 google::protobuf::internal::ExplicitlyConstructed<FlowThreshold>::DefaultConstruct
FUNC 3f316 73 0 google::protobuf::internal::ExplicitlyConstructed<RtdbMessage>::DefaultConstruct
FUNC 3f38a e 0 google::protobuf::internal::ExplicitlyConstructed<RtdbMessage>::get_mutable
FUNC 3f398 43 0 google::protobuf::Arena::Own<RawMessage>
FUNC 3f3db 6a 0 google::protobuf::internal::down_cast<const RawMessage*, const google::protobuf::MessageLite>
FUNC 3f446 43 0 google::protobuf::Arena::Own<AlarmMessage>
FUNC 3f489 6a 0 google::protobuf::internal::down_cast<const AlarmMessage*, const google::protobuf::MessageLite>
FUNC 3f4f4 43 0 google::protobuf::Arena::Own<DebugRequest>
FUNC 3f537 6a 0 google::protobuf::internal::down_cast<const DebugRequest*, const google::protobuf::MessageLite>
FUNC 3f5a2 43 0 google::protobuf::Arena::Own<SOEMessage>
FUNC 3f5e5 6a 0 google::protobuf::internal::down_cast<const SOEMessage*, const google::protobuf::MessageLite>
FUNC 3f650 43 0 google::protobuf::Arena::Own<ControlRequet>
FUNC 3f693 6a 0 google::protobuf::internal::down_cast<const ControlRequet*, const google::protobuf::MessageLite>
FUNC 3f6fd 2f 0 std::swap<bool>
FUNC 3f72c 43 0 google::protobuf::Arena::Own<LogRequest>
FUNC 3f76f 6a 0 google::protobuf::internal::down_cast<const LogRequest*, const google::protobuf::MessageLite>
FUNC 3f7da 43 0 google::protobuf::Arena::Own<RealLogResponse>
FUNC 3f81d 6a 0 google::protobuf::internal::down_cast<const RealLogResponse*, const google::protobuf::MessageLite>
FUNC 3f887 32 0 std::swap<google::protobuf::uint64>
FUNC 3f8ba 43 0 google::protobuf::Arena::Own<LogQuery>
FUNC 3f8fd 6a 0 google::protobuf::internal::down_cast<const LogQuery*, const google::protobuf::MessageLite>
FUNC 3f968 43 0 google::protobuf::Arena::Own<HisLogResponse>
FUNC 3f9ab 6a 0 google::protobuf::internal::down_cast<const HisLogResponse*, const google::protobuf::MessageLite>
FUNC 3fa16 43 0 google::protobuf::Arena::Own<NetcardInfoRequest>
FUNC 3fa59 6a 0 google::protobuf::internal::down_cast<const NetcardInfoRequest*, const google::protobuf::MessageLite>
FUNC 3fac4 43 0 google::protobuf::Arena::Own<NetcardInfo>
FUNC 3fb07 6a 0 google::protobuf::internal::down_cast<const NetcardInfo*, const google::protobuf::MessageLite>
FUNC 3fb72 1a 0 google::protobuf::RepeatedPtrField<NetcardInfo>::RepeatedPtrField
FUNC 3fb8c 51 0 google::protobuf::RepeatedPtrField<NetcardInfo>::~RepeatedPtrField
FUNC 3fbde 5c 0 google::protobuf::RepeatedPtrField<NetcardInfo>::RepeatedPtrField
FUNC 3fc3a 43 0 google::protobuf::Arena::Own<NetcardInfoResponse>
FUNC 3fc7e 91 0 google::protobuf::internal::WireFormatLite::ReadMessageNoVirtual<NetcardInfo>
FUNC 3fd10 22 0 google::protobuf::internal::WireFormatLite::MessageSizeNoVirtual<NetcardInfo>
FUNC 3fd32 6a 0 google::protobuf::internal::down_cast<const NetcardInfoResponse*, const google::protobuf::MessageLite>
FUNC 3fd9c 25 0 google::protobuf::RepeatedPtrField<NetcardInfo>::MergeFrom
FUNC 3fdc2 43 0 google::protobuf::Arena::Own<ProcessData>
FUNC 3fe05 6a 0 google::protobuf::internal::down_cast<const ProcessData*, const google::protobuf::MessageLite>
FUNC 3fe6f 2c 0 std::swap<float>
FUNC 3fe9c 43 0 google::protobuf::Arena::Own<ProcessCtrl>
FUNC 3fedf 6a 0 google::protobuf::internal::down_cast<const ProcessCtrl*, const google::protobuf::MessageLite>
FUNC 3ff4a 43 0 google::protobuf::Arena::Own<RealPointValue>
FUNC 3ff8d 6a 0 google::protobuf::internal::down_cast<const RealPointValue*, const google::protobuf::MessageLite>
FUNC 3fff8 43 0 google::protobuf::Arena::Own<HeartBeatMessage>
FUNC 4003b 6a 0 google::protobuf::internal::down_cast<const HeartBeatMessage*, const google::protobuf::MessageLite>
FUNC 400a6 43 0 google::protobuf::Arena::Own<CommunicationPair>
FUNC 400e9 6a 0 google::protobuf::internal::down_cast<const CommunicationPair*, const google::protobuf::MessageLite>
FUNC 40154 43 0 google::protobuf::Arena::Own<FlowThreshold>
FUNC 40197 6a 0 google::protobuf::internal::down_cast<const FlowThreshold*, const google::protobuf::MessageLite>
FUNC 40202 43 0 google::protobuf::Arena::Own<RtdbMessage>
FUNC 40246 91 0 google::protobuf::internal::WireFormatLite::ReadMessageNoVirtual<LogRequest>
FUNC 402d8 91 0 google::protobuf::internal::WireFormatLite::ReadMessageNoVirtual<RealLogResponse>
FUNC 4036a 91 0 google::protobuf::internal::WireFormatLite::ReadMessageNoVirtual<LogQuery>
FUNC 403fc 91 0 google::protobuf::internal::WireFormatLite::ReadMessageNoVirtual<HisLogResponse>
FUNC 4048e 91 0 google::protobuf::internal::WireFormatLite::ReadMessageNoVirtual<NetcardInfoRequest>
FUNC 40520 91 0 google::protobuf::internal::WireFormatLite::ReadMessageNoVirtual<NetcardInfoResponse>
FUNC 405b2 91 0 google::protobuf::internal::WireFormatLite::ReadMessageNoVirtual<ProcessData>
FUNC 40644 91 0 google::protobuf::internal::WireFormatLite::ReadMessageNoVirtual<ProcessCtrl>
FUNC 406d6 91 0 google::protobuf::internal::WireFormatLite::ReadMessageNoVirtual<RealPointValue>
FUNC 40768 91 0 google::protobuf::internal::WireFormatLite::ReadMessageNoVirtual<HeartBeatMessage>
FUNC 407fa 91 0 google::protobuf::internal::WireFormatLite::ReadMessageNoVirtual<AlarmMessage>
FUNC 4088c 91 0 google::protobuf::internal::WireFormatLite::ReadMessageNoVirtual<CommunicationPair>
FUNC 4091e 91 0 google::protobuf::internal::WireFormatLite::ReadMessageNoVirtual<FlowThreshold>
FUNC 409b0 22 0 google::protobuf::internal::WireFormatLite::MessageSizeNoVirtual<LogRequest>
FUNC 409d2 22 0 google::protobuf::internal::WireFormatLite::MessageSizeNoVirtual<RealLogResponse>
FUNC 409f4 22 0 google::protobuf::internal::WireFormatLite::MessageSizeNoVirtual<LogQuery>
FUNC 40a16 22 0 google::protobuf::internal::WireFormatLite::MessageSizeNoVirtual<HisLogResponse>
FUNC 40a38 22 0 google::protobuf::internal::WireFormatLite::MessageSizeNoVirtual<NetcardInfoRequest>
FUNC 40a5a 22 0 google::protobuf::internal::WireFormatLite::MessageSizeNoVirtual<NetcardInfoResponse>
FUNC 40a7c 22 0 google::protobuf::internal::WireFormatLite::MessageSizeNoVirtual<ProcessData>
FUNC 40a9e 22 0 google::protobuf::internal::WireFormatLite::MessageSizeNoVirtual<ProcessCtrl>
FUNC 40ac0 22 0 google::protobuf::internal::WireFormatLite::MessageSizeNoVirtual<RealPointValue>
FUNC 40ae2 22 0 google::protobuf::internal::WireFormatLite::MessageSizeNoVirtual<HeartBeatMessage>
FUNC 40b04 22 0 google::protobuf::internal::WireFormatLite::MessageSizeNoVirtual<AlarmMessage>
FUNC 40b26 22 0 google::protobuf::internal::WireFormatLite::MessageSizeNoVirtual<CommunicationPair>
FUNC 40b48 22 0 google::protobuf::internal::WireFormatLite::MessageSizeNoVirtual<FlowThreshold>
FUNC 40b6a 6a 0 google::protobuf::internal::down_cast<const RtdbMessage*, const google::protobuf::MessageLite>
FUNC 40bd4 32 0 std::swap<LogRequest*>
FUNC 40c06 32 0 std::swap<RealLogResponse*>
FUNC 40c38 32 0 std::swap<LogQuery*>
FUNC 40c6a 32 0 std::swap<HisLogResponse*>
FUNC 40c9c 32 0 std::swap<NetcardInfoRequest*>
FUNC 40cce 32 0 std::swap<NetcardInfoResponse*>
FUNC 40d00 32 0 std::swap<ProcessData*>
FUNC 40d32 32 0 std::swap<ProcessCtrl*>
FUNC 40d64 32 0 std::swap<RealPointValue*>
FUNC 40d96 32 0 std::swap<HeartBeatMessage*>
FUNC 40dc8 32 0 std::swap<AlarmMessage*>
FUNC 40dfa 32 0 std::swap<CommunicationPair*>
FUNC 40e2c 32 0 std::swap<FlowThreshold*>
FUNC 40e5e 2d 0 std::make_pair<unsigned int, bool>
FUNC 40e8c 15 0 google::protobuf::internal::InternalMetadataWithArenaBase<std::basic_string<char, std::char_traits<char>, std::allocator<char> >, google::protobuf::internal::InternalMetadataWithArenaLite>::PtrValue<google::protobuf::internal::InternalMetadataWithArenaBase<std::basic_string<char, std::char_traits<char>, std::allocator<char> >, google::protobuf::internal::InternalMetadataWithArenaLite>::Container>
FUNC 40ea2 1ae 0 google::protobuf::internal::InternalMetadataWithArenaBase<std::basic_string<char, std::char_traits<char>, std::allocator<char> >, google::protobuf::internal::InternalMetadataWithArenaLite>::mutable_unknown_fields_slow
FUNC 41050 107 0 google::protobuf::internal::RepeatedPtrFieldBase::Clear<google::protobuf::RepeatedPtrField<NetcardInfo>::TypeHandler>
FUNC 41158 165 0 google::protobuf::internal::RepeatedPtrFieldBase::Get<google::protobuf::RepeatedPtrField<NetcardInfo>::TypeHandler>
FUNC 412be f4 0 google::protobuf::internal::RepeatedPtrFieldBase::Add<google::protobuf::RepeatedPtrField<NetcardInfo>::TypeHandler>
FUNC 413b2 e 0 google::protobuf::internal::ExplicitlyConstructed<RawMessage>::get_mutable
FUNC 413c0 e 0 google::protobuf::internal::ExplicitlyConstructed<AlarmMessage>::get_mutable
FUNC 413ce e 0 google::protobuf::internal::ExplicitlyConstructed<DebugRequest>::get_mutable
FUNC 413dc e 0 google::protobuf::internal::ExplicitlyConstructed<SOEMessage>::get_mutable
FUNC 413ea e 0 google::protobuf::internal::ExplicitlyConstructed<ControlRequet>::get_mutable
FUNC 413f8 e 0 google::protobuf::internal::ExplicitlyConstructed<LogRequest>::get_mutable
FUNC 41406 e 0 google::protobuf::internal::ExplicitlyConstructed<RealLogResponse>::get_mutable
FUNC 41414 e 0 google::protobuf::internal::ExplicitlyConstructed<LogQuery>::get_mutable
FUNC 41422 e 0 google::protobuf::internal::ExplicitlyConstructed<HisLogResponse>::get_mutable
FUNC 41430 e 0 google::protobuf::internal::ExplicitlyConstructed<NetcardInfoRequest>::get_mutable
FUNC 4143e e 0 google::protobuf::internal::ExplicitlyConstructed<NetcardInfo>::get_mutable
FUNC 4144c e 0 google::protobuf::internal::ExplicitlyConstructed<NetcardInfoResponse>::get_mutable
FUNC 4145a e 0 google::protobuf::internal::ExplicitlyConstructed<ProcessData>::get_mutable
FUNC 41468 e 0 google::protobuf::internal::ExplicitlyConstructed<ProcessCtrl>::get_mutable
FUNC 41476 e 0 google::protobuf::internal::ExplicitlyConstructed<RealPointValue>::get_mutable
FUNC 41484 e 0 google::protobuf::internal::ExplicitlyConstructed<HeartBeatMessage>::get_mutable
FUNC 41492 e 0 google::protobuf::internal::ExplicitlyConstructed<CommunicationPair>::get_mutable
FUNC 414a0 e 0 google::protobuf::internal::ExplicitlyConstructed<FlowThreshold>::get_mutable
FUNC 414ae 9f 0 google::protobuf::internal::RepeatedPtrFieldBase::Destroy<google::protobuf::RepeatedPtrField<NetcardInfo>::TypeHandler>
FUNC 4154e e8 0 google::protobuf::internal::RepeatedPtrFieldBase::MergeFrom<google::protobuf::RepeatedPtrField<NetcardInfo>::TypeHandler>
FUNC 41636 2c 0 std::pair<unsigned int, bool>::pair
FUNC 41662 15 0 google::protobuf::internal::InternalMetadataWithArenaBase<std::basic_string<char, std::char_traits<char>, std::allocator<char> >, google::protobuf::internal::InternalMetadataWithArenaLite>::PtrValue<google::protobuf::Arena>
FUNC 41678 1a 0 google::protobuf::internal::InternalMetadataWithArenaBase<std::basic_string<char, std::char_traits<char>, std::allocator<char> >, google::protobuf::internal::InternalMetadataWithArenaLite>::Container::Container
FUNC 41692 25 0 google::protobuf::internal::GenericTypeHandler<NetcardInfo>::Clear
FUNC 416b7 e 0 google::protobuf::internal::RepeatedPtrFieldBase::cast<google::protobuf::RepeatedPtrField<NetcardInfo>::TypeHandler>
FUNC 416c6 1e 0 google::protobuf::internal::GenericTypeHandler<NetcardInfo>::NewFromPrototype
FUNC 416e4 2e 0 google::protobuf::internal::arena_delete_object<RawMessage>
FUNC 41712 2e 0 google::protobuf::internal::arena_delete_object<AlarmMessage>
FUNC 41740 2e 0 google::protobuf::internal::arena_delete_object<DebugRequest>
FUNC 4176e 2e 0 google::protobuf::internal::arena_delete_object<SOEMessage>
FUNC 4179c 2e 0 google::protobuf::internal::arena_delete_object<ControlRequet>
FUNC 417ca 2e 0 google::protobuf::internal::arena_delete_object<LogRequest>
FUNC 417f8 2e 0 google::protobuf::internal::arena_delete_object<RealLogResponse>
FUNC 41826 2e 0 google::protobuf::internal::arena_delete_object<LogQuery>
FUNC 41854 2e 0 google::protobuf::internal::arena_delete_object<HisLogResponse>
FUNC 41882 2e 0 google::protobuf::internal::arena_delete_object<NetcardInfoRequest>
FUNC 418b0 2e 0 google::protobuf::internal::arena_delete_object<NetcardInfo>
FUNC 418de 37 0 google::protobuf::internal::GenericTypeHandler<NetcardInfo>::Delete
FUNC 41915 2e 0 google::protobuf::internal::arena_delete_object<NetcardInfoResponse>
FUNC 41944 100 0 google::protobuf::internal::RepeatedPtrFieldBase::MergeFromInnerLoop<google::protobuf::RepeatedPtrField<NetcardInfo>::TypeHandler>
FUNC 41a44 2e 0 google::protobuf::internal::arena_delete_object<ProcessData>
FUNC 41a72 2e 0 google::protobuf::internal::arena_delete_object<ProcessCtrl>
FUNC 41aa0 2e 0 google::protobuf::internal::arena_delete_object<RealPointValue>
FUNC 41ace 2e 0 google::protobuf::internal::arena_delete_object<HeartBeatMessage>
FUNC 41afc 2e 0 google::protobuf::internal::arena_delete_object<CommunicationPair>
FUNC 41b2a 2e 0 google::protobuf::internal::arena_delete_object<FlowThreshold>
FUNC 41b58 2e 0 google::protobuf::internal::arena_delete_object<RtdbMessage>
FUNC 41b86 11b 0 google::protobuf::internal::GenericTypeHandler<NetcardInfo>::New
FUNC 41ca2 25 0 google::protobuf::internal::GenericTypeHandler<NetcardInfo>::Merge
FUNC 41cc7 1a 0 google::protobuf::internal::arena_destruct_object<google::protobuf::internal::InternalMetadataWithArenaBase<std::basic_string<char, std::char_traits<char>, std::allocator<char> >, google::protobuf::internal::InternalMetadataWithArenaLite>::Container>
FUNC 41ce1 21 0 google::protobuf::internal::arena_destruct_object<NetcardInfo>
FUNC 41d04 2c 0 Serial485ClientService::Serial485ClientService
FUNC 41d30 41 0 Serial485ClientService::~Serial485ClientService
FUNC 41d72 26 0 Serial485ClientService::~Serial485ClientService
FUNC 41d98 141 0 Serial485ClientService::Start
FUNC 41eda 385 0 Serial485ClientService::Read
FUNC 4225f 14a 0 __static_initialization_and_destruction_0
FUNC 423a9 15 0 _GLOBAL__I_Serial485ClientService.cpp
FUNC 423c0 109 0 SerialNet::SerialNet
FUNC 424ca e3 0 SerialNet::~SerialNet
FUNC 425ae 26 0 SerialNet::~SerialNet
FUNC 425d4 485 0 SerialNet::Connect
FUNC 42a5a af 0 SerialNet::GetFunction
FUNC 42b0a 312 0 SerialNet::Read
FUNC 42e1c b3 0 SerialNet::Write
FUNC 42ed0 2c 0 SerialNet::DisConnect
FUNC 42efc 2b2 0 SerialNet::SetSpeed
FUNC 431ae 35a 0 SerialNet::SetParity
FUNC 43508 42 0 SerialNet::SumCheck
FUNC 4354a 112 0 SerialNet::ToHexString
FUNC 4365c 48 0 __static_initialization_and_destruction_0
FUNC 436a4 15 0 _GLOBAL__I_SerialNet.cpp
FUNC 436bc cd 0 SerialService::SerialService
FUNC 4378a b1 0 SerialService::~SerialService
FUNC 4383c 26 0 SerialService::~SerialService
FUNC 43862 221 0 SerialService::Start
FUNC 43a84 67e 0 SerialService::Write
FUNC 44102 57d 0 SerialService::Read
FUNC 44680 9c 0 SerialService::ParseRecvData
FUNC 4471c b0 0 SerialService::ParseFixedData
FUNC 447cc 213 0 SerialService::ParseVariableData
FUNC 449e0 189 0 SerialService::InitConfig
FUNC 44b69 14a 0 __static_initialization_and_destruction_0
FUNC 44cb3 15 0 _GLOBAL__I_SerialService.cpp
FUNC 44cc8 33 0 Config::GetSerialPortPath
FUNC 44cfc 11 0 Config::GetSpeed
FUNC 44d0e 11 0 Config::GetDatabits
FUNC 44d20 11 0 Config::GetStopbits
FUNC 44d32 12 0 Config::GetParity
FUNC 44d44 12 0 Config::GetClientAddr
FUNC 44d56 33 0 Config::GetIp
FUNC 44d8a 12 0 Config::GetTcpPort
FUNC 44d9c 15 0 Config::GetOutTime
FUNC 44db2 1a 0 std::vector<char, std::allocator<char> >::vector
FUNC 44dcc 6e 0 std::vector<char, std::allocator<char> >::~vector
FUNC 44e3a 229 0 std::vector<char, std::allocator<char> >::operator=
FUNC 45064 11 0 std::vector<char, std::allocator<char> >::data
FUNC 45076 25 0 std::vector<char, std::allocator<char> >::size
FUNC 4509c 1f 0 std::vector<short unsigned int, std::allocator<short unsigned int> >::operator[]
FUNC 450bc 1a 0 std::_Vector_base<char, std::allocator<char> >::_Vector_impl::~_Vector_impl
FUNC 450d6 1a 0 std::_Vector_base<char, std::allocator<char> >::_Vector_base
FUNC 450f0 79 0 std::_Vector_base<char, std::allocator<char> >::~_Vector_base
FUNC 4516a e 0 std::_Vector_base<char, std::allocator<char> >::_M_get_Tp_allocator
FUNC 45178 29 0 std::_Destroy<char*, char>
FUNC 451a2 25 0 std::vector<char, std::allocator<char> >::capacity
FUNC 451c8 30 0 std::vector<char, std::allocator<char> >::begin
FUNC 451f8 31 0 std::vector<char, std::allocator<char> >::end
FUNC 4522a a1 0 std::vector<char, std::allocator<char> >::_M_allocate_and_copy<__gnu_cxx::__normal_iterator<const char*, std::vector<char, std::allocator<char> > > >
FUNC 452cc 34 0 std::_Vector_base<char, std::allocator<char> >::_M_deallocate
FUNC 45300 25 0 std::vector<char, std::allocator<char> >::begin
FUNC 45325 46 0 std::copy<__gnu_cxx::__normal_iterator<const char*, std::vector<char, std::allocator<char> > >, __gnu_cxx::__normal_iterator<char*, std::vector<char, std::allocator<char> > > >
FUNC 4536c 29 0 std::vector<char, std::allocator<char> >::end
FUNC 45395 29 0 std::_Destroy<__gnu_cxx::__normal_iterator<char*, std::vector<char, std::allocator<char> > >, char>
FUNC 453be 46 0 std::copy<char*, char*>
FUNC 45404 31 0 std::__uninitialized_copy_a<char*, char*, char>
FUNC 45436 3d 0 std::_Vector_base<char, std::allocator<char> >::_Vector_impl::_Vector_impl
FUNC 45473 25 0 std::_Destroy<char*>
FUNC 45498 1c 0 __gnu_cxx::__normal_iterator<const char*, std::vector<char, std::allocator<char> > >::__normal_iterator
FUNC 454b4 38 0 std::_Vector_base<char, std::allocator<char> >::_M_allocate
FUNC 454ec 31 0 std::__uninitialized_copy_a<__gnu_cxx::__normal_iterator<const char*, std::vector<char, std::allocator<char> > >, char*, char>
FUNC 4551e 22 0 __gnu_cxx::new_allocator<char>::deallocate
FUNC 45540 1c 0 __gnu_cxx::__normal_iterator<char*, std::vector<char, std::allocator<char> > >::__normal_iterator
FUNC 4555c e 0 std::__miter_base<__gnu_cxx::__normal_iterator<const char*, std::vector<char, std::allocator<char> > >, false>::__b
FUNC 4556a 73 0 std::__copy_move_a2<false, __gnu_cxx::__normal_iterator<const char*, std::vector<char, std::allocator<char> > >, __gnu_cxx::__normal_iterator<char*, std::vector<char, std::allocator<char> > > >
FUNC 455dd 25 0 std::_Destroy<__gnu_cxx::__normal_iterator<char*, std::vector<char, std::allocator<char> > > >
FUNC 45602 e 0 std::__miter_base<char*, false>::__b
FUNC 45610 58 0 std::__copy_move_a2<false, char*, char*>
FUNC 45668 2d 0 std::uninitialized_copy<char*, char*>
FUNC 45695 e 0 std::_Destroy_aux<true>::__destroy<char*>
FUNC 456a4 47 0 __gnu_cxx::new_allocator<char>::allocate
FUNC 456eb 2d 0 std::uninitialized_copy<__gnu_cxx::__normal_iterator<const char*, std::vector<char, std::allocator<char> > >, char*>
FUNC 45718 1d 0 std::__niter_base<__gnu_cxx::__normal_iterator<const char*, std::vector<char, std::allocator<char> > >, true>::__b
FUNC 45735 1d 0 std::__niter_base<__gnu_cxx::__normal_iterator<char*, std::vector<char, std::allocator<char> > >, true>::__b
FUNC 45752 31 0 std::__copy_move_a<false, const char*, char*>
FUNC 45783 e 0 std::_Destroy_aux<true>::__destroy<__gnu_cxx::__normal_iterator<char*, std::vector<char, std::allocator<char> > > >
FUNC 45791 e 0 std::__niter_base<char*, false>::__b
FUNC 4579f 31 0 std::__copy_move_a<false, char*, char*>
FUNC 457d0 2d 0 std::__uninitialized_copy<true>::uninitialized_copy<char*, char*>
FUNC 457fe 11 0 __gnu_cxx::new_allocator<char>::max_size
FUNC 4580f 2d 0 std::__uninitialized_copy<true>::uninitialized_copy<__gnu_cxx::__normal_iterator<const char*, std::vector<char, std::allocator<char> > >, char*>
FUNC 4583c e 0 __gnu_cxx::__normal_iterator<const char*, std::vector<char, std::allocator<char> > >::base
FUNC 4584a e 0 __gnu_cxx::__normal_iterator<char*, std::vector<char, std::allocator<char> > >::base
FUNC 45858 52 0 std::__copy_move<false, true, std::random_access_iterator_tag>::__copy_m<char>
FUNC 458aa 46 0 std::copy<__gnu_cxx::__normal_iterator<const char*, std::vector<char, std::allocator<char> > >, char*>
FUNC 458f0 58 0 std::__copy_move_a2<false, __gnu_cxx::__normal_iterator<const char*, std::vector<char, std::allocator<char> > >, char*>
FUNC 45948 c7 0 Service::Service
FUNC 45a10 ad 0 Service::~Service
FUNC 45abe 26 0 Service::~Service
FUNC 45ae4 a 0 Service::InitConfig
FUNC 45aee 2a 0 Service::Init
FUNC 45b18 f2 0 Service::setPointAddrMap
FUNC 45c0a 40b 0 Service::Start
FUNC 46016 94c 0 Service::Write
FUNC 46962 6f5 0 Service::Read
FUNC 47058 15e 0 Service::ParseRecvData
FUNC 471b6 6d 0 Service::ParseFixedData
FUNC 47224 181 0 Service::ParseVariableData
FUNC 473a6 47 0 Service::CmdResetCon
FUNC 473ee 47 0 Service::CmdResetNum
FUNC 47436 4b 0 Service::CmdGetDataLv1
FUNC 47482 4b 0 Service::CmdGetDataLv2
FUNC 474ce 13a 0 Service::CmdFixedData
FUNC 47608 3ad 0 Service::CmdSetTimeStamp
FUNC 479b6 22c 0 Service::CmdResetEventAlarm
FUNC 47be2 347 0 Service::CmdSettingDownload
FUNC 47f2a 347 0 Service::CmdSettingModify
FUNC 48272 23f 0 Service::CmdGetAll
FUNC 484b2 26d 0 Service::CmdGetGroupValue
FUNC 48720 273 0 Service::CmdGetEntryValue
FUNC 48994 42 0 Service::SumCheck
FUNC 489d6 356 0 Service::ParseASDU44
FUNC 48d2c 2d0 0 Service::ParseASDU40
FUNC 48ffc 3c 0 Service::ParseASDU41
FUNC 49038 5a7 0 Service::ParseASDU42
FUNC 495e0 437 0 Service::ParseASDU50
FUNC 49a18 3f3 0 Service::ParseASDU1
FUNC 49e0c 469 0 Service::ParseASDU2
FUNC 4a276 124 0 Service::GetGlobalAddrByPrivateAddr
FUNC 4a39a a3 0 Service::GetRateByPrivateAddr
FUNC 4a43e 112 0 Service::ToHexString
FUNC 4a550 4dc 0 Service::InitPointAddrMap
FUNC 4aa2c a4 0 Service::StartBreakHeart
FUNC 4aad0 db 0 Service::ThreadFunc
FUNC 4abac 18e 0 Service::ParseASDU10
FUNC 4ad3a 53d 0 Service::ParseASDU10AllValue
FUNC 4b277 257 0 __static_initialization_and_destruction_0
FUNC 4b4ce 15 0 _GLOBAL__I_Service.cpp
FUNC 4b4e4 12 0 Config::GetUdpPort
FUNC 4b4f6 15 0 Config::GetId
FUNC 4b50c 14 0 Config::GetIedName
FUNC 4b520 66 0 Tag::Tag
FUNC 4b586 50 0 Tag::~Tag
FUNC 4b5d6 63 0 Tag::operator=
FUNC 4b63a 8b 0 Tag::ZeroTag
FUNC 4b6c6 1a 0 std::map<std::basic_string<char, std::char_traits<char>, std::allocator<char> >, Service::Point103, std::less<std::basic_string<char, std::char_traits<char>, std::allocator<char> > >, std::allocator<std::pair<const std::basic_string<char, std::char_traits<char>, std::allocator<char> >, Service::Point103> > >::~map
FUNC 4b6e0 1e 0 Service::Point103::Point103
FUNC 4b6fe 1e 0 Service::Point103::~Point103
FUNC 4b71c 3d 0 Service::Point103::operator=
FUNC 4b75a 39 0 Service::Point103::Point103
FUNC 4b794 1e 0 std::pair<char*, Service::Point103>::~pair
FUNC 4b7b2 55 0 std::pair<const std::basic_string<char, std::char_traits<char>, std::allocator<char> >, Service::Point103>::~pair
FUNC 4b808 1a 0 std::vector<Tag, std::allocator<Tag> >::vector
FUNC 4b822 6e 0 std::vector<Tag, std::allocator<Tag> >::~vector
FUNC 4b890 1a 0 std::map<std::basic_string<char, std::char_traits<char>, std::allocator<char> >, Service::Point103, std::less<std::basic_string<char, std::char_traits<char>, std::allocator<char> > >, std::allocator<std::pair<const std::basic_string<char, std::char_traits<char>, std::allocator<char> >, Service::Point103> > >::map
FUNC 4b8aa 1a 0 std::_Rb_tree<std::basic_string<char, std::char_traits<char>, std::allocator<char> >, std::pair<const std::basic_string<char, std::char_traits<char>, std::allocator<char> >, Service::Point103>, std::_Select1st<std::pair<const std::basic_string<char, std::char_traits<char>, std::allocator<char> >, Service::Point103> >, std::less<std::basic_string<char, std::char_traits<char>, std::allocator<char> > >, std::allocator<std::pair<const std::basic_string<char, std::char_traits<char>, std::allocator<char> >, Service::Point103> > >::_Rb_tree_impl<std::less<std::basic_string<char, std::char_traits<char>, std::allocator<char> > >, false>::~_Rb_tree_impl
FUNC 4b8c4 63 0 std::_Rb_tree<std::basic_string<char, std::char_traits<char>, std::allocator<char> >, std::pair<const std::basic_string<char, std::char_traits<char>, std::allocator<char> >, Service::Point103>, std::_Select1st<std::pair<const std::basic_string<char, std::char_traits<char>, std::allocator<char> >, Service::Point103> >, std::less<std::basic_string<char, std::char_traits<char>, std::allocator<char> > >, std::allocator<std::pair<const std::basic_string<char, std::char_traits<char>, std::allocator<char> >, Service::Point103> > >::~_Rb_tree
FUNC 4b928 1a 0 std::map<std::basic_string<char, std::char_traits<char>, std::allocator<char> >, std::basic_string<char, std::char_traits<char>, std::allocator<char> >, std::less<std::basic_string<char, std::char_traits<char>, std::allocator<char> > >, std::allocator<std::pair<const std::basic_string<char, std::char_traits<char>, std::allocator<char> >, std::basic_string<char, std::char_traits<char>, std::allocator<char> > > > >::begin
FUNC 4b942 22 0 std::_Rb_tree_iterator<std::pair<const std::basic_string<char, std::char_traits<char>, std::allocator<char> >, std::basic_string<char, std::char_traits<char>, std::allocator<char> > > >::operator!=
FUNC 4b964 28 0 std::_Rb_tree_iterator<std::pair<const std::basic_string<char, std::char_traits<char>, std::allocator<char> >, std::basic_string<char, std::char_traits<char>, std::allocator<char> > > >::operator++
FUNC 4b98c 15 0 std::_Rb_tree_iterator<std::pair<const std::basic_string<char, std::char_traits<char>, std::allocator<char> >, std::basic_string<char, std::char_traits<char>, std::allocator<char> > > >::operator->
FUNC 4b9a2 156 0 std::map<std::basic_string<char, std::char_traits<char>, std::allocator<char> >, Service::Point103, std::less<std::basic_string<char, std::char_traits<char>, std::allocator<char> > >, std::allocator<std::pair<const std::basic_string<char, std::char_traits<char>, std::allocator<char> >, Service::Point103> > >::operator[]
FUNC 4baf8 73 0 std::vector<char, std::allocator<char> >::vector
FUNC 4bb6c 19 0 std::vector<char, std::allocator<char> >::operator[]
FUNC 4bb86 7d 0 std::vector<Tag, std::allocator<Tag> >::push_back
FUNC 4bc04 25 0 std::map<std::basic_string<char, std::char_traits<char>, std::allocator<char> >, Service::Point103, std::less<std::basic_string<char, std::char_traits<char>, std::allocator<char> > >, std::allocator<std::pair<const std::basic_string<char, std::char_traits<char>, std::allocator<char> >, Service::Point103> > >::find
FUNC 4bc2a 1c 0 std::_Rb_tree_const_iterator<std::pair<const std::basic_string<char, std::char_traits<char>, std::allocator<char> >, Service::Point103> >::_Rb_tree_const_iterator
FUNC 4bc46 1a 0 std::map<std::basic_string<char, std::char_traits<char>, std::allocator<char> >, Service::Point103, std::less<std::basic_string<char, std::char_traits<char>, std::allocator<char> > >, std::allocator<std::pair<const std::basic_string<char, std::char_traits<char>, std::allocator<char> >, Service::Point103> > >::end
FUNC 4bc60 22 0 std::_Rb_tree_const_iterator<std::pair<const std::basic_string<char, std::char_traits<char>, std::allocator<char> >, Service::Point103> >::operator!=
FUNC 4bc82 15 0 std::_Rb_tree_const_iterator<std::pair<const std::basic_string<char, std::char_traits<char>, std::allocator<char> >, Service::Point103> >::operator->
FUNC 4bc98 1a 0 std::map<std::basic_string<char, std::char_traits<char>, std::allocator<char> >, Service::Point103, std::less<std::basic_string<char, std::char_traits<char>, std::allocator<char> > >, std::allocator<std::pair<const std::basic_string<char, std::char_traits<char>, std::allocator<char> >, Service::Point103> > >::clear
FUNC 4bcb2 37 0 std::make_pair<char*, Service::Point103>
FUNC 4bcea ab 0 std::pair<const std::basic_string<char, std::char_traits<char>, std::allocator<char> >, Service::Point103>::pair<char*, Service::Point103>
FUNC 4bd96 47 0 std::map<std::basic_string<char, std::char_traits<char>, std::allocator<char> >, Service::Point103, std::less<std::basic_string<char, std::char_traits<char>, std::allocator<char> > >, std::allocator<std::pair<const std::basic_string<char, std::char_traits<char>, std::allocator<char> >, Service::Point103> > >::insert
FUNC 4bdde 1a 0 std::map<std::basic_string<char, std::char_traits<char>, std::allocator<char> >, Service::Point103, std::less<std::basic_string<char, std::char_traits<char>, std::allocator<char> > >, std::allocator<std::pair<const std::basic_string<char, std::char_traits<char>, std::allocator<char> >, Service::Point103> > >::size
FUNC 4bdf8 1a 0 std::_Vector_base<Tag, std::allocator<Tag> >::_Vector_impl::~_Vector_impl
FUNC 4be12 1a 0 std::_Vector_base<Tag, std::allocator<Tag> >::_Vector_base
FUNC 4be2c 81 0 std::_Vector_base<Tag, std::allocator<Tag> >::~_Vector_base
FUNC 4beae e 0 std::_Vector_base<Tag, std::allocator<Tag> >::_M_get_Tp_allocator
FUNC 4bebc 29 0 std::_Destroy<Tag*, Tag>
FUNC 4bee6 1a 0 std::_Rb_tree<std::basic_string<char, std::char_traits<char>, std::allocator<char> >, std::pair<const std::basic_string<char, std::char_traits<char>, std::allocator<char> >, Service::Point103>, std::_Select1st<std::pair<const std::basic_string<char, std::char_traits<char>, std::allocator<char> >, Service::Point103> >, std::less<std::basic_string<char, std::char_traits<char>, std::allocator<char> > >, std::allocator<std::pair<const std::basic_string<char, std::char_traits<char>, std::allocator<char> >, Service::Point103> > >::_Rb_tree
FUNC 4bf00 1a 0 std::allocator<std::_Rb_tree_node<std::pair<const std::basic_string<char, std::char_traits<char>, std::allocator<char> >, Service::Point103> > >::~allocator
FUNC 4bf1a 69 0 std::_Rb_tree<std::basic_string<char, std::char_traits<char>, std::allocator<char> >, std::pair<const std::basic_string<char, std::char_traits<char>, std::allocator<char> >, Service::Point103>, std::_Select1st<std::pair<const std::basic_string<char, std::char_traits<char>, std::allocator<char> >, Service::Point103> >, std::less<std::basic_string<char, std::char_traits<char>, std::allocator<char> > >, std::allocator<std::pair<const std::basic_string<char, std::char_traits<char>, std::allocator<char> >, Service::Point103> > >::_M_erase
FUNC 4bf84 12 0 std::_Rb_tree<std::basic_string<char, std::char_traits<char>, std::allocator<char> >, std::pair<const std::basic_string<char, std::char_traits<char>, std::allocator<char> >, Service::Point103>, std::_Select1st<std::pair<const std::basic_string<char, std::char_traits<char>, std::allocator<char> >, Service::Point103> >, std::less<std::basic_string<char, std::char_traits<char>, std::allocator<char> > >, std::allocator<std::pair<const std::basic_string<char, std::char_traits<char>, std::allocator<char> >, Service::Point103> > >::_M_begin
FUNC 4bf96 25 0 std::map<std::basic_string<char, std::char_traits<char>, std::allocator<char> >, Service::Point103, std::less<std::basic_string<char, std::char_traits<char>, std::allocator<char> > >, std::allocator<std::pair<const std::basic_string<char, std::char_traits<char>, std::allocator<char> >, Service::Point103> > >::lower_bound
FUNC 4bfbc 1a 0 std::map<std::basic_string<char, std::char_traits<char>, std::allocator<char> >, Service::Point103, std::less<std::basic_string<char, std::char_traits<char>, std::allocator<char> > >, std::allocator<std::pair<const std::basic_string<char, std::char_traits<char>, std::allocator<char> >, Service::Point103> > >::key_comp
FUNC 4bfd6 15 0 std::_Rb_tree_iterator<std::pair<const std::basic_string<char, std::char_traits<char>, std::allocator<char> >, Service::Point103> >::operator*
FUNC 4bfec 22 0 std::_Rb_tree_iterator<std::pair<const std::basic_string<char, std::char_traits<char>, std::allocator<char> >, Service::Point103> >::operator==
FUNC 4c00e 6b 0 std::pair<const std::basic_string<char, std::char_traits<char>, std::allocator<char> >, Service::Point103>::pair
FUNC 4c07a 40 0 std::map<std::basic_string<char, std::char_traits<char>, std::allocator<char> >, Service::Point103, std::less<std::basic_string<char, std::char_traits<char>, std::allocator<char> > >, std::allocator<std::pair<const std::basic_string<char, std::char_traits<char>, std::allocator<char> >, Service::Point103> > >::insert
FUNC 4c0ba 91 0 std::_Vector_base<char, std::allocator<char> >::_Vector_base
FUNC 4c14c 55 0 std::vector<char, std::allocator<char> >::_M_fill_initialize
FUNC 4c1a2 e2 0 __gnu_cxx::new_allocator<Tag>::construct
FUNC 4c284 42b 0 std::vector<Tag, std::allocator<Tag> >::_M_insert_aux
FUNC 4c6b0 29 0 std::vector<Tag, std::allocator<Tag> >::end
FUNC 4c6da b6 0 std::_Rb_tree<std::basic_string<char, std::char_traits<char>, std::allocator<char> >, std::pair<const std::basic_string<char, std::char_traits<char>, std::allocator<char> >, Service::Point103>, std::_Select1st<std::pair<const std::basic_string<char, std::char_traits<char>, std::allocator<char> >, Service::Point103> >, std::less<std::basic_string<char, std::char_traits<char>, std::allocator<char> > >, std::allocator<std::pair<const std::basic_string<char, std::char_traits<char>, std::allocator<char> >, Service::Point103> > >::find
FUNC 4c790 2c 0 std::_Rb_tree<std::basic_string<char, std::char_traits<char>, std::allocator<char> >, std::pair<const std::basic_string<char, std::char_traits<char>, std::allocator<char> >, Service::Point103>, std::_Select1st<std::pair<const std::basic_string<char, std::char_traits<char>, std::allocator<char> >, Service::Point103> >, std::less<std::basic_string<char, std::char_traits<char>, std::allocator<char> > >, std::allocator<std::pair<const std::basic_string<char, std::char_traits<char>, std::allocator<char> >, Service::Point103> > >::end
FUNC 4c7bc 8d 0 std::_Rb_tree<std::basic_string<char, std::char_traits<char>, std::allocator<char> >, std::pair<const std::basic_string<char, std::char_traits<char>, std::allocator<char> >, Service::Point103>, std::_Select1st<std::pair<const std::basic_string<char, std::char_traits<char>, std::allocator<char> >, Service::Point103> >, std::less<std::basic_string<char, std::char_traits<char>, std::allocator<char> > >, std::allocator<std::pair<const std::basic_string<char, std::char_traits<char>, std::allocator<char> >, Service::Point103> > >::clear
FUNC 4c84a 3b 0 std::pair<char*, Service::Point103>::pair
FUNC 4c886 271 0 std::_Rb_tree<std::basic_string<char, std::char_traits<char>, std::allocator<char> >, std::pair<const std::basic_string<char, std::char_traits<char>, std::allocator<char> >, Service::Point103>, std::_Select1st<std::pair<const std::basic_string<char, std::char_traits<char>, std::allocator<char> >, Service::Point103> >, std::less<std::basic_string<char, std::char_traits<char>, std::allocator<char> > >, std::allocator<std::pair<const std::basic_string<char, std::char_traits<char>, std::allocator<char> >, Service::Point103> > >::_M_insert_unique
FUNC 4caf8 12 0 std::_Rb_tree<std::basic_string<char, std::char_traits<char>, std::allocator<char> >, std::pair<const std::basic_string<char, std::char_traits<char>, std::allocator<char> >, Service::Point103>, std::_Select1st<std::pair<const std::basic_string<char, std::char_traits<char>, std::allocator<char> >, Service::Point103> >, std::less<std::basic_string<char, std::char_traits<char>, std::allocator<char> > >, std::allocator<std::pair<const std::basic_string<char, std::char_traits<char>, std::allocator<char> >, Service::Point103> > >::size
FUNC 4cb0a 3d 0 std::_Vector_base<Tag, std::allocator<Tag> >::_Vector_impl::_Vector_impl
FUNC 4cb48 1a 0 std::allocator<Tag>::~allocator
FUNC 4cb62 34 0 std::_Vector_base<Tag, std::allocator<Tag> >::_M_deallocate
FUNC 4cb96 25 0 std::_Destroy<Tag*>
FUNC 4cbbc 8c 0 std::_Rb_tree<std::basic_string<char, std::char_traits<char>, std::allocator<char> >, std::pair<const std::basic_string<char, std::char_traits<char>, std::allocator<char> >, Service::Point103>, std::_Select1st<std::pair<const std::basic_string<char, std::char_traits<char>, std::allocator<char> >, Service::Point103> >, std::less<std::basic_string<char, std::char_traits<char>, std::allocator<char> > >, std::allocator<std::pair<const std::basic_string<char, std::char_traits<char>, std::allocator<char> >, Service::Point103> > >::_Rb_tree_impl<std::less<std::basic_string<char, std::char_traits<char>, std::allocator<char> > >, false>::_Rb_tree_impl
FUNC 4cc48 a 0 __gnu_cxx::new_allocator<std::_Rb_tree_node<std::pair<const std::basic_string<char, std::char_traits<char>, std::allocator<char> >, Service::Point103> > >::~new_allocator
FUNC 4cc52 12 0 std::_Rb_tree<std::basic_string<char, std::char_traits<char>, std::allocator<char> >, std::pair<const std::basic_string<char, std::char_traits<char>, std::allocator<char> >, Service::Point103>, std::_Select1st<std::pair<const std::basic_string<char, std::char_traits<char>, std::allocator<char> >, Service::Point103> >, std::less<std::basic_string<char, std::char_traits<char>, std::allocator<char> > >, std::allocator<std::pair<const std::basic_string<char, std::char_traits<char>, std::allocator<char> >, Service::Point103> > >::_S_right
FUNC 4cc64 12 0 std::_Rb_tree<std::basic_string<char, std::char_traits<char>, std::allocator<char> >, std::pair<const std::basic_string<char, std::char_traits<char>, std::allocator<char> >, Service::Point103>, std::_Select1st<std::pair<const std::basic_string<char, std::char_traits<char>, std::allocator<char> >, Service::Point103> >, std::less<std::basic_string<char, std::char_traits<char>, std::allocator<char> > >, std::allocator<std::pair<const std::basic_string<char, std::char_traits<char>, std::allocator<char> >, Service::Point103> > >::_S_left
FUNC 4cc76 86 0 std::_Rb_tree<std::basic_string<char, std::char_traits<char>, std::allocator<char> >, std::pair<const std::basic_string<char, std::char_traits<char>, std::allocator<char> >, Service::Point103>, std::_Select1st<std::pair<const std::basic_string<char, std::char_traits<char>, std::allocator<char> >, Service::Point103> >, std::less<std::basic_string<char, std::char_traits<char>, std::allocator<char> > >, std::allocator<std::pair<const std::basic_string<char, std::char_traits<char>, std::allocator<char> >, Service::Point103> > >::_M_destroy_node
FUNC 4ccfc 53 0 std::_Rb_tree<std::basic_string<char, std::char_traits<char>, std::allocator<char> >, std::pair<const std::basic_string<char, std::char_traits<char>, std::allocator<char> >, Service::Point103>, std::_Select1st<std::pair<const std::basic_string<char, std::char_traits<char>, std::allocator<char> >, Service::Point103> >, std::less<std::basic_string<char, std::char_traits<char>, std::allocator<char> > >, std::allocator<std::pair<const std::basic_string<char, std::char_traits<char>, std::allocator<char> >, Service::Point103> > >::lower_bound
FUNC 4cd50 a 0 std::_Rb_tree<std::basic_string<char, std::char_traits<char>, std::allocator<char> >, std::pair<const std::basic_string<char, std::char_traits<char>, std::allocator<char> >, Service::Point103>, std::_Select1st<std::pair<const std::basic_string<char, std::char_traits<char>, std::allocator<char> >, Service::Point103> >, std::less<std::basic_string<char, std::char_traits<char>, std::allocator<char> > >, std::allocator<std::pair<const std::basic_string<char, std::char_traits<char>, std::allocator<char> >, Service::Point103> > >::key_comp
FUNC 4cd5a 4c0 0 std::_Rb_tree<std::basic_string<char, std::char_traits<char>, std::allocator<char> >, std::pair<const std::basic_string<char, std::char_traits<char>, std::allocator<char> >, Service::Point103>, std::_Select1st<std::pair<const std::basic_string<char, std::char_traits<char>, std::allocator<char> >, Service::Point103> >, std::less<std::basic_string<char, std::char_traits<char>, std::allocator<char> > >, std::allocator<std::pair<const std::basic_string<char, std::char_traits<char>, std::allocator<char> >, Service::Point103> > >::_M_insert_unique_
FUNC 4d21a 48 0 std::_Vector_base<char, std::allocator<char> >::_Vector_impl::_Vector_impl
FUNC 4d262 31 0 std::__uninitialized_fill_n_a<char*, long unsigned int, char, char>
FUNC 4d294 e 0 __gnu_cxx::__normal_iterator<Tag*, std::vector<Tag, std::allocator<Tag> > >::base
FUNC 4d2a2 46 0 std::copy_backward<Tag*, Tag*>
FUNC 4d2e8 11 0 __gnu_cxx::__normal_iterator<Tag*, std::vector<Tag, std::allocator<Tag> > >::operator*
FUNC 4d2fa ca 0 std::vector<Tag, std::allocator<Tag> >::_M_check_len
FUNC 4d3c4 25 0 std::vector<Tag, std::allocator<Tag> >::begin
FUNC 4d3e9 4d 0 __gnu_cxx::operator-<Tag*, std::vector<Tag, std::allocator<Tag> > >
FUNC 4d436 38 0 std::_Vector_base<Tag, std::allocator<Tag> >::_M_allocate
FUNC 4d46e 3b 0 std::__uninitialized_move_a<Tag*, Tag*, std::allocator<Tag> >
FUNC 4d4aa 1e 0 __gnu_cxx::new_allocator<Tag>::destroy
FUNC 4d4c8 1c 0 __gnu_cxx::__normal_iterator<Tag*, std::vector<Tag, std::allocator<Tag> > >::__normal_iterator
FUNC 4d4e4 12 0 std::_Rb_tree<std::basic_string<char, std::char_traits<char>, std::allocator<char> >, std::pair<const std::basic_string<char, std::char_traits<char>, std::allocator<char> >, Service::Point103>, std::_Select1st<std::pair<const std::basic_string<char, std::char_traits<char>, std::allocator<char> >, Service::Point103> >, std::less<std::basic_string<char, std::char_traits<char>, std::allocator<char> > >, std::allocator<std::pair<const std::basic_string<char, std::char_traits<char>, std::allocator<char> >, Service::Point103> > >::_M_end
FUNC 4d4f6 92 0 std::_Rb_tree<std::basic_string<char, std::char_traits<char>, std::allocator<char> >, std::pair<const std::basic_string<char, std::char_traits<char>, std::allocator<char> >, Service::Point103>, std::_Select1st<std::pair<const std::basic_string<char, std::char_traits<char>, std::allocator<char> >, Service::Point103> >, std::less<std::basic_string<char, std::char_traits<char>, std::allocator<char> > >, std::allocator<std::pair<const std::basic_string<char, std::char_traits<char>, std::allocator<char> >, Service::Point103> > >::_M_lower_bound
FUNC 4d588 2c 0 std::_Rb_tree<std::basic_string<char, std::char_traits<char>, std::allocator<char> >, std::pair<const std::basic_string<char, std::char_traits<char>, std::allocator<char> >, Service::Point103>, std::_Select1st<std::pair<const std::basic_string<char, std::char_traits<char>, std::allocator<char> >, Service::Point103> >, std::less<std::basic_string<char, std::char_traits<char>, std::allocator<char> > >, std::allocator<std::pair<const std::basic_string<char, std::char_traits<char>, std::allocator<char> >, Service::Point103> > >::_S_key
FUNC 4d5b4 19 0 std::_Rb_tree_iterator<std::pair<const std::basic_string<char, std::char_traits<char>, std::allocator<char> >, Service::Point103> >::_Rb_tree_iterator
FUNC 4d5ce 12 0 std::_Rb_tree<std::basic_string<char, std::char_traits<char>, std::allocator<char> >, std::pair<const std::basic_string<char, std::char_traits<char>, std::allocator<char> >, Service::Point103>, std::_Select1st<std::pair<const std::basic_string<char, std::char_traits<char>, std::allocator<char> >, Service::Point103> >, std::less<std::basic_string<char, std::char_traits<char>, std::allocator<char> > >, std::allocator<std::pair<const std::basic_string<char, std::char_traits<char>, std::allocator<char> >, Service::Point103> > >::_M_leftmost
FUNC 4d5e0 12 0 std::_Rb_tree<std::basic_string<char, std::char_traits<char>, std::allocator<char> >, std::pair<const std::basic_string<char, std::char_traits<char>, std::allocator<char> >, Service::Point103>, std::_Select1st<std::pair<const std::basic_string<char, std::char_traits<char>, std::allocator<char> >, Service::Point103> >, std::less<std::basic_string<char, std::char_traits<char>, std::allocator<char> > >, std::allocator<std::pair<const std::basic_string<char, std::char_traits<char>, std::allocator<char> >, Service::Point103> > >::_M_root
FUNC 4d5f2 12 0 std::_Rb_tree<std::basic_string<char, std::char_traits<char>, std::allocator<char> >, std::pair<const std::basic_string<char, std::char_traits<char>, std::allocator<char> >, Service::Point103>, std::_Select1st<std::pair<const std::basic_string<char, std::char_traits<char>, std::allocator<char> >, Service::Point103> >, std::less<std::basic_string<char, std::char_traits<char>, std::allocator<char> > >, std::allocator<std::pair<const std::basic_string<char, std::char_traits<char>, std::allocator<char> >, Service::Point103> > >::_M_rightmost
FUNC 4d604 12 0 std::_Select1st<std::pair<const std::basic_string<char, std::char_traits<char>, std::allocator<char> >, Service::Point103> >::operator()
FUNC 4d616 2c 0 std::_Rb_tree<std::basic_string<char, std::char_traits<char>, std::allocator<char> >, std::pair<const std::basic_string<char, std::char_traits<char>, std::allocator<char> >, Service::Point103>, std::_Select1st<std::pair<const std::basic_string<char, std::char_traits<char>, std::allocator<char> >, Service::Point103> >, std::less<std::basic_string<char, std::char_traits<char>, std::allocator<char> > >, std::allocator<std::pair<const std::basic_string<char, std::char_traits<char>, std::allocator<char> >, Service::Point103> > >::_S_key
FUNC 4d642 2c 0 std::_Rb_tree<std::basic_string<char, std::char_traits<char>, std::allocator<char> >, std::pair<const std::basic_string<char, std::char_traits<char>, std::allocator<char> >, Service::Point103>, std::_Select1st<std::pair<const std::basic_string<char, std::char_traits<char>, std::allocator<char> >, Service::Point103> >, std::less<std::basic_string<char, std::char_traits<char>, std::allocator<char> > >, std::allocator<std::pair<const std::basic_string<char, std::char_traits<char>, std::allocator<char> >, Service::Point103> > >::begin
FUNC 4d66e e3 0 std::_Rb_tree<std::basic_string<char, std::char_traits<char>, std::allocator<char> >, std::pair<const std::basic_string<char, std::char_traits<char>, std::allocator<char> >, Service::Point103>, std::_Select1st<std::pair<const std::basic_string<char, std::char_traits<char>, std::allocator<char> >, Service::Point103> >, std::less<std::basic_string<char, std::char_traits<char>, std::allocator<char> > >, std::allocator<std::pair<const std::basic_string<char, std::char_traits<char>, std::allocator<char> >, Service::Point103> > >::_M_insert_
FUNC 4d752 2e 0 std::pair<std::_Rb_tree_iterator<std::pair<const std::basic_string<char, std::char_traits<char>, std::allocator<char> >, Service::Point103> >, bool>::pair
FUNC 4d780 28 0 std::_Rb_tree_iterator<std::pair<const std::basic_string<char, std::char_traits<char>, std::allocator<char> >, Service::Point103> >::operator--
FUNC 4d7a8 1a 0 std::allocator<Tag>::allocator
FUNC 4d7c2 a 0 __gnu_cxx::new_allocator<Tag>::~new_allocator
FUNC 4d7cc 22 0 __gnu_cxx::new_allocator<Tag>::deallocate
FUNC 4d7ee 37 0 std::_Destroy_aux<false>::__destroy<Tag*>
FUNC 4d826 1a 0 std::allocator<std::_Rb_tree_node<std::pair<const std::basic_string<char, std::char_traits<char>, std::allocator<char> >, Service::Point103> > >::allocator
FUNC 4d840 41 0 std::_Rb_tree<std::basic_string<char, std::char_traits<char>, std::allocator<char> >, std::pair<const std::basic_string<char, std::char_traits<char>, std::allocator<char> >, Service::Point103>, std::_Select1st<std::pair<const std::basic_string<char, std::char_traits<char>, std::allocator<char> >, Service::Point103> >, std::less<std::basic_string<char, std::char_traits<char>, std::allocator<char> > >, std::allocator<std::pair<const std::basic_string<char, std::char_traits<char>, std::allocator<char> >, Service::Point103> > >::_Rb_tree_impl<std::less<std::basic_string<char, std::char_traits<char>, std::allocator<char> > >, false>::_M_initialize
FUNC 4d882 3b 0 std::_Rb_tree<std::basic_string<char, std::char_traits<char>, std::allocator<char> >, std::pair<const std::basic_string<char, std::char_traits<char>, std::allocator<char> >, Service::Point103>, std::_Select1st<std::pair<const std::basic_string<char, std::char_traits<char>, std::allocator<char> >, Service::Point103> >, std::less<std::basic_string<char, std::char_traits<char>, std::allocator<char> > >, std::allocator<std::pair<const std::basic_string<char, std::char_traits<char>, std::allocator<char> >, Service::Point103> > >::get_allocator
FUNC 4d8be 1a 0 std::allocator<std::pair<const std::basic_string<char, std::char_traits<char>, std::allocator<char> >, Service::Point103> >::~allocator
FUNC 4d8d8 1e 0 __gnu_cxx::new_allocator<std::pair<const std::basic_string<char, std::char_traits<char>, std::allocator<char> >, Service::Point103> >::destroy
FUNC 4d8f6 2a 0 std::_Rb_tree<std::basic_string<char, std::char_traits<char>, std::allocator<char> >, std::pair<const std::basic_string<char, std::char_traits<char>, std::allocator<char> >, Service::Point103>, std::_Select1st<std::pair<const std::basic_string<char, std::char_traits<char>, std::allocator<char> >, Service::Point103> >, std::less<std::basic_string<char, std::char_traits<char>, std::allocator<char> > >, std::allocator<std::pair<const std::basic_string<char, std::char_traits<char>, std::allocator<char> >, Service::Point103> > >::_M_put_node
FUNC 4d920 28 0 std::_Rb_tree_const_iterator<std::pair<const std::basic_string<char, std::char_traits<char>, std::allocator<char> >, Service::Point103> >::operator--
FUNC 4d948 12 0 std::_Rb_tree<std::basic_string<char, std::char_traits<char>, std::allocator<char> >, std::pair<const std::basic_string<char, std::char_traits<char>, std::allocator<char> >, Service::Point103>, std::_Select1st<std::pair<const std::basic_string<char, std::char_traits<char>, std::allocator<char> >, Service::Point103> >, std::less<std::basic_string<char, std::char_traits<char>, std::allocator<char> > >, std::allocator<std::pair<const std::basic_string<char, std::char_traits<char>, std::allocator<char> >, Service::Point103> > >::_S_right
FUNC 4d95a 28 0 std::_Rb_tree_const_iterator<std::pair<const std::basic_string<char, std::char_traits<char>, std::allocator<char> >, Service::Point103> >::operator++
FUNC 4d982 2d 0 std::uninitialized_fill_n<char*, long unsigned int, char>
FUNC 4d9af e 0 std::__miter_base<Tag*, false>::__b
FUNC 4d9bd 58 0 std::__copy_move_backward_a2<false, Tag*, Tag*>
FUNC 4da16 22 0 std::vector<Tag, std::allocator<Tag> >::max_size
FUNC 4da38 63 0 __gnu_cxx::new_allocator<Tag>::allocate
FUNC 4da9b 31 0 std::__uninitialized_copy_a<Tag*, Tag*, Tag>
FUNC 4dacc 12 0 std::_Rb_tree<std::basic_string<char, std::char_traits<char>, std::allocator<char> >, std::pair<const std::basic_string<char, std::char_traits<char>, std::allocator<char> >, Service::Point103>, std::_Select1st<std::pair<const std::basic_string<char, std::char_traits<char>, std::allocator<char> >, Service::Point103> >, std::less<std::basic_string<char, std::char_traits<char>, std::allocator<char> > >, std::allocator<std::pair<const std::basic_string<char, std::char_traits<char>, std::allocator<char> >, Service::Point103> > >::_S_value
FUNC 4dade 12 0 std::_Rb_tree<std::basic_string<char, std::char_traits<char>, std::allocator<char> >, std::pair<const std::basic_string<char, std::char_traits<char>, std::allocator<char> >, Service::Point103>, std::_Select1st<std::pair<const std::basic_string<char, std::char_traits<char>, std::allocator<char> >, Service::Point103> >, std::less<std::basic_string<char, std::char_traits<char>, std::allocator<char> > >, std::allocator<std::pair<const std::basic_string<char, std::char_traits<char>, std::allocator<char> >, Service::Point103> > >::_S_value
FUNC 4daf0 bd 0 std::_Rb_tree<std::basic_string<char, std::char_traits<char>, std::allocator<char> >, std::pair<const std::basic_string<char, std::char_traits<char>, std::allocator<char> >, Service::Point103>, std::_Select1st<std::pair<const std::basic_string<char, std::char_traits<char>, std::allocator<char> >, Service::Point103> >, std::less<std::basic_string<char, std::char_traits<char>, std::allocator<char> > >, std::allocator<std::pair<const std::basic_string<char, std::char_traits<char>, std::allocator<char> >, Service::Point103> > >::_M_create_node
FUNC 4dbae a 0 __gnu_cxx::new_allocator<Tag>::new_allocator
FUNC 4dbb8 1a 0 std::_Destroy<Tag>
FUNC 4dbd2 a 0 __gnu_cxx::new_allocator<std::_Rb_tree_node<std::pair<const std::basic_string<char, std::char_traits<char>, std::allocator<char> >, Service::Point103> > >::new_allocator
FUNC 4dbdc e 0 std::_Rb_tree<std::basic_string<char, std::char_traits<char>, std::allocator<char> >, std::pair<const std::basic_string<char, std::char_traits<char>, std::allocator<char> >, Service::Point103>, std::_Select1st<std::pair<const std::basic_string<char, std::char_traits<char>, std::allocator<char> >, Service::Point103> >, std::less<std::basic_string<char, std::char_traits<char>, std::allocator<char> > >, std::allocator<std::pair<const std::basic_string<char, std::char_traits<char>, std::allocator<char> >, Service::Point103> > >::_M_get_Node_allocator
FUNC 4dbea 1e 0 std::allocator<std::pair<const std::basic_string<char, std::char_traits<char>, std::allocator<char> >, Service::Point103> >::allocator<std::_Rb_tree_node<std::pair<const std::basic_string<char, std::char_traits<char>, std::allocator<char> >, Service::Point103> > >
FUNC 4dc08 a 0 __gnu_cxx::new_allocator<std::pair<const std::basic_string<char, std::char_traits<char>, std::allocator<char> >, Service::Point103> >::~new_allocator
FUNC 4dc12 22 0 __gnu_cxx::new_allocator<std::_Rb_tree_node<std::pair<const std::basic_string<char, std::char_traits<char>, std::allocator<char> >, Service::Point103> > >::deallocate
FUNC 4dc34 2d 0 std::__uninitialized_fill_n<true>::uninitialized_fill_n<char*, long unsigned int, char>
FUNC 4dc61 e 0 std::__niter_base<Tag*, false>::__b
FUNC 4dc6f 31 0 std::__copy_move_backward_a<false, Tag*, Tag*>
FUNC 4dca0 e 0 std::_Vector_base<Tag, std::allocator<Tag> >::_M_get_Tp_allocator
FUNC 4dcae 14 0 __gnu_cxx::new_allocator<Tag>::max_size
FUNC 4dcc2 2d 0 std::uninitialized_copy<Tag*, Tag*>
FUNC 4dcf0 24 0 std::_Rb_tree<std::basic_string<char, std::char_traits<char>, std::allocator<char> >, std::pair<const std::basic_string<char, std::char_traits<char>, std::allocator<char> >, Service::Point103>, std::_Select1st<std::pair<const std::basic_string<char, std::char_traits<char>, std::allocator<char> >, Service::Point103> >, std::less<std::basic_string<char, std::char_traits<char>, std::allocator<char> > >, std::allocator<std::pair<const std::basic_string<char, std::char_traits<char>, std::allocator<char> >, Service::Point103> > >::_M_get_node
FUNC 4dd14 6b 0 std::pair<const std::basic_string<char, std::char_traits<char>, std::allocator<char> >, Service::Point103>::pair
FUNC 4dd80 77 0 __gnu_cxx::new_allocator<std::pair<const std::basic_string<char, std::char_traits<char>, std::allocator<char> >, Service::Point103> >::construct
FUNC 4ddf8 a 0 __gnu_cxx::new_allocator<std::pair<const std::basic_string<char, std::char_traits<char>, std::allocator<char> >, Service::Point103> >::new_allocator
FUNC 4de02 35 0 std::fill_n<char*, long unsigned int, char>
FUNC 4de37 6d 0 std::__copy_move_backward<false, false, std::random_access_iterator_tag>::__copy_move_b<Tag*, Tag*>
FUNC 4dea4 98 0 std::__uninitialized_copy<false>::uninitialized_copy<Tag*, Tag*>
FUNC 4df3c 5c 0 __gnu_cxx::new_allocator<std::_Rb_tree_node<std::pair<const std::basic_string<char, std::char_traits<char>, std::allocator<char> >, Service::Point103> > >::allocate
FUNC 4df98 41 0 std::__fill_n_a<long unsigned int, char>
FUNC 4dfd9 de 0 std::_Construct<Tag, Tag>
FUNC 4e0b8 14 0 __gnu_cxx::new_allocator<std::_Rb_tree_node<std::pair<const std::basic_string<char, std::char_traits<char>, std::allocator<char> >, Service::Point103> > >::max_size
FUNC 4e0cc 49 0 std::__fill_a<char>
FUNC 4e118 db 0 TcpNet::TcpNet
FUNC 4e1f4 7c 0 TcpNet::~TcpNet
FUNC 4e270 26 0 TcpNet::~TcpNet
FUNC 4e296 17d 0 TcpNet::Connect
FUNC 4e414 15d 0 TcpNet::Read
FUNC 4e572 e8 0 TcpNet::Write
FUNC 4e65a 2c 0 TcpNet::DisConnect
FUNC 4e686 48 0 __static_initialization_and_destruction_0
FUNC 4e6ce 15 0 _GLOBAL__I_TcpNet.cpp
FUNC 4e6e4 91 0 TcpService::TcpService
FUNC 4e776 7e 0 TcpService::~TcpService
FUNC 4e7f4 26 0 TcpService::~TcpService
FUNC 4e81a 18f 0 TcpService::Start
FUNC 4e9aa 622 0 TcpService::Write
FUNC 4efcc 581 0 TcpService::Read
FUNC 4f54e 20b 0 TcpService::ParseRecvData
FUNC 4f75a 11f 0 TcpService::CmdConnection
FUNC 4f87a 11f 0 TcpService::CmdGetTest1
FUNC 4f99a 11f 0 TcpService::CmdGetTest2
FUNC 4faba 2a7 0 TcpService::CmdGetAll
FUNC 4fd62 2e1 0 TcpService::CmdGetGroupData
FUNC 50044 15b 0 TcpService::ParseVariableData
FUNC 501a0 379 0 TcpService::ParseASDU1
FUNC 5051a 120 0 TcpService::ParseASDU10
FUNC 5063a 82f 0 TcpService::ParseASDU10AllValue
FUNC 50e6a 2fe 0 TcpService::ParseASDU40
FUNC 51168 3c 0 TcpService::ParseASDU41
FUNC 511a4 391 0 TcpService::ParseASDU42
FUNC 51536 388 0 TcpService::ParseASDU44
FUNC 518be 465 0 TcpService::ParseASDU50
FUNC 51d24 8e 0 TcpService::InitConfig
FUNC 51db2 14 0 TcpService::GetSendID
FUNC 51dc6 14 0 TcpService::GetRecvID
FUNC 51dda 1c4 0 __static_initialization_and_destruction_0
FUNC 51f9e 15 0 _GLOBAL__I_TcpService.cpp
FUNC 51fb4 41 0 std::vector<Tag, std::allocator<Tag> >::empty
FUNC 51ff6 31 0 std::vector<Tag, std::allocator<Tag> >::end
FUNC 52028 30 0 std::vector<Tag, std::allocator<Tag> >::begin
FUNC 52058 3c 0 __gnu_cxx::operator==<const Tag*, std::vector<Tag, std::allocator<Tag> > >
FUNC 52094 1c 0 __gnu_cxx::__normal_iterator<const Tag*, std::vector<Tag, std::allocator<Tag> > >::__normal_iterator
FUNC 520b0 e 0 __gnu_cxx::__normal_iterator<const Tag*, std::vector<Tag, std::allocator<Tag> > >::base
FUNC 520c0 107 0 UdpNet::UdpNet
FUNC 521c8 7c 0 UdpNet::~UdpNet
FUNC 52244 26 0 UdpNet::~UdpNet
FUNC 5226a 17b 0 UdpNet::Connect
FUNC 523e6 aa 0 UdpNet::Read
FUNC 52490 ce 0 UdpNet::Write
FUNC 5255e 2c 0 UdpNet::DisConnect
FUNC 5258a 48 0 __static_initialization_and_destruction_0
FUNC 525d2 15 0 _GLOBAL__I_UdpNet.cpp
FUNC 525e8 1c 0 WarningLib::WarningLib
FUNC 52604 35 0 WarningLib::~WarningLib
FUNC 5263a 26 0 WarningLib::~WarningLib
FUNC 52660 74 0 WarningLib::GetInstance
FUNC 526d4 2f4 0 WarningLib::Init
FUNC 529c8 96 0 WarningLib::GetFunction
FUNC 52a5e 2b 0 WarningLib::Start
FUNC 52a8a 36 0 WarningLib::WriteWarn
FUNC 52ac0 63 0 WarningLib::WriteWarn2
FUNC 52b24 2b 0 WarningLib::Stop
FUNC 52b50 1bc 0 WgjFunctionEx::WgjFunctionEx
FUNC 52d0c 196 0 WgjFunctionEx::~WgjFunctionEx
FUNC 52ea2 26 0 WgjFunctionEx::~WgjFunctionEx
FUNC 52ec8 80 0 WgjFunctionEx::GetInstance
FUNC 52f48 27b 0 WgjFunctionEx::InitParam
FUNC 531c4 957 0 WgjFunctionEx::ThreadLogWork
FUNC 53b1c 4fe 0 WgjFunctionEx::ThreadRedisWork
FUNC 5401a 134 0 WgjFunctionEx::setHeartBeatTime
FUNC 5414e 1cc 0 WgjFunctionEx::serializeLog
FUNC 5431a 7ac 0 WgjFunctionEx::LogToFile
FUNC 54ac6 179 0 WgjFunctionEx::isCreateDir
FUNC 54c40 25 0 WgjFunctionEx::GetCurrentTime
FUNC 54c65 1dd 0 __static_initialization_and_destruction_0
FUNC 54e42 15 0 _GLOBAL__I_WgjFunctionEx.cpp
FUNC 54e57 ac 0 google::protobuf::internal::ToIntSize
FUNC 54f04 2d 0 google::protobuf::MessageLite::ByteSize
FUNC 54f32 2e 0 RealLogResponse::set_channelname
FUNC 54f60 2e 0 RealLogResponse::set_devname
FUNC 54f8e 2e 0 RealLogResponse::set_logdetail
FUNC 54fbc 2e 0 HeartBeatMessage::set_channelname
FUNC 54fea 55 0 stWriteValue::~stWriteValue
FUNC 55040 1b 0 WgjFunctionEx::SetLogMode
FUNC 5505c 1a 0 std::list<stWriteValue, std::allocator<stWriteValue> >::~list
FUNC 55076 1a 0 std::list<stLogInfo, std::allocator<stLogInfo> >::~list
FUNC 55090 1a 0 std::list<stWriteValue, std::allocator<stWriteValue> >::list
FUNC 550aa 1a 0 std::_List_base<stWriteValue, std::allocator<stWriteValue> >::_List_impl::~_List_impl
FUNC 550c4 51 0 std::_List_base<stWriteValue, std::allocator<stWriteValue> >::~_List_base
FUNC 55116 1a 0 std::list<stLogInfo, std::allocator<stLogInfo> >::list
FUNC 55130 1a 0 std::_List_base<stLogInfo, std::allocator<stLogInfo> >::_List_impl::~_List_impl
FUNC 5514a 51 0 std::_List_base<stLogInfo, std::allocator<stLogInfo> >::~_List_base
FUNC 5519c b9 0 std::vector<std::basic_string<char, std::char_traits<char>, std::allocator<char> >, std::allocator<std::basic_string<char, std::char_traits<char>, std::allocator<char> > > >::vector
FUNC 55256 3a 0 std::list<stLogInfo, std::allocator<stLogInfo> >::size
FUNC 55290 28 0 std::list<stLogInfo, std::allocator<stLogInfo> >::begin
FUNC 552b8 15 0 std::_List_iterator<stLogInfo>::operator->
FUNC 552ce 2c 0 std::list<stLogInfo, std::allocator<stLogInfo> >::pop_front
FUNC 552fa 26 0 std::list<stLogInfo, std::allocator<stLogInfo> >::clear
FUNC 55320 6e 0 std::operator+<char, std::char_traits<char>, std::allocator<char> >
FUNC 5538e 51 0 std::_List_base<stWriteValue, std::allocator<stWriteValue> >::_List_base
FUNC 553e0 1a 0 std::allocator<std::_List_node<stWriteValue> >::~allocator
FUNC 553fa b8 0 std::_List_base<stWriteValue, std::allocator<stWriteValue> >::_M_clear
FUNC 554b2 51 0 std::_List_base<stLogInfo, std::allocator<stLogInfo> >::_List_base
FUNC 55504 1a 0 std::allocator<std::_List_node<stLogInfo> >::~allocator
FUNC 5551e b8 0 std::_List_base<stLogInfo, std::allocator<stLogInfo> >::_M_clear
FUNC 555d6 96 0 std::_Vector_base<std::basic_string<char, std::char_traits<char>, std::allocator<char> >, std::allocator<std::basic_string<char, std::char_traits<char>, std::allocator<char> > > >::_Vector_base
FUNC 5566c 28 0 std::list<stLogInfo, std::allocator<stLogInfo> >::begin
FUNC 55694 25 0 std::list<stLogInfo, std::allocator<stLogInfo> >::end
FUNC 556b9 3d 0 std::distance<std::_List_const_iterator<stLogInfo> >
FUNC 556f6 9a 0 std::list<stLogInfo, std::allocator<stLogInfo> >::_M_erase
FUNC 55790 21 0 std::_List_base<stLogInfo, std::allocator<stLogInfo> >::_M_init
FUNC 557b2 31 0 std::_List_base<stWriteValue, std::allocator<stWriteValue> >::_List_impl::_List_impl
FUNC 557e4 21 0 std::_List_base<stWriteValue, std::allocator<stWriteValue> >::_M_init
FUNC 55806 a 0 __gnu_cxx::new_allocator<std::_List_node<stWriteValue> >::~new_allocator
FUNC 55810 3b 0 std::_List_base<stWriteValue, std::allocator<stWriteValue> >::_M_get_Tp_allocator
FUNC 5584c 1a 0 std::allocator<stWriteValue>::~allocator
FUNC 55866 1e 0 __gnu_cxx::new_allocator<stWriteValue>::destroy
FUNC 55884 2a 0 std::_List_base<stWriteValue, std::allocator<stWriteValue> >::_M_put_node
FUNC 558ae 31 0 std::_List_base<stLogInfo, std::allocator<stLogInfo> >::_List_impl::_List_impl
FUNC 558e0 a 0 __gnu_cxx::new_allocator<std::_List_node<stLogInfo> >::~new_allocator
FUNC 558ea 1e 0 __gnu_cxx::new_allocator<stLogInfo>::destroy
FUNC 55908 48 0 std::_Vector_base<std::basic_string<char, std::char_traits<char>, std::allocator<char> >, std::allocator<std::basic_string<char, std::char_traits<char>, std::allocator<char> > > >::_Vector_impl::_Vector_impl
FUNC 55950 19 0 std::_List_const_iterator<stLogInfo>::_List_const_iterator
FUNC 55969 a 0 std::__iterator_category<std::_List_const_iterator<stLogInfo> >
FUNC 55973 48 0 std::__distance<std::_List_const_iterator<stLogInfo> >
FUNC 559bc 1a 0 std::allocator<std::_List_node<stWriteValue> >::allocator
FUNC 559d6 e 0 std::_List_base<stWriteValue, std::allocator<stWriteValue> >::_M_get_Node_allocator
FUNC 559e4 1e 0 std::allocator<stWriteValue>::allocator<std::_List_node<stWriteValue> >
FUNC 55a02 a 0 __gnu_cxx::new_allocator<stWriteValue>::~new_allocator
FUNC 55a0c 22 0 __gnu_cxx::new_allocator<std::_List_node<stWriteValue> >::deallocate
FUNC 55a2e 1a 0 std::allocator<std::_List_node<stLogInfo> >::allocator
FUNC 55a48 25 0 std::allocator<std::basic_string<char, std::char_traits<char>, std::allocator<char> > >::allocator
FUNC 55a6e 22 0 std::_List_const_iterator<stLogInfo>::operator!=
FUNC 55a90 1f 0 std::_List_const_iterator<stLogInfo>::operator++
FUNC 55ab0 a 0 __gnu_cxx::new_allocator<std::_List_node<stWriteValue> >::new_allocator
FUNC 55aba a 0 __gnu_cxx::new_allocator<stWriteValue>::new_allocator
FUNC 55ac4 a 0 __gnu_cxx::new_allocator<std::_List_node<stLogInfo> >::new_allocator
FUNC 55ace e 0 __gnu_cxx::new_allocator<std::basic_string<char, std::char_traits<char>, std::allocator<char> > >::new_allocator
FUNC 55adc f3 0 Log::Logger::Logger
FUNC 55bd0 e2 0 Log::Logger::~Logger
FUNC 55cb2 b9a 0 Log::Logger::trafficLogger
FUNC 5684c 507 0 Log::Logger::configLogger
FUNC 56d53 112 0 __static_initialization_and_destruction_0
FUNC 56e65 15 0 _GLOBAL__I__ZN3Log6LoggerC2Ev
FUNC 56e7a 1e 0 boost::shared_ptr<Config::ConfigCenter>::~shared_ptr
FUNC 56e98 3a 0 boost::shared_ptr<Config::ConfigCenter>::operator->
FUNC 56ed2 29 0 log4cplus::helpers::SharedObjectPtr<log4cplus::Appender>::SharedObjectPtr
FUNC 56efc 41 0 log4cplus::helpers::SharedObjectPtr<log4cplus::Appender>::~SharedObjectPtr
FUNC 56f3e 19 0 std::auto_ptr<log4cplus::Layout>::auto_ptr
FUNC 56f58 37 0 std::auto_ptr<log4cplus::Layout>::~auto_ptr
FUNC 56f90 3a 0 log4cplus::helpers::SharedObjectPtr<log4cplus::Appender>::operator->
FUNC 56fca 25 0 std::auto_ptr<log4cplus::Layout>::auto_ptr
FUNC 56ff0 2c 0 log4cplus::helpers::SharedObjectPtr<log4cplus::Appender>::SharedObjectPtr
FUNC 5701c 41 0 log4cplus::helpers::SharedObjectPtr<log4cplus::Appender>::addref
FUNC 5705e 24 0 std::auto_ptr<log4cplus::Layout>::release
FUNC 57084 279 0 Config::ConfigCenter::instance
FUNC 572fe 488 0 Config::ConfigCenter::loadConfig
FUNC 57786 5c3 0 Config::ConfigCenter::borrowFrom
FUNC 57d4a 68 0 Config::ConfigCenter::ConfigCenter
FUNC 57db2 af 0 Config::ConfigCenter::~ConfigCenter
FUNC 57e62 68e 0 Config::ConfigCenter::loadXml
FUNC 584f0 2ea 0 Config::ConfigCenter::saveXml
FUNC 587da 78 0 Config::ConfigCenter::get
FUNC 58852 197 0 Config::ConfigCenter::set
FUNC 589ea 19a 0 Config::ConfigCenter::setInt
FUNC 58b84 1a8 0 Config::ConfigCenter::registValueWatcher
FUNC 58d2c 19a 0 Config::ConfigCenter::unregistIntValueWatcher
FUNC 58ec6 a1 0 Config::ConfigCenter::get
FUNC 58f68 19a 0 Config::ConfigCenter::set
FUNC 59102 1a8 0 Config::ConfigCenter::registValueWatcher
FUNC 592aa 19a 0 Config::ConfigCenter::unregistStrValueWatcher
FUNC 59444 233 0 __static_initialization_and_destruction_0
FUNC 59677 15 0 _GLOBAL__I__ZN6Config12ConfigCenter16TOP_XMLNODE_NAMEE
FUNC 5968c 14 0 std::operator&
FUNC 596a0 2d 0 std::operator&=
FUNC 596cd e 0 std::operator~
FUNC 596dc 2d 0 std::ios_base::unsetf
FUNC 5970a f 0 boost::condition_error::what
FUNC 5971a 25 0 boost::lock_error::lock_error
FUNC 59740 15 0 boost::detail::shared_count::shared_count
FUNC 59756 32 0 boost::detail::shared_count::swap
FUNC 59788 51 0 boost::pthread::pthread_mutex_scoped_lock::pthread_mutex_scoped_lock
FUNC 597da 42 0 boost::pthread::pthread_mutex_scoped_lock::unlock
FUNC 5981c 26 0 boost::pthread::pthread_mutex_scoped_lock::~pthread_mutex_scoped_lock
FUNC 59842 e7 0 boost::condition_variable::condition_variable
FUNC 5992a 64 0 boost::condition_variable::~condition_variable
FUNC 5998e 4a 0 boost::detail::interruption_checker::check_for_interruption
FUNC 599d8 14a 0 boost::detail::interruption_checker::interruption_checker
FUNC 59b22 c0 0 boost::detail::interruption_checker::~interruption_checker
FUNC 59be2 25 0 boost::condition_error::condition_error
FUNC 59c08 3a 0 boost::condition_error::~condition_error
FUNC 59c42 26 0 boost::condition_error::~condition_error
FUNC 59c68 113 0 boost::condition_variable::wait
FUNC 59d7c 5a 0 boost::condition_variable::notify_one
FUNC 59dd6 5a 0 boost::condition_variable::notify_all
FUNC 59e30 30 0 boost::shared_mutex::release_waiters
FUNC 59e60 d9 0 boost::shared_mutex::shared_mutex
FUNC 59f3a 52 0 boost::shared_mutex::~shared_mutex
FUNC 59f8c dd 0 boost::shared_mutex::lock_shared
FUNC 5a06a 98 0 boost::shared_mutex::unlock_shared
FUNC 5a102 df 0 boost::shared_mutex::lock
FUNC 5a1e2 4d 0 boost::shared_mutex::unlock
FUNC 5a230 12 0 Config::IntParameter::_getCheckRange
FUNC 5a242 11 0 Config::IntParameter::_getMinValue
FUNC 5a254 11 0 Config::IntParameter::_getMaxValue
FUNC 5a266 11 0 Config::IntParameter::_getValue
FUNC 5a278 12 0 Config::StringParameter::_getValue
FUNC 5a28a 45 0 rapidxml::parse_error::parse_error
FUNC 5a2d0 12 0 rapidxml::parse_error::what
FUNC 5a2e2 140 0 Config::XmlParameter::~XmlParameter
FUNC 5a422 82 0 Config::XmlGroup::XmlGroup
FUNC 5a4a4 84 0 Config::XmlGroup::~XmlGroup
FUNC 5a528 3b 0 boost::shared_ptr<Config::ConfigCenter>::shared_ptr
FUNC 5a564 1a 0 std::map<std::basic_string<char, std::char_traits<char>, std::allocator<char> >, Config::IntParameter, std::less<std::basic_string<char, std::char_traits<char>, std::allocator<char> > >, std::allocator<std::pair<const std::basic_string<char, std::char_traits<char>, std::allocator<char> >, Config::IntParameter> > >::~map
FUNC 5a57e 1a 0 std::map<std::basic_string<char, std::char_traits<char>, std::allocator<char> >, Config::StringParameter, std::less<std::basic_string<char, std::char_traits<char>, std::allocator<char> > >, std::allocator<std::pair<const std::basic_string<char, std::char_traits<char>, std::allocator<char> >, Config::StringParameter> > >::~map
FUNC 5a598 5f 0 Config::XmlGroup::operator=
FUNC 5a5f8 1a 0 rapidxml::file<char>::~file
FUNC 5a612 1e 0 rapidxml::xml_document<char>::~xml_document
FUNC 5a630 15 0 boost::thread_cv_detail::lock_on_exit<boost::unique_lock<boost::mutex> >::lock_on_exit
FUNC 5a646 29 0 boost::thread_cv_detail::lock_on_exit<boost::unique_lock<boost::mutex> >::~lock_on_exit
FUNC 5a670 29 0 boost::thread_cv_detail::lock_on_exit<boost::unique_lock<boost::mutex> >::activate
FUNC 5a69a 30 0 boost::condition_error::condition_error
FUNC 5a6ca 80 0 boost::exception_detail::error_info_injector<boost::condition_error>::error_info_injector
FUNC 5a74a 63 0 boost::exception_detail::clone_impl<boost::exception_detail::error_info_injector<boost::condition_error> >::clone_impl
FUNC 5a7ad a2 0 boost::throw_exception<boost::condition_error>
FUNC 5a850 31 0 boost::unique_lock<boost::mutex>::unique_lock
FUNC 5a882 2d 0 boost::unique_lock<boost::mutex>::~unique_lock
FUNC 5a8b0 31 0 boost::shared_lock<boost::shared_mutex>::shared_lock
FUNC 5a8e2 2d 0 boost::shared_lock<boost::shared_mutex>::~shared_lock
FUNC 5a910 79 0 boost::unique_lock<boost::mutex>::unlock
FUNC 5a98a 76 0 boost::unique_lock<boost::mutex>::lock
FUNC 5aa00 1a 0 std::vector<Config::XmlGroup, std::allocator<Config::XmlGroup> >::vector
FUNC 5aa1a 6e 0 std::vector<Config::XmlGroup, std::allocator<Config::XmlGroup> >::~vector
FUNC 5aa88 1a 0 std::vector<Config::XmlParameter, std::allocator<Config::XmlParameter> >::vector
FUNC 5aaa2 6e 0 std::vector<Config::XmlParameter, std::allocator<Config::XmlParameter> >::~vector
FUNC 5ab10 29 0 boost::shared_ptr<Config::ConfigCenter>::shared_ptr
FUNC 5ab3a 11 0 boost::shared_ptr<Config::ConfigCenter>::get
FUNC 5ab4c 31 0 boost::unique_lock<boost::shared_mutex>::unique_lock
FUNC 5ab7e 2d 0 boost::unique_lock<boost::shared_mutex>::~unique_lock
FUNC 5abac 9c 0 boost::shared_ptr<Config::ConfigCenter>::reset<Config::ConfigCenter>
FUNC 5ac48 50 0 boost::shared_ptr<Config::ConfigCenter>::shared_ptr<Config::ConfigCenter>
FUNC 5ac98 73 0 boost::shared_ptr<Config::ConfigCenter>::operator=
FUNC 5ad0c 1a 0 std::map<std::basic_string<char, std::char_traits<char>, std::allocator<char> >, Config::IntParameter, std::less<std::basic_string<char, std::char_traits<char>, std::allocator<char> > >, std::allocator<std::pair<const std::basic_string<char, std::char_traits<char>, std::allocator<char> >, Config::IntParameter> > >::begin
FUNC 5ad26 1a 0 std::map<std::basic_string<char, std::char_traits<char>, std::allocator<char> >, Config::IntParameter, std::less<std::basic_string<char, std::char_traits<char>, std::allocator<char> > >, std::allocator<std::pair<const std::basic_string<char, std::char_traits<char>, std::allocator<char> >, Config::IntParameter> > >::end
FUNC 5ad40 1a 0 std::map<std::basic_string<char, std::char_traits<char>, std::allocator<char> >, Config::IntParameter, std::less<std::basic_string<char, std::char_traits<char>, std::allocator<char> > >, std::allocator<std::pair<const std::basic_string<char, std::char_traits<char>, std::allocator<char> >, Config::IntParameter> > >::key_comp
FUNC 5ad5a 1a 0 std::map<std::basic_string<char, std::char_traits<char>, std::allocator<char> >, Config::IntParameter, std::less<std::basic_string<char, std::char_traits<char>, std::allocator<char> > >, std::allocator<std::pair<const std::basic_string<char, std::char_traits<char>, std::allocator<char> >, Config::IntParameter> > >::map
FUNC 5ad74 1a 0 std::_Rb_tree<std::basic_string<char, std::char_traits<char>, std::allocator<char> >, std::pair<const std::basic_string<char, std::char_traits<char>, std::allocator<char> >, Config::IntParameter>, std::_Select1st<std::pair<const std::basic_string<char, std::char_traits<char>, std::allocator<char> >, Config::IntParameter> >, std::less<std::basic_string<char, std::char_traits<char>, std::allocator<char> > >, std::allocator<std::pair<const std::basic_string<char, std::char_traits<char>, std::allocator<char> >, Config::IntParameter> > >::_Rb_tree_impl<std::less<std::basic_string<char, std::char_traits<char>, std::allocator<char> > >, false>::~_Rb_tree_impl
FUNC 5ad8e 63 0 std::_Rb_tree<std::basic_string<char, std::char_traits<char>, std::allocator<char> >, std::pair<const std::basic_string<char, std::char_traits<char>, std::allocator<char> >, Config::IntParameter>, std::_Select1st<std::pair<const std::basic_string<char, std::char_traits<char>, std::allocator<char> >, Config::IntParameter> >, std::less<std::basic_string<char, std::char_traits<char>, std::allocator<char> > >, std::allocator<std::pair<const std::basic_string<char, std::char_traits<char>, std::allocator<char> >, Config::IntParameter> > >::~_Rb_tree
FUNC 5adf2 22 0 std::_Rb_tree_iterator<std::pair<const std::basic_string<char, std::char_traits<char>, std::allocator<char> >, Config::IntParameter> >::operator!=
FUNC 5ae14 15 0 std::_Rb_tree_iterator<std::pair<const std::basic_string<char, std::char_traits<char>, std::allocator<char> >, Config::IntParameter> >::operator->
FUNC 5ae2a 28 0 std::_Rb_tree_iterator<std::pair<const std::basic_string<char, std::char_traits<char>, std::allocator<char> >, Config::IntParameter> >::operator++
FUNC 5ae52 15 0 std::_Rb_tree_iterator<std::pair<const std::basic_string<char, std::char_traits<char>, std::allocator<char> >, Config::IntParameter> >::operator*
FUNC 5ae68 47 0 std::map<std::basic_string<char, std::char_traits<char>, std::allocator<char> >, Config::IntParameter, std::less<std::basic_string<char, std::char_traits<char>, std::allocator<char> > >, std::allocator<std::pair<const std::basic_string<char, std::char_traits<char>, std::allocator<char> >, Config::IntParameter> > >::insert
FUNC 5aeb0 36 0 std::_Rb_tree_iterator<std::pair<const std::basic_string<char, std::char_traits<char>, std::allocator<char> >, Config::IntParameter> >::operator++
FUNC 5aee6 2d 0 std::map<std::basic_string<char, std::char_traits<char>, std::allocator<char> >, Config::IntParameter, std::less<std::basic_string<char, std::char_traits<char>, std::allocator<char> > >, std::allocator<std::pair<const std::basic_string<char, std::char_traits<char>, std::allocator<char> >, Config::IntParameter> > >::insert<std::_Rb_tree_iterator<std::pair<const std::basic_string<char, std::char_traits<char>, std::allocator<char> >, Config::IntParameter> > >
FUNC 5af14 1a 0 std::map<std::basic_string<char, std::char_traits<char>, std::allocator<char> >, Config::StringParameter, std::less<std::basic_string<char, std::char_traits<char>, std::allocator<char> > >, std::allocator<std::pair<const std::basic_string<char, std::char_traits<char>, std::allocator<char> >, Config::StringParameter> > >::begin
FUNC 5af2e 1a 0 std::map<std::basic_string<char, std::char_traits<char>, std::allocator<char> >, Config::StringParameter, std::less<std::basic_string<char, std::char_traits<char>, std::allocator<char> > >, std::allocator<std::pair<const std::basic_string<char, std::char_traits<char>, std::allocator<char> >, Config::StringParameter> > >::end
FUNC 5af48 1a 0 std::map<std::basic_string<char, std::char_traits<char>, std::allocator<char> >, Config::StringParameter, std::less<std::basic_string<char, std::char_traits<char>, std::allocator<char> > >, std::allocator<std::pair<const std::basic_string<char, std::char_traits<char>, std::allocator<char> >, Config::StringParameter> > >::key_comp
FUNC 5af62 1a 0 std::map<std::basic_string<char, std::char_traits<char>, std::allocator<char> >, Config::StringParameter, std::less<std::basic_string<char, std::char_traits<char>, std::allocator<char> > >, std::allocator<std::pair<const std::basic_string<char, std::char_traits<char>, std::allocator<char> >, Config::StringParameter> > >::map
FUNC 5af7c 1a 0 std::_Rb_tree<std::basic_string<char, std::char_traits<char>, std::allocator<char> >, std::pair<const std::basic_string<char, std::char_traits<char>, std::allocator<char> >, Config::StringParameter>, std::_Select1st<std::pair<const std::basic_string<char, std::char_traits<char>, std::allocator<char> >, Config::StringParameter> >, std::less<std::basic_string<char, std::char_traits<char>, std::allocator<char> > >, std::allocator<std::pair<const std::basic_string<char, std::char_traits<char>, std::allocator<char> >, Config::StringParameter> > >::_Rb_tree_impl<std::less<std::basic_string<char, std::char_traits<char>, std::allocator<char> > >, false>::~_Rb_tree_impl
FUNC 5af96 63 0 std::_Rb_tree<std::basic_string<char, std::char_traits<char>, std::allocator<char> >, std::pair<const std::basic_string<char, std::char_traits<char>, std::allocator<char> >, Config::StringParameter>, std::_Select1st<std::pair<const std::basic_string<char, std::char_traits<char>, std::allocator<char> >, Config::StringParameter> >, std::less<std::basic_string<char, std::char_traits<char>, std::allocator<char> > >, std::allocator<std::pair<const std::basic_string<char, std::char_traits<char>, std::allocator<char> >, Config::StringParameter> > >::~_Rb_tree
FUNC 5affa 22 0 std::_Rb_tree_iterator<std::pair<const std::basic_string<char, std::char_traits<char>, std::allocator<char> >, Config::StringParameter> >::operator!=
FUNC 5b01c 15 0 std::_Rb_tree_iterator<std::pair<const std::basic_string<char, std::char_traits<char>, std::allocator<char> >, Config::StringParameter> >::operator->
FUNC 5b032 28 0 std::_Rb_tree_iterator<std::pair<const std::basic_string<char, std::char_traits<char>, std::allocator<char> >, Config::StringParameter> >::operator++
FUNC 5b05a 15 0 std::_Rb_tree_iterator<std::pair<const std::basic_string<char, std::char_traits<char>, std::allocator<char> >, Config::StringParameter> >::operator*
FUNC 5b070 47 0 std::map<std::basic_string<char, std::char_traits<char>, std::allocator<char> >, Config::StringParameter, std::less<std::basic_string<char, std::char_traits<char>, std::allocator<char> > >, std::allocator<std::pair<const std::basic_string<char, std::char_traits<char>, std::allocator<char> >, Config::StringParameter> > >::insert
FUNC 5b0b8 36 0 std::_Rb_tree_iterator<std::pair<const std::basic_string<char, std::char_traits<char>, std::allocator<char> >, Config::StringParameter> >::operator++
FUNC 5b0ee 2d 0 std::map<std::basic_string<char, std::char_traits<char>, std::allocator<char> >, Config::StringParameter, std::less<std::basic_string<char, std::char_traits<char>, std::allocator<char> > >, std::allocator<std::pair<const std::basic_string<char, std::char_traits<char>, std::allocator<char> >, Config::StringParameter> > >::insert<std::_Rb_tree_iterator<std::pair<const std::basic_string<char, std::char_traits<char>, std::allocator<char> >, Config::StringParameter> > >
FUNC 5b11c 295 0 std::vector<Config::XmlGroup, std::allocator<Config::XmlGroup> >::operator=
FUNC 5b3b2 295 0 std::vector<Config::XmlParameter, std::allocator<Config::XmlParameter> >::operator=
FUNC 5b648 32d 0 rapidxml::file<char>::file
FUNC 5b976 2f 0 rapidxml::xml_document<char>::xml_document
FUNC 5b9a6 1a 0 rapidxml::memory_pool<char>::~memory_pool
FUNC 5b9c0 1a 0 rapidxml::file<char>::data
FUNC 5b9da 3a 0 rapidxml::parse_error::~parse_error
FUNC 5ba14 26 0 rapidxml::parse_error::~parse_error
FUNC 5ba3a fd 0 rapidxml::xml_document<char>::parse<0>
FUNC 5bb38 cf 0 rapidxml::xml_node<char>::first_node
FUNC 5bc08 28 0 rapidxml::xml_base<char>::name
FUNC 5bc30 28 0 std::operator!=<char, std::char_traits<char>, std::allocator<char> >
FUNC 5bc58 b4 0 rapidxml::memory_pool<char>::allocate_string
FUNC 5bd0c 119 0 rapidxml::memory_pool<char>::allocate_node
FUNC 5be26 d6 0 rapidxml::xml_node<char>::append_node
FUNC 5befc 2a 0 rapidxml::operator<< <char>
FUNC 5bf26 25 0 std::map<std::basic_string<char, std::char_traits<char>, std::allocator<char> >, Config::IntParameter, std::less<std::basic_string<char, std::char_traits<char>, std::allocator<char> > >, std::allocator<std::pair<const std::basic_string<char, std::char_traits<char>, std::allocator<char> >, Config::IntParameter> > >::find
FUNC 5bf4c 25 0 std::map<std::basic_string<char, std::char_traits<char>, std::allocator<char> >, Config::StringParameter, std::less<std::basic_string<char, std::char_traits<char>, std::allocator<char> > >, std::allocator<std::pair<const std::basic_string<char, std::char_traits<char>, std::allocator<char> >, Config::StringParameter> > >::find
FUNC 5bf71 2f 0 boost::enable_error_info<boost::condition_error>
FUNC 5bfa0 93 0 boost::exception_detail::error_info_injector<boost::condition_error>::~error_info_injector
FUNC 5c042 26 0 boost::exception_detail::error_info_injector<boost::condition_error>::~error_info_injector
FUNC 5c068 2f 0 boost::enable_current_exception<boost::exception_detail::error_info_injector<boost::condition_error> >
FUNC 5c098 7a 0 boost::exception_detail::clone_impl<boost::exception_detail::error_info_injector<boost::condition_error> >::~clone_impl
FUNC 5c130 26 0 boost::exception_detail::clone_impl<boost::exception_detail::error_info_injector<boost::condition_error> >::~clone_impl
FUNC 5c156 12 0 boost::unique_lock<boost::mutex>::owns_lock
FUNC 5c168 76 0 boost::shared_lock<boost::shared_mutex>::lock
FUNC 5c1de 12 0 boost::shared_lock<boost::shared_mutex>::owns_lock
FUNC 5c1f0 1a 0 std::_Vector_base<Config::XmlGroup, std::allocator<Config::XmlGroup> >::_Vector_impl::~_Vector_impl
FUNC 5c20a 1a 0 std::_Vector_base<Config::XmlGroup, std::allocator<Config::XmlGroup> >::_Vector_base
FUNC 5c224 8e 0 std::_Vector_base<Config::XmlGroup, std::allocator<Config::XmlGroup> >::~_Vector_base
FUNC 5c2b2 e 0 std::_Vector_base<Config::XmlGroup, std::allocator<Config::XmlGroup> >::_M_get_Tp_allocator
FUNC 5c2c0 29 0 std::_Destroy<Config::XmlGroup*, Config::XmlGroup>
FUNC 5c2ea 1a 0 std::_Vector_base<Config::XmlParameter, std::allocator<Config::XmlParameter> >::_Vector_impl::~_Vector_impl
FUNC 5c304 1a 0 std::_Vector_base<Config::XmlParameter, std::allocator<Config::XmlParameter> >::_Vector_base
FUNC 5c31e 8e 0 std::_Vector_base<Config::XmlParameter, std::allocator<Config::XmlParameter> >::~_Vector_base
FUNC 5c3ac e 0 std::_Vector_base<Config::XmlParameter, std::allocator<Config::XmlParameter> >::_M_get_Tp_allocator
FUNC 5c3ba 29 0 std::_Destroy<Config::XmlParameter*, Config::XmlParameter>
FUNC 5c3e4 76 0 boost::unique_lock<boost::shared_mutex>::lock
FUNC 5c45a 12 0 boost::unique_lock<boost::shared_mutex>::owns_lock
FUNC 5c46c 40 0 boost::shared_ptr<Config::ConfigCenter>::swap
FUNC 5c4ac 84 0 boost::detail::shared_count::shared_count<Config::ConfigCenter>
FUNC 5c530 2c 0 std::_Rb_tree<std::basic_string<char, std::char_traits<char>, std::allocator<char> >, std::pair<const std::basic_string<char, std::char_traits<char>, std::allocator<char> >, Config::IntParameter>, std::_Select1st<std::pair<const std::basic_string<char, std::char_traits<char>, std::allocator<char> >, Config::IntParameter> >, std::less<std::basic_string<char, std::char_traits<char>, std::allocator<char> > >, std::allocator<std::pair<const std::basic_string<char, std::char_traits<char>, std::allocator<char> >, Config::IntParameter> > >::begin
FUNC 5c55c 2c 0 std::_Rb_tree<std::basic_string<char, std::char_traits<char>, std::allocator<char> >, std::pair<const std::basic_string<char, std::char_traits<char>, std::allocator<char> >, Config::IntParameter>, std::_Select1st<std::pair<const std::basic_string<char, std::char_traits<char>, std::allocator<char> >, Config::IntParameter> >, std::less<std::basic_string<char, std::char_traits<char>, std::allocator<char> > >, std::allocator<std::pair<const std::basic_string<char, std::char_traits<char>, std::allocator<char> >, Config::IntParameter> > >::end
FUNC 5c588 a 0 std::_Rb_tree<std::basic_string<char, std::char_traits<char>, std::allocator<char> >, std::pair<const std::basic_string<char, std::char_traits<char>, std::allocator<char> >, Config::IntParameter>, std::_Select1st<std::pair<const std::basic_string<char, std::char_traits<char>, std::allocator<char> >, Config::IntParameter> >, std::less<std::basic_string<char, std::char_traits<char>, std::allocator<char> > >, std::allocator<std::pair<const std::basic_string<char, std::char_traits<char>, std::allocator<char> >, Config::IntParameter> > >::key_comp
FUNC 5c592 1a 0 std::_Rb_tree<std::basic_string<char, std::char_traits<char>, std::allocator<char> >, std::pair<const std::basic_string<char, std::char_traits<char>, std::allocator<char> >, Config::IntParameter>, std::_Select1st<std::pair<const std::basic_string<char, std::char_traits<char>, std::allocator<char> >, Config::IntParameter> >, std::less<std::basic_string<char, std::char_traits<char>, std::allocator<char> > >, std::allocator<std::pair<const std::basic_string<char, std::char_traits<char>, std::allocator<char> >, Config::IntParameter> > >::_Rb_tree
FUNC 5c5ac 1a 0 std::allocator<std::_Rb_tree_node<std::pair<const std::basic_string<char, std::char_traits<char>, std::allocator<char> >, Config::IntParameter> > >::~allocator
FUNC 5c5c6 69 0 std::_Rb_tree<std::basic_string<char, std::char_traits<char>, std::allocator<char> >, std::pair<const std::basic_string<char, std::char_traits<char>, std::allocator<char> >, Config::IntParameter>, std::_Select1st<std::pair<const std::basic_string<char, std::char_traits<char>, std::allocator<char> >, Config::IntParameter> >, std::less<std::basic_string<char, std::char_traits<char>, std::allocator<char> > >, std::allocator<std::pair<const std::basic_string<char, std::char_traits<char>, std::allocator<char> >, Config::IntParameter> > >::_M_erase
FUNC 5c630 12 0 std::_Rb_tree<std::basic_string<char, std::char_traits<char>, std::allocator<char> >, std::pair<const std::basic_string<char, std::char_traits<char>, std::allocator<char> >, Config::IntParameter>, std::_Select1st<std::pair<const std::basic_string<char, std::char_traits<char>, std::allocator<char> >, Config::IntParameter> >, std::less<std::basic_string<char, std::char_traits<char>, std::allocator<char> > >, std::allocator<std::pair<const std::basic_string<char, std::char_traits<char>, std::allocator<char> >, Config::IntParameter> > >::_M_begin
FUNC 5c642 271 0 std::_Rb_tree<std::basic_string<char, std::char_traits<char>, std::allocator<char> >, std::pair<const std::basic_string<char, std::char_traits<char>, std::allocator<char> >, Config::IntParameter>, std::_Select1st<std::pair<const std::basic_string<char, std::char_traits<char>, std::allocator<char> >, Config::IntParameter> >, std::less<std::basic_string<char, std::char_traits<char>, std::allocator<char> > >, std::allocator<std::pair<const std::basic_string<char, std::char_traits<char>, std::allocator<char> >, Config::IntParameter> > >::_M_insert_unique
FUNC 5c8b4 89 0 std::_Rb_tree<std::basic_string<char, std::char_traits<char>, std::allocator<char> >, std::pair<const std::basic_string<char, std::char_traits<char>, std::allocator<char> >, Config::IntParameter>, std::_Select1st<std::pair<const std::basic_string<char, std::char_traits<char>, std::allocator<char> >, Config::IntParameter> >, std::less<std::basic_string<char, std::char_traits<char>, std::allocator<char> > >, std::allocator<std::pair<const std::basic_string<char, std::char_traits<char>, std::allocator<char> >, Config::IntParameter> > >::_M_insert_unique<std::_Rb_tree_iterator<std::pair<const std::basic_string<char, std::char_traits<char>, std::allocator<char> >, Config::IntParameter> > >
FUNC 5c93e 2c 0 std::_Rb_tree<std::basic_string<char, std::char_traits<char>, std::allocator<char> >, std::pair<const std::basic_string<char, std::char_traits<char>, std::allocator<char> >, Config::StringParameter>, std::_Select1st<std::pair<const std::basic_string<char, std::char_traits<char>, std::allocator<char> >, Config::StringParameter> >, std::less<std::basic_string<char, std::char_traits<char>, std::allocator<char> > >, std::allocator<std::pair<const std::basic_string<char, std::char_traits<char>, std::allocator<char> >, Config::StringParameter> > >::begin
FUNC 5c96a 2c 0 std::_Rb_tree<std::basic_string<char, std::char_traits<char>, std::allocator<char> >, std::pair<const std::basic_string<char, std::char_traits<char>, std::allocator<char> >, Config::StringParameter>, std::_Select1st<std::pair<const std::basic_string<char, std::char_traits<char>, std::allocator<char> >, Config::StringParameter> >, std::less<std::basic_string<char, std::char_traits<char>, std::allocator<char> > >, std::allocator<std::pair<const std::basic_string<char, std::char_traits<char>, std::allocator<char> >, Config::StringParameter> > >::end
FUNC 5c996 a 0 std::_Rb_tree<std::basic_string<char, std::char_traits<char>, std::allocator<char> >, std::pair<const std::basic_string<char, std::char_traits<char>, std::allocator<char> >, Config::StringParameter>, std::_Select1st<std::pair<const std::basic_string<char, std::char_traits<char>, std::allocator<char> >, Config::StringParameter> >, std::less<std::basic_string<char, std::char_traits<char>, std::allocator<char> > >, std::allocator<std::pair<const std::basic_string<char, std::char_traits<char>, std::allocator<char> >, Config::StringParameter> > >::key_comp
FUNC 5c9a0 1a 0 std::_Rb_tree<std::basic_string<char, std::char_traits<char>, std::allocator<char> >, std::pair<const std::basic_string<char, std::char_traits<char>, std::allocator<char> >, Config::StringParameter>, std::_Select1st<std::pair<const std::basic_string<char, std::char_traits<char>, std::allocator<char> >, Config::StringParameter> >, std::less<std::basic_string<char, std::char_traits<char>, std::allocator<char> > >, std::allocator<std::pair<const std::basic_string<char, std::char_traits<char>, std::allocator<char> >, Config::StringParameter> > >::_Rb_tree
FUNC 5c9ba 1a 0 std::allocator<std::_Rb_tree_node<std::pair<const std::basic_string<char, std::char_traits<char>, std::allocator<char> >, Config::StringParameter> > >::~allocator
FUNC 5c9d4 69 0 std::_Rb_tree<std::basic_string<char, std::char_traits<char>, std::allocator<char> >, std::pair<const std::basic_string<char, std::char_traits<char>, std::allocator<char> >, Config::StringParameter>, std::_Select1st<std::pair<const std::basic_string<char, std::char_traits<char>, std::allocator<char> >, Config::StringParameter> >, std::less<std::basic_string<char, std::char_traits<char>, std::allocator<char> > >, std::allocator<std::pair<const std::basic_string<char, std::char_traits<char>, std::allocator<char> >, Config::StringParameter> > >::_M_erase
FUNC 5ca3e 12 0 std::_Rb_tree<std::basic_string<char, std::char_traits<char>, std::allocator<char> >, std::pair<const std::basic_string<char, std::char_traits<char>, std::allocator<char> >, Config::StringParameter>, std::_Select1st<std::pair<const std::basic_string<char, std::char_traits<char>, std::allocator<char> >, Config::StringParameter> >, std::less<std::basic_string<char, std::char_traits<char>, std::allocator<char> > >, std::allocator<std::pair<const std::basic_string<char, std::char_traits<char>, std::allocator<char> >, Config::StringParameter> > >::_M_begin
FUNC 5ca50 271 0 std::_Rb_tree<std::basic_string<char, std::char_traits<char>, std::allocator<char> >, std::pair<const std::basic_string<char, std::char_traits<char>, std::allocator<char> >, Config::StringParameter>, std::_Select1st<std::pair<const std::basic_string<char, std::char_traits<char>, std::allocator<char> >, Config::StringParameter> >, std::less<std::basic_string<char, std::char_traits<char>, std::allocator<char> > >, std::allocator<std::pair<const std::basic_string<char, std::char_traits<char>, std::allocator<char> >, Config::StringParameter> > >::_M_insert_unique
FUNC 5ccc2 89 0 std::_Rb_tree<std::basic_string<char, std::char_traits<char>, std::allocator<char> >, std::pair<const std::basic_string<char, std::char_traits<char>, std::allocator<char> >, Config::StringParameter>, std::_Select1st<std::pair<const std::basic_string<char, std::char_traits<char>, std::allocator<char> >, Config::StringParameter> >, std::less<std::basic_string<char, std::char_traits<char>, std::allocator<char> > >, std::allocator<std::pair<const std::basic_string<char, std::char_traits<char>, std::allocator<char> >, Config::StringParameter> > >::_M_insert_unique<std::_Rb_tree_iterator<std::pair<const std::basic_string<char, std::char_traits<char>, std::allocator<char> >, Config::StringParameter> > >
FUNC 5cd4c 3a 0 std::vector<Config::XmlGroup, std::allocator<Config::XmlGroup> >::size
FUNC 5cd86 3a 0 std::vector<Config::XmlGroup, std::allocator<Config::XmlGroup> >::capacity
FUNC 5cdc0 30 0 std::vector<Config::XmlGroup, std::allocator<Config::XmlGroup> >::begin
FUNC 5cdf0 31 0 std::vector<Config::XmlGroup, std::allocator<Config::XmlGroup> >::end
FUNC 5ce22 a1 0 std::vector<Config::XmlGroup, std::allocator<Config::XmlGroup> >::_M_allocate_and_copy<__gnu_cxx::__normal_iterator<const Config::XmlGroup*, std::vector<Config::XmlGroup, std::allocator<Config::XmlGroup> > > >
FUNC 5cec4 34 0 std::_Vector_base<Config::XmlGroup, std::allocator<Config::XmlGroup> >::_M_deallocate
FUNC 5cef8 25 0 std::vector<Config::XmlGroup, std::allocator<Config::XmlGroup> >::begin
FUNC 5cf1d 46 0 std::copy<__gnu_cxx::__normal_iterator<const Config::XmlGroup*, std::vector<Config::XmlGroup, std::allocator<Config::XmlGroup> > >, __gnu_cxx::__normal_iterator<Config::XmlGroup*, std::vector<Config::XmlGroup, std::allocator<Config::XmlGroup> > > >
FUNC 5cf64 29 0 std::vector<Config::XmlGroup, std::allocator<Config::XmlGroup> >::end
FUNC 5cf8d 29 0 std::_Destroy<__gnu_cxx::__normal_iterator<Config::XmlGroup*, std::vector<Config::XmlGroup, std::allocator<Config::XmlGroup> > >, Config::XmlGroup>
FUNC 5cfb6 46 0 std::copy<Config::XmlGroup*, Config::XmlGroup*>
FUNC 5cffc 31 0 std::__uninitialized_copy_a<Config::XmlGroup*, Config::XmlGroup*, Config::XmlGroup>
FUNC 5d02e 3a 0 std::vector<Config::XmlParameter, std::allocator<Config::XmlParameter> >::size
FUNC 5d068 3a 0 std::vector<Config::XmlParameter, std::allocator<Config::XmlParameter> >::capacity
FUNC 5d0a2 30 0 std::vector<Config::XmlParameter, std::allocator<Config::XmlParameter> >::begin
FUNC 5d0d2 31 0 std::vector<Config::XmlParameter, std::allocator<Config::XmlParameter> >::end
FUNC 5d104 a1 0 std::vector<Config::XmlParameter, std::allocator<Config::XmlParameter> >::_M_allocate_and_copy<__gnu_cxx::__normal_iterator<const Config::XmlParameter*, std::vector<Config::XmlParameter, std::allocator<Config::XmlParameter> > > >
FUNC 5d1a6 34 0 std::_Vector_base<Config::XmlParameter, std::allocator<Config::XmlParameter> >::_M_deallocate
FUNC 5d1da 25 0 std::vector<Config::XmlParameter, std::allocator<Config::XmlParameter> >::begin
FUNC 5d1ff 46 0 std::copy<__gnu_cxx::__normal_iterator<const Config::XmlParameter*, std::vector<Config::XmlParameter, std::allocator<Config::XmlParameter> > >, __gnu_cxx::__normal_iterator<Config::XmlParameter*, std::vector<Config::XmlParameter, std::allocator<Config::XmlParameter> > > >
FUNC 5d246 29 0 std::vector<Config::XmlParameter, std::allocator<Config::XmlParameter> >::end
FUNC 5d26f 29 0 std::_Destroy<__gnu_cxx::__normal_iterator<Config::XmlParameter*, std::vector<Config::XmlParameter, std::allocator<Config::XmlParameter> > >, Config::XmlParameter>
FUNC 5d298 46 0 std::copy<Config::XmlParameter*, Config::XmlParameter*>
FUNC 5d2de 31 0 std::__uninitialized_copy_a<Config::XmlParameter*, Config::XmlParameter*, Config::XmlParameter>
FUNC 5d310 11 0 std::fpos<__mbstate_t>::operator std::streamoff
FUNC 5d322 25 0 std::fpos<__mbstate_t>::fpos
FUNC 5d348 95 0 std::vector<char, std::allocator<char> >::resize
FUNC 5d3de 2a 0 std::vector<char, std::allocator<char> >::front
FUNC 5d408 3f 0 rapidxml::xml_node<char>::xml_node
FUNC 5d448 38 0 rapidxml::memory_pool<char>::memory_pool
FUNC 5d480 a5 0 rapidxml::memory_pool<char>::clear
FUNC 5d526 5f 0 rapidxml::xml_node<char>::remove_all_nodes
FUNC 5d586 5f 0 rapidxml::xml_node<char>::remove_all_attributes
FUNC 5d5e6 52 0 rapidxml::xml_document<char>::parse_bom<0>
FUNC 5d638 45 0 rapidxml::xml_document<char>::skip<rapidxml::xml_document<char>::whitespace_pred, 0>
FUNC 5d67e 3ae 0 rapidxml::xml_document<char>::parse_node<0>
FUNC 5da2c 3a 0 rapidxml::internal::measure<char>
FUNC 5da66 e2 0 rapidxml::xml_node<char>::next_sibling
FUNC 5db48 25 0 rapidxml::xml_base<char>::name_size
FUNC 5db6d dd 0 rapidxml::internal::compare<char>
FUNC 5dc4a b 0 rapidxml::xml_base<char>::nullstr
FUNC 5dc55 2a 0 std::operator==<char, std::char_traits<char>, std::allocator<char> >
FUNC 5dc80 113 0 rapidxml::memory_pool<char>::allocate_aligned
FUNC 5dd94 29 0 rapidxml::xml_base<char>::name
FUNC 5ddbe 34 0 rapidxml::xml_base<char>::name
FUNC 5ddf2 2a 0 rapidxml::xml_base<char>::value
FUNC 5de1c 34 0 rapidxml::xml_base<char>::value
FUNC 5de50 11 0 rapidxml::xml_node<char>::type
FUNC 5de62 12 0 rapidxml::xml_base<char>::parent
FUNC 5de74 4c 0 rapidxml::print<char>
FUNC 5dec0 b6 0 std::_Rb_tree<std::basic_string<char, std::char_traits<char>, std::allocator<char> >, std::pair<const std::basic_string<char, std::char_traits<char>, std::allocator<char> >, Config::IntParameter>, std::_Select1st<std::pair<const std::basic_string<char, std::char_traits<char>, std::allocator<char> >, Config::IntParameter> >, std::less<std::basic_string<char, std::char_traits<char>, std::allocator<char> > >, std::allocator<std::pair<const std::basic_string<char, std::char_traits<char>, std::allocator<char> >, Config::IntParameter> > >::find
FUNC 5df76 b6 0 std::_Rb_tree<std::basic_string<char, std::char_traits<char>, std::allocator<char> >, std::pair<const std::basic_string<char, std::char_traits<char>, std::allocator<char> >, Config::StringParameter>, std::_Select1st<std::pair<const std::basic_string<char, std::char_traits<char>, std::allocator<char> >, Config::StringParameter> >, std::less<std::basic_string<char, std::char_traits<char>, std::allocator<char> > >, std::allocator<std::pair<const std::basic_string<char, std::char_traits<char>, std::allocator<char> >, Config::StringParameter> > >::find
FUNC 5e02c 4c 0 boost::exception_detail::error_info_injector<boost::condition_error>::error_info_injector
FUNC 5e078 b9 0 boost::exception_detail::clone_impl<boost::exception_detail::error_info_injector<boost::condition_error> >::clone_impl
FUNC 5e132 3d 0 std::_Vector_base<Config::XmlGroup, std::allocator<Config::XmlGroup> >::_Vector_impl::_Vector_impl
FUNC 5e170 1a 0 std::allocator<Config::XmlGroup>::~allocator
FUNC 5e18a 25 0 std::_Destroy<Config::XmlGroup*>
FUNC 5e1b0 3d 0 std::_Vector_base<Config::XmlParameter, std::allocator<Config::XmlParameter> >::_Vector_impl::_Vector_impl
FUNC 5e1ee 1a 0 std::allocator<Config::XmlParameter>::~allocator
FUNC 5e208 25 0 std::_Destroy<Config::XmlParameter*>
FUNC 5e22d 32 0 std::swap<Config::ConfigCenter*>
FUNC 5e260 35 0 boost::detail::sp_counted_impl_p<Config::ConfigCenter>::sp_counted_impl_p
FUNC 5e295 2d 0 boost::checked_delete<Config::ConfigCenter>
FUNC 5e2c2 19 0 std::_Rb_tree_iterator<std::pair<const std::basic_string<char, std::char_traits<char>, std::allocator<char> >, Config::IntParameter> >::_Rb_tree_iterator
FUNC 5e2dc 61 0 std::_Rb_tree<std::basic_string<char, std::char_traits<char>, std::allocator<char> >, std::pair<const std::basic_string<char, std::char_traits<char>, std::allocator<char> >, Config::IntParameter>, std::_Select1st<std::pair<const std::basic_string<char, std::char_traits<char>, std::allocator<char> >, Config::IntParameter> >, std::less<std::basic_string<char, std::char_traits<char>, std::allocator<char> > >, std::allocator<std::pair<const std::basic_string<char, std::char_traits<char>, std::allocator<char> >, Config::IntParameter> > >::_Rb_tree_impl<std::less<std::basic_string<char, std::char_traits<char>, std::allocator<char> > >, false>::_Rb_tree_impl
FUNC 5e33e a 0 __gnu_cxx::new_allocator<std::_Rb_tree_node<std::pair<const std::basic_string<char, std::char_traits<char>, std::allocator<char> >, Config::IntParameter> > >::~new_allocator
FUNC 5e348 12 0 std::_Rb_tree<std::basic_string<char, std::char_traits<char>, std::allocator<char> >, std::pair<const std::basic_string<char, std::char_traits<char>, std::allocator<char> >, Config::IntParameter>, std::_Select1st<std::pair<const std::basic_string<char, std::char_traits<char>, std::allocator<char> >, Config::IntParameter> >, std::less<std::basic_string<char, std::char_traits<char>, std::allocator<char> > >, std::allocator<std::pair<const std::basic_string<char, std::char_traits<char>, std::allocator<char> >, Config::IntParameter> > >::_S_right
FUNC 5e35a 12 0 std::_Rb_tree<std::basic_string<char, std::char_traits<char>, std::allocator<char> >, std::pair<const std::basic_string<char, std::char_traits<char>, std::allocator<char> >, Config::IntParameter>, std::_Select1st<std::pair<const std::basic_string<char, std::char_traits<char>, std::allocator<char> >, Config::IntParameter> >, std::less<std::basic_string<char, std::char_traits<char>, std::allocator<char> > >, std::allocator<std::pair<const std::basic_string<char, std::char_traits<char>, std::allocator<char> >, Config::IntParameter> > >::_S_left
FUNC 5e36c 86 0 std::_Rb_tree<std::basic_string<char, std::char_traits<char>, std::allocator<char> >, std::pair<const std::basic_string<char, std::char_traits<char>, std::allocator<char> >, Config::IntParameter>, std::_Select1st<std::pair<const std::basic_string<char, std::char_traits<char>, std::allocator<char> >, Config::IntParameter> >, std::less<std::basic_string<char, std::char_traits<char>, std::allocator<char> > >, std::allocator<std::pair<const std::basic_string<char, std::char_traits<char>, std::allocator<char> >, Config::IntParameter> > >::_M_destroy_node
FUNC 5e3f2 12 0 std::_Rb_tree<std::basic_string<char, std::char_traits<char>, std::allocator<char> >, std::pair<const std::basic_string<char, std::char_traits<char>, std::allocator<char> >, Config::IntParameter>, std::_Select1st<std::pair<const std::basic_string<char, std::char_traits<char>, std::allocator<char> >, Config::IntParameter> >, std::less<std::basic_string<char, std::char_traits<char>, std::allocator<char> > >, std::allocator<std::pair<const std::basic_string<char, std::char_traits<char>, std::allocator<char> >, Config::IntParameter> > >::_M_end
FUNC 5e404 12 0 std::_Select1st<std::pair<const std::basic_string<char, std::char_traits<char>, std::allocator<char> >, Config::IntParameter> >::operator()
FUNC 5e416 2c 0 std::_Rb_tree<std::basic_string<char, std::char_traits<char>, std::allocator<char> >, std::pair<const std::basic_string<char, std::char_traits<char>, std::allocator<char> >, Config::IntParameter>, std::_Select1st<std::pair<const std::basic_string<char, std::char_traits<char>, std::allocator<char> >, Config::IntParameter> >, std::less<std::basic_string<char, std::char_traits<char>, std::allocator<char> > >, std::allocator<std::pair<const std::basic_string<char, std::char_traits<char>, std::allocator<char> >, Config::IntParameter> > >::_S_key
FUNC 5e442 22 0 std::_Rb_tree_iterator<std::pair<const std::basic_string<char, std::char_traits<char>, std::allocator<char> >, Config::IntParameter> >::operator==
FUNC 5e464 e3 0 std::_Rb_tree<std::basic_string<char, std::char_traits<char>, std::allocator<char> >, std::pair<const std::basic_string<char, std::char_traits<char>, std::allocator<char> >, Config::IntParameter>, std::_Select1st<std::pair<const std::basic_string<char, std::char_traits<char>, std::allocator<char> >, Config::IntParameter> >, std::less<std::basic_string<char, std::char_traits<char>, std::allocator<char> > >, std::allocator<std::pair<const std::basic_string<char, std::char_traits<char>, std::allocator<char> >, Config::IntParameter> > >::_M_insert_
FUNC 5e548 2e 0 std::pair<std::_Rb_tree_iterator<std::pair<const std::basic_string<char, std::char_traits<char>, std::allocator<char> >, Config::IntParameter> >, bool>::pair
FUNC 5e576 28 0 std::_Rb_tree_iterator<std::pair<const std::basic_string<char, std::char_traits<char>, std::allocator<char> >, Config::IntParameter> >::operator--
FUNC 5e59e 2c 0 std::_Rb_tree<std::basic_string<char, std::char_traits<char>, std::allocator<char> >, std::pair<const std::basic_string<char, std::char_traits<char>, std::allocator<char> >, Config::IntParameter>, std::_Select1st<std::pair<const std::basic_string<char, std::char_traits<char>, std::allocator<char> >, Config::IntParameter> >, std::less<std::basic_string<char, std::char_traits<char>, std::allocator<char> > >, std::allocator<std::pair<const std::basic_string<char, std::char_traits<char>, std::allocator<char> >, Config::IntParameter> > >::_S_key
FUNC 5e5ca 4c0 0 std::_Rb_tree<std::basic_string<char, std::char_traits<char>, std::allocator<char> >, std::pair<const std::basic_string<char, std::char_traits<char>, std::allocator<char> >, Config::IntParameter>, std::_Select1st<std::pair<const std::basic_string<char, std::char_traits<char>, std::allocator<char> >, Config::IntParameter> >, std::less<std::basic_string<char, std::char_traits<char>, std::allocator<char> > >, std::allocator<std::pair<const std::basic_string<char, std::char_traits<char>, std::allocator<char> >, Config::IntParameter> > >::_M_insert_unique_
FUNC 5ea8a 1c 0 std::_Rb_tree_const_iterator<std::pair<const std::basic_string<char, std::char_traits<char>, std::allocator<char> >, Config::IntParameter> >::_Rb_tree_const_iterator
FUNC 5eaa6 19 0 std::_Rb_tree_iterator<std::pair<const std::basic_string<char, std::char_traits<char>, std::allocator<char> >, Config::StringParameter> >::_Rb_tree_iterator
FUNC 5eac0 61 0 std::_Rb_tree<std::basic_string<char, std::char_traits<char>, std::allocator<char> >, std::pair<const std::basic_string<char, std::char_traits<char>, std::allocator<char> >, Config::StringParameter>, std::_Select1st<std::pair<const std::basic_string<char, std::char_traits<char>, std::allocator<char> >, Config::StringParameter> >, std::less<std::basic_string<char, std::char_traits<char>, std::allocator<char> > >, std::allocator<std::pair<const std::basic_string<char, std::char_traits<char>, std::allocator<char> >, Config::StringParameter> > >::_Rb_tree_impl<std::less<std::basic_string<char, std::char_traits<char>, std::allocator<char> > >, false>::_Rb_tree_impl
FUNC 5eb22 a 0 __gnu_cxx::new_allocator<std::_Rb_tree_node<std::pair<const std::basic_string<char, std::char_traits<char>, std::allocator<char> >, Config::StringParameter> > >::~new_allocator
FUNC 5eb2c 12 0 std::_Rb_tree<std::basic_string<char, std::char_traits<char>, std::allocator<char> >, std::pair<const std::basic_string<char, std::char_traits<char>, std::allocator<char> >, Config::StringParameter>, std::_Select1st<std::pair<const std::basic_string<char, std::char_traits<char>, std::allocator<char> >, Config::StringParameter> >, std::less<std::basic_string<char, std::char_traits<char>, std::allocator<char> > >, std::allocator<std::pair<const std::basic_string<char, std::char_traits<char>, std::allocator<char> >, Config::StringParameter> > >::_S_right
FUNC 5eb3e 12 0 std::_Rb_tree<std::basic_string<char, std::char_traits<char>, std::allocator<char> >, std::pair<const std::basic_string<char, std::char_traits<char>, std::allocator<char> >, Config::StringParameter>, std::_Select1st<std::pair<const std::basic_string<char, std::char_traits<char>, std::allocator<char> >, Config::StringParameter> >, std::less<std::basic_string<char, std::char_traits<char>, std::allocator<char> > >, std::allocator<std::pair<const std::basic_string<char, std::char_traits<char>, std::allocator<char> >, Config::StringParameter> > >::_S_left
FUNC 5eb50 86 0 std::_Rb_tree<std::basic_string<char, std::char_traits<char>, std::allocator<char> >, std::pair<const std::basic_string<char, std::char_traits<char>, std::allocator<char> >, Config::StringParameter>, std::_Select1st<std::pair<const std::basic_string<char, std::char_traits<char>, std::allocator<char> >, Config::StringParameter> >, std::less<std::basic_string<char, std::char_traits<char>, std::allocator<char> > >, std::allocator<std::pair<const std::basic_string<char, std::char_traits<char>, std::allocator<char> >, Config::StringParameter> > >::_M_destroy_node
FUNC 5ebd6 12 0 std::_Rb_tree<std::basic_string<char, std::char_traits<char>, std::allocator<char> >, std::pair<const std::basic_string<char, std::char_traits<char>, std::allocator<char> >, Config::StringParameter>, std::_Select1st<std::pair<const std::basic_string<char, std::char_traits<char>, std::allocator<char> >, Config::StringParameter> >, std::less<std::basic_string<char, std::char_traits<char>, std::allocator<char> > >, std::allocator<std::pair<const std::basic_string<char, std::char_traits<char>, std::allocator<char> >, Config::StringParameter> > >::_M_end
FUNC 5ebe8 12 0 std::_Select1st<std::pair<const std::basic_string<char, std::char_traits<char>, std::allocator<char> >, Config::StringParameter> >::operator()
FUNC 5ebfa 2c 0 std::_Rb_tree<std::basic_string<char, std::char_traits<char>, std::allocator<char> >, std::pair<const std::basic_string<char, std::char_traits<char>, std::allocator<char> >, Config::StringParameter>, std::_Select1st<std::pair<const std::basic_string<char, std::char_traits<char>, std::allocator<char> >, Config::StringParameter> >, std::less<std::basic_string<char, std::char_traits<char>, std::allocator<char> > >, std::allocator<std::pair<const std::basic_string<char, std::char_traits<char>, std::allocator<char> >, Config::StringParameter> > >::_S_key
FUNC 5ec26 22 0 std::_Rb_tree_iterator<std::pair<const std::basic_string<char, std::char_traits<char>, std::allocator<char> >, Config::StringParameter> >::operator==
FUNC 5ec48 e3 0 std::_Rb_tree<std::basic_string<char, std::char_traits<char>, std::allocator<char> >, std::pair<const std::basic_string<char, std::char_traits<char>, std::allocator<char> >, Config::StringParameter>, std::_Select1st<std::pair<const std::basic_string<char, std::char_traits<char>, std::allocator<char> >, Config::StringParameter> >, std::less<std::basic_string<char, std::char_traits<char>, std::allocator<char> > >, std::allocator<std::pair<const std::basic_string<char, std::char_traits<char>, std::allocator<char> >, Config::StringParameter> > >::_M_insert_
FUNC 5ed2c 2e 0 std::pair<std::_Rb_tree_iterator<std::pair<const std::basic_string<char, std::char_traits<char>, std::allocator<char> >, Config::StringParameter> >, bool>::pair
FUNC 5ed5a 28 0 std::_Rb_tree_iterator<std::pair<const std::basic_string<char, std::char_traits<char>, std::allocator<char> >, Config::StringParameter> >::operator--
FUNC 5ed82 2c 0 std::_Rb_tree<std::basic_string<char, std::char_traits<char>, std::allocator<char> >, std::pair<const std::basic_string<char, std::char_traits<char>, std::allocator<char> >, Config::StringParameter>, std::_Select1st<std::pair<const std::basic_string<char, std::char_traits<char>, std::allocator<char> >, Config::StringParameter> >, std::less<std::basic_string<char, std::char_traits<char>, std::allocator<char> > >, std::allocator<std::pair<const std::basic_string<char, std::char_traits<char>, std::allocator<char> >, Config::StringParameter> > >::_S_key
FUNC 5edae 4c0 0 std::_Rb_tree<std::basic_string<char, std::char_traits<char>, std::allocator<char> >, std::pair<const std::basic_string<char, std::char_traits<char>, std::allocator<char> >, Config::StringParameter>, std::_Select1st<std::pair<const std::basic_string<char, std::char_traits<char>, std::allocator<char> >, Config::StringParameter> >, std::less<std::basic_string<char, std::char_traits<char>, std::allocator<char> > >, std::allocator<std::pair<const std::basic_string<char, std::char_traits<char>, std::allocator<char> >, Config::StringParameter> > >::_M_insert_unique_
FUNC 5f26e 1c 0 std::_Rb_tree_const_iterator<std::pair<const std::basic_string<char, std::char_traits<char>, std::allocator<char> >, Config::StringParameter> >::_Rb_tree_const_iterator
FUNC 5f28a 1c 0 __gnu_cxx::__normal_iterator<const Config::XmlGroup*, std::vector<Config::XmlGroup, std::allocator<Config::XmlGroup> > >::__normal_iterator
FUNC 5f2a6 38 0 std::_Vector_base<Config::XmlGroup, std::allocator<Config::XmlGroup> >::_M_allocate
FUNC 5f2de 31 0 std::__uninitialized_copy_a<__gnu_cxx::__normal_iterator<const Config::XmlGroup*, std::vector<Config::XmlGroup, std::allocator<Config::XmlGroup> > >, Config::XmlGroup*, Config::XmlGroup>
FUNC 5f310 22 0 __gnu_cxx::new_allocator<Config::XmlGroup>::deallocate
FUNC 5f332 1c 0 __gnu_cxx::__normal_iterator<Config::XmlGroup*, std::vector<Config::XmlGroup, std::allocator<Config::XmlGroup> > >::__normal_iterator
FUNC 5f34e e 0 std::__miter_base<__gnu_cxx::__normal_iterator<const Config::XmlGroup*, std::vector<Config::XmlGroup, std::allocator<Config::XmlGroup> > >, false>::__b
FUNC 5f35c 73 0 std::__copy_move_a2<false, __gnu_cxx::__normal_iterator<const Config::XmlGroup*, std::vector<Config::XmlGroup, std::allocator<Config::XmlGroup> > >, __gnu_cxx::__normal_iterator<Config::XmlGroup*, std::vector<Config::XmlGroup, std::allocator<Config::XmlGroup> > > >
FUNC 5f3cf 25 0 std::_Destroy<__gnu_cxx::__normal_iterator<Config::XmlGroup*, std::vector<Config::XmlGroup, std::allocator<Config::XmlGroup> > > >
FUNC 5f3f4 e 0 std::__miter_base<Config::XmlGroup*, false>::__b
FUNC 5f402 58 0 std::__copy_move_a2<false, Config::XmlGroup*, Config::XmlGroup*>
FUNC 5f45a 2d 0 std::uninitialized_copy<Config::XmlGroup*, Config::XmlGroup*>
FUNC 5f488 1c 0 __gnu_cxx::__normal_iterator<const Config::XmlParameter*, std::vector<Config::XmlParameter, std::allocator<Config::XmlParameter> > >::__normal_iterator
FUNC 5f4a4 38 0 std::_Vector_base<Config::XmlParameter, std::allocator<Config::XmlParameter> >::_M_allocate
FUNC 5f4dc 31 0 std::__uninitialized_copy_a<__gnu_cxx::__normal_iterator<const Config::XmlParameter*, std::vector<Config::XmlParameter, std::allocator<Config::XmlParameter> > >, Config::XmlParameter*, Config::XmlParameter>
FUNC 5f50e 22 0 __gnu_cxx::new_allocator<Config::XmlParameter>::deallocate
FUNC 5f530 1c 0 __gnu_cxx::__normal_iterator<Config::XmlParameter*, std::vector<Config::XmlParameter, std::allocator<Config::XmlParameter> > >::__normal_iterator
FUNC 5f54c e 0 std::__miter_base<__gnu_cxx::__normal_iterator<const Config::XmlParameter*, std::vector<Config::XmlParameter, std::allocator<Config::XmlParameter> > >, false>::__b
FUNC 5f55a 73 0 std::__copy_move_a2<false, __gnu_cxx::__normal_iterator<const Config::XmlParameter*, std::vector<Config::XmlParameter, std::allocator<Config::XmlParameter> > >, __gnu_cxx::__normal_iterator<Config::XmlParameter*, std::vector<Config::XmlParameter, std::allocator<Config::XmlParameter> > > >
FUNC 5f5cd 25 0 std::_Destroy<__gnu_cxx::__normal_iterator<Config::XmlParameter*, std::vector<Config::XmlParameter, std::allocator<Config::XmlParameter> > > >
FUNC 5f5f2 e 0 std::__miter_base<Config::XmlParameter*, false>::__b
FUNC 5f600 58 0 std::__copy_move_a2<false, Config::XmlParameter*, Config::XmlParameter*>
FUNC 5f658 2d 0 std::uninitialized_copy<Config::XmlParameter*, Config::XmlParameter*>
FUNC 5f686 44 0 std::vector<char, std::allocator<char> >::_M_erase_at_end
FUNC 5f6ca 3b 0 std::vector<char, std::allocator<char> >::insert
FUNC 5f706 11 0 __gnu_cxx::__normal_iterator<char*, std::vector<char, std::allocator<char> > >::operator*
FUNC 5f718 2d 0 rapidxml::xml_base<char>::xml_base
FUNC 5f746 52 0 rapidxml::memory_pool<char>::init
FUNC 5f798 33 0 rapidxml::memory_pool<char>::align
FUNC 5f7cc bc 0 rapidxml::xml_node<char>::first_attribute
FUNC 5f888 1b 0 rapidxml::xml_document<char>::whitespace_pred::test
FUNC 5f8a4 201 0 rapidxml::xml_document<char>::parse_element<0>
FUNC 5faa6 bb 0 rapidxml::xml_document<char>::parse_xml_declaration<0>
FUNC 5fb62 bb 0 rapidxml::xml_document<char>::parse_pi<0>
FUNC 5fc1e cd 0 rapidxml::xml_document<char>::parse_comment<0>
FUNC 5fcec 13d 0 rapidxml::xml_document<char>::parse_cdata<0>
FUNC 5fe2a 156 0 rapidxml::xml_document<char>::parse_doctype<0>
FUNC 5ff80 6e 0 rapidxml::memory_pool<char>::allocate_raw
FUNC 5ffee a 0 std::iterator<std::output_iterator_tag, void, void, void, void>::iterator
FUNC 5fff8 35 0 std::ostream_iterator<char, char, std::char_traits<char> >::ostream_iterator
FUNC 6002e 3c 0 std::ostream_iterator<char, char, std::char_traits<char> >::ostream_iterator
FUNC 6006a 5a 0 rapidxml::print<std::ostream_iterator<char, char, std::char_traits<char> >, char>
FUNC 600c4 92 0 std::_Rb_tree<std::basic_string<char, std::char_traits<char>, std::allocator<char> >, std::pair<const std::basic_string<char, std::char_traits<char>, std::allocator<char> >, Config::IntParameter>, std::_Select1st<std::pair<const std::basic_string<char, std::char_traits<char>, std::allocator<char> >, Config::IntParameter> >, std::less<std::basic_string<char, std::char_traits<char>, std::allocator<char> > >, std::allocator<std::pair<const std::basic_string<char, std::char_traits<char>, std::allocator<char> >, Config::IntParameter> > >::_M_lower_bound
FUNC 60156 92 0 std::_Rb_tree<std::basic_string<char, std::char_traits<char>, std::allocator<char> >, std::pair<const std::basic_string<char, std::char_traits<char>, std::allocator<char> >, Config::StringParameter>, std::_Select1st<std::pair<const std::basic_string<char, std::char_traits<char>, std::allocator<char> >, Config::StringParameter> >, std::less<std::basic_string<char, std::char_traits<char>, std::allocator<char> > >, std::allocator<std::pair<const std::basic_string<char, std::char_traits<char>, std::allocator<char> >, Config::StringParameter> > >::_M_lower_bound
FUNC 601e8 1a 0 std::allocator<Config::XmlGroup>::allocator
FUNC 60202 a 0 __gnu_cxx::new_allocator<Config::XmlGroup>::~new_allocator
FUNC 6020c 34 0 std::_Destroy_aux<false>::__destroy<Config::XmlGroup*>
FUNC 60240 1a 0 std::allocator<Config::XmlParameter>::allocator
FUNC 6025a a 0 __gnu_cxx::new_allocator<Config::XmlParameter>::~new_allocator
FUNC 60264 34 0 std::_Destroy_aux<false>::__destroy<Config::XmlParameter*>
FUNC 60298 1a 0 std::allocator<std::_Rb_tree_node<std::pair<const std::basic_string<char, std::char_traits<char>, std::allocator<char> >, Config::IntParameter> > >::allocator
FUNC 602b2 41 0 std::_Rb_tree<std::basic_string<char, std::char_traits<char>, std::allocator<char> >, std::pair<const std::basic_string<char, std::char_traits<char>, std::allocator<char> >, Config::IntParameter>, std::_Select1st<std::pair<const std::basic_string<char, std::char_traits<char>, std::allocator<char> >, Config::IntParameter> >, std::less<std::basic_string<char, std::char_traits<char>, std::allocator<char> > >, std::allocator<std::pair<const std::basic_string<char, std::char_traits<char>, std::allocator<char> >, Config::IntParameter> > >::_Rb_tree_impl<std::less<std::basic_string<char, std::char_traits<char>, std::allocator<char> > >, false>::_M_initialize
FUNC 602f4 3b 0 std::_Rb_tree<std::basic_string<char, std::char_traits<char>, std::allocator<char> >, std::pair<const std::basic_string<char, std::char_traits<char>, std::allocator<char> >, Config::IntParameter>, std::_Select1st<std::pair<const std::basic_string<char, std::char_traits<char>, std::allocator<char> >, Config::IntParameter> >, std::less<std::basic_string<char, std::char_traits<char>, std::allocator<char> > >, std::allocator<std::pair<const std::basic_string<char, std::char_traits<char>, std::allocator<char> >, Config::IntParameter> > >::get_allocator
FUNC 60330 1a 0 std::allocator<std::pair<const std::basic_string<char, std::char_traits<char>, std::allocator<char> >, Config::IntParameter> >::~allocator
FUNC 6034a 55 0 std::pair<const std::basic_string<char, std::char_traits<char>, std::allocator<char> >, Config::IntParameter>::~pair
FUNC 603a0 1e 0 __gnu_cxx::new_allocator<std::pair<const std::basic_string<char, std::char_traits<char>, std::allocator<char> >, Config::IntParameter> >::destroy
FUNC 603be 2a 0 std::_Rb_tree<std::basic_string<char, std::char_traits<char>, std::allocator<char> >, std::pair<const std::basic_string<char, std::char_traits<char>, std::allocator<char> >, Config::IntParameter>, std::_Select1st<std::pair<const std::basic_string<char, std::char_traits<char>, std::allocator<char> >, Config::IntParameter> >, std::less<std::basic_string<char, std::char_traits<char>, std::allocator<char> > >, std::allocator<std::pair<const std::basic_string<char, std::char_traits<char>, std::allocator<char> >, Config::IntParameter> > >::_M_put_node
FUNC 603e8 12 0 std::_Rb_tree<std::basic_string<char, std::char_traits<char>, std::allocator<char> >, std::pair<const std::basic_string<char, std::char_traits<char>, std::allocator<char> >, Config::IntParameter>, std::_Select1st<std::pair<const std::basic_string<char, std::char_traits<char>, std::allocator<char> >, Config::IntParameter> >, std::less<std::basic_string<char, std::char_traits<char>, std::allocator<char> > >, std::allocator<std::pair<const std::basic_string<char, std::char_traits<char>, std::allocator<char> >, Config::IntParameter> > >::_S_value
FUNC 603fa bb 0 std::_Rb_tree<std::basic_string<char, std::char_traits<char>, std::allocator<char> >, std::pair<const std::basic_string<char, std::char_traits<char>, std::allocator<char> >, Config::IntParameter>, std::_Select1st<std::pair<const std::basic_string<char, std::char_traits<char>, std::allocator<char> >, Config::IntParameter> >, std::less<std::basic_string<char, std::char_traits<char>, std::allocator<char> > >, std::allocator<std::pair<const std::basic_string<char, std::char_traits<char>, std::allocator<char> >, Config::IntParameter> > >::_M_create_node
FUNC 604b5 12 0 std::_Rb_tree<std::basic_string<char, std::char_traits<char>, std::allocator<char> >, std::pair<const std::basic_string<char, std::char_traits<char>, std::allocator<char> >, Config::IntParameter>, std::_Select1st<std::pair<const std::basic_string<char, std::char_traits<char>, std::allocator<char> >, Config::IntParameter> >, std::less<std::basic_string<char, std::char_traits<char>, std::allocator<char> > >, std::allocator<std::pair<const std::basic_string<char, std::char_traits<char>, std::allocator<char> >, Config::IntParameter> > >::_S_value
FUNC 604c8 12 0 std::_Rb_tree<std::basic_string<char, std::char_traits<char>, std::allocator<char> >, std::pair<const std::basic_string<char, std::char_traits<char>, std::allocator<char> >, Config::IntParameter>, std::_Select1st<std::pair<const std::basic_string<char, std::char_traits<char>, std::allocator<char> >, Config::IntParameter> >, std::less<std::basic_string<char, std::char_traits<char>, std::allocator<char> > >, std::allocator<std::pair<const std::basic_string<char, std::char_traits<char>, std::allocator<char> >, Config::IntParameter> > >::_M_rightmost
FUNC 604da 12 0 std::_Rb_tree<std::basic_string<char, std::char_traits<char>, std::allocator<char> >, std::pair<const std::basic_string<char, std::char_traits<char>, std::allocator<char> >, Config::IntParameter>, std::_Select1st<std::pair<const std::basic_string<char, std::char_traits<char>, std::allocator<char> >, Config::IntParameter> >, std::less<std::basic_string<char, std::char_traits<char>, std::allocator<char> > >, std::allocator<std::pair<const std::basic_string<char, std::char_traits<char>, std::allocator<char> >, Config::IntParameter> > >::size
FUNC 604ec 12 0 std::_Rb_tree<std::basic_string<char, std::char_traits<char>, std::allocator<char> >, std::pair<const std::basic_string<char, std::char_traits<char>, std::allocator<char> >, Config::IntParameter>, std::_Select1st<std::pair<const std::basic_string<char, std::char_traits<char>, std::allocator<char> >, Config::IntParameter> >, std::less<std::basic_string<char, std::char_traits<char>, std::allocator<char> > >, std::allocator<std::pair<const std::basic_string<char, std::char_traits<char>, std::allocator<char> >, Config::IntParameter> > >::_M_leftmost
FUNC 604fe 28 0 std::_Rb_tree_const_iterator<std::pair<const std::basic_string<char, std::char_traits<char>, std::allocator<char> >, Config::IntParameter> >::operator--
FUNC 60526 12 0 std::_Rb_tree<std::basic_string<char, std::char_traits<char>, std::allocator<char> >, std::pair<const std::basic_string<char, std::char_traits<char>, std::allocator<char> >, Config::IntParameter>, std::_Select1st<std::pair<const std::basic_string<char, std::char_traits<char>, std::allocator<char> >, Config::IntParameter> >, std::less<std::basic_string<char, std::char_traits<char>, std::allocator<char> > >, std::allocator<std::pair<const std::basic_string<char, std::char_traits<char>, std::allocator<char> >, Config::IntParameter> > >::_S_right
FUNC 60538 28 0 std::_Rb_tree_const_iterator<std::pair<const std::basic_string<char, std::char_traits<char>, std::allocator<char> >, Config::IntParameter> >::operator++
FUNC 60560 1a 0 std::allocator<std::_Rb_tree_node<std::pair<const std::basic_string<char, std::char_traits<char>, std::allocator<char> >, Config::StringParameter> > >::allocator
FUNC 6057a 41 0 std::_Rb_tree<std::basic_string<char, std::char_traits<char>, std::allocator<char> >, std::pair<const std::basic_string<char, std::char_traits<char>, std::allocator<char> >, Config::StringParameter>, std::_Select1st<std::pair<const std::basic_string<char, std::char_traits<char>, std::allocator<char> >, Config::StringParameter> >, std::less<std::basic_string<char, std::char_traits<char>, std::allocator<char> > >, std::allocator<std::pair<const std::basic_string<char, std::char_traits<char>, std::allocator<char> >, Config::StringParameter> > >::_Rb_tree_impl<std::less<std::basic_string<char, std::char_traits<char>, std::allocator<char> > >, false>::_M_initialize
FUNC 605bc 3b 0 std::_Rb_tree<std::basic_string<char, std::char_traits<char>, std::allocator<char> >, std::pair<const std::basic_string<char, std::char_traits<char>, std::allocator<char> >, Config::StringParameter>, std::_Select1st<std::pair<const std::basic_string<char, std::char_traits<char>, std::allocator<char> >, Config::StringParameter> >, std::less<std::basic_string<char, std::char_traits<char>, std::allocator<char> > >, std::allocator<std::pair<const std::basic_string<char, std::char_traits<char>, std::allocator<char> >, Config::StringParameter> > >::get_allocator
FUNC 605f8 1a 0 std::allocator<std::pair<const std::basic_string<char, std::char_traits<char>, std::allocator<char> >, Config::StringParameter> >::~allocator
FUNC 60612 55 0 std::pair<const std::basic_string<char, std::char_traits<char>, std::allocator<char> >, Config::StringParameter>::~pair
FUNC 60668 1e 0 __gnu_cxx::new_allocator<std::pair<const std::basic_string<char, std::char_traits<char>, std::allocator<char> >, Config::StringParameter> >::destroy
FUNC 60686 2a 0 std::_Rb_tree<std::basic_string<char, std::char_traits<char>, std::allocator<char> >, std::pair<const std::basic_string<char, std::char_traits<char>, std::allocator<char> >, Config::StringParameter>, std::_Select1st<std::pair<const std::basic_string<char, std::char_traits<char>, std::allocator<char> >, Config::StringParameter> >, std::less<std::basic_string<char, std::char_traits<char>, std::allocator<char> > >, std::allocator<std::pair<const std::basic_string<char, std::char_traits<char>, std::allocator<char> >, Config::StringParameter> > >::_M_put_node
FUNC 606b0 12 0 std::_Rb_tree<std::basic_string<char, std::char_traits<char>, std::allocator<char> >, std::pair<const std::basic_string<char, std::char_traits<char>, std::allocator<char> >, Config::StringParameter>, std::_Select1st<std::pair<const std::basic_string<char, std::char_traits<char>, std::allocator<char> >, Config::StringParameter> >, std::less<std::basic_string<char, std::char_traits<char>, std::allocator<char> > >, std::allocator<std::pair<const std::basic_string<char, std::char_traits<char>, std::allocator<char> >, Config::StringParameter> > >::_S_value
FUNC 606c2 bb 0 std::_Rb_tree<std::basic_string<char, std::char_traits<char>, std::allocator<char> >, std::pair<const std::basic_string<char, std::char_traits<char>, std::allocator<char> >, Config::StringParameter>, std::_Select1st<std::pair<const std::basic_string<char, std::char_traits<char>, std::allocator<char> >, Config::StringParameter> >, std::less<std::basic_string<char, std::char_traits<char>, std::allocator<char> > >, std::allocator<std::pair<const std::basic_string<char, std::char_traits<char>, std::allocator<char> >, Config::StringParameter> > >::_M_create_node
FUNC 6077d 12 0 std::_Rb_tree<std::basic_string<char, std::char_traits<char>, std::allocator<char> >, std::pair<const std::basic_string<char, std::char_traits<char>, std::allocator<char> >, Config::StringParameter>, std::_Select1st<std::pair<const std::basic_string<char, std::char_traits<char>, std::allocator<char> >, Config::StringParameter> >, std::less<std::basic_string<char, std::char_traits<char>, std::allocator<char> > >, std::allocator<std::pair<const std::basic_string<char, std::char_traits<char>, std::allocator<char> >, Config::StringParameter> > >::_S_value
FUNC 60790 12 0 std::_Rb_tree<std::basic_string<char, std::char_traits<char>, std::allocator<char> >, std::pair<const std::basic_string<char, std::char_traits<char>, std::allocator<char> >, Config::StringParameter>, std::_Select1st<std::pair<const std::basic_string<char, std::char_traits<char>, std::allocator<char> >, Config::StringParameter> >, std::less<std::basic_string<char, std::char_traits<char>, std::allocator<char> > >, std::allocator<std::pair<const std::basic_string<char, std::char_traits<char>, std::allocator<char> >, Config::StringParameter> > >::_M_rightmost
FUNC 607a2 12 0 std::_Rb_tree<std::basic_string<char, std::char_traits<char>, std::allocator<char> >, std::pair<const std::basic_string<char, std::char_traits<char>, std::allocator<char> >, Config::StringParameter>, std::_Select1st<std::pair<const std::basic_string<char, std::char_traits<char>, std::allocator<char> >, Config::StringParameter> >, std::less<std::basic_string<char, std::char_traits<char>, std::allocator<char> > >, std::allocator<std::pair<const std::basic_string<char, std::char_traits<char>, std::allocator<char> >, Config::StringParameter> > >::size
FUNC 607b4 12 0 std::_Rb_tree<std::basic_string<char, std::char_traits<char>, std::allocator<char> >, std::pair<const std::basic_string<char, std::char_traits<char>, std::allocator<char> >, Config::StringParameter>, std::_Select1st<std::pair<const std::basic_string<char, std::char_traits<char>, std::allocator<char> >, Config::StringParameter> >, std::less<std::basic_string<char, std::char_traits<char>, std::allocator<char> > >, std::allocator<std::pair<const std::basic_string<char, std::char_traits<char>, std::allocator<char> >, Config::StringParameter> > >::_M_leftmost
FUNC 607c6 28 0 std::_Rb_tree_const_iterator<std::pair<const std::basic_string<char, std::char_traits<char>, std::allocator<char> >, Config::StringParameter> >::operator--
FUNC 607ee 12 0 std::_Rb_tree<std::basic_string<char, std::char_traits<char>, std::allocator<char> >, std::pair<const std::basic_string<char, std::char_traits<char>, std::allocator<char> >, Config::StringParameter>, std::_Select1st<std::pair<const std::basic_string<char, std::char_traits<char>, std::allocator<char> >, Config::StringParameter> >, std::less<std::basic_string<char, std::char_traits<char>, std::allocator<char> > >, std::allocator<std::pair<const std::basic_string<char, std::char_traits<char>, std::allocator<char> >, Config::StringParameter> > >::_S_right
FUNC 60800 28 0 std::_Rb_tree_const_iterator<std::pair<const std::basic_string<char, std::char_traits<char>, std::allocator<char> >, Config::StringParameter> >::operator++
FUNC 60828 5c 0 __gnu_cxx::new_allocator<Config::XmlGroup>::allocate
FUNC 60884 2d 0 std::uninitialized_copy<__gnu_cxx::__normal_iterator<const Config::XmlGroup*, std::vector<Config::XmlGroup, std::allocator<Config::XmlGroup> > >, Config::XmlGroup*>
FUNC 608b1 1d 0 std::__niter_base<__gnu_cxx::__normal_iterator<const Config::XmlGroup*, std::vector<Config::XmlGroup, std::allocator<Config::XmlGroup> > >, true>::__b
FUNC 608ce 1d 0 std::__niter_base<__gnu_cxx::__normal_iterator<Config::XmlGroup*, std::vector<Config::XmlGroup, std::allocator<Config::XmlGroup> > >, true>::__b
FUNC 608eb 31 0 std::__copy_move_a<false, const Config::XmlGroup*, Config::XmlGroup*>
FUNC 6091c 4b 0 std::_Destroy_aux<false>::__destroy<__gnu_cxx::__normal_iterator<Config::XmlGroup*, std::vector<Config::XmlGroup, std::allocator<Config::XmlGroup> > > >
FUNC 60967 e 0 std::__niter_base<Config::XmlGroup*, false>::__b
FUNC 60975 31 0 std::__copy_move_a<false, Config::XmlGroup*, Config::XmlGroup*>
FUNC 609a6 92 0 std::__uninitialized_copy<false>::uninitialized_copy<Config::XmlGroup*, Config::XmlGroup*>
FUNC 60a38 5c 0 __gnu_cxx::new_allocator<Config::XmlParameter>::allocate
FUNC 60a94 2d 0 std::uninitialized_copy<__gnu_cxx::__normal_iterator<const Config::XmlParameter*, std::vector<Config::XmlParameter, std::allocator<Config::XmlParameter> > >, Config::XmlParameter*>
FUNC 60ac1 1d 0 std::__niter_base<__gnu_cxx::__normal_iterator<const Config::XmlParameter*, std::vector<Config::XmlParameter, std::allocator<Config::XmlParameter> > >, true>::__b
FUNC 60ade 1d 0 std::__niter_base<__gnu_cxx::__normal_iterator<Config::XmlParameter*, std::vector<Config::XmlParameter, std::allocator<Config::XmlParameter> > >, true>::__b
FUNC 60afb 31 0 std::__copy_move_a<false, const Config::XmlParameter*, Config::XmlParameter*>
FUNC 60b2c 4b 0 std::_Destroy_aux<false>::__destroy<__gnu_cxx::__normal_iterator<Config::XmlParameter*, std::vector<Config::XmlParameter, std::allocator<Config::XmlParameter> > > >
FUNC 60b77 e 0 std::__niter_base<Config::XmlParameter*, false>::__b
FUNC 60b85 31 0 std::__copy_move_a<false, Config::XmlParameter*, Config::XmlParameter*>
FUNC 60bb6 92 0 std::__uninitialized_copy<false>::uninitialized_copy<Config::XmlParameter*, Config::XmlParameter*>
FUNC 60c48 53d 0 std::vector<char, std::allocator<char> >::_M_fill_insert
FUNC 61185 45 0 rapidxml::xml_document<char>::skip<rapidxml::xml_document<char>::node_name_pred, 0>
FUNC 611ca 2eb 0 rapidxml::xml_document<char>::parse_node_attributes<0>
FUNC 614b6 18e 0 rapidxml::xml_document<char>::parse_node_contents<0>
FUNC 61644 2a 0 rapidxml::xml_base<char>::value
FUNC 6166e 26 0 rapidxml::xml_base<char>::value_size
FUNC 61694 3ca 0 rapidxml::internal::print_node<std::ostream_iterator<char, char, std::char_traits<char> >, char>
FUNC 61a5e a 0 __gnu_cxx::new_allocator<Config::XmlGroup>::new_allocator
FUNC 61a68 1a 0 std::_Destroy<Config::XmlGroup>
FUNC 61a82 a 0 __gnu_cxx::new_allocator<Config::XmlParameter>::new_allocator
FUNC 61a8c 1a 0 std::_Destroy<Config::XmlParameter>
FUNC 61aa6 a 0 __gnu_cxx::new_allocator<std::_Rb_tree_node<std::pair<const std::basic_string<char, std::char_traits<char>, std::allocator<char> >, Config::IntParameter> > >::new_allocator
FUNC 61ab0 e 0 std::_Rb_tree<std::basic_string<char, std::char_traits<char>, std::allocator<char> >, std::pair<const std::basic_string<char, std::char_traits<char>, std::allocator<char> >, Config::IntParameter>, std::_Select1st<std::pair<const std::basic_string<char, std::char_traits<char>, std::allocator<char> >, Config::IntParameter> >, std::less<std::basic_string<char, std::char_traits<char>, std::allocator<char> > >, std::allocator<std::pair<const std::basic_string<char, std::char_traits<char>, std::allocator<char> >, Config::IntParameter> > >::_M_get_Node_allocator
FUNC 61abe 1e 0 std::allocator<std::pair<const std::basic_string<char, std::char_traits<char>, std::allocator<char> >, Config::IntParameter> >::allocator<std::_Rb_tree_node<std::pair<const std::basic_string<char, std::char_traits<char>, std::allocator<char> >, Config::IntParameter> > >
FUNC 61adc a 0 __gnu_cxx::new_allocator<std::pair<const std::basic_string<char, std::char_traits<char>, std::allocator<char> >, Config::IntParameter> >::~new_allocator
FUNC 61ae6 22 0 __gnu_cxx::new_allocator<std::_Rb_tree_node<std::pair<const std::basic_string<char, std::char_traits<char>, std::allocator<char> >, Config::IntParameter> > >::deallocate
FUNC 61b08 24 0 std::_Rb_tree<std::basic_string<char, std::char_traits<char>, std::allocator<char> >, std::pair<const std::basic_string<char, std::char_traits<char>, std::allocator<char> >, Config::IntParameter>, std::_Select1st<std::pair<const std::basic_string<char, std::char_traits<char>, std::allocator<char> >, Config::IntParameter> >, std::less<std::basic_string<char, std::char_traits<char>, std::allocator<char> > >, std::allocator<std::pair<const std::basic_string<char, std::char_traits<char>, std::allocator<char> >, Config::IntParameter> > >::_M_get_node
FUNC 61b2c 6b 0 std::pair<const std::basic_string<char, std::char_traits<char>, std::allocator<char> >, Config::IntParameter>::pair
FUNC 61b98 77 0 __gnu_cxx::new_allocator<std::pair<const std::basic_string<char, std::char_traits<char>, std::allocator<char> >, Config::IntParameter> >::construct
FUNC 61c10 a 0 __gnu_cxx::new_allocator<std::_Rb_tree_node<std::pair<const std::basic_string<char, std::char_traits<char>, std::allocator<char> >, Config::StringParameter> > >::new_allocator
FUNC 61c1a e 0 std::_Rb_tree<std::basic_string<char, std::char_traits<char>, std::allocator<char> >, std::pair<const std::basic_string<char, std::char_traits<char>, std::allocator<char> >, Config::StringParameter>, std::_Select1st<std::pair<const std::basic_string<char, std::char_traits<char>, std::allocator<char> >, Config::StringParameter> >, std::less<std::basic_string<char, std::char_traits<char>, std::allocator<char> > >, std::allocator<std::pair<const std::basic_string<char, std::char_traits<char>, std::allocator<char> >, Config::StringParameter> > >::_M_get_Node_allocator
FUNC 61c28 1e 0 std::allocator<std::pair<const std::basic_string<char, std::char_traits<char>, std::allocator<char> >, Config::StringParameter> >::allocator<std::_Rb_tree_node<std::pair<const std::basic_string<char, std::char_traits<char>, std::allocator<char> >, Config::StringParameter> > >
FUNC 61c46 a 0 __gnu_cxx::new_allocator<std::pair<const std::basic_string<char, std::char_traits<char>, std::allocator<char> >, Config::StringParameter> >::~new_allocator
FUNC 61c50 22 0 __gnu_cxx::new_allocator<std::_Rb_tree_node<std::pair<const std::basic_string<char, std::char_traits<char>, std::allocator<char> >, Config::StringParameter> > >::deallocate
FUNC 61c72 24 0 std::_Rb_tree<std::basic_string<char, std::char_traits<char>, std::allocator<char> >, std::pair<const std::basic_string<char, std::char_traits<char>, std::allocator<char> >, Config::StringParameter>, std::_Select1st<std::pair<const std::basic_string<char, std::char_traits<char>, std::allocator<char> >, Config::StringParameter> >, std::less<std::basic_string<char, std::char_traits<char>, std::allocator<char> > >, std::allocator<std::pair<const std::basic_string<char, std::char_traits<char>, std::allocator<char> >, Config::StringParameter> > >::_M_get_node
FUNC 61c96 6b 0 std::pair<const std::basic_string<char, std::char_traits<char>, std::allocator<char> >, Config::StringParameter>::pair
FUNC 61d02 77 0 __gnu_cxx::new_allocator<std::pair<const std::basic_string<char, std::char_traits<char>, std::allocator<char> >, Config::StringParameter> >::construct
FUNC 61d7a 14 0 __gnu_cxx::new_allocator<Config::XmlGroup>::max_size
FUNC 61d8e ac 0 std::__uninitialized_copy<false>::uninitialized_copy<__gnu_cxx::__normal_iterator<const Config::XmlGroup*, std::vector<Config::XmlGroup, std::allocator<Config::XmlGroup> > >, Config::XmlGroup*>
FUNC 61e3a e 0 __gnu_cxx::__normal_iterator<const Config::XmlGroup*, std::vector<Config::XmlGroup, std::allocator<Config::XmlGroup> > >::base
FUNC 61e48 e 0 __gnu_cxx::__normal_iterator<Config::XmlGroup*, std::vector<Config::XmlGroup, std::allocator<Config::XmlGroup> > >::base
FUNC 61e56 74 0 std::__copy_move<false, false, std::random_access_iterator_tag>::__copy_m<const Config::XmlGroup*, Config::XmlGroup*>
FUNC 61eca 3c 0 __gnu_cxx::operator!=<Config::XmlGroup*, std::vector<Config::XmlGroup, std::allocator<Config::XmlGroup> > >
FUNC 61f06 20 0 __gnu_cxx::__normal_iterator<Config::XmlGroup*, std::vector<Config::XmlGroup, std::allocator<Config::XmlGroup> > >::operator++
FUNC 61f26 11 0 __gnu_cxx::__normal_iterator<Config::XmlGroup*, std::vector<Config::XmlGroup, std::allocator<Config::XmlGroup> > >::operator*
FUNC 61f37 74 0 std::__copy_move<false, false, std::random_access_iterator_tag>::__copy_m<Config::XmlGroup*, Config::XmlGroup*>
FUNC 61fac a3 0 Config::XmlGroup::XmlGroup
FUNC 6204f 73 0 std::_Construct<Config::XmlGroup, Config::XmlGroup>
FUNC 620c2 14 0 __gnu_cxx::new_allocator<Config::XmlParameter>::max_size
FUNC 620d6 ac 0 std::__uninitialized_copy<false>::uninitialized_copy<__gnu_cxx::__normal_iterator<const Config::XmlParameter*, std::vector<Config::XmlParameter, std::allocator<Config::XmlParameter> > >, Config::XmlParameter*>
FUNC 62182 e 0 __gnu_cxx::__normal_iterator<const Config::XmlParameter*, std::vector<Config::XmlParameter, std::allocator<Config::XmlParameter> > >::base
FUNC 62190 e 0 __gnu_cxx::__normal_iterator<Config::XmlParameter*, std::vector<Config::XmlParameter, std::allocator<Config::XmlParameter> > >::base
FUNC 6219e cb 0 Config::XmlParameter::operator=
FUNC 62269 74 0 std::__copy_move<false, false, std::random_access_iterator_tag>::__copy_m<const Config::XmlParameter*, Config::XmlParameter*>
FUNC 622dd 3c 0 __gnu_cxx::operator!=<Config::XmlParameter*, std::vector<Config::XmlParameter, std::allocator<Config::XmlParameter> > >
FUNC 6231a 20 0 __gnu_cxx::__normal_iterator<Config::XmlParameter*, std::vector<Config::XmlParameter, std::allocator<Config::XmlParameter> > >::operator++
FUNC 6233a 11 0 __gnu_cxx::__normal_iterator<Config::XmlParameter*, std::vector<Config::XmlParameter, std::allocator<Config::XmlParameter> > >::operator*
FUNC 6234b 74 0 std::__copy_move<false, false, std::random_access_iterator_tag>::__copy_m<Config::XmlParameter*, Config::XmlParameter*>
FUNC 623c0 186 0 Config::XmlParameter::XmlParameter
FUNC 62546 73 0 std::_Construct<Config::XmlParameter, Config::XmlParameter>
FUNC 625b9 42 0 __gnu_cxx::operator-<char*, std::vector<char, std::allocator<char> > >
FUNC 625fb 3b 0 std::__uninitialized_move_a<char*, char*, std::allocator<char> >
FUNC 62636 46 0 std::copy_backward<char*, char*>
FUNC 6267c 46 0 std::fill<char*, char>
FUNC 626c2 ca 0 std::vector<char, std::allocator<char> >::_M_check_len
FUNC 6278c 1b 0 rapidxml::xml_document<char>::node_name_pred::test
FUNC 627a7 1b 0 rapidxml::xml_document<char>::attribute_name_pred::test
FUNC 627c2 45 0 rapidxml::xml_document<char>::skip<rapidxml::xml_document<char>::attribute_name_pred, 0>
FUNC 62808 e4 0 rapidxml::memory_pool<char>::allocate_attribute
FUNC 628ec c6 0 rapidxml::xml_node<char>::append_attribute
FUNC 629b2 372 0 rapidxml::xml_document<char>::skip_and_expand_character_refs<rapidxml::xml_document<char>::attribute_value_pred<'\''>, rapidxml::xml_document<char>::attribute_value_pure_pred<'\''>, 0>
FUNC 62d24 372 0 rapidxml::xml_document<char>::skip_and_expand_character_refs<rapidxml::xml_document<char>::attribute_value_pred<'\"'>, rapidxml::xml_document<char>::attribute_value_pure_pred<'\"'>, 0>
FUNC 63096 100 0 rapidxml::xml_document<char>::parse_and_append_data<0>
FUNC 63196 c9 0 rapidxml::internal::print_children<std::ostream_iterator<char, char, std::char_traits<char> >, char>
FUNC 6325f 680 0 rapidxml::internal::print_element_node<std::ostream_iterator<char, char, std::char_traits<char> >, char>
FUNC 638df 121 0 rapidxml::internal::print_data_node<std::ostream_iterator<char, char, std::char_traits<char> >, char>
FUNC 63a00 32c 0 rapidxml::internal::print_cdata_node<std::ostream_iterator<char, char, std::char_traits<char> >, char>
FUNC 63d2c 204 0 rapidxml::internal::print_declaration_node<std::ostream_iterator<char, char, std::char_traits<char> >, char>
FUNC 63f30 255 0 rapidxml::internal::print_comment_node<std::ostream_iterator<char, char, std::char_traits<char> >, char>
FUNC 64185 301 0 rapidxml::internal::print_doctype_node<std::ostream_iterator<char, char, std::char_traits<char> >, char>
FUNC 64486 2cb 0 rapidxml::internal::print_pi_node<std::ostream_iterator<char, char, std::char_traits<char> >, char>
FUNC 64752 e 0 std::ostream_iterator<char, char, std::char_traits<char> >::operator++
FUNC 64760 e 0 std::ostream_iterator<char, char, std::char_traits<char> >::operator*
FUNC 6476e 58 0 std::ostream_iterator<char, char, std::char_traits<char> >::operator=
FUNC 647c6 a 0 __gnu_cxx::new_allocator<std::pair<const std::basic_string<char, std::char_traits<char>, std::allocator<char> >, Config::IntParameter> >::new_allocator
FUNC 647d0 4e 0 __gnu_cxx::new_allocator<std::_Rb_tree_node<std::pair<const std::basic_string<char, std::char_traits<char>, std::allocator<char> >, Config::IntParameter> > >::allocate
FUNC 6481e a 0 __gnu_cxx::new_allocator<std::pair<const std::basic_string<char, std::char_traits<char>, std::allocator<char> >, Config::StringParameter> >::new_allocator
FUNC 64828 4e 0 __gnu_cxx::new_allocator<std::_Rb_tree_node<std::pair<const std::basic_string<char, std::char_traits<char>, std::allocator<char> >, Config::StringParameter> > >::allocate
FUNC 64876 3c 0 __gnu_cxx::operator!=<const Config::XmlGroup*, std::vector<Config::XmlGroup, std::allocator<Config::XmlGroup> > >
FUNC 648b2 20 0 __gnu_cxx::__normal_iterator<const Config::XmlGroup*, std::vector<Config::XmlGroup, std::allocator<Config::XmlGroup> > >::operator++
FUNC 648d2 11 0 __gnu_cxx::__normal_iterator<const Config::XmlGroup*, std::vector<Config::XmlGroup, std::allocator<Config::XmlGroup> > >::operator*
FUNC 648e4 b9 0 std::vector<Config::XmlGroup, std::allocator<Config::XmlGroup> >::vector
FUNC 6499e b9 0 std::vector<Config::XmlParameter, std::allocator<Config::XmlParameter> >::vector
FUNC 64a57 3c 0 __gnu_cxx::operator!=<const Config::XmlParameter*, std::vector<Config::XmlParameter, std::allocator<Config::XmlParameter> > >
FUNC 64a94 20 0 __gnu_cxx::__normal_iterator<const Config::XmlParameter*, std::vector<Config::XmlParameter, std::allocator<Config::XmlParameter> > >::operator++
FUNC 64ab4 11 0 __gnu_cxx::__normal_iterator<const Config::XmlParameter*, std::vector<Config::XmlParameter, std::allocator<Config::XmlParameter> > >::operator*
FUNC 64ac5 58 0 std::__copy_move_backward_a2<false, char*, char*>
FUNC 64b1e 22 0 std::vector<char, std::allocator<char> >::max_size
FUNC 64b40 1a 0 rapidxml::xml_attribute<char>::xml_attribute
FUNC 64b5a 45 0 rapidxml::xml_document<char>::skip<rapidxml::xml_document<char>::attribute_value_pure_pred<'\''>, 0>
FUNC 64b9f 1b 0 attribute_value_pred<'\''>::test
FUNC 64bba 1b1 0 rapidxml::xml_document<char>::insert_coded_character<0>
FUNC 64d6b 45 0 rapidxml::xml_document<char>::skip<rapidxml::xml_document<char>::attribute_value_pure_pred<'\"'>, 0>
FUNC 64db0 1b 0 attribute_value_pred<'\"'>::test
FUNC 64dcb 372 0 rapidxml::xml_document<char>::skip_and_expand_character_refs<rapidxml::xml_document<char>::text_pred, rapidxml::xml_document<char>::text_pure_no_ws_pred, 0>
FUNC 6513d 79 0 rapidxml::internal::fill_chars<std::ostream_iterator<char, char, std::char_traits<char> >, char>
FUNC 651b6 79 0 rapidxml::internal::copy_chars<std::ostream_iterator<char, char, std::char_traits<char> >, char>
FUNC 6522f 3ac 0 rapidxml::internal::print_attributes<std::ostream_iterator<char, char, std::char_traits<char> >, char>
FUNC 655db 53e 0 rapidxml::internal::copy_and_expand_chars<std::ostream_iterator<char, char, std::char_traits<char> >, char>
FUNC 65b1a 14 0 __gnu_cxx::new_allocator<std::_Rb_tree_node<std::pair<const std::basic_string<char, std::char_traits<char>, std::allocator<char> >, Config::IntParameter> > >::max_size
FUNC 65b2e 14 0 __gnu_cxx::new_allocator<std::_Rb_tree_node<std::pair<const std::basic_string<char, std::char_traits<char>, std::allocator<char> >, Config::StringParameter> > >::max_size
FUNC 65b42 e 0 std::_Vector_base<Config::XmlGroup, std::allocator<Config::XmlGroup> >::_M_get_Tp_allocator
FUNC 65b50 a6 0 std::_Vector_base<Config::XmlGroup, std::allocator<Config::XmlGroup> >::_Vector_base
FUNC 65bf6 e 0 std::_Vector_base<Config::XmlParameter, std::allocator<Config::XmlParameter> >::_M_get_Tp_allocator
FUNC 65c04 a6 0 std::_Vector_base<Config::XmlParameter, std::allocator<Config::XmlParameter> >::_Vector_base
FUNC 65caa 31 0 std::__copy_move_backward_a<false, char*, char*>
FUNC 65cdc e 0 std::_Vector_base<char, std::allocator<char> >::_M_get_Tp_allocator
FUNC 65cea 1b 0 attribute_value_pure_pred<'\''>::test
FUNC 65d05 1b 0 attribute_value_pure_pred<'\"'>::test
FUNC 65d20 1b 0 rapidxml::xml_document<char>::text_pred::test
FUNC 65d3b 45 0 rapidxml::xml_document<char>::skip<rapidxml::xml_document<char>::text_pure_no_ws_pred, 0>
FUNC 65d80 11 0 std::ostream_iterator<char, char, std::char_traits<char> >::operator++
FUNC 65d92 d0 0 rapidxml::xml_attribute<char>::next_attribute
FUNC 65e62 40 0 rapidxml::internal::find_char<char, '\"'>
FUNC 65ea2 48 0 std::_Vector_base<Config::XmlGroup, std::allocator<Config::XmlGroup> >::_Vector_impl::_Vector_impl
FUNC 65eea 48 0 std::_Vector_base<Config::XmlParameter, std::allocator<Config::XmlParameter> >::_Vector_impl::_Vector_impl
FUNC 65f32 54 0 std::__copy_move_backward<false, true, std::random_access_iterator_tag>::__copy_move_b<char>
FUNC 65f86 1b 0 rapidxml::xml_document<char>::text_pure_no_ws_pred::test
FUNC 65fa2 25 0 std::allocator<Config::XmlGroup>::allocator
FUNC 65fc8 25 0 std::allocator<Config::XmlParameter>::allocator
FUNC 65fee e 0 __gnu_cxx::new_allocator<Config::XmlGroup>::new_allocator
FUNC 65ffc e 0 __gnu_cxx::new_allocator<Config::XmlParameter>::new_allocator
FUNC 6600a 3a 0 boost::detail::sp_counted_impl_p<Config::ConfigCenter>::~sp_counted_impl_p
FUNC 66044 26 0 boost::detail::sp_counted_impl_p<Config::ConfigCenter>::~sp_counted_impl_p
FUNC 6606a 1e 0 boost::detail::sp_counted_impl_p<Config::ConfigCenter>::dispose
FUNC 66088 13 0 boost::detail::sp_counted_impl_p<Config::ConfigCenter>::get_deleter
FUNC 660a2 6c 0 boost::exception_detail::clone_impl<boost::exception_detail::error_info_injector<boost::condition_error> >::clone
FUNC 66114 53 0 boost::exception_detail::clone_impl<boost::exception_detail::error_info_injector<boost::condition_error> >::rethrow
FUNC 66168 e5 0 Config::IntParameter::IntParameter
FUNC 6624e 113 0 Config::IntParameter::IntParameter
FUNC 66362 77 0 Config::IntParameter::~IntParameter
FUNC 663da 40 0 Config::IntParameter::get
FUNC 6641a 190 0 Config::IntParameter::set
FUNC 665aa 48e 0 Config::IntParameter::set
FUNC 66a38 1d9 0 Config::IntParameter::setRange
FUNC 66c12 53 0 Config::IntParameter::setRange
FUNC 66c66 8d 0 Config::IntParameter::registerWatcher
FUNC 66cf4 7a 0 Config::IntParameter::unregisterWatcher
FUNC 66d6e 181 0 __static_initialization_and_destruction_0
FUNC 66eef 15 0 _GLOBAL__I__ZN6Config12IntParameterC2ERKSs
FUNC 66f04 15 0 boost::function_base::function_base
FUNC 66f1a 17 0 boost::function_base::empty
FUNC 66f32 14 0 boost::function_base::has_trivial_copy_and_destroy
FUNC 66f46 ab 0 boost::bad_function_call::bad_function_call
FUNC 66ff2 f1 0 boost::shared_mutex::lock_upgrade
FUNC 670e4 70 0 boost::shared_mutex::unlock_upgrade
FUNC 67154 d7 0 boost::shared_mutex::unlock_upgrade_and_lock
FUNC 6722c 64 0 boost::shared_mutex::unlock_and_lock_upgrade
FUNC 67290 e 0 Config::IntParameter::_getName
FUNC 6729e 1a 0 std::map<void*, boost::function<void(int)>, std::less<void*>, std::allocator<std::pair<void* const, boost::function<void(int)> > > >::~map
FUNC 672b8 76 0 std::runtime_error::runtime_error
FUNC 6732e 3a 0 boost::bad_function_call::~bad_function_call
FUNC 67368 26 0 boost::bad_function_call::~bad_function_call
FUNC 6738e 1a 0 std::map<void*, boost::function<void(int)>, std::less<void*>, std::allocator<std::pair<void* const, boost::function<void(int)> > > >::map
FUNC 673a8 1a 0 std::_Rb_tree<void*, std::pair<void* const, boost::function<void(int)> >, std::_Select1st<std::pair<void* const, boost::function<void(int)> > >, std::less<void*>, std::allocator<std::pair<void* const, boost::function<void(int)> > > >::_Rb_tree_impl<std::less<void*>, false>::~_Rb_tree_impl
FUNC 673c2 63 0 std::_Rb_tree<void*, std::pair<void* const, boost::function<void(int)> >, std::_Select1st<std::pair<void* const, boost::function<void(int)> > >, std::less<void*>, std::allocator<std::pair<void* const, boost::function<void(int)> > > >::~_Rb_tree
FUNC 67426 31 0 boost::upgrade_lock<boost::shared_mutex>::upgrade_lock
FUNC 67458 2d 0 boost::upgrade_lock<boost::shared_mutex>::~upgrade_lock
FUNC 67486 52 0 boost::upgrade_to_unique_lock<boost::shared_mutex>::upgrade_to_unique_lock
FUNC 674d8 91 0 boost::upgrade_to_unique_lock<boost::shared_mutex>::~upgrade_to_unique_lock
FUNC 6756a 1a 0 std::map<void*, boost::function<void(int)>, std::less<void*>, std::allocator<std::pair<void* const, boost::function<void(int)> > > >::begin
FUNC 67584 1a 0 std::map<void*, boost::function<void(int)>, std::less<void*>, std::allocator<std::pair<void* const, boost::function<void(int)> > > >::end
FUNC 6759e 22 0 std::_Rb_tree_iterator<std::pair<void* const, boost::function<void(int)> > >::operator!=
FUNC 675c0 36 0 std::_Rb_tree_iterator<std::pair<void* const, boost::function<void(int)> > >::operator++
FUNC 675f6 15 0 std::_Rb_tree_iterator<std::pair<void* const, boost::function<void(int)> > >::operator->
FUNC 6760c 84 0 boost::function1<void, int>::operator()
FUNC 67690 1a 0 boost::function<void(int)>::~function
FUNC 676aa 1e 0 std::pair<void* const, boost::function<void(int)> >::~pair
FUNC 676c8 161 0 std::map<void*, boost::function<void(int)>, std::less<void*>, std::allocator<std::pair<void* const, boost::function<void(int)> > > >::operator[]
FUNC 6782a 73 0 boost::function<void(int)>::operator=
FUNC 6789e 25 0 std::map<void*, boost::function<void(int)>, std::less<void*>, std::allocator<std::pair<void* const, boost::function<void(int)> > > >::erase
FUNC 678c4 30 0 boost::bad_function_call::bad_function_call
FUNC 678f4 80 0 boost::exception_detail::error_info_injector<boost::bad_function_call>::error_info_injector
FUNC 67974 63 0 boost::exception_detail::clone_impl<boost::exception_detail::error_info_injector<boost::bad_function_call> >::clone_impl
FUNC 679d7 a2 0 boost::throw_exception<boost::bad_function_call>
FUNC 67a7a 1a 0 std::_Rb_tree<void*, std::pair<void* const, boost::function<void(int)> >, std::_Select1st<std::pair<void* const, boost::function<void(int)> > >, std::less<void*>, std::allocator<std::pair<void* const, boost::function<void(int)> > > >::_Rb_tree
FUNC 67a94 1a 0 std::allocator<std::_Rb_tree_node<std::pair<void* const, boost::function<void(int)> > > >::~allocator
FUNC 67aae 69 0 std::_Rb_tree<void*, std::pair<void* const, boost::function<void(int)> >, std::_Select1st<std::pair<void* const, boost::function<void(int)> > >, std::less<void*>, std::allocator<std::pair<void* const, boost::function<void(int)> > > >::_M_erase
FUNC 67b18 12 0 std::_Rb_tree<void*, std::pair<void* const, boost::function<void(int)> >, std::_Select1st<std::pair<void* const, boost::function<void(int)> > >, std::less<void*>, std::allocator<std::pair<void* const, boost::function<void(int)> > > >::_M_begin
FUNC 67b2a 76 0 boost::upgrade_lock<boost::shared_mutex>::lock
FUNC 67ba0 12 0 boost::upgrade_lock<boost::shared_mutex>::owns_lock
FUNC 67bb2 19 0 boost::detail::thread_move_t<boost::upgrade_lock<boost::shared_mutex> >::thread_move_t
FUNC 67bcb e 0 boost::move<boost::upgrade_lock<boost::shared_mutex> >
FUNC 67bda 6a 0 boost::unique_lock<boost::shared_mutex>::unique_lock
FUNC 67c44 19 0 boost::detail::thread_move_t<boost::unique_lock<boost::shared_mutex> >::thread_move_t
FUNC 67c5d e 0 boost::move<boost::unique_lock<boost::shared_mutex> >
FUNC 67c6c 74 0 boost::upgrade_lock<boost::shared_mutex>::operator=
FUNC 67ce0 2c 0 std::_Rb_tree<void*, std::pair<void* const, boost::function<void(int)> >, std::_Select1st<std::pair<void* const, boost::function<void(int)> > >, std::less<void*>, std::allocator<std::pair<void* const, boost::function<void(int)> > > >::begin
FUNC 67d0c 2c 0 std::_Rb_tree<void*, std::pair<void* const, boost::function<void(int)> >, std::_Select1st<std::pair<void* const, boost::function<void(int)> > >, std::less<void*>, std::allocator<std::pair<void* const, boost::function<void(int)> > > >::end
FUNC 67d38 15 0 boost::function1<void, int>::get_vtable
FUNC 67d4e 25 0 std::map<void*, boost::function<void(int)>, std::less<void*>, std::allocator<std::pair<void* const, boost::function<void(int)> > > >::lower_bound
FUNC 67d74 1a 0 std::map<void*, boost::function<void(int)>, std::less<void*>, std::allocator<std::pair<void* const, boost::function<void(int)> > > >::key_comp
FUNC 67d8e 15 0 std::_Rb_tree_iterator<std::pair<void* const, boost::function<void(int)> > >::operator*
FUNC 67da4 26 0 std::less<void*>::operator()
FUNC 67dca 22 0 std::_Rb_tree_iterator<std::pair<void* const, boost::function<void(int)> > >::operator==
FUNC 67dec 1a 0 boost::function<void(int)>::function
FUNC 67e06 1a 0 boost::function1<void, int>::~function1
FUNC 67e20 3b 0 std::pair<void* const, boost::function<void(int)> >::pair
FUNC 67e5c 40 0 std::map<void*, boost::function<void(int)>, std::less<void*>, std::allocator<std::pair<void* const, boost::function<void(int)> > > >::insert
FUNC 67e9c 25 0 boost::function<void(int)>::function
FUNC 67ec2 9b 0 boost::function1<void, int>::swap
FUNC 67f5e 83 0 std::_Rb_tree<void*, std::pair<void* const, boost::function<void(int)> >, std::_Select1st<std::pair<void* const, boost::function<void(int)> > >, std::less<void*>, std::allocator<std::pair<void* const, boost::function<void(int)> > > >::erase
FUNC 67fe1 2f 0 boost::enable_error_info<boost::bad_function_call>
FUNC 68010 93 0 boost::exception_detail::error_info_injector<boost::bad_function_call>::~error_info_injector
FUNC 680b2 26 0 boost::exception_detail::error_info_injector<boost::bad_function_call>::~error_info_injector
FUNC 680d8 2f 0 boost::enable_current_exception<boost::exception_detail::error_info_injector<boost::bad_function_call> >
FUNC 68108 7a 0 boost::exception_detail::clone_impl<boost::exception_detail::error_info_injector<boost::bad_function_call> >::~clone_impl
FUNC 681a0 26 0 boost::exception_detail::clone_impl<boost::exception_detail::error_info_injector<boost::bad_function_call> >::~clone_impl
FUNC 681c6 61 0 std::_Rb_tree<void*, std::pair<void* const, boost::function<void(int)> >, std::_Select1st<std::pair<void* const, boost::function<void(int)> > >, std::less<void*>, std::allocator<std::pair<void* const, boost::function<void(int)> > > >::_Rb_tree_impl<std::less<void*>, false>::_Rb_tree_impl
FUNC 68228 a 0 __gnu_cxx::new_allocator<std::_Rb_tree_node<std::pair<void* const, boost::function<void(int)> > > >::~new_allocator
FUNC 68232 12 0 std::_Rb_tree<void*, std::pair<void* const, boost::function<void(int)> >, std::_Select1st<std::pair<void* const, boost::function<void(int)> > >, std::less<void*>, std::allocator<std::pair<void* const, boost::function<void(int)> > > >::_S_right
FUNC 68244 12 0 std::_Rb_tree<void*, std::pair<void* const, boost::function<void(int)> >, std::_Select1st<std::pair<void* const, boost::function<void(int)> > >, std::less<void*>, std::allocator<std::pair<void* const, boost::function<void(int)> > > >::_S_left
FUNC 68256 86 0 std::_Rb_tree<void*, std::pair<void* const, boost::function<void(int)> >, std::_Select1st<std::pair<void* const, boost::function<void(int)> > >, std::less<void*>, std::allocator<std::pair<void* const, boost::function<void(int)> > > >::_M_destroy_node
FUNC 682dc 11 0 boost::detail::thread_move_t<boost::upgrade_lock<boost::shared_mutex> >::operator->
FUNC 682ee 7d 0 boost::upgrade_lock<boost::shared_mutex>::upgrade_lock
FUNC 6836c 40 0 boost::upgrade_lock<boost::shared_mutex>::swap
FUNC 683ac 19 0 std::_Rb_tree_iterator<std::pair<void* const, boost::function<void(int)> > >::_Rb_tree_iterator
FUNC 683c6 53 0 std::_Rb_tree<void*, std::pair<void* const, boost::function<void(int)> >, std::_Select1st<std::pair<void* const, boost::function<void(int)> > >, std::less<void*>, std::allocator<std::pair<void* const, boost::function<void(int)> > > >::lower_bound
FUNC 6841a a 0 std::_Rb_tree<void*, std::pair<void* const, boost::function<void(int)> >, std::_Select1st<std::pair<void* const, boost::function<void(int)> > >, std::less<void*>, std::allocator<std::pair<void* const, boost::function<void(int)> > > >::key_comp
FUNC 68424 a 0 std::unary_function<int, void>::unary_function
FUNC 6842e 26 0 boost::function1<void, int>::function1
FUNC 68454 5d 0 boost::function1<void, int>::clear
FUNC 684b2 1c 0 std::_Rb_tree_const_iterator<std::pair<void* const, boost::function<void(int)> > >::_Rb_tree_const_iterator
FUNC 684ce 4c0 0 std::_Rb_tree<void*, std::pair<void* const, boost::function<void(int)> >, std::_Select1st<std::pair<void* const, boost::function<void(int)> > >, std::less<void*>, std::allocator<std::pair<void* const, boost::function<void(int)> > > >::_M_insert_unique_
FUNC 6898e 3d 0 boost::function1<void, int>::function1
FUNC 689cc f5 0 boost::function1<void, int>::move_assign
FUNC 68ac2 204 0 std::_Rb_tree<void*, std::pair<void* const, boost::function<void(int)> >, std::_Select1st<std::pair<void* const, boost::function<void(int)> > >, std::less<void*>, std::allocator<std::pair<void* const, boost::function<void(int)> > > >::equal_range
FUNC 68cc6 12 0 std::_Rb_tree<void*, std::pair<void* const, boost::function<void(int)> >, std::_Select1st<std::pair<void* const, boost::function<void(int)> > >, std::less<void*>, std::allocator<std::pair<void* const, boost::function<void(int)> > > >::size
FUNC 68cd8 bc 0 std::_Rb_tree<void*, std::pair<void* const, boost::function<void(int)> >, std::_Select1st<std::pair<void* const, boost::function<void(int)> > >, std::less<void*>, std::allocator<std::pair<void* const, boost::function<void(int)> > > >::erase
FUNC 68d94 4c 0 boost::exception_detail::error_info_injector<boost::bad_function_call>::error_info_injector
FUNC 68de0 b9 0 boost::exception_detail::clone_impl<boost::exception_detail::error_info_injector<boost::bad_function_call> >::clone_impl
FUNC 68e9a 1a 0 std::allocator<std::_Rb_tree_node<std::pair<void* const, boost::function<void(int)> > > >::allocator
FUNC 68eb4 41 0 std::_Rb_tree<void*, std::pair<void* const, boost::function<void(int)> >, std::_Select1st<std::pair<void* const, boost::function<void(int)> > >, std::less<void*>, std::allocator<std::pair<void* const, boost::function<void(int)> > > >::_Rb_tree_impl<std::less<void*>, false>::_M_initialize
FUNC 68ef6 3b 0 std::_Rb_tree<void*, std::pair<void* const, boost::function<void(int)> >, std::_Select1st<std::pair<void* const, boost::function<void(int)> > >, std::less<void*>, std::allocator<std::pair<void* const, boost::function<void(int)> > > >::get_allocator
FUNC 68f32 1a 0 std::allocator<std::pair<void* const, boost::function<void(int)> > >::~allocator
FUNC 68f4c 1e 0 __gnu_cxx::new_allocator<std::pair<void* const, boost::function<void(int)> > >::destroy
FUNC 68f6a 2a 0 std::_Rb_tree<void*, std::pair<void* const, boost::function<void(int)> >, std::_Select1st<std::pair<void* const, boost::function<void(int)> > >, std::less<void*>, std::allocator<std::pair<void* const, boost::function<void(int)> > > >::_M_put_node
FUNC 68f94 11 0 boost::detail::thread_move_t<boost::unique_lock<boost::shared_mutex> >::operator->
FUNC 68fa5 32 0 std::swap<boost::shared_mutex*>
FUNC 68fd8 12 0 std::_Rb_tree<void*, std::pair<void* const, boost::function<void(int)> >, std::_Select1st<std::pair<void* const, boost::function<void(int)> > >, std::less<void*>, std::allocator<std::pair<void* const, boost::function<void(int)> > > >::_M_end
FUNC 68fea 92 0 std::_Rb_tree<void*, std::pair<void* const, boost::function<void(int)> >, std::_Select1st<std::pair<void* const, boost::function<void(int)> > >, std::less<void*>, std::allocator<std::pair<void* const, boost::function<void(int)> > > >::_M_lower_bound
FUNC 6907c 40 0 boost::detail::function::basic_vtable1<void, int>::clear
FUNC 690bc 12 0 std::_Rb_tree<void*, std::pair<void* const, boost::function<void(int)> >, std::_Select1st<std::pair<void* const, boost::function<void(int)> > >, std::less<void*>, std::allocator<std::pair<void* const, boost::function<void(int)> > > >::_M_rightmost
FUNC 690ce 2c 0 std::_Rb_tree<void*, std::pair<void* const, boost::function<void(int)> >, std::_Select1st<std::pair<void* const, boost::function<void(int)> > >, std::less<void*>, std::allocator<std::pair<void* const, boost::function<void(int)> > > >::_S_key
FUNC 690fa 12 0 std::_Select1st<std::pair<void* const, boost::function<void(int)> > >::operator()
FUNC 6910c e3 0 std::_Rb_tree<void*, std::pair<void* const, boost::function<void(int)> >, std::_Select1st<std::pair<void* const, boost::function<void(int)> > >, std::less<void*>, std::allocator<std::pair<void* const, boost::function<void(int)> > > >::_M_insert_
FUNC 691f0 271 0 std::_Rb_tree<void*, std::pair<void* const, boost::function<void(int)> >, std::_Select1st<std::pair<void* const, boost::function<void(int)> > >, std::less<void*>, std::allocator<std::pair<void* const, boost::function<void(int)> > > >::_M_insert_unique
FUNC 69462 12 0 std::_Rb_tree<void*, std::pair<void* const, boost::function<void(int)> >, std::_Select1st<std::pair<void* const, boost::function<void(int)> > >, std::less<void*>, std::allocator<std::pair<void* const, boost::function<void(int)> > > >::_M_leftmost
FUNC 69474 28 0 std::_Rb_tree_const_iterator<std::pair<void* const, boost::function<void(int)> > >::operator--
FUNC 6949c 12 0 std::_Rb_tree<void*, std::pair<void* const, boost::function<void(int)> >, std::_Select1st<std::pair<void* const, boost::function<void(int)> > >, std::less<void*>, std::allocator<std::pair<void* const, boost::function<void(int)> > > >::_S_right
FUNC 694ae 28 0 std::_Rb_tree_const_iterator<std::pair<void* const, boost::function<void(int)> > >::operator++
FUNC 694d6 97 0 boost::function1<void, int>::assign_to_own
FUNC 6956d 2c 0 std::_Rb_tree<void*, std::pair<void* const, boost::function<void(int)> >, std::_Select1st<std::pair<void* const, boost::function<void(int)> > >, std::less<void*>, std::allocator<std::pair<void* const, boost::function<void(int)> > > >::_S_key
FUNC 6959a 8f 0 std::_Rb_tree<void*, std::pair<void* const, boost::function<void(int)> >, std::_Select1st<std::pair<void* const, boost::function<void(int)> > >, std::less<void*>, std::allocator<std::pair<void* const, boost::function<void(int)> > > >::_M_upper_bound
FUNC 6962a 2f 0 std::pair<std::_Rb_tree_iterator<std::pair<void* const, boost::function<void(int)> > >, std::_Rb_tree_iterator<std::pair<void* const, boost::function<void(int)> > > >::pair
FUNC 6965a 8d 0 std::_Rb_tree<void*, std::pair<void* const, boost::function<void(int)> >, std::_Select1st<std::pair<void* const, boost::function<void(int)> > >, std::less<void*>, std::allocator<std::pair<void* const, boost::function<void(int)> > > >::clear
FUNC 696e8 54 0 std::_Rb_tree<void*, std::pair<void* const, boost::function<void(int)> >, std::_Select1st<std::pair<void* const, boost::function<void(int)> > >, std::less<void*>, std::allocator<std::pair<void* const, boost::function<void(int)> > > >::erase
FUNC 6973c a 0 __gnu_cxx::new_allocator<std::_Rb_tree_node<std::pair<void* const, boost::function<void(int)> > > >::new_allocator
FUNC 69746 e 0 std::_Rb_tree<void*, std::pair<void* const, boost::function<void(int)> >, std::_Select1st<std::pair<void* const, boost::function<void(int)> > >, std::less<void*>, std::allocator<std::pair<void* const, boost::function<void(int)> > > >::_M_get_Node_allocator
FUNC 69754 1e 0 std::allocator<std::pair<void* const, boost::function<void(int)> > >::allocator<std::_Rb_tree_node<std::pair<void* const, boost::function<void(int)> > > >
FUNC 69772 a 0 __gnu_cxx::new_allocator<std::pair<void* const, boost::function<void(int)> > >::~new_allocator
FUNC 6977c 22 0 __gnu_cxx::new_allocator<std::_Rb_tree_node<std::pair<void* const, boost::function<void(int)> > > >::deallocate
FUNC 6979e 12 0 std::_Rb_tree<void*, std::pair<void* const, boost::function<void(int)> >, std::_Select1st<std::pair<void* const, boost::function<void(int)> > >, std::less<void*>, std::allocator<std::pair<void* const, boost::function<void(int)> > > >::_S_value
FUNC 697b0 bb 0 std::_Rb_tree<void*, std::pair<void* const, boost::function<void(int)> >, std::_Select1st<std::pair<void* const, boost::function<void(int)> > >, std::less<void*>, std::allocator<std::pair<void* const, boost::function<void(int)> > > >::_M_create_node
FUNC 6986c 2e 0 std::pair<std::_Rb_tree_iterator<std::pair<void* const, boost::function<void(int)> > >, bool>::pair
FUNC 6989a 28 0 std::_Rb_tree_iterator<std::pair<void* const, boost::function<void(int)> > >::operator--
FUNC 698c2 12 0 std::_Rb_tree<void*, std::pair<void* const, boost::function<void(int)> >, std::_Select1st<std::pair<void* const, boost::function<void(int)> > >, std::less<void*>, std::allocator<std::pair<void* const, boost::function<void(int)> > > >::_S_value
FUNC 698d4 12 0 std::_Rb_tree<void*, std::pair<void* const, boost::function<void(int)> >, std::_Select1st<std::pair<void* const, boost::function<void(int)> > >, std::less<void*>, std::allocator<std::pair<void* const, boost::function<void(int)> > > >::_M_root
FUNC 698e6 a 0 __gnu_cxx::new_allocator<std::pair<void* const, boost::function<void(int)> > >::new_allocator
FUNC 698f0 24 0 std::_Rb_tree<void*, std::pair<void* const, boost::function<void(int)> >, std::_Select1st<std::pair<void* const, boost::function<void(int)> > >, std::less<void*>, std::allocator<std::pair<void* const, boost::function<void(int)> > > >::_M_get_node
FUNC 69914 3b 0 std::pair<void* const, boost::function<void(int)> >::pair
FUNC 69950 77 0 __gnu_cxx::new_allocator<std::pair<void* const, boost::function<void(int)> > >::construct
FUNC 699c8 55 0 __gnu_cxx::new_allocator<std::_Rb_tree_node<std::pair<void* const, boost::function<void(int)> > > >::allocate
FUNC 69a1e 14 0 __gnu_cxx::new_allocator<std::_Rb_tree_node<std::pair<void* const, boost::function<void(int)> > > >::max_size
FUNC 69a38 6c 0 boost::exception_detail::clone_impl<boost::exception_detail::error_info_injector<boost::bad_function_call> >::clone
FUNC 69aaa 53 0 boost::exception_detail::clone_impl<boost::exception_detail::error_info_injector<boost::bad_function_call> >::rethrow
FUNC 69b00 e9 0 Config::StringParameter::StringParameter
FUNC 69bea 103 0 Config::StringParameter::StringParameter
FUNC 69cee a6 0 Config::StringParameter::~StringParameter
FUNC 69d94 7b 0 Config::StringParameter::get
FUNC 69e10 2a1 0 Config::StringParameter::set
FUNC 6a0b2 8d 0 Config::StringParameter::registerWatcher
FUNC 6a140 7a 0 Config::StringParameter::unregisterWatcher
FUNC 6a1ba 181 0 __static_initialization_and_destruction_0
FUNC 6a33b 15 0 _GLOBAL__I__ZN6Config15StringParameterC2ERKSs
FUNC 6a350 2d 0 std::char_traits<char>::compare
FUNC 6a37e e 0 Config::StringParameter::_getName
FUNC 6a38c 1a 0 std::map<void*, boost::function<void(const std::string&)>, std::less<void*>, std::allocator<std::pair<void* const, boost::function<void(const std::string&)> > > >::~map
FUNC 6a3a6 1a 0 std::map<void*, boost::function<void(const std::string&)>, std::less<void*>, std::allocator<std::pair<void* const, boost::function<void(const std::string&)> > > >::map
FUNC 6a3c0 1a 0 std::_Rb_tree<void*, std::pair<void* const, boost::function<void(const std::string&)> >, std::_Select1st<std::pair<void* const, boost::function<void(const std::string&)> > >, std::less<void*>, std::allocator<std::pair<void* const, boost::function<void(const std::string&)> > > >::_Rb_tree_impl<std::less<void*>, false>::~_Rb_tree_impl
FUNC 6a3da 63 0 std::_Rb_tree<void*, std::pair<void* const, boost::function<void(const std::string&)> >, std::_Select1st<std::pair<void* const, boost::function<void(const std::string&)> > >, std::less<void*>, std::allocator<std::pair<void* const, boost::function<void(const std::string&)> > > >::~_Rb_tree
FUNC 6a43d 84 0 std::operator==<char>
FUNC 6a4c2 1a 0 std::map<void*, boost::function<void(const std::string&)>, std::less<void*>, std::allocator<std::pair<void* const, boost::function<void(const std::string&)> > > >::begin
FUNC 6a4dc 1a 0 std::map<void*, boost::function<void(const std::string&)>, std::less<void*>, std::allocator<std::pair<void* const, boost::function<void(const std::string&)> > > >::end
FUNC 6a4f6 22 0 std::_Rb_tree_iterator<std::pair<void* const, boost::function<void(const std::string&)> > >::operator!=
FUNC 6a518 36 0 std::_Rb_tree_iterator<std::pair<void* const, boost::function<void(const std::string&)> > >::operator++
FUNC 6a54e 15 0 std::_Rb_tree_iterator<std::pair<void* const, boost::function<void(const std::string&)> > >::operator->
FUNC 6a564 87 0 boost::function1<void, const std::string&>::operator()
FUNC 6a5ec 1a 0 boost::function<void(const std::string&)>::~function
FUNC 6a606 1e 0 std::pair<void* const, boost::function<void(const std::string&)> >::~pair
FUNC 6a624 161 0 std::map<void*, boost::function<void(const std::string&)>, std::less<void*>, std::allocator<std::pair<void* const, boost::function<void(const std::string&)> > > >::operator[]
FUNC 6a786 73 0 boost::function<void(const std::string&)>::operator=
FUNC 6a7fa 25 0 std::map<void*, boost::function<void(const std::string&)>, std::less<void*>, std::allocator<std::pair<void* const, boost::function<void(const std::string&)> > > >::erase
FUNC 6a820 1a 0 std::_Rb_tree<void*, std::pair<void* const, boost::function<void(const std::string&)> >, std::_Select1st<std::pair<void* const, boost::function<void(const std::string&)> > >, std::less<void*>, std::allocator<std::pair<void* const, boost::function<void(const std::string&)> > > >::_Rb_tree
FUNC 6a83a 1a 0 std::allocator<std::_Rb_tree_node<std::pair<void* const, boost::function<void(const std::string&)> > > >::~allocator
FUNC 6a854 69 0 std::_Rb_tree<void*, std::pair<void* const, boost::function<void(const std::string&)> >, std::_Select1st<std::pair<void* const, boost::function<void(const std::string&)> > >, std::less<void*>, std::allocator<std::pair<void* const, boost::function<void(const std::string&)> > > >::_M_erase
FUNC 6a8be 12 0 std::_Rb_tree<void*, std::pair<void* const, boost::function<void(const std::string&)> >, std::_Select1st<std::pair<void* const, boost::function<void(const std::string&)> > >, std::less<void*>, std::allocator<std::pair<void* const, boost::function<void(const std::string&)> > > >::_M_begin
FUNC 6a8d0 2c 0 std::_Rb_tree<void*, std::pair<void* const, boost::function<void(const std::string&)> >, std::_Select1st<std::pair<void* const, boost::function<void(const std::string&)> > >, std::less<void*>, std::allocator<std::pair<void* const, boost::function<void(const std::string&)> > > >::begin
FUNC 6a8fc 2c 0 std::_Rb_tree<void*, std::pair<void* const, boost::function<void(const std::string&)> >, std::_Select1st<std::pair<void* const, boost::function<void(const std::string&)> > >, std::less<void*>, std::allocator<std::pair<void* const, boost::function<void(const std::string&)> > > >::end
FUNC 6a928 15 0 boost::function1<void, const std::string&>::get_vtable
FUNC 6a93e 25 0 std::map<void*, boost::function<void(const std::string&)>, std::less<void*>, std::allocator<std::pair<void* const, boost::function<void(const std::string&)> > > >::lower_bound
FUNC 6a964 1a 0 std::map<void*, boost::function<void(const std::string&)>, std::less<void*>, std::allocator<std::pair<void* const, boost::function<void(const std::string&)> > > >::key_comp
FUNC 6a97e 15 0 std::_Rb_tree_iterator<std::pair<void* const, boost::function<void(const std::string&)> > >::operator*
FUNC 6a994 22 0 std::_Rb_tree_iterator<std::pair<void* const, boost::function<void(const std::string&)> > >::operator==
FUNC 6a9b6 1a 0 boost::function<void(const std::string&)>::function
FUNC 6a9d0 1a 0 boost::function1<void, const std::string&>::~function1
FUNC 6a9ea 3b 0 std::pair<void* const, boost::function<void(const std::string&)> >::pair
FUNC 6aa26 40 0 std::map<void*, boost::function<void(const std::string&)>, std::less<void*>, std::allocator<std::pair<void* const, boost::function<void(const std::string&)> > > >::insert
FUNC 6aa66 25 0 boost::function<void(const std::string&)>::function
FUNC 6aa8c 9b 0 boost::function1<void, const std::string&>::swap
FUNC 6ab28 83 0 std::_Rb_tree<void*, std::pair<void* const, boost::function<void(const std::string&)> >, std::_Select1st<std::pair<void* const, boost::function<void(const std::string&)> > >, std::less<void*>, std::allocator<std::pair<void* const, boost::function<void(const std::string&)> > > >::erase
FUNC 6abac 61 0 std::_Rb_tree<void*, std::pair<void* const, boost::function<void(const std::string&)> >, std::_Select1st<std::pair<void* const, boost::function<void(const std::string&)> > >, std::less<void*>, std::allocator<std::pair<void* const, boost::function<void(const std::string&)> > > >::_Rb_tree_impl<std::less<void*>, false>::_Rb_tree_impl
FUNC 6ac0e a 0 __gnu_cxx::new_allocator<std::_Rb_tree_node<std::pair<void* const, boost::function<void(const std::string&)> > > >::~new_allocator
FUNC 6ac18 12 0 std::_Rb_tree<void*, std::pair<void* const, boost::function<void(const std::string&)> >, std::_Select1st<std::pair<void* const, boost::function<void(const std::string&)> > >, std::less<void*>, std::allocator<std::pair<void* const, boost::function<void(const std::string&)> > > >::_S_right
FUNC 6ac2a 12 0 std::_Rb_tree<void*, std::pair<void* const, boost::function<void(const std::string&)> >, std::_Select1st<std::pair<void* const, boost::function<void(const std::string&)> > >, std::less<void*>, std::allocator<std::pair<void* const, boost::function<void(const std::string&)> > > >::_S_left
FUNC 6ac3c 86 0 std::_Rb_tree<void*, std::pair<void* const, boost::function<void(const std::string&)> >, std::_Select1st<std::pair<void* const, boost::function<void(const std::string&)> > >, std::less<void*>, std::allocator<std::pair<void* const, boost::function<void(const std::string&)> > > >::_M_destroy_node
FUNC 6acc2 19 0 std::_Rb_tree_iterator<std::pair<void* const, boost::function<void(const std::string&)> > >::_Rb_tree_iterator
FUNC 6acdc 53 0 std::_Rb_tree<void*, std::pair<void* const, boost::function<void(const std::string&)> >, std::_Select1st<std::pair<void* const, boost::function<void(const std::string&)> > >, std::less<void*>, std::allocator<std::pair<void* const, boost::function<void(const std::string&)> > > >::lower_bound
FUNC 6ad30 a 0 std::_Rb_tree<void*, std::pair<void* const, boost::function<void(const std::string&)> >, std::_Select1st<std::pair<void* const, boost::function<void(const std::string&)> > >, std::less<void*>, std::allocator<std::pair<void* const, boost::function<void(const std::string&)> > > >::key_comp
FUNC 6ad3a a 0 std::unary_function<const std::string&, void>::unary_function
FUNC 6ad44 26 0 boost::function1<void, const std::string&>::function1
FUNC 6ad6a 5d 0 boost::function1<void, const std::string&>::clear
FUNC 6adc8 1c 0 std::_Rb_tree_const_iterator<std::pair<void* const, boost::function<void(const std::string&)> > >::_Rb_tree_const_iterator
FUNC 6ade4 4c0 0 std::_Rb_tree<void*, std::pair<void* const, boost::function<void(const std::string&)> >, std::_Select1st<std::pair<void* const, boost::function<void(const std::string&)> > >, std::less<void*>, std::allocator<std::pair<void* const, boost::function<void(const std::string&)> > > >::_M_insert_unique_
FUNC 6b2a4 3d 0 boost::function1<void, const std::string&>::function1
FUNC 6b2e2 f5 0 boost::function1<void, const std::string&>::move_assign
FUNC 6b3d8 204 0 std::_Rb_tree<void*, std::pair<void* const, boost::function<void(const std::string&)> >, std::_Select1st<std::pair<void* const, boost::function<void(const std::string&)> > >, std::less<void*>, std::allocator<std::pair<void* const, boost::function<void(const std::string&)> > > >::equal_range
FUNC 6b5dc 12 0 std::_Rb_tree<void*, std::pair<void* const, boost::function<void(const std::string&)> >, std::_Select1st<std::pair<void* const, boost::function<void(const std::string&)> > >, std::less<void*>, std::allocator<std::pair<void* const, boost::function<void(const std::string&)> > > >::size
FUNC 6b5ee bc 0 std::_Rb_tree<void*, std::pair<void* const, boost::function<void(const std::string&)> >, std::_Select1st<std::pair<void* const, boost::function<void(const std::string&)> > >, std::less<void*>, std::allocator<std::pair<void* const, boost::function<void(const std::string&)> > > >::erase
FUNC 6b6aa 1a 0 std::allocator<std::_Rb_tree_node<std::pair<void* const, boost::function<void(const std::string&)> > > >::allocator
FUNC 6b6c4 41 0 std::_Rb_tree<void*, std::pair<void* const, boost::function<void(const std::string&)> >, std::_Select1st<std::pair<void* const, boost::function<void(const std::string&)> > >, std::less<void*>, std::allocator<std::pair<void* const, boost::function<void(const std::string&)> > > >::_Rb_tree_impl<std::less<void*>, false>::_M_initialize
FUNC 6b706 3b 0 std::_Rb_tree<void*, std::pair<void* const, boost::function<void(const std::string&)> >, std::_Select1st<std::pair<void* const, boost::function<void(const std::string&)> > >, std::less<void*>, std::allocator<std::pair<void* const, boost::function<void(const std::string&)> > > >::get_allocator
FUNC 6b742 1a 0 std::allocator<std::pair<void* const, boost::function<void(const std::string&)> > >::~allocator
FUNC 6b75c 1e 0 __gnu_cxx::new_allocator<std::pair<void* const, boost::function<void(const std::string&)> > >::destroy
FUNC 6b77a 2a 0 std::_Rb_tree<void*, std::pair<void* const, boost::function<void(const std::string&)> >, std::_Select1st<std::pair<void* const, boost::function<void(const std::string&)> > >, std::less<void*>, std::allocator<std::pair<void* const, boost::function<void(const std::string&)> > > >::_M_put_node
FUNC 6b7a4 12 0 std::_Rb_tree<void*, std::pair<void* const, boost::function<void(const std::string&)> >, std::_Select1st<std::pair<void* const, boost::function<void(const std::string&)> > >, std::less<void*>, std::allocator<std::pair<void* const, boost::function<void(const std::string&)> > > >::_M_end
FUNC 6b7b6 92 0 std::_Rb_tree<void*, std::pair<void* const, boost::function<void(const std::string&)> >, std::_Select1st<std::pair<void* const, boost::function<void(const std::string&)> > >, std::less<void*>, std::allocator<std::pair<void* const, boost::function<void(const std::string&)> > > >::_M_lower_bound
FUNC 6b848 40 0 boost::detail::function::basic_vtable1<void, const std::string&>::clear
FUNC 6b888 12 0 std::_Rb_tree<void*, std::pair<void* const, boost::function<void(const std::string&)> >, std::_Select1st<std::pair<void* const, boost::function<void(const std::string&)> > >, std::less<void*>, std::allocator<std::pair<void* const, boost::function<void(const std::string&)> > > >::_M_rightmost
FUNC 6b89a 2c 0 std::_Rb_tree<void*, std::pair<void* const, boost::function<void(const std::string&)> >, std::_Select1st<std::pair<void* const, boost::function<void(const std::string&)> > >, std::less<void*>, std::allocator<std::pair<void* const, boost::function<void(const std::string&)> > > >::_S_key
FUNC 6b8c6 12 0 std::_Select1st<std::pair<void* const, boost::function<void(const std::string&)> > >::operator()
FUNC 6b8d8 e3 0 std::_Rb_tree<void*, std::pair<void* const, boost::function<void(const std::string&)> >, std::_Select1st<std::pair<void* const, boost::function<void(const std::string&)> > >, std::less<void*>, std::allocator<std::pair<void* const, boost::function<void(const std::string&)> > > >::_M_insert_
FUNC 6b9bc 271 0 std::_Rb_tree<void*, std::pair<void* const, boost::function<void(const std::string&)> >, std::_Select1st<std::pair<void* const, boost::function<void(const std::string&)> > >, std::less<void*>, std::allocator<std::pair<void* const, boost::function<void(const std::string&)> > > >::_M_insert_unique
FUNC 6bc2e 12 0 std::_Rb_tree<void*, std::pair<void* const, boost::function<void(const std::string&)> >, std::_Select1st<std::pair<void* const, boost::function<void(const std::string&)> > >, std::less<void*>, std::allocator<std::pair<void* const, boost::function<void(const std::string&)> > > >::_M_leftmost
FUNC 6bc40 28 0 std::_Rb_tree_const_iterator<std::pair<void* const, boost::function<void(const std::string&)> > >::operator--
FUNC 6bc68 12 0 std::_Rb_tree<void*, std::pair<void* const, boost::function<void(const std::string&)> >, std::_Select1st<std::pair<void* const, boost::function<void(const std::string&)> > >, std::less<void*>, std::allocator<std::pair<void* const, boost::function<void(const std::string&)> > > >::_S_right
FUNC 6bc7a 28 0 std::_Rb_tree_const_iterator<std::pair<void* const, boost::function<void(const std::string&)> > >::operator++
FUNC 6bca2 97 0 boost::function1<void, const std::string&>::assign_to_own
FUNC 6bd39 2c 0 std::_Rb_tree<void*, std::pair<void* const, boost::function<void(const std::string&)> >, std::_Select1st<std::pair<void* const, boost::function<void(const std::string&)> > >, std::less<void*>, std::allocator<std::pair<void* const, boost::function<void(const std::string&)> > > >::_S_key
FUNC 6bd66 8f 0 std::_Rb_tree<void*, std::pair<void* const, boost::function<void(const std::string&)> >, std::_Select1st<std::pair<void* const, boost::function<void(const std::string&)> > >, std::less<void*>, std::allocator<std::pair<void* const, boost::function<void(const std::string&)> > > >::_M_upper_bound
FUNC 6bdf6 2f 0 std::pair<std::_Rb_tree_iterator<std::pair<void* const, boost::function<void(const std::string&)> > >, std::_Rb_tree_iterator<std::pair<void* const, boost::function<void(const std::string&)> > > >::pair
FUNC 6be26 8d 0 std::_Rb_tree<void*, std::pair<void* const, boost::function<void(const std::string&)> >, std::_Select1st<std::pair<void* const, boost::function<void(const std::string&)> > >, std::less<void*>, std::allocator<std::pair<void* const, boost::function<void(const std::string&)> > > >::clear
FUNC 6beb4 54 0 std::_Rb_tree<void*, std::pair<void* const, boost::function<void(const std::string&)> >, std::_Select1st<std::pair<void* const, boost::function<void(const std::string&)> > >, std::less<void*>, std::allocator<std::pair<void* const, boost::function<void(const std::string&)> > > >::erase
FUNC 6bf08 a 0 __gnu_cxx::new_allocator<std::_Rb_tree_node<std::pair<void* const, boost::function<void(const std::string&)> > > >::new_allocator
FUNC 6bf12 e 0 std::_Rb_tree<void*, std::pair<void* const, boost::function<void(const std::string&)> >, std::_Select1st<std::pair<void* const, boost::function<void(const std::string&)> > >, std::less<void*>, std::allocator<std::pair<void* const, boost::function<void(const std::string&)> > > >::_M_get_Node_allocator
FUNC 6bf20 1e 0 std::allocator<std::pair<void* const, boost::function<void(const std::string&)> > >::allocator<std::_Rb_tree_node<std::pair<void* const, boost::function<void(const std::string&)> > > >
FUNC 6bf3e a 0 __gnu_cxx::new_allocator<std::pair<void* const, boost::function<void(const std::string&)> > >::~new_allocator
FUNC 6bf48 22 0 __gnu_cxx::new_allocator<std::_Rb_tree_node<std::pair<void* const, boost::function<void(const std::string&)> > > >::deallocate
FUNC 6bf6a 12 0 std::_Rb_tree<void*, std::pair<void* const, boost::function<void(const std::string&)> >, std::_Select1st<std::pair<void* const, boost::function<void(const std::string&)> > >, std::less<void*>, std::allocator<std::pair<void* const, boost::function<void(const std::string&)> > > >::_S_value
FUNC 6bf7c bb 0 std::_Rb_tree<void*, std::pair<void* const, boost::function<void(const std::string&)> >, std::_Select1st<std::pair<void* const, boost::function<void(const std::string&)> > >, std::less<void*>, std::allocator<std::pair<void* const, boost::function<void(const std::string&)> > > >::_M_create_node
FUNC 6c038 2e 0 std::pair<std::_Rb_tree_iterator<std::pair<void* const, boost::function<void(const std::string&)> > >, bool>::pair
FUNC 6c066 28 0 std::_Rb_tree_iterator<std::pair<void* const, boost::function<void(const std::string&)> > >::operator--
FUNC 6c08e 12 0 std::_Rb_tree<void*, std::pair<void* const, boost::function<void(const std::string&)> >, std::_Select1st<std::pair<void* const, boost::function<void(const std::string&)> > >, std::less<void*>, std::allocator<std::pair<void* const, boost::function<void(const std::string&)> > > >::_S_value
FUNC 6c0a0 12 0 std::_Rb_tree<void*, std::pair<void* const, boost::function<void(const std::string&)> >, std::_Select1st<std::pair<void* const, boost::function<void(const std::string&)> > >, std::less<void*>, std::allocator<std::pair<void* const, boost::function<void(const std::string&)> > > >::_M_root
FUNC 6c0b2 a 0 __gnu_cxx::new_allocator<std::pair<void* const, boost::function<void(const std::string&)> > >::new_allocator
FUNC 6c0bc 24 0 std::_Rb_tree<void*, std::pair<void* const, boost::function<void(const std::string&)> >, std::_Select1st<std::pair<void* const, boost::function<void(const std::string&)> > >, std::less<void*>, std::allocator<std::pair<void* const, boost::function<void(const std::string&)> > > >::_M_get_node
FUNC 6c0e0 3b 0 std::pair<void* const, boost::function<void(const std::string&)> >::pair
FUNC 6c11c 77 0 __gnu_cxx::new_allocator<std::pair<void* const, boost::function<void(const std::string&)> > >::construct
FUNC 6c194 55 0 __gnu_cxx::new_allocator<std::_Rb_tree_node<std::pair<void* const, boost::function<void(const std::string&)> > > >::allocate
FUNC 6c1ea 14 0 __gnu_cxx::new_allocator<std::_Rb_tree_node<std::pair<void* const, boost::function<void(const std::string&)> > > >::max_size
FUNC 6c200 88e 0 Config::XmlGroup::parse
FUNC 6ca8e 250 0 Config::XmlGroup::genNode
FUNC 6ccde 61c 0 Config::XmlGroup::convertToMap
FUNC 6d2fa 383 0 Config::XmlGroup::refreshFromMap
FUNC 6d67d 257 0 __static_initialization_and_destruction_0
FUNC 6d8d4 15 0 _GLOBAL__I__ZN6Config8XmlGroup9GROUP_TAGE
FUNC 6d8ea 139 0 Config::XmlParameter::XmlParameter
FUNC 6da24 e 0 Config::XmlParameter::getName
FUNC 6da32 12 0 Config::XmlParameter::getId
FUNC 6da44 12 0 Config::XmlParameter::getValueType
FUNC 6da56 12 0 Config::XmlParameter::getValueRange
FUNC 6da68 12 0 Config::XmlParameter::getValue
FUNC 6da7a 29 0 Config::XmlParameter::setValue
FUNC 6daa4 55 0 std::pair<std::basic_string<char, std::char_traits<char>, std::allocator<char> >, Config::IntParameter>::~pair
FUNC 6dafa 55 0 std::pair<std::basic_string<char, std::char_traits<char>, std::allocator<char> >, Config::StringParameter>::~pair
FUNC 6db50 7a 0 std::vector<Config::XmlGroup, std::allocator<Config::XmlGroup> >::push_back
FUNC 6dbca 7a 0 std::vector<Config::XmlParameter, std::allocator<Config::XmlParameter> >::push_back
FUNC 6dc44 3e 0 __gnu_cxx::__normal_iterator<Config::XmlGroup*, std::vector<Config::XmlGroup, std::allocator<Config::XmlGroup> > >::operator++
FUNC 6dc82 11 0 __gnu_cxx::__normal_iterator<Config::XmlGroup*, std::vector<Config::XmlGroup, std::allocator<Config::XmlGroup> > >::operator->
FUNC 6dc94 3e 0 __gnu_cxx::__normal_iterator<Config::XmlParameter*, std::vector<Config::XmlParameter, std::allocator<Config::XmlParameter> > >::operator++
FUNC 6dcd2 11 0 __gnu_cxx::__normal_iterator<Config::XmlParameter*, std::vector<Config::XmlParameter, std::allocator<Config::XmlParameter> > >::operator->
FUNC 6dce4 6b 0 std::pair<std::basic_string<char, std::char_traits<char>, std::allocator<char> >, Config::IntParameter>::pair
FUNC 6dd50 6b 0 std::pair<const std::basic_string<char, std::char_traits<char>, std::allocator<char> >, Config::IntParameter>::pair<std::basic_string<char, std::char_traits<char>, std::allocator<char> >, Config::IntParameter>
FUNC 6ddbc 6b 0 std::pair<std::basic_string<char, std::char_traits<char>, std::allocator<char> >, Config::StringParameter>::pair
FUNC 6de28 6b 0 std::pair<const std::basic_string<char, std::char_traits<char>, std::allocator<char> >, Config::StringParameter>::pair<std::basic_string<char, std::char_traits<char>, std::allocator<char> >, Config::StringParameter>
FUNC 6de94 77 0 __gnu_cxx::new_allocator<Config::XmlGroup>::construct
FUNC 6df0c 3e6 0 std::vector<Config::XmlGroup, std::allocator<Config::XmlGroup> >::_M_insert_aux
FUNC 6e2f2 77 0 __gnu_cxx::new_allocator<Config::XmlParameter>::construct
FUNC 6e36a 3e6 0 std::vector<Config::XmlParameter, std::allocator<Config::XmlParameter> >::_M_insert_aux
FUNC 6e750 46 0 std::copy_backward<Config::XmlGroup*, Config::XmlGroup*>
FUNC 6e796 ca 0 std::vector<Config::XmlGroup, std::allocator<Config::XmlGroup> >::_M_check_len
FUNC 6e860 57 0 __gnu_cxx::operator-<Config::XmlGroup*, std::vector<Config::XmlGroup, std::allocator<Config::XmlGroup> > >
FUNC 6e8b7 3b 0 std::__uninitialized_move_a<Config::XmlGroup*, Config::XmlGroup*, std::allocator<Config::XmlGroup> >
FUNC 6e8f2 1e 0 __gnu_cxx::new_allocator<Config::XmlGroup>::destroy
FUNC 6e910 46 0 std::copy_backward<Config::XmlParameter*, Config::XmlParameter*>
FUNC 6e956 ca 0 std::vector<Config::XmlParameter, std::allocator<Config::XmlParameter> >::_M_check_len
FUNC 6ea20 57 0 __gnu_cxx::operator-<Config::XmlParameter*, std::vector<Config::XmlParameter, std::allocator<Config::XmlParameter> > >
FUNC 6ea77 3b 0 std::__uninitialized_move_a<Config::XmlParameter*, Config::XmlParameter*, std::allocator<Config::XmlParameter> >
FUNC 6eab2 1e 0 __gnu_cxx::new_allocator<Config::XmlParameter>::destroy
FUNC 6ead0 58 0 std::__copy_move_backward_a2<false, Config::XmlGroup*, Config::XmlGroup*>
FUNC 6eb28 22 0 std::vector<Config::XmlGroup, std::allocator<Config::XmlGroup> >::max_size
FUNC 6eb4a 58 0 std::__copy_move_backward_a2<false, Config::XmlParameter*, Config::XmlParameter*>
FUNC 6eba2 22 0 std::vector<Config::XmlParameter, std::allocator<Config::XmlParameter> >::max_size
FUNC 6ebc4 31 0 std::__copy_move_backward_a<false, Config::XmlGroup*, Config::XmlGroup*>
FUNC 6ebf5 31 0 std::__copy_move_backward_a<false, Config::XmlParameter*, Config::XmlParameter*>
FUNC 6ec26 74 0 std::__copy_move_backward<false, false, std::random_access_iterator_tag>::__copy_move_b<Config::XmlGroup*, Config::XmlGroup*>
FUNC 6ec9a 74 0 std::__copy_move_backward<false, false, std::random_access_iterator_tag>::__copy_move_b<Config::XmlParameter*, Config::XmlParameter*>
FUNC 6ed10 5ed 0 Config::XmlParameter::parse
FUNC 6f2fe 29f 0 Config::XmlParameter::genNode
FUNC 6f59e d8 0 Config::XmlParameter::setValue
FUNC 6f676 587 0 __static_initialization_and_destruction_0
FUNC 6fbfd 15 0 _GLOBAL__I__ZN6Config12XmlParameter13PARAMETER_TAGE
FUNC 6fc14 550 0 WgjXml::WgjXml
FUNC 70164 581 0 WgjXml::~WgjXml
FUNC 706e6 6c 0 WgjXml::LoadXml
FUNC 70752 a1 0 WgjXml::Get_Point61850
FUNC 707f4 1f1 0 WgjXml::GetTransmitChannel
FUNC 709e6 96 0 WgjXml::Get_61850
FUNC 70a7c 1b8 0 WgjXml::GetRedisConnectionConfig
FUNC 70c34 db 0 WgjXml::GetCollectionRedisInfo
FUNC 70d10 72 0 WgjXml::GetPcapConfigInfo
FUNC 70d82 6b 0 WgjXml::GetAllChannelName
FUNC 70dee f2 0 WgjXml::GetParseConfigInfo
FUNC 70ee0 be 0 WgjXml::GetIEC61850ServerPoint
FUNC 70f9e 85 0 WgjXml::InitIEC103Xml
FUNC 71024 36 0 WgjXml::GetIEC103Param
FUNC 7105a 36 0 WgjXml::GetIEC103Point
FUNC 71090 bf 0 WgjXml::GetIEC104WFPoint
FUNC 71150 89 0 WgjXml::GetIEC104WFParam
FUNC 711da 89 0 WgjXml::Get61850IP
FUNC 71264 732 0 WgjXml::parse_61850
FUNC 71996 68e 0 WgjXml::parse_Iec104
FUNC 72024 55e 0 WgjXml::parse_Iec104Param
FUNC 72582 452 0 WgjXml::parse_Iec103
FUNC 729d4 215 0 WgjXml::find_RedisInfo
FUNC 72bea 178 0 WgjXml::get_AllChannel
FUNC 72d62 62a 0 WgjXml::getParseConfigInfo
FUNC 7338c 2b0 0 WgjXml::GetDataStorageConfig
FUNC 7363c 487 0 WgjXml::getPcapConfigInfo
FUNC 73ac4 35d 0 WgjXml::getIEC61850ServerPoint
FUNC 73e22 314 0 WgjXml::parse_61850IP
FUNC 74136 40 0 __static_initialization_and_destruction_0
FUNC 74176 15 0 _GLOBAL__I__ZN6WgjXmlC2Ev
FUNC 7418c 1a 0 TiXmlString::~TiXmlString
FUNC 741a6 15 0 TiXmlString::c_str
FUNC 741bc 38 0 TiXmlString::quit
FUNC 741f4 1e 0 TiXmlNode::Value
FUNC 74212 1a 0 TiXmlNode::NextSiblingElement
FUNC 7422c 1a 0 TiXmlNode::FirstChildElement
FUNC 74246 18 0 TiXmlNode::NoChildren
FUNC 7425e 4a 0 TiXmlDocument::~TiXmlDocument
FUNC 742a8 26 0 TiXmlDocument::~TiXmlDocument
FUNC 742ce 1a 0 TiXmlDocument::RootElement
FUNC 742e8 1a 0 std::map<std::basic_string<char, std::char_traits<char>, std::allocator<char> >, IEC61850_STRUCT::IED_61850, std::less<std::basic_string<char, std::char_traits<char>, std::allocator<char> > >, std::allocator<std::pair<const std::basic_string<char, std::char_traits<char>, std::allocator<char> >, IEC61850_STRUCT::IED_61850> > >::~map
FUNC 74302 139 0 IEC61850_STRUCT::IED_61850::IED_61850
FUNC 7443c 140 0 IEC61850_STRUCT::IED_61850::~IED_61850
FUNC 7457c 1a 0 std::list<std::basic_string<char, std::char_traits<char>, std::allocator<char> >, std::allocator<std::basic_string<char, std::char_traits<char>, std::allocator<char> > > >::~list
FUNC 74596 1a 0 std::map<std::basic_string<char, std::char_traits<char>, std::allocator<char> >, std::map<int, std::map<int, IEC104WF::stPointTable, std::less<int>, std::allocator<std::pair<const int, IEC104WF::stPointTable> > >, std::less<int>, std::allocator<std::pair<const int, std::map<int, IEC104WF::stPointTable, std::less<int>, std::allocator<std::pair<const int, IEC104WF::stPointTable> > > > > >, std::less<std::basic_string<char, std::char_traits<char>, std::allocator<char> > >, std::allocator<std::pair<const std::basic_string<char, std::char_traits<char>, std::allocator<char> >, std::map<int, std::map<int, IEC104WF::stPointTable, std::less<int>, std::allocator<std::pair<const int, IEC104WF::stPointTable> > >, std::less<int>, std::allocator<std::pair<const int, std::map<int, IEC104WF::stPointTable, std::less<int>, std::allocator<std::pair<const int, IEC104WF::stPointTable> > > > > > > > >::~map
FUNC 745b0 1a 0 std::map<int, std::map<int, IEC104WF::stPointTable, std::less<int>, std::allocator<std::pair<const int, IEC104WF::stPointTable> > >, std::less<int>, std::allocator<std::pair<const int, std::map<int, IEC104WF::stPointTable, std::less<int>, std::allocator<std::pair<const int, IEC104WF::stPointTable> > > > > >::~map
FUNC 745ca 1a 0 std::map<int, IEC104WF::stPointTable, std::less<int>, std::allocator<std::pair<const int, IEC104WF::stPointTable> > >::~map
FUNC 745e4 1a 0 IEC104WF::stPointTable::stPointTable
FUNC 745fe 1a 0 IEC104WF::stPointTable::~stPointTable
FUNC 74618 82 0 IEC103::stConfigParam::stConfigParam
FUNC 7469a 121 0 IEC61850_STRUCT::IED_61850::operator=
FUNC 747bc 45 0 IEC104WF::stPointTable::operator=
FUNC 74802 7b 0 IEC103::stConfigParam::operator=
FUNC 7487e 1a 0 std::map<std::basic_string<char, std::char_traits<char>, std::allocator<char> >, IEC61850_STRUCT::IED_61850, std::less<std::basic_string<char, std::char_traits<char>, std::allocator<char> > >, std::allocator<std::pair<const std::basic_string<char, std::char_traits<char>, std::allocator<char> >, IEC61850_STRUCT::IED_61850> > >::map
FUNC 74898 1a 0 std::_Rb_tree<std::basic_string<char, std::char_traits<char>, std::allocator<char> >, std::pair<const std::basic_string<char, std::char_traits<char>, std::allocator<char> >, IEC61850_STRUCT::IED_61850>, std::_Select1st<std::pair<const std::basic_string<char, std::char_traits<char>, std::allocator<char> >, IEC61850_STRUCT::IED_61850> >, std::less<std::basic_string<char, std::char_traits<char>, std::allocator<char> > >, std::allocator<std::pair<const std::basic_string<char, std::char_traits<char>, std::allocator<char> >, IEC61850_STRUCT::IED_61850> > >::_Rb_tree_impl<std::less<std::basic_string<char, std::char_traits<char>, std::allocator<char> > >, false>::~_Rb_tree_impl
FUNC 748b2 63 0 std::_Rb_tree<std::basic_string<char, std::char_traits<char>, std::allocator<char> >, std::pair<const std::basic_string<char, std::char_traits<char>, std::allocator<char> >, IEC61850_STRUCT::IED_61850>, std::_Select1st<std::pair<const std::basic_string<char, std::char_traits<char>, std::allocator<char> >, IEC61850_STRUCT::IED_61850> >, std::less<std::basic_string<char, std::char_traits<char>, std::allocator<char> > >, std::allocator<std::pair<const std::basic_string<char, std::char_traits<char>, std::allocator<char> >, IEC61850_STRUCT::IED_61850> > >::~_Rb_tree
FUNC 74916 1a 0 std::list<std::basic_string<char, std::char_traits<char>, std::allocator<char> >, std::allocator<std::basic_string<char, std::char_traits<char>, std::allocator<char> > > >::list
FUNC 74930 1a 0 std::_List_base<std::basic_string<char, std::char_traits<char>, std::allocator<char> >, std::allocator<std::basic_string<char, std::char_traits<char>, std::allocator<char> > > >::_List_impl::~_List_impl
FUNC 7494a 51 0 std::_List_base<std::basic_string<char, std::char_traits<char>, std::allocator<char> >, std::allocator<std::basic_string<char, std::char_traits<char>, std::allocator<char> > > >::~_List_base
FUNC 7499c 1a 0 std::map<std::basic_string<char, std::char_traits<char>, std::allocator<char> >, std::map<int, std::map<int, IEC104WF::stPointTable, std::less<int>, std::allocator<std::pair<const int, IEC104WF::stPointTable> > >, std::less<int>, std::allocator<std::pair<const int, std::map<int, IEC104WF::stPointTable, std::less<int>, std::allocator<std::pair<const int, IEC104WF::stPointTable> > > > > >, std::less<std::basic_string<char, std::char_traits<char>, std::allocator<char> > >, std::allocator<std::pair<const std::basic_string<char, std::char_traits<char>, std::allocator<char> >, std::map<int, std::map<int, IEC104WF::stPointTable, std::less<int>, std::allocator<std::pair<const int, IEC104WF::stPointTable> > >, std::less<int>, std::allocator<std::pair<const int, std::map<int, IEC104WF::stPointTable, std::less<int>, std::allocator<std::pair<const int, IEC104WF::stPointTable> > > > > > > > >::map
FUNC 749b6 1a 0 std::_Rb_tree<std::basic_string<char, std::char_traits<char>, std::allocator<char> >, std::pair<const std::basic_string<char, std::char_traits<char>, std::allocator<char> >, std::map<int, std::map<int, IEC104WF::stPointTable, std::less<int>, std::allocator<std::pair<const int, IEC104WF::stPointTable> > >, std::less<int>, std::allocator<std::pair<const int, std::map<int, IEC104WF::stPointTable, std::less<int>, std::allocator<std::pair<const int, IEC104WF::stPointTable> > > > > > >, std::_Select1st<std::pair<const std::basic_string<char, std::char_traits<char>, std::allocator<char> >, std::map<int, std::map<int, IEC104WF::stPointTable, std::less<int>, std::allocator<std::pair<const int, IEC104WF::stPointTable> > >, std::less<int>, std::allocator<std::pair<const int, std::map<int, IEC104WF::stPointTable, std::less<int>, std::allocator<std::pair<const int, IEC104WF::stPointTable> > > > > > > >, std::less<std::basic_string<char, std::char_traits<char>, std::allocator<char> > >, std::allocator<std::pair<const std::basic_string<char, std::char_traits<char>, std::allocator<char> >, std::map<int, std::map<int, IEC104WF::stPointTable, std::less<int>, std::allocator<std::pair<const int, IEC104WF::stPointTable> > >, std::less<int>, std::allocator<std::pair<const int, std::map<int, IEC104WF::stPointTable, std::less<int>, std::allocator<std::pair<const int, IEC104WF::stPointTable> > > > > > > > >::_Rb_tree_impl<std::less<std::basic_string<char, std::char_traits<char>, std::allocator<char> > >, false>::~_Rb_tree_impl
FUNC 749d0 63 0 std::_Rb_tree<std::basic_string<char, std::char_traits<char>, std::allocator<char> >, std::pair<const std::basic_string<char, std::char_traits<char>, std::allocator<char> >, std::map<int, std::map<int, IEC104WF::stPointTable, std::less<int>, std::allocator<std::pair<const int, IEC104WF::stPointTable> > >, std::less<int>, std::allocator<std::pair<const int, std::map<int, IEC104WF::stPointTable, std::less<int>, std::allocator<std::pair<const int, IEC104WF::stPointTable> > > > > > >, std::_Select1st<std::pair<const std::basic_string<char, std::char_traits<char>, std::allocator<char> >, std::map<int, std::map<int, IEC104WF::stPointTable, std::less<int>, std::allocator<std::pair<const int, IEC104WF::stPointTable> > >, std::less<int>, std::allocator<std::pair<const int, std::map<int, IEC104WF::stPointTable, std::less<int>, std::allocator<std::pair<const int, IEC104WF::stPointTable> > > > > > > >, std::less<std::basic_string<char, std::char_traits<char>, std::allocator<char> > >, std::allocator<std::pair<const std::basic_string<char, std::char_traits<char>, std::allocator<char> >, std::map<int, std::map<int, IEC104WF::stPointTable, std::less<int>, std::allocator<std::pair<const int, IEC104WF::stPointTable> > >, std::less<int>, std::allocator<std::pair<const int, std::map<int, IEC104WF::stPointTable, std::less<int>, std::allocator<std::pair<const int, IEC104WF::stPointTable> > > > > > > > >::~_Rb_tree
FUNC 74a34 1a 0 std::map<int, std::map<int, IEC104WF::stPointTable, std::less<int>, std::allocator<std::pair<const int, IEC104WF::stPointTable> > >, std::less<int>, std::allocator<std::pair<const int, std::map<int, IEC104WF::stPointTable, std::less<int>, std::allocator<std::pair<const int, IEC104WF::stPointTable> > > > > >::map
FUNC 74a4e 1a 0 std::_Rb_tree<int, std::pair<const int, std::map<int, IEC104WF::stPointTable, std::less<int>, std::allocator<std::pair<const int, IEC104WF::stPointTable> > > >, std::_Select1st<std::pair<const int, std::map<int, IEC104WF::stPointTable, std::less<int>, std::allocator<std::pair<const int, IEC104WF::stPointTable> > > > >, std::less<int>, std::allocator<std::pair<const int, std::map<int, IEC104WF::stPointTable, std::less<int>, std::allocator<std::pair<const int, IEC104WF::stPointTable> > > > > >::_Rb_tree_impl<std::less<int>, false>::~_Rb_tree_impl
FUNC 74a68 63 0 std::_Rb_tree<int, std::pair<const int, std::map<int, IEC104WF::stPointTable, std::less<int>, std::allocator<std::pair<const int, IEC104WF::stPointTable> > > >, std::_Select1st<std::pair<const int, std::map<int, IEC104WF::stPointTable, std::less<int>, std::allocator<std::pair<const int, IEC104WF::stPointTable> > > > >, std::less<int>, std::allocator<std::pair<const int, std::map<int, IEC104WF::stPointTable, std::less<int>, std::allocator<std::pair<const int, IEC104WF::stPointTable> > > > > >::~_Rb_tree
FUNC 74acc 1a 0 std::map<int, IEC104WF::stPointTable, std::less<int>, std::allocator<std::pair<const int, IEC104WF::stPointTable> > >::map
FUNC 74ae6 1a 0 std::_Rb_tree<int, std::pair<const int, IEC104WF::stPointTable>, std::_Select1st<std::pair<const int, IEC104WF::stPointTable> >, std::less<int>, std::allocator<std::pair<const int, IEC104WF::stPointTable> > >::_Rb_tree_impl<std::less<int>, false>::~_Rb_tree_impl
FUNC 74b00 63 0 std::_Rb_tree<int, std::pair<const int, IEC104WF::stPointTable>, std::_Select1st<std::pair<const int, IEC104WF::stPointTable> >, std::less<int>, std::allocator<std::pair<const int, IEC104WF::stPointTable> > >::~_Rb_tree
FUNC 74b64 1a 0 std::map<std::basic_string<char, std::char_traits<char>, std::allocator<char> >, IEC103::stConfigParam, std::less<std::basic_string<char, std::char_traits<char>, std::allocator<char> > >, std::allocator<std::pair<const std::basic_string<char, std::char_traits<char>, std::allocator<char> >, IEC103::stConfigParam> > >::map
FUNC 74b7e 1a 0 std::map<std::basic_string<char, std::char_traits<char>, std::allocator<char> >, std::map<std::basic_string<char, std::char_traits<char>, std::allocator<char> >, std::basic_string<char, std::char_traits<char>, std::allocator<char> >, std::less<std::basic_string<char, std::char_traits<char>, std::allocator<char> > >, std::allocator<std::pair<const std::basic_string<char, std::char_traits<char>, std::allocator<char> >, std::basic_string<char, std::char_traits<char>, std::allocator<char> > > > >, std::less<std::basic_string<char, std::char_traits<char>, std::allocator<char> > >, std::allocator<std::pair<const std::basic_string<char, std::char_traits<char>, std::allocator<char> >, std::map<std::basic_string<char, std::char_traits<char>, std::allocator<char> >, std::basic_string<char, std::char_traits<char>, std::allocator<char> >, std::less<std::basic_string<char, std::char_traits<char>, std::allocator<char> > >, std::allocator<std::pair<const std::basic_string<char, std::char_traits<char>, std::allocator<char> >, std::basic_string<char, std::char_traits<char>, std::allocator<char> > > > > > > >::map
FUNC 74b98 1a 0 std::map<std::basic_string<char, std::char_traits<char>, std::allocator<char> >, IEC61850_STRUCT::IED_61850, std::less<std::basic_string<char, std::char_traits<char>, std::allocator<char> > >, std::allocator<std::pair<const std::basic_string<char, std::char_traits<char>, std::allocator<char> >, IEC61850_STRUCT::IED_61850> > >::clear
FUNC 74bb2 25 0 std::map<std::basic_string<char, std::char_traits<char>, std::allocator<char> >, IEC61850_STRUCT::IED_61850, std::less<std::basic_string<char, std::char_traits<char>, std::allocator<char> > >, std::allocator<std::pair<const std::basic_string<char, std::char_traits<char>, std::allocator<char> >, IEC61850_STRUCT::IED_61850> > >::map
FUNC 74bd7 2a 0 std::operator==<char, std::char_traits<char>, std::allocator<char> >
FUNC 74c02 1a 0 std::map<std::basic_string<char, std::char_traits<char>, std::allocator<char> >, IEC103::stConfigParam, std::less<std::basic_string<char, std::char_traits<char>, std::allocator<char> > >, std::allocator<std::pair<const std::basic_string<char, std::char_traits<char>, std::allocator<char> >, IEC103::stConfigParam> > >::clear
FUNC 74c1c 1a 0 std::map<std::basic_string<char, std::char_traits<char>, std::allocator<char> >, std::map<std::basic_string<char, std::char_traits<char>, std::allocator<char> >, std::basic_string<char, std::char_traits<char>, std::allocator<char> >, std::less<std::basic_string<char, std::char_traits<char>, std::allocator<char> > >, std::allocator<std::pair<const std::basic_string<char, std::char_traits<char>, std::allocator<char> >, std::basic_string<char, std::char_traits<char>, std::allocator<char> > > > >, std::less<std::basic_string<char, std::char_traits<char>, std::allocator<char> > >, std::allocator<std::pair<const std::basic_string<char, std::char_traits<char>, std::allocator<char> >, std::map<std::basic_string<char, std::char_traits<char>, std::allocator<char> >, std::basic_string<char, std::char_traits<char>, std::allocator<char> >, std::less<std::basic_string<char, std::char_traits<char>, std::allocator<char> > >, std::allocator<std::pair<const std::basic_string<char, std::char_traits<char>, std::allocator<char> >, std::basic_string<char, std::char_traits<char>, std::allocator<char> > > > > > > >::clear
FUNC 74c36 25 0 std::map<std::basic_string<char, std::char_traits<char>, std::allocator<char> >, IEC103::stConfigParam, std::less<std::basic_string<char, std::char_traits<char>, std::allocator<char> > >, std::allocator<std::pair<const std::basic_string<char, std::char_traits<char>, std::allocator<char> >, IEC103::stConfigParam> > >::map
FUNC 74c5c 25 0 std::map<std::basic_string<char, std::char_traits<char>, std::allocator<char> >, std::map<std::basic_string<char, std::char_traits<char>, std::allocator<char> >, std::basic_string<char, std::char_traits<char>, std::allocator<char> >, std::less<std::basic_string<char, std::char_traits<char>, std::allocator<char> > >, std::allocator<std::pair<const std::basic_string<char, std::char_traits<char>, std::allocator<char> >, std::basic_string<char, std::char_traits<char>, std::allocator<char> > > > >, std::less<std::basic_string<char, std::char_traits<char>, std::allocator<char> > >, std::allocator<std::pair<const std::basic_string<char, std::char_traits<char>, std::allocator<char> >, std::map<std::basic_string<char, std::char_traits<char>, std::allocator<char> >, std::basic_string<char, std::char_traits<char>, std::allocator<char> >, std::less<std::basic_string<char, std::char_traits<char>, std::allocator<char> > >, std::allocator<std::pair<const std::basic_string<char, std::char_traits<char>, std::allocator<char> >, std::basic_string<char, std::char_traits<char>, std::allocator<char> > > > > > > >::map
FUNC 74c82 1a 0 std::map<std::basic_string<char, std::char_traits<char>, std::allocator<char> >, std::map<int, std::map<int, IEC104WF::stPointTable, std::less<int>, std::allocator<std::pair<const int, IEC104WF::stPointTable> > >, std::less<int>, std::allocator<std::pair<const int, std::map<int, IEC104WF::stPointTable, std::less<int>, std::allocator<std::pair<const int, IEC104WF::stPointTable> > > > > >, std::less<std::basic_string<char, std::char_traits<char>, std::allocator<char> > >, std::allocator<std::pair<const std::basic_string<char, std::char_traits<char>, std::allocator<char> >, std::map<int, std::map<int, IEC104WF::stPointTable, std::less<int>, std::allocator<std::pair<const int, IEC104WF::stPointTable> > >, std::less<int>, std::allocator<std::pair<const int, std::map<int, IEC104WF::stPointTable, std::less<int>, std::allocator<std::pair<const int, IEC104WF::stPointTable> > > > > > > > >::clear
FUNC 74c9c 1a 0 std::map<int, std::map<int, IEC104WF::stPointTable, std::less<int>, std::allocator<std::pair<const int, IEC104WF::stPointTable> > >, std::less<int>, std::allocator<std::pair<const int, std::map<int, IEC104WF::stPointTable, std::less<int>, std::allocator<std::pair<const int, IEC104WF::stPointTable> > > > > >::clear
FUNC 74cb6 1a 0 std::map<int, IEC104WF::stPointTable, std::less<int>, std::allocator<std::pair<const int, IEC104WF::stPointTable> > >::clear
FUNC 74cd0 25 0 std::map<std::basic_string<char, std::char_traits<char>, std::allocator<char> >, std::map<int, std::map<int, IEC104WF::stPointTable, std::less<int>, std::allocator<std::pair<const int, IEC104WF::stPointTable> > >, std::less<int>, std::allocator<std::pair<const int, std::map<int, IEC104WF::stPointTable, std::less<int>, std::allocator<std::pair<const int, IEC104WF::stPointTable> > > > > >, std::less<std::basic_string<char, std::char_traits<char>, std::allocator<char> > >, std::allocator<std::pair<const std::basic_string<char, std::char_traits<char>, std::allocator<char> >, std::map<int, std::map<int, IEC104WF::stPointTable, std::less<int>, std::allocator<std::pair<const int, IEC104WF::stPointTable> > >, std::less<int>, std::allocator<std::pair<const int, std::map<int, IEC104WF::stPointTable, std::less<int>, std::allocator<std::pair<const int, IEC104WF::stPointTable> > > > > > > > >::map
FUNC 74cf6 26 0 std::list<std::basic_string<char, std::char_traits<char>, std::allocator<char> >, std::allocator<std::basic_string<char, std::char_traits<char>, std::allocator<char> > > >::clear
FUNC 74d1c cf 0 std::list<std::basic_string<char, std::char_traits<char>, std::allocator<char> >, std::allocator<std::basic_string<char, std::char_traits<char>, std::allocator<char> > > >::list
FUNC 74dec 55 0 std::pair<const std::basic_string<char, std::char_traits<char>, std::allocator<char> >, IEC61850_STRUCT::IED_61850>::~pair
FUNC 74e42 1b7 0 std::map<std::basic_string<char, std::char_traits<char>, std::allocator<char> >, IEC61850_STRUCT::IED_61850, std::less<std::basic_string<char, std::char_traits<char>, std::allocator<char> > >, std::allocator<std::pair<const std::basic_string<char, std::char_traits<char>, std::allocator<char> >, IEC61850_STRUCT::IED_61850> > >::operator[]
FUNC 74ffa 29 0 std::map<std::basic_string<char, std::char_traits<char>, std::allocator<char> >, std::basic_string<char, std::char_traits<char>, std::allocator<char> >, std::less<std::basic_string<char, std::char_traits<char>, std::allocator<char> > >, std::allocator<std::pair<const std::basic_string<char, std::char_traits<char>, std::allocator<char> >, std::basic_string<char, std::char_traits<char>, std::allocator<char> > > > >::operator=
FUNC 75024 9e 0 WgjXml::stringToNum<float>
FUNC 750c2 92 0 WgjXml::stringToNum<int>
FUNC 75154 1e 0 std::pair<const int, IEC104WF::stPointTable>::~pair
FUNC 75172 15e 0 std::map<int, IEC104WF::stPointTable, std::less<int>, std::allocator<std::pair<const int, IEC104WF::stPointTable> > >::operator[]
FUNC 752d0 1e 0 std::pair<const int, std::map<int, IEC104WF::stPointTable, std::less<int>, std::allocator<std::pair<const int, IEC104WF::stPointTable> > > >::~pair
FUNC 752ee 185 0 std::map<int, std::map<int, IEC104WF::stPointTable, std::less<int>, std::allocator<std::pair<const int, IEC104WF::stPointTable> > >, std::less<int>, std::allocator<std::pair<const int, std::map<int, IEC104WF::stPointTable, std::less<int>, std::allocator<std::pair<const int, IEC104WF::stPointTable> > > > > >::operator[]
FUNC 75474 29 0 std::map<int, IEC104WF::stPointTable, std::less<int>, std::allocator<std::pair<const int, IEC104WF::stPointTable> > >::operator=
FUNC 7549e 55 0 std::pair<const std::basic_string<char, std::char_traits<char>, std::allocator<char> >, std::map<int, std::map<int, IEC104WF::stPointTable, std::less<int>, std::allocator<std::pair<const int, IEC104WF::stPointTable> > >, std::less<int>, std::allocator<std::pair<const int, std::map<int, IEC104WF::stPointTable, std::less<int>, std::allocator<std::pair<const int, IEC104WF::stPointTable> > > > > > >::~pair
FUNC 754f4 185 0 std::map<std::basic_string<char, std::char_traits<char>, std::allocator<char> >, std::map<int, std::map<int, IEC104WF::stPointTable, std::less<int>, std::allocator<std::pair<const int, IEC104WF::stPointTable> > >, std::less<int>, std::allocator<std::pair<const int, std::map<int, IEC104WF::stPointTable, std::less<int>, std::allocator<std::pair<const int, IEC104WF::stPointTable> > > > > >, std::less<std::basic_string<char, std::char_traits<char>, std::allocator<char> > >, std::allocator<std::pair<const std::basic_string<char, std::char_traits<char>, std::allocator<char> >, std::map<int, std::map<int, IEC104WF::stPointTable, std::less<int>, std::allocator<std::pair<const int, IEC104WF::stPointTable> > >, std::less<int>, std::allocator<std::pair<const int, std::map<int, IEC104WF::stPointTable, std::less<int>, std::allocator<std::pair<const int, IEC104WF::stPointTable> > > > > > > > >::operator[]
FUNC 7567a 29 0 std::map<int, std::map<int, IEC104WF::stPointTable, std::less<int>, std::allocator<std::pair<const int, IEC104WF::stPointTable> > >, std::less<int>, std::allocator<std::pair<const int, std::map<int, IEC104WF::stPointTable, std::less<int>, std::allocator<std::pair<const int, IEC104WF::stPointTable> > > > > >::operator=
FUNC 756a3 28 0 std::operator!=<char, std::char_traits<char>, std::allocator<char> >
FUNC 756cc 187 0 std::map<std::basic_string<char, std::char_traits<char>, std::allocator<char> >, IEC103::stConfigParam, std::less<std::basic_string<char, std::char_traits<char>, std::allocator<char> > >, std::allocator<std::pair<const std::basic_string<char, std::char_traits<char>, std::allocator<char> >, IEC103::stConfigParam> > >::operator[]
FUNC 75854 185 0 std::map<std::basic_string<char, std::char_traits<char>, std::allocator<char> >, std::map<std::basic_string<char, std::char_traits<char>, std::allocator<char> >, std::basic_string<char, std::char_traits<char>, std::allocator<char> >, std::less<std::basic_string<char, std::char_traits<char>, std::allocator<char> > >, std::allocator<std::pair<const std::basic_string<char, std::char_traits<char>, std::allocator<char> >, std::basic_string<char, std::char_traits<char>, std::allocator<char> > > > >, std::less<std::basic_string<char, std::char_traits<char>, std::allocator<char> > >, std::allocator<std::pair<const std::basic_string<char, std::char_traits<char>, std::allocator<char> >, std::map<std::basic_string<char, std::char_traits<char>, std::allocator<char> >, std::basic_string<char, std::char_traits<char>, std::allocator<char> >, std::less<std::basic_string<char, std::char_traits<char>, std::allocator<char> > >, std::allocator<std::pair<const std::basic_string<char, std::char_traits<char>, std::allocator<char> >, std::basic_string<char, std::char_traits<char>, std::allocator<char> > > > > > > >::operator[]
FUNC 759da 34 0 std::list<std::basic_string<char, std::char_traits<char>, std::allocator<char> >, std::allocator<std::basic_string<char, std::char_traits<char>, std::allocator<char> > > >::push_back
FUNC 75a0e 1a 0 std::_Rb_tree<std::basic_string<char, std::char_traits<char>, std::allocator<char> >, std::pair<const std::basic_string<char, std::char_traits<char>, std::allocator<char> >, IEC61850_STRUCT::IED_61850>, std::_Select1st<std::pair<const std::basic_string<char, std::char_traits<char>, std::allocator<char> >, IEC61850_STRUCT::IED_61850> >, std::less<std::basic_string<char, std::char_traits<char>, std::allocator<char> > >, std::allocator<std::pair<const std::basic_string<char, std::char_traits<char>, std::allocator<char> >, IEC61850_STRUCT::IED_61850> > >::_Rb_tree
FUNC 75a28 1a 0 std::allocator<std::_Rb_tree_node<std::pair<const std::basic_string<char, std::char_traits<char>, std::allocator<char> >, IEC61850_STRUCT::IED_61850> > >::~allocator
FUNC 75a42 69 0 std::_Rb_tree<std::basic_string<char, std::char_traits<char>, std::allocator<char> >, std::pair<const std::basic_string<char, std::char_traits<char>, std::allocator<char> >, IEC61850_STRUCT::IED_61850>, std::_Select1st<std::pair<const std::basic_string<char, std::char_traits<char>, std::allocator<char> >, IEC61850_STRUCT::IED_61850> >, std::less<std::basic_string<char, std::char_traits<char>, std::allocator<char> > >, std::allocator<std::pair<const std::basic_string<char, std::char_traits<char>, std::allocator<char> >, IEC61850_STRUCT::IED_61850> > >::_M_erase
FUNC 75aac 12 0 std::_Rb_tree<std::basic_string<char, std::char_traits<char>, std::allocator<char> >, std::pair<const std::basic_string<char, std::char_traits<char>, std::allocator<char> >, IEC61850_STRUCT::IED_61850>, std::_Select1st<std::pair<const std::basic_string<char, std::char_traits<char>, std::allocator<char> >, IEC61850_STRUCT::IED_61850> >, std::less<std::basic_string<char, std::char_traits<char>, std::allocator<char> > >, std::allocator<std::pair<const std::basic_string<char, std::char_traits<char>, std::allocator<char> >, IEC61850_STRUCT::IED_61850> > >::_M_begin
FUNC 75abe 26 0 std::_List_base<std::basic_string<char, std::char_traits<char>, std::allocator<char> >, std::allocator<std::basic_string<char, std::char_traits<char>, std::allocator<char> > > >::_List_base
FUNC 75ae4 1a 0 std::allocator<std::_List_node<std::basic_string<char, std::char_traits<char>, std::allocator<char> > > >::~allocator
FUNC 75afe b8 0 std::_List_base<std::basic_string<char, std::char_traits<char>, std::allocator<char> >, std::allocator<std::basic_string<char, std::char_traits<char>, std::allocator<char> > > >::_M_clear
FUNC 75bb6 1a 0 std::_Rb_tree<std::basic_string<char, std::char_traits<char>, std::allocator<char> >, std::pair<const std::basic_string<char, std::char_traits<char>, std::allocator<char> >, std::map<int, std::map<int, IEC104WF::stPointTable, std::less<int>, std::allocator<std::pair<const int, IEC104WF::stPointTable> > >, std::less<int>, std::allocator<std::pair<const int, std::map<int, IEC104WF::stPointTable, std::less<int>, std::allocator<std::pair<const int, IEC104WF::stPointTable> > > > > > >, std::_Select1st<std::pair<const std::basic_string<char, std::char_traits<char>, std::allocator<char> >, std::map<int, std::map<int, IEC104WF::stPointTable, std::less<int>, std::allocator<std::pair<const int, IEC104WF::stPointTable> > >, std::less<int>, std::allocator<std::pair<const int, std::map<int, IEC104WF::stPointTable, std::less<int>, std::allocator<std::pair<const int, IEC104WF::stPointTable> > > > > > > >, std::less<std::basic_string<char, std::char_traits<char>, std::allocator<char> > >, std::allocator<std::pair<const std::basic_string<char, std::char_traits<char>, std::allocator<char> >, std::map<int, std::map<int, IEC104WF::stPointTable, std::less<int>, std::allocator<std::pair<const int, IEC104WF::stPointTable> > >, std::less<int>, std::allocator<std::pair<const int, std::map<int, IEC104WF::stPointTable, std::less<int>, std::allocator<std::pair<const int, IEC104WF::stPointTable> > > > > > > > >::_Rb_tree
FUNC 75bd0 1a 0 std::allocator<std::_Rb_tree_node<std::pair<const std::basic_string<char, std::char_traits<char>, std::allocator<char> >, std::map<int, std::map<int, IEC104WF::stPointTable, std::less<int>, std::allocator<std::pair<const int, IEC104WF::stPointTable> > >, std::less<int>, std::allocator<std::pair<const int, std::map<int, IEC104WF::stPointTable, std::less<int>, std::allocator<std::pair<const int, IEC104WF::stPointTable> > > > > > > > >::~allocator
FUNC 75bea 69 0 std::_Rb_tree<std::basic_string<char, std::char_traits<char>, std::allocator<char> >, std::pair<const std::basic_string<char, std::char_traits<char>, std::allocator<char> >, std::map<int, std::map<int, IEC104WF::stPointTable, std::less<int>, std::allocator<std::pair<const int, IEC104WF::stPointTable> > >, std::less<int>, std::allocator<std::pair<const int, std::map<int, IEC104WF::stPointTable, std::less<int>, std::allocator<std::pair<const int, IEC104WF::stPointTable> > > > > > >, std::_Select1st<std::pair<const std::basic_string<char, std::char_traits<char>, std::allocator<char> >, std::map<int, std::map<int, IEC104WF::stPointTable, std::less<int>, std::allocator<std::pair<const int, IEC104WF::stPointTable> > >, std::less<int>, std::allocator<std::pair<const int, std::map<int, IEC104WF::stPointTable, std::less<int>, std::allocator<std::pair<const int, IEC104WF::stPointTable> > > > > > > >, std::less<std::basic_string<char, std::char_traits<char>, std::allocator<char> > >, std::allocator<std::pair<const std::basic_string<char, std::char_traits<char>, std::allocator<char> >, std::map<int, std::map<int, IEC104WF::stPointTable, std::less<int>, std::allocator<std::pair<const int, IEC104WF::stPointTable> > >, std::less<int>, std::allocator<std::pair<const int, std::map<int, IEC104WF::stPointTable, std::less<int>, std::allocator<std::pair<const int, IEC104WF::stPointTable> > > > > > > > >::_M_erase
FUNC 75c54 12 0 std::_Rb_tree<std::basic_string<char, std::char_traits<char>, std::allocator<char> >, std::pair<const std::basic_string<char, std::char_traits<char>, std::allocator<char> >, std::map<int, std::map<int, IEC104WF::stPointTable, std::less<int>, std::allocator<std::pair<const int, IEC104WF::stPointTable> > >, std::less<int>, std::allocator<std::pair<const int, std::map<int, IEC104WF::stPointTable, std::less<int>, std::allocator<std::pair<const int, IEC104WF::stPointTable> > > > > > >, std::_Select1st<std::pair<const std::basic_string<char, std::char_traits<char>, std::allocator<char> >, std::map<int, std::map<int, IEC104WF::stPointTable, std::less<int>, std::allocator<std::pair<const int, IEC104WF::stPointTable> > >, std::less<int>, std::allocator<std::pair<const int, std::map<int, IEC104WF::stPointTable, std::less<int>, std::allocator<std::pair<const int, IEC104WF::stPointTable> > > > > > > >, std::less<std::basic_string<char, std::char_traits<char>, std::allocator<char> > >, std::allocator<std::pair<const std::basic_string<char, std::char_traits<char>, std::allocator<char> >, std::map<int, std::map<int, IEC104WF::stPointTable, std::less<int>, std::allocator<std::pair<const int, IEC104WF::stPointTable> > >, std::less<int>, std::allocator<std::pair<const int, std::map<int, IEC104WF::stPointTable, std::less<int>, std::allocator<std::pair<const int, IEC104WF::stPointTable> > > > > > > > >::_M_begin
FUNC 75c66 1a 0 std::_Rb_tree<int, std::pair<const int, std::map<int, IEC104WF::stPointTable, std::less<int>, std::allocator<std::pair<const int, IEC104WF::stPointTable> > > >, std::_Select1st<std::pair<const int, std::map<int, IEC104WF::stPointTable, std::less<int>, std::allocator<std::pair<const int, IEC104WF::stPointTable> > > > >, std::less<int>, std::allocator<std::pair<const int, std::map<int, IEC104WF::stPointTable, std::less<int>, std::allocator<std::pair<const int, IEC104WF::stPointTable> > > > > >::_Rb_tree
FUNC 75c80 1a 0 std::allocator<std::_Rb_tree_node<std::pair<const int, std::map<int, IEC104WF::stPointTable, std::less<int>, std::allocator<std::pair<const int, IEC104WF::stPointTable> > > > > >::~allocator
FUNC 75c9a 69 0 std::_Rb_tree<int, std::pair<const int, std::map<int, IEC104WF::stPointTable, std::less<int>, std::allocator<std::pair<const int, IEC104WF::stPointTable> > > >, std::_Select1st<std::pair<const int, std::map<int, IEC104WF::stPointTable, std::less<int>, std::allocator<std::pair<const int, IEC104WF::stPointTable> > > > >, std::less<int>, std::allocator<std::pair<const int, std::map<int, IEC104WF::stPointTable, std::less<int>, std::allocator<std::pair<const int, IEC104WF::stPointTable> > > > > >::_M_erase
FUNC 75d04 12 0 std::_Rb_tree<int, std::pair<const int, std::map<int, IEC104WF::stPointTable, std::less<int>, std::allocator<std::pair<const int, IEC104WF::stPointTable> > > >, std::_Select1st<std::pair<const int, std::map<int, IEC104WF::stPointTable, std::less<int>, std::allocator<std::pair<const int, IEC104WF::stPointTable> > > > >, std::less<int>, std::allocator<std::pair<const int, std::map<int, IEC104WF::stPointTable, std::less<int>, std::allocator<std::pair<const int, IEC104WF::stPointTable> > > > > >::_M_begin
FUNC 75d16 1a 0 std::_Rb_tree<int, std::pair<const int, IEC104WF::stPointTable>, std::_Select1st<std::pair<const int, IEC104WF::stPointTable> >, std::less<int>, std::allocator<std::pair<const int, IEC104WF::stPointTable> > >::_Rb_tree
FUNC 75d30 1a 0 std::allocator<std::_Rb_tree_node<std::pair<const int, IEC104WF::stPointTable> > >::~allocator
FUNC 75d4a 69 0 std::_Rb_tree<int, std::pair<const int, IEC104WF::stPointTable>, std::_Select1st<std::pair<const int, IEC104WF::stPointTable> >, std::less<int>, std::allocator<std::pair<const int, IEC104WF::stPointTable> > >::_M_erase
FUNC 75db4 12 0 std::_Rb_tree<int, std::pair<const int, IEC104WF::stPointTable>, std::_Select1st<std::pair<const int, IEC104WF::stPointTable> >, std::less<int>, std::allocator<std::pair<const int, IEC104WF::stPointTable> > >::_M_begin
FUNC 75dc6 1a 0 std::_Rb_tree<std::basic_string<char, std::char_traits<char>, std::allocator<char> >, std::pair<const std::basic_string<char, std::char_traits<char>, std::allocator<char> >, IEC103::stConfigParam>, std::_Select1st<std::pair<const std::basic_string<char, std::char_traits<char>, std::allocator<char> >, IEC103::stConfigParam> >, std::less<std::basic_string<char, std::char_traits<char>, std::allocator<char> > >, std::allocator<std::pair<const std::basic_string<char, std::char_traits<char>, std::allocator<char> >, IEC103::stConfigParam> > >::_Rb_tree
FUNC 75de0 1a 0 std::_Rb_tree<std::basic_string<char, std::char_traits<char>, std::allocator<char> >, std::pair<const std::basic_string<char, std::char_traits<char>, std::allocator<char> >, std::map<std::basic_string<char, std::char_traits<char>, std::allocator<char> >, std::basic_string<char, std::char_traits<char>, std::allocator<char> >, std::less<std::basic_string<char, std::char_traits<char>, std::allocator<char> > >, std::allocator<std::pair<const std::basic_string<char, std::char_traits<char>, std::allocator<char> >, std::basic_string<char, std::char_traits<char>, std::allocator<char> > > > > >, std::_Select1st<std::pair<const std::basic_string<char, std::char_traits<char>, std::allocator<char> >, std::map<std::basic_string<char, std::char_traits<char>, std::allocator<char> >, std::basic_string<char, std::char_traits<char>, std::allocator<char> >, std::less<std::basic_string<char, std::char_traits<char>, std::allocator<char> > >, std::allocator<std::pair<const std::basic_string<char, std::char_traits<char>, std::allocator<char> >, std::basic_string<char, std::char_traits<char>, std::allocator<char> > > > > > >, std::less<std::basic_string<char, std::char_traits<char>, std::allocator<char> > >, std::allocator<std::pair<const std::basic_string<char, std::char_traits<char>, std::allocator<char> >, std::map<std::basic_string<char, std::char_traits<char>, std::allocator<char> >, std::basic_string<char, std::char_traits<char>, std::allocator<char> >, std::less<std::basic_string<char, std::char_traits<char>, std::allocator<char> > >, std::allocator<std::pair<const std::basic_string<char, std::char_traits<char>, std::allocator<char> >, std::basic_string<char, std::char_traits<char>, std::allocator<char> > > > > > > >::_Rb_tree
FUNC 75dfa 8d 0 std::_Rb_tree<std::basic_string<char, std::char_traits<char>, std::allocator<char> >, std::pair<const std::basic_string<char, std::char_traits<char>, std::allocator<char> >, IEC61850_STRUCT::IED_61850>, std::_Select1st<std::pair<const std::basic_string<char, std::char_traits<char>, std::allocator<char> >, IEC61850_STRUCT::IED_61850> >, std::less<std::basic_string<char, std::char_traits<char>, std::allocator<char> > >, std::allocator<std::pair<const std::basic_string<char, std::char_traits<char>, std::allocator<char> >, IEC61850_STRUCT::IED_61850> > >::clear
FUNC 75e88 11d 0 std::_Rb_tree<std::basic_string<char, std::char_traits<char>, std::allocator<char> >, std::pair<const std::basic_string<char, std::char_traits<char>, std::allocator<char> >, IEC61850_STRUCT::IED_61850>, std::_Select1st<std::pair<const std::basic_string<char, std::char_traits<char>, std::allocator<char> >, IEC61850_STRUCT::IED_61850> >, std::less<std::basic_string<char, std::char_traits<char>, std::allocator<char> > >, std::allocator<std::pair<const std::basic_string<char, std::char_traits<char>, std::allocator<char> >, IEC61850_STRUCT::IED_61850> > >::_Rb_tree
FUNC 75fa6 8d 0 std::_Rb_tree<std::basic_string<char, std::char_traits<char>, std::allocator<char> >, std::pair<const std::basic_string<char, std::char_traits<char>, std::allocator<char> >, IEC103::stConfigParam>, std::_Select1st<std::pair<const std::basic_string<char, std::char_traits<char>, std::allocator<char> >, IEC103::stConfigParam> >, std::less<std::basic_string<char, std::char_traits<char>, std::allocator<char> > >, std::allocator<std::pair<const std::basic_string<char, std::char_traits<char>, std::allocator<char> >, IEC103::stConfigParam> > >::clear
FUNC 76034 8d 0 std::_Rb_tree<std::basic_string<char, std::char_traits<char>, std::allocator<char> >, std::pair<const std::basic_string<char, std::char_traits<char>, std::allocator<char> >, std::map<std::basic_string<char, std::char_traits<char>, std::allocator<char> >, std::basic_string<char, std::char_traits<char>, std::allocator<char> >, std::less<std::basic_string<char, std::char_traits<char>, std::allocator<char> > >, std::allocator<std::pair<const std::basic_string<char, std::char_traits<char>, std::allocator<char> >, std::basic_string<char, std::char_traits<char>, std::allocator<char> > > > > >, std::_Select1st<std::pair<const std::basic_string<char, std::char_traits<char>, std::allocator<char> >, std::map<std::basic_string<char, std::char_traits<char>, std::allocator<char> >, std::basic_string<char, std::char_traits<char>, std::allocator<char> >, std::less<std::basic_string<char, std::char_traits<char>, std::allocator<char> > >, std::allocator<std::pair<const std::basic_string<char, std::char_traits<char>, std::allocator<char> >, std::basic_string<char, std::char_traits<char>, std::allocator<char> > > > > > >, std::less<std::basic_string<char, std::char_traits<char>, std::allocator<char> > >, std::allocator<std::pair<const std::basic_string<char, std::char_traits<char>, std::allocator<char> >, std::map<std::basic_string<char, std::char_traits<char>, std::allocator<char> >, std::basic_string<char, std::char_traits<char>, std::allocator<char> >, std::less<std::basic_string<char, std::char_traits<char>, std::allocator<char> > >, std::allocator<std::pair<const std::basic_string<char, std::char_traits<char>, std::allocator<char> >, std::basic_string<char, std::char_traits<char>, std::allocator<char> > > > > > > >::clear
FUNC 760c2 11d 0 std::_Rb_tree<std::basic_string<char, std::char_traits<char>, std::allocator<char> >, std::pair<const std::basic_string<char, std::char_traits<char>, std::allocator<char> >, IEC103::stConfigParam>, std::_Select1st<std::pair<const std::basic_string<char, std::char_traits<char>, std::allocator<char> >, IEC103::stConfigParam> >, std::less<std::basic_string<char, std::char_traits<char>, std::allocator<char> > >, std::allocator<std::pair<const std::basic_string<char, std::char_traits<char>, std::allocator<char> >, IEC103::stConfigParam> > >::_Rb_tree
FUNC 761e0 11d 0 std::_Rb_tree<std::basic_string<char, std::char_traits<char>, std::allocator<char> >, std::pair<const std::basic_string<char, std::char_traits<char>, std::allocator<char> >, std::map<std::basic_string<char, std::char_traits<char>, std::allocator<char> >, std::basic_string<char, std::char_traits<char>, std::allocator<char> >, std::less<std::basic_string<char, std::char_traits<char>, std::allocator<char> > >, std::allocator<std::pair<const std::basic_string<char, std::char_traits<char>, std::allocator<char> >, std::basic_string<char, std::char_traits<char>, std::allocator<char> > > > > >, std::_Select1st<std::pair<const std::basic_string<char, std::char_traits<char>, std::allocator<char> >, std::map<std::basic_string<char, std::char_traits<char>, std::allocator<char> >, std::basic_string<char, std::char_traits<char>, std::allocator<char> >, std::less<std::basic_string<char, std::char_traits<char>, std::allocator<char> > >, std::allocator<std::pair<const std::basic_string<char, std::char_traits<char>, std::allocator<char> >, std::basic_string<char, std::char_traits<char>, std::allocator<char> > > > > > >, std::less<std::basic_string<char, std::char_traits<char>, std::allocator<char> > >, std::allocator<std::pair<const std::basic_string<char, std::char_traits<char>, std::allocator<char> >, std::map<std::basic_string<char, std::char_traits<char>, std::allocator<char> >, std::basic_string<char, std::char_traits<char>, std::allocator<char> >, std::less<std::basic_string<char, std::char_traits<char>, std::allocator<char> > >, std::allocator<std::pair<const std::basic_string<char, std::char_traits<char>, std::allocator<char> >, std::basic_string<char, std::char_traits<char>, std::allocator<char> > > > > > > >::_Rb_tree
FUNC 762fe 8d 0 std::_Rb_tree<std::basic_string<char, std::char_traits<char>, std::allocator<char> >, std::pair<const std::basic_string<char, std::char_traits<char>, std::allocator<char> >, std::map<int, std::map<int, IEC104WF::stPointTable, std::less<int>, std::allocator<std::pair<const int, IEC104WF::stPointTable> > >, std::less<int>, std::allocator<std::pair<const int, std::map<int, IEC104WF::stPointTable, std::less<int>, std::allocator<std::pair<const int, IEC104WF::stPointTable> > > > > > >, std::_Select1st<std::pair<const std::basic_string<char, std::char_traits<char>, std::allocator<char> >, std::map<int, std::map<int, IEC104WF::stPointTable, std::less<int>, std::allocator<std::pair<const int, IEC104WF::stPointTable> > >, std::less<int>, std::allocator<std::pair<const int, std::map<int, IEC104WF::stPointTable, std::less<int>, std::allocator<std::pair<const int, IEC104WF::stPointTable> > > > > > > >, std::less<std::basic_string<char, std::char_traits<char>, std::allocator<char> > >, std::allocator<std::pair<const std::basic_string<char, std::char_traits<char>, std::allocator<char> >, std::map<int, std::map<int, IEC104WF::stPointTable, std::less<int>, std::allocator<std::pair<const int, IEC104WF::stPointTable> > >, std::less<int>, std::allocator<std::pair<const int, std::map<int, IEC104WF::stPointTable, std::less<int>, std::allocator<std::pair<const int, IEC104WF::stPointTable> > > > > > > > >::clear
FUNC 7638c 8d 0 std::_Rb_tree<int, std::pair<const int, std::map<int, IEC104WF::stPointTable, std::less<int>, std::allocator<std::pair<const int, IEC104WF::stPointTable> > > >, std::_Select1st<std::pair<const int, std::map<int, IEC104WF::stPointTable, std::less<int>, std::allocator<std::pair<const int, IEC104WF::stPointTable> > > > >, std::less<int>, std::allocator<std::pair<const int, std::map<int, IEC104WF::stPointTable, std::less<int>, std::allocator<std::pair<const int, IEC104WF::stPointTable> > > > > >::clear
FUNC 7641a 8d 0 std::_Rb_tree<int, std::pair<const int, IEC104WF::stPointTable>, std::_Select1st<std::pair<const int, IEC104WF::stPointTable> >, std::less<int>, std::allocator<std::pair<const int, IEC104WF::stPointTable> > >::clear
FUNC 764a8 11d 0 std::_Rb_tree<std::basic_string<char, std::char_traits<char>, std::allocator<char> >, std::pair<const std::basic_string<char, std::char_traits<char>, std::allocator<char> >, std::map<int, std::map<int, IEC104WF::stPointTable, std::less<int>, std::allocator<std::pair<const int, IEC104WF::stPointTable> > >, std::less<int>, std::allocator<std::pair<const int, std::map<int, IEC104WF::stPointTable, std::less<int>, std::allocator<std::pair<const int, IEC104WF::stPointTable> > > > > > >, std::_Select1st<std::pair<const std::basic_string<char, std::char_traits<char>, std::allocator<char> >, std::map<int, std::map<int, IEC104WF::stPointTable, std::less<int>, std::allocator<std::pair<const int, IEC104WF::stPointTable> > >, std::less<int>, std::allocator<std::pair<const int, std::map<int, IEC104WF::stPointTable, std::less<int>, std::allocator<std::pair<const int, IEC104WF::stPointTable> > > > > > > >, std::less<std::basic_string<char, std::char_traits<char>, std::allocator<char> > >, std::allocator<std::pair<const std::basic_string<char, std::char_traits<char>, std::allocator<char> >, std::map<int, std::map<int, IEC104WF::stPointTable, std::less<int>, std::allocator<std::pair<const int, IEC104WF::stPointTable> > >, std::less<int>, std::allocator<std::pair<const int, std::map<int, IEC104WF::stPointTable, std::less<int>, std::allocator<std::pair<const int, IEC104WF::stPointTable> > > > > > > > >::_Rb_tree
FUNC 765c6 21 0 std::_List_base<std::basic_string<char, std::char_traits<char>, std::allocator<char> >, std::allocator<std::basic_string<char, std::char_traits<char>, std::allocator<char> > > >::_M_init
FUNC 765e8 e 0 std::_List_base<std::basic_string<char, std::char_traits<char>, std::allocator<char> >, std::allocator<std::basic_string<char, std::char_traits<char>, std::allocator<char> > > >::_M_get_Node_allocator
FUNC 765f6 1e 0 std::allocator<std::basic_string<char, std::char_traits<char>, std::allocator<char> > >::allocator<std::_List_node<std::basic_string<char, std::char_traits<char>, std::allocator<char> > > >
FUNC 76614 50 0 std::_List_base<std::basic_string<char, std::char_traits<char>, std::allocator<char> >, std::allocator<std::basic_string<char, std::char_traits<char>, std::allocator<char> > > >::_List_base
FUNC 76664 28 0 std::list<std::basic_string<char, std::char_traits<char>, std::allocator<char> >, std::allocator<std::basic_string<char, std::char_traits<char>, std::allocator<char> > > >::begin
FUNC 7668c 25 0 std::list<std::basic_string<char, std::char_traits<char>, std::allocator<char> >, std::allocator<std::basic_string<char, std::char_traits<char>, std::allocator<char> > > >::end
FUNC 766b2 59 0 std::list<std::basic_string<char, std::char_traits<char>, std::allocator<char> >, std::allocator<std::basic_string<char, std::char_traits<char>, std::allocator<char> > > >::_M_initialize_dispatch<std::_List_const_iterator<std::basic_string<char, std::char_traits<char>, std::allocator<char> > > >
FUNC 7670c 25 0 std::map<std::basic_string<char, std::char_traits<char>, std::allocator<char> >, IEC61850_STRUCT::IED_61850, std::less<std::basic_string<char, std::char_traits<char>, std::allocator<char> > >, std::allocator<std::pair<const std::basic_string<char, std::char_traits<char>, std::allocator<char> >, IEC61850_STRUCT::IED_61850> > >::lower_bound
FUNC 76732 1a 0 std::map<std::basic_string<char, std::char_traits<char>, std::allocator<char> >, IEC61850_STRUCT::IED_61850, std::less<std::basic_string<char, std::char_traits<char>, std::allocator<char> > >, std::allocator<std::pair<const std::basic_string<char, std::char_traits<char>, std::allocator<char> >, IEC61850_STRUCT::IED_61850> > >::key_comp
FUNC 7674c 15 0 std::_Rb_tree_iterator<std::pair<const std::basic_string<char, std::char_traits<char>, std::allocator<char> >, IEC61850_STRUCT::IED_61850> >::operator*
FUNC 76762 1a 0 std::map<std::basic_string<char, std::char_traits<char>, std::allocator<char> >, IEC61850_STRUCT::IED_61850, std::less<std::basic_string<char, std::char_traits<char>, std::allocator<char> > >, std::allocator<std::pair<const std::basic_string<char, std::char_traits<char>, std::allocator<char> >, IEC61850_STRUCT::IED_61850> > >::end
FUNC 7677c 22 0 std::_Rb_tree_iterator<std::pair<const std::basic_string<char, std::char_traits<char>, std::allocator<char> >, IEC61850_STRUCT::IED_61850> >::operator==
FUNC 7679e 1dc 0 IEC61850_STRUCT::IED_61850::IED_61850
FUNC 7697a 6b 0 std::pair<const std::basic_string<char, std::char_traits<char>, std::allocator<char> >, IEC61850_STRUCT::IED_61850>::pair
FUNC 769e6 40 0 std::map<std::basic_string<char, std::char_traits<char>, std::allocator<char> >, IEC61850_STRUCT::IED_61850, std::less<std::basic_string<char, std::char_traits<char>, std::allocator<char> > >, std::allocator<std::pair<const std::basic_string<char, std::char_traits<char>, std::allocator<char> >, IEC61850_STRUCT::IED_61850> > >::insert
FUNC 76a26 f8 0 std::_Rb_tree<std::basic_string<char, std::char_traits<char>, std::allocator<char> >, std::pair<const std::basic_string<char, std::char_traits<char>, std::allocator<char> >, std::basic_string<char, std::char_traits<char>, std::allocator<char> > >, std::_Select1st<std::pair<const std::basic_string<char, std::char_traits<char>, std::allocator<char> >, std::basic_string<char, std::char_traits<char>, std::allocator<char> > > >, std::less<std::basic_string<char, std::char_traits<char>, std::allocator<char> > >, std::allocator<std::pair<const std::basic_string<char, std::char_traits<char>, std::allocator<char> >, std::basic_string<char, std::char_traits<char>, std::allocator<char> > > > >::operator=
FUNC 76b1e 25 0 std::map<int, IEC104WF::stPointTable, std::less<int>, std::allocator<std::pair<const int, IEC104WF::stPointTable> > >::lower_bound
FUNC 76b44 1a 0 std::map<int, IEC104WF::stPointTable, std::less<int>, std::allocator<std::pair<const int, IEC104WF::stPointTable> > >::key_comp
FUNC 76b5e 15 0 std::_Rb_tree_iterator<std::pair<const int, IEC104WF::stPointTable> >::operator*
FUNC 76b74 23 0 std::less<int>::operator()
FUNC 76b98 1a 0 std::map<int, IEC104WF::stPointTable, std::less<int>, std::allocator<std::pair<const int, IEC104WF::stPointTable> > >::end
FUNC 76bb2 22 0 std::_Rb_tree_iterator<std::pair<const int, IEC104WF::stPointTable> >::operator==
FUNC 76bd4 41 0 IEC104WF::stPointTable::stPointTable
FUNC 76c16 39 0 std::pair<const int, IEC104WF::stPointTable>::pair
FUNC 76c50 40 0 std::map<int, IEC104WF::stPointTable, std::less<int>, std::allocator<std::pair<const int, IEC104WF::stPointTable> > >::insert
FUNC 76c90 25 0 std::map<int, std::map<int, IEC104WF::stPointTable, std::less<int>, std::allocator<std::pair<const int, IEC104WF::stPointTable> > >, std::less<int>, std::allocator<std::pair<const int, std::map<int, IEC104WF::stPointTable, std::less<int>, std::allocator<std::pair<const int, IEC104WF::stPointTable> > > > > >::lower_bound
FUNC 76cb6 1a 0 std::map<int, std::map<int, IEC104WF::stPointTable, std::less<int>, std::allocator<std::pair<const int, IEC104WF::stPointTable> > >, std::less<int>, std::allocator<std::pair<const int, std::map<int, IEC104WF::stPointTable, std::less<int>, std::allocator<std::pair<const int, IEC104WF::stPointTable> > > > > >::key_comp
FUNC 76cd0 15 0 std::_Rb_tree_iterator<std::pair<const int, std::map<int, IEC104WF::stPointTable, std::less<int>, std::allocator<std::pair<const int, IEC104WF::stPointTable> > > > >::operator*
FUNC 76ce6 1a 0 std::map<int, std::map<int, IEC104WF::stPointTable, std::less<int>, std::allocator<std::pair<const int, IEC104WF::stPointTable> > >, std::less<int>, std::allocator<std::pair<const int, std::map<int, IEC104WF::stPointTable, std::less<int>, std::allocator<std::pair<const int, IEC104WF::stPointTable> > > > > >::end
FUNC 76d00 22 0 std::_Rb_tree_iterator<std::pair<const int, std::map<int, IEC104WF::stPointTable, std::less<int>, std::allocator<std::pair<const int, IEC104WF::stPointTable> > > > >::operator==
FUNC 76d22 39 0 std::pair<const int, std::map<int, IEC104WF::stPointTable, std::less<int>, std::allocator<std::pair<const int, IEC104WF::stPointTable> > > >::pair
FUNC 76d5c 40 0 std::map<int, std::map<int, IEC104WF::stPointTable, std::less<int>, std::allocator<std::pair<const int, IEC104WF::stPointTable> > >, std::less<int>, std::allocator<std::pair<const int, std::map<int, IEC104WF::stPointTable, std::less<int>, std::allocator<std::pair<const int, IEC104WF::stPointTable> > > > > >::insert
FUNC 76d9c f8 0 std::_Rb_tree<int, std::pair<const int, IEC104WF::stPointTable>, std::_Select1st<std::pair<const int, IEC104WF::stPointTable> >, std::less<int>, std::allocator<std::pair<const int, IEC104WF::stPointTable> > >::operator=
FUNC 76e94 25 0 std::map<std::basic_string<char, std::char_traits<char>, std::allocator<char> >, std::map<int, std::map<int, IEC104WF::stPointTable, std::less<int>, std::allocator<std::pair<const int, IEC104WF::stPointTable> > >, std::less<int>, std::allocator<std::pair<const int, std::map<int, IEC104WF::stPointTable, std::less<int>, std::allocator<std::pair<const int, IEC104WF::stPointTable> > > > > >, std::less<std::basic_string<char, std::char_traits<char>, std::allocator<char> > >, std::allocator<std::pair<const std::basic_string<char, std::char_traits<char>, std::allocator<char> >, std::map<int, std::map<int, IEC104WF::stPointTable, std::less<int>, std::allocator<std::pair<const int, IEC104WF::stPointTable> > >, std::less<int>, std::allocator<std::pair<const int, std::map<int, IEC104WF::stPointTable, std::less<int>, std::allocator<std::pair<const int, IEC104WF::stPointTable> > > > > > > > >::lower_bound
FUNC 76eba 1a 0 std::map<std::basic_string<char, std::char_traits<char>, std::allocator<char> >, std::map<int, std::map<int, IEC104WF::stPointTable, std::less<int>, std::allocator<std::pair<const int, IEC104WF::stPointTable> > >, std::less<int>, std::allocator<std::pair<const int, std::map<int, IEC104WF::stPointTable, std::less<int>, std::allocator<std::pair<const int, IEC104WF::stPointTable> > > > > >, std::less<std::basic_string<char, std::char_traits<char>, std::allocator<char> > >, std::allocator<std::pair<const std::basic_string<char, std::char_traits<char>, std::allocator<char> >, std::map<int, std::map<int, IEC104WF::stPointTable, std::less<int>, std::allocator<std::pair<const int, IEC104WF::stPointTable> > >, std::less<int>, std::allocator<std::pair<const int, std::map<int, IEC104WF::stPointTable, std::less<int>, std::allocator<std::pair<const int, IEC104WF::stPointTable> > > > > > > > >::key_comp
FUNC 76ed4 15 0 std::_Rb_tree_iterator<std::pair<const std::basic_string<char, std::char_traits<char>, std::allocator<char> >, std::map<int, std::map<int, IEC104WF::stPointTable, std::less<int>, std::allocator<std::pair<const int, IEC104WF::stPointTable> > >, std::less<int>, std::allocator<std::pair<const int, std::map<int, IEC104WF::stPointTable, std::less<int>, std::allocator<std::pair<const int, IEC104WF::stPointTable> > > > > > > >::operator*
FUNC 76eea 1a 0 std::map<std::basic_string<char, std::char_traits<char>, std::allocator<char> >, std::map<int, std::map<int, IEC104WF::stPointTable, std::less<int>, std::allocator<std::pair<const int, IEC104WF::stPointTable> > >, std::less<int>, std::allocator<std::pair<const int, std::map<int, IEC104WF::stPointTable, std::less<int>, std::allocator<std::pair<const int, IEC104WF::stPointTable> > > > > >, std::less<std::basic_string<char, std::char_traits<char>, std::allocator<char> > >, std::allocator<std::pair<const std::basic_string<char, std::char_traits<char>, std::allocator<char> >, std::map<int, std::map<int, IEC104WF::stPointTable, std::less<int>, std::allocator<std::pair<const int, IEC104WF::stPointTable> > >, std::less<int>, std::allocator<std::pair<const int, std::map<int, IEC104WF::stPointTable, std::less<int>, std::allocator<std::pair<const int, IEC104WF::stPointTable> > > > > > > > >::end
FUNC 76f04 22 0 std::_Rb_tree_iterator<std::pair<const std::basic_string<char, std::char_traits<char>, std::allocator<char> >, std::map<int, std::map<int, IEC104WF::stPointTable, std::less<int>, std::allocator<std::pair<const int, IEC104WF::stPointTable> > >, std::less<int>, std::allocator<std::pair<const int, std::map<int, IEC104WF::stPointTable, std::less<int>, std::allocator<std::pair<const int, IEC104WF::stPointTable> > > > > > > >::operator==
FUNC 76f26 6b 0 std::pair<const std::basic_string<char, std::char_traits<char>, std::allocator<char> >, std::map<int, std::map<int, IEC104WF::stPointTable, std::less<int>, std::allocator<std::pair<const int, IEC104WF::stPointTable> > >, std::less<int>, std::allocator<std::pair<const int, std::map<int, IEC104WF::stPointTable, std::less<int>, std::allocator<std::pair<const int, IEC104WF::stPointTable> > > > > > >::pair
FUNC 76f92 40 0 std::map<std::basic_string<char, std::char_traits<char>, std::allocator<char> >, std::map<int, std::map<int, IEC104WF::stPointTable, std::less<int>, std::allocator<std::pair<const int, IEC104WF::stPointTable> > >, std::less<int>, std::allocator<std::pair<const int, std::map<int, IEC104WF::stPointTable, std::less<int>, std::allocator<std::pair<const int, IEC104WF::stPointTable> > > > > >, std::less<std::basic_string<char, std::char_traits<char>, std::allocator<char> > >, std::allocator<std::pair<const std::basic_string<char, std::char_traits<char>, std::allocator<char> >, std::map<int, std::map<int, IEC104WF::stPointTable, std::less<int>, std::allocator<std::pair<const int, IEC104WF::stPointTable> > >, std::less<int>, std::allocator<std::pair<const int, std::map<int, IEC104WF::stPointTable, std::less<int>, std::allocator<std::pair<const int, IEC104WF::stPointTable> > > > > > > > >::insert
FUNC 76fd2 f8 0 std::_Rb_tree<int, std::pair<const int, std::map<int, IEC104WF::stPointTable, std::less<int>, std::allocator<std::pair<const int, IEC104WF::stPointTable> > > >, std::_Select1st<std::pair<const int, std::map<int, IEC104WF::stPointTable, std::less<int>, std::allocator<std::pair<const int, IEC104WF::stPointTable> > > > >, std::less<int>, std::allocator<std::pair<const int, std::map<int, IEC104WF::stPointTable, std::less<int>, std::allocator<std::pair<const int, IEC104WF::stPointTable> > > > > >::operator=
FUNC 770ca 25 0 std::map<std::basic_string<char, std::char_traits<char>, std::allocator<char> >, IEC103::stConfigParam, std::less<std::basic_string<char, std::char_traits<char>, std::allocator<char> > >, std::allocator<std::pair<const std::basic_string<char, std::char_traits<char>, std::allocator<char> >, IEC103::stConfigParam> > >::lower_bound
FUNC 770f0 1a 0 std::map<std::basic_string<char, std::char_traits<char>, std::allocator<char> >, IEC103::stConfigParam, std::less<std::basic_string<char, std::char_traits<char>, std::allocator<char> > >, std::allocator<std::pair<const std::basic_string<char, std::char_traits<char>, std::allocator<char> >, IEC103::stConfigParam> > >::key_comp
FUNC 7710a 15 0 std::_Rb_tree_iterator<std::pair<const std::basic_string<char, std::char_traits<char>, std::allocator<char> >, IEC103::stConfigParam> >::operator*
FUNC 77120 1a 0 std::map<std::basic_string<char, std::char_traits<char>, std::allocator<char> >, IEC103::stConfigParam, std::less<std::basic_string<char, std::char_traits<char>, std::allocator<char> > >, std::allocator<std::pair<const std::basic_string<char, std::char_traits<char>, std::allocator<char> >, IEC103::stConfigParam> > >::end
FUNC 7713a 22 0 std::_Rb_tree_iterator<std::pair<const std::basic_string<char, std::char_traits<char>, std::allocator<char> >, IEC103::stConfigParam> >::operator==
FUNC 7715c bf 0 IEC103::stConfigParam::stConfigParam
FUNC 7721c 6b 0 std::pair<const std::basic_string<char, std::char_traits<char>, std::allocator<char> >, IEC103::stConfigParam>::pair
FUNC 77288 40 0 std::map<std::basic_string<char, std::char_traits<char>, std::allocator<char> >, IEC103::stConfigParam, std::less<std::basic_string<char, std::char_traits<char>, std::allocator<char> > >, std::allocator<std::pair<const std::basic_string<char, std::char_traits<char>, std::allocator<char> >, IEC103::stConfigParam> > >::insert
FUNC 772c8 25 0 std::map<std::basic_string<char, std::char_traits<char>, std::allocator<char> >, std::map<std::basic_string<char, std::char_traits<char>, std::allocator<char> >, std::basic_string<char, std::char_traits<char>, std::allocator<char> >, std::less<std::basic_string<char, std::char_traits<char>, std::allocator<char> > >, std::allocator<std::pair<const std::basic_string<char, std::char_traits<char>, std::allocator<char> >, std::basic_string<char, std::char_traits<char>, std::allocator<char> > > > >, std::less<std::basic_string<char, std::char_traits<char>, std::allocator<char> > >, std::allocator<std::pair<const std::basic_string<char, std::char_traits<char>, std::allocator<char> >, std::map<std::basic_string<char, std::char_traits<char>, std::allocator<char> >, std::basic_string<char, std::char_traits<char>, std::allocator<char> >, std::less<std::basic_string<char, std::char_traits<char>, std::allocator<char> > >, std::allocator<std::pair<const std::basic_string<char, std::char_traits<char>, std::allocator<char> >, std::basic_string<char, std::char_traits<char>, std::allocator<char> > > > > > > >::lower_bound
FUNC 772ee 1a 0 std::map<std::basic_string<char, std::char_traits<char>, std::allocator<char> >, std::map<std::basic_string<char, std::char_traits<char>, std::allocator<char> >, std::basic_string<char, std::char_traits<char>, std::allocator<char> >, std::less<std::basic_string<char, std::char_traits<char>, std::allocator<char> > >, std::allocator<std::pair<const std::basic_string<char, std::char_traits<char>, std::allocator<char> >, std::basic_string<char, std::char_traits<char>, std::allocator<char> > > > >, std::less<std::basic_string<char, std::char_traits<char>, std::allocator<char> > >, std::allocator<std::pair<const std::basic_string<char, std::char_traits<char>, std::allocator<char> >, std::map<std::basic_string<char, std::char_traits<char>, std::allocator<char> >, std::basic_string<char, std::char_traits<char>, std::allocator<char> >, std::less<std::basic_string<char, std::char_traits<char>, std::allocator<char> > >, std::allocator<std::pair<const std::basic_string<char, std::char_traits<char>, std::allocator<char> >, std::basic_string<char, std::char_traits<char>, std::allocator<char> > > > > > > >::key_comp
FUNC 77308 15 0 std::_Rb_tree_iterator<std::pair<const std::basic_string<char, std::char_traits<char>, std::allocator<char> >, std::map<std::basic_string<char, std::char_traits<char>, std::allocator<char> >, std::basic_string<char, std::char_traits<char>, std::allocator<char> >, std::less<std::basic_string<char, std::char_traits<char>, std::allocator<char> > >, std::allocator<std::pair<const std::basic_string<char, std::char_traits<char>, std::allocator<char> >, std::basic_string<char, std::char_traits<char>, std::allocator<char> > > > > > >::operator*
FUNC 7731e 1a 0 std::map<std::basic_string<char, std::char_traits<char>, std::allocator<char> >, std::map<std::basic_string<char, std::char_traits<char>, std::allocator<char> >, std::basic_string<char, std::char_traits<char>, std::allocator<char> >, std::less<std::basic_string<char, std::char_traits<char>, std::allocator<char> > >, std::allocator<std::pair<const std::basic_string<char, std::char_traits<char>, std::allocator<char> >, std::basic_string<char, std::char_traits<char>, std::allocator<char> > > > >, std::less<std::basic_string<char, std::char_traits<char>, std::allocator<char> > >, std::allocator<std::pair<const std::basic_string<char, std::char_traits<char>, std::allocator<char> >, std::map<std::basic_string<char, std::char_traits<char>, std::allocator<char> >, std::basic_string<char, std::char_traits<char>, std::allocator<char> >, std::less<std::basic_string<char, std::char_traits<char>, std::allocator<char> > >, std::allocator<std::pair<const std::basic_string<char, std::char_traits<char>, std::allocator<char> >, std::basic_string<char, std::char_traits<char>, std::allocator<char> > > > > > > >::end
FUNC 77338 22 0 std::_Rb_tree_iterator<std::pair<const std::basic_string<char, std::char_traits<char>, std::allocator<char> >, std::map<std::basic_string<char, std::char_traits<char>, std::allocator<char> >, std::basic_string<char, std::char_traits<char>, std::allocator<char> >, std::less<std::basic_string<char, std::char_traits<char>, std::allocator<char> > >, std::allocator<std::pair<const std::basic_string<char, std::char_traits<char>, std::allocator<char> >, std::basic_string<char, std::char_traits<char>, std::allocator<char> > > > > > >::operator==
FUNC 7735a 6b 0 std::pair<const std::basic_string<char, std::char_traits<char>, std::allocator<char> >, std::map<std::basic_string<char, std::char_traits<char>, std::allocator<char> >, std::basic_string<char, std::char_traits<char>, std::allocator<char> >, std::less<std::basic_string<char, std::char_traits<char>, std::allocator<char> > >, std::allocator<std::pair<const std::basic_string<char, std::char_traits<char>, std::allocator<char> >, std::basic_string<char, std::char_traits<char>, std::allocator<char> > > > > >::pair
FUNC 773c6 40 0 std::map<std::basic_string<char, std::char_traits<char>, std::allocator<char> >, std::map<std::basic_string<char, std::char_traits<char>, std::allocator<char> >, std::basic_string<char, std::char_traits<char>, std::allocator<char> >, std::less<std::basic_string<char, std::char_traits<char>, std::allocator<char> > >, std::allocator<std::pair<const std::basic_string<char, std::char_traits<char>, std::allocator<char> >, std::basic_string<char, std::char_traits<char>, std::allocator<char> > > > >, std::less<std::basic_string<char, std::char_traits<char>, std::allocator<char> > >, std::allocator<std::pair<const std::basic_string<char, std::char_traits<char>, std::allocator<char> >, std::map<std::basic_string<char, std::char_traits<char>, std::allocator<char> >, std::basic_string<char, std::char_traits<char>, std::allocator<char> >, std::less<std::basic_string<char, std::char_traits<char>, std::allocator<char> > >, std::allocator<std::pair<const std::basic_string<char, std::char_traits<char>, std::allocator<char> >, std::basic_string<char, std::char_traits<char>, std::allocator<char> > > > > > > >::insert
FUNC 77406 25 0 std::list<std::basic_string<char, std::char_traits<char>, std::allocator<char> >, std::allocator<std::basic_string<char, std::char_traits<char>, std::allocator<char> > > >::end
FUNC 7742c 40 0 std::list<std::basic_string<char, std::char_traits<char>, std::allocator<char> >, std::allocator<std::basic_string<char, std::char_traits<char>, std::allocator<char> > > >::_M_insert
FUNC 7746c 61 0 std::_Rb_tree<std::basic_string<char, std::char_traits<char>, std::allocator<char> >, std::pair<const std::basic_string<char, std::char_traits<char>, std::allocator<char> >, IEC61850_STRUCT::IED_61850>, std::_Select1st<std::pair<const std::basic_string<char, std::char_traits<char>, std::allocator<char> >, IEC61850_STRUCT::IED_61850> >, std::less<std::basic_string<char, std::char_traits<char>, std::allocator<char> > >, std::allocator<std::pair<const std::basic_string<char, std::char_traits<char>, std::allocator<char> >, IEC61850_STRUCT::IED_61850> > >::_Rb_tree_impl<std::less<std::basic_string<char, std::char_traits<char>, std::allocator<char> > >, false>::_Rb_tree_impl
FUNC 774ce a 0 __gnu_cxx::new_allocator<std::_Rb_tree_node<std::pair<const std::basic_string<char, std::char_traits<char>, std::allocator<char> >, IEC61850_STRUCT::IED_61850> > >::~new_allocator
FUNC 774d8 12 0 std::_Rb_tree<std::basic_string<char, std::char_traits<char>, std::allocator<char> >, std::pair<const std::basic_string<char, std::char_traits<char>, std::allocator<char> >, IEC61850_STRUCT::IED_61850>, std::_Select1st<std::pair<const std::basic_string<char, std::char_traits<char>, std::allocator<char> >, IEC61850_STRUCT::IED_61850> >, std::less<std::basic_string<char, std::char_traits<char>, std::allocator<char> > >, std::allocator<std::pair<const std::basic_string<char, std::char_traits<char>, std::allocator<char> >, IEC61850_STRUCT::IED_61850> > >::_S_right
FUNC 774ea 12 0 std::_Rb_tree<std::basic_string<char, std::char_traits<char>, std::allocator<char> >, std::pair<const std::basic_string<char, std::char_traits<char>, std::allocator<char> >, IEC61850_STRUCT::IED_61850>, std::_Select1st<std::pair<const std::basic_string<char, std::char_traits<char>, std::allocator<char> >, IEC61850_STRUCT::IED_61850> >, std::less<std::basic_string<char, std::char_traits<char>, std::allocator<char> > >, std::allocator<std::pair<const std::basic_string<char, std::char_traits<char>, std::allocator<char> >, IEC61850_STRUCT::IED_61850> > >::_S_left
FUNC 774fc 86 0 std::_Rb_tree<std::basic_string<char, std::char_traits<char>, std::allocator<char> >, std::pair<const std::basic_string<char, std::char_traits<char>, std::allocator<char> >, IEC61850_STRUCT::IED_61850>, std::_Select1st<std::pair<const std::basic_string<char, std::char_traits<char>, std::allocator<char> >, IEC61850_STRUCT::IED_61850> >, std::less<std::basic_string<char, std::char_traits<char>, std::allocator<char> > >, std::allocator<std::pair<const std::basic_string<char, std::char_traits<char>, std::allocator<char> >, IEC61850_STRUCT::IED_61850> > >::_M_destroy_node
FUNC 77582 31 0 std::_List_base<std::basic_string<char, std::char_traits<char>, std::allocator<char> >, std::allocator<std::basic_string<char, std::char_traits<char>, std::allocator<char> > > >::_List_impl::_List_impl
FUNC 775b4 a 0 __gnu_cxx::new_allocator<std::_List_node<std::basic_string<char, std::char_traits<char>, std::allocator<char> > > >::~new_allocator
FUNC 775be 3b 0 std::_List_base<std::basic_string<char, std::char_traits<char>, std::allocator<char> >, std::allocator<std::basic_string<char, std::char_traits<char>, std::allocator<char> > > >::_M_get_Tp_allocator
FUNC 775fa 2a 0 std::_List_base<std::basic_string<char, std::char_traits<char>, std::allocator<char> >, std::allocator<std::basic_string<char, std::char_traits<char>, std::allocator<char> > > >::_M_put_node
FUNC 77624 61 0 std::_Rb_tree<std::basic_string<char, std::char_traits<char>, std::allocator<char> >, std::pair<const std::basic_string<char, std::char_traits<char>, std::allocator<char> >, std::map<int, std::map<int, IEC104WF::stPointTable, std::less<int>, std::allocator<std::pair<const int, IEC104WF::stPointTable> > >, std::less<int>, std::allocator<std::pair<const int, std::map<int, IEC104WF::stPointTable, std::less<int>, std::allocator<std::pair<const int, IEC104WF::stPointTable> > > > > > >, std::_Select1st<std::pair<const std::basic_string<char, std::char_traits<char>, std::allocator<char> >, std::map<int, std::map<int, IEC104WF::stPointTable, std::less<int>, std::allocator<std::pair<const int, IEC104WF::stPointTable> > >, std::less<int>, std::allocator<std::pair<const int, std::map<int, IEC104WF::stPointTable, std::less<int>, std::allocator<std::pair<const int, IEC104WF::stPointTable> > > > > > > >, std::less<std::basic_string<char, std::char_traits<char>, std::allocator<char> > >, std::allocator<std::pair<const std::basic_string<char, std::char_traits<char>, std::allocator<char> >, std::map<int, std::map<int, IEC104WF::stPointTable, std::less<int>, std::allocator<std::pair<const int, IEC104WF::stPointTable> > >, std::less<int>, std::allocator<std::pair<const int, std::map<int, IEC104WF::stPointTable, std::less<int>, std::allocator<std::pair<const int, IEC104WF::stPointTable> > > > > > > > >::_Rb_tree_impl<std::less<std::basic_string<char, std::char_traits<char>, std::allocator<char> > >, false>::_Rb_tree_impl
FUNC 77686 a 0 __gnu_cxx::new_allocator<std::_Rb_tree_node<std::pair<const std::basic_string<char, std::char_traits<char>, std::allocator<char> >, std::map<int, std::map<int, IEC104WF::stPointTable, std::less<int>, std::allocator<std::pair<const int, IEC104WF::stPointTable> > >, std::less<int>, std::allocator<std::pair<const int, std::map<int, IEC104WF::stPointTable, std::less<int>, std::allocator<std::pair<const int, IEC104WF::stPointTable> > > > > > > > >::~new_allocator
FUNC 77690 12 0 std::_Rb_tree<std::basic_string<char, std::char_traits<char>, std::allocator<char> >, std::pair<const std::basic_string<char, std::char_traits<char>, std::allocator<char> >, std::map<int, std::map<int, IEC104WF::stPointTable, std::less<int>, std::allocator<std::pair<const int, IEC104WF::stPointTable> > >, std::less<int>, std::allocator<std::pair<const int, std::map<int, IEC104WF::stPointTable, std::less<int>, std::allocator<std::pair<const int, IEC104WF::stPointTable> > > > > > >, std::_Select1st<std::pair<const std::basic_string<char, std::char_traits<char>, std::allocator<char> >, std::map<int, std::map<int, IEC104WF::stPointTable, std::less<int>, std::allocator<std::pair<const int, IEC104WF::stPointTable> > >, std::less<int>, std::allocator<std::pair<const int, std::map<int, IEC104WF::stPointTable, std::less<int>, std::allocator<std::pair<const int, IEC104WF::stPointTable> > > > > > > >, std::less<std::basic_string<char, std::char_traits<char>, std::allocator<char> > >, std::allocator<std::pair<const std::basic_string<char, std::char_traits<char>, std::allocator<char> >, std::map<int, std::map<int, IEC104WF::stPointTable, std::less<int>, std::allocator<std::pair<const int, IEC104WF::stPointTable> > >, std::less<int>, std::allocator<std::pair<const int, std::map<int, IEC104WF::stPointTable, std::less<int>, std::allocator<std::pair<const int, IEC104WF::stPointTable> > > > > > > > >::_S_right
FUNC 776a2 12 0 std::_Rb_tree<std::basic_string<char, std::char_traits<char>, std::allocator<char> >, std::pair<const std::basic_string<char, std::char_traits<char>, std::allocator<char> >, std::map<int, std::map<int, IEC104WF::stPointTable, std::less<int>, std::allocator<std::pair<const int, IEC104WF::stPointTable> > >, std::less<int>, std::allocator<std::pair<const int, std::map<int, IEC104WF::stPointTable, std::less<int>, std::allocator<std::pair<const int, IEC104WF::stPointTable> > > > > > >, std::_Select1st<std::pair<const std::basic_string<char, std::char_traits<char>, std::allocator<char> >, std::map<int, std::map<int, IEC104WF::stPointTable, std::less<int>, std::allocator<std::pair<const int, IEC104WF::stPointTable> > >, std::less<int>, std::allocator<std::pair<const int, std::map<int, IEC104WF::stPointTable, std::less<int>, std::allocator<std::pair<const int, IEC104WF::stPointTable> > > > > > > >, std::less<std::basic_string<char, std::char_traits<char>, std::allocator<char> > >, std::allocator<std::pair<const std::basic_string<char, std::char_traits<char>, std::allocator<char> >, std::map<int, std::map<int, IEC104WF::stPointTable, std::less<int>, std::allocator<std::pair<const int, IEC104WF::stPointTable> > >, std::less<int>, std::allocator<std::pair<const int, std::map<int, IEC104WF::stPointTable, std::less<int>, std::allocator<std::pair<const int, IEC104WF::stPointTable> > > > > > > > >::_S_left
FUNC 776b4 86 0 std::_Rb_tree<std::basic_string<char, std::char_traits<char>, std::allocator<char> >, std::pair<const std::basic_string<char, std::char_traits<char>, std::allocator<char> >, std::map<int, std::map<int, IEC104WF::stPointTable, std::less<int>, std::allocator<std::pair<const int, IEC104WF::stPointTable> > >, std::less<int>, std::allocator<std::pair<const int, std::map<int, IEC104WF::stPointTable, std::less<int>, std::allocator<std::pair<const int, IEC104WF::stPointTable> > > > > > >, std::_Select1st<std::pair<const std::basic_string<char, std::char_traits<char>, std::allocator<char> >, std::map<int, std::map<int, IEC104WF::stPointTable, std::less<int>, std::allocator<std::pair<const int, IEC104WF::stPointTable> > >, std::less<int>, std::allocator<std::pair<const int, std::map<int, IEC104WF::stPointTable, std::less<int>, std::allocator<std::pair<const int, IEC104WF::stPointTable> > > > > > > >, std::less<std::basic_string<char, std::char_traits<char>, std::allocator<char> > >, std::allocator<std::pair<const std::basic_string<char, std::char_traits<char>, std::allocator<char> >, std::map<int, std::map<int, IEC104WF::stPointTable, std::less<int>, std::allocator<std::pair<const int, IEC104WF::stPointTable> > >, std::less<int>, std::allocator<std::pair<const int, std::map<int, IEC104WF::stPointTable, std::less<int>, std::allocator<std::pair<const int, IEC104WF::stPointTable> > > > > > > > >::_M_destroy_node
FUNC 7773a 61 0 std::_Rb_tree<int, std::pair<const int, std::map<int, IEC104WF::stPointTable, std::less<int>, std::allocator<std::pair<const int, IEC104WF::stPointTable> > > >, std::_Select1st<std::pair<const int, std::map<int, IEC104WF::stPointTable, std::less<int>, std::allocator<std::pair<const int, IEC104WF::stPointTable> > > > >, std::less<int>, std::allocator<std::pair<const int, std::map<int, IEC104WF::stPointTable, std::less<int>, std::allocator<std::pair<const int, IEC104WF::stPointTable> > > > > >::_Rb_tree_impl<std::less<int>, false>::_Rb_tree_impl
FUNC 7779c a 0 __gnu_cxx::new_allocator<std::_Rb_tree_node<std::pair<const int, std::map<int, IEC104WF::stPointTable, std::less<int>, std::allocator<std::pair<const int, IEC104WF::stPointTable> > > > > >::~new_allocator
FUNC 777a6 12 0 std::_Rb_tree<int, std::pair<const int, std::map<int, IEC104WF::stPointTable, std::less<int>, std::allocator<std::pair<const int, IEC104WF::stPointTable> > > >, std::_Select1st<std::pair<const int, std::map<int, IEC104WF::stPointTable, std::less<int>, std::allocator<std::pair<const int, IEC104WF::stPointTable> > > > >, std::less<int>, std::allocator<std::pair<const int, std::map<int, IEC104WF::stPointTable, std::less<int>, std::allocator<std::pair<const int, IEC104WF::stPointTable> > > > > >::_S_right
FUNC 777b8 12 0 std::_Rb_tree<int, std::pair<const int, std::map<int, IEC104WF::stPointTable, std::less<int>, std::allocator<std::pair<const int, IEC104WF::stPointTable> > > >, std::_Select1st<std::pair<const int, std::map<int, IEC104WF::stPointTable, std::less<int>, std::allocator<std::pair<const int, IEC104WF::stPointTable> > > > >, std::less<int>, std::allocator<std::pair<const int, std::map<int, IEC104WF::stPointTable, std::less<int>, std::allocator<std::pair<const int, IEC104WF::stPointTable> > > > > >::_S_left
FUNC 777ca 86 0 std::_Rb_tree<int, std::pair<const int, std::map<int, IEC104WF::stPointTable, std::less<int>, std::allocator<std::pair<const int, IEC104WF::stPointTable> > > >, std::_Select1st<std::pair<const int, std::map<int, IEC104WF::stPointTable, std::less<int>, std::allocator<std::pair<const int, IEC104WF::stPointTable> > > > >, std::less<int>, std::allocator<std::pair<const int, std::map<int, IEC104WF::stPointTable, std::less<int>, std::allocator<std::pair<const int, IEC104WF::stPointTable> > > > > >::_M_destroy_node
FUNC 77850 61 0 std::_Rb_tree<int, std::pair<const int, IEC104WF::stPointTable>, std::_Select1st<std::pair<const int, IEC104WF::stPointTable> >, std::less<int>, std::allocator<std::pair<const int, IEC104WF::stPointTable> > >::_Rb_tree_impl<std::less<int>, false>::_Rb_tree_impl
FUNC 778b2 a 0 __gnu_cxx::new_allocator<std::_Rb_tree_node<std::pair<const int, IEC104WF::stPointTable> > >::~new_allocator
FUNC 778bc 12 0 std::_Rb_tree<int, std::pair<const int, IEC104WF::stPointTable>, std::_Select1st<std::pair<const int, IEC104WF::stPointTable> >, std::less<int>, std::allocator<std::pair<const int, IEC104WF::stPointTable> > >::_S_right
FUNC 778ce 12 0 std::_Rb_tree<int, std::pair<const int, IEC104WF::stPointTable>, std::_Select1st<std::pair<const int, IEC104WF::stPointTable> >, std::less<int>, std::allocator<std::pair<const int, IEC104WF::stPointTable> > >::_S_left
FUNC 778e0 86 0 std::_Rb_tree<int, std::pair<const int, IEC104WF::stPointTable>, std::_Select1st<std::pair<const int, IEC104WF::stPointTable> >, std::less<int>, std::allocator<std::pair<const int, IEC104WF::stPointTable> > >::_M_destroy_node
FUNC 77966 61 0 std::_Rb_tree<std::basic_string<char, std::char_traits<char>, std::allocator<char> >, std::pair<const std::basic_string<char, std::char_traits<char>, std::allocator<char> >, IEC103::stConfigParam>, std::_Select1st<std::pair<const std::basic_string<char, std::char_traits<char>, std::allocator<char> >, IEC103::stConfigParam> >, std::less<std::basic_string<char, std::char_traits<char>, std::allocator<char> > >, std::allocator<std::pair<const std::basic_string<char, std::char_traits<char>, std::allocator<char> >, IEC103::stConfigParam> > >::_Rb_tree_impl<std::less<std::basic_string<char, std::char_traits<char>, std::allocator<char> > >, false>::_Rb_tree_impl
FUNC 779c8 61 0 std::_Rb_tree<std::basic_string<char, std::char_traits<char>, std::allocator<char> >, std::pair<const std::basic_string<char, std::char_traits<char>, std::allocator<char> >, std::map<std::basic_string<char, std::char_traits<char>, std::allocator<char> >, std::basic_string<char, std::char_traits<char>, std::allocator<char> >, std::less<std::basic_string<char, std::char_traits<char>, std::allocator<char> > >, std::allocator<std::pair<const std::basic_string<char, std::char_traits<char>, std::allocator<char> >, std::basic_string<char, std::char_traits<char>, std::allocator<char> > > > > >, std::_Select1st<std::pair<const std::basic_string<char, std::char_traits<char>, std::allocator<char> >, std::map<std::basic_string<char, std::char_traits<char>, std::allocator<char> >, std::basic_string<char, std::char_traits<char>, std::allocator<char> >, std::less<std::basic_string<char, std::char_traits<char>, std::allocator<char> > >, std::allocator<std::pair<const std::basic_string<char, std::char_traits<char>, std::allocator<char> >, std::basic_string<char, std::char_traits<char>, std::allocator<char> > > > > > >, std::less<std::basic_string<char, std::char_traits<char>, std::allocator<char> > >, std::allocator<std::pair<const std::basic_string<char, std::char_traits<char>, std::allocator<char> >, std::map<std::basic_string<char, std::char_traits<char>, std::allocator<char> >, std::basic_string<char, std::char_traits<char>, std::allocator<char> >, std::less<std::basic_string<char, std::char_traits<char>, std::allocator<char> > >, std::allocator<std::pair<const std::basic_string<char, std::char_traits<char>, std::allocator<char> >, std::basic_string<char, std::char_traits<char>, std::allocator<char> > > > > > > >::_Rb_tree_impl<std::less<std::basic_string<char, std::char_traits<char>, std::allocator<char> > >, false>::_Rb_tree_impl
FUNC 77a2a 12 0 std::_Rb_tree<std::basic_string<char, std::char_traits<char>, std::allocator<char> >, std::pair<const std::basic_string<char, std::char_traits<char>, std::allocator<char> >, IEC61850_STRUCT::IED_61850>, std::_Select1st<std::pair<const std::basic_string<char, std::char_traits<char>, std::allocator<char> >, IEC61850_STRUCT::IED_61850> >, std::less<std::basic_string<char, std::char_traits<char>, std::allocator<char> > >, std::allocator<std::pair<const std::basic_string<char, std::char_traits<char>, std::allocator<char> >, IEC61850_STRUCT::IED_61850> > >::_M_end
FUNC 77a3c 12 0 std::_Rb_tree<std::basic_string<char, std::char_traits<char>, std::allocator<char> >, std::pair<const std::basic_string<char, std::char_traits<char>, std::allocator<char> >, IEC61850_STRUCT::IED_61850>, std::_Select1st<std::pair<const std::basic_string<char, std::char_traits<char>, std::allocator<char> >, IEC61850_STRUCT::IED_61850> >, std::less<std::basic_string<char, std::char_traits<char>, std::allocator<char> > >, std::allocator<std::pair<const std::basic_string<char, std::char_traits<char>, std::allocator<char> >, IEC61850_STRUCT::IED_61850> > >::_M_leftmost
FUNC 77a4e 12 0 std::_Rb_tree<std::basic_string<char, std::char_traits<char>, std::allocator<char> >, std::pair<const std::basic_string<char, std::char_traits<char>, std::allocator<char> >, IEC61850_STRUCT::IED_61850>, std::_Select1st<std::pair<const std::basic_string<char, std::char_traits<char>, std::allocator<char> >, IEC61850_STRUCT::IED_61850> >, std::less<std::basic_string<char, std::char_traits<char>, std::allocator<char> > >, std::allocator<std::pair<const std::basic_string<char, std::char_traits<char>, std::allocator<char> >, IEC61850_STRUCT::IED_61850> > >::_M_root
FUNC 77a60 12 0 std::_Rb_tree<std::basic_string<char, std::char_traits<char>, std::allocator<char> >, std::pair<const std::basic_string<char, std::char_traits<char>, std::allocator<char> >, IEC61850_STRUCT::IED_61850>, std::_Select1st<std::pair<const std::basic_string<char, std::char_traits<char>, std::allocator<char> >, IEC61850_STRUCT::IED_61850> >, std::less<std::basic_string<char, std::char_traits<char>, std::allocator<char> > >, std::allocator<std::pair<const std::basic_string<char, std::char_traits<char>, std::allocator<char> >, IEC61850_STRUCT::IED_61850> > >::_M_rightmost
FUNC 77a72 e 0 std::_Rb_tree<std::basic_string<char, std::char_traits<char>, std::allocator<char> >, std::pair<const std::basic_string<char, std::char_traits<char>, std::allocator<char> >, IEC61850_STRUCT::IED_61850>, std::_Select1st<std::pair<const std::basic_string<char, std::char_traits<char>, std::allocator<char> >, IEC61850_STRUCT::IED_61850> >, std::less<std::basic_string<char, std::char_traits<char>, std::allocator<char> > >, std::allocator<std::pair<const std::basic_string<char, std::char_traits<char>, std::allocator<char> >, IEC61850_STRUCT::IED_61850> > >::_M_get_Node_allocator
FUNC 77a80 70 0 std::_Rb_tree<std::basic_string<char, std::char_traits<char>, std::allocator<char> >, std::pair<const std::basic_string<char, std::char_traits<char>, std::allocator<char> >, IEC61850_STRUCT::IED_61850>, std::_Select1st<std::pair<const std::basic_string<char, std::char_traits<char>, std::allocator<char> >, IEC61850_STRUCT::IED_61850> >, std::less<std::basic_string<char, std::char_traits<char>, std::allocator<char> > >, std::allocator<std::pair<const std::basic_string<char, std::char_traits<char>, std::allocator<char> >, IEC61850_STRUCT::IED_61850> > >::_Rb_tree_impl<std::less<std::basic_string<char, std::char_traits<char>, std::allocator<char> > >, false>::_Rb_tree_impl
FUNC 77af0 12 0 std::_Rb_tree<std::basic_string<char, std::char_traits<char>, std::allocator<char> >, std::pair<const std::basic_string<char, std::char_traits<char>, std::allocator<char> >, IEC61850_STRUCT::IED_61850>, std::_Select1st<std::pair<const std::basic_string<char, std::char_traits<char>, std::allocator<char> >, IEC61850_STRUCT::IED_61850> >, std::less<std::basic_string<char, std::char_traits<char>, std::allocator<char> > >, std::allocator<std::pair<const std::basic_string<char, std::char_traits<char>, std::allocator<char> >, IEC61850_STRUCT::IED_61850> > >::_M_root
FUNC 77b02 169 0 std::_Rb_tree<std::basic_string<char, std::char_traits<char>, std::allocator<char> >, std::pair<const std::basic_string<char, std::char_traits<char>, std::allocator<char> >, IEC61850_STRUCT::IED_61850>, std::_Select1st<std::pair<const std::basic_string<char, std::char_traits<char>, std::allocator<char> >, IEC61850_STRUCT::IED_61850> >, std::less<std::basic_string<char, std::char_traits<char>, std::allocator<char> > >, std::allocator<std::pair<const std::basic_string<char, std::char_traits<char>, std::allocator<char> >, IEC61850_STRUCT::IED_61850> > >::_M_copy
FUNC 77c6c 12 0 std::_Rb_tree<std::basic_string<char, std::char_traits<char>, std::allocator<char> >, std::pair<const std::basic_string<char, std::char_traits<char>, std::allocator<char> >, IEC61850_STRUCT::IED_61850>, std::_Select1st<std::pair<const std::basic_string<char, std::char_traits<char>, std::allocator<char> >, IEC61850_STRUCT::IED_61850> >, std::less<std::basic_string<char, std::char_traits<char>, std::allocator<char> > >, std::allocator<std::pair<const std::basic_string<char, std::char_traits<char>, std::allocator<char> >, IEC61850_STRUCT::IED_61850> > >::_M_begin
FUNC 77c7e 1a 0 std::_Rb_tree<std::basic_string<char, std::char_traits<char>, std::allocator<char> >, std::pair<const std::basic_string<char, std::char_traits<char>, std::allocator<char> >, IEC61850_STRUCT::IED_61850>, std::_Select1st<std::pair<const std::basic_string<char, std::char_traits<char>, std::allocator<char> >, IEC61850_STRUCT::IED_61850> >, std::less<std::basic_string<char, std::char_traits<char>, std::allocator<char> > >, std::allocator<std::pair<const std::basic_string<char, std::char_traits<char>, std::allocator<char> >, IEC61850_STRUCT::IED_61850> > >::_S_minimum
FUNC 77c98 1a 0 std::_Rb_tree<std::basic_string<char, std::char_traits<char>, std::allocator<char> >, std::pair<const std::basic_string<char, std::char_traits<char>, std::allocator<char> >, IEC61850_STRUCT::IED_61850>, std::_Select1st<std::pair<const std::basic_string<char, std::char_traits<char>, std::allocator<char> >, IEC61850_STRUCT::IED_61850> >, std::less<std::basic_string<char, std::char_traits<char>, std::allocator<char> > >, std::allocator<std::pair<const std::basic_string<char, std::char_traits<char>, std::allocator<char> >, IEC61850_STRUCT::IED_61850> > >::_S_maximum
FUNC 77cb2 12 0 std::_Rb_tree<std::basic_string<char, std::char_traits<char>, std::allocator<char> >, std::pair<const std::basic_string<char, std::char_traits<char>, std::allocator<char> >, IEC103::stConfigParam>, std::_Select1st<std::pair<const std::basic_string<char, std::char_traits<char>, std::allocator<char> >, IEC103::stConfigParam> >, std::less<std::basic_string<char, std::char_traits<char>, std::allocator<char> > >, std::allocator<std::pair<const std::basic_string<char, std::char_traits<char>, std::allocator<char> >, IEC103::stConfigParam> > >::_M_end
FUNC 77cc4 12 0 std::_Rb_tree<std::basic_string<char, std::char_traits<char>, std::allocator<char> >, std::pair<const std::basic_string<char, std::char_traits<char>, std::allocator<char> >, IEC103::stConfigParam>, std::_Select1st<std::pair<const std::basic_string<char, std::char_traits<char>, std::allocator<char> >, IEC103::stConfigParam> >, std::less<std::basic_string<char, std::char_traits<char>, std::allocator<char> > >, std::allocator<std::pair<const std::basic_string<char, std::char_traits<char>, std::allocator<char> >, IEC103::stConfigParam> > >::_M_leftmost
FUNC 77cd6 12 0 std::_Rb_tree<std::basic_string<char, std::char_traits<char>, std::allocator<char> >, std::pair<const std::basic_string<char, std::char_traits<char>, std::allocator<char> >, IEC103::stConfigParam>, std::_Select1st<std::pair<const std::basic_string<char, std::char_traits<char>, std::allocator<char> >, IEC103::stConfigParam> >, std::less<std::basic_string<char, std::char_traits<char>, std::allocator<char> > >, std::allocator<std::pair<const std::basic_string<char, std::char_traits<char>, std::allocator<char> >, IEC103::stConfigParam> > >::_M_root
FUNC 77ce8 12 0 std::_Rb_tree<std::basic_string<char, std::char_traits<char>, std::allocator<char> >, std::pair<const std::basic_string<char, std::char_traits<char>, std::allocator<char> >, IEC103::stConfigParam>, std::_Select1st<std::pair<const std::basic_string<char, std::char_traits<char>, std::allocator<char> >, IEC103::stConfigParam> >, std::less<std::basic_string<char, std::char_traits<char>, std::allocator<char> > >, std::allocator<std::pair<const std::basic_string<char, std::char_traits<char>, std::allocator<char> >, IEC103::stConfigParam> > >::_M_rightmost
FUNC 77cfa 12 0 std::_Rb_tree<std::basic_string<char, std::char_traits<char>, std::allocator<char> >, std::pair<const std::basic_string<char, std::char_traits<char>, std::allocator<char> >, std::map<std::basic_string<char, std::char_traits<char>, std::allocator<char> >, std::basic_string<char, std::char_traits<char>, std::allocator<char> >, std::less<std::basic_string<char, std::char_traits<char>, std::allocator<char> > >, std::allocator<std::pair<const std::basic_string<char, std::char_traits<char>, std::allocator<char> >, std::basic_string<char, std::char_traits<char>, std::allocator<char> > > > > >, std::_Select1st<std::pair<const std::basic_string<char, std::char_traits<char>, std::allocator<char> >, std::map<std::basic_string<char, std::char_traits<char>, std::allocator<char> >, std::basic_string<char, std::char_traits<char>, std::allocator<char> >, std::less<std::basic_string<char, std::char_traits<char>, std::allocator<char> > >, std::allocator<std::pair<const std::basic_string<char, std::char_traits<char>, std::allocator<char> >, std::basic_string<char, std::char_traits<char>, std::allocator<char> > > > > > >, std::less<std::basic_string<char, std::char_traits<char>, std::allocator<char> > >, std::allocator<std::pair<const std::basic_string<char, std::char_traits<char>, std::allocator<char> >, std::map<std::basic_string<char, std::char_traits<char>, std::allocator<char> >, std::basic_string<char, std::char_traits<char>, std::allocator<char> >, std::less<std::basic_string<char, std::char_traits<char>, std::allocator<char> > >, std::allocator<std::pair<const std::basic_string<char, std::char_traits<char>, std::allocator<char> >, std::basic_string<char, std::char_traits<char>, std::allocator<char> > > > > > > >::_M_end
FUNC 77d0c 12 0 std::_Rb_tree<std::basic_string<char, std::char_traits<char>, std::allocator<char> >, std::pair<const std::basic_string<char, std::char_traits<char>, std::allocator<char> >, std::map<std::basic_string<char, std::char_traits<char>, std::allocator<char> >, std::basic_string<char, std::char_traits<char>, std::allocator<char> >, std::less<std::basic_string<char, std::char_traits<char>, std::allocator<char> > >, std::allocator<std::pair<const std::basic_string<char, std::char_traits<char>, std::allocator<char> >, std::basic_string<char, std::char_traits<char>, std::allocator<char> > > > > >, std::_Select1st<std::pair<const std::basic_string<char, std::char_traits<char>, std::allocator<char> >, std::map<std::basic_string<char, std::char_traits<char>, std::allocator<char> >, std::basic_string<char, std::char_traits<char>, std::allocator<char> >, std::less<std::basic_string<char, std::char_traits<char>, std::allocator<char> > >, std::allocator<std::pair<const std::basic_string<char, std::char_traits<char>, std::allocator<char> >, std::basic_string<char, std::char_traits<char>, std::allocator<char> > > > > > >, std::less<std::basic_string<char, std::char_traits<char>, std::allocator<char> > >, std::allocator<std::pair<const std::basic_string<char, std::char_traits<char>, std::allocator<char> >, std::map<std::basic_string<char, std::char_traits<char>, std::allocator<char> >, std::basic_string<char, std::char_traits<char>, std::allocator<char> >, std::less<std::basic_string<char, std::char_traits<char>, std::allocator<char> > >, std::allocator<std::pair<const std::basic_string<char, std::char_traits<char>, std::allocator<char> >, std::basic_string<char, std::char_traits<char>, std::allocator<char> > > > > > > >::_M_leftmost
FUNC 77d1e 12 0 std::_Rb_tree<std::basic_string<char, std::char_traits<char>, std::allocator<char> >, std::pair<const std::basic_string<char, std::char_traits<char>, std::allocator<char> >, std::map<std::basic_string<char, std::char_traits<char>, std::allocator<char> >, std::basic_string<char, std::char_traits<char>, std::allocator<char> >, std::less<std::basic_string<char, std::char_traits<char>, std::allocator<char> > >, std::allocator<std::pair<const std::basic_string<char, std::char_traits<char>, std::allocator<char> >, std::basic_string<char, std::char_traits<char>, std::allocator<char> > > > > >, std::_Select1st<std::pair<const std::basic_string<char, std::char_traits<char>, std::allocator<char> >, std::map<std::basic_string<char, std::char_traits<char>, std::allocator<char> >, std::basic_string<char, std::char_traits<char>, std::allocator<char> >, std::less<std::basic_string<char, std::char_traits<char>, std::allocator<char> > >, std::allocator<std::pair<const std::basic_string<char, std::char_traits<char>, std::allocator<char> >, std::basic_string<char, std::char_traits<char>, std::allocator<char> > > > > > >, std::less<std::basic_string<char, std::char_traits<char>, std::allocator<char> > >, std::allocator<std::pair<const std::basic_string<char, std::char_traits<char>, std::allocator<char> >, std::map<std::basic_string<char, std::char_traits<char>, std::allocator<char> >, std::basic_string<char, std::char_traits<char>, std::allocator<char> >, std::less<std::basic_string<char, std::char_traits<char>, std::allocator<char> > >, std::allocator<std::pair<const std::basic_string<char, std::char_traits<char>, std::allocator<char> >, std::basic_string<char, std::char_traits<char>, std::allocator<char> > > > > > > >::_M_root
FUNC 77d30 12 0 std::_Rb_tree<std::basic_string<char, std::char_traits<char>, std::allocator<char> >, std::pair<const std::basic_string<char, std::char_traits<char>, std::allocator<char> >, std::map<std::basic_string<char, std::char_traits<char>, std::allocator<char> >, std::basic_string<char, std::char_traits<char>, std::allocator<char> >, std::less<std::basic_string<char, std::char_traits<char>, std::allocator<char> > >, std::allocator<std::pair<const std::basic_string<char, std::char_traits<char>, std::allocator<char> >, std::basic_string<char, std::char_traits<char>, std::allocator<char> > > > > >, std::_Select1st<std::pair<const std::basic_string<char, std::char_traits<char>, std::allocator<char> >, std::map<std::basic_string<char, std::char_traits<char>, std::allocator<char> >, std::basic_string<char, std::char_traits<char>, std::allocator<char> >, std::less<std::basic_string<char, std::char_traits<char>, std::allocator<char> > >, std::allocator<std::pair<const std::basic_string<char, std::char_traits<char>, std::allocator<char> >, std::basic_string<char, std::char_traits<char>, std::allocator<char> > > > > > >, std::less<std::basic_string<char, std::char_traits<char>, std::allocator<char> > >, std::allocator<std::pair<const std::basic_string<char, std::char_traits<char>, std::allocator<char> >, std::map<std::basic_string<char, std::char_traits<char>, std::allocator<char> >, std::basic_string<char, std::char_traits<char>, std::allocator<char> >, std::less<std::basic_string<char, std::char_traits<char>, std::allocator<char> > >, std::allocator<std::pair<const std::basic_string<char, std::char_traits<char>, std::allocator<char> >, std::basic_string<char, std::char_traits<char>, std::allocator<char> > > > > > > >::_M_rightmost
FUNC 77d42 70 0 std::_Rb_tree<std::basic_string<char, std::char_traits<char>, std::allocator<char> >, std::pair<const std::basic_string<char, std::char_traits<char>, std::allocator<char> >, IEC103::stConfigParam>, std::_Select1st<std::pair<const std::basic_string<char, std::char_traits<char>, std::allocator<char> >, IEC103::stConfigParam> >, std::less<std::basic_string<char, std::char_traits<char>, std::allocator<char> > >, std::allocator<std::pair<const std::basic_string<char, std::char_traits<char>, std::allocator<char> >, IEC103::stConfigParam> > >::_Rb_tree_impl<std::less<std::basic_string<char, std::char_traits<char>, std::allocator<char> > >, false>::_Rb_tree_impl
FUNC 77db2 12 0 std::_Rb_tree<std::basic_string<char, std::char_traits<char>, std::allocator<char> >, std::pair<const std::basic_string<char, std::char_traits<char>, std::allocator<char> >, IEC103::stConfigParam>, std::_Select1st<std::pair<const std::basic_string<char, std::char_traits<char>, std::allocator<char> >, IEC103::stConfigParam> >, std::less<std::basic_string<char, std::char_traits<char>, std::allocator<char> > >, std::allocator<std::pair<const std::basic_string<char, std::char_traits<char>, std::allocator<char> >, IEC103::stConfigParam> > >::_M_root
FUNC 77dc4 169 0 std::_Rb_tree<std::basic_string<char, std::char_traits<char>, std::allocator<char> >, std::pair<const std::basic_string<char, std::char_traits<char>, std::allocator<char> >, IEC103::stConfigParam>, std::_Select1st<std::pair<const std::basic_string<char, std::char_traits<char>, std::allocator<char> >, IEC103::stConfigParam> >, std::less<std::basic_string<char, std::char_traits<char>, std::allocator<char> > >, std::allocator<std::pair<const std::basic_string<char, std::char_traits<char>, std::allocator<char> >, IEC103::stConfigParam> > >::_M_copy
FUNC 77f2e 12 0 std::_Rb_tree<std::basic_string<char, std::char_traits<char>, std::allocator<char> >, std::pair<const std::basic_string<char, std::char_traits<char>, std::allocator<char> >, IEC103::stConfigParam>, std::_Select1st<std::pair<const std::basic_string<char, std::char_traits<char>, std::allocator<char> >, IEC103::stConfigParam> >, std::less<std::basic_string<char, std::char_traits<char>, std::allocator<char> > >, std::allocator<std::pair<const std::basic_string<char, std::char_traits<char>, std::allocator<char> >, IEC103::stConfigParam> > >::_M_begin
FUNC 77f40 1a 0 std::_Rb_tree<std::basic_string<char, std::char_traits<char>, std::allocator<char> >, std::pair<const std::basic_string<char, std::char_traits<char>, std::allocator<char> >, IEC103::stConfigParam>, std::_Select1st<std::pair<const std::basic_string<char, std::char_traits<char>, std::allocator<char> >, IEC103::stConfigParam> >, std::less<std::basic_string<char, std::char_traits<char>, std::allocator<char> > >, std::allocator<std::pair<const std::basic_string<char, std::char_traits<char>, std::allocator<char> >, IEC103::stConfigParam> > >::_S_minimum
FUNC 77f5a 1a 0 std::_Rb_tree<std::basic_string<char, std::char_traits<char>, std::allocator<char> >, std::pair<const std::basic_string<char, std::char_traits<char>, std::allocator<char> >, IEC103::stConfigParam>, std::_Select1st<std::pair<const std::basic_string<char, std::char_traits<char>, std::allocator<char> >, IEC103::stConfigParam> >, std::less<std::basic_string<char, std::char_traits<char>, std::allocator<char> > >, std::allocator<std::pair<const std::basic_string<char, std::char_traits<char>, std::allocator<char> >, IEC103::stConfigParam> > >::_S_maximum
FUNC 77f74 70 0 std::_Rb_tree<std::basic_string<char, std::char_traits<char>, std::allocator<char> >, std::pair<const std::basic_string<char, std::char_traits<char>, std::allocator<char> >, std::map<std::basic_string<char, std::char_traits<char>, std::allocator<char> >, std::basic_string<char, std::char_traits<char>, std::allocator<char> >, std::less<std::basic_string<char, std::char_traits<char>, std::allocator<char> > >, std::allocator<std::pair<const std::basic_string<char, std::char_traits<char>, std::allocator<char> >, std::basic_string<char, std::char_traits<char>, std::allocator<char> > > > > >, std::_Select1st<std::pair<const std::basic_string<char, std::char_traits<char>, std::allocator<char> >, std::map<std::basic_string<char, std::char_traits<char>, std::allocator<char> >, std::basic_string<char, std::char_traits<char>, std::allocator<char> >, std::less<std::basic_string<char, std::char_traits<char>, std::allocator<char> > >, std::allocator<std::pair<const std::basic_string<char, std::char_traits<char>, std::allocator<char> >, std::basic_string<char, std::char_traits<char>, std::allocator<char> > > > > > >, std::less<std::basic_string<char, std::char_traits<char>, std::allocator<char> > >, std::allocator<std::pair<const std::basic_string<char, std::char_traits<char>, std::allocator<char> >, std::map<std::basic_string<char, std::char_traits<char>, std::allocator<char> >, std::basic_string<char, std::char_traits<char>, std::allocator<char> >, std::less<std::basic_string<char, std::char_traits<char>, std::allocator<char> > >, std::allocator<std::pair<const std::basic_string<char, std::char_traits<char>, std::allocator<char> >, std::basic_string<char, std::char_traits<char>, std::allocator<char> > > > > > > >::_Rb_tree_impl<std::less<std::basic_string<char, std::char_traits<char>, std::allocator<char> > >, false>::_Rb_tree_impl
FUNC 77fe4 12 0 std::_Rb_tree<std::basic_string<char, std::char_traits<char>, std::allocator<char> >, std::pair<const std::basic_string<char, std::char_traits<char>, std::allocator<char> >, std::map<std::basic_string<char, std::char_traits<char>, std::allocator<char> >, std::basic_string<char, std::char_traits<char>, std::allocator<char> >, std::less<std::basic_string<char, std::char_traits<char>, std::allocator<char> > >, std::allocator<std::pair<const std::basic_string<char, std::char_traits<char>, std::allocator<char> >, std::basic_string<char, std::char_traits<char>, std::allocator<char> > > > > >, std::_Select1st<std::pair<const std::basic_string<char, std::char_traits<char>, std::allocator<char> >, std::map<std::basic_string<char, std::char_traits<char>, std::allocator<char> >, std::basic_string<char, std::char_traits<char>, std::allocator<char> >, std::less<std::basic_string<char, std::char_traits<char>, std::allocator<char> > >, std::allocator<std::pair<const std::basic_string<char, std::char_traits<char>, std::allocator<char> >, std::basic_string<char, std::char_traits<char>, std::allocator<char> > > > > > >, std::less<std::basic_string<char, std::char_traits<char>, std::allocator<char> > >, std::allocator<std::pair<const std::basic_string<char, std::char_traits<char>, std::allocator<char> >, std::map<std::basic_string<char, std::char_traits<char>, std::allocator<char> >, std::basic_string<char, std::char_traits<char>, std::allocator<char> >, std::less<std::basic_string<char, std::char_traits<char>, std::allocator<char> > >, std::allocator<std::pair<const std::basic_string<char, std::char_traits<char>, std::allocator<char> >, std::basic_string<char, std::char_traits<char>, std::allocator<char> > > > > > > >::_M_root
FUNC 77ff6 169 0 std::_Rb_tree<std::basic_string<char, std::char_traits<char>, std::allocator<char> >, std::pair<const std::basic_string<char, std::char_traits<char>, std::allocator<char> >, std::map<std::basic_string<char, std::char_traits<char>, std::allocator<char> >, std::basic_string<char, std::char_traits<char>, std::allocator<char> >, std::less<std::basic_string<char, std::char_traits<char>, std::allocator<char> > >, std::allocator<std::pair<const std::basic_string<char, std::char_traits<char>, std::allocator<char> >, std::basic_string<char, std::char_traits<char>, std::allocator<char> > > > > >, std::_Select1st<std::pair<const std::basic_string<char, std::char_traits<char>, std::allocator<char> >, std::map<std::basic_string<char, std::char_traits<char>, std::allocator<char> >, std::basic_string<char, std::char_traits<char>, std::allocator<char> >, std::less<std::basic_string<char, std::char_traits<char>, std::allocator<char> > >, std::allocator<std::pair<const std::basic_string<char, std::char_traits<char>, std::allocator<char> >, std::basic_string<char, std::char_traits<char>, std::allocator<char> > > > > > >, std::less<std::basic_string<char, std::char_traits<char>, std::allocator<char> > >, std::allocator<std::pair<const std::basic_string<char, std::char_traits<char>, std::allocator<char> >, std::map<std::basic_string<char, std::char_traits<char>, std::allocator<char> >, std::basic_string<char, std::char_traits<char>, std::allocator<char> >, std::less<std::basic_string<char, std::char_traits<char>, std::allocator<char> > >, std::allocator<std::pair<const std::basic_string<char, std::char_traits<char>, std::allocator<char> >, std::basic_string<char, std::char_traits<char>, std::allocator<char> > > > > > > >::_M_copy
FUNC 78160 12 0 std::_Rb_tree<std::basic_string<char, std::char_traits<char>, std::allocator<char> >, std::pair<const std::basic_string<char, std::char_traits<char>, std::allocator<char> >, std::map<std::basic_string<char, std::char_traits<char>, std::allocator<char> >, std::basic_string<char, std::char_traits<char>, std::allocator<char> >, std::less<std::basic_string<char, std::char_traits<char>, std::allocator<char> > >, std::allocator<std::pair<const std::basic_string<char, std::char_traits<char>, std::allocator<char> >, std::basic_string<char, std::char_traits<char>, std::allocator<char> > > > > >, std::_Select1st<std::pair<const std::basic_string<char, std::char_traits<char>, std::allocator<char> >, std::map<std::basic_string<char, std::char_traits<char>, std::allocator<char> >, std::basic_string<char, std::char_traits<char>, std::allocator<char> >, std::less<std::basic_string<char, std::char_traits<char>, std::allocator<char> > >, std::allocator<std::pair<const std::basic_string<char, std::char_traits<char>, std::allocator<char> >, std::basic_string<char, std::char_traits<char>, std::allocator<char> > > > > > >, std::less<std::basic_string<char, std::char_traits<char>, std::allocator<char> > >, std::allocator<std::pair<const std::basic_string<char, std::char_traits<char>, std::allocator<char> >, std::map<std::basic_string<char, std::char_traits<char>, std::allocator<char> >, std::basic_string<char, std::char_traits<char>, std::allocator<char> >, std::less<std::basic_string<char, std::char_traits<char>, std::allocator<char> > >, std::allocator<std::pair<const std::basic_string<char, std::char_traits<char>, std::allocator<char> >, std::basic_string<char, std::char_traits<char>, std::allocator<char> > > > > > > >::_M_begin
FUNC 78172 1a 0 std::_Rb_tree<std::basic_string<char, std::char_traits<char>, std::allocator<char> >, std::pair<const std::basic_string<char, std::char_traits<char>, std::allocator<char> >, std::map<std::basic_string<char, std::char_traits<char>, std::allocator<char> >, std::basic_string<char, std::char_traits<char>, std::allocator<char> >, std::less<std::basic_string<char, std::char_traits<char>, std::allocator<char> > >, std::allocator<std::pair<const std::basic_string<char, std::char_traits<char>, std::allocator<char> >, std::basic_string<char, std::char_traits<char>, std::allocator<char> > > > > >, std::_Select1st<std::pair<const std::basic_string<char, std::char_traits<char>, std::allocator<char> >, std::map<std::basic_string<char, std::char_traits<char>, std::allocator<char> >, std::basic_string<char, std::char_traits<char>, std::allocator<char> >, std::less<std::basic_string<char, std::char_traits<char>, std::allocator<char> > >, std::allocator<std::pair<const std::basic_string<char, std::char_traits<char>, std::allocator<char> >, std::basic_string<char, std::char_traits<char>, std::allocator<char> > > > > > >, std::less<std::basic_string<char, std::char_traits<char>, std::allocator<char> > >, std::allocator<std::pair<const std::basic_string<char, std::char_traits<char>, std::allocator<char> >, std::map<std::basic_string<char, std::char_traits<char>, std::allocator<char> >, std::basic_string<char, std::char_traits<char>, std::allocator<char> >, std::less<std::basic_string<char, std::char_traits<char>, std::allocator<char> > >, std::allocator<std::pair<const std::basic_string<char, std::char_traits<char>, std::allocator<char> >, std::basic_string<char, std::char_traits<char>, std::allocator<char> > > > > > > >::_S_minimum
FUNC 7818c 1a 0 std::_Rb_tree<std::basic_string<char, std::char_traits<char>, std::allocator<char> >, std::pair<const std::basic_string<char, std::char_traits<char>, std::allocator<char> >, std::map<std::basic_string<char, std::char_traits<char>, std::allocator<char> >, std::basic_string<char, std::char_traits<char>, std::allocator<char> >, std::less<std::basic_string<char, std::char_traits<char>, std::allocator<char> > >, std::allocator<std::pair<const std::basic_string<char, std::char_traits<char>, std::allocator<char> >, std::basic_string<char, std::char_traits<char>, std::allocator<char> > > > > >, std::_Select1st<std::pair<const std::basic_string<char, std::char_traits<char>, std::allocator<char> >, std::map<std::basic_string<char, std::char_traits<char>, std::allocator<char> >, std::basic_string<char, std::char_traits<char>, std::allocator<char> >, std::less<std::basic_string<char, std::char_traits<char>, std::allocator<char> > >, std::allocator<std::pair<const std::basic_string<char, std::char_traits<char>, std::allocator<char> >, std::basic_string<char, std::char_traits<char>, std::allocator<char> > > > > > >, std::less<std::basic_string<char, std::char_traits<char>, std::allocator<char> > >, std::allocator<std::pair<const std::basic_string<char, std::char_traits<char>, std::allocator<char> >, std::map<std::basic_string<char, std::char_traits<char>, std::allocator<char> >, std::basic_string<char, std::char_traits<char>, std::allocator<char> >, std::less<std::basic_string<char, std::char_traits<char>, std::allocator<char> > >, std::allocator<std::pair<const std::basic_string<char, std::char_traits<char>, std::allocator<char> >, std::basic_string<char, std::char_traits<char>, std::allocator<char> > > > > > > >::_S_maximum
FUNC 781a6 12 0 std::_Rb_tree<std::basic_string<char, std::char_traits<char>, std::allocator<char> >, std::pair<const std::basic_string<char, std::char_traits<char>, std::allocator<char> >, std::map<int, std::map<int, IEC104WF::stPointTable, std::less<int>, std::allocator<std::pair<const int, IEC104WF::stPointTable> > >, std::less<int>, std::allocator<std::pair<const int, std::map<int, IEC104WF::stPointTable, std::less<int>, std::allocator<std::pair<const int, IEC104WF::stPointTable> > > > > > >, std::_Select1st<std::pair<const std::basic_string<char, std::char_traits<char>, std::allocator<char> >, std::map<int, std::map<int, IEC104WF::stPointTable, std::less<int>, std::allocator<std::pair<const int, IEC104WF::stPointTable> > >, std::less<int>, std::allocator<std::pair<const int, std::map<int, IEC104WF::stPointTable, std::less<int>, std::allocator<std::pair<const int, IEC104WF::stPointTable> > > > > > > >, std::less<std::basic_string<char, std::char_traits<char>, std::allocator<char> > >, std::allocator<std::pair<const std::basic_string<char, std::char_traits<char>, std::allocator<char> >, std::map<int, std::map<int, IEC104WF::stPointTable, std::less<int>, std::allocator<std::pair<const int, IEC104WF::stPointTable> > >, std::less<int>, std::allocator<std::pair<const int, std::map<int, IEC104WF::stPointTable, std::less<int>, std::allocator<std::pair<const int, IEC104WF::stPointTable> > > > > > > > >::_M_end
