MODULE Linux x86_64 96185168BBF738CFED0997B68796279E0 IEC103_SFIEC103
FUNC b874 8d 0 main
FUNC b901 ca 0 __static_initialization_and_destruction_0
FUNC b9cb 15 0 _GLOBAL__I_IEC103.cpp
FUNC b9e0 543 0 Config::Config
FUNC bf24 74 0 Config::GetInstance
FUNC bf98 274 0 Config::~Config
FUNC c20c 26 0 Config::~Config
FUNC c232 14c0 0 Config::Init
FUNC d6f2 27 0 Config::IsSpace
FUNC d71a 24 0 Config::IsCommentChar
FUNC d73e 173 0 Config::Trim
FUNC d8b2 21d 0 Config::AnalyseLine
FUNC dad0 238 0 Config::ReadConfig
FUNC dd08 ad 0 Config::GetStrValueByKey
FUNC ddb6 d03 0 Config::InitMysqlParams
FUNC eaba 134 0 Config::Split
FUNC ebee 48 0 __static_initialization_and_destruction_0
FUNC ec36 15 0 _GLOBAL__I_Config.cpp
FUNC ec4b 12 0 operator new
FUNC ec5d e 0 operator delete
FUNC ec6b 14 0 std::operator|
FUNC ec80 1a 0 std::map<std::basic_string<char, std::char_traits<char>, std::allocator<char> >, std::basic_string<char, std::char_traits<char>, std::allocator<char> >, std::less<std::basic_string<char, std::char_traits<char>, std::allocator<char> > >, std::allocator<std::pair<const std::basic_string<char, std::char_traits<char>, std::allocator<char> >, std::basic_string<char, std::char_traits<char>, std::allocator<char> > > > >::~map
FUNC ec9a 1a 0 std::map<std::basic_string<char, std::char_traits<char>, std::allocator<char> >, std::basic_string<char, std::char_traits<char>, std::allocator<char> >, std::less<std::basic_string<char, std::char_traits<char>, std::allocator<char> > >, std::allocator<std::pair<const std::basic_string<char, std::char_traits<char>, std::allocator<char> >, std::basic_string<char, std::char_traits<char>, std::allocator<char> > > > >::map
FUNC ecb4 1a 0 std::_Rb_tree<std::basic_string<char, std::char_traits<char>, std::allocator<char> >, std::pair<const std::basic_string<char, std::char_traits<char>, std::allocator<char> >, std::basic_string<char, std::char_traits<char>, std::allocator<char> > >, std::_Select1st<std::pair<const std::basic_string<char, std::char_traits<char>, std::allocator<char> >, std::basic_string<char, std::char_traits<char>, std::allocator<char> > > >, std::less<std::basic_string<char, std::char_traits<char>, std::allocator<char> > >, std::allocator<std::pair<const std::basic_string<char, std::char_traits<char>, std::allocator<char> >, std::basic_string<char, std::char_traits<char>, std::allocator<char> > > > >::_Rb_tree_impl<std::less<std::basic_string<char, std::char_traits<char>, std::allocator<char> > >, false>::~_Rb_tree_impl
FUNC ecce 63 0 std::_Rb_tree<std::basic_string<char, std::char_traits<char>, std::allocator<char> >, std::pair<const std::basic_string<char, std::char_traits<char>, std::allocator<char> >, std::basic_string<char, std::char_traits<char>, std::allocator<char> > >, std::_Select1st<std::pair<const std::basic_string<char, std::char_traits<char>, std::allocator<char> >, std::basic_string<char, std::char_traits<char>, std::allocator<char> > > >, std::less<std::basic_string<char, std::char_traits<char>, std::allocator<char> > >, std::allocator<std::pair<const std::basic_string<char, std::char_traits<char>, std::allocator<char> >, std::basic_string<char, std::char_traits<char>, std::allocator<char> > > > >::~_Rb_tree
FUNC ed32 1a 0 std::vector<short unsigned int, std::allocator<short unsigned int> >::vector
FUNC ed4c 6e 0 std::vector<short unsigned int, std::allocator<short unsigned int> >::~vector
FUNC edba 1a 0 std::vector<std::basic_string<char, std::char_traits<char>, std::allocator<char> >, std::allocator<std::basic_string<char, std::char_traits<char>, std::allocator<char> > > >::vector
FUNC edd4 6e 0 std::vector<std::basic_string<char, std::char_traits<char>, std::allocator<char> >, std::allocator<std::basic_string<char, std::char_traits<char>, std::allocator<char> > > >::~vector
FUNC ee42 24 0 std::vector<short unsigned int, std::allocator<short unsigned int> >::clear
FUNC ee66 24 0 std::vector<std::basic_string<char, std::char_traits<char>, std::allocator<char> >, std::allocator<std::basic_string<char, std::char_traits<char>, std::allocator<char> > > >::clear
FUNC ee8a 16d 0 Config::GetValueByKey<int32_t>
FUNC eff8 16d 0 Config::GetValueByKey<uint16_t>
FUNC f166 16d 0 Config::GetValueByKey<std::string>
FUNC f2d4 242 0 std::vector<std::basic_string<char, std::char_traits<char>, std::allocator<char> >, std::allocator<std::basic_string<char, std::char_traits<char>, std::allocator<char> > > >::operator=
FUNC f516 25 0 std::vector<std::basic_string<char, std::char_traits<char>, std::allocator<char> >, std::allocator<std::basic_string<char, std::char_traits<char>, std::allocator<char> > > >::begin
FUNC f53c 28 0 __gnu_cxx::__normal_iterator<const std::basic_string<char, std::char_traits<char>, std::allocator<char> >*, std::vector<std::basic_string<char, std::char_traits<char>, std::allocator<char> >, std::allocator<std::basic_string<char, std::char_traits<char>, std::allocator<char> > > > >::__normal_iterator<std::basic_string<char, std::char_traits<char>, std::allocator<char> >*>
FUNC f564 29 0 std::vector<std::basic_string<char, std::char_traits<char>, std::allocator<char> >, std::allocator<std::basic_string<char, std::char_traits<char>, std::allocator<char> > > >::end
FUNC f58d 3c 0 __gnu_cxx::operator!=<const std::basic_string<char, std::char_traits<char>, std::allocator<char> >*, std::basic_string<char, std::char_traits<char>, std::allocator<char> >*, std::vector<std::basic_string<char, std::char_traits<char>, std::allocator<char> >, std::allocator<std::basic_string<char, std::char_traits<char>, std::allocator<char> > > > >
FUNC f5ca 20 0 __gnu_cxx::__normal_iterator<const std::basic_string<char, std::char_traits<char>, std::allocator<char> >*, std::vector<std::basic_string<char, std::char_traits<char>, std::allocator<char> >, std::allocator<std::basic_string<char, std::char_traits<char>, std::allocator<char> > > > >::operator++
FUNC f5ea 11 0 __gnu_cxx::__normal_iterator<const std::basic_string<char, std::char_traits<char>, std::allocator<char> >*, std::vector<std::basic_string<char, std::char_traits<char>, std::allocator<char> >, std::allocator<std::basic_string<char, std::char_traits<char>, std::allocator<char> > > > >::operator*
FUNC f5fc f3 0 Config::String2Int<uint16_t>
FUNC f6f0 7a 0 std::vector<short unsigned int, std::allocator<short unsigned int> >::push_back
FUNC f76a 7a 0 std::vector<std::basic_string<char, std::char_traits<char>, std::allocator<char> >, std::allocator<std::basic_string<char, std::char_traits<char>, std::allocator<char> > > >::push_back
FUNC f7e4 29 0 std::vector<std::basic_string<char, std::char_traits<char>, std::allocator<char> >, std::allocator<std::basic_string<char, std::char_traits<char>, std::allocator<char> > > >::size
FUNC f80e 28 0 std::vector<short unsigned int, std::allocator<short unsigned int> >::size
FUNC f836 41 0 std::vector<std::basic_string<char, std::char_traits<char>, std::allocator<char> >, std::allocator<std::basic_string<char, std::char_traits<char>, std::allocator<char> > > >::empty
FUNC f878 41 0 std::vector<short unsigned int, std::allocator<short unsigned int> >::empty
FUNC f8ba 1a 0 std::map<std::basic_string<char, std::char_traits<char>, std::allocator<char> >, std::basic_string<char, std::char_traits<char>, std::allocator<char> >, std::less<std::basic_string<char, std::char_traits<char>, std::allocator<char> > >, std::allocator<std::pair<const std::basic_string<char, std::char_traits<char>, std::allocator<char> >, std::basic_string<char, std::char_traits<char>, std::allocator<char> > > > >::clear
FUNC f8d4 55 0 std::pair<const std::basic_string<char, std::char_traits<char>, std::allocator<char> >, std::basic_string<char, std::char_traits<char>, std::allocator<char> > >::~pair
FUNC f92a 146 0 std::map<std::basic_string<char, std::char_traits<char>, std::allocator<char> >, std::basic_string<char, std::char_traits<char>, std::allocator<char> >, std::less<std::basic_string<char, std::char_traits<char>, std::allocator<char> > >, std::allocator<std::pair<const std::basic_string<char, std::char_traits<char>, std::allocator<char> >, std::basic_string<char, std::char_traits<char>, std::allocator<char> > > > >::operator[]
FUNC fa70 25 0 std::map<std::basic_string<char, std::char_traits<char>, std::allocator<char> >, std::basic_string<char, std::char_traits<char>, std::allocator<char> >, std::less<std::basic_string<char, std::char_traits<char>, std::allocator<char> > >, std::allocator<std::pair<const std::basic_string<char, std::char_traits<char>, std::allocator<char> >, std::basic_string<char, std::char_traits<char>, std::allocator<char> > > > >::find
FUNC fa96 1c 0 std::_Rb_tree_const_iterator<std::pair<const std::basic_string<char, std::char_traits<char>, std::allocator<char> >, std::basic_string<char, std::char_traits<char>, std::allocator<char> > > >::_Rb_tree_const_iterator
FUNC fab2 1a 0 std::map<std::basic_string<char, std::char_traits<char>, std::allocator<char> >, std::basic_string<char, std::char_traits<char>, std::allocator<char> >, std::less<std::basic_string<char, std::char_traits<char>, std::allocator<char> > >, std::allocator<std::pair<const std::basic_string<char, std::char_traits<char>, std::allocator<char> >, std::basic_string<char, std::char_traits<char>, std::allocator<char> > > > >::end
FUNC facc 22 0 std::_Rb_tree_const_iterator<std::pair<const std::basic_string<char, std::char_traits<char>, std::allocator<char> >, std::basic_string<char, std::char_traits<char>, std::allocator<char> > > >::operator!=
FUNC faee 15 0 std::_Rb_tree_const_iterator<std::pair<const std::basic_string<char, std::char_traits<char>, std::allocator<char> >, std::basic_string<char, std::char_traits<char>, std::allocator<char> > > >::operator->
FUNC fb04 20 0 std::vector<std::basic_string<char, std::char_traits<char>, std::allocator<char> >, std::allocator<std::basic_string<char, std::char_traits<char>, std::allocator<char> > > >::operator[]
FUNC fb24 1f 0 std::vector<short unsigned int, std::allocator<short unsigned int> >::operator[]
FUNC fb44 f3 0 Config::String2Int<int32_t>
FUNC fc38 1a 0 std::_Rb_tree<std::basic_string<char, std::char_traits<char>, std::allocator<char> >, std::pair<const std::basic_string<char, std::char_traits<char>, std::allocator<char> >, std::basic_string<char, std::char_traits<char>, std::allocator<char> > >, std::_Select1st<std::pair<const std::basic_string<char, std::char_traits<char>, std::allocator<char> >, std::basic_string<char, std::char_traits<char>, std::allocator<char> > > >, std::less<std::basic_string<char, std::char_traits<char>, std::allocator<char> > >, std::allocator<std::pair<const std::basic_string<char, std::char_traits<char>, std::allocator<char> >, std::basic_string<char, std::char_traits<char>, std::allocator<char> > > > >::_Rb_tree
FUNC fc52 1a 0 std::allocator<std::_Rb_tree_node<std::pair<const std::basic_string<char, std::char_traits<char>, std::allocator<char> >, std::basic_string<char, std::char_traits<char>, std::allocator<char> > > > >::~allocator
FUNC fc6c 69 0 std::_Rb_tree<std::basic_string<char, std::char_traits<char>, std::allocator<char> >, std::pair<const std::basic_string<char, std::char_traits<char>, std::allocator<char> >, std::basic_string<char, std::char_traits<char>, std::allocator<char> > >, std::_Select1st<std::pair<const std::basic_string<char, std::char_traits<char>, std::allocator<char> >, std::basic_string<char, std::char_traits<char>, std::allocator<char> > > >, std::less<std::basic_string<char, std::char_traits<char>, std::allocator<char> > >, std::allocator<std::pair<const std::basic_string<char, std::char_traits<char>, std::allocator<char> >, std::basic_string<char, std::char_traits<char>, std::allocator<char> > > > >::_M_erase
FUNC fcd6 12 0 std::_Rb_tree<std::basic_string<char, std::char_traits<char>, std::allocator<char> >, std::pair<const std::basic_string<char, std::char_traits<char>, std::allocator<char> >, std::basic_string<char, std::char_traits<char>, std::allocator<char> > >, std::_Select1st<std::pair<const std::basic_string<char, std::char_traits<char>, std::allocator<char> >, std::basic_string<char, std::char_traits<char>, std::allocator<char> > > >, std::less<std::basic_string<char, std::char_traits<char>, std::allocator<char> > >, std::allocator<std::pair<const std::basic_string<char, std::char_traits<char>, std::allocator<char> >, std::basic_string<char, std::char_traits<char>, std::allocator<char> > > > >::_M_begin
FUNC fce8 1a 0 std::_Vector_base<short unsigned int, std::allocator<short unsigned int> >::_Vector_impl::~_Vector_impl
FUNC fd02 1a 0 std::_Vector_base<short unsigned int, std::allocator<short unsigned int> >::_Vector_base
FUNC fd1c 7c 0 std::_Vector_base<short unsigned int, std::allocator<short unsigned int> >::~_Vector_base
FUNC fd98 e 0 std::_Vector_base<short unsigned int, std::allocator<short unsigned int> >::_M_get_Tp_allocator
FUNC fda6 29 0 std::_Destroy<short unsigned int*, short unsigned int>
FUNC fdd0 1a 0 std::_Vector_base<std::basic_string<char, std::char_traits<char>, std::allocator<char> >, std::allocator<std::basic_string<char, std::char_traits<char>, std::allocator<char> > > >::_Vector_impl::~_Vector_impl
FUNC fdea 1a 0 std::_Vector_base<std::basic_string<char, std::char_traits<char>, std::allocator<char> >, std::allocator<std::basic_string<char, std::char_traits<char>, std::allocator<char> > > >::_Vector_base
FUNC fe04 7d 0 std::_Vector_base<std::basic_string<char, std::char_traits<char>, std::allocator<char> >, std::allocator<std::basic_string<char, std::char_traits<char>, std::allocator<char> > > >::~_Vector_base
FUNC fe82 e 0 std::_Vector_base<std::basic_string<char, std::char_traits<char>, std::allocator<char> >, std::allocator<std::basic_string<char, std::char_traits<char>, std::allocator<char> > > >::_M_get_Tp_allocator
FUNC fe90 29 0 std::_Destroy<std::basic_string<char, std::char_traits<char>, std::allocator<char> >*, std::basic_string<char, std::char_traits<char>, std::allocator<char> > >
FUNC feba 44 0 std::vector<short unsigned int, std::allocator<short unsigned int> >::_M_erase_at_end
FUNC fefe 44 0 std::vector<std::basic_string<char, std::char_traits<char>, std::allocator<char> >, std::allocator<std::basic_string<char, std::char_traits<char>, std::allocator<char> > > >::_M_erase_at_end
FUNC ff42 29 0 std::vector<std::basic_string<char, std::char_traits<char>, std::allocator<char> >, std::allocator<std::basic_string<char, std::char_traits<char>, std::allocator<char> > > >::capacity
FUNC ff6c 30 0 std::vector<std::basic_string<char, std::char_traits<char>, std::allocator<char> >, std::allocator<std::basic_string<char, std::char_traits<char>, std::allocator<char> > > >::begin
FUNC ff9c 31 0 std::vector<std::basic_string<char, std::char_traits<char>, std::allocator<char> >, std::allocator<std::basic_string<char, std::char_traits<char>, std::allocator<char> > > >::end
FUNC ffce a1 0 std::vector<std::basic_string<char, std::char_traits<char>, std::allocator<char> >, std::allocator<std::basic_string<char, std::char_traits<char>, std::allocator<char> > > >::_M_allocate_and_copy<__gnu_cxx::__normal_iterator<const std::basic_string<char, std::char_traits<char>, std::allocator<char> >*, std::vector<std::basic_string<char, std::char_traits<char>, std::allocator<char> >, std::allocator<std::basic_string<char, std::char_traits<char>, std::allocator<char> > > > > >
FUNC 10070 34 0 std::_Vector_base<std::basic_string<char, std::char_traits<char>, std::allocator<char> >, std::allocator<std::basic_string<char, std::char_traits<char>, std::allocator<char> > > >::_M_deallocate
FUNC 100a4 46 0 std::copy<__gnu_cxx::__normal_iterator<const std::basic_string<char, std::char_traits<char>, std::allocator<char> >*, std::vector<std::basic_string<char, std::char_traits<char>, std::allocator<char> >, std::allocator<std::basic_string<char, std::char_traits<char>, std::allocator<char> > > > >, __gnu_cxx::__normal_iterator<std::basic_string<char, std::char_traits<char>, std::allocator<char> >*, std::vector<std::basic_string<char, std::char_traits<char>, std::allocator<char> >, std::allocator<std::basic_string<char, std::char_traits<char>, std::allocator<char> > > > > >
FUNC 100ea 29 0 std::_Destroy<__gnu_cxx::__normal_iterator<std::basic_string<char, std::char_traits<char>, std::allocator<char> >*, std::vector<std::basic_string<char, std::char_traits<char>, std::allocator<char> >, std::allocator<std::basic_string<char, std::char_traits<char>, std::allocator<char> > > > >, std::basic_string<char, std::char_traits<char>, std::allocator<char> > >
FUNC 10113 46 0 std::copy<std::basic_string<char, std::char_traits<char>, std::allocator<char> >*, std::basic_string<char, std::char_traits<char>, std::allocator<char> >*>
FUNC 10159 31 0 std::__uninitialized_copy_a<std::basic_string<char, std::char_traits<char>, std::allocator<char> >*, std::basic_string<char, std::char_traits<char>, std::allocator<char> >*, std::basic_string<char, std::char_traits<char>, std::allocator<char> > >
FUNC 1018a 1c 0 __gnu_cxx::__normal_iterator<std::basic_string<char, std::char_traits<char>, std::allocator<char> >*, std::vector<std::basic_string<char, std::char_traits<char>, std::allocator<char> >, std::allocator<std::basic_string<char, std::char_traits<char>, std::allocator<char> > > > >::__normal_iterator
FUNC 101a6 e 0 __gnu_cxx::__normal_iterator<std::basic_string<char, std::char_traits<char>, std::allocator<char> >*, std::vector<std::basic_string<char, std::char_traits<char>, std::allocator<char> >, std::allocator<std::basic_string<char, std::char_traits<char>, std::allocator<char> > > > >::base
FUNC 101b4 e 0 __gnu_cxx::__normal_iterator<const std::basic_string<char, std::char_traits<char>, std::allocator<char> >*, std::vector<std::basic_string<char, std::char_traits<char>, std::allocator<char> >, std::allocator<std::basic_string<char, std::char_traits<char>, std::allocator<char> > > > >::base
FUNC 101c2 39 0 __gnu_cxx::new_allocator<short unsigned int>::construct
FUNC 101fc 2e5 0 std::vector<short unsigned int, std::allocator<short unsigned int> >::_M_insert_aux
FUNC 104e2 29 0 std::vector<short unsigned int, std::allocator<short unsigned int> >::end
FUNC 1050c 77 0 __gnu_cxx::new_allocator<std::basic_string<char, std::char_traits<char>, std::allocator<char> > >::construct
FUNC 10584 326 0 std::vector<std::basic_string<char, std::char_traits<char>, std::allocator<char> >, std::allocator<std::basic_string<char, std::char_traits<char>, std::allocator<char> > > >::_M_insert_aux
FUNC 108aa 3c 0 __gnu_cxx::operator==<const std::basic_string<char, std::char_traits<char>, std::allocator<char> >*, std::vector<std::basic_string<char, std::char_traits<char>, std::allocator<char> >, std::allocator<std::basic_string<char, std::char_traits<char>, std::allocator<char> > > > >
FUNC 108e6 31 0 std::vector<short unsigned int, std::allocator<short unsigned int> >::end
FUNC 10918 30 0 std::vector<short unsigned int, std::allocator<short unsigned int> >::begin
FUNC 10948 3c 0 __gnu_cxx::operator==<const short unsigned int*, std::vector<short unsigned int, std::allocator<short unsigned int> > >
FUNC 10984 8d 0 std::_Rb_tree<std::basic_string<char, std::char_traits<char>, std::allocator<char> >, std::pair<const std::basic_string<char, std::char_traits<char>, std::allocator<char> >, std::basic_string<char, std::char_traits<char>, std::allocator<char> > >, std::_Select1st<std::pair<const std::basic_string<char, std::char_traits<char>, std::allocator<char> >, std::basic_string<char, std::char_traits<char>, std::allocator<char> > > >, std::less<std::basic_string<char, std::char_traits<char>, std::allocator<char> > >, std::allocator<std::pair<const std::basic_string<char, std::char_traits<char>, std::allocator<char> >, std::basic_string<char, std::char_traits<char>, std::allocator<char> > > > >::clear
FUNC 10a12 25 0 std::map<std::basic_string<char, std::char_traits<char>, std::allocator<char> >, std::basic_string<char, std::char_traits<char>, std::allocator<char> >, std::less<std::basic_string<char, std::char_traits<char>, std::allocator<char> > >, std::allocator<std::pair<const std::basic_string<char, std::char_traits<char>, std::allocator<char> >, std::basic_string<char, std::char_traits<char>, std::allocator<char> > > > >::lower_bound
FUNC 10a38 1a 0 std::map<std::basic_string<char, std::char_traits<char>, std::allocator<char> >, std::basic_string<char, std::char_traits<char>, std::allocator<char> >, std::less<std::basic_string<char, std::char_traits<char>, std::allocator<char> > >, std::allocator<std::pair<const std::basic_string<char, std::char_traits<char>, std::allocator<char> >, std::basic_string<char, std::char_traits<char>, std::allocator<char> > > > >::key_comp
FUNC 10a52 15 0 std::_Rb_tree_iterator<std::pair<const std::basic_string<char, std::char_traits<char>, std::allocator<char> >, std::basic_string<char, std::char_traits<char>, std::allocator<char> > > >::operator*
FUNC 10a68 29 0 std::less<std::basic_string<char, std::char_traits<char>, std::allocator<char> > >::operator()
FUNC 10a92 22 0 std::_Rb_tree_iterator<std::pair<const std::basic_string<char, std::char_traits<char>, std::allocator<char> >, std::basic_string<char, std::char_traits<char>, std::allocator<char> > > >::operator==
FUNC 10ab4 6b 0 std::pair<const std::basic_string<char, std::char_traits<char>, std::allocator<char> >, std::basic_string<char, std::char_traits<char>, std::allocator<char> > >::pair
FUNC 10b20 40 0 std::map<std::basic_string<char, std::char_traits<char>, std::allocator<char> >, std::basic_string<char, std::char_traits<char>, std::allocator<char> >, std::less<std::basic_string<char, std::char_traits<char>, std::allocator<char> > >, std::allocator<std::pair<const std::basic_string<char, std::char_traits<char>, std::allocator<char> >, std::basic_string<char, std::char_traits<char>, std::allocator<char> > > > >::insert
FUNC 10b60 b6 0 std::_Rb_tree<std::basic_string<char, std::char_traits<char>, std::allocator<char> >, std::pair<const std::basic_string<char, std::char_traits<char>, std::allocator<char> >, std::basic_string<char, std::char_traits<char>, std::allocator<char> > >, std::_Select1st<std::pair<const std::basic_string<char, std::char_traits<char>, std::allocator<char> >, std::basic_string<char, std::char_traits<char>, std::allocator<char> > > >, std::less<std::basic_string<char, std::char_traits<char>, std::allocator<char> > >, std::allocator<std::pair<const std::basic_string<char, std::char_traits<char>, std::allocator<char> >, std::basic_string<char, std::char_traits<char>, std::allocator<char> > > > >::find
FUNC 10c16 2c 0 std::_Rb_tree<std::basic_string<char, std::char_traits<char>, std::allocator<char> >, std::pair<const std::basic_string<char, std::char_traits<char>, std::allocator<char> >, std::basic_string<char, std::char_traits<char>, std::allocator<char> > >, std::_Select1st<std::pair<const std::basic_string<char, std::char_traits<char>, std::allocator<char> >, std::basic_string<char, std::char_traits<char>, std::allocator<char> > > >, std::less<std::basic_string<char, std::char_traits<char>, std::allocator<char> > >, std::allocator<std::pair<const std::basic_string<char, std::char_traits<char>, std::allocator<char> >, std::basic_string<char, std::char_traits<char>, std::allocator<char> > > > >::end
FUNC 10c42 e 0 std::_Vector_base<std::basic_string<char, std::char_traits<char>, std::allocator<char> >, std::allocator<std::basic_string<char, std::char_traits<char>, std::allocator<char> > > >::_M_get_Tp_allocator
FUNC 10c50 31 0 std::__uninitialized_copy_a<__gnu_cxx::__normal_iterator<const std::basic_string<char, std::char_traits<char>, std::allocator<char> >*, std::vector<std::basic_string<char, std::char_traits<char>, std::allocator<char> >, std::allocator<std::basic_string<char, std::char_traits<char>, std::allocator<char> > > > >, std::basic_string<char, std::char_traits<char>, std::allocator<char> >*, std::basic_string<char, std::char_traits<char>, std::allocator<char> > >
FUNC 10c82 8c 0 std::_Rb_tree<std::basic_string<char, std::char_traits<char>, std::allocator<char> >, std::pair<const std::basic_string<char, std::char_traits<char>, std::allocator<char> >, std::basic_string<char, std::char_traits<char>, std::allocator<char> > >, std::_Select1st<std::pair<const std::basic_string<char, std::char_traits<char>, std::allocator<char> >, std::basic_string<char, std::char_traits<char>, std::allocator<char> > > >, std::less<std::basic_string<char, std::char_traits<char>, std::allocator<char> > >, std::allocator<std::pair<const std::basic_string<char, std::char_traits<char>, std::allocator<char> >, std::basic_string<char, std::char_traits<char>, std::allocator<char> > > > >::_Rb_tree_impl<std::less<std::basic_string<char, std::char_traits<char>, std::allocator<char> > >, false>::_Rb_tree_impl
FUNC 10d0e a 0 __gnu_cxx::new_allocator<std::_Rb_tree_node<std::pair<const std::basic_string<char, std::char_traits<char>, std::allocator<char> >, std::basic_string<char, std::char_traits<char>, std::allocator<char> > > > >::~new_allocator
FUNC 10d18 12 0 std::_Rb_tree<std::basic_string<char, std::char_traits<char>, std::allocator<char> >, std::pair<const std::basic_string<char, std::char_traits<char>, std::allocator<char> >, std::basic_string<char, std::char_traits<char>, std::allocator<char> > >, std::_Select1st<std::pair<const std::basic_string<char, std::char_traits<char>, std::allocator<char> >, std::basic_string<char, std::char_traits<char>, std::allocator<char> > > >, std::less<std::basic_string<char, std::char_traits<char>, std::allocator<char> > >, std::allocator<std::pair<const std::basic_string<char, std::char_traits<char>, std::allocator<char> >, std::basic_string<char, std::char_traits<char>, std::allocator<char> > > > >::_S_right
FUNC 10d2a 12 0 std::_Rb_tree<std::basic_string<char, std::char_traits<char>, std::allocator<char> >, std::pair<const std::basic_string<char, std::char_traits<char>, std::allocator<char> >, std::basic_string<char, std::char_traits<char>, std::allocator<char> > >, std::_Select1st<std::pair<const std::basic_string<char, std::char_traits<char>, std::allocator<char> >, std::basic_string<char, std::char_traits<char>, std::allocator<char> > > >, std::less<std::basic_string<char, std::char_traits<char>, std::allocator<char> > >, std::allocator<std::pair<const std::basic_string<char, std::char_traits<char>, std::allocator<char> >, std::basic_string<char, std::char_traits<char>, std::allocator<char> > > > >::_S_left
FUNC 10d3c 86 0 std::_Rb_tree<std::basic_string<char, std::char_traits<char>, std::allocator<char> >, std::pair<const std::basic_string<char, std::char_traits<char>, std::allocator<char> >, std::basic_string<char, std::char_traits<char>, std::allocator<char> > >, std::_Select1st<std::pair<const std::basic_string<char, std::char_traits<char>, std::allocator<char> >, std::basic_string<char, std::char_traits<char>, std::allocator<char> > > >, std::less<std::basic_string<char, std::char_traits<char>, std::allocator<char> > >, std::allocator<std::pair<const std::basic_string<char, std::char_traits<char>, std::allocator<char> >, std::basic_string<char, std::char_traits<char>, std::allocator<char> > > > >::_M_destroy_node
FUNC 10dc2 3d 0 std::_Vector_base<short unsigned int, std::allocator<short unsigned int> >::_Vector_impl::_Vector_impl
FUNC 10e00 1a 0 std::allocator<short unsigned int>::~allocator
FUNC 10e1a 34 0 std::_Vector_base<short unsigned int, std::allocator<short unsigned int> >::_M_deallocate
FUNC 10e4e 25 0 std::_Destroy<short unsigned int*>
FUNC 10e74 3d 0 std::_Vector_base<std::basic_string<char, std::char_traits<char>, std::allocator<char> >, std::allocator<std::basic_string<char, std::char_traits<char>, std::allocator<char> > > >::_Vector_impl::_Vector_impl
FUNC 10eb2 1a 0 std::allocator<std::basic_string<char, std::char_traits<char>, std::allocator<char> > >::~allocator
FUNC 10ecc 25 0 std::_Destroy<std::basic_string<char, std::char_traits<char>, std::allocator<char> >*>
FUNC 10ef2 1c 0 __gnu_cxx::__normal_iterator<const std::basic_string<char, std::char_traits<char>, std::allocator<char> >*, std::vector<std::basic_string<char, std::char_traits<char>, std::allocator<char> >, std::allocator<std::basic_string<char, std::char_traits<char>, std::allocator<char> > > > >::__normal_iterator
FUNC 10f0e 38 0 std::_Vector_base<std::basic_string<char, std::char_traits<char>, std::allocator<char> >, std::allocator<std::basic_string<char, std::char_traits<char>, std::allocator<char> > > >::_M_allocate
FUNC 10f46 22 0 __gnu_cxx::new_allocator<std::basic_string<char, std::char_traits<char>, std::allocator<char> > >::deallocate
FUNC 10f68 e 0 std::__miter_base<__gnu_cxx::__normal_iterator<const std::basic_string<char, std::char_traits<char>, std::allocator<char> >*, std::vector<std::basic_string<char, std::char_traits<char>, std::allocator<char> >, std::allocator<std::basic_string<char, std::char_traits<char>, std::allocator<char> > > > >, false>::__b
FUNC 10f76 73 0 std::__copy_move_a2<false, __gnu_cxx::__normal_iterator<const std::basic_string<char, std::char_traits<char>, std::allocator<char> >*, std::vector<std::basic_string<char, std::char_traits<char>, std::allocator<char> >, std::allocator<std::basic_string<char, std::char_traits<char>, std::allocator<char> > > > >, __gnu_cxx::__normal_iterator<std::basic_string<char, std::char_traits<char>, std::allocator<char> >*, std::vector<std::basic_string<char, std::char_traits<char>, std::allocator<char> >, std::allocator<std::basic_string<char, std::char_traits<char>, std::allocator<char> > > > > >
FUNC 10fe9 25 0 std::_Destroy<__gnu_cxx::__normal_iterator<std::basic_string<char, std::char_traits<char>, std::allocator<char> >*, std::vector<std::basic_string<char, std::char_traits<char>, std::allocator<char> >, std::allocator<std::basic_string<char, std::char_traits<char>, std::allocator<char> > > > > >
FUNC 1100e e 0 std::__miter_base<std::basic_string<char, std::char_traits<char>, std::allocator<char> >*, false>::__b
FUNC 1101c 58 0 std::__copy_move_a2<false, std::basic_string<char, std::char_traits<char>, std::allocator<char> >*, std::basic_string<char, std::char_traits<char>, std::allocator<char> >*>
FUNC 11074 2d 0 std::uninitialized_copy<std::basic_string<char, std::char_traits<char>, std::allocator<char> >*, std::basic_string<char, std::char_traits<char>, std::allocator<char> >*>
FUNC 110a2 e 0 __gnu_cxx::__normal_iterator<short unsigned int*, std::vector<short unsigned int, std::allocator<short unsigned int> > >::base
FUNC 110b0 46 0 std::copy_backward<short unsigned int*, short unsigned int*>
FUNC 110f6 11 0 __gnu_cxx::__normal_iterator<short unsigned int*, std::vector<short unsigned int, std::allocator<short unsigned int> > >::operator*
FUNC 11108 ca 0 std::vector<short unsigned int, std::allocator<short unsigned int> >::_M_check_len
FUNC 111d2 25 0 std::vector<short unsigned int, std::allocator<short unsigned int> >::begin
FUNC 111f7 45 0 __gnu_cxx::operator-<short unsigned int*, std::vector<short unsigned int, std::allocator<short unsigned int> > >
FUNC 1123c 38 0 std::_Vector_base<short unsigned int, std::allocator<short unsigned int> >::_M_allocate
FUNC 11274 3b 0 std::__uninitialized_move_a<short unsigned int*, short unsigned int*, std::allocator<short unsigned int> >
FUNC 112b0 e 0 __gnu_cxx::new_allocator<short unsigned int>::destroy
FUNC 112be 1c 0 __gnu_cxx::__normal_iterator<short unsigned int*, std::vector<short unsigned int, std::allocator<short unsigned int> > >::__normal_iterator
FUNC 112da 46 0 std::copy_backward<std::basic_string<char, std::char_traits<char>, std::allocator<char> >*, std::basic_string<char, std::char_traits<char>, std::allocator<char> >*>
FUNC 11320 11 0 __gnu_cxx::__normal_iterator<std::basic_string<char, std::char_traits<char>, std::allocator<char> >*, std::vector<std::basic_string<char, std::char_traits<char>, std::allocator<char> >, std::allocator<std::basic_string<char, std::char_traits<char>, std::allocator<char> > > > >::operator*
FUNC 11332 ca 0 std::vector<std::basic_string<char, std::char_traits<char>, std::allocator<char> >, std::allocator<std::basic_string<char, std::char_traits<char>, std::allocator<char> > > >::_M_check_len
FUNC 113fc 46 0 __gnu_cxx::operator-<std::basic_string<char, std::char_traits<char>, std::allocator<char> >*, std::vector<std::basic_string<char, std::char_traits<char>, std::allocator<char> >, std::allocator<std::basic_string<char, std::char_traits<char>, std::allocator<char> > > > >
FUNC 11442 3b 0 std::__uninitialized_move_a<std::basic_string<char, std::char_traits<char>, std::allocator<char> >*, std::basic_string<char, std::char_traits<char>, std::allocator<char> >*, std::allocator<std::basic_string<char, std::char_traits<char>, std::allocator<char> > > >
FUNC 1147e 1e 0 __gnu_cxx::new_allocator<std::basic_string<char, std::char_traits<char>, std::allocator<char> > >::destroy
FUNC 1149c 1c 0 __gnu_cxx::__normal_iterator<const short unsigned int*, std::vector<short unsigned int, std::allocator<short unsigned int> > >::__normal_iterator
FUNC 114b8 e 0 __gnu_cxx::__normal_iterator<const short unsigned int*, std::vector<short unsigned int, std::allocator<short unsigned int> > >::base
FUNC 114c6 12 0 std::_Rb_tree<std::basic_string<char, std::char_traits<char>, std::allocator<char> >, std::pair<const std::basic_string<char, std::char_traits<char>, std::allocator<char> >, std::basic_string<char, std::char_traits<char>, std::allocator<char> > >, std::_Select1st<std::pair<const std::basic_string<char, std::char_traits<char>, std::allocator<char> >, std::basic_string<char, std::char_traits<char>, std::allocator<char> > > >, std::less<std::basic_string<char, std::char_traits<char>, std::allocator<char> > >, std::allocator<std::pair<const std::basic_string<char, std::char_traits<char>, std::allocator<char> >, std::basic_string<char, std::char_traits<char>, std::allocator<char> > > > >::_M_end
FUNC 114d8 12 0 std::_Rb_tree<std::basic_string<char, std::char_traits<char>, std::allocator<char> >, std::pair<const std::basic_string<char, std::char_traits<char>, std::allocator<char> >, std::basic_string<char, std::char_traits<char>, std::allocator<char> > >, std::_Select1st<std::pair<const std::basic_string<char, std::char_traits<char>, std::allocator<char> >, std::basic_string<char, std::char_traits<char>, std::allocator<char> > > >, std::less<std::basic_string<char, std::char_traits<char>, std::allocator<char> > >, std::allocator<std::pair<const std::basic_string<char, std::char_traits<char>, std::allocator<char> >, std::basic_string<char, std::char_traits<char>, std::allocator<char> > > > >::_M_leftmost
FUNC 114ea 12 0 std::_Rb_tree<std::basic_string<char, std::char_traits<char>, std::allocator<char> >, std::pair<const std::basic_string<char, std::char_traits<char>, std::allocator<char> >, std::basic_string<char, std::char_traits<char>, std::allocator<char> > >, std::_Select1st<std::pair<const std::basic_string<char, std::char_traits<char>, std::allocator<char> >, std::basic_string<char, std::char_traits<char>, std::allocator<char> > > >, std::less<std::basic_string<char, std::char_traits<char>, std::allocator<char> > >, std::allocator<std::pair<const std::basic_string<char, std::char_traits<char>, std::allocator<char> >, std::basic_string<char, std::char_traits<char>, std::allocator<char> > > > >::_M_root
FUNC 114fc 12 0 std::_Rb_tree<std::basic_string<char, std::char_traits<char>, std::allocator<char> >, std::pair<const std::basic_string<char, std::char_traits<char>, std::allocator<char> >, std::basic_string<char, std::char_traits<char>, std::allocator<char> > >, std::_Select1st<std::pair<const std::basic_string<char, std::char_traits<char>, std::allocator<char> >, std::basic_string<char, std::char_traits<char>, std::allocator<char> > > >, std::less<std::basic_string<char, std::char_traits<char>, std::allocator<char> > >, std::allocator<std::pair<const std::basic_string<char, std::char_traits<char>, std::allocator<char> >, std::basic_string<char, std::char_traits<char>, std::allocator<char> > > > >::_M_rightmost
FUNC 1150e 53 0 std::_Rb_tree<std::basic_string<char, std::char_traits<char>, std::allocator<char> >, std::pair<const std::basic_string<char, std::char_traits<char>, std::allocator<char> >, std::basic_string<char, std::char_traits<char>, std::allocator<char> > >, std::_Select1st<std::pair<const std::basic_string<char, std::char_traits<char>, std::allocator<char> >, std::basic_string<char, std::char_traits<char>, std::allocator<char> > > >, std::less<std::basic_string<char, std::char_traits<char>, std::allocator<char> > >, std::allocator<std::pair<const std::basic_string<char, std::char_traits<char>, std::allocator<char> >, std::basic_string<char, std::char_traits<char>, std::allocator<char> > > > >::lower_bound
FUNC 11562 a 0 std::_Rb_tree<std::basic_string<char, std::char_traits<char>, std::allocator<char> >, std::pair<const std::basic_string<char, std::char_traits<char>, std::allocator<char> >, std::basic_string<char, std::char_traits<char>, std::allocator<char> > >, std::_Select1st<std::pair<const std::basic_string<char, std::char_traits<char>, std::allocator<char> >, std::basic_string<char, std::char_traits<char>, std::allocator<char> > > >, std::less<std::basic_string<char, std::char_traits<char>, std::allocator<char> > >, std::allocator<std::pair<const std::basic_string<char, std::char_traits<char>, std::allocator<char> >, std::basic_string<char, std::char_traits<char>, std::allocator<char> > > > >::key_comp
FUNC 1156c 28 0 std::operator< <char, std::char_traits<char>, std::allocator<char> >
FUNC 11594 4c0 0 std::_Rb_tree<std::basic_string<char, std::char_traits<char>, std::allocator<char> >, std::pair<const std::basic_string<char, std::char_traits<char>, std::allocator<char> >, std::basic_string<char, std::char_traits<char>, std::allocator<char> > >, std::_Select1st<std::pair<const std::basic_string<char, std::char_traits<char>, std::allocator<char> >, std::basic_string<char, std::char_traits<char>, std::allocator<char> > > >, std::less<std::basic_string<char, std::char_traits<char>, std::allocator<char> > >, std::allocator<std::pair<const std::basic_string<char, std::char_traits<char>, std::allocator<char> >, std::basic_string<char, std::char_traits<char>, std::allocator<char> > > > >::_M_insert_unique_
FUNC 11a54 92 0 std::_Rb_tree<std::basic_string<char, std::char_traits<char>, std::allocator<char> >, std::pair<const std::basic_string<char, std::char_traits<char>, std::allocator<char> >, std::basic_string<char, std::char_traits<char>, std::allocator<char> > >, std::_Select1st<std::pair<const std::basic_string<char, std::char_traits<char>, std::allocator<char> >, std::basic_string<char, std::char_traits<char>, std::allocator<char> > > >, std::less<std::basic_string<char, std::char_traits<char>, std::allocator<char> > >, std::allocator<std::pair<const std::basic_string<char, std::char_traits<char>, std::allocator<char> >, std::basic_string<char, std::char_traits<char>, std::allocator<char> > > > >::_M_lower_bound
FUNC 11ae6 2c 0 std::_Rb_tree<std::basic_string<char, std::char_traits<char>, std::allocator<char> >, std::pair<const std::basic_string<char, std::char_traits<char>, std::allocator<char> >, std::basic_string<char, std::char_traits<char>, std::allocator<char> > >, std::_Select1st<std::pair<const std::basic_string<char, std::char_traits<char>, std::allocator<char> >, std::basic_string<char, std::char_traits<char>, std::allocator<char> > > >, std::less<std::basic_string<char, std::char_traits<char>, std::allocator<char> > >, std::allocator<std::pair<const std::basic_string<char, std::char_traits<char>, std::allocator<char> >, std::basic_string<char, std::char_traits<char>, std::allocator<char> > > > >::_S_key
FUNC 11b12 19 0 std::_Rb_tree_iterator<std::pair<const std::basic_string<char, std::char_traits<char>, std::allocator<char> >, std::basic_string<char, std::char_traits<char>, std::allocator<char> > > >::_Rb_tree_iterator
FUNC 11b2b 2d 0 std::uninitialized_copy<__gnu_cxx::__normal_iterator<const std::basic_string<char, std::char_traits<char>, std::allocator<char> >*, std::vector<std::basic_string<char, std::char_traits<char>, std::allocator<char> >, std::allocator<std::basic_string<char, std::char_traits<char>, std::allocator<char> > > > >, std::basic_string<char, std::char_traits<char>, std::allocator<char> >*>
FUNC 11b58 1a 0 std::allocator<std::_Rb_tree_node<std::pair<const std::basic_string<char, std::char_traits<char>, std::allocator<char> >, std::basic_string<char, std::char_traits<char>, std::allocator<char> > > > >::allocator
FUNC 11b72 41 0 std::_Rb_tree<std::basic_string<char, std::char_traits<char>, std::allocator<char> >, std::pair<const std::basic_string<char, std::char_traits<char>, std::allocator<char> >, std::basic_string<char, std::char_traits<char>, std::allocator<char> > >, std::_Select1st<std::pair<const std::basic_string<char, std::char_traits<char>, std::allocator<char> >, std::basic_string<char, std::char_traits<char>, std::allocator<char> > > >, std::less<std::basic_string<char, std::char_traits<char>, std::allocator<char> > >, std::allocator<std::pair<const std::basic_string<char, std::char_traits<char>, std::allocator<char> >, std::basic_string<char, std::char_traits<char>, std::allocator<char> > > > >::_Rb_tree_impl<std::less<std::basic_string<char, std::char_traits<char>, std::allocator<char> > >, false>::_M_initialize
FUNC 11bb4 3b 0 std::_Rb_tree<std::basic_string<char, std::char_traits<char>, std::allocator<char> >, std::pair<const std::basic_string<char, std::char_traits<char>, std::allocator<char> >, std::basic_string<char, std::char_traits<char>, std::allocator<char> > >, std::_Select1st<std::pair<const std::basic_string<char, std::char_traits<char>, std::allocator<char> >, std::basic_string<char, std::char_traits<char>, std::allocator<char> > > >, std::less<std::basic_string<char, std::char_traits<char>, std::allocator<char> > >, std::allocator<std::pair<const std::basic_string<char, std::char_traits<char>, std::allocator<char> >, std::basic_string<char, std::char_traits<char>, std::allocator<char> > > > >::get_allocator
FUNC 11bf0 1a 0 std::allocator<std::pair<const std::basic_string<char, std::char_traits<char>, std::allocator<char> >, std::basic_string<char, std::char_traits<char>, std::allocator<char> > > >::~allocator
FUNC 11c0a 1e 0 __gnu_cxx::new_allocator<std::pair<const std::basic_string<char, std::char_traits<char>, std::allocator<char> >, std::basic_string<char, std::char_traits<char>, std::allocator<char> > > >::destroy
FUNC 11c28 2a 0 std::_Rb_tree<std::basic_string<char, std::char_traits<char>, std::allocator<char> >, std::pair<const std::basic_string<char, std::char_traits<char>, std::allocator<char> >, std::basic_string<char, std::char_traits<char>, std::allocator<char> > >, std::_Select1st<std::pair<const std::basic_string<char, std::char_traits<char>, std::allocator<char> >, std::basic_string<char, std::char_traits<char>, std::allocator<char> > > >, std::less<std::basic_string<char, std::char_traits<char>, std::allocator<char> > >, std::allocator<std::pair<const std::basic_string<char, std::char_traits<char>, std::allocator<char> >, std::basic_string<char, std::char_traits<char>, std::allocator<char> > > > >::_M_put_node
FUNC 11c52 1a 0 std::allocator<short unsigned int>::allocator
FUNC 11c6c a 0 __gnu_cxx::new_allocator<short unsigned int>::~new_allocator
FUNC 11c76 22 0 __gnu_cxx::new_allocator<short unsigned int>::deallocate
FUNC 11c98 e 0 std::_Destroy_aux<true>::__destroy<short unsigned int*>
FUNC 11ca6 1a 0 std::allocator<std::basic_string<char, std::char_traits<char>, std::allocator<char> > >::allocator
FUNC 11cc0 a 0 __gnu_cxx::new_allocator<std::basic_string<char, std::char_traits<char>, std::allocator<char> > >::~new_allocator
FUNC 11cca 34 0 std::_Destroy_aux<false>::__destroy<std::basic_string<char, std::char_traits<char>, std::allocator<char> >*>
FUNC 11cfe 4b 0 __gnu_cxx::new_allocator<std::basic_string<char, std::char_traits<char>, std::allocator<char> > >::allocate
FUNC 11d49 1d 0 std::__niter_base<__gnu_cxx::__normal_iterator<const std::basic_string<char, std::char_traits<char>, std::allocator<char> >*, std::vector<std::basic_string<char, std::char_traits<char>, std::allocator<char> >, std::allocator<std::basic_string<char, std::char_traits<char>, std::allocator<char> > > > >, true>::__b
FUNC 11d66 1d 0 std::__niter_base<__gnu_cxx::__normal_iterator<std::basic_string<char, std::char_traits<char>, std::allocator<char> >*, std::vector<std::basic_string<char, std::char_traits<char>, std::allocator<char> >, std::allocator<std::basic_string<char, std::char_traits<char>, std::allocator<char> > > > >, true>::__b
FUNC 11d83 31 0 std::__copy_move_a<false, const std::basic_string<char, std::char_traits<char>, std::allocator<char> >*, std::basic_string<char, std::char_traits<char>, std::allocator<char> >*>
FUNC 11db4 4b 0 std::_Destroy_aux<false>::__destroy<__gnu_cxx::__normal_iterator<std::basic_string<char, std::char_traits<char>, std::allocator<char> >*, std::vector<std::basic_string<char, std::char_traits<char>, std::allocator<char> >, std::allocator<std::basic_string<char, std::char_traits<char>, std::allocator<char> > > > > >
FUNC 11dff e 0 std::__niter_base<std::basic_string<char, std::char_traits<char>, std::allocator<char> >*, false>::__b
FUNC 11e0d 31 0 std::__copy_move_a<false, std::basic_string<char, std::char_traits<char>, std::allocator<char> >*, std::basic_string<char, std::char_traits<char>, std::allocator<char> >*>
FUNC 11e3e 92 0 std::__uninitialized_copy<false>::uninitialized_copy<std::basic_string<char, std::char_traits<char>, std::allocator<char> >*, std::basic_string<char, std::char_traits<char>, std::allocator<char> >*>
FUNC 11ed0 e 0 std::__miter_base<short unsigned int*, false>::__b
FUNC 11ede 58 0 std::__copy_move_backward_a2<false, short unsigned int*, short unsigned int*>
FUNC 11f36 22 0 std::vector<short unsigned int, std::allocator<short unsigned int> >::max_size
FUNC 11f58 2b 0 std::max<size_t>
FUNC 11f84 4a 0 __gnu_cxx::new_allocator<short unsigned int>::allocate
FUNC 11fce 31 0 std::__uninitialized_copy_a<short unsigned int*, short unsigned int*, short unsigned int>
FUNC 11fff 58 0 std::__copy_move_backward_a2<false, std::basic_string<char, std::char_traits<char>, std::allocator<char> >*, std::basic_string<char, std::char_traits<char>, std::allocator<char> >*>
FUNC 12058 22 0 std::vector<std::basic_string<char, std::char_traits<char>, std::allocator<char> >, std::allocator<std::basic_string<char, std::char_traits<char>, std::allocator<char> > > >::max_size
FUNC 1207a 12 0 std::_Select1st<std::pair<const std::basic_string<char, std::char_traits<char>, std::allocator<char> >, std::basic_string<char, std::char_traits<char>, std::allocator<char> > > >::operator()
FUNC 1208c 12 0 std::_Rb_tree<std::basic_string<char, std::char_traits<char>, std::allocator<char> >, std::pair<const std::basic_string<char, std::char_traits<char>, std::allocator<char> >, std::basic_string<char, std::char_traits<char>, std::allocator<char> > >, std::_Select1st<std::pair<const std::basic_string<char, std::char_traits<char>, std::allocator<char> >, std::basic_string<char, std::char_traits<char>, std::allocator<char> > > >, std::less<std::basic_string<char, std::char_traits<char>, std::allocator<char> > >, std::allocator<std::pair<const std::basic_string<char, std::char_traits<char>, std::allocator<char> >, std::basic_string<char, std::char_traits<char>, std::allocator<char> > > > >::size
FUNC 1209e e3 0 std::_Rb_tree<std::basic_string<char, std::char_traits<char>, std::allocator<char> >, std::pair<const std::basic_string<char, std::char_traits<char>, std::allocator<char> >, std::basic_string<char, std::char_traits<char>, std::allocator<char> > >, std::_Select1st<std::pair<const std::basic_string<char, std::char_traits<char>, std::allocator<char> >, std::basic_string<char, std::char_traits<char>, std::allocator<char> > > >, std::less<std::basic_string<char, std::char_traits<char>, std::allocator<char> > >, std::allocator<std::pair<const std::basic_string<char, std::char_traits<char>, std::allocator<char> >, std::basic_string<char, std::char_traits<char>, std::allocator<char> > > > >::_M_insert_
FUNC 12182 271 0 std::_Rb_tree<std::basic_string<char, std::char_traits<char>, std::allocator<char> >, std::pair<const std::basic_string<char, std::char_traits<char>, std::allocator<char> >, std::basic_string<char, std::char_traits<char>, std::allocator<char> > >, std::_Select1st<std::pair<const std::basic_string<char, std::char_traits<char>, std::allocator<char> >, std::basic_string<char, std::char_traits<char>, std::allocator<char> > > >, std::less<std::basic_string<char, std::char_traits<char>, std::allocator<char> > >, std::allocator<std::pair<const std::basic_string<char, std::char_traits<char>, std::allocator<char> >, std::basic_string<char, std::char_traits<char>, std::allocator<char> > > > >::_M_insert_unique
FUNC 123f4 28 0 std::_Rb_tree_const_iterator<std::pair<const std::basic_string<char, std::char_traits<char>, std::allocator<char> >, std::basic_string<char, std::char_traits<char>, std::allocator<char> > > >::operator--
FUNC 1241c 12 0 std::_Rb_tree<std::basic_string<char, std::char_traits<char>, std::allocator<char> >, std::pair<const std::basic_string<char, std::char_traits<char>, std::allocator<char> >, std::basic_string<char, std::char_traits<char>, std::allocator<char> > >, std::_Select1st<std::pair<const std::basic_string<char, std::char_traits<char>, std::allocator<char> >, std::basic_string<char, std::char_traits<char>, std::allocator<char> > > >, std::less<std::basic_string<char, std::char_traits<char>, std::allocator<char> > >, std::allocator<std::pair<const std::basic_string<char, std::char_traits<char>, std::allocator<char> >, std::basic_string<char, std::char_traits<char>, std::allocator<char> > > > >::_S_right
FUNC 1242e 28 0 std::_Rb_tree_const_iterator<std::pair<const std::basic_string<char, std::char_traits<char>, std::allocator<char> >, std::basic_string<char, std::char_traits<char>, std::allocator<char> > > >::operator++
FUNC 12456 2c 0 std::_Rb_tree<std::basic_string<char, std::char_traits<char>, std::allocator<char> >, std::pair<const std::basic_string<char, std::char_traits<char>, std::allocator<char> >, std::basic_string<char, std::char_traits<char>, std::allocator<char> > >, std::_Select1st<std::pair<const std::basic_string<char, std::char_traits<char>, std::allocator<char> >, std::basic_string<char, std::char_traits<char>, std::allocator<char> > > >, std::less<std::basic_string<char, std::char_traits<char>, std::allocator<char> > >, std::allocator<std::pair<const std::basic_string<char, std::char_traits<char>, std::allocator<char> >, std::basic_string<char, std::char_traits<char>, std::allocator<char> > > > >::_S_key
FUNC 12482 12 0 std::_Rb_tree<std::basic_string<char, std::char_traits<char>, std::allocator<char> >, std::pair<const std::basic_string<char, std::char_traits<char>, std::allocator<char> >, std::basic_string<char, std::char_traits<char>, std::allocator<char> > >, std::_Select1st<std::pair<const std::basic_string<char, std::char_traits<char>, std::allocator<char> >, std::basic_string<char, std::char_traits<char>, std::allocator<char> > > >, std::less<std::basic_string<char, std::char_traits<char>, std::allocator<char> > >, std::allocator<std::pair<const std::basic_string<char, std::char_traits<char>, std::allocator<char> >, std::basic_string<char, std::char_traits<char>, std::allocator<char> > > > >::_S_value
FUNC 12494 ac 0 std::__uninitialized_copy<false>::uninitialized_copy<__gnu_cxx::__normal_iterator<const std::basic_string<char, std::char_traits<char>, std::allocator<char> >*, std::vector<std::basic_string<char, std::char_traits<char>, std::allocator<char> >, std::allocator<std::basic_string<char, std::char_traits<char>, std::allocator<char> > > > >, std::basic_string<char, std::char_traits<char>, std::allocator<char> >*>
FUNC 12540 a 0 __gnu_cxx::new_allocator<std::_Rb_tree_node<std::pair<const std::basic_string<char, std::char_traits<char>, std::allocator<char> >, std::basic_string<char, std::char_traits<char>, std::allocator<char> > > > >::new_allocator
FUNC 1254a e 0 std::_Rb_tree<std::basic_string<char, std::char_traits<char>, std::allocator<char> >, std::pair<const std::basic_string<char, std::char_traits<char>, std::allocator<char> >, std::basic_string<char, std::char_traits<char>, std::allocator<char> > >, std::_Select1st<std::pair<const std::basic_string<char, std::char_traits<char>, std::allocator<char> >, std::basic_string<char, std::char_traits<char>, std::allocator<char> > > >, std::less<std::basic_string<char, std::char_traits<char>, std::allocator<char> > >, std::allocator<std::pair<const std::basic_string<char, std::char_traits<char>, std::allocator<char> >, std::basic_string<char, std::char_traits<char>, std::allocator<char> > > > >::_M_get_Node_allocator
FUNC 12558 1e 0 std::allocator<std::pair<const std::basic_string<char, std::char_traits<char>, std::allocator<char> >, std::basic_string<char, std::char_traits<char>, std::allocator<char> > > >::allocator<std::_Rb_tree_node<std::pair<const std::basic_string<char, std::char_traits<char>, std::allocator<char> >, std::basic_string<char, std::char_traits<char>, std::allocator<char> > > > >
FUNC 12576 a 0 __gnu_cxx::new_allocator<std::pair<const std::basic_string<char, std::char_traits<char>, std::allocator<char> >, std::basic_string<char, std::char_traits<char>, std::allocator<char> > > >::~new_allocator
FUNC 12580 22 0 __gnu_cxx::new_allocator<std::_Rb_tree_node<std::pair<const std::basic_string<char, std::char_traits<char>, std::allocator<char> >, std::basic_string<char, std::char_traits<char>, std::allocator<char> > > > >::deallocate
FUNC 125a2 a 0 __gnu_cxx::new_allocator<short unsigned int>::new_allocator
FUNC 125ac a 0 __gnu_cxx::new_allocator<std::basic_string<char, std::char_traits<char>, std::allocator<char> > >::new_allocator
FUNC 125b6 1a 0 std::_Destroy<std::basic_string<char, std::char_traits<char>, std::allocator<char> > >
FUNC 125d0 14 0 __gnu_cxx::new_allocator<std::basic_string<char, std::char_traits<char>, std::allocator<char> > >::max_size
FUNC 125e4 63 0 std::__copy_move<false, false, std::random_access_iterator_tag>::__copy_m<const std::basic_string<char, std::char_traits<char>, std::allocator<char> >*, std::basic_string<char, std::char_traits<char>, std::allocator<char> >*>
FUNC 12647 3c 0 __gnu_cxx::operator!=<std::basic_string<char, std::char_traits<char>, std::allocator<char> >*, std::vector<std::basic_string<char, std::char_traits<char>, std::allocator<char> >, std::allocator<std::basic_string<char, std::char_traits<char>, std::allocator<char> > > > >
FUNC 12684 20 0 __gnu_cxx::__normal_iterator<std::basic_string<char, std::char_traits<char>, std::allocator<char> >*, std::vector<std::basic_string<char, std::char_traits<char>, std::allocator<char> >, std::allocator<std::basic_string<char, std::char_traits<char>, std::allocator<char> > > > >::operator++
FUNC 126a4 63 0 std::__copy_move<false, false, std::random_access_iterator_tag>::__copy_m<std::basic_string<char, std::char_traits<char>, std::allocator<char> >*, std::basic_string<char, std::char_traits<char>, std::allocator<char> >*>
FUNC 12707 73 0 std::_Construct<std::basic_string<char, std::char_traits<char>, std::allocator<char> >, std::basic_string<char, std::char_traits<char>, std::allocator<char> > >
FUNC 1277a e 0 std::__niter_base<short unsigned int*, false>::__b
FUNC 12788 31 0 std::__copy_move_backward_a<false, short unsigned int*, short unsigned int*>
FUNC 127ba e 0 std::_Vector_base<short unsigned int, std::allocator<short unsigned int> >::_M_get_Tp_allocator
FUNC 127c8 14 0 __gnu_cxx::new_allocator<short unsigned int>::max_size
FUNC 127dc 2d 0 std::uninitialized_copy<short unsigned int*, short unsigned int*>
FUNC 12809 31 0 std::__copy_move_backward_a<false, std::basic_string<char, std::char_traits<char>, std::allocator<char> >*, std::basic_string<char, std::char_traits<char>, std::allocator<char> >*>
FUNC 1283a bd 0 std::_Rb_tree<std::basic_string<char, std::char_traits<char>, std::allocator<char> >, std::pair<const std::basic_string<char, std::char_traits<char>, std::allocator<char> >, std::basic_string<char, std::char_traits<char>, std::allocator<char> > >, std::_Select1st<std::pair<const std::basic_string<char, std::char_traits<char>, std::allocator<char> >, std::basic_string<char, std::char_traits<char>, std::allocator<char> > > >, std::less<std::basic_string<char, std::char_traits<char>, std::allocator<char> > >, std::allocator<std::pair<const std::basic_string<char, std::char_traits<char>, std::allocator<char> >, std::basic_string<char, std::char_traits<char>, std::allocator<char> > > > >::_M_create_node
FUNC 128f8 2c 0 std::_Rb_tree<std::basic_string<char, std::char_traits<char>, std::allocator<char> >, std::pair<const std::basic_string<char, std::char_traits<char>, std::allocator<char> >, std::basic_string<char, std::char_traits<char>, std::allocator<char> > >, std::_Select1st<std::pair<const std::basic_string<char, std::char_traits<char>, std::allocator<char> >, std::basic_string<char, std::char_traits<char>, std::allocator<char> > > >, std::less<std::basic_string<char, std::char_traits<char>, std::allocator<char> > >, std::allocator<std::pair<const std::basic_string<char, std::char_traits<char>, std::allocator<char> >, std::basic_string<char, std::char_traits<char>, std::allocator<char> > > > >::begin
FUNC 12924 2e 0 std::pair<std::_Rb_tree_iterator<std::pair<const std::basic_string<char, std::char_traits<char>, std::allocator<char> >, std::basic_string<char, std::char_traits<char>, std::allocator<char> > > >, bool>::pair
FUNC 12952 28 0 std::_Rb_tree_iterator<std::pair<const std::basic_string<char, std::char_traits<char>, std::allocator<char> >, std::basic_string<char, std::char_traits<char>, std::allocator<char> > > >::operator--
FUNC 1297a 12 0 std::_Rb_tree<std::basic_string<char, std::char_traits<char>, std::allocator<char> >, std::pair<const std::basic_string<char, std::char_traits<char>, std::allocator<char> >, std::basic_string<char, std::char_traits<char>, std::allocator<char> > >, std::_Select1st<std::pair<const std::basic_string<char, std::char_traits<char>, std::allocator<char> >, std::basic_string<char, std::char_traits<char>, std::allocator<char> > > >, std::less<std::basic_string<char, std::char_traits<char>, std::allocator<char> > >, std::allocator<std::pair<const std::basic_string<char, std::char_traits<char>, std::allocator<char> >, std::basic_string<char, std::char_traits<char>, std::allocator<char> > > > >::_S_value
FUNC 1298c 3c 0 __gnu_cxx::operator!=<const std::basic_string<char, std::char_traits<char>, std::allocator<char> >*, std::vector<std::basic_string<char, std::char_traits<char>, std::allocator<char> >, std::allocator<std::basic_string<char, std::char_traits<char>, std::allocator<char> > > > >
FUNC 129c8 a 0 __gnu_cxx::new_allocator<std::pair<const std::basic_string<char, std::char_traits<char>, std::allocator<char> >, std::basic_string<char, std::char_traits<char>, std::allocator<char> > > >::new_allocator
FUNC 129d2 61 0 std::__copy_move_backward<false, true, std::random_access_iterator_tag>::__copy_move_b<short unsigned int>
FUNC 12a33 2d 0 std::__uninitialized_copy<true>::uninitialized_copy<short unsigned int*, short unsigned int*>
FUNC 12a60 63 0 std::__copy_move_backward<false, false, std::random_access_iterator_tag>::__copy_move_b<std::basic_string<char, std::char_traits<char>, std::allocator<char> >*, std::basic_string<char, std::char_traits<char>, std::allocator<char> >*>
FUNC 12ac4 24 0 std::_Rb_tree<std::basic_string<char, std::char_traits<char>, std::allocator<char> >, std::pair<const std::basic_string<char, std::char_traits<char>, std::allocator<char> >, std::basic_string<char, std::char_traits<char>, std::allocator<char> > >, std::_Select1st<std::pair<const std::basic_string<char, std::char_traits<char>, std::allocator<char> >, std::basic_string<char, std::char_traits<char>, std::allocator<char> > > >, std::less<std::basic_string<char, std::char_traits<char>, std::allocator<char> > >, std::allocator<std::pair<const std::basic_string<char, std::char_traits<char>, std::allocator<char> >, std::basic_string<char, std::char_traits<char>, std::allocator<char> > > > >::_M_get_node
FUNC 12ae8 6b 0 std::pair<const std::basic_string<char, std::char_traits<char>, std::allocator<char> >, std::basic_string<char, std::char_traits<char>, std::allocator<char> > >::pair
FUNC 12b54 77 0 __gnu_cxx::new_allocator<std::pair<const std::basic_string<char, std::char_traits<char>, std::allocator<char> >, std::basic_string<char, std::char_traits<char>, std::allocator<char> > > >::construct
FUNC 12bcb 46 0 std::copy<short unsigned int*, short unsigned int*>
FUNC 12c12 54 0 __gnu_cxx::new_allocator<std::_Rb_tree_node<std::pair<const std::basic_string<char, std::char_traits<char>, std::allocator<char> >, std::basic_string<char, std::char_traits<char>, std::allocator<char> > > > >::allocate
FUNC 12c66 58 0 std::__copy_move_a2<false, short unsigned int*, short unsigned int*>
FUNC 12cbe 14 0 __gnu_cxx::new_allocator<std::_Rb_tree_node<std::pair<const std::basic_string<char, std::char_traits<char>, std::allocator<char> >, std::basic_string<char, std::char_traits<char>, std::allocator<char> > > > >::max_size
FUNC 12cd2 31 0 std::__copy_move_a<false, short unsigned int*, short unsigned int*>
FUNC 12d03 5c 0 std::__copy_move<false, true, std::random_access_iterator_tag>::__copy_m<short unsigned int>
FUNC 12d60 119 0 EncapMysql::EncapMysql
FUNC 12e7a 102 0 EncapMysql::~EncapMysql
FUNC 12f7c 74 0 EncapMysql::GetInstance
FUNC 12ff0 112 0 EncapMysql::Connect
FUNC 13102 31 0 EncapMysql::CloseConnect
FUNC 13134 402 0 EncapMysql::SelectQuery
FUNC 13536 1e3 0 EncapMysql::ModifyQuery
FUNC 1371a 4e 0 EncapMysql::FetchRow
FUNC 13768 c3 0 EncapMysql::GetField
FUNC 1382c 3b 0 EncapMysql::GetField
FUNC 13868 40 0 EncapMysql::FreePreResult
FUNC 138a8 12 0 EncapMysql::GetErrMsg
FUNC 138ba 12 0 EncapMysql::IsConnected
FUNC 138cc 1a 0 EncapMysql::SetConnected
FUNC 138e6 68 0 EncapMysql::SaveParam
FUNC 1394e 107 0 EncapMysql::ReConnect
FUNC 13a56 11 0 EncapMysql::SetUsed
FUNC 13a68 11 0 EncapMysql::SetIdle
FUNC 13a7a 14 0 EncapMysql::IsIdle
FUNC 13a8e 77 0 __static_initialization_and_destruction_0
FUNC 13b05 15 0 _GLOBAL__I_EncapMysql.cpp
FUNC 13b1a 1a 0 Mutex::WriterLock
FUNC 13b34 1a 0 Mutex::WriterUnlock
FUNC 13b4e 12 0 Mutex::SetIsSafe
FUNC 13b60 50 0 Mutex::Mutex
FUNC 13bb0 3f 0 Mutex::~Mutex
FUNC 13bf0 3f 0 Mutex::Lock
FUNC 13c30 3f 0 Mutex::Unlock
FUNC 13c70 2c 0 WriterMutexLock::WriterMutexLock
FUNC 13c9c 1d 0 WriterMutexLock::~WriterMutexLock
FUNC 13cba 1a 0 std::map<std::basic_string<char, std::char_traits<char>, std::allocator<char> >, int, std::less<std::basic_string<char, std::char_traits<char>, std::allocator<char> > >, std::allocator<std::pair<const std::basic_string<char, std::char_traits<char>, std::allocator<char> >, int> > >::~map
FUNC 13cd4 1a 0 std::map<std::basic_string<char, std::char_traits<char>, std::allocator<char> >, int, std::less<std::basic_string<char, std::char_traits<char>, std::allocator<char> > >, std::allocator<std::pair<const std::basic_string<char, std::char_traits<char>, std::allocator<char> >, int> > >::map
FUNC 13cee 1a 0 std::_Rb_tree<std::basic_string<char, std::char_traits<char>, std::allocator<char> >, std::pair<const std::basic_string<char, std::char_traits<char>, std::allocator<char> >, int>, std::_Select1st<std::pair<const std::basic_string<char, std::char_traits<char>, std::allocator<char> >, int> >, std::less<std::basic_string<char, std::char_traits<char>, std::allocator<char> > >, std::allocator<std::pair<const std::basic_string<char, std::char_traits<char>, std::allocator<char> >, int> > >::_Rb_tree_impl<std::less<std::basic_string<char, std::char_traits<char>, std::allocator<char> > >, false>::~_Rb_tree_impl
FUNC 13d08 63 0 std::_Rb_tree<std::basic_string<char, std::char_traits<char>, std::allocator<char> >, std::pair<const std::basic_string<char, std::char_traits<char>, std::allocator<char> >, int>, std::_Select1st<std::pair<const std::basic_string<char, std::char_traits<char>, std::allocator<char> >, int> >, std::less<std::basic_string<char, std::char_traits<char>, std::allocator<char> > >, std::allocator<std::pair<const std::basic_string<char, std::char_traits<char>, std::allocator<char> >, int> > >::~_Rb_tree
FUNC 13d6c 1a 0 std::map<std::basic_string<char, std::char_traits<char>, std::allocator<char> >, int, std::less<std::basic_string<char, std::char_traits<char>, std::allocator<char> > >, std::allocator<std::pair<const std::basic_string<char, std::char_traits<char>, std::allocator<char> >, int> > >::clear
FUNC 13d86 1a 0 std::pair<const std::basic_string<char, std::char_traits<char>, std::allocator<char> >, int>::~pair
FUNC 13da0 118 0 std::map<std::basic_string<char, std::char_traits<char>, std::allocator<char> >, int, std::less<std::basic_string<char, std::char_traits<char>, std::allocator<char> > >, std::allocator<std::pair<const std::basic_string<char, std::char_traits<char>, std::allocator<char> >, int> > >::operator[]
FUNC 13eb8 1a 0 std::_Rb_tree<std::basic_string<char, std::char_traits<char>, std::allocator<char> >, std::pair<const std::basic_string<char, std::char_traits<char>, std::allocator<char> >, int>, std::_Select1st<std::pair<const std::basic_string<char, std::char_traits<char>, std::allocator<char> >, int> >, std::less<std::basic_string<char, std::char_traits<char>, std::allocator<char> > >, std::allocator<std::pair<const std::basic_string<char, std::char_traits<char>, std::allocator<char> >, int> > >::_Rb_tree
FUNC 13ed2 1a 0 std::allocator<std::_Rb_tree_node<std::pair<const std::basic_string<char, std::char_traits<char>, std::allocator<char> >, int> > >::~allocator
FUNC 13eec 69 0 std::_Rb_tree<std::basic_string<char, std::char_traits<char>, std::allocator<char> >, std::pair<const std::basic_string<char, std::char_traits<char>, std::allocator<char> >, int>, std::_Select1st<std::pair<const std::basic_string<char, std::char_traits<char>, std::allocator<char> >, int> >, std::less<std::basic_string<char, std::char_traits<char>, std::allocator<char> > >, std::allocator<std::pair<const std::basic_string<char, std::char_traits<char>, std::allocator<char> >, int> > >::_M_erase
FUNC 13f56 12 0 std::_Rb_tree<std::basic_string<char, std::char_traits<char>, std::allocator<char> >, std::pair<const std::basic_string<char, std::char_traits<char>, std::allocator<char> >, int>, std::_Select1st<std::pair<const std::basic_string<char, std::char_traits<char>, std::allocator<char> >, int> >, std::less<std::basic_string<char, std::char_traits<char>, std::allocator<char> > >, std::allocator<std::pair<const std::basic_string<char, std::char_traits<char>, std::allocator<char> >, int> > >::_M_begin
FUNC 13f68 8d 0 std::_Rb_tree<std::basic_string<char, std::char_traits<char>, std::allocator<char> >, std::pair<const std::basic_string<char, std::char_traits<char>, std::allocator<char> >, int>, std::_Select1st<std::pair<const std::basic_string<char, std::char_traits<char>, std::allocator<char> >, int> >, std::less<std::basic_string<char, std::char_traits<char>, std::allocator<char> > >, std::allocator<std::pair<const std::basic_string<char, std::char_traits<char>, std::allocator<char> >, int> > >::clear
FUNC 13ff6 25 0 std::map<std::basic_string<char, std::char_traits<char>, std::allocator<char> >, int, std::less<std::basic_string<char, std::char_traits<char>, std::allocator<char> > >, std::allocator<std::pair<const std::basic_string<char, std::char_traits<char>, std::allocator<char> >, int> > >::lower_bound
FUNC 1401c 1a 0 std::map<std::basic_string<char, std::char_traits<char>, std::allocator<char> >, int, std::less<std::basic_string<char, std::char_traits<char>, std::allocator<char> > >, std::allocator<std::pair<const std::basic_string<char, std::char_traits<char>, std::allocator<char> >, int> > >::key_comp
FUNC 14036 15 0 std::_Rb_tree_iterator<std::pair<const std::basic_string<char, std::char_traits<char>, std::allocator<char> >, int> >::operator*
FUNC 1404c 1a 0 std::map<std::basic_string<char, std::char_traits<char>, std::allocator<char> >, int, std::less<std::basic_string<char, std::char_traits<char>, std::allocator<char> > >, std::allocator<std::pair<const std::basic_string<char, std::char_traits<char>, std::allocator<char> >, int> > >::end
FUNC 14066 22 0 std::_Rb_tree_iterator<std::pair<const std::basic_string<char, std::char_traits<char>, std::allocator<char> >, int> >::operator==
FUNC 14088 36 0 std::pair<const std::basic_string<char, std::char_traits<char>, std::allocator<char> >, int>::pair
FUNC 140be 40 0 std::map<std::basic_string<char, std::char_traits<char>, std::allocator<char> >, int, std::less<std::basic_string<char, std::char_traits<char>, std::allocator<char> > >, std::allocator<std::pair<const std::basic_string<char, std::char_traits<char>, std::allocator<char> >, int> > >::insert
FUNC 140fe 8c 0 std::_Rb_tree<std::basic_string<char, std::char_traits<char>, std::allocator<char> >, std::pair<const std::basic_string<char, std::char_traits<char>, std::allocator<char> >, int>, std::_Select1st<std::pair<const std::basic_string<char, std::char_traits<char>, std::allocator<char> >, int> >, std::less<std::basic_string<char, std::char_traits<char>, std::allocator<char> > >, std::allocator<std::pair<const std::basic_string<char, std::char_traits<char>, std::allocator<char> >, int> > >::_Rb_tree_impl<std::less<std::basic_string<char, std::char_traits<char>, std::allocator<char> > >, false>::_Rb_tree_impl
FUNC 1418a a 0 __gnu_cxx::new_allocator<std::_Rb_tree_node<std::pair<const std::basic_string<char, std::char_traits<char>, std::allocator<char> >, int> > >::~new_allocator
FUNC 14194 12 0 std::_Rb_tree<std::basic_string<char, std::char_traits<char>, std::allocator<char> >, std::pair<const std::basic_string<char, std::char_traits<char>, std::allocator<char> >, int>, std::_Select1st<std::pair<const std::basic_string<char, std::char_traits<char>, std::allocator<char> >, int> >, std::less<std::basic_string<char, std::char_traits<char>, std::allocator<char> > >, std::allocator<std::pair<const std::basic_string<char, std::char_traits<char>, std::allocator<char> >, int> > >::_S_right
FUNC 141a6 12 0 std::_Rb_tree<std::basic_string<char, std::char_traits<char>, std::allocator<char> >, std::pair<const std::basic_string<char, std::char_traits<char>, std::allocator<char> >, int>, std::_Select1st<std::pair<const std::basic_string<char, std::char_traits<char>, std::allocator<char> >, int> >, std::less<std::basic_string<char, std::char_traits<char>, std::allocator<char> > >, std::allocator<std::pair<const std::basic_string<char, std::char_traits<char>, std::allocator<char> >, int> > >::_S_left
FUNC 141b8 86 0 std::_Rb_tree<std::basic_string<char, std::char_traits<char>, std::allocator<char> >, std::pair<const std::basic_string<char, std::char_traits<char>, std::allocator<char> >, int>, std::_Select1st<std::pair<const std::basic_string<char, std::char_traits<char>, std::allocator<char> >, int> >, std::less<std::basic_string<char, std::char_traits<char>, std::allocator<char> > >, std::allocator<std::pair<const std::basic_string<char, std::char_traits<char>, std::allocator<char> >, int> > >::_M_destroy_node
FUNC 1423e 12 0 std::_Rb_tree<std::basic_string<char, std::char_traits<char>, std::allocator<char> >, std::pair<const std::basic_string<char, std::char_traits<char>, std::allocator<char> >, int>, std::_Select1st<std::pair<const std::basic_string<char, std::char_traits<char>, std::allocator<char> >, int> >, std::less<std::basic_string<char, std::char_traits<char>, std::allocator<char> > >, std::allocator<std::pair<const std::basic_string<char, std::char_traits<char>, std::allocator<char> >, int> > >::_M_end
FUNC 14250 12 0 std::_Rb_tree<std::basic_string<char, std::char_traits<char>, std::allocator<char> >, std::pair<const std::basic_string<char, std::char_traits<char>, std::allocator<char> >, int>, std::_Select1st<std::pair<const std::basic_string<char, std::char_traits<char>, std::allocator<char> >, int> >, std::less<std::basic_string<char, std::char_traits<char>, std::allocator<char> > >, std::allocator<std::pair<const std::basic_string<char, std::char_traits<char>, std::allocator<char> >, int> > >::_M_leftmost
FUNC 14262 12 0 std::_Rb_tree<std::basic_string<char, std::char_traits<char>, std::allocator<char> >, std::pair<const std::basic_string<char, std::char_traits<char>, std::allocator<char> >, int>, std::_Select1st<std::pair<const std::basic_string<char, std::char_traits<char>, std::allocator<char> >, int> >, std::less<std::basic_string<char, std::char_traits<char>, std::allocator<char> > >, std::allocator<std::pair<const std::basic_string<char, std::char_traits<char>, std::allocator<char> >, int> > >::_M_root
FUNC 14274 12 0 std::_Rb_tree<std::basic_string<char, std::char_traits<char>, std::allocator<char> >, std::pair<const std::basic_string<char, std::char_traits<char>, std::allocator<char> >, int>, std::_Select1st<std::pair<const std::basic_string<char, std::char_traits<char>, std::allocator<char> >, int> >, std::less<std::basic_string<char, std::char_traits<char>, std::allocator<char> > >, std::allocator<std::pair<const std::basic_string<char, std::char_traits<char>, std::allocator<char> >, int> > >::_M_rightmost
FUNC 14286 53 0 std::_Rb_tree<std::basic_string<char, std::char_traits<char>, std::allocator<char> >, std::pair<const std::basic_string<char, std::char_traits<char>, std::allocator<char> >, int>, std::_Select1st<std::pair<const std::basic_string<char, std::char_traits<char>, std::allocator<char> >, int> >, std::less<std::basic_string<char, std::char_traits<char>, std::allocator<char> > >, std::allocator<std::pair<const std::basic_string<char, std::char_traits<char>, std::allocator<char> >, int> > >::lower_bound
FUNC 142da a 0 std::_Rb_tree<std::basic_string<char, std::char_traits<char>, std::allocator<char> >, std::pair<const std::basic_string<char, std::char_traits<char>, std::allocator<char> >, int>, std::_Select1st<std::pair<const std::basic_string<char, std::char_traits<char>, std::allocator<char> >, int> >, std::less<std::basic_string<char, std::char_traits<char>, std::allocator<char> > >, std::allocator<std::pair<const std::basic_string<char, std::char_traits<char>, std::allocator<char> >, int> > >::key_comp
FUNC 142e4 2c 0 std::_Rb_tree<std::basic_string<char, std::char_traits<char>, std::allocator<char> >, std::pair<const std::basic_string<char, std::char_traits<char>, std::allocator<char> >, int>, std::_Select1st<std::pair<const std::basic_string<char, std::char_traits<char>, std::allocator<char> >, int> >, std::less<std::basic_string<char, std::char_traits<char>, std::allocator<char> > >, std::allocator<std::pair<const std::basic_string<char, std::char_traits<char>, std::allocator<char> >, int> > >::end
FUNC 14310 1c 0 std::_Rb_tree_const_iterator<std::pair<const std::basic_string<char, std::char_traits<char>, std::allocator<char> >, int> >::_Rb_tree_const_iterator
FUNC 1432c 4c0 0 std::_Rb_tree<std::basic_string<char, std::char_traits<char>, std::allocator<char> >, std::pair<const std::basic_string<char, std::char_traits<char>, std::allocator<char> >, int>, std::_Select1st<std::pair<const std::basic_string<char, std::char_traits<char>, std::allocator<char> >, int> >, std::less<std::basic_string<char, std::char_traits<char>, std::allocator<char> > >, std::allocator<std::pair<const std::basic_string<char, std::char_traits<char>, std::allocator<char> >, int> > >::_M_insert_unique_
FUNC 147ec 1a 0 std::allocator<std::_Rb_tree_node<std::pair<const std::basic_string<char, std::char_traits<char>, std::allocator<char> >, int> > >::allocator
FUNC 14806 41 0 std::_Rb_tree<std::basic_string<char, std::char_traits<char>, std::allocator<char> >, std::pair<const std::basic_string<char, std::char_traits<char>, std::allocator<char> >, int>, std::_Select1st<std::pair<const std::basic_string<char, std::char_traits<char>, std::allocator<char> >, int> >, std::less<std::basic_string<char, std::char_traits<char>, std::allocator<char> > >, std::allocator<std::pair<const std::basic_string<char, std::char_traits<char>, std::allocator<char> >, int> > >::_Rb_tree_impl<std::less<std::basic_string<char, std::char_traits<char>, std::allocator<char> > >, false>::_M_initialize
FUNC 14848 3b 0 std::_Rb_tree<std::basic_string<char, std::char_traits<char>, std::allocator<char> >, std::pair<const std::basic_string<char, std::char_traits<char>, std::allocator<char> >, int>, std::_Select1st<std::pair<const std::basic_string<char, std::char_traits<char>, std::allocator<char> >, int> >, std::less<std::basic_string<char, std::char_traits<char>, std::allocator<char> > >, std::allocator<std::pair<const std::basic_string<char, std::char_traits<char>, std::allocator<char> >, int> > >::get_allocator
FUNC 14884 1a 0 std::allocator<std::pair<const std::basic_string<char, std::char_traits<char>, std::allocator<char> >, int> >::~allocator
FUNC 1489e 1e 0 __gnu_cxx::new_allocator<std::pair<const std::basic_string<char, std::char_traits<char>, std::allocator<char> >, int> >::destroy
FUNC 148bc 2a 0 std::_Rb_tree<std::basic_string<char, std::char_traits<char>, std::allocator<char> >, std::pair<const std::basic_string<char, std::char_traits<char>, std::allocator<char> >, int>, std::_Select1st<std::pair<const std::basic_string<char, std::char_traits<char>, std::allocator<char> >, int> >, std::less<std::basic_string<char, std::char_traits<char>, std::allocator<char> > >, std::allocator<std::pair<const std::basic_string<char, std::char_traits<char>, std::allocator<char> >, int> > >::_M_put_node
FUNC 148e6 92 0 std::_Rb_tree<std::basic_string<char, std::char_traits<char>, std::allocator<char> >, std::pair<const std::basic_string<char, std::char_traits<char>, std::allocator<char> >, int>, std::_Select1st<std::pair<const std::basic_string<char, std::char_traits<char>, std::allocator<char> >, int> >, std::less<std::basic_string<char, std::char_traits<char>, std::allocator<char> > >, std::allocator<std::pair<const std::basic_string<char, std::char_traits<char>, std::allocator<char> >, int> > >::_M_lower_bound
FUNC 14978 19 0 std::_Rb_tree_iterator<std::pair<const std::basic_string<char, std::char_traits<char>, std::allocator<char> >, int> >::_Rb_tree_iterator
FUNC 14991 2c 0 std::_Rb_tree<std::basic_string<char, std::char_traits<char>, std::allocator<char> >, std::pair<const std::basic_string<char, std::char_traits<char>, std::allocator<char> >, int>, std::_Select1st<std::pair<const std::basic_string<char, std::char_traits<char>, std::allocator<char> >, int> >, std::less<std::basic_string<char, std::char_traits<char>, std::allocator<char> > >, std::allocator<std::pair<const std::basic_string<char, std::char_traits<char>, std::allocator<char> >, int> > >::_S_key
FUNC 149be 12 0 std::_Select1st<std::pair<const std::basic_string<char, std::char_traits<char>, std::allocator<char> >, int> >::operator()
FUNC 149d0 12 0 std::_Rb_tree<std::basic_string<char, std::char_traits<char>, std::allocator<char> >, std::pair<const std::basic_string<char, std::char_traits<char>, std::allocator<char> >, int>, std::_Select1st<std::pair<const std::basic_string<char, std::char_traits<char>, std::allocator<char> >, int> >, std::less<std::basic_string<char, std::char_traits<char>, std::allocator<char> > >, std::allocator<std::pair<const std::basic_string<char, std::char_traits<char>, std::allocator<char> >, int> > >::size
FUNC 149e2 e3 0 std::_Rb_tree<std::basic_string<char, std::char_traits<char>, std::allocator<char> >, std::pair<const std::basic_string<char, std::char_traits<char>, std::allocator<char> >, int>, std::_Select1st<std::pair<const std::basic_string<char, std::char_traits<char>, std::allocator<char> >, int> >, std::less<std::basic_string<char, std::char_traits<char>, std::allocator<char> > >, std::allocator<std::pair<const std::basic_string<char, std::char_traits<char>, std::allocator<char> >, int> > >::_M_insert_
FUNC 14ac6 271 0 std::_Rb_tree<std::basic_string<char, std::char_traits<char>, std::allocator<char> >, std::pair<const std::basic_string<char, std::char_traits<char>, std::allocator<char> >, int>, std::_Select1st<std::pair<const std::basic_string<char, std::char_traits<char>, std::allocator<char> >, int> >, std::less<std::basic_string<char, std::char_traits<char>, std::allocator<char> > >, std::allocator<std::pair<const std::basic_string<char, std::char_traits<char>, std::allocator<char> >, int> > >::_M_insert_unique
FUNC 14d38 28 0 std::_Rb_tree_const_iterator<std::pair<const std::basic_string<char, std::char_traits<char>, std::allocator<char> >, int> >::operator--
FUNC 14d60 12 0 std::_Rb_tree<std::basic_string<char, std::char_traits<char>, std::allocator<char> >, std::pair<const std::basic_string<char, std::char_traits<char>, std::allocator<char> >, int>, std::_Select1st<std::pair<const std::basic_string<char, std::char_traits<char>, std::allocator<char> >, int> >, std::less<std::basic_string<char, std::char_traits<char>, std::allocator<char> > >, std::allocator<std::pair<const std::basic_string<char, std::char_traits<char>, std::allocator<char> >, int> > >::_S_right
FUNC 14d72 28 0 std::_Rb_tree_const_iterator<std::pair<const std::basic_string<char, std::char_traits<char>, std::allocator<char> >, int> >::operator++
FUNC 14d9a a 0 __gnu_cxx::new_allocator<std::_Rb_tree_node<std::pair<const std::basic_string<char, std::char_traits<char>, std::allocator<char> >, int> > >::new_allocator
FUNC 14da4 e 0 std::_Rb_tree<std::basic_string<char, std::char_traits<char>, std::allocator<char> >, std::pair<const std::basic_string<char, std::char_traits<char>, std::allocator<char> >, int>, std::_Select1st<std::pair<const std::basic_string<char, std::char_traits<char>, std::allocator<char> >, int> >, std::less<std::basic_string<char, std::char_traits<char>, std::allocator<char> > >, std::allocator<std::pair<const std::basic_string<char, std::char_traits<char>, std::allocator<char> >, int> > >::_M_get_Node_allocator
FUNC 14db2 1e 0 std::allocator<std::pair<const std::basic_string<char, std::char_traits<char>, std::allocator<char> >, int> >::allocator<std::_Rb_tree_node<std::pair<const std::basic_string<char, std::char_traits<char>, std::allocator<char> >, int> > >
FUNC 14dd0 a 0 __gnu_cxx::new_allocator<std::pair<const std::basic_string<char, std::char_traits<char>, std::allocator<char> >, int> >::~new_allocator
FUNC 14dda 22 0 __gnu_cxx::new_allocator<std::_Rb_tree_node<std::pair<const std::basic_string<char, std::char_traits<char>, std::allocator<char> >, int> > >::deallocate
FUNC 14dfc 2c 0 std::_Rb_tree<std::basic_string<char, std::char_traits<char>, std::allocator<char> >, std::pair<const std::basic_string<char, std::char_traits<char>, std::allocator<char> >, int>, std::_Select1st<std::pair<const std::basic_string<char, std::char_traits<char>, std::allocator<char> >, int> >, std::less<std::basic_string<char, std::char_traits<char>, std::allocator<char> > >, std::allocator<std::pair<const std::basic_string<char, std::char_traits<char>, std::allocator<char> >, int> > >::_S_key
FUNC 14e28 12 0 std::_Rb_tree<std::basic_string<char, std::char_traits<char>, std::allocator<char> >, std::pair<const std::basic_string<char, std::char_traits<char>, std::allocator<char> >, int>, std::_Select1st<std::pair<const std::basic_string<char, std::char_traits<char>, std::allocator<char> >, int> >, std::less<std::basic_string<char, std::char_traits<char>, std::allocator<char> > >, std::allocator<std::pair<const std::basic_string<char, std::char_traits<char>, std::allocator<char> >, int> > >::_S_value
FUNC 14e3a bd 0 std::_Rb_tree<std::basic_string<char, std::char_traits<char>, std::allocator<char> >, std::pair<const std::basic_string<char, std::char_traits<char>, std::allocator<char> >, int>, std::_Select1st<std::pair<const std::basic_string<char, std::char_traits<char>, std::allocator<char> >, int> >, std::less<std::basic_string<char, std::char_traits<char>, std::allocator<char> > >, std::allocator<std::pair<const std::basic_string<char, std::char_traits<char>, std::allocator<char> >, int> > >::_M_create_node
FUNC 14ef8 2c 0 std::_Rb_tree<std::basic_string<char, std::char_traits<char>, std::allocator<char> >, std::pair<const std::basic_string<char, std::char_traits<char>, std::allocator<char> >, int>, std::_Select1st<std::pair<const std::basic_string<char, std::char_traits<char>, std::allocator<char> >, int> >, std::less<std::basic_string<char, std::char_traits<char>, std::allocator<char> > >, std::allocator<std::pair<const std::basic_string<char, std::char_traits<char>, std::allocator<char> >, int> > >::begin
FUNC 14f24 2e 0 std::pair<std::_Rb_tree_iterator<std::pair<const std::basic_string<char, std::char_traits<char>, std::allocator<char> >, int> >, bool>::pair
FUNC 14f52 28 0 std::_Rb_tree_iterator<std::pair<const std::basic_string<char, std::char_traits<char>, std::allocator<char> >, int> >::operator--
FUNC 14f7a a 0 __gnu_cxx::new_allocator<std::pair<const std::basic_string<char, std::char_traits<char>, std::allocator<char> >, int> >::new_allocator
FUNC 14f84 12 0 std::_Rb_tree<std::basic_string<char, std::char_traits<char>, std::allocator<char> >, std::pair<const std::basic_string<char, std::char_traits<char>, std::allocator<char> >, int>, std::_Select1st<std::pair<const std::basic_string<char, std::char_traits<char>, std::allocator<char> >, int> >, std::less<std::basic_string<char, std::char_traits<char>, std::allocator<char> > >, std::allocator<std::pair<const std::basic_string<char, std::char_traits<char>, std::allocator<char> >, int> > >::_S_value
FUNC 14f96 24 0 std::_Rb_tree<std::basic_string<char, std::char_traits<char>, std::allocator<char> >, std::pair<const std::basic_string<char, std::char_traits<char>, std::allocator<char> >, int>, std::_Select1st<std::pair<const std::basic_string<char, std::char_traits<char>, std::allocator<char> >, int> >, std::less<std::basic_string<char, std::char_traits<char>, std::allocator<char> > >, std::allocator<std::pair<const std::basic_string<char, std::char_traits<char>, std::allocator<char> >, int> > >::_M_get_node
FUNC 14fba 33 0 std::pair<const std::basic_string<char, std::char_traits<char>, std::allocator<char> >, int>::pair
FUNC 14fee 77 0 __gnu_cxx::new_allocator<std::pair<const std::basic_string<char, std::char_traits<char>, std::allocator<char> >, int> >::construct
FUNC 15066 54 0 __gnu_cxx::new_allocator<std::_Rb_tree_node<std::pair<const std::basic_string<char, std::char_traits<char>, std::allocator<char> >, int> > >::allocate
FUNC 150ba 14 0 __gnu_cxx::new_allocator<std::_Rb_tree_node<std::pair<const std::basic_string<char, std::char_traits<char>, std::allocator<char> >, int> > >::max_size
FUNC 150d0 28 0 IEC103Manager::IEC103Manager
FUNC 150f8 61 0 IEC103Manager::~IEC103Manager
FUNC 1515a 26 0 IEC103Manager::~IEC103Manager
FUNC 15180 58a 0 IEC103Manager::Init
FUNC 1570a 2d 0 IEC103Manager::Start
FUNC 15738 1b 0 IEC103Manager::Stop
FUNC 15754 62 0 IEC103Manager::SignalHandle
FUNC 157b6 ca 0 __static_initialization_and_destruction_0
FUNC 15880 15 0 _GLOBAL__I_IEC103Manager.cpp
FUNC 15896 12 0 Config::GetNetType
FUNC 158a8 36 0 Config::GetMysqlIp
FUNC 158de 15 0 Config::GetMysqlPort
FUNC 158f4 36 0 Config::GetMysqlUser
FUNC 1592a 36 0 Config::GetMysqlPwd
FUNC 15960 36 0 Config::GetMysqlDbname
FUNC 15996 14 0 Config::GetLogLv
FUNC 159aa 14 0 Config::GetIec103RunType
FUNC 159c0 27 0 Inet::Inet
FUNC 159e8 35 0 Inet::~Inet
FUNC 15a1e 26 0 Inet::~Inet
FUNC 15a44 13d 0 combine_folder
FUNC 15b81 23e 0 InitPaths
FUNC 15dbf 31 0 InitLogging
FUNC 15df0 c8 0 GetLocalDate
FUNC 15eb8 c8 0 GetCurTime
FUNC 15f80 2a1 0 Logger::Logger
FUNC 16222 138 0 Logger::~Logger
FUNC 1635a 26 0 Logger::~Logger
FUNC 16380 124 0 Logger::Debug
FUNC 164a4 20c 0 Logger::Debug
FUNC 166b0 125 0 Logger::Info
FUNC 167d6 20d 0 Logger::Info
FUNC 169e4 125 0 Logger::Warn
FUNC 16b0a 20d 0 Logger::Warn
FUNC 16d18 125 0 Logger::Error
FUNC 16e3e 20d 0 Logger::Error
FUNC 1704c 125 0 Logger::Fatal
FUNC 17172 20d 0 Logger::Fatal
FUNC 17380 bc 0 Logger::GetInstance
FUNC 1743c 164 0 Logger::Log
FUNC 175a0 24a 0 Logger::Log
FUNC 177ea 266 0 Logger::Log
FUNC 17a50 b 0 Logger::GetInstancePtr
FUNC 17a5c 354 0 Logger::Log
FUNC 17db0 85 0 LogMessage::LogMessage
FUNC 17e36 86 0 LogMessage::~LogMessage
FUNC 17ebc 26 0 LogMessage::~LogMessage
FUNC 17ee2 4e 0 __static_initialization_and_destruction_0
FUNC 17f30 15 0 _GLOBAL__I_Logger.cpp
FUNC 17f46 35 0 ILogger::~ILogger
FUNC 17f7c 26 0 ILogger::~ILogger
FUNC 17fa2 12 0 Logger::stream
FUNC 17fb4 12c 0 FileHelper::CreateDir
FUNC 180e0 1c 0 ILogger::ILogger
FUNC 180fc eb 0 MemCache::MemCache
FUNC 181e8 80 0 MemCache::~MemCache
FUNC 18268 26 0 MemCache::~MemCache
FUNC 1828e 74 0 MemCache::GetInstance
FUNC 18302 4bc 0 MemCache::Init
FUNC 187be af 0 MemCache::GetFunction
FUNC 1886e 1a2 0 MemCache::WritePointsValue_V
FUNC 18a10 2b 0 MemCache::Post
FUNC 18a3c 3c 0 MemCache::Free
FUNC 18a78 ca 0 __static_initialization_and_destruction_0
FUNC 18b42 15 0 _GLOBAL__I_MemCache.cpp
FUNC 18b58 14 0 Config::GetRedisPostName
FUNC 18b6c 15 0 Config::GetRedisPostSize
FUNC 18b82 39 0 std::vector<Tag, std::allocator<Tag> >::operator[]
FUNC 18bbc 2d 0 std::vector<Tag, std::allocator<Tag> >::size
FUNC 18bec 2c 0 Serial485ClientService::Serial485ClientService
FUNC 18c18 41 0 Serial485ClientService::~Serial485ClientService
FUNC 18c5a 26 0 Serial485ClientService::~Serial485ClientService
FUNC 18c80 141 0 Serial485ClientService::Start
FUNC 18dc2 385 0 Serial485ClientService::Read
FUNC 19147 48 0 __static_initialization_and_destruction_0
FUNC 1918f 15 0 _GLOBAL__I_Serial485ClientService.cpp
FUNC 191a4 109 0 SerialNet::SerialNet
FUNC 192ae e3 0 SerialNet::~SerialNet
FUNC 19392 26 0 SerialNet::~SerialNet
FUNC 193b8 485 0 SerialNet::Connect
FUNC 1983e af 0 SerialNet::GetFunction
FUNC 198ee 312 0 SerialNet::Read
FUNC 19c00 b3 0 SerialNet::Write
FUNC 19cb4 2c 0 SerialNet::DisConnect
FUNC 19ce0 2b2 0 SerialNet::SetSpeed
FUNC 19f92 35a 0 SerialNet::SetParity
FUNC 1a2ec 42 0 SerialNet::SumCheck
FUNC 1a32e 112 0 SerialNet::ToHexString
FUNC 1a440 48 0 __static_initialization_and_destruction_0
FUNC 1a488 15 0 _GLOBAL__I_SerialNet.cpp
FUNC 1a4a0 cd 0 SerialService::SerialService
FUNC 1a56e b1 0 SerialService::~SerialService
FUNC 1a620 26 0 SerialService::~SerialService
FUNC 1a646 221 0 SerialService::Start
FUNC 1a868 67e 0 SerialService::Write
FUNC 1aee6 57d 0 SerialService::Read
FUNC 1b464 9c 0 SerialService::ParseRecvData
FUNC 1b500 b0 0 SerialService::ParseFixedData
FUNC 1b5b0 213 0 SerialService::ParseVariableData
FUNC 1b7c4 189 0 SerialService::InitConfig
FUNC 1b94d 48 0 __static_initialization_and_destruction_0
FUNC 1b995 15 0 _GLOBAL__I_SerialService.cpp
FUNC 1b9aa 33 0 Config::GetSerialPortPath
FUNC 1b9de 11 0 Config::GetSpeed
FUNC 1b9f0 11 0 Config::GetDatabits
FUNC 1ba02 11 0 Config::GetStopbits
FUNC 1ba14 12 0 Config::GetParity
FUNC 1ba26 12 0 Config::GetClientAddr
FUNC 1ba38 33 0 Config::GetIp
FUNC 1ba6c 12 0 Config::GetTcpPort
FUNC 1ba7e 15 0 Config::GetOutTime
FUNC 1ba94 1a 0 std::vector<char, std::allocator<char> >::vector
FUNC 1baae 6e 0 std::vector<char, std::allocator<char> >::~vector
FUNC 1bb1c 229 0 std::vector<char, std::allocator<char> >::operator=
FUNC 1bd46 11 0 std::vector<char, std::allocator<char> >::data
FUNC 1bd58 25 0 std::vector<char, std::allocator<char> >::size
FUNC 1bd7e 1f 0 std::vector<short unsigned int, std::allocator<short unsigned int> >::operator[]
FUNC 1bd9e 1a 0 std::_Vector_base<char, std::allocator<char> >::_Vector_impl::~_Vector_impl
FUNC 1bdb8 1a 0 std::_Vector_base<char, std::allocator<char> >::_Vector_base
FUNC 1bdd2 79 0 std::_Vector_base<char, std::allocator<char> >::~_Vector_base
FUNC 1be4c e 0 std::_Vector_base<char, std::allocator<char> >::_M_get_Tp_allocator
FUNC 1be5a 29 0 std::_Destroy<char*, char>
FUNC 1be84 25 0 std::vector<char, std::allocator<char> >::capacity
FUNC 1beaa 30 0 std::vector<char, std::allocator<char> >::begin
FUNC 1beda 31 0 std::vector<char, std::allocator<char> >::end
FUNC 1bf0c a1 0 std::vector<char, std::allocator<char> >::_M_allocate_and_copy<__gnu_cxx::__normal_iterator<const char*, std::vector<char, std::allocator<char> > > >
FUNC 1bfae 34 0 std::_Vector_base<char, std::allocator<char> >::_M_deallocate
FUNC 1bfe2 25 0 std::vector<char, std::allocator<char> >::begin
FUNC 1c007 46 0 std::copy<__gnu_cxx::__normal_iterator<const char*, std::vector<char, std::allocator<char> > >, __gnu_cxx::__normal_iterator<char*, std::vector<char, std::allocator<char> > > >
FUNC 1c04e 29 0 std::vector<char, std::allocator<char> >::end
FUNC 1c077 29 0 std::_Destroy<__gnu_cxx::__normal_iterator<char*, std::vector<char, std::allocator<char> > >, char>
FUNC 1c0a0 46 0 std::copy<char*, char*>
FUNC 1c0e6 31 0 std::__uninitialized_copy_a<char*, char*, char>
FUNC 1c118 3d 0 std::_Vector_base<char, std::allocator<char> >::_Vector_impl::_Vector_impl
FUNC 1c155 25 0 std::_Destroy<char*>
FUNC 1c17a 1c 0 __gnu_cxx::__normal_iterator<const char*, std::vector<char, std::allocator<char> > >::__normal_iterator
FUNC 1c196 38 0 std::_Vector_base<char, std::allocator<char> >::_M_allocate
FUNC 1c1ce 31 0 std::__uninitialized_copy_a<__gnu_cxx::__normal_iterator<const char*, std::vector<char, std::allocator<char> > >, char*, char>
FUNC 1c200 22 0 __gnu_cxx::new_allocator<char>::deallocate
FUNC 1c222 1c 0 __gnu_cxx::__normal_iterator<char*, std::vector<char, std::allocator<char> > >::__normal_iterator
FUNC 1c23e e 0 std::__miter_base<__gnu_cxx::__normal_iterator<const char*, std::vector<char, std::allocator<char> > >, false>::__b
FUNC 1c24c 73 0 std::__copy_move_a2<false, __gnu_cxx::__normal_iterator<const char*, std::vector<char, std::allocator<char> > >, __gnu_cxx::__normal_iterator<char*, std::vector<char, std::allocator<char> > > >
FUNC 1c2bf 25 0 std::_Destroy<__gnu_cxx::__normal_iterator<char*, std::vector<char, std::allocator<char> > > >
FUNC 1c2e4 e 0 std::__miter_base<char*, false>::__b
FUNC 1c2f2 58 0 std::__copy_move_a2<false, char*, char*>
FUNC 1c34a 2d 0 std::uninitialized_copy<char*, char*>
FUNC 1c377 e 0 std::_Destroy_aux<true>::__destroy<char*>
FUNC 1c386 47 0 __gnu_cxx::new_allocator<char>::allocate
FUNC 1c3cd 2d 0 std::uninitialized_copy<__gnu_cxx::__normal_iterator<const char*, std::vector<char, std::allocator<char> > >, char*>
FUNC 1c3fa 1d 0 std::__niter_base<__gnu_cxx::__normal_iterator<const char*, std::vector<char, std::allocator<char> > >, true>::__b
FUNC 1c417 1d 0 std::__niter_base<__gnu_cxx::__normal_iterator<char*, std::vector<char, std::allocator<char> > >, true>::__b
FUNC 1c434 31 0 std::__copy_move_a<false, const char*, char*>
FUNC 1c465 e 0 std::_Destroy_aux<true>::__destroy<__gnu_cxx::__normal_iterator<char*, std::vector<char, std::allocator<char> > > >
FUNC 1c473 e 0 std::__niter_base<char*, false>::__b
FUNC 1c481 31 0 std::__copy_move_a<false, char*, char*>
FUNC 1c4b2 2d 0 std::__uninitialized_copy<true>::uninitialized_copy<char*, char*>
FUNC 1c4e0 11 0 __gnu_cxx::new_allocator<char>::max_size
FUNC 1c4f1 2d 0 std::__uninitialized_copy<true>::uninitialized_copy<__gnu_cxx::__normal_iterator<const char*, std::vector<char, std::allocator<char> > >, char*>
FUNC 1c51e e 0 __gnu_cxx::__normal_iterator<const char*, std::vector<char, std::allocator<char> > >::base
FUNC 1c52c e 0 __gnu_cxx::__normal_iterator<char*, std::vector<char, std::allocator<char> > >::base
FUNC 1c53a 52 0 std::__copy_move<false, true, std::random_access_iterator_tag>::__copy_m<char>
FUNC 1c58c 46 0 std::copy<__gnu_cxx::__normal_iterator<const char*, std::vector<char, std::allocator<char> > >, char*>
FUNC 1c5d2 58 0 std::__copy_move_a2<false, __gnu_cxx::__normal_iterator<const char*, std::vector<char, std::allocator<char> > >, char*>
FUNC 1c62c cf 0 Service::Service
FUNC 1c6fc ad 0 Service::~Service
FUNC 1c7aa 26 0 Service::~Service
FUNC 1c7d0 a 0 Service::InitConfig
FUNC 1c7da 2a 0 Service::Init
FUNC 1c804 1f2 0 Service::Start
FUNC 1c9f6 837 0 Service::Write
FUNC 1d22e 494 0 Service::Read
FUNC 1d6c2 177 0 Service::ParseRecvData
FUNC 1d83a 6d 0 Service::ParseFixedData
FUNC 1d8a8 181 0 Service::ParseVariableData
FUNC 1da2a 47 0 Service::CmdResetCon
FUNC 1da72 47 0 Service::CmdResetNum
FUNC 1daba 4b 0 Service::CmdGetDataLv1
FUNC 1db06 4b 0 Service::CmdGetDataLv2
FUNC 1db52 13a 0 Service::CmdFixedData
FUNC 1dc8c 3ad 0 Service::CmdSetTimeStamp
FUNC 1e03a 22c 0 Service::CmdResetEventAlarm
FUNC 1e266 347 0 Service::CmdSettingDownload
FUNC 1e5ae 347 0 Service::CmdSettingModify
FUNC 1e8f6 23f 0 Service::CmdGetAll
FUNC 1eb36 26d 0 Service::CmdGetGroupValue
FUNC 1eda4 273 0 Service::CmdGetEntryValue
FUNC 1f018 42 0 Service::SumCheck
FUNC 1f05a 388 0 Service::ParseASDU44
FUNC 1f3e2 2fe 0 Service::ParseASDU40
FUNC 1f6e0 3c 0 Service::ParseASDU41
FUNC 1f71c 33e 0 Service::ParseASDU42
FUNC 1fa5a 465 0 Service::ParseASDU50
FUNC 1fec0 3fa 0 Service::ParseASDU1
FUNC 202ba 470 0 Service::ParseASDU2
FUNC 2072a 124 0 Service::GetGlobalAddrByPrivateAddr
FUNC 2084e a3 0 Service::GetRateByPrivateAddr
FUNC 208f2 112 0 Service::ToHexString
FUNC 20a04 4dc 0 Service::InitPointAddrMap
FUNC 20ee0 a4 0 Service::StartBreakHeart
FUNC 20f84 db 0 Service::ThreadFunc
FUNC 21060 1a7 0 Service::ParseASDU10
FUNC 21208 491 0 Service::ParseASDU10AllValue
FUNC 21699 ca 0 __static_initialization_and_destruction_0
FUNC 21763 15 0 _GLOBAL__I_Service.cpp
FUNC 21778 15 0 Config::GetId
FUNC 2178e 14 0 Config::GetIedName
FUNC 217a2 66 0 Tag::Tag
FUNC 21808 50 0 Tag::~Tag
FUNC 21858 63 0 Tag::operator=
FUNC 218bc 8b 0 Tag::ZeroTag
FUNC 21948 1a 0 std::map<std::basic_string<char, std::char_traits<char>, std::allocator<char> >, Service::Point103, std::less<std::basic_string<char, std::char_traits<char>, std::allocator<char> > >, std::allocator<std::pair<const std::basic_string<char, std::char_traits<char>, std::allocator<char> >, Service::Point103> > >::~map
FUNC 21962 1e 0 Service::Point103::Point103
FUNC 21980 1e 0 Service::Point103::~Point103
FUNC 2199e 39 0 Service::Point103::Point103
FUNC 219d8 1e 0 std::pair<char*, Service::Point103>::~pair
FUNC 219f6 55 0 std::pair<const std::basic_string<char, std::char_traits<char>, std::allocator<char> >, Service::Point103>::~pair
FUNC 21a4c 1a 0 std::vector<Tag, std::allocator<Tag> >::vector
FUNC 21a66 6e 0 std::vector<Tag, std::allocator<Tag> >::~vector
FUNC 21ad4 1a 0 std::map<std::basic_string<char, std::char_traits<char>, std::allocator<char> >, Service::Point103, std::less<std::basic_string<char, std::char_traits<char>, std::allocator<char> > >, std::allocator<std::pair<const std::basic_string<char, std::char_traits<char>, std::allocator<char> >, Service::Point103> > >::map
FUNC 21aee 1a 0 std::_Rb_tree<std::basic_string<char, std::char_traits<char>, std::allocator<char> >, std::pair<const std::basic_string<char, std::char_traits<char>, std::allocator<char> >, Service::Point103>, std::_Select1st<std::pair<const std::basic_string<char, std::char_traits<char>, std::allocator<char> >, Service::Point103> >, std::less<std::basic_string<char, std::char_traits<char>, std::allocator<char> > >, std::allocator<std::pair<const std::basic_string<char, std::char_traits<char>, std::allocator<char> >, Service::Point103> > >::_Rb_tree_impl<std::less<std::basic_string<char, std::char_traits<char>, std::allocator<char> > >, false>::~_Rb_tree_impl
FUNC 21b08 63 0 std::_Rb_tree<std::basic_string<char, std::char_traits<char>, std::allocator<char> >, std::pair<const std::basic_string<char, std::char_traits<char>, std::allocator<char> >, Service::Point103>, std::_Select1st<std::pair<const std::basic_string<char, std::char_traits<char>, std::allocator<char> >, Service::Point103> >, std::less<std::basic_string<char, std::char_traits<char>, std::allocator<char> > >, std::allocator<std::pair<const std::basic_string<char, std::char_traits<char>, std::allocator<char> >, Service::Point103> > >::~_Rb_tree
FUNC 21b6c 73 0 std::vector<char, std::allocator<char> >::vector
FUNC 21be0 19 0 std::vector<char, std::allocator<char> >::operator[]
FUNC 21bfa 7d 0 std::vector<Tag, std::allocator<Tag> >::push_back
FUNC 21c78 41 0 std::vector<Tag, std::allocator<Tag> >::empty
FUNC 21cba 25 0 std::map<std::basic_string<char, std::char_traits<char>, std::allocator<char> >, Service::Point103, std::less<std::basic_string<char, std::char_traits<char>, std::allocator<char> > >, std::allocator<std::pair<const std::basic_string<char, std::char_traits<char>, std::allocator<char> >, Service::Point103> > >::find
FUNC 21ce0 1c 0 std::_Rb_tree_const_iterator<std::pair<const std::basic_string<char, std::char_traits<char>, std::allocator<char> >, Service::Point103> >::_Rb_tree_const_iterator
FUNC 21cfc 1a 0 std::map<std::basic_string<char, std::char_traits<char>, std::allocator<char> >, Service::Point103, std::less<std::basic_string<char, std::char_traits<char>, std::allocator<char> > >, std::allocator<std::pair<const std::basic_string<char, std::char_traits<char>, std::allocator<char> >, Service::Point103> > >::end
FUNC 21d16 22 0 std::_Rb_tree_const_iterator<std::pair<const std::basic_string<char, std::char_traits<char>, std::allocator<char> >, Service::Point103> >::operator!=
FUNC 21d38 15 0 std::_Rb_tree_const_iterator<std::pair<const std::basic_string<char, std::char_traits<char>, std::allocator<char> >, Service::Point103> >::operator->
FUNC 21d4e 1a 0 std::map<std::basic_string<char, std::char_traits<char>, std::allocator<char> >, Service::Point103, std::less<std::basic_string<char, std::char_traits<char>, std::allocator<char> > >, std::allocator<std::pair<const std::basic_string<char, std::char_traits<char>, std::allocator<char> >, Service::Point103> > >::clear
FUNC 21d68 37 0 std::make_pair<char*, Service::Point103>
FUNC 21da0 ab 0 std::pair<const std::basic_string<char, std::char_traits<char>, std::allocator<char> >, Service::Point103>::pair<char*, Service::Point103>
FUNC 21e4c 47 0 std::map<std::basic_string<char, std::char_traits<char>, std::allocator<char> >, Service::Point103, std::less<std::basic_string<char, std::char_traits<char>, std::allocator<char> > >, std::allocator<std::pair<const std::basic_string<char, std::char_traits<char>, std::allocator<char> >, Service::Point103> > >::insert
FUNC 21e94 1a 0 std::map<std::basic_string<char, std::char_traits<char>, std::allocator<char> >, Service::Point103, std::less<std::basic_string<char, std::char_traits<char>, std::allocator<char> > >, std::allocator<std::pair<const std::basic_string<char, std::char_traits<char>, std::allocator<char> >, Service::Point103> > >::size
FUNC 21eae 1a 0 std::_Vector_base<Tag, std::allocator<Tag> >::_Vector_impl::~_Vector_impl
FUNC 21ec8 1a 0 std::_Vector_base<Tag, std::allocator<Tag> >::_Vector_base
FUNC 21ee2 81 0 std::_Vector_base<Tag, std::allocator<Tag> >::~_Vector_base
FUNC 21f64 e 0 std::_Vector_base<Tag, std::allocator<Tag> >::_M_get_Tp_allocator
FUNC 21f72 29 0 std::_Destroy<Tag*, Tag>
FUNC 21f9c 1a 0 std::_Rb_tree<std::basic_string<char, std::char_traits<char>, std::allocator<char> >, std::pair<const std::basic_string<char, std::char_traits<char>, std::allocator<char> >, Service::Point103>, std::_Select1st<std::pair<const std::basic_string<char, std::char_traits<char>, std::allocator<char> >, Service::Point103> >, std::less<std::basic_string<char, std::char_traits<char>, std::allocator<char> > >, std::allocator<std::pair<const std::basic_string<char, std::char_traits<char>, std::allocator<char> >, Service::Point103> > >::_Rb_tree
FUNC 21fb6 1a 0 std::allocator<std::_Rb_tree_node<std::pair<const std::basic_string<char, std::char_traits<char>, std::allocator<char> >, Service::Point103> > >::~allocator
FUNC 21fd0 69 0 std::_Rb_tree<std::basic_string<char, std::char_traits<char>, std::allocator<char> >, std::pair<const std::basic_string<char, std::char_traits<char>, std::allocator<char> >, Service::Point103>, std::_Select1st<std::pair<const std::basic_string<char, std::char_traits<char>, std::allocator<char> >, Service::Point103> >, std::less<std::basic_string<char, std::char_traits<char>, std::allocator<char> > >, std::allocator<std::pair<const std::basic_string<char, std::char_traits<char>, std::allocator<char> >, Service::Point103> > >::_M_erase
FUNC 2203a 12 0 std::_Rb_tree<std::basic_string<char, std::char_traits<char>, std::allocator<char> >, std::pair<const std::basic_string<char, std::char_traits<char>, std::allocator<char> >, Service::Point103>, std::_Select1st<std::pair<const std::basic_string<char, std::char_traits<char>, std::allocator<char> >, Service::Point103> >, std::less<std::basic_string<char, std::char_traits<char>, std::allocator<char> > >, std::allocator<std::pair<const std::basic_string<char, std::char_traits<char>, std::allocator<char> >, Service::Point103> > >::_M_begin
FUNC 2204c 91 0 std::_Vector_base<char, std::allocator<char> >::_Vector_base
FUNC 220de 55 0 std::vector<char, std::allocator<char> >::_M_fill_initialize
FUNC 22134 e2 0 __gnu_cxx::new_allocator<Tag>::construct
FUNC 22216 42b 0 std::vector<Tag, std::allocator<Tag> >::_M_insert_aux
FUNC 22642 29 0 std::vector<Tag, std::allocator<Tag> >::end
FUNC 2266c 31 0 std::vector<Tag, std::allocator<Tag> >::end
FUNC 2269e 30 0 std::vector<Tag, std::allocator<Tag> >::begin
FUNC 226ce 3c 0 __gnu_cxx::operator==<const Tag*, std::vector<Tag, std::allocator<Tag> > >
FUNC 2270a b6 0 std::_Rb_tree<std::basic_string<char, std::char_traits<char>, std::allocator<char> >, std::pair<const std::basic_string<char, std::char_traits<char>, std::allocator<char> >, Service::Point103>, std::_Select1st<std::pair<const std::basic_string<char, std::char_traits<char>, std::allocator<char> >, Service::Point103> >, std::less<std::basic_string<char, std::char_traits<char>, std::allocator<char> > >, std::allocator<std::pair<const std::basic_string<char, std::char_traits<char>, std::allocator<char> >, Service::Point103> > >::find
FUNC 227c0 2c 0 std::_Rb_tree<std::basic_string<char, std::char_traits<char>, std::allocator<char> >, std::pair<const std::basic_string<char, std::char_traits<char>, std::allocator<char> >, Service::Point103>, std::_Select1st<std::pair<const std::basic_string<char, std::char_traits<char>, std::allocator<char> >, Service::Point103> >, std::less<std::basic_string<char, std::char_traits<char>, std::allocator<char> > >, std::allocator<std::pair<const std::basic_string<char, std::char_traits<char>, std::allocator<char> >, Service::Point103> > >::end
FUNC 227ec 8d 0 std::_Rb_tree<std::basic_string<char, std::char_traits<char>, std::allocator<char> >, std::pair<const std::basic_string<char, std::char_traits<char>, std::allocator<char> >, Service::Point103>, std::_Select1st<std::pair<const std::basic_string<char, std::char_traits<char>, std::allocator<char> >, Service::Point103> >, std::less<std::basic_string<char, std::char_traits<char>, std::allocator<char> > >, std::allocator<std::pair<const std::basic_string<char, std::char_traits<char>, std::allocator<char> >, Service::Point103> > >::clear
FUNC 2287a 3b 0 std::pair<char*, Service::Point103>::pair
FUNC 228b6 271 0 std::_Rb_tree<std::basic_string<char, std::char_traits<char>, std::allocator<char> >, std::pair<const std::basic_string<char, std::char_traits<char>, std::allocator<char> >, Service::Point103>, std::_Select1st<std::pair<const std::basic_string<char, std::char_traits<char>, std::allocator<char> >, Service::Point103> >, std::less<std::basic_string<char, std::char_traits<char>, std::allocator<char> > >, std::allocator<std::pair<const std::basic_string<char, std::char_traits<char>, std::allocator<char> >, Service::Point103> > >::_M_insert_unique
FUNC 22b28 12 0 std::_Rb_tree<std::basic_string<char, std::char_traits<char>, std::allocator<char> >, std::pair<const std::basic_string<char, std::char_traits<char>, std::allocator<char> >, Service::Point103>, std::_Select1st<std::pair<const std::basic_string<char, std::char_traits<char>, std::allocator<char> >, Service::Point103> >, std::less<std::basic_string<char, std::char_traits<char>, std::allocator<char> > >, std::allocator<std::pair<const std::basic_string<char, std::char_traits<char>, std::allocator<char> >, Service::Point103> > >::size
FUNC 22b3a 3d 0 std::_Vector_base<Tag, std::allocator<Tag> >::_Vector_impl::_Vector_impl
FUNC 22b78 1a 0 std::allocator<Tag>::~allocator
FUNC 22b92 34 0 std::_Vector_base<Tag, std::allocator<Tag> >::_M_deallocate
FUNC 22bc6 25 0 std::_Destroy<Tag*>
FUNC 22bec 8c 0 std::_Rb_tree<std::basic_string<char, std::char_traits<char>, std::allocator<char> >, std::pair<const std::basic_string<char, std::char_traits<char>, std::allocator<char> >, Service::Point103>, std::_Select1st<std::pair<const std::basic_string<char, std::char_traits<char>, std::allocator<char> >, Service::Point103> >, std::less<std::basic_string<char, std::char_traits<char>, std::allocator<char> > >, std::allocator<std::pair<const std::basic_string<char, std::char_traits<char>, std::allocator<char> >, Service::Point103> > >::_Rb_tree_impl<std::less<std::basic_string<char, std::char_traits<char>, std::allocator<char> > >, false>::_Rb_tree_impl
FUNC 22c78 a 0 __gnu_cxx::new_allocator<std::_Rb_tree_node<std::pair<const std::basic_string<char, std::char_traits<char>, std::allocator<char> >, Service::Point103> > >::~new_allocator
FUNC 22c82 12 0 std::_Rb_tree<std::basic_string<char, std::char_traits<char>, std::allocator<char> >, std::pair<const std::basic_string<char, std::char_traits<char>, std::allocator<char> >, Service::Point103>, std::_Select1st<std::pair<const std::basic_string<char, std::char_traits<char>, std::allocator<char> >, Service::Point103> >, std::less<std::basic_string<char, std::char_traits<char>, std::allocator<char> > >, std::allocator<std::pair<const std::basic_string<char, std::char_traits<char>, std::allocator<char> >, Service::Point103> > >::_S_right
FUNC 22c94 12 0 std::_Rb_tree<std::basic_string<char, std::char_traits<char>, std::allocator<char> >, std::pair<const std::basic_string<char, std::char_traits<char>, std::allocator<char> >, Service::Point103>, std::_Select1st<std::pair<const std::basic_string<char, std::char_traits<char>, std::allocator<char> >, Service::Point103> >, std::less<std::basic_string<char, std::char_traits<char>, std::allocator<char> > >, std::allocator<std::pair<const std::basic_string<char, std::char_traits<char>, std::allocator<char> >, Service::Point103> > >::_S_left
FUNC 22ca6 86 0 std::_Rb_tree<std::basic_string<char, std::char_traits<char>, std::allocator<char> >, std::pair<const std::basic_string<char, std::char_traits<char>, std::allocator<char> >, Service::Point103>, std::_Select1st<std::pair<const std::basic_string<char, std::char_traits<char>, std::allocator<char> >, Service::Point103> >, std::less<std::basic_string<char, std::char_traits<char>, std::allocator<char> > >, std::allocator<std::pair<const std::basic_string<char, std::char_traits<char>, std::allocator<char> >, Service::Point103> > >::_M_destroy_node
FUNC 22d2c 48 0 std::_Vector_base<char, std::allocator<char> >::_Vector_impl::_Vector_impl
FUNC 22d74 31 0 std::__uninitialized_fill_n_a<char*, long unsigned int, char, char>
FUNC 22da6 e 0 __gnu_cxx::__normal_iterator<Tag*, std::vector<Tag, std::allocator<Tag> > >::base
FUNC 22db4 46 0 std::copy_backward<Tag*, Tag*>
FUNC 22dfa 11 0 __gnu_cxx::__normal_iterator<Tag*, std::vector<Tag, std::allocator<Tag> > >::operator*
FUNC 22e0c ca 0 std::vector<Tag, std::allocator<Tag> >::_M_check_len
FUNC 22ed6 25 0 std::vector<Tag, std::allocator<Tag> >::begin
FUNC 22efb 4d 0 __gnu_cxx::operator-<Tag*, std::vector<Tag, std::allocator<Tag> > >
FUNC 22f48 38 0 std::_Vector_base<Tag, std::allocator<Tag> >::_M_allocate
FUNC 22f80 3b 0 std::__uninitialized_move_a<Tag*, Tag*, std::allocator<Tag> >
FUNC 22fbc 1e 0 __gnu_cxx::new_allocator<Tag>::destroy
FUNC 22fda 1c 0 __gnu_cxx::__normal_iterator<Tag*, std::vector<Tag, std::allocator<Tag> > >::__normal_iterator
FUNC 22ff6 1c 0 __gnu_cxx::__normal_iterator<const Tag*, std::vector<Tag, std::allocator<Tag> > >::__normal_iterator
FUNC 23012 e 0 __gnu_cxx::__normal_iterator<const Tag*, std::vector<Tag, std::allocator<Tag> > >::base
FUNC 23020 12 0 std::_Rb_tree<std::basic_string<char, std::char_traits<char>, std::allocator<char> >, std::pair<const std::basic_string<char, std::char_traits<char>, std::allocator<char> >, Service::Point103>, std::_Select1st<std::pair<const std::basic_string<char, std::char_traits<char>, std::allocator<char> >, Service::Point103> >, std::less<std::basic_string<char, std::char_traits<char>, std::allocator<char> > >, std::allocator<std::pair<const std::basic_string<char, std::char_traits<char>, std::allocator<char> >, Service::Point103> > >::_M_end
FUNC 23032 92 0 std::_Rb_tree<std::basic_string<char, std::char_traits<char>, std::allocator<char> >, std::pair<const std::basic_string<char, std::char_traits<char>, std::allocator<char> >, Service::Point103>, std::_Select1st<std::pair<const std::basic_string<char, std::char_traits<char>, std::allocator<char> >, Service::Point103> >, std::less<std::basic_string<char, std::char_traits<char>, std::allocator<char> > >, std::allocator<std::pair<const std::basic_string<char, std::char_traits<char>, std::allocator<char> >, Service::Point103> > >::_M_lower_bound
FUNC 230c4 2c 0 std::_Rb_tree<std::basic_string<char, std::char_traits<char>, std::allocator<char> >, std::pair<const std::basic_string<char, std::char_traits<char>, std::allocator<char> >, Service::Point103>, std::_Select1st<std::pair<const std::basic_string<char, std::char_traits<char>, std::allocator<char> >, Service::Point103> >, std::less<std::basic_string<char, std::char_traits<char>, std::allocator<char> > >, std::allocator<std::pair<const std::basic_string<char, std::char_traits<char>, std::allocator<char> >, Service::Point103> > >::_S_key
FUNC 230f0 22 0 std::_Rb_tree_iterator<std::pair<const std::basic_string<char, std::char_traits<char>, std::allocator<char> >, Service::Point103> >::operator==
FUNC 23112 19 0 std::_Rb_tree_iterator<std::pair<const std::basic_string<char, std::char_traits<char>, std::allocator<char> >, Service::Point103> >::_Rb_tree_iterator
FUNC 2312c 12 0 std::_Rb_tree<std::basic_string<char, std::char_traits<char>, std::allocator<char> >, std::pair<const std::basic_string<char, std::char_traits<char>, std::allocator<char> >, Service::Point103>, std::_Select1st<std::pair<const std::basic_string<char, std::char_traits<char>, std::allocator<char> >, Service::Point103> >, std::less<std::basic_string<char, std::char_traits<char>, std::allocator<char> > >, std::allocator<std::pair<const std::basic_string<char, std::char_traits<char>, std::allocator<char> >, Service::Point103> > >::_M_leftmost
FUNC 2313e 12 0 std::_Rb_tree<std::basic_string<char, std::char_traits<char>, std::allocator<char> >, std::pair<const std::basic_string<char, std::char_traits<char>, std::allocator<char> >, Service::Point103>, std::_Select1st<std::pair<const std::basic_string<char, std::char_traits<char>, std::allocator<char> >, Service::Point103> >, std::less<std::basic_string<char, std::char_traits<char>, std::allocator<char> > >, std::allocator<std::pair<const std::basic_string<char, std::char_traits<char>, std::allocator<char> >, Service::Point103> > >::_M_root
FUNC 23150 12 0 std::_Rb_tree<std::basic_string<char, std::char_traits<char>, std::allocator<char> >, std::pair<const std::basic_string<char, std::char_traits<char>, std::allocator<char> >, Service::Point103>, std::_Select1st<std::pair<const std::basic_string<char, std::char_traits<char>, std::allocator<char> >, Service::Point103> >, std::less<std::basic_string<char, std::char_traits<char>, std::allocator<char> > >, std::allocator<std::pair<const std::basic_string<char, std::char_traits<char>, std::allocator<char> >, Service::Point103> > >::_M_rightmost
FUNC 23162 12 0 std::_Select1st<std::pair<const std::basic_string<char, std::char_traits<char>, std::allocator<char> >, Service::Point103> >::operator()
FUNC 23174 2c 0 std::_Rb_tree<std::basic_string<char, std::char_traits<char>, std::allocator<char> >, std::pair<const std::basic_string<char, std::char_traits<char>, std::allocator<char> >, Service::Point103>, std::_Select1st<std::pair<const std::basic_string<char, std::char_traits<char>, std::allocator<char> >, Service::Point103> >, std::less<std::basic_string<char, std::char_traits<char>, std::allocator<char> > >, std::allocator<std::pair<const std::basic_string<char, std::char_traits<char>, std::allocator<char> >, Service::Point103> > >::_S_key
FUNC 231a0 2c 0 std::_Rb_tree<std::basic_string<char, std::char_traits<char>, std::allocator<char> >, std::pair<const std::basic_string<char, std::char_traits<char>, std::allocator<char> >, Service::Point103>, std::_Select1st<std::pair<const std::basic_string<char, std::char_traits<char>, std::allocator<char> >, Service::Point103> >, std::less<std::basic_string<char, std::char_traits<char>, std::allocator<char> > >, std::allocator<std::pair<const std::basic_string<char, std::char_traits<char>, std::allocator<char> >, Service::Point103> > >::begin
FUNC 231cc e3 0 std::_Rb_tree<std::basic_string<char, std::char_traits<char>, std::allocator<char> >, std::pair<const std::basic_string<char, std::char_traits<char>, std::allocator<char> >, Service::Point103>, std::_Select1st<std::pair<const std::basic_string<char, std::char_traits<char>, std::allocator<char> >, Service::Point103> >, std::less<std::basic_string<char, std::char_traits<char>, std::allocator<char> > >, std::allocator<std::pair<const std::basic_string<char, std::char_traits<char>, std::allocator<char> >, Service::Point103> > >::_M_insert_
FUNC 232b0 2e 0 std::pair<std::_Rb_tree_iterator<std::pair<const std::basic_string<char, std::char_traits<char>, std::allocator<char> >, Service::Point103> >, bool>::pair
FUNC 232de 28 0 std::_Rb_tree_iterator<std::pair<const std::basic_string<char, std::char_traits<char>, std::allocator<char> >, Service::Point103> >::operator--
FUNC 23306 1a 0 std::allocator<Tag>::allocator
FUNC 23320 a 0 __gnu_cxx::new_allocator<Tag>::~new_allocator
FUNC 2332a 22 0 __gnu_cxx::new_allocator<Tag>::deallocate
FUNC 2334c 37 0 std::_Destroy_aux<false>::__destroy<Tag*>
FUNC 23384 1a 0 std::allocator<std::_Rb_tree_node<std::pair<const std::basic_string<char, std::char_traits<char>, std::allocator<char> >, Service::Point103> > >::allocator
FUNC 2339e 41 0 std::_Rb_tree<std::basic_string<char, std::char_traits<char>, std::allocator<char> >, std::pair<const std::basic_string<char, std::char_traits<char>, std::allocator<char> >, Service::Point103>, std::_Select1st<std::pair<const std::basic_string<char, std::char_traits<char>, std::allocator<char> >, Service::Point103> >, std::less<std::basic_string<char, std::char_traits<char>, std::allocator<char> > >, std::allocator<std::pair<const std::basic_string<char, std::char_traits<char>, std::allocator<char> >, Service::Point103> > >::_Rb_tree_impl<std::less<std::basic_string<char, std::char_traits<char>, std::allocator<char> > >, false>::_M_initialize
FUNC 233e0 3b 0 std::_Rb_tree<std::basic_string<char, std::char_traits<char>, std::allocator<char> >, std::pair<const std::basic_string<char, std::char_traits<char>, std::allocator<char> >, Service::Point103>, std::_Select1st<std::pair<const std::basic_string<char, std::char_traits<char>, std::allocator<char> >, Service::Point103> >, std::less<std::basic_string<char, std::char_traits<char>, std::allocator<char> > >, std::allocator<std::pair<const std::basic_string<char, std::char_traits<char>, std::allocator<char> >, Service::Point103> > >::get_allocator
FUNC 2341c 1a 0 std::allocator<std::pair<const std::basic_string<char, std::char_traits<char>, std::allocator<char> >, Service::Point103> >::~allocator
FUNC 23436 1e 0 __gnu_cxx::new_allocator<std::pair<const std::basic_string<char, std::char_traits<char>, std::allocator<char> >, Service::Point103> >::destroy
FUNC 23454 2a 0 std::_Rb_tree<std::basic_string<char, std::char_traits<char>, std::allocator<char> >, std::pair<const std::basic_string<char, std::char_traits<char>, std::allocator<char> >, Service::Point103>, std::_Select1st<std::pair<const std::basic_string<char, std::char_traits<char>, std::allocator<char> >, Service::Point103> >, std::less<std::basic_string<char, std::char_traits<char>, std::allocator<char> > >, std::allocator<std::pair<const std::basic_string<char, std::char_traits<char>, std::allocator<char> >, Service::Point103> > >::_M_put_node
FUNC 2347e 2d 0 std::uninitialized_fill_n<char*, long unsigned int, char>
FUNC 234ab e 0 std::__miter_base<Tag*, false>::__b
FUNC 234b9 58 0 std::__copy_move_backward_a2<false, Tag*, Tag*>
FUNC 23512 22 0 std::vector<Tag, std::allocator<Tag> >::max_size
FUNC 23534 63 0 __gnu_cxx::new_allocator<Tag>::allocate
FUNC 23597 31 0 std::__uninitialized_copy_a<Tag*, Tag*, Tag>
FUNC 235c8 12 0 std::_Rb_tree<std::basic_string<char, std::char_traits<char>, std::allocator<char> >, std::pair<const std::basic_string<char, std::char_traits<char>, std::allocator<char> >, Service::Point103>, std::_Select1st<std::pair<const std::basic_string<char, std::char_traits<char>, std::allocator<char> >, Service::Point103> >, std::less<std::basic_string<char, std::char_traits<char>, std::allocator<char> > >, std::allocator<std::pair<const std::basic_string<char, std::char_traits<char>, std::allocator<char> >, Service::Point103> > >::_S_value
FUNC 235da 12 0 std::_Rb_tree<std::basic_string<char, std::char_traits<char>, std::allocator<char> >, std::pair<const std::basic_string<char, std::char_traits<char>, std::allocator<char> >, Service::Point103>, std::_Select1st<std::pair<const std::basic_string<char, std::char_traits<char>, std::allocator<char> >, Service::Point103> >, std::less<std::basic_string<char, std::char_traits<char>, std::allocator<char> > >, std::allocator<std::pair<const std::basic_string<char, std::char_traits<char>, std::allocator<char> >, Service::Point103> > >::_S_value
FUNC 235ec bd 0 std::_Rb_tree<std::basic_string<char, std::char_traits<char>, std::allocator<char> >, std::pair<const std::basic_string<char, std::char_traits<char>, std::allocator<char> >, Service::Point103>, std::_Select1st<std::pair<const std::basic_string<char, std::char_traits<char>, std::allocator<char> >, Service::Point103> >, std::less<std::basic_string<char, std::char_traits<char>, std::allocator<char> > >, std::allocator<std::pair<const std::basic_string<char, std::char_traits<char>, std::allocator<char> >, Service::Point103> > >::_M_create_node
FUNC 236aa a 0 __gnu_cxx::new_allocator<Tag>::new_allocator
FUNC 236b4 1a 0 std::_Destroy<Tag>
FUNC 236ce a 0 __gnu_cxx::new_allocator<std::_Rb_tree_node<std::pair<const std::basic_string<char, std::char_traits<char>, std::allocator<char> >, Service::Point103> > >::new_allocator
FUNC 236d8 e 0 std::_Rb_tree<std::basic_string<char, std::char_traits<char>, std::allocator<char> >, std::pair<const std::basic_string<char, std::char_traits<char>, std::allocator<char> >, Service::Point103>, std::_Select1st<std::pair<const std::basic_string<char, std::char_traits<char>, std::allocator<char> >, Service::Point103> >, std::less<std::basic_string<char, std::char_traits<char>, std::allocator<char> > >, std::allocator<std::pair<const std::basic_string<char, std::char_traits<char>, std::allocator<char> >, Service::Point103> > >::_M_get_Node_allocator
FUNC 236e6 1e 0 std::allocator<std::pair<const std::basic_string<char, std::char_traits<char>, std::allocator<char> >, Service::Point103> >::allocator<std::_Rb_tree_node<std::pair<const std::basic_string<char, std::char_traits<char>, std::allocator<char> >, Service::Point103> > >
FUNC 23704 a 0 __gnu_cxx::new_allocator<std::pair<const std::basic_string<char, std::char_traits<char>, std::allocator<char> >, Service::Point103> >::~new_allocator
FUNC 2370e 22 0 __gnu_cxx::new_allocator<std::_Rb_tree_node<std::pair<const std::basic_string<char, std::char_traits<char>, std::allocator<char> >, Service::Point103> > >::deallocate
FUNC 23730 2d 0 std::__uninitialized_fill_n<true>::uninitialized_fill_n<char*, long unsigned int, char>
FUNC 2375d e 0 std::__niter_base<Tag*, false>::__b
FUNC 2376b 31 0 std::__copy_move_backward_a<false, Tag*, Tag*>
FUNC 2379c e 0 std::_Vector_base<Tag, std::allocator<Tag> >::_M_get_Tp_allocator
FUNC 237aa 14 0 __gnu_cxx::new_allocator<Tag>::max_size
FUNC 237be 2d 0 std::uninitialized_copy<Tag*, Tag*>
FUNC 237ec 24 0 std::_Rb_tree<std::basic_string<char, std::char_traits<char>, std::allocator<char> >, std::pair<const std::basic_string<char, std::char_traits<char>, std::allocator<char> >, Service::Point103>, std::_Select1st<std::pair<const std::basic_string<char, std::char_traits<char>, std::allocator<char> >, Service::Point103> >, std::less<std::basic_string<char, std::char_traits<char>, std::allocator<char> > >, std::allocator<std::pair<const std::basic_string<char, std::char_traits<char>, std::allocator<char> >, Service::Point103> > >::_M_get_node
FUNC 23810 6b 0 std::pair<const std::basic_string<char, std::char_traits<char>, std::allocator<char> >, Service::Point103>::pair
FUNC 2387c 77 0 __gnu_cxx::new_allocator<std::pair<const std::basic_string<char, std::char_traits<char>, std::allocator<char> >, Service::Point103> >::construct
FUNC 238f4 a 0 __gnu_cxx::new_allocator<std::pair<const std::basic_string<char, std::char_traits<char>, std::allocator<char> >, Service::Point103> >::new_allocator
FUNC 238fe 35 0 std::fill_n<char*, long unsigned int, char>
FUNC 23933 6d 0 std::__copy_move_backward<false, false, std::random_access_iterator_tag>::__copy_move_b<Tag*, Tag*>
FUNC 239a0 98 0 std::__uninitialized_copy<false>::uninitialized_copy<Tag*, Tag*>
FUNC 23a38 5c 0 __gnu_cxx::new_allocator<std::_Rb_tree_node<std::pair<const std::basic_string<char, std::char_traits<char>, std::allocator<char> >, Service::Point103> > >::allocate
FUNC 23a94 41 0 std::__fill_n_a<long unsigned int, char>
FUNC 23ad5 de 0 std::_Construct<Tag, Tag>
FUNC 23bb4 14 0 __gnu_cxx::new_allocator<std::_Rb_tree_node<std::pair<const std::basic_string<char, std::char_traits<char>, std::allocator<char> >, Service::Point103> > >::max_size
FUNC 23bc8 49 0 std::__fill_a<char>
FUNC 23c14 db 0 TcpNet::TcpNet
FUNC 23cf0 7c 0 TcpNet::~TcpNet
FUNC 23d6c 26 0 TcpNet::~TcpNet
FUNC 23d92 17d 0 TcpNet::Connect
FUNC 23f10 15d 0 TcpNet::Read
FUNC 2406e e8 0 TcpNet::Write
FUNC 24156 2c 0 TcpNet::DisConnect
FUNC 24182 48 0 __static_initialization_and_destruction_0
FUNC 241ca 15 0 _GLOBAL__I_TcpNet.cpp
FUNC 241e0 91 0 TcpService::TcpService
FUNC 24272 7e 0 TcpService::~TcpService
FUNC 242f0 26 0 TcpService::~TcpService
FUNC 24316 18f 0 TcpService::Start
FUNC 244a6 622 0 TcpService::Write
FUNC 24ac8 581 0 TcpService::Read
FUNC 2504a 20b 0 TcpService::ParseRecvData
FUNC 25256 11f 0 TcpService::CmdConnection
FUNC 25376 11f 0 TcpService::CmdGetTest1
FUNC 25496 11f 0 TcpService::CmdGetTest2
FUNC 255b6 2a7 0 TcpService::CmdGetAll
FUNC 2585e 2e1 0 TcpService::CmdGetGroupData
FUNC 25b40 15b 0 TcpService::ParseVariableData
FUNC 25c9c 379 0 TcpService::ParseASDU1
FUNC 26016 120 0 TcpService::ParseASDU10
FUNC 26136 82f 0 TcpService::ParseASDU10AllValue
FUNC 26966 2fe 0 TcpService::ParseASDU40
FUNC 26c64 3c 0 TcpService::ParseASDU41
FUNC 26ca0 391 0 TcpService::ParseASDU42
FUNC 27032 388 0 TcpService::ParseASDU44
FUNC 273ba 465 0 TcpService::ParseASDU50
FUNC 27820 8e 0 TcpService::InitConfig
FUNC 278ae 14 0 TcpService::GetSendID
FUNC 278c2 14 0 TcpService::GetRecvID
FUNC 278d6 ca 0 __static_initialization_and_destruction_0
FUNC 279a0 15 0 _GLOBAL__I_TcpService.cpp
FUNC 279b8 107 0 UdpNet::UdpNet
FUNC 27ac0 7c 0 UdpNet::~UdpNet
FUNC 27b3c 26 0 UdpNet::~UdpNet
FUNC 27b62 139 0 UdpNet::Connect
FUNC 27c9c c3 0 UdpNet::Read
FUNC 27d60 ce 0 UdpNet::Write
FUNC 27e2e 2c 0 UdpNet::DisConnect
FUNC 27e5a 48 0 __static_initialization_and_destruction_0
FUNC 27ea2 15 0 _GLOBAL__I_UdpNet.cpp
FUNC 27eb8 1c 0 WarningLib::WarningLib
FUNC 27ed4 35 0 WarningLib::~WarningLib
FUNC 27f0a 26 0 WarningLib::~WarningLib
FUNC 27f30 74 0 WarningLib::GetInstance
FUNC 27fa4 2f4 0 WarningLib::Init
FUNC 28298 96 0 WarningLib::GetFunction
FUNC 2832e 2b 0 WarningLib::Start
FUNC 2835a 36 0 WarningLib::WriteWarn
FUNC 28390 63 0 WarningLib::WriteWarn2
FUNC 283f4 2b 0 WarningLib::Stop
FUNC 28420 d 0 mysql_get_parameters
FUNC 28430 6 0 mysql_debug
FUNC 28440 6 0 my_pipe_sig_handler
FUNC 28450 29 0 mysql_set_local_infile_handler
FUNC 28480 3e 0 mysql_set_local_infile_default
FUNC 284c0 29 0 mysql_fetch_field
FUNC 284f0 47 0 mysql_data_seek
FUNC 28540 16 0 mysql_row_seek
FUNC 28560 12 0 mysql_field_seek
FUNC 28580 3e 0 mysql_shutdown
FUNC 285c0 3e 0 mysql_refresh
FUNC 28600 55 0 mysql_kill
FUNC 28660 3e 0 mysql_set_server_option
FUNC 286a0 36 0 mysql_dump_debug_info
FUNC 286e0 66 0 mysql_stat
FUNC 28750 36 0 mysql_ping
FUNC 28790 d 0 mysql_get_server_info
FUNC 287a0 d 0 mysql_get_host_info
FUNC 287b0 c 0 mysql_get_proto_info
FUNC 287c0 d 0 mysql_get_client_info
FUNC 287d0 b 0 mysql_get_client_version
FUNC 287e0 d 0 mysql_eof
FUNC 287f0 10 0 mysql_fetch_field_direct
FUNC 28800 a 0 mysql_fetch_fields
FUNC 28810 a 0 mysql_row_tell
FUNC 28820 c 0 mysql_field_tell
FUNC 28830 c 0 mysql_field_count
FUNC 28840 d 0 mysql_affected_rows
FUNC 28850 d 0 mysql_insert_id
FUNC 28860 24 0 mysql_sqlstate
FUNC 28890 c 0 mysql_warning_count
FUNC 288a0 d 0 mysql_info
FUNC 288b0 d 0 mysql_thread_id
FUNC 288c0 11 0 mysql_character_set_name
FUNC 288e0 90 0 mysql_get_character_set_info
FUNC 28970 b 0 mysql_thread_safe
FUNC 28980 8 0 mysql_embedded
FUNC 28990 67 0 mysql_hex_string
FUNC 28a00 1e0 0 myodbc_remove_escape
FUNC 28be0 8 0 mysql_stmt_param_metadata
FUNC 28bf0 1b 0 store_param_tinyint
FUNC 28c10 19 0 store_param_short
FUNC 28c30 17 0 store_param_int32
FUNC 28c50 19 0 store_param_int64
FUNC 28c70 17 0 store_param_float
FUNC 28c90 19 0 store_param_double
FUNC 28cb0 3e 0 stmt_read_row_buffered
FUNC 28cf0 b 0 stmt_read_row_no_data
FUNC 28d00 4e 0 mysql_stmt_attr_get
FUNC 28d50 c 0 mysql_stmt_param_count
FUNC 28d60 d 0 mysql_stmt_affected_rows
FUNC 28d70 c 0 mysql_stmt_field_count
FUNC 28d80 d 0 mysql_stmt_insert_id
FUNC 28d90 34 0 fetch_result_tinyint
FUNC 28dd0 35 0 fetch_result_short
FUNC 28e10 33 0 fetch_result_int32
FUNC 28e50 c 0 skip_result_fixed
FUNC 28e60 488 0 setup_one_fetch_function
FUNC 292f0 180 0 mysql_stmt_fetch
FUNC 29470 14 0 mysql_stmt_row_seek
FUNC 29490 d 0 mysql_stmt_row_tell
FUNC 294a0 55 0 mysql_stmt_data_seek
FUNC 29500 d 0 mysql_stmt_num_rows
FUNC 29510 c 0 mysql_stmt_errno
FUNC 29520 d 0 mysql_stmt_sqlstate
FUNC 29530 d 0 mysql_stmt_error
FUNC 29540 12 0 mysql_more_results
FUNC 29560 12 0 mysql_use_result
FUNC 29580 11 0 mysql_read_query_result
FUNC 295a0 5c 0 set_stmt_errmsg
FUNC 29600 167 0 stmt_read_row_from_cursor
FUNC 29770 1f0 0 reset_stmt_handle
FUNC 29960 f 0 mysql_stmt_free_result
FUNC 29970 70 0 set_stmt_error
FUNC 299e0 21 0 stmt_read_row_no_result_set
FUNC 29a10 111 0 stmt_read_row_unbuffered
FUNC 29b30 3d 0 mysql_stmt_reset
FUNC 29b70 7b 0 mysql_stmt_attr_set
FUNC 29bf0 1fb 0 mysql_stmt_prepare
FUNC 29df0 239 0 alloc_stmt_fields
FUNC 2a030 52 0 cli_read_statistics
FUNC 2a090 70 0 mysql_next_result
FUNC 2a100 26 0 mysql_autocommit
FUNC 2a130 17 0 mysql_rollback
FUNC 2a150 17 0 mysql_commit
FUNC 2a170 151 0 mysql_stmt_close
FUNC 2a2d0 1f 0 fetch_result_double
FUNC 2a2f0 1b 0 fetch_result_float
FUNC 2a310 3a 0 fetch_result_int64
FUNC 2a350 ad 0 store_param_datetime
FUNC 2a400 a5 0 store_param_time
FUNC 2a4b0 180 0 cli_read_binary_rows
FUNC 2a630 4b 0 cli_unbuffered_fetch
FUNC 2a680 37 0 skip_result_string
FUNC 2a6c0 1e 0 skip_result_with_length
FUNC 2a6e0 7c 0 fetch_result_str
FUNC 2a760 6e 0 fetch_result_bin
FUNC 2a7d0 361 0 fetch_string_with_conversion
FUNC 2ab40 35b 0 fetch_long_with_conversion
FUNC 2aea0 32a 0 fetch_float_with_conversion
FUNC 2b1d0 1ca 0 fetch_datetime_with_conversion
FUNC 2b3a0 39e 0 fetch_result_with_conversion
FUNC 2b740 110 0 mysql_stmt_fetch_column
FUNC 2b850 1d3 0 mysql_stmt_bind_result
FUNC 2ba30 35a 0 mysql_stmt_store_result
FUNC 2bd90 165 0 mysql_stmt_next_result
FUNC 2bf00 1f5 0 mysql_stmt_execute
FUNC 2c100 161 0 mysql_stmt_send_long_data
FUNC 2c270 3a8 0 mysql_stmt_bind_param
FUNC 2c620 61 0 store_param_str
FUNC 2c690 88 0 mysql_stmt_result_metadata
FUNC 2c720 113 0 mysql_stmt_init
FUNC 2c840 133 0 cli_read_prepare_result
FUNC 2c980 3d 0 mysql_real_escape_string
FUNC 2c9c0 22 0 mysql_escape_string
FUNC 2c9f0 62 0 my_net_local_init
FUNC 2ca60 e6 0 mysql_list_processes
FUNC 2cb50 148 0 mysql_list_fields
FUNC 2cca0 4c 0 default_local_infile_error
FUNC 2ccf0 67 0 cli_list_fields
FUNC 2cd60 35 0 mysql_query
FUNC 2cda0 e7 0 mysql_list_dbs
FUNC 2ce90 37 0 default_local_infile_end
FUNC 2ced0 9c 0 default_local_infile_read
FUNC 2cf70 e6 0 default_local_infile_init
FUNC 2d060 1dd 0 handle_local_infile
FUNC 2d240 af 0 read_user_name
FUNC 2d2f0 18e 0 mysql_change_user
FUNC 2d480 a 0 mysql_thread_end
FUNC 2d490 a 0 mysql_thread_init
FUNC 2d4a0 51 0 mysql_server_end
FUNC 2d500 115 0 mysql_server_init
FUNC 2d620 c9 0 store_param_date
FUNC 2d6f0 d7 0 mysql_list_tables
FUNC 2d7d0 8c 0 fetch_result_date
FUNC 2d860 a1 0 fetch_result_time
FUNC 2d910 a1 0 fetch_result_datetime
FUNC 2d9c0 786 0 cli_stmt_execute
FUNC 2e150 27 0 mysql_plugin_options
FUNC 2e180 139 0 do_add_plugin
FUNC 2e2c0 98 0 add_plugin_noargs
FUNC 2e360 d1 0 mysql_client_plugin_deinit
FUNC 2e440 349 0 mysql_load_plugin_v
FUNC 2e790 98 0 mysql_load_plugin
FUNC 2e830 12b 0 mysql_client_find_plugin
FUNC 2e960 219 0 mysql_client_plugin_init
FUNC 2eb80 1a8 0 mysql_client_register_plugin
FUNC 2ed30 4f 0 calc_days_in_year
FUNC 2ed80 1b 0 set_max_hhmmss
FUNC 2eda0 d9 0 check_date
FUNC 2ee80 27 0 check_time_mmssff_range
FUNC 2eeb0 4a 0 check_time_range_quick
FUNC 2ef00 57 0 check_datetime_range
FUNC 2ef60 46 0 adjust_time_range
FUNC 2efb0 1a 0 year_2000_handling
FUNC 2efd0 a8 0 calc_daynr
FUNC 2f080 4f 0 TIME_to_ulonglong_datetime
FUNC 2f0d0 25 0 TIME_to_ulonglong_date
FUNC 2f100 26 0 TIME_to_ulonglong_time
FUNC 2f130 4e 0 TIME_set_yymmdd
FUNC 2f180 4f 0 TIME_set_hhmmss
FUNC 2f1d0 36 0 TIME_to_ulonglong
FUNC 2f210 3f 0 TIME_to_longlong_time_packed
FUNC 2f250 7d 0 TIME_from_longlong_time_packed
FUNC 2f2d0 e 0 my_time_binary_length
FUNC 2f2e0 13f 0 my_time_packed_to_binary
FUNC 2f420 125 0 my_time_packed_from_binary
FUNC 2f550 45 0 TIME_to_longlong_datetime_packed
FUNC 2f5a0 1b 0 TIME_to_longlong_date_packed
FUNC 2f5c0 12 0 year_to_longlong_datetime_packed
FUNC 2f5e0 d3 0 TIME_from_longlong_datetime_packed
FUNC 2f6c0 1f 0 TIME_from_longlong_date_packed
FUNC 2f6e0 e 0 my_datetime_binary_length
FUNC 2f6f0 e4 0 my_datetime_packed_from_binary
FUNC 2f7e0 10f 0 my_datetime_packed_to_binary
FUNC 2f8f0 e 0 my_timestamp_binary_length
FUNC 2f900 e0 0 my_timestamp_from_binary
FUNC 2f9e0 b4 0 my_timestamp_to_binary
FUNC 2faa0 36 0 TIME_to_longlong_packed
FUNC 2fae0 2ca 0 number_to_datetime
FUNC 2fdb0 30 0 set_zero_time
FUNC 2fde0 995 0 str_to_datetime
FUNC 30780 37 0 set_max_time
FUNC 307c0 1a5 0 number_to_time
FUNC 30970 187 0 my_datetime_to_str
FUNC 30b00 22 0 my_date_to_str
FUNC 30b30 461 0 my_system_gmt_sec
FUNC 30fa0 80 0 my_init_time
FUNC 31020 68e 0 str_to_time
FUNC 316b0 ab 0 my_time_to_str
FUNC 31760 66 0 my_TIME_to_str
FUNC 317d0 8a 0 my_timeval_to_str
FUNC 31860 e 0 my_net_is_inited
FUNC 31870 62 0 cli_fetch_lengths
FUNC 318e0 36 0 mysql_send_query
FUNC 31920 32 0 mysql_real_query
FUNC 31960 3a 0 mysql_fetch_lengths
FUNC 319a0 10 0 get_attr_key
FUNC 319b0 9 0 mysql_num_rows
FUNC 319c0 c 0 mysql_num_fields
FUNC 319d0 23 0 mysql_errno
FUNC 31a00 18 0 mysql_error
FUNC 31a20 3e 0 clear_password_auth_client
FUNC 31a60 44 0 write_string
FUNC 31ab0 c1 0 native_password_auth_client
FUNC 31b80 60 0 write_length_encoded_string4
FUNC 31be0 89 0 mysql_select_db
FUNC 31c70 89 0 add_init_command
FUNC 31d00 7b 0 set_ssl_option_unpack_path
FUNC 31d80 7e9 0 mysql_options
FUNC 32570 b5 0 mysql_ssl_set
FUNC 32630 245 0 mysql_close_free_options
FUNC 32880 92 0 mysql_detach_stmt_list
FUNC 32920 2c 0 net_clear_error
FUNC 32950 c0 0 set_mysql_error
FUNC 32a10 11c 0 old_password_auth_client
FUNC 32b30 b4 0 mysql_get_server_version
FUNC 32bf0 2b3 0 mysql_options4
FUNC 32eb0 1be 0 mysql_store_result
FUNC 33070 18d 0 cli_use_result
FUNC 33200 d2 0 mpvio_info
FUNC 332e0 11 0 client_mpvio_info
FUNC 33300 105 0 send_client_connect_attrs
FUNC 33410 1d1 0 send_change_user_packet
FUNC 335f0 22 0 mysql_get_ssl_cipher
FUNC 33620 cb 0 mysql_init
FUNC 336f0 767 0 mysql_read_default_options
FUNC 33e60 72 0 free_old_query
FUNC 33ee0 37 0 free_rows
FUNC 33f20 523 0 unpack_fields
FUNC 34450 cd 0 mysql_free_result
FUNC 34520 103 0 end_server
FUNC 34630 15e 0 cli_safe_read
FUNC 34790 245 0 mysql_fetch_row
FUNC 349e0 b 0 cli_read_change_user_result
FUNC 349f0 354 0 cli_read_rows
FUNC 34d50 1f8 0 cli_read_query_result
FUNC 34f50 9b 0 opt_flush_ok_packet
FUNC 34ff0 64 0 flush_one_result
FUNC 35060 62 0 cli_flush_use_result
FUNC 350d0 c6 0 set_mysql_extended_error
FUNC 351a0 481 0 run_plugin_auth
FUNC 35630 7cf 0 send_client_reply_packet
FUNC 35e00 c7 0 client_mpvio_write_packet
FUNC 35ed0 2b5 0 mysql_init_character_set
FUNC 36190 1ac 0 mysql_set_character_set
FUNC 36340 106f 0 mysql_real_connect
FUNC 373b0 16b 0 client_mpvio_read_packet
FUNC 37520 12e 0 mysql_close
FUNC 37650 222 0 mysql_reconnect
FUNC 37880 219 0 cli_advanced_command
FUNC 37aa0 71 0 net_field_length
FUNC 37b20 71 0 net_field_length_ll
FUNC 37ba0 71 0 net_store_length
FUNC 37c20 c8 0 int10_to_str
FUNC 37cf0 11d 0 int2str
FUNC 37e10 28 0 bmove_upp
FUNC 37e40 13 0 my_coll_init_8bit_bin
FUNC 37e60 9 0 my_lengthsp_binary
FUNC 37e70 95 0 my_strnncollsp_8bit_bin
FUNC 37f10 8 0 my_case_str_bin
FUNC 37f20 9 0 my_case_bin
FUNC 37f30 b 0 my_mbcharlen_8bit
FUNC 37f40 1b 0 my_mb_wc_bin
FUNC 37f60 20 0 my_wc_mb_bin
FUNC 37f80 c2 0 my_hash_sort_8bit_bin
FUNC 38050 4a 0 my_hash_sort_bin
FUNC 380a0 231 0 my_wildcmp_bin_impl
FUNC 382e0 24 0 my_wildcmp_bin
FUNC 38310 127 0 my_instr_bin
FUNC 38440 36 0 my_strnncoll_binary
FUNC 38480 36 0 my_strnncoll_8bit_bin
FUNC 384c0 10 0 my_strcasecmp_bin
FUNC 384d0 8f 0 my_strnxfrm_8bit_bin
FUNC 38560 2b 0 my_strnncollsp_binary
FUNC 38590 87 0 Balloc
FUNC 38620 36 0 Bfree
FUNC 38660 391 0 d2b
FUNC 38a00 262 0 lshift
FUNC 38c70 166 0 multadd
FUNC 38de0 915 0 pow5mult
FUNC 39700 1d46 0 my_strtod
FUNC 3b450 22 0 my_atof
FUNC 3b480 20fd 0 dtoa
FUNC 3d580 32d 0 my_fcvt
FUNC 3d8b0 6d9 0 my_gcvt
FUNC 3df90 1e 0 strend
FUNC 3dfb0 9e 0 strxnmov
FUNC 3e050 3c4 0 my_strtoll10
FUNC 3e420 16e 0 process_str_arg
FUNC 3e590 1db 0 process_int_arg
FUNC 3e770 848 0 process_args
FUNC 3efc0 5cc 0 my_vsnprintf_ex
FUNC 3f590 1d 0 my_vsnprintf
FUNC 3f5b0 96 0 my_snprintf
FUNC 3f650 1d 0 my_strnxfrmlen_simple
FUNC 3f670 71 0 my_strnncoll_simple
FUNC 3f6f0 c2 0 my_strnncollsp_simple
FUNC 3f7c0 39 0 my_caseup_str_8bit
FUNC 3f800 39 0 my_casedn_str_8bit
FUNC 3f840 2c 0 my_caseup_8bit
FUNC 3f870 2c 0 my_casedn_8bit
FUNC 3f8a0 4c 0 my_strcasecmp_8bit
FUNC 3f8f0 32 0 my_mb_wc_8bit
FUNC 3f930 66 0 my_wc_mb_8bit
FUNC 3f9a0 cf 0 my_hash_sort_simple
FUNC 3fa70 203 0 my_strntol_8bit
FUNC 3fc80 1b0 0 my_strntoul_8bit
FUNC 3fe30 219 0 my_strntoll_8bit
FUNC 40050 1d5 0 my_strntoull_8bit
FUNC 40230 267 0 my_wildcmp_8bit_impl
FUNC 404a0 24 0 my_wildcmp_8bit
FUNC 404d0 281 0 my_like_range_simple
FUNC 40760 80 0 my_scan_8bit
FUNC 407e0 c 0 my_numchars_8bit
FUNC 407f0 c 0 my_numcells_8bit
FUNC 40800 9 0 my_charpos_8bit
FUNC 40810 1a 0 my_well_formed_len_8bit
FUNC 40830 147 0 my_instr_simple
FUNC 40980 16 0 pcmp
FUNC 409a0 54 0 my_coll_init_simple
FUNC 40a00 2d 0 my_mb_ctype_8bit
FUNC 40a30 4b5 0 my_strntoull10rnd_8bit
FUNC 40ef0 b 0 my_propagate_simple
FUNC 40f00 8 0 my_propagate_complex
FUNC 40f10 155 0 my_strxfrm_flag_normalize
FUNC 41070 145 0 my_strxfrm_desc_and_reverse
FUNC 411c0 fc 0 my_strxfrm_pad_desc_and_reverse
FUNC 412c0 b5 0 my_strnxfrm_simple
FUNC 41380 f 0 my_fill_8bit
FUNC 41390 267 0 create_fromuni
FUNC 41600 1f 0 my_cset_init_8bit
FUNC 41620 13 0 my_strtoll10_8bit
FUNC 41640 117 0 my_longlong10_to_str_8bit
FUNC 41760 e2 0 my_long10_to_str_8bit
FUNC 41850 2a 0 my_strntod_8bit
FUNC 41880 9a 0 my_snprintf_8bit
FUNC 41920 b3 0 my_lengthsp_8bit
FUNC 419e0 35 0 strmake
FUNC 41a20 90 0 my_string_repertoire
FUNC 41ab0 19 0 my_charset_repertoire
FUNC 41ad0 4a 0 my_charset_is_ascii_based
FUNC 41b20 37 0 my_charset_is_8bit_pure_ascii
FUNC 41b60 37 0 my_charset_is_ascii_compatible
FUNC 41ba0 c5 0 tailoring_append
FUNC 41c70 15c 0 my_parse_charset_xml
FUNC 41dd0 d9 0 fill_uchar
FUNC 41eb0 22b 0 cs_leave
FUNC 420e0 2c4 0 my_convert
FUNC 423b0 abf 0 cs_value
FUNC 42e70 1c1 0 cs_enter
FUNC 43040 22 0 strcend
FUNC 43070 19 0 my_strnxfrmlen_unicode_full_bin
FUNC 43090 c9 0 my_utf8_uni
FUNC 43160 a6 0 my_uni_utf8
FUNC 43210 15a 0 my_casedn_str_utf8
FUNC 43370 1e 0 my_strnxfrmlen_utf8
FUNC 43390 2e 0 my_mbcharlen_utf8
FUNC 433c0 131 0 my_mb_wc_filename
FUNC 43500 184 0 my_wc_mb_filename
FUNC 43690 179 0 my_mb_wc_utf8mb4
FUNC 43810 d4 0 my_wc_mb_utf8mb4
FUNC 438f0 f 0 my_strnxfrmlen_utf8mb4
FUNC 43900 e5 0 my_ismbchar_utf8mb4
FUNC 439f0 38 0 my_mbcharlen_utf8mb4
FUNC 43a30 1c1 0 my_strnxfrm_unicode_full_bin
FUNC 43c00 1ba 0 my_hash_sort_utf8mb4
FUNC 43dc0 299 0 my_strnncollsp_utf8mb4
FUNC 44060 25a 0 my_strnncoll_utf8mb4
FUNC 442c0 351 0 my_strnxfrm_unicode
FUNC 44620 15a 0 my_caseup_str_utf8
FUNC 44780 eb 0 my_well_formed_len_utf8
FUNC 44870 177 0 my_well_formed_len_utf8mb4
FUNC 449f0 175 0 my_caseup_utf8mb4
FUNC 44b70 175 0 my_casedn_utf8mb4
FUNC 44cf0 235 0 my_casedn_str_utf8mb4
FUNC 44f30 235 0 my_caseup_str_utf8mb4
FUNC 45170 7d 0 my_ismbchar_utf8
FUNC 451f0 3cb 0 my_strnncollsp_utf8
FUNC 455c0 396 0 my_strnncoll_utf8
FUNC 45960 1c7 0 my_caseup_utf8
FUNC 45b30 1c7 0 my_hash_sort_utf8
FUNC 45d00 1c7 0 my_casedn_utf8
FUNC 45ed0 34e 0 my_strcasecmp_utf8mb4
FUNC 46220 21c 0 my_strcasecmp_utf8
FUNC 46440 4de 0 my_wildcmp_unicode_impl
FUNC 46920 2d 0 my_wildcmp_unicode
FUNC 46950 25 0 my_wildcmp_utf8
FUNC 46980 25 0 my_wildcmp_utf8mb4
FUNC 469b0 35 0 my_mb_wc_latin1
FUNC 469f0 51 0 my_wc_mb_latin1
FUNC 46a50 c4 0 my_strnncoll_latin1_de
FUNC 46b20 109 0 my_strnncollsp_latin1_de
FUNC 46c30 111 0 my_hash_sort_latin1_de
FUNC 46d50 bd 0 my_strnxfrm_latin1_de
FUNC 46e10 17 0 vio_buff_has_data
FUNC 46e30 c 0 vio_type
FUNC 46e40 8 0 vio_fd
FUNC 46e50 c 0 vio_is_no_name_error
FUNC 46e60 41 0 vio_getnameinfo
FUNC 46eb0 d 0 vio_errno
FUNC 46ec0 11 0 vio_was_timeout
FUNC 46ee0 11 0 vio_should_retry
FUNC 46f00 bc 0 vio_io_wait
FUNC 46fc0 90 0 vio_is_connected
FUNC 47050 35 0 vio_socket_io_wait
FUNC 47090 240 0 vio_peer_addr
FUNC 472d0 4d 0 vio_description
FUNC 47320 175 0 vio_shutdown
FUNC 474a0 12a 0 vio_write
FUNC 475d0 11a 0 vio_read
FUNC 476f0 ee 0 vio_read_buff
FUNC 477e0 272 0 vio_socket_connect
FUNC 47a60 195 0 vio_fastsend
FUNC 47c00 ca 0 vio_get_normalized_ip_string
FUNC 47cd0 101 0 vio_keepalive
FUNC 47de0 ab 0 vio_socket_timeout
FUNC 47e90 8 0 has_no_data
FUNC 47ea0 63 0 vio_timeout
FUNC 47f10 c 0 vio_end
FUNC 47f20 47 0 vio_delete
FUNC 47f70 326 0 mysql_socket_vio_new
FUNC 482a0 32 0 vio_new
FUNC 482e0 39e 0 vio_reset
FUNC 48680 13 0 sslGetErrString
FUNC 486a0 22 0 free_vio_ssl_acceptor_fd
FUNC 486d0 43 0 report_errors
FUNC 48720 45 0 ssl_start
FUNC 48770 361 0 new_VioSSLFd
FUNC 48ae0 65 0 new_VioSSLAcceptorFd
FUNC 48b50 75 0 new_VioSSLConnectorFd
FUNC 48bd0 17 0 vio_ssl_has_data
FUNC 48bf0 a 0 yassl_send
FUNC 48c00 a 0 yassl_recv
FUNC 48c10 46 0 vio_ssl_shutdown
FUNC 48c60 57 0 vio_ssl_delete
FUNC 48cc0 ac 0 vio_ssl_write
FUNC 48d70 ac 0 vio_ssl_read
FUNC 48e20 19c 0 ssl_do
FUNC 48fc0 14 0 sslconnect
FUNC 48fe0 14 0 sslaccept
FUNC 49000 b8 0 my_realpath
FUNC 490c0 3c 0 my_is_symlink
FUNC 49100 c3 0 my_symlink
FUNC 491d0 cc 0 my_readlink
FUNC 492a0 1f 0 pop_dynamic
FUNC 492c0 5c 0 freeze_size
FUNC 49320 2b 0 delete_dynamic_element
FUNC 49350 3e 0 delete_dynamic
FUNC 49390 36 0 get_dynamic
FUNC 493d0 bd 0 allocate_dynamic
FUNC 49490 87 0 set_dynamic
FUNC 49520 b7 0 alloc_dynamic
FUNC 495e0 54 0 insert_dynamic
FUNC 49640 a9 0 init_dynamic_array2
FUNC 496f0 11 0 init_dynamic_array
FUNC 49710 14e 0 my_multi_malloc
FUNC 49860 51a 0 my_read
FUNC 49d80 6 0 init_glob_errs
FUNC 49d90 d 0 get_global_errmsgs
FUNC 49da0 8f 0 wait_for_free_space
FUNC 49e30 3d 0 list_add
FUNC 49e70 39 0 list_delete
FUNC 49eb0 2b 0 list_reverse
FUNC 49ee0 1e 0 list_length
FUNC 49f00 42 0 list_walk
FUNC 49f50 53 0 list_cons
FUNC 49fb0 57 0 list_free
FUNC 4a010 5e 0 set_prealloc_root
FUNC 4a070 121 0 free_root
FUNC 4a1a0 138 0 alloc_root
FUNC 4a2e0 49 0 memdup_root
FUNC 4a330 4f 0 strmake_root
FUNC 4a380 36 0 strdup_root
FUNC 4a3c0 146 0 multi_alloc_root
FUNC 4a510 cd 0 reset_root_defaults
FUNC 4a5e0 a3 0 init_alloc_root
FUNC 4a690 7c 0 my_init_mysys_psi_keys
FUNC 4a710 1fb 0 my_end
FUNC 4a910 1a4 0 my_init
FUNC 4aac0 79 0 intern_filename
FUNC 4ab40 20 0 system_filename
FUNC 4ab60 380 0 cleanup_dirname
FUNC 4aee0 9b 0 normalize_dirname
FUNC 4af80 180 0 unpack_dirname
FUNC 4b100 a1 0 unpack_filename
FUNC 4b1b0 24d 0 pack_dirname
FUNC 4b400 6b 0 my_get_err_msg
FUNC 4b470 11 0 my_message
FUNC 4b490 48 0 my_error_unregister_all
FUNC 4b4e0 69 0 my_error_unregister
FUNC 4b550 a9 0 my_error_register
FUNC 4b600 54 0 my_printv_error
FUNC 4b660 cd 0 my_printf_warning
FUNC 4b730 df 0 my_printf_error
FUNC 4b810 10f 0 my_error
FUNC 4b920 89 0 my_strerror
FUNC 4b9b0 29 0 get_type
FUNC 4b9e0 145 0 copy_typelib
FUNC 4bb30 3c 0 make_type
FUNC 4bb70 21c 0 find_type
FUNC 4bd90 1bf 0 find_set_from_flags
FUNC 4bf50 e2 0 find_typeset
FUNC 4c040 e2 0 find_type_or_exit
FUNC 4c130 33 0 cset_hash_sort_adapter
FUNC 4c170 6a 0 my_hash_reset
FUNC 4c1e0 14 0 my_calc_hash
FUNC 4c200 180 0 my_hash_next
FUNC 4c380 1b 0 my_hash_element
FUNC 4c3a0 1c 0 my_hash_replace
FUNC 4c3c0 74 0 my_hash_free
FUNC 4c440 66 0 _my_hash_init
FUNC 4c4b0 1a2 0 my_hash_first_from_hash_value
FUNC 4c660 87 0 my_hash_first
FUNC 4c6f0 13 0 my_hash_search
FUNC 4c710 13 0 my_hash_search_using_hash_value
FUNC 4c730 304 0 my_hash_update
FUNC 4ca40 4e0 0 my_hash_insert
FUNC 4cf20 3fc 0 my_hash_delete
FUNC 4d320 6 0 proc_info_dummy
FUNC 4d330 58 0 strlength
FUNC 4d390 307 0 fn_format
FUNC 4d6a0 33 0 dirname_length
FUNC 4d6e0 6d 0 convert_dirname
FUNC 4d750 5a 0 dirname_part
FUNC 4d7b0 a 0 my_free
FUNC 4d7c0 c6 0 my_malloc
FUNC 4d890 51 0 my_strndup
FUNC 4d8f0 53 0 my_strdup
FUNC 4d950 4b 0 my_memdup
FUNC 4d9a0 ba 0 my_realloc
FUNC 4da60 49 0 my_filename
FUNC 4dab0 3d 0 my_once_free
FUNC 4daf0 118 0 my_once_alloc
FUNC 4dc10 4b 0 my_once_memdup
FUNC 4dc60 53 0 my_once_strdup
FUNC 4dcc0 46 0 test_if_hard_path
FUNC 4dd10 16 0 has_path
FUNC 4dd30 125 0 my_setwd
FUNC 4de60 f7 0 my_getwd
FUNC 4df60 6 0 default_reporter
FUNC 4df70 60 0 my_charset_loader_init_mysys
FUNC 4dfd0 1a 0 add_compiled_collation
FUNC 4dff0 10 0 free_charsets
FUNC 4e000 2de 0 escape_string_for_mysql
FUNC 4e2e0 213 0 escape_quotes_for_mysql
FUNC 4e500 60 0 get_charset_name
FUNC 4e560 14d 0 get_charset_number
FUNC 4e6b0 f 0 my_malloc_c
FUNC 4e6c0 2f3 0 my_read_charset_file
FUNC 4e9c0 1a5 0 init_state_maps
FUNC 4eb70 f 0 my_once_alloc_c
FUNC 4eb80 c6 0 get_charsets_dir
FUNC 4ec50 1cf 0 get_internal_charset
FUNC 4ee20 bd 0 my_charset_get_by_name
FUNC 4eee0 56 0 get_charset_by_csname
FUNC 4ef40 58 0 resolve_charset
FUNC 4efa0 aa 0 init_available_charsets
FUNC 4f050 e9 0 get_charset
FUNC 4f140 22 0 my_charset_same
FUNC 4f170 74e 0 add_collation
FUNC 4f8c0 f 0 my_realloc_c
FUNC 4f8d0 139 0 get_collation_number
FUNC 4fa10 c5 0 my_collation_get_by_name
FUNC 4fae0 48 0 get_charset_by_name
FUNC 4fb30 42 0 resolve_collation
FUNC 4fb80 1ad 0 my_close
FUNC 4fd30 29c 0 my_register_filename
FUNC 4ffd0 47 0 my_open
FUNC 50020 15c 0 my_load_path
FUNC 50180 96 0 my_message_stderr
FUNC 50220 14 0 thr_set_sync_wait_callback
FUNC 50240 128 0 my_sync
FUNC 50370 7c 0 my_sync_dir
FUNC 503f0 41 0 my_sync_dir_by_file
FUNC 50440 d 0 my_thread_name
FUNC 50450 2a 0 set_mysys_var
FUNC 50480 27 0 _my_thread_var
FUNC 504b0 12 0 my_thread_dbug_id
FUNC 504d0 3c 0 inline_mysql_mutex_init
FUNC 50510 2d 0 inline_mysql_cond_init
FUNC 50540 15b 0 my_thread_init
FUNC 506a0 31c 0 my_thread_global_reinit
FUNC 509c0 434 0 my_thread_global_end
FUNC 50e00 215 0 my_thread_global_init
FUNC 51020 15a 0 my_thread_end
FUNC 51180 6 0 register_mutex_noop
FUNC 51190 6 0 register_rwlock_noop
FUNC 511a0 6 0 register_cond_noop
FUNC 511b0 6 0 register_thread_noop
FUNC 511c0 6 0 register_file_noop
FUNC 511d0 6 0 register_stage_noop
FUNC 511e0 6 0 register_statement_noop
FUNC 511f0 6 0 register_socket_noop
FUNC 51200 8 0 init_mutex_noop
FUNC 51210 6 0 destroy_mutex_noop
FUNC 51220 8 0 init_rwlock_noop
FUNC 51230 6 0 destroy_rwlock_noop
FUNC 51240 8 0 init_cond_noop
FUNC 51250 6 0 destroy_cond_noop
FUNC 51260 8 0 init_socket_noop
FUNC 51270 6 0 destroy_socket_noop
FUNC 51280 8 0 get_table_share_noop
FUNC 51290 6 0 release_table_share_noop
FUNC 512a0 6 0 drop_table_share_noop
FUNC 512b0 8 0 open_table_noop
FUNC 512c0 6 0 unbind_table_noop
FUNC 512d0 8 0 rebind_table_noop
FUNC 512e0 6 0 close_table_noop
FUNC 512f0 6 0 create_file_noop
FUNC 51300 8 0 new_thread_noop
FUNC 51310 6 0 set_thread_id_noop
FUNC 51320 8 0 get_thread_noop
FUNC 51330 6 0 set_thread_user_noop
FUNC 51340 6 0 set_thread_user_host_noop
FUNC 51350 6 0 set_thread_db_noop
FUNC 51360 6 0 set_thread_command_noop
FUNC 51370 6 0 set_thread_start_time_noop
FUNC 51380 6 0 set_thread_state_noop
FUNC 51390 6 0 set_thread_info_noop
FUNC 513a0 6 0 set_thread_noop
FUNC 513b0 6 0 delete_current_thread_noop
FUNC 513c0 6 0 delete_thread_noop
FUNC 513d0 8 0 get_thread_file_name_locker_noop
FUNC 513e0 8 0 get_thread_file_stream_locker_noop
FUNC 513f0 8 0 get_thread_file_descriptor_locker_noop
FUNC 51400 6 0 unlock_mutex_noop
FUNC 51410 6 0 unlock_rwlock_noop
FUNC 51420 6 0 signal_cond_noop
FUNC 51430 6 0 broadcast_cond_noop
FUNC 51440 8 0 start_idle_wait_noop
FUNC 51450 6 0 end_idle_wait_noop
FUNC 51460 8 0 start_mutex_wait_noop
FUNC 51470 6 0 end_mutex_wait_noop
FUNC 51480 8 0 start_rwlock_rdwait_noop
FUNC 51490 6 0 end_rwlock_rdwait_noop
FUNC 514a0 8 0 start_rwlock_wrwait_noop
FUNC 514b0 6 0 end_rwlock_wrwait_noop
FUNC 514c0 8 0 start_cond_wait_noop
FUNC 514d0 6 0 end_cond_wait_noop
FUNC 514e0 8 0 start_table_io_wait_noop
FUNC 514f0 6 0 end_table_io_wait_noop
FUNC 51500 8 0 start_table_lock_wait_noop
FUNC 51510 6 0 end_table_lock_wait_noop
FUNC 51520 6 0 start_file_open_wait_noop
FUNC 51530 8 0 end_file_open_wait_noop
FUNC 51540 6 0 end_file_open_wait_and_bind_to_descriptor_noop
FUNC 51550 6 0 start_file_wait_noop
FUNC 51560 6 0 end_file_wait_noop
FUNC 51570 6 0 start_file_close_wait_noop
FUNC 51580 6 0 end_file_close_wait_noop
FUNC 51590 6 0 start_stage_noop
FUNC 515a0 6 0 end_stage_noop
FUNC 515b0 8 0 get_thread_statement_locker_noop
FUNC 515c0 8 0 refine_statement_noop
FUNC 515d0 6 0 start_statement_noop
FUNC 515e0 6 0 set_statement_text_noop
FUNC 515f0 6 0 set_statement_lock_time_noop
FUNC 51600 6 0 set_statement_rows_sent_noop
FUNC 51610 6 0 set_statement_rows_examined_noop
FUNC 51620 6 0 inc_statement_created_tmp_disk_tables_noop
FUNC 51630 6 0 inc_statement_created_tmp_tables_noop
FUNC 51640 6 0 inc_statement_select_full_join_noop
FUNC 51650 6 0 inc_statement_select_full_range_join_noop
FUNC 51660 6 0 inc_statement_select_range_noop
FUNC 51670 6 0 inc_statement_select_range_check_noop
FUNC 51680 6 0 inc_statement_select_scan_noop
FUNC 51690 6 0 inc_statement_sort_merge_passes_noop
FUNC 516a0 6 0 inc_statement_sort_range_noop
FUNC 516b0 6 0 inc_statement_sort_rows_noop
FUNC 516c0 6 0 inc_statement_sort_scan_noop
FUNC 516d0 6 0 set_statement_no_index_used_noop
FUNC 516e0 6 0 set_statement_no_good_index_used_noop
FUNC 516f0 6 0 end_statement_noop
FUNC 51700 8 0 start_socket_wait_noop
FUNC 51710 6 0 end_socket_wait_noop
FUNC 51720 6 0 set_socket_state_noop
FUNC 51730 6 0 set_socket_info_noop
FUNC 51740 6 0 set_socket_thread_owner_noop
FUNC 51750 8 0 digest_start_noop
FUNC 51760 6 0 digest_end_noop
FUNC 51770 8 0 set_thread_connect_attrs_noop
FUNC 51780 10 0 set_psi_server
FUNC 51790 16 0 spawn_thread_noop
FUNC 517b0 1d 0 my_time_possible_from_micro
FUNC 517d0 42 0 my_micro_time_and_time
FUNC 51820 34 0 my_micro_time
FUNC 51860 51 0 my_time
FUNC 518c0 3d 0 my_getsystime
FUNC 51900 10 0 my_getopt_is_args_separator
FUNC 51910 ac 0 check_file_permissions
FUNC 519c0 a1 0 my_default_get_login_file
FUNC 51a70 64 0 add_directory
FUNC 51ae0 da 0 init_default_directories
FUNC 51bc0 1e6 0 my_print_default_files
FUNC 51db0 be 0 print_defaults
FUNC 51e70 50 0 free_defaults
FUNC 51ec0 90 0 handle_default_option
FUNC 51f50 1ba 0 get_defaults_options
FUNC 52110 70 0 fn_expand
FUNC 52180 d9 0 inline_mysql_file_fread
FUNC 52260 f6c 0 search_default_file_with_ext
FUNC 531d0 66b 0 my_search_option_files
FUNC 53840 471 0 my_load_defaults
FUNC 53cc0 11 0 load_defaults
FUNC 53ce0 c 0 my_aes_get_size
FUNC 53cf0 c 0 my_aes_needs_iv
FUNC 53d00 955 0 my_aes_encrypt
FUNC 54660 980 0 my_aes_decrypt
FUNC 54fe0 10 0 TaoCrypt::Mode_BASE::~Mode_BASE
FUNC 54ff0 15b 0 TaoCrypt::Mode_BASE::Process
FUNC 55150 14 0 TaoCrypt::Mode_BASE::~Mode_BASE
FUNC 55170 6c 0 my_aes_create_key
FUNC 551e0 8 0 __cxa_pure_virtual
FUNC 551f0 19 0 yaSSL::c32to24
FUNC 55210 23 0 yaSSL::c24to32
FUNC 55240 1b 0 yaSSL::c24to32
FUNC 55260 1a 0 yaSSL::ato16
FUNC 55280 19 0 yaSSL::ato24
FUNC 552a0 12 0 yaSSL::c16toa
FUNC 552c0 19 0 yaSSL::c24toa
FUNC 552e0 21 0 yaSSL::c32toa
FUNC 55310 5a 0 yaSSL::States::States
FUNC 55370 9 0 yaSSL::States::getRecord
FUNC 55380 a 0 yaSSL::States::getHandShake
FUNC 55390 a 0 yaSSL::States::getClient
FUNC 553a0 a 0 yaSSL::States::getServer
FUNC 553b0 a 0 yaSSL::States::GetConnect
FUNC 553c0 a 0 yaSSL::States::GetAccept
FUNC 553d0 a 0 yaSSL::States::getString
FUNC 553e0 9 0 yaSSL::States::What
FUNC 553f0 9 0 yaSSL::States::useRecord
FUNC 55400 a 0 yaSSL::States::useHandShake
FUNC 55410 a 0 yaSSL::States::useClient
FUNC 55420 a 0 yaSSL::States::useServer
FUNC 55430 a 0 yaSSL::States::UseConnect
FUNC 55440 a 0 yaSSL::States::UseAccept
FUNC 55450 a 0 yaSSL::States::useString
FUNC 55460 9 0 yaSSL::States::SetError
FUNC 55470 117 0 yaSSL::States::SetMessageRecvd
FUNC 55590 9 0 yaSSL::sslFactory::getMessage
FUNC 555a0 a 0 yaSSL::sslFactory::getHandShake
FUNC 555b0 a 0 yaSSL::sslFactory::getServerKey
FUNC 555c0 a 0 yaSSL::sslFactory::getClientKey
FUNC 555d0 b 0 yaSSL::SSL::SetCompression
FUNC 555e0 d 0 yaSSL::SSL::UnSetCompression
FUNC 555f0 d 0 yaSSL::SSL::CompressionOn
FUNC 55600 c 0 yaSSL::SSL::SetError
FUNC 55610 d 0 yaSSL::SSL::SetQuietShutdown
FUNC 55620 d 0 yaSSL::SSL::useBuffers
FUNC 55630 10 0 yaSSL::SSL::order_error
FUNC 55640 89 0 yaSSL::SSL::setKeys
FUNC 556d0 31 0 yaSSL::SSL::get_SEQIncrement
FUNC 55710 36 0 yaSSL::SSL::get_macSecret
FUNC 55750 50 0 yaSSL::SSL::verifyState
FUNC 557a0 22 0 yaSSL::SSL::verifyState
FUNC 557d0 24 0 yaSSL::SSL::verifyState
FUNC 55800 25 0 yaSSL::SSL::verfiyHandShakeComplete
FUNC 55830 a1 0 yaSSL::SSL::verifyClientState
FUNC 558e0 84 0 yaSSL::SSL::verifyServerState
FUNC 55970 b0 0 yaSSL::SSL::matchSuite
FUNC 55a20 9 0 yaSSL::SSL::getCrypto
FUNC 55a30 d 0 yaSSL::SSL::getSecurity
FUNC 55a40 d 0 yaSSL::SSL::getStates
FUNC 55a50 d 0 yaSSL::SSL::getHashes
FUNC 55a60 d 0 yaSSL::SSL::getSocket
FUNC 55a70 c 0 yaSSL::SSL::GetError
FUNC 55a80 d 0 yaSSL::SSL::GetQuietShutdown
FUNC 55a90 14 0 yaSSL::SSL::GetMultiProtocol
FUNC 55ab0 9 0 yaSSL::SSL::useCrypto
FUNC 55ac0 d 0 yaSSL::SSL::useSecurity
FUNC 55ad0 d 0 yaSSL::SSL::useStates
FUNC 55ae0 d 0 yaSSL::SSL::useHashes
FUNC 55af0 d 0 yaSSL::SSL::useSocket
FUNC 55b00 d 0 yaSSL::SSL::useLog
FUNC 55b10 d 0 yaSSL::SSL::isTLS
FUNC 55b20 d 0 yaSSL::SSL::isTLSv1_1
FUNC 55b30 d 0 yaSSL::SSL::HasData
FUNC 55b40 9 0 yaSSL::SSL_SESSION::GetID
FUNC 55b50 a 0 yaSSL::SSL_SESSION::GetSecret
FUNC 55b60 a 0 yaSSL::SSL_SESSION::GetSuite
FUNC 55b70 a 0 yaSSL::SSL_SESSION::GetPeerX509
FUNC 55b80 9 0 yaSSL::SSL_SESSION::GetBornOn
FUNC 55b90 9 0 yaSSL::SSL_SESSION::GetTimeOut
FUNC 55ba0 9 0 yaSSL::SSL_SESSION::SetTimeOut
FUNC 55bb0 1b 0 yaSSL::SSL_METHOD::SSL_METHOD
FUNC 55bd0 9 0 yaSSL::SSL_METHOD::getVersion
FUNC 55be0 9 0 yaSSL::SSL_METHOD::getSide
FUNC 55bf0 a 0 yaSSL::SSL_METHOD::setVerifyPeer
FUNC 55c00 a 0 yaSSL::SSL_METHOD::setVerifyNone
FUNC 55c10 a 0 yaSSL::SSL_METHOD::setFailNoCert
FUNC 55c20 a 0 yaSSL::SSL_METHOD::verifyPeer
FUNC 55c30 a 0 yaSSL::SSL_METHOD::verifyNone
FUNC 55c40 a 0 yaSSL::SSL_METHOD::failNoCert
FUNC 55c50 a 0 yaSSL::SSL_METHOD::multipleProtocol
FUNC 55c60 a 0 yaSSL::SSL_CTX::GetCA_List
FUNC 55c70 d 0 yaSSL::SSL_CTX::getVerifyCallback
FUNC 55c80 a 0 yaSSL::SSL_CTX::getCert
FUNC 55c90 a 0 yaSSL::SSL_CTX::getKey
FUNC 55ca0 9 0 yaSSL::SSL_CTX::getMethod
FUNC 55cb0 a 0 yaSSL::SSL_CTX::GetCiphers
FUNC 55cc0 d 0 yaSSL::SSL_CTX::GetDH_Parms
FUNC 55cd0 d 0 yaSSL::SSL_CTX::GetStats
FUNC 55ce0 d 0 yaSSL::SSL_CTX::GetPasswordCb
FUNC 55cf0 d 0 yaSSL::SSL_CTX::SetPasswordCb
FUNC 55d00 d 0 yaSSL::SSL_CTX::GetUserData
FUNC 55d10 d 0 yaSSL::SSL_CTX::GetSessionCacheOff
FUNC 55d20 d 0 yaSSL::SSL_CTX::GetSessionCacheFlushOff
FUNC 55d30 d 0 yaSSL::SSL_CTX::SetUserData
FUNC 55d40 d 0 yaSSL::SSL_CTX::SetSessionCacheOff
FUNC 55d50 d 0 yaSSL::SSL_CTX::SetSessionCacheFlushOff
FUNC 55d60 d 0 yaSSL::SSL_CTX::setVerifyPeer
FUNC 55d70 d 0 yaSSL::SSL_CTX::setVerifyNone
FUNC 55d80 d 0 yaSSL::SSL_CTX::setFailNoCert
FUNC 55d90 d 0 yaSSL::SSL_CTX::setVerifyCallback
FUNC 55da0 9 0 yaSSL::Crypto::get_digest
FUNC 55db0 a 0 yaSSL::Crypto::get_cipher
FUNC 55dc0 a 0 yaSSL::Crypto::get_dh
FUNC 55dd0 a 0 yaSSL::Crypto::get_random
FUNC 55de0 a 0 yaSSL::Crypto::get_certManager
FUNC 55df0 9 0 yaSSL::Crypto::use_digest
FUNC 55e00 a 0 yaSSL::Crypto::use_cipher
FUNC 55e10 a 0 yaSSL::Crypto::use_dh
FUNC 55e20 a 0 yaSSL::Crypto::use_random
FUNC 55e30 a 0 yaSSL::Crypto::use_certManager
FUNC 55e40 a 0 yaSSL::Crypto::SetDH
FUNC 55e50 e 0 yaSSL::Crypto::DhSet
FUNC 55e60 9 0 yaSSL::Crypto::setDigest
FUNC 55e70 a 0 yaSSL::Crypto::setCipher
FUNC 55e80 9 0 yaSSL::sslHashes::get_MD5
FUNC 55e90 a 0 yaSSL::sslHashes::get_SHA
FUNC 55ea0 a 0 yaSSL::sslHashes::get_verify
FUNC 55eb0 a 0 yaSSL::sslHashes::get_certVerify
FUNC 55ec0 9 0 yaSSL::sslHashes::use_MD5
FUNC 55ed0 a 0 yaSSL::sslHashes::use_SHA
FUNC 55ee0 a 0 yaSSL::sslHashes::use_verify
FUNC 55ef0 a 0 yaSSL::sslHashes::use_certVerify
FUNC 55f00 53 0 yaSSL::Buffers::Buffers
FUNC 55f60 a 0 yaSSL::Buffers::SetOutput
FUNC 55f70 a 0 yaSSL::Buffers::SetRawInput
FUNC 55f80 12 0 yaSSL::Buffers::TakeRawInput
FUNC 55fa0 12 0 yaSSL::Buffers::TakeOutput
FUNC 55fc0 a 0 yaSSL::Buffers::getData
FUNC 55fd0 a 0 yaSSL::Buffers::getHandShake
FUNC 55fe0 a 0 yaSSL::Buffers::useData
FUNC 55ff0 a 0 yaSSL::Buffers::useHandShake
FUNC 56000 9 0 yaSSL::Security::get_connection
FUNC 56010 d 0 yaSSL::Security::GetContext
FUNC 56020 d 0 yaSSL::Security::get_parms
FUNC 56030 d 0 yaSSL::Security::get_resume
FUNC 56040 d 0 yaSSL::Security::get_resuming
FUNC 56050 9 0 yaSSL::Security::use_connection
FUNC 56060 d 0 yaSSL::Security::use_parms
FUNC 56070 d 0 yaSSL::Security::use_resume
FUNC 56080 d 0 yaSSL::Security::set_resuming
FUNC 56090 9 0 yaSSL::X509_NAME::GetName
FUNC 560a0 a 0 yaSSL::X509_NAME::GetLength
FUNC 560b0 9 0 yaSSL::X509::GetIssuer
FUNC 560c0 a 0 yaSSL::X509::GetSubject
FUNC 560d0 a 0 yaSSL::X509::GetBefore
FUNC 560e0 a 0 yaSSL::X509::GetAfter
FUNC 560f0 9 0 yaSSL::StringHolder::GetString
FUNC 56100 b 0 yaSSL::Compress
FUNC 56110 b 0 yaSSL::DeCompress
FUNC 56120 66 0 yaSSL::SSL_CTX::AddCA
FUNC 56190 79 0 yaSSL::SSL::addBuffer
FUNC 56210 89 0 yaSSL::SSL::addData
FUNC 562a0 61 0 yaSSL::StringHolder::StringHolder
FUNC 56310 98 0 yaSSL::X509_NAME::GetEntry
FUNC 563b0 55 0 yaSSL::X509_NAME::X509_NAME
FUNC 56410 a1 0 yaSSL::::setPrefix
FUNC 564c0 36 0 yaSSL::SSL::set_sessionID
FUNC 56500 3f 0 yaSSL::SSL::set_masterSecret
FUNC 56540 4b 0 yaSSL::SSL::set_random
FUNC 56590 6e 0 yaSSL::Crypto::SetDH
FUNC 56600 78 0 yaSSL::Crypto::~Crypto
FUNC 56680 5e 0 yaSSL::Crypto::Crypto
FUNC 566e0 15d 0 yaSSL::SSL_CTX::IncrementStats
FUNC 56840 162 0 yaSSL::SSL_CTX::SetCipherList
FUNC 569b0 4d 0 yaSSL::SSL_CTX::SetDH
FUNC 56a00 9b 0 yaSSL::GetErrors
FUNC 56aa0 9f 0 yaSSL::Session_initialize
FUNC 56b40 a 0 yaSSL::c_session_initialize
FUNC 56b50 193 0 yaSSL::SSL_CTX::SSL_CTX
FUNC 56cf0 a1 0 yaSSL::default_password_callback
FUNC 56da0 14 0 yaSSL::yassl_mysql_strdup
FUNC 56dc0 a 0 yaSSL::yassl_int_cpp_local2::GetSelf
FUNC 56dd0 20 0 yaSSL::GetSessions
FUNC 56df0 59 0 yaSSL::SSL_SESSION::SSL_SESSION
FUNC 56e50 b9 0 yaSSL::SSL::Send
FUNC 56f10 3d 0 yaSSL::SSL::bufferedData
FUNC 56f50 a7 0 yaSSL::SSL::set_preMaster
FUNC 57000 ff5 0 yaSSL::SSL::set_pending
FUNC 58000 eb 0 yaSSL::sslFactory::sslFactory
FUNC 580f0 70 0 yaSSL::GetSSL_Factory
FUNC 58160 164 0 yaSSL::SSL::PeekData
FUNC 582d0 1f0 0 yaSSL::SSL::fillData
FUNC 584c0 1a 0 yaSSL::StringHolder::~StringHolder
FUNC 584e0 37 0 yaSSL::X509_NAME::~X509_NAME
FUNC 58520 135 0 yaSSL::Buffers::~Buffers
FUNC 58660 16e 0 yaSSL::X509::X509
FUNC 587d0 de 0 yaSSL::SSL_SESSION::CopyX509
FUNC 588b0 70 0 yaSSL::SSL::getFactory
FUNC 58920 10f 0 yaSSL::Errors::Lookup
FUNC 58a30 fd 0 yaSSL::Security::Security
FUNC 58b30 2d 0 yaSSL::SSL_SESSION::~SSL_SESSION
FUNC 58b60 da 0 yaSSL::Sessions::~Sessions
FUNC 58c40 b8 0 yayaSSL_CleanUp
FUNC 58d00 151 0 yaSSL::Sessions::Flush
FUNC 58e60 41a 0 yaSSL::SSL::SSL
FUNC 59280 129 0 yaSSL::SSL_CTX::~SSL_CTX
FUNC 593b0 168 0 yaSSL::SSL_SESSION::operator=
FUNC 59520 161 0 yaSSL::Sessions::lookup
FUNC 59690 8b 0 yaSSL::SSL::set_session
FUNC 59720 17a 0 yaSSL::SSL_SESSION::SSL_SESSION
FUNC 598a0 105 0 yaSSL::Sessions::add
FUNC 599b0 169 0 yaSSL::SSL::storeKeys
FUNC 59b20 134 0 yaSSL::SSL::deriveTLSKeys
FUNC 59c60 ae 0 yaSSL::SSL::makeTLSMasterSecret
FUNC 59d10 2fa 0 yaSSL::SSL::deriveKeys
FUNC 5a010 f5 0 yaSSL::Errors::Remove
FUNC 5a110 b8 0 yaSSL::Errors::Add
FUNC 5a1d0 139 0 yaSSL::Sessions::remove
FUNC 5a310 10e 0 yaSSL::SSL::SendWriteBuffered
FUNC 5a420 1f7 0 yaSSL::SSL::flushBuffer
FUNC 5a620 4f1 0 yaSSL::SSL::makeMasterSecret
FUNC 5ab20 1f0 0 yaSSL::SSL::verifyState
FUNC 5ad10 10 0 yaSSL::HandShakeBase::~HandShakeBase
FUNC 5ad20 14 0 yaSSL::HandShakeBase::~HandShakeBase
FUNC 5ad40 12 0 yaSSL::ysArrayDelete<unsigned char>
FUNC 5ad60 3b 0 yaSSL::DH_Parms::~DH_Parms
FUNC 5ada0 67 0 yaSSL::ysDelete<yaSSL::sslFactory>
FUNC 5ae10 7f 0 yaSSL::ysDelete<yaSSL::X509>
FUNC 5ae90 8 0 __cxa_pure_virtual
FUNC 5aea0 18 0 yaSSL::lowResTimer
FUNC 5aec0 2d 0 yaSSL::timer
FUNC 5aef0 8 0 __cxa_pure_virtual
FUNC 5af00 6 0 yaSSL::Log::Log
FUNC 5af10 6 0 yaSSL::Log::~Log
FUNC 5af20 6 0 yaSSL::Log::Trace
FUNC 5af30 6 0 yaSSL::Log::ShowTCP
FUNC 5af40 6 0 yaSSL::Log::ShowData
FUNC 5af50 8 0 __cxa_pure_virtual
FUNC 5af60 b 0 yaSSL::MD5::get_digestSize
FUNC 5af70 b 0 yaSSL::MD5::get_padSize
FUNC 5af80 b 0 yaSSL::SHA::get_digestSize
FUNC 5af90 b 0 yaSSL::SHA::get_padSize
FUNC 5afa0 b 0 yaSSL::RMD::get_digestSize
FUNC 5afb0 b 0 yaSSL::RMD::get_padSize
FUNC 5afc0 b 0 yaSSL::HMAC_MD5::get_digestSize
FUNC 5afd0 b 0 yaSSL::HMAC_MD5::get_padSize
FUNC 5afe0 b 0 yaSSL::HMAC_SHA::get_digestSize
FUNC 5aff0 b 0 yaSSL::HMAC_SHA::get_padSize
FUNC 5b000 b 0 yaSSL::HMAC_RMD::get_digestSize
FUNC 5b010 b 0 yaSSL::HMAC_RMD::get_padSize
FUNC 5b020 10 0 yaSSL::AES::get_keySize
FUNC 5b030 c 0 yaSSL::RandomPool::GetError
FUNC 5b040 d 0 yaSSL::DiffieHellman::get_agreedKey
FUNC 5b050 c 0 yaSSL::DiffieHellman::get_publicKeyLength
FUNC 5b060 d 0 yaSSL::DiffieHellman::get_publicKey
FUNC 5b070 46 0 yaSSL::AES::~AES
FUNC 5b0c0 30 0 yaSSL::RC4::~RC4
FUNC 5b0f0 46 0 yaSSL::DES_EDE::~DES_EDE
FUNC 5b140 46 0 yaSSL::DES::~DES
FUNC 5b190 40 0 yaSSL::HMAC_RMD::~HMAC_RMD
FUNC 5b1d0 40 0 yaSSL::HMAC_SHA::~HMAC_SHA
FUNC 5b210 40 0 yaSSL::HMAC_MD5::~HMAC_MD5
FUNC 5b250 3f 0 yaSSL::RMD::~RMD
FUNC 5b290 3f 0 yaSSL::SHA::~SHA
FUNC 5b2d0 3f 0 yaSSL::MD5::~MD5
FUNC 5b310 b7 0 yaSSL::AES::AES
FUNC 5b3d0 3d 0 yaSSL::RC4::RC4
FUNC 5b410 b1 0 yaSSL::DES_EDE::DES_EDE
FUNC 5b4d0 b1 0 yaSSL::DES::DES
FUNC 5b590 58 0 yaSSL::Integer::Integer
FUNC 5b5f0 d 0 yaSSL::DiffieHellman::get_agreedKeyLength
FUNC 5b600 e 0 yaSSL::RSA::get_cipherLength
FUNC 5b610 e 0 yaSSL::RSA::get_signatureLength
FUNC 5b620 1b 0 yaSSL::DiffieHellman::makeAgreement
FUNC 5b640 4a 0 yaSSL::Integer::Integer
FUNC 5b690 21 0 yaSSL::Integer::operator=
FUNC 5b6c0 e 0 yaSSL::DSS::get_signatureLength
FUNC 5b6d0 d 0 yaSSL::RandomPool::Fill
FUNC 5b6e0 37 0 yaSSL::RandomPool::~RandomPool
FUNC 5b720 4a 0 yaSSL::RandomPool::RandomPool
FUNC 5b770 50 0 yaSSL::AES::set_decryptKey
FUNC 5b7c0 43 0 yaSSL::AES::set_encryptKey
FUNC 5b810 15 0 yaSSL::RC4::decrypt
FUNC 5b830 e 0 yaSSL::RC4::encrypt
FUNC 5b840 1a 0 yaSSL::RC4::set_decryptKey
FUNC 5b860 13 0 yaSSL::RC4::set_encryptKey
FUNC 5b880 43 0 yaSSL::DES_EDE::set_decryptKey
FUNC 5b8d0 39 0 yaSSL::DES_EDE::set_encryptKey
FUNC 5b910 4d 0 yaSSL::DES::set_decryptKey
FUNC 5b960 41 0 yaSSL::DES::set_encryptKey
FUNC 5b9b0 e 0 yaSSL::RMD::update
FUNC 5b9c0 e 0 yaSSL::SHA::update
FUNC 5b9d0 e 0 yaSSL::MD5::update
FUNC 5b9e0 d1 0 yaSSL::HMAC_RMD::get_digest
FUNC 5bac0 d1 0 yaSSL::HMAC_SHA::get_digest
FUNC 5bba0 d1 0 yaSSL::HMAC_MD5::get_digest
FUNC 5bc80 e 0 yaSSL::RMD::get_digest
FUNC 5bc90 3a 0 yaSSL::RMD::get_digest
FUNC 5bcd0 e 0 yaSSL::SHA::get_digest
FUNC 5bce0 3a 0 yaSSL::SHA::get_digest
FUNC 5bd20 e 0 yaSSL::MD5::get_digest
FUNC 5bd30 3a 0 yaSSL::MD5::get_digest
FUNC 5bd70 15a 0 yaSSL::HMAC_RMD::HMAC_RMD
FUNC 5bed0 15a 0 yaSSL::HMAC_SHA::HMAC_SHA
FUNC 5c030 15a 0 yaSSL::HMAC_MD5::HMAC_MD5
FUNC 5c190 23 0 yaSSL::RMD::operator=
FUNC 5c1c0 71 0 yaSSL::RMD::RMD
FUNC 5c240 23 0 yaSSL::SHA::operator=
FUNC 5c270 71 0 yaSSL::SHA::SHA
FUNC 5c2f0 23 0 yaSSL::MD5::operator=
FUNC 5c320 71 0 yaSSL::MD5::MD5
FUNC 5c3a0 37 0 yaSSL::RC4::~RC4
FUNC 5c3e0 46 0 yaSSL::MD5::~MD5
FUNC 5c430 46 0 yaSSL::SHA::~SHA
FUNC 5c480 46 0 yaSSL::RMD::~RMD
FUNC 5c4d0 47 0 yaSSL::HMAC_MD5::~HMAC_MD5
FUNC 5c520 47 0 yaSSL::HMAC_SHA::~HMAC_SHA
FUNC 5c570 47 0 yaSSL::HMAC_RMD::~HMAC_RMD
FUNC 5c5c0 4d 0 yaSSL::DES::~DES
FUNC 5c610 4d 0 yaSSL::DES_EDE::~DES_EDE
FUNC 5c660 4d 0 yaSSL::AES::~AES
FUNC 5c6b0 62 0 yaSSL::HMAC_SHA::update
FUNC 5c720 62 0 yaSSL::HMAC_MD5::update
FUNC 5c790 62 0 yaSSL::HMAC_RMD::update
FUNC 5c800 92 0 yaSSL::SHA::SHA
FUNC 5c8a0 92 0 yaSSL::RMD::RMD
FUNC 5c940 92 0 yaSSL::MD5::MD5
FUNC 5c9e0 698 0 yaSSL::PemToDer
FUNC 5d080 90 0 yaSSL::RSA::RSAImpl::SetPublic
FUNC 5d110 90 0 yaSSL::DSS::DSSImpl::SetPublic
FUNC 5d1a0 110 0 yaSSL::DiffieHellman::DiffieHellman
FUNC 5d2b0 84 0 yaSSL::HMAC_SHA::get_digest
FUNC 5d340 84 0 yaSSL::HMAC_RMD::get_digest
FUNC 5d3d0 84 0 yaSSL::HMAC_MD5::get_digest
FUNC 5d460 1b 0 yaSSL::RSA::verify
FUNC 5d480 e3 0 yaSSL::DiffieHellman::DiffieHellman
FUNC 5d570 10d 0 yaSSL::DiffieHellman::get_parms
FUNC 5d680 17b 0 yaSSL::DiffieHellman::DiffieHellman
FUNC 5d800 66 0 yaSSL::Integer::assign
FUNC 5d870 e9 0 yaSSL::DiffieHellman::set_sizes
FUNC 5d960 5b 0 yaSSL::Integer::~Integer
FUNC 5d9c0 df 0 yaSSL::DSS::verify
FUNC 5daa0 29 0 yaSSL::RSA::encrypt
FUNC 5dad0 eb 0 yaSSL::DSS::sign
FUNC 5dbc0 2d 0 yaSSL::RSA::decrypt
FUNC 5dbf0 ea 0 yaSSL::DiffieHellman::operator=
FUNC 5dce0 95 0 yaSSL::DiffieHellman::~DiffieHellman
FUNC 5dd80 183 0 yaSSL::DES::decrypt
FUNC 5df10 15b 0 yaSSL::DES::encrypt
FUNC 5e070 183 0 yaSSL::AES::decrypt
FUNC 5e200 15b 0 yaSSL::AES::encrypt
FUNC 5e360 183 0 yaSSL::DES_EDE::decrypt
FUNC 5e4f0 15b 0 yaSSL::DES_EDE::encrypt
FUNC 5e650 2d 0 yaSSL::RSA::sign
FUNC 5e680 1c4 0 yaSSL::RSA::RSAImpl::SetPrivate
FUNC 5e850 1ad 0 yaSSL::RSA::RSA
FUNC 5ea00 30 0 yaSSL::RSA::~RSA
FUNC 5ea30 37 0 yaSSL::RSA::~RSA
FUNC 5ea70 163 0 yaSSL::DSS::DSSImpl::SetPrivate
FUNC 5ebe0 17e 0 yaSSL::DSS::DSS
FUNC 5ed60 30 0 yaSSL::DSS::~DSS
FUNC 5ed90 37 0 yaSSL::DSS::~DSS
FUNC 5edd0 10 0 yaSSL::Digest::~Digest
FUNC 5ede0 10 0 yaSSL::BulkCipher::~BulkCipher
FUNC 5edf0 b 0 yaSSL::DES::get_blockSize
FUNC 5ee00 b 0 yaSSL::DES::get_keySize
FUNC 5ee10 b 0 yaSSL::DES::get_ivSize
FUNC 5ee20 b 0 yaSSL::DES_EDE::get_blockSize
FUNC 5ee30 b 0 yaSSL::DES_EDE::get_keySize
FUNC 5ee40 b 0 yaSSL::DES_EDE::get_ivSize
FUNC 5ee50 8 0 yaSSL::RC4::get_blockSize
FUNC 5ee60 b 0 yaSSL::RC4::get_keySize
FUNC 5ee70 8 0 yaSSL::RC4::get_ivSize
FUNC 5ee80 b 0 yaSSL::AES::get_blockSize
FUNC 5ee90 b 0 yaSSL::AES::get_ivSize
FUNC 5eea0 10 0 yaSSL::Auth::~Auth
FUNC 5eeb0 10 0 TaoCrypt::HASH::~HASH
FUNC 5eec0 14 0 yaSSL::Auth::~Auth
FUNC 5eee0 14 0 yaSSL::BulkCipher::~BulkCipher
FUNC 5ef00 14 0 TaoCrypt::HASH::~HASH
FUNC 5ef20 14 0 yaSSL::Digest::~Digest
FUNC 5ef40 3f 0 TaoCrypt::Integer::~Integer
FUNC 5ef80 37 0 mySTL::auto_ptr<yaSSL::x509>::~auto_ptr
FUNC 5efc0 37 0 TaoCrypt::Block<unsigned char, TaoCrypt::AllocatorWithCleanup<unsigned char> >::~Block
FUNC 5f000 ea 0 TaoCrypt::RSA_Encryptor<TaoCrypt::RSA_BlockType2>::SSL_Verify
FUNC 5f0f0 5d 0 TaoCrypt::DH::~DH
FUNC 5f150 5d 0 TaoCrypt::RSA_PublicKey::~RSA_PublicKey
FUNC 5f1b0 a5 0 TaoCrypt::DSA_PublicKey::~DSA_PublicKey
FUNC 5f260 1b6 0 TaoCrypt::RSA_Encryptor<TaoCrypt::RSA_BlockType2>::Encrypt
FUNC 5f420 1b6 0 TaoCrypt::RSA_Encryptor<TaoCrypt::RSA_BlockType1>::Encrypt
FUNC 5f5e0 1ce 0 TaoCrypt::RSA_Decryptor<TaoCrypt::RSA_BlockType2>::Decrypt
FUNC 5f7b0 f7 0 TaoCrypt::RSA_Decryptor<TaoCrypt::RSA_BlockType2>::SSL_Sign
FUNC 5f8b0 1b3 0 yaSSL::ysDelete<yaSSL::RSA::RSAImpl>
FUNC 5fa70 183 0 yaSSL::ysDelete<yaSSL::DSS::DSSImpl>
FUNC 5fc00 8 0 __cxa_pure_virtual
FUNC 5fc10 1e 0 yaSSL::x509::Swap
FUNC 5fc30 8 0 yaSSL::x509::get_length
FUNC 5fc40 a 0 yaSSL::x509::get_buffer
FUNC 5fc50 a 0 yaSSL::x509::use_buffer
FUNC 5fc60 d 0 yaSSL::CertManager::verifyPeer
FUNC 5fc70 d 0 yaSSL::CertManager::verifyNone
FUNC 5fc80 d 0 yaSSL::CertManager::failNoCert
FUNC 5fc90 d 0 yaSSL::CertManager::sendVerify
FUNC 5fca0 d 0 yaSSL::CertManager::setVerifyPeer
FUNC 5fcb0 d 0 yaSSL::CertManager::setVerifyNone
FUNC 5fcc0 d 0 yaSSL::CertManager::sendBlankCert
FUNC 5fcd0 d 0 yaSSL::CertManager::setFailNoCert
FUNC 5fce0 d 0 yaSSL::CertManager::setSendVerify
FUNC 5fcf0 d 0 yaSSL::CertManager::setSendBlankCert
FUNC 5fd00 d 0 yaSSL::CertManager::setVerifyCallback
FUNC 5fd10 14 0 yaSSL::CertManager::get_cert
FUNC 5fd30 a 0 yaSSL::CertManager::get_peerX509
FUNC 5fd40 a 0 yaSSL::CertManager::get_selfX509
FUNC 5fd50 c 0 yaSSL::CertManager::get_peerKeyType
FUNC 5fd60 c 0 yaSSL::CertManager::get_keyType
FUNC 5fd70 128 0 yaSSL::CertManager::setPeerX509
FUNC 5fea0 66 0 yaSSL::CertManager::AddPeerCert
FUNC 5ff10 3c 0 yaSSL::x509::x509
FUNC 5ff50 20 0 yaSSL::x509::x509
FUNC 5ff70 1a 0 yaSSL::x509::~x509
FUNC 5ff90 e 0 yaSSL::CertManager::get_privateKeyLength
FUNC 5ffa0 e 0 yaSSL::CertManager::get_peerKeyLength
FUNC 5ffb0 e 0 yaSSL::CertManager::get_privateKey
FUNC 5ffc0 e 0 yaSSL::CertManager::get_peerKey
FUNC 5ffd0 70 0 yaSSL::x509::operator=
FUNC 60040 b0 0 yaSSL::CertManager::CopySelfCert
FUNC 600f0 196 0 yaSSL::CertManager::CopyCaCert
FUNC 60290 302 0 yaSSL::CertManager::SetPrivateKey
FUNC 605a0 56e 0 yaSSL::CertManager::Validate
FUNC 60b10 1cb 0 yaSSL::CertManager::~CertManager
FUNC 60ce0 118 0 yaSSL::CertManager::CertManager
FUNC 60e00 8 0 __cxa_pure_virtual
FUNC 60e10 d 0 yaSSL::Mutex::Lock::~Lock
FUNC 60e20 10 0 yaSSL::Mutex::Lock::Lock
FUNC 60e30 a 0 yaSSL::Mutex::~Mutex
FUNC 60e40 c 0 yaSSL::Mutex::Mutex
FUNC 60e50 8 0 __cxa_pure_virtual
FUNC 60e60 2a 0 yaSSL::Socket::Socket
FUNC 60e90 8 0 yaSSL::Socket::set_fd
FUNC 60ea0 8 0 yaSSL::Socket::get_fd
FUNC 60eb0 6 0 yaSSL::Socket::~Socket
FUNC 60ec0 a 0 yaSSL::Socket::set_transport_ptr
FUNC 60ed0 a 0 yaSSL::Socket::set_transport_recv_function
FUNC 60ee0 a 0 yaSSL::Socket::set_transport_send_function
FUNC 60ef0 a 0 yaSSL::Socket::WouldBlock
FUNC 60f00 a 0 yaSSL::Socket::IsNonBlocking
FUNC 60f10 19 0 yaSSL::Socket::set_lastError
FUNC 60f30 d 0 yaSSL::Socket::get_lastError
FUNC 60f40 56 0 yaSSL::Socket::receive
FUNC 60fa0 9d 0 yaSSL::Socket::send
FUNC 61040 c 0 yaSSL::Socket::shutDown
FUNC 61050 26 0 yaSSL::Socket::get_ready
FUNC 61080 25 0 yaSSL::Socket::closeSocket
FUNC 610b0 e 0 system_send
FUNC 610c0 e 0 system_recv
FUNC 610d0 8 0 __cxa_pure_virtual
FUNC 610e0 b 0 yaSSL::yaSSL_get_default_timeout
FUNC 610f0 d 0 yaSSL::yaSSLeay_version
FUNC 61100 6 0 yaSSL::yaX509_free
FUNC 61110 a 0 yaSSL::yaX509_STORE_CTX_get_current_cert
FUNC 61120 8 0 yaSSL::yaX509_STORE_CTX_get_error
FUNC 61130 9 0 yaSSL::yaX509_STORE_CTX_get_error_depth
FUNC 61140 6 0 yaSSL::yaSSL_load_error_strings
FUNC 61150 6 0 yaSSL::yaSSL_set_connect_state
FUNC 61160 8 0 yaSSL::yaSSL_get_verify_result
FUNC 61170 8 0 yaSSL::yaSSL_CTX_sess_set_cache_size
FUNC 61180 8 0 yaSSL::yaSSL_CTX_get_session_cache_mode
FUNC 61190 b 0 yaSSL::yaSSL_CTX_set_default_verify_paths
FUNC 611a0 b 0 yaSSL::yaSSL_CTX_set_session_id_context
FUNC 611b0 b 0 yaSSL::yaSSL_CTX_check_private_key
FUNC 611c0 b 0 yaSSL::yaSSL_CTX_set_options
FUNC 611d0 6 0 yaSSL::yaSSL_CTX_set_info_callback
FUNC 611e0 6 0 yaSSL::yaOpenSSL_add_all_algorithms
FUNC 611f0 b 0 yaSSL::yaSSL_library_init
FUNC 61200 8 0 yaSSL::yaERR_get_error_line_data
FUNC 61210 6 0 yaSSL::yaERR_print_errors_fp
FUNC 61220 d 0 yaSSL::yaX509_verify_cert_error_string
FUNC 61230 d 0 yaSSL::yaEVP_md5
FUNC 61240 d 0 yaSSL::yaEVP_des_ede3_cbc
FUNC 61250 b 0 yaSSL::yaRAND_status
FUNC 61260 6 0 yaSSL::yaDES_set_odd_parity
FUNC 61270 8 0 yaSSL::yaSSL_get_privatekey
FUNC 61280 6 0 yaSSL::yaSSL_SESSION_free
FUNC 61290 8 0 yaSSL::yaX509_get_pubkey
FUNC 612a0 8 0 yaSSL::yaEVP_PKEY_copy_parameters
FUNC 612b0 6 0 yaSSL::yaEVP_PKEY_free
FUNC 612c0 6 0 yaSSL::yaERR_free_strings
FUNC 612d0 6 0 yaSSL::yaEVP_cleanup
FUNC 612e0 8 0 yaSSL::yaSSLv2_client_method
FUNC 612f0 6 0 yaSSL::yaGENERAL_NAMES_free
FUNC 61300 8 0 yaSSL::yask_GENERAL_NAME_num
FUNC 61310 8 0 yaSSL::yask_GENERAL_NAME_value
FUNC 61320 11 0 yaSSL::yaASN1_STRING_data
FUNC 61340 10 0 yaSSL::yaASN1_STRING_length
FUNC 61350 f 0 yaSSL::yaASN1_STRING_type
FUNC 61360 19 0 yaSSL::yaX509_NAME_get_index_by_NID
FUNC 61380 9 0 yaSSL::yaX509_NAME_ENTRY_get_data
FUNC 61390 8 0 yaSSL::yaX509_get_ext_d2i
FUNC 613a0 e 0 yaSSL::yaMD4_Update
FUNC 613b0 17 0 yaSSL::yaMD4_Final
FUNC 613d0 e 0 yaSSL::yaMD5_Update
FUNC 613e0 17 0 yaSSL::yaMD5_Final
FUNC 61400 b 0 yaSSL::yaSSLeay_add_ssl_algorithms
FUNC 61410 d 0 yaSSL::yaERR_GET_REASON
FUNC 61420 6 0 yaSSL::yaRAND_screen
FUNC 61430 8 0 yaSSL::yaRAND_file_name
FUNC 61440 8 0 yaSSL::yaRAND_write_file
FUNC 61450 8 0 yaSSL::yaRAND_load_file
FUNC 61460 6 0 yaSSL::yaRSA_free
FUNC 61470 8 0 yaSSL::yaRSA_generate_key
FUNC 61480 b 0 yaSSL::yaX509_LOOKUP_add_dir
FUNC 61490 b 0 yaSSL::yaX509_LOOKUP_load_file
FUNC 614a0 8 0 yaSSL::yaX509_LOOKUP_hash_dir
FUNC 614b0 8 0 yaSSL::yaX509_LOOKUP_file
FUNC 614c0 8 0 yaSSL::yaX509_STORE_add_lookup
FUNC 614d0 b 0 yaSSL::yaX509_STORE_get_by_subject
FUNC 614e0 8 0 yaSSL::yaX509_STORE_new
FUNC 614f0 8 0 yaSSL::yaSSL_alert_type_string_long
FUNC 61500 8 0 yaSSL::yaSSL_alert_desc_string_long
FUNC 61510 8 0 yaSSL::yaSSL_state_string_long
FUNC 61520 6 0 yaSSL::yaSSL_CTX_set_tmp_rsa_callback
FUNC 61530 b 0 yaSSL::yaSSL_CTX_set_timeout
FUNC 61540 b 0 yaSSL::yaSSL_CTX_use_certificate_chain_file
FUNC 61550 b 0 yaSSL::yaSSL_CTX_use_RSAPrivateKey_file
FUNC 61560 b 0 yaSSL::yaSSL_set_rfd
FUNC 61570 b 0 yaSSL::yaSSL_set_wfd
FUNC 61580 8 0 yaSSL::yaSSL_want_read
FUNC 61590 8 0 yaSSL::yaSSL_want_write
FUNC 615a0 6 0 yaSSL::yaSSL_set_shutdown
FUNC 615b0 8 0 yaSSL::yaSSL_get_current_cipher
FUNC 615c0 8 0 yaSSL::yaSSL_CIPHER_description
FUNC 615d0 22 0 yaSSL::yaSSL_transport_set_send_function
FUNC 61600 22 0 yaSSL::yaSSL_transport_set_recv_function
FUNC 61630 22 0 yaSSL::yaSSL_transport_set_ptr
FUNC 61660 71 0 yaSSL::ya_SSL_ASN1_TIME_to_string
FUNC 616e0 38 0 yaSSL::err_helper
FUNC 61720 12 0 yaSSL::yaERR_remove_state
FUNC 61740 18 0 yaSSL::yaSSL_clear
FUNC 61760 a 0 yaSSL::yaSSL_CTX_set_default_passwd_cb
FUNC 61770 58 0 yaSSL::yaSSL_peek
FUNC 617d0 55 0 yaSSL::yaSSL_read
FUNC 61830 7d 0 yaSSL::yaRAND_bytes
FUNC 618b0 4c 0 yaSSL::yaMD5_Init
FUNC 61900 4c 0 yaSSL::yaMD4_Init
FUNC 61950 5e 0 yaSSL::yaASN1_STRING_to_UTF8
FUNC 619b0 11 0 yaSSL::yaDES_set_key
FUNC 619d0 c 0 yaSSL::yaDES_set_key_unchecked
FUNC 619e0 a 0 yaSSL::yaX509_NAME_get_entry
FUNC 619f0 14 0 yaSSL::yaX509_get_notAfter
FUNC 61a10 14 0 yaSSL::yaX509_get_notBefore
FUNC 61a30 1a 0 yaSSL::yaSSL_get_certificate
FUNC 61a50 a 0 yaSSL::yaSSL_CTX_set_default_passwd_cb_userdata
FUNC 61a60 b5 0 yaSSL::yaDES_ecb_encrypt
FUNC 61b20 d2 0 yaSSL::yaDES_ede3_cbc_encrypt
FUNC 61c00 2d4 0 yaSSL::yaEVP_BytesToKey
FUNC 61ee0 31 0 yaSSL::yaERR_error_string
FUNC 61f20 24 0 yaSSL::yaDH_new
FUNC 61f50 1e 0 yaSSL::yaSSL_get_verify_depth
FUNC 61f70 e 0 yaSSL::yaSSL_CTX_get_verify_depth
FUNC 61f80 1e 0 yaSSL::yaSSL_get_verify_mode
FUNC 61fa0 e 0 yaSSL::yaSSL_CTX_get_verify_mode
FUNC 61fb0 f 0 yaSSL::yaSSL_CTX_sess_get_cache_size
FUNC 61fc0 f 0 yaSSL::yaSSL_CTX_sess_number
FUNC 61fd0 f 0 yaSSL::yaSSL_CTX_sess_timeouts
FUNC 61fe0 f 0 yaSSL::yaSSL_CTX_sess_misses
FUNC 61ff0 f 0 yaSSL::yaSSL_CTX_sess_cache_full
FUNC 62000 f 0 yaSSL::yaSSL_CTX_sess_cb_hits
FUNC 62010 f 0 yaSSL::yaSSL_CTX_sess_hits
FUNC 62020 f 0 yaSSL::yaSSL_CTX_sess_connect_renegotiate
FUNC 62030 f 0 yaSSL::yaSSL_CTX_sess_accept_renegotiate
FUNC 62040 f 0 yaSSL::yaSSL_CTX_sess_connect_good
FUNC 62050 f 0 yaSSL::yaSSL_CTX_sess_accept_good
FUNC 62060 f 0 yaSSL::yaSSL_CTX_sess_connect
FUNC 62070 e 0 yaSSL::yaSSL_CTX_sess_accept
FUNC 62080 17 0 yaSSL::yaSSL_get_shared_ciphers
FUNC 620a0 6d 0 yaSSL::yaSSL_CTX_set_verify
FUNC 62110 e 0 yaSSL::yaSSL_CTX_set_tmp_dh
FUNC 62120 19 0 yaSSL::yaSSL_set_accept_state
FUNC 62140 a 0 yaSSL::yaX509_get_subject_name
FUNC 62150 a 0 yaSSL::yaX509_get_issuer_name
FUNC 62160 aa 0 yaSSL::yaX509_NAME_oneline
FUNC 62210 1a 0 yaSSL::yaSSL_get_peer_certificate
FUNC 62230 a 0 yaSSL::yaSSL_set_compression
FUNC 62240 12 0 yaSSL::yaSSL_get_error
FUNC 62260 29 0 yaSSL::yaSSL_get_version
FUNC 62290 e 0 yaSSL::yaSSL_CTX_set_cipher_list
FUNC 622a0 6b 0 yaSSL::yaSSL_get_cipher_list
FUNC 62310 19 0 yaSSL::yaSSL_get_cipher
FUNC 62330 1e 0 yaSSL::yaSSL_flush_sessions
FUNC 62350 17 0 yaSSL::yaSSL_SESSION_set_timeout
FUNC 62370 16 0 yaSSL::yaSSL_session_reused
FUNC 62390 4e 0 yaSSL::yaSSL_set_session
FUNC 623e0 5c 0 yaSSL::yaSSL_get_session
FUNC 62440 a 0 yaSSL::yaSSL_get1_session
FUNC 62450 3c 0 yaSSL::yaSSL_CTX_set_session_cache_mode
FUNC 62490 e 0 yaSSL::yaSSL_get_quiet_shutdown
FUNC 624a0 14 0 yaSSL::yaSSL_set_quiet_shutdown
FUNC 624c0 12 0 yaSSL::yaSSL_get_fd
FUNC 624e0 8e 0 yaSSL::yaSSL_shutdown
FUNC 62570 349 0 yaSSL::yaSSL_accept
FUNC 628c0 a 0 yaSSL::yaSSL_write
FUNC 628d0 37e 0 yaSSL::yaSSL_connect
FUNC 62c50 3e 0 yaSSL::yaSSL_do_handshake
FUNC 62c90 26 0 yaSSL::yaSSL_set_fd
FUNC 62cc0 4c 0 yaSSL::yaSSL_new
FUNC 62d10 2f 0 yaSSL::yaSSL_CTX_free
FUNC 62d40 4c 0 yaSSL::yaSSL_CTX_new
FUNC 62d90 61 0 yaSSL::yaSSLv23_client_method
FUNC 62e00 5e 0 yaSSL::yaSSLv23_server_method
FUNC 62e60 5e 0 yaSSL::yaTLSv1_1_client_method
FUNC 62ec0 5b 0 yaSSL::yaTLSv1_1_server_method
FUNC 62f20 5e 0 yaSSL::yaTLSv1_client_method
FUNC 62f80 5b 0 yaSSL::yaTLSv1_server_method
FUNC 62fe0 5b 0 yaSSL::yaSSLv3_client_method
FUNC 63040 58 0 yaSSL::yaSSLv3_server_method
FUNC 630a0 5d 0 yaSSL::yaSSL_pending
FUNC 63100 1b 0 yaSSL::yaERR_error_string_n
FUNC 63120 19 0 yaSSL::yaSSL_get_cipher_name
FUNC 63140 2b 0 yaSSL::yaERR_get_error
FUNC 63170 2e 0 yaSSL::yaERR_peek_error
FUNC 631a0 56 0 yaSSL::yaDH_free
FUNC 63200 5b 0 yaSSL::yaSSLv3_method
FUNC 63260 a 0 yaSSL::yaSSL_free
FUNC 63270 d1 0 yaSSL::yaBN_bin2bn
FUNC 63350 868 0 yaSSL::read_file
FUNC 63bc0 247 0 yaSSL::yaSSL_CTX_load_verify_locations
FUNC 63e10 f 0 yaSSL::yaSSL_CTX_use_PrivateKey_file
FUNC 63e20 c 0 yaSSL::yaSSL_CTX_use_certificate_file
FUNC 63e30 10 0 yaSSL::Message::~Message
FUNC 63e40 37 0 mySTL::auto_ptr<yaSSL::BulkCipher>::reset
FUNC 63e80 14 0 yaSSL::Message::~Message
FUNC 63ea0 4c 0 TaoCrypt::Source::Source
FUNC 63ef0 37 0 TaoCrypt::AllocatorWithCleanup<unsigned char>::deallocate
FUNC 63f30 2f 0 yaSSL::ysDelete<yaSSL::x509>
FUNC 63f60 118 0 yaSSL::ysDelete<yaSSL::SSL>
FUNC 64080 135 0 TaoCrypt::RSA_PrivateKey::~RSA_PrivateKey
FUNC 641c0 c5 0 TaoCrypt::DSA_PrivateKey::~DSA_PrivateKey
FUNC 64290 8 0 __cxa_pure_virtual
FUNC 642a0 b4 0 yaSSL::::hashHandShake
FUNC 64360 22c 0 yaSSL::sendCertificateVerify
FUNC 64590 94 0 yaSSL::hashHandShake
FUNC 64630 5a9 0 yaSSL::build_certHashes
FUNC 64be0 1f4 0 yaSSL::hmac
FUNC 64de0 317 0 yaSSL::ProcessOldClientHello
FUNC 65100 10c 0 yaSSL::buildClientHello
FUNC 65210 140 0 yaSSL::buildServerHello
FUNC 65350 1d3 0 yaSSL::hmac
FUNC 65530 600 0 yaSSL::DoProcessReply
FUNC 65b30 73 0 yaSSL::processReply
FUNC 65bb0 115 0 yaSSL::receiveData
FUNC 65cd0 234 0 yaSSL::::p_hash
FUNC 65f10 21e 0 yaSSL::PRF
FUNC 66130 95c 0 yaSSL::buildFinished
FUNC 66a90 1e2 0 yaSSL::TLS_hmac
FUNC 66c80 1d4 0 yaSSL::TLS_hmac
FUNC 66e60 440 0 yaSSL::::buildMessage
FUNC 672a0 2ff 0 yaSSL::sendData
FUNC 675a0 136 0 yaSSL::sendAlert
FUNC 676e0 1d8 0 yaSSL::sendChangeCipher
FUNC 678c0 667 0 yaSSL::sendFinished
FUNC 67f30 25f 0 yaSSL::sendServerHello
FUNC 68190 1de 0 yaSSL::sendClientHello
FUNC 68370 214 0 yaSSL::sendClientKeyExchange
FUNC 68590 204 0 yaSSL::sendCertificateRequest
FUNC 687a0 1e6 0 yaSSL::sendCertificate
FUNC 68990 1c6 0 yaSSL::sendServerHelloDone
FUNC 68b60 214 0 yaSSL::sendServerKeyExchange
FUNC 68d80 37 0 mySTL::auto_ptr<yaSSL::output_buffer>::~auto_ptr
FUNC 68dc0 8 0 __cxa_pure_virtual
FUNC 68dd0 c 0 yaSSL::ProtocolVersion::ProtocolVersion
FUNC 68de0 1f 0 yaSSL::EncryptedPreMasterSecret::EncryptedPreMasterSecret
FUNC 68e00 9 0 yaSSL::EncryptedPreMasterSecret::get_length
FUNC 68e10 a 0 yaSSL::EncryptedPreMasterSecret::get_clientKey
FUNC 68e20 1f 0 yaSSL::ClientDiffieHellmanPublic::ClientDiffieHellmanPublic
FUNC 68e40 9 0 yaSSL::ClientDiffieHellmanPublic::get_length
FUNC 68e50 a 0 yaSSL::ClientDiffieHellmanPublic::get_clientKey
FUNC 68e60 54 0 yaSSL::DH_Server::DH_Server
FUNC 68ec0 9 0 yaSSL::DH_Server::get_length
FUNC 68ed0 a 0 yaSSL::DH_Server::get_serverKey
FUNC 68ee0 16 0 yaSSL::operator>>
FUNC 68f00 17 0 yaSSL::operator<<
FUNC 68f20 b 0 yaSSL::HandShakeHeader::get_type
FUNC 68f30 9 0 yaSSL::HandShakeHeader::get_handshakeType
FUNC 68f40 9 0 yaSSL::HandShakeHeader::set_type
FUNC 68f50 9 0 yaSSL::HandShakeBase::get_length
FUNC 68f60 9 0 yaSSL::HandShakeBase::set_length
FUNC 68f70 b 0 yaSSL::HandShakeBase::get_type
FUNC 68f80 9 0 yaSSL::HandShakeBase::set
FUNC 68f90 9 0 yaSSL::HandShakeBase::get
FUNC 68fa0 6 0 yaSSL::HandShakeBase::Process
FUNC 68fb0 9 0 yaSSL::HelloRequest::set
FUNC 68fc0 9 0 yaSSL::HelloRequest::get
FUNC 68fd0 6 0 yaSSL::HelloRequest::Process
FUNC 68fe0 8 0 yaSSL::HelloRequest::get_type
FUNC 68ff0 17 0 yaSSL::ChangeCipherSpec::ChangeCipherSpec
FUNC 69010 b 0 yaSSL::ChangeCipherSpec::get_type
FUNC 69020 b 0 yaSSL::ChangeCipherSpec::get_length
FUNC 69030 16 0 yaSSL::Alert::Alert
FUNC 69050 b 0 yaSSL::Alert::get_type
FUNC 69060 b 0 yaSSL::Alert::get_length
FUNC 69070 26 0 yaSSL::Data::Data
FUNC 690a0 20 0 yaSSL::Data::Data
FUNC 690c0 e 0 yaSSL::Data::SetData
FUNC 690d0 9 0 yaSSL::Data::set
FUNC 690e0 b 0 yaSSL::Data::get_type
FUNC 690f0 a 0 yaSSL::Data::get_length
FUNC 69100 a 0 yaSSL::Data::set_length
FUNC 69110 a 0 yaSSL::Data::set_buffer
FUNC 69120 17 0 yaSSL::operator>>
FUNC 69140 17 0 yaSSL::operator<<
FUNC 69160 18 0 yaSSL::Certificate::Certificate
FUNC 69180 9 0 yaSSL::Certificate::set
FUNC 69190 b 0 yaSSL::Certificate::get_type
FUNC 691a0 32 0 yaSSL::ServerDHParams::ServerDHParams
FUNC 691e0 8 0 yaSSL::ServerDHParams::get_pSize
FUNC 691f0 9 0 yaSSL::ServerDHParams::get_gSize
FUNC 69200 9 0 yaSSL::ServerDHParams::get_pubSize
FUNC 69210 a 0 yaSSL::ServerDHParams::get_p
FUNC 69220 a 0 yaSSL::ServerDHParams::get_g
FUNC 69230 a 0 yaSSL::ServerDHParams::get_pub
FUNC 69240 8 0 yaSSL::ServerKeyBase::get_length
FUNC 69250 8 0 yaSSL::ServerKeyBase::get_serverKey
FUNC 69260 b 0 yaSSL::ServerHello::get_type
FUNC 69270 a 0 yaSSL::ServerHello::get_random
FUNC 69280 17 0 yaSSL::ServerHelloDone::ServerHelloDone
FUNC 692a0 9 0 yaSSL::ServerHelloDone::set
FUNC 692b0 9 0 yaSSL::ServerHelloDone::get
FUNC 692c0 b 0 yaSSL::ServerHelloDone::get_type
FUNC 692d0 8 0 yaSSL::ClientKeyBase::get_length
FUNC 692e0 8 0 yaSSL::ClientKeyBase::get_clientKey
FUNC 692f0 b 0 yaSSL::ClientHello::get_type
FUNC 69300 a 0 yaSSL::ClientHello::get_random
FUNC 69310 18 0 yaSSL::ServerKeyExchange::ServerKeyExchange
FUNC 69330 48 0 yaSSL::ServerKeyExchange::~ServerKeyExchange
FUNC 69380 2a 0 yaSSL::ServerKeyExchange::build
FUNC 693b0 12 0 yaSSL::ServerKeyExchange::getKey
FUNC 693d0 12 0 yaSSL::ServerKeyExchange::getKeyLength
FUNC 693f0 9 0 yaSSL::ServerKeyExchange::set
FUNC 69400 b 0 yaSSL::ServerKeyExchange::get_type
FUNC 69410 22 0 yaSSL::CertificateRequest::Build
FUNC 69440 b 0 yaSSL::CertificateRequest::get_type
FUNC 69450 18 0 yaSSL::CertificateVerify::CertificateVerify
FUNC 69470 b 0 yaSSL::CertificateVerify::get_type
FUNC 69480 18 0 yaSSL::ClientKeyExchange::ClientKeyExchange
FUNC 694a0 48 0 yaSSL::ClientKeyExchange::~ClientKeyExchange
FUNC 694f0 2a 0 yaSSL::ClientKeyExchange::build
FUNC 69520 12 0 yaSSL::ClientKeyExchange::getKey
FUNC 69540 12 0 yaSSL::ClientKeyExchange::getKeyLength
FUNC 69560 9 0 yaSSL::ClientKeyExchange::set
FUNC 69570 b 0 yaSSL::ClientKeyExchange::get_type
FUNC 69580 9 0 yaSSL::operator>>
FUNC 69590 17 0 yaSSL::Finished::Finished
FUNC 695b0 a 0 yaSSL::Finished::set_md5
FUNC 695c0 a 0 yaSSL::Finished::set_sha
FUNC 695d0 9 0 yaSSL::Finished::set
FUNC 695e0 b 0 yaSSL::Finished::get_type
FUNC 695f0 14 0 yaSSL::Connection::TurnOffTLS
FUNC 69610 14 0 yaSSL::Connection::TurnOffTLS1_1
FUNC 69630 23 0 yaSSL::Connection::AllocPreSecret
FUNC 69660 22 0 yaSSL::ServerDHParams::alloc_pub
FUNC 69690 22 0 yaSSL::ServerDHParams::alloc_g
FUNC 696c0 21 0 yaSSL::ServerDHParams::alloc_p
FUNC 696f0 2e 0 yaSSL::ClientDiffieHellmanPublic::alloc
FUNC 69720 22 0 yaSSL::EncryptedPreMasterSecret::alloc
FUNC 69750 1a 0 yaSSL::CreateFortezzaClient
FUNC 69770 29 0 yaSSL::CreateDHClient
FUNC 697a0 29 0 yaSSL::CreateRSAClient
FUNC 697d0 1a 0 yaSSL::CreateFortezzaServerKEA
FUNC 697f0 5e 0 yaSSL::CreateDHServerKEA
FUNC 69850 1a 0 yaSSL::CreateRSAServerKEA
FUNC 69870 21 0 yaSSL::CreateFinished
FUNC 698a0 22 0 yaSSL::CreateClientKeyExchange
FUNC 698d0 22 0 yaSSL::CreateCertificateVerify
FUNC 69900 21 0 yaSSL::CreateServerHelloDone
FUNC 69930 22 0 yaSSL::CreateServerKeyExchange
FUNC 69960 22 0 yaSSL::CreateCertificate
FUNC 69990 1a 0 yaSSL::CreateHelloRequest
FUNC 699b0 30 0 yaSSL::CreateData
FUNC 699e0 1a 0 yaSSL::CreateHandShake
FUNC 69a00 1a 0 yaSSL::CreateAlert
FUNC 69a20 21 0 yaSSL::CreateCipherSpec
FUNC 69a50 cb 0 yaSSL::Connection::Connection
FUNC 69b20 52 0 yaSSL::CertificateRequest::CertificateRequest
FUNC 69b80 4a 0 yaSSL::ClientHello::ClientHello
FUNC 69bd0 3c 0 yaSSL::ClientHello::ClientHello
FUNC 69c10 6b 0 yaSSL::ServerHello::ServerHello
FUNC 69c80 60 0 yaSSL::ServerHello::ServerHello
FUNC 69ce0 62 0 yaSSL::clean
FUNC 69d50 4b 0 yaSSL::operator>>
FUNC 69da0 36 0 yaSSL::operator>>
FUNC 69de0 66 0 yaSSL::operator>>
FUNC 69e50 4b 0 yaSSL::ServerHelloDone::Process
FUNC 69ea0 2e3 0 yaSSL::Finished::Process
FUNC 6a190 6e 0 yaSSL::operator<<
FUNC 6a200 22 0 yaSSL::operator<<
FUNC 6a230 23 0 yaSSL::operator<<
FUNC 6a260 186 0 yaSSL::CertificateVerify::Process
FUNC 6a3f0 8c 0 yaSSL::operator>>
FUNC 6a480 9c 0 yaSSL::operator>>
FUNC 6a520 13 0 yaSSL::CertificateVerify::set
FUNC 6a540 d8 0 yaSSL::operator>>
FUNC 6a620 13 0 yaSSL::ServerHello::set
FUNC 6a640 7e 0 yaSSL::CertificateRequest::Process
FUNC 6a6c0 d3 0 yaSSL::operator<<
FUNC 6a7a0 13 0 yaSSL::CertificateRequest::get
FUNC 6a7c0 fc 0 yaSSL::operator<<
FUNC 6a8c0 13 0 yaSSL::ClientHello::get
FUNC 6a8e0 b3 0 yaSSL::operator<<
FUNC 6a9a0 13 0 yaSSL::ServerHello::get
FUNC 6a9c0 49 0 yaSSL::operator<<
FUNC 6aa10 35 0 yaSSL::operator<<
FUNC 6aa50 47 0 yaSSL::operator<<
FUNC 6aaa0 8c 0 yaSSL::operator<<
FUNC 6ab30 138 0 yaSSL::operator>>
FUNC 6ac70 13 0 yaSSL::CertificateRequest::set
FUNC 6ac90 1b6 0 yaSSL::operator>>
FUNC 6ae50 13 0 yaSSL::ClientHello::set
FUNC 6ae70 2a5 0 yaSSL::ServerHello::Process
FUNC 6b120 58 0 yaSSL::Certificate::Certificate
FUNC 6b180 213 0 yaSSL::Certificate::Process
FUNC 6b3a0 13 0 yaSSL::HandShakeHeader::set_length
FUNC 6b3c0 1c 0 yaSSL::Certificate::get_buffer
FUNC 6b3e0 836 0 yaSSL::Data::Process
FUNC 6bc20 267 0 yaSSL::Alert::Process
FUNC 6be90 108 0 yaSSL::ChangeCipherSpec::Process
FUNC 6bfa0 f 0 yaSSL::HandShakeHeader::get_length
FUNC 6bfb0 9d 0 yaSSL::Parameters::SetCipherNames
FUNC 6c050 98 0 yaSSL::ServerKeyExchange::createKey
FUNC 6c0f0 98 0 yaSSL::ClientKeyExchange::createKey
FUNC 6c190 39 0 yaSSL::ChangeCipherSpec::set
FUNC 6c1d0 38 0 yaSSL::ChangeCipherSpec::get
FUNC 6c210 26 0 yaSSL::Data::get
FUNC 6c240 51 0 yaSSL::operator<<
FUNC 6c2a0 25 0 yaSSL::CertificateVerify::get
FUNC 6c2d0 51 0 yaSSL::operator<<
FUNC 6c330 5f9 0 yaSSL::DH_Server::build
FUNC 6c930 16e 0 yaSSL::EncryptedPreMasterSecret::build
FUNC 6caa0 1e8 0 yaSSL::EncryptedPreMasterSecret::read
FUNC 6cc90 6b4 0 yaSSL::DH_Server::read
FUNC 6d350 f5 0 yaSSL::ClientDiffieHellmanPublic::build
FUNC 6d450 c0 0 yaSSL::operator<<
FUNC 6d510 13 0 yaSSL::Certificate::get
FUNC 6d530 46 0 yaSSL::CreateClientHello
FUNC 6d580 132 0 yaSSL::ClientDiffieHellmanPublic::read
FUNC 6d6c0 18f 0 yaSSL::HandShakeHeader::Process
FUNC 6d850 5c 0 yaSSL::CreateCertificateRequest
FUNC 6d8b0 4f 0 yaSSL::ServerKeyExchange::~ServerKeyExchange
FUNC 6d900 4f 0 yaSSL::ClientKeyExchange::~ClientKeyExchange
FUNC 6d950 71 0 yaSSL::CertificateRequest::~CertificateRequest
FUNC 6d9d0 35 0 yaSSL::CertificateVerify::~CertificateVerify
FUNC 6da10 47 0 yaSSL::ServerDHParams::~ServerDHParams
FUNC 6da60 35 0 yaSSL::ClientDiffieHellmanPublic::~ClientDiffieHellmanPublic
FUNC 6daa0 35 0 yaSSL::EncryptedPreMasterSecret::~EncryptedPreMasterSecret
FUNC 6dae0 3c 0 yaSSL::CertificateVerify::~CertificateVerify
FUNC 6db20 3c 0 yaSSL::ClientDiffieHellmanPublic::~ClientDiffieHellmanPublic
FUNC 6db60 3c 0 yaSSL::EncryptedPreMasterSecret::~EncryptedPreMasterSecret
FUNC 6dba0 8e 0 yaSSL::Connection::CleanPreMaster
FUNC 6dc30 4e 0 yaSSL::Alert::set
FUNC 6dc80 4c 0 yaSSL::Alert::get
FUNC 6dcd0 4a 0 yaSSL::HandShakeHeader::get
FUNC 6dd20 26e 0 yaSSL::CertificateVerify::Build
FUNC 6df90 6a 0 yaSSL::CreateServerHello
FUNC 6e000 78 0 yaSSL::CertificateRequest::~CertificateRequest
FUNC 6e080 82 0 yaSSL::Connection::CleanMaster
FUNC 6e110 51 0 yaSSL::ClientKeyExchange::get
FUNC 6e170 51 0 yaSSL::ServerKeyExchange::get
FUNC 6e1d0 f2 0 yaSSL::Connection::~Connection
FUNC 6e2d0 71 0 yaSSL::Finished::get
FUNC 6e350 6d 0 yaSSL::DH_Server::~DH_Server
FUNC 6e3c0 1f 0 yaSSL::DH_Server::~DH_Server
FUNC 6e3e0 337 0 yaSSL::Parameters::SetSuites
FUNC 6e720 3ce 0 yaSSL::ClientHello::Process
FUNC 6eaf0 69 0 yaSSL::HandShakeHeader::set
FUNC 6eb60 b4 0 yaSSL::ClientKeyExchange::ClientKeyExchange
FUNC 6ec20 b4 0 yaSSL::ServerKeyExchange::ServerKeyExchange
FUNC 6ece0 138 0 yaSSL::ClientKeyExchange::Process
FUNC 6ee20 ff 0 yaSSL::ServerKeyExchange::Process
FUNC 6ef20 114 0 yaSSL::Parameters::Parameters
FUNC 6f040 361 0 yaSSL::InitClientKeyFactory
FUNC 6f3b0 361 0 yaSSL::InitServerKeyFactory
FUNC 6f720 439 0 yaSSL::InitMessageFactory
FUNC 6fb60 989 0 yaSSL::InitHandShakeFactory
FUNC 704f0 10 0 yaSSL::ServerKeyBase::~ServerKeyBase
FUNC 70500 6 0 yaSSL::ServerKeyBase::build
FUNC 70510 6 0 yaSSL::ServerKeyBase::read
FUNC 70520 10 0 yaSSL::ClientKeyBase::~ClientKeyBase
FUNC 70530 6 0 yaSSL::ClientKeyBase::build
FUNC 70540 6 0 yaSSL::ClientKeyBase::read
FUNC 70550 10 0 yaSSL::Finished::~Finished
FUNC 70560 10 0 yaSSL::ClientHello::~ClientHello
FUNC 70570 10 0 yaSSL::ServerHelloDone::~ServerHelloDone
FUNC 70580 10 0 yaSSL::ServerHello::~ServerHello
FUNC 70590 10 0 yaSSL::Certificate::~Certificate
FUNC 705a0 10 0 yaSSL::Data::~Data
FUNC 705b0 10 0 yaSSL::Alert::~Alert
FUNC 705c0 10 0 yaSSL::ChangeCipherSpec::~ChangeCipherSpec
FUNC 705d0 10 0 yaSSL::HelloRequest::~HelloRequest
FUNC 705e0 10 0 yaSSL::HandShakeHeader::~HandShakeHeader
FUNC 705f0 10 0 yaSSL::FortezzaKeys::~FortezzaKeys
FUNC 70600 10 0 yaSSL::RSA_Server::~RSA_Server
FUNC 70610 10 0 yaSSL::Fortezza_Server::~Fortezza_Server
FUNC 70620 14 0 yaSSL::HandShakeHeader::~HandShakeHeader
FUNC 70640 14 0 yaSSL::HelloRequest::~HelloRequest
FUNC 70660 14 0 yaSSL::ChangeCipherSpec::~ChangeCipherSpec
FUNC 70680 14 0 yaSSL::Alert::~Alert
FUNC 706a0 14 0 yaSSL::Data::~Data
FUNC 706c0 14 0 yaSSL::Certificate::~Certificate
FUNC 706e0 14 0 yaSSL::ServerKeyBase::~ServerKeyBase
FUNC 70700 14 0 yaSSL::ServerHello::~ServerHello
FUNC 70720 14 0 yaSSL::ServerHelloDone::~ServerHelloDone
FUNC 70740 14 0 yaSSL::ClientKeyBase::~ClientKeyBase
FUNC 70760 14 0 yaSSL::ClientHello::~ClientHello
FUNC 70780 14 0 yaSSL::Finished::~Finished
FUNC 707a0 14 0 yaSSL::FortezzaKeys::~FortezzaKeys
FUNC 707c0 14 0 yaSSL::Fortezza_Server::~Fortezza_Server
FUNC 707e0 14 0 yaSSL::RSA_Server::~RSA_Server
FUNC 70800 8 0 __cxa_pure_virtual
FUNC 70810 8 0 yaSSL::NoCheck::check
FUNC 70820 c 0 yaSSL::Check::check
FUNC 70830 2e 0 yaSSL::input_buffer::input_buffer
FUNC 70860 a 0 yaSSL::input_buffer::get_buffer
FUNC 70870 29 0 yaSSL::input_buffer::add_size
FUNC 708a0 16 0 yaSSL::input_buffer::get_capacity
FUNC 708c0 12 0 yaSSL::input_buffer::get_current
FUNC 708e0 11 0 yaSSL::input_buffer::get_size
FUNC 70900 16 0 yaSSL::input_buffer::get_remaining
FUNC 70920 9 0 yaSSL::input_buffer::get_error
FUNC 70930 d 0 yaSSL::input_buffer::set_error
FUNC 70940 29 0 yaSSL::input_buffer::set_current
FUNC 70970 35 0 yaSSL::input_buffer::operator[]
FUNC 709b0 1c 0 yaSSL::input_buffer::eof
FUNC 709d0 2b 0 yaSSL::input_buffer::peek
FUNC 70a00 1c 0 yaSSL::output_buffer::output_buffer
FUNC 70a20 8 0 yaSSL::output_buffer::get_size
FUNC 70a30 d 0 yaSSL::output_buffer::get_capacity
FUNC 70a40 8 0 yaSSL::output_buffer::set_current
FUNC 70a50 a 0 yaSSL::output_buffer::get_buffer
FUNC 70a60 13 0 yaSSL::output_buffer::operator[]
FUNC 70a80 12 0 yaSSL::output_buffer::eof
FUNC 70aa0 31 0 yaSSL::output_buffer::write
FUNC 70ae0 62 0 yaSSL::input_buffer::read
FUNC 70b50 35 0 yaSSL::output_buffer::allocate
FUNC 70b90 3b 0 yaSSL::output_buffer::output_buffer
FUNC 70bd0 3c 0 yaSSL::input_buffer::allocate
FUNC 70c10 4d 0 yaSSL::input_buffer::input_buffer
FUNC 70c60 1a 0 yaSSL::output_buffer::~output_buffer
FUNC 70c80 1a 0 yaSSL::input_buffer::~input_buffer
FUNC 70ca0 67 0 yaSSL::output_buffer::output_buffer
FUNC 70d10 4f 0 yaSSL::input_buffer::assign
FUNC 70d60 bb 0 yaSSL::input_buffer::input_buffer
FUNC 70e20 8 0 __cxa_pure_virtual
FUNC 70e30 98c 0 TaoCrypt::BasicDES::RawProcessBlock
FUNC 717c0 26d 0 TaoCrypt::BasicDES::SetKey
FUNC 71a30 af 0 TaoCrypt::DES_EDE3::SetKey
FUNC 71ae0 5b 0 TaoCrypt::DES_EDE2::SetKey
FUNC 71b40 b76 0 TaoCrypt::DES::ProcessAndXorBlock
FUNC 726c0 1d9e 0 TaoCrypt::DES_EDE3::ProcessAndXorBlock
FUNC 74460 1e8e 0 TaoCrypt::DES_EDE2::ProcessAndXorBlock
FUNC 762f0 10 0 TaoCrypt::DES_EDE3::~DES_EDE3
FUNC 76300 10 0 TaoCrypt::DES_EDE2::~DES_EDE2
FUNC 76310 10 0 TaoCrypt::DES::~DES
FUNC 76320 14 0 TaoCrypt::DES::~DES
FUNC 76340 14 0 TaoCrypt::DES_EDE2::~DES_EDE2
FUNC 76360 14 0 TaoCrypt::DES_EDE3::~DES_EDE3
FUNC 76380 8 0 __cxa_pure_virtual
FUNC 76390 ad 0 TaoCrypt::RSA_BlockType1::UnPad
FUNC 76440 ae 0 TaoCrypt::RSA_BlockType1::Pad
FUNC 764f0 ad 0 TaoCrypt::RSA_BlockType2::UnPad
FUNC 765a0 9f 0 TaoCrypt::RSA_BlockType2::Pad
FUNC 76640 34 0 TaoCrypt::RSA_PrivateKey::Initialize
FUNC 76680 34 0 TaoCrypt::RSA_PublicKey::Initialize
FUNC 766c0 25 0 TaoCrypt::RSA_PublicKey::ApplyFunction
FUNC 766f0 83 0 TaoCrypt::RSA_PublicKey::RSA_PublicKey
FUNC 76780 152 0 TaoCrypt::RSA_PrivateKey::RSA_PrivateKey
FUNC 768e0 23f 0 TaoCrypt::SSL_Decrypt
FUNC 76b20 41f 0 TaoCrypt::RSA_PrivateKey::CalculateInverse
FUNC 76f40 10 0 TaoCrypt::BER_Decoder::~BER_Decoder
FUNC 76f50 8 0 TaoCrypt::AbstractGroup::InversionIsFast
FUNC 76f60 14 0 TaoCrypt::AbstractRing::MultiplicativeGroupT::~MultiplicativeGroupT
FUNC 76f80 12 0 TaoCrypt::AbstractRing::MultiplicativeGroupT::Equal
FUNC 76fa0 12 0 TaoCrypt::AbstractRing::MultiplicativeGroupT::Identity
FUNC 76fc0 15 0 TaoCrypt::AbstractRing::MultiplicativeGroupT::Add
FUNC 76fe0 15 0 TaoCrypt::AbstractRing::MultiplicativeGroupT::Inverse
FUNC 77000 15 0 TaoCrypt::AbstractRing::MultiplicativeGroupT::Subtract
FUNC 77020 15 0 TaoCrypt::AbstractRing::MultiplicativeGroupT::Double
FUNC 77040 23 0 TaoCrypt::AbstractRing::MultiplicativeGroupT::ScalarMultiply
FUNC 77070 23 0 TaoCrypt::AbstractRing::MultiplicativeGroupT::CascadeScalarMultiply
FUNC 770a0 15 0 TaoCrypt::AbstractRing::MultiplicativeGroupT::SimultaneousMultiply
FUNC 770c0 2a 0 TaoCrypt::AbstractRing::MultiplicativeGroupT::Reduce
FUNC 770f0 2a 0 TaoCrypt::AbstractRing::MultiplicativeGroupT::Accumulate
FUNC 77120 14 0 TaoCrypt::BER_Decoder::~BER_Decoder
FUNC 77140 18 0 TaoCrypt::AbstractRing::MultiplicativeGroupT::~MultiplicativeGroupT
FUNC 77160 8 0 __cxa_pure_virtual
FUNC 77170 37 0 TaoCrypt::MD4::Init
FUNC 771b0 527 0 TaoCrypt::MD4::Transform
FUNC 776e0 82 0 TaoCrypt::MD4::Swap
FUNC 77770 9f 0 TaoCrypt::MD4::MD4
FUNC 77810 ee 0 TaoCrypt::MD4::operator=
FUNC 77900 8 0 TaoCrypt::MD4::getByteOrder
FUNC 77910 b 0 TaoCrypt::MD4::getBlockSize
FUNC 77920 b 0 TaoCrypt::MD4::getDigestSize
FUNC 77930 b 0 TaoCrypt::MD4::getPadSize
FUNC 77940 10 0 TaoCrypt::MD4::~MD4
FUNC 77950 14 0 TaoCrypt::MD4::~MD4
FUNC 77970 8 0 __cxa_pure_virtual
FUNC 77980 11 0 TaoCrypt::AbstractGroup::Double
FUNC 779a0 14 0 TaoCrypt::AbstractRing::Square
FUNC 779c0 23 0 TaoCrypt::AbstractGroup::Reduce
FUNC 779f0 23 0 TaoCrypt::AbstractGroup::Accumulate
FUNC 77a20 70 0 TaoCrypt::AbstractRing::Exponentiate
FUNC 77a90 6d 0 TaoCrypt::AbstractGroup::ScalarMultiply
FUNC 77b00 9c 0 TaoCrypt::AbstractEuclideanDomain::Mod
FUNC 77ba0 99 0 TaoCrypt::AbstractRing::Divide
FUNC 77c40 93 0 TaoCrypt::AbstractGroup::Subtract
FUNC 77ce0 105a 0 TaoCrypt::AbstractGroup::SimultaneousMultiply
FUNC 78d40 4c 0 TaoCrypt::AbstractRing::SimultaneousExponentiate
FUNC 78d90 834 0 TaoCrypt::AbstractGroup::CascadeScalarMultiply
FUNC 795d0 5b 0 TaoCrypt::AbstractRing::CascadeExponentiate
FUNC 79630 1e7 0 TaoCrypt::AbstractEuclideanDomain::Gcd
FUNC 79820 10 0 TaoCrypt::AbstractGroup::~AbstractGroup
FUNC 79830 a 0 TaoCrypt::AbstractRing::MultiplicativeGroup
FUNC 79840 14 0 TaoCrypt::AbstractRing::~AbstractRing
FUNC 79860 14 0 TaoCrypt::AbstractGroup::~AbstractGroup
FUNC 79880 18 0 TaoCrypt::AbstractRing::~AbstractRing
FUNC 798a0 71 0 mySTL::vector<TaoCrypt::Integer>::~vector
FUNC 79920 58 0 TaoCrypt::AbstractEuclideanDomain::~AbstractEuclideanDomain
FUNC 79980 5f 0 TaoCrypt::AbstractEuclideanDomain::~AbstractEuclideanDomain
FUNC 799e0 91 0 mySTL::vector<TaoCrypt::WindowSlider>::~vector
FUNC 79a80 8 0 __cxa_pure_virtual
FUNC 79a90 3e 0 TaoCrypt::SHA::Init
FUNC 79ad0 53 0 TaoCrypt::SHA256::Init
FUNC 79b30 53 0 TaoCrypt::SHA224::Init
FUNC 79b90 8b 0 TaoCrypt::SHA512::Init
FUNC 79c20 8b 0 TaoCrypt::SHA384::Init
FUNC 79cb0 10a6 0 TaoCrypt::Transform512
FUNC 7ad60 12 0 TaoCrypt::SHA384::Transform
FUNC 7ad80 12 0 TaoCrypt::SHA512::Transform
FUNC 7ada0 eff 0 TaoCrypt::Transform256
FUNC 7bca0 12 0 TaoCrypt::SHA224::Transform
FUNC 7bcc0 12 0 TaoCrypt::SHA256::Transform
FUNC 7bce0 150a 0 TaoCrypt::SHA::Transform
FUNC 7d1f0 ea 0 TaoCrypt::SHA384::Swap
FUNC 7d2e0 fa 0 TaoCrypt::SHA512::Swap
FUNC 7d3e0 98 0 TaoCrypt::SHA224::Swap
FUNC 7d480 9a 0 TaoCrypt::SHA256::Swap
FUNC 7d520 90 0 TaoCrypt::SHA::Swap
FUNC 7d5b0 107 0 TaoCrypt::SHA384::SHA384
FUNC 7d6c0 117 0 TaoCrypt::SHA512::SHA512
FUNC 7d7e0 b5 0 TaoCrypt::SHA224::SHA224
FUNC 7d8a0 b7 0 TaoCrypt::SHA256::SHA256
FUNC 7d960 ad 0 TaoCrypt::SHA::SHA
FUNC 7da10 fd 0 TaoCrypt::SHA::operator=
FUNC 7db10 120 0 TaoCrypt::SHA256::operator=
FUNC 7dc30 105 0 TaoCrypt::SHA224::operator=
FUNC 7dd40 21f 0 TaoCrypt::SHA512::operator=
FUNC 7df60 1d2 0 TaoCrypt::SHA384::operator=
FUNC 7e140 b 0 TaoCrypt::SHA::getByteOrder
FUNC 7e150 b 0 TaoCrypt::SHA::getBlockSize
FUNC 7e160 b 0 TaoCrypt::SHA::getDigestSize
FUNC 7e170 b 0 TaoCrypt::SHA::getPadSize
FUNC 7e180 b 0 TaoCrypt::SHA256::getByteOrder
FUNC 7e190 b 0 TaoCrypt::SHA256::getBlockSize
FUNC 7e1a0 b 0 TaoCrypt::SHA256::getDigestSize
FUNC 7e1b0 b 0 TaoCrypt::SHA256::getPadSize
FUNC 7e1c0 b 0 TaoCrypt::SHA224::getByteOrder
FUNC 7e1d0 b 0 TaoCrypt::SHA224::getBlockSize
FUNC 7e1e0 b 0 TaoCrypt::SHA224::getDigestSize
FUNC 7e1f0 b 0 TaoCrypt::SHA224::getPadSize
FUNC 7e200 b 0 TaoCrypt::SHA512::getByteOrder
FUNC 7e210 b 0 TaoCrypt::SHA512::getBlockSize
FUNC 7e220 b 0 TaoCrypt::SHA512::getDigestSize
FUNC 7e230 b 0 TaoCrypt::SHA512::getPadSize
FUNC 7e240 b 0 TaoCrypt::SHA384::getByteOrder
FUNC 7e250 b 0 TaoCrypt::SHA384::getBlockSize
FUNC 7e260 b 0 TaoCrypt::SHA384::getDigestSize
FUNC 7e270 b 0 TaoCrypt::SHA384::getPadSize
FUNC 7e280 10 0 TaoCrypt::SHA::~SHA
FUNC 7e290 10 0 TaoCrypt::SHA256::~SHA256
FUNC 7e2a0 10 0 TaoCrypt::SHA224::~SHA224
FUNC 7e2b0 10 0 TaoCrypt::SHA512::~SHA512
FUNC 7e2c0 10 0 TaoCrypt::SHA384::~SHA384
FUNC 7e2d0 14 0 TaoCrypt::SHA::~SHA
FUNC 7e2f0 14 0 TaoCrypt::SHA256::~SHA256
FUNC 7e310 14 0 TaoCrypt::SHA224::~SHA224
FUNC 7e330 14 0 TaoCrypt::SHA512::~SHA512
FUNC 7e350 14 0 TaoCrypt::SHA384::~SHA384
FUNC 7e370 8 0 __cxa_pure_virtual
FUNC 7e380 d 0 TaoCrypt::btoi
FUNC 7e390 3c 0 TaoCrypt::GetTime
FUNC 7e3d0 7a 0 TaoCrypt::::operator>
FUNC 7e450 c5 0 TaoCrypt::GetLength
FUNC 7e520 d 0 TaoCrypt::BER_Decoder::GetError
FUNC 7e530 bb 0 TaoCrypt::BER_Decoder::GetVersion
FUNC 7e5f0 26 0 TaoCrypt::Signature_Encoder::SetDigest
FUNC 7e620 87 0 TaoCrypt::CertDecoder::AddTag
FUNC 7e6b0 13 0 TaoCrypt::PublicKey::SetKey
FUNC 7e6d0 20 0 TaoCrypt::PublicKey::SetSize
FUNC 7e6f0 27c 0 TaoCrypt::ASN1_TIME_extract
FUNC 7e970 43 0 TaoCrypt::CertDecoder::~CertDecoder
FUNC 7e9c0 1a 0 TaoCrypt::Signer::~Signer
FUNC 7e9e0 7f 0 TaoCrypt::PublicKey::AddToEnd
FUNC 7ea60 1c4 0 TaoCrypt::CertDecoder::AddDSA
FUNC 7ec30 29 0 TaoCrypt::BER_Decoder::GetInteger
FUNC 7ec60 89 0 TaoCrypt::SetLength
FUNC 7ecf0 4e 0 TaoCrypt::PublicKey::PublicKey
FUNC 7ed40 a6 0 TaoCrypt::Signer::Signer
FUNC 7edf0 4a 0 TaoCrypt::CertDecoder::~CertDecoder
FUNC 7ee40 a2 0 TaoCrypt::SetSequence
FUNC 7eef0 311 0 TaoCrypt::EncodeDSA_Signature
FUNC 7f210 169 0 TaoCrypt::DER_Encoder::SetAlgoID
FUNC 7f380 336 0 TaoCrypt::Signature_Encoder::Signature_Encoder
FUNC 7f6c0 14c 0 TaoCrypt::CertDecoder::StoreKey
FUNC 7f810 1b5 0 TaoCrypt::CertDecoder::GetAlgoId
FUNC 7f9d0 161 0 TaoCrypt::BER_Decoder::GetExplicitVersion
FUNC 7fb40 4fa 0 TaoCrypt::DecodeDSA_Signature
FUNC 80040 c3 0 TaoCrypt::EncodeDSA_Signature
FUNC 80110 2cb 0 TaoCrypt::CertDecoder::GetKey
FUNC 803e0 242 0 TaoCrypt::DSA_Private_Decoder::Decode
FUNC 80630 392 0 TaoCrypt::RSA_Private_Decoder::Decode
FUNC 809d0 1d7 0 TaoCrypt::CertDecoder::ReadHeader
FUNC 80bb0 117 0 TaoCrypt::DH_Decoder::Decode
FUNC 80cd0 1d2 0 TaoCrypt::DSA_Public_Decoder::Decode
FUNC 80eb0 16d 0 TaoCrypt::CertDecoder::GetDigest
FUNC 81020 1f5 0 TaoCrypt::CertDecoder::GetSignature
FUNC 81220 11d 0 TaoCrypt::BER_Decoder::GetSet
FUNC 81340 11d 0 TaoCrypt::BER_Decoder::GetSequence
FUNC 81460 349 0 TaoCrypt::RSA_Public_Decoder::ReadHeaderOpenSSL
FUNC 817b0 2d9 0 TaoCrypt::CertDecoder::GetDate
FUNC 81a90 7b 0 TaoCrypt::CertDecoder::GetValidity
FUNC 81b10 11d 0 TaoCrypt::RSA_Public_Decoder::ReadHeader
FUNC 81c30 10d 0 TaoCrypt::DH_Decoder::ReadHeader
FUNC 81d40 a77 0 TaoCrypt::CertDecoder::GetName
FUNC 827c0 ab 0 TaoCrypt::CertDecoder::DecodeToKey
FUNC 82870 1dd 0 TaoCrypt::RSA_Private_Decoder::ReadHeader
FUNC 82a50 12f 0 TaoCrypt::RSA_Public_Decoder::Decode
FUNC 82b80 10d 0 TaoCrypt::DSA_Public_Decoder::ReadHeader
FUNC 82c90 705 0 TaoCrypt::CertDecoder::ConfirmSignature
FUNC 833a0 f0 0 TaoCrypt::CertDecoder::ValidateSignature
FUNC 83490 c9 0 TaoCrypt::CertDecoder::Decode
FUNC 83560 2d3 0 TaoCrypt::CertDecoder::GetCompareHash
FUNC 83840 16c 0 TaoCrypt::CertDecoder::CertDecoder
FUNC 839b0 9a 0 TaoCrypt::CertDecoder::ValidateSelfSignature
FUNC 83a50 1dd 0 TaoCrypt::DSA_Private_Decoder::ReadHeader
FUNC 83c30 10 0 TaoCrypt::DER_Encoder::~DER_Encoder
FUNC 83c40 10 0 TaoCrypt::Signature_Encoder::~Signature_Encoder
FUNC 83c50 10 0 TaoCrypt::DH_Decoder::~DH_Decoder
FUNC 83c60 10 0 TaoCrypt::DSA_Public_Decoder::~DSA_Public_Decoder
FUNC 83c70 10 0 TaoCrypt::RSA_Public_Decoder::~RSA_Public_Decoder
FUNC 83c80 10 0 TaoCrypt::DSA_Private_Decoder::~DSA_Private_Decoder
FUNC 83c90 10 0 TaoCrypt::RSA_Private_Decoder::~RSA_Private_Decoder
FUNC 83ca0 14 0 TaoCrypt::RSA_Private_Decoder::~RSA_Private_Decoder
FUNC 83cc0 14 0 TaoCrypt::DSA_Private_Decoder::~DSA_Private_Decoder
FUNC 83ce0 14 0 TaoCrypt::RSA_Public_Decoder::~RSA_Public_Decoder
FUNC 83d00 14 0 TaoCrypt::DSA_Public_Decoder::~DSA_Public_Decoder
FUNC 83d20 14 0 TaoCrypt::DH_Decoder::~DH_Decoder
FUNC 83d40 14 0 TaoCrypt::Signature_Encoder::~Signature_Encoder
FUNC 83d60 14 0 TaoCrypt::DER_Encoder::~DER_Encoder
FUNC 83d80 37 0 TaoCrypt::Source::~Source
FUNC 83dc0 8 0 __cxa_pure_virtual
FUNC 83dd0 d6 0 TaoCrypt::HexEncoder::Encode
FUNC 83eb0 3d6 0 TaoCrypt::Base64Decoder::Decode
FUNC 84290 399 0 TaoCrypt::Base64Encoder::Encode
FUNC 84630 126 0 TaoCrypt::HexDecoder::Decode
FUNC 84760 d8 0 TaoCrypt::StdReallocate<unsigned char, TaoCrypt::AllocatorWithCleanup<unsigned char> >
FUNC 84840 8 0 __cxa_pure_virtual
FUNC 84850 d2 0 TaoCrypt::MD2::Init
FUNC 84930 d7 0 TaoCrypt::MD2::Final
FUNC 84a10 697 0 TaoCrypt::MD2::Update
FUNC 850b0 1b2 0 TaoCrypt::MD2::MD2
FUNC 85270 b 0 TaoCrypt::MD2::getBlockSize
FUNC 85280 b 0 TaoCrypt::MD2::getDigestSize
FUNC 85290 7d 0 TaoCrypt::MD2::~MD2
FUNC 85310 84 0 TaoCrypt::MD2::~MD2
FUNC 853a0 8 0 __cxa_pure_virtual
FUNC 853b0 72 0 TaoCrypt::Portable::Add
FUNC 85430 71 0 TaoCrypt::Portable::Subtract
FUNC 854b0 17d 0 TaoCrypt::Portable::Multiply2
FUNC 85630 30 0 TaoCrypt::Portable::Multiply2Bottom
FUNC 85660 1c5 0 TaoCrypt::Portable::Multiply2Add
FUNC 85830 2f8 0 TaoCrypt::Portable::Multiply4
FUNC 85b30 7c 0 TaoCrypt::Portable::Square2
FUNC 85bb0 215 0 TaoCrypt::Portable::Square4
FUNC 85dd0 c36 0 TaoCrypt::Portable::Multiply8
FUNC 86a10 114 0 TaoCrypt::Portable::Multiply4Bottom
FUNC 86b30 555 0 TaoCrypt::Portable::Multiply8Bottom
FUNC 87090 55f 0 TaoCrypt::RecursiveMultiply
FUNC 875f0 198 0 TaoCrypt::RecursiveSquare
FUNC 87790 604 0 TaoCrypt::AsymmetricMultiply
FUNC 87da0 828 0 TaoCrypt::AlmostInverse
FUNC 885d0 196 0 TaoCrypt::DivideByPower2Mod
FUNC 88770 156 0 TaoCrypt::MultiplyByPower2Mod
FUNC 888d0 3b 0 TaoCrypt::Integer::operator!
FUNC 88910 390 0 TaoCrypt::PositiveSubtract
FUNC 88ca0 8b 0 TaoCrypt::Integer::PositiveCompare
FUNC 88d30 27 0 TaoCrypt::Integer::GetBit
FUNC 88d60 29 0 TaoCrypt::Integer::GetByte
FUNC 88d90 20 0 TaoCrypt::Integer::WordCount
FUNC 88db0 1c 0 TaoCrypt::Integer::ConvertToLong
FUNC 88dd0 2e 0 TaoCrypt::Integer::Swap
FUNC 88e00 39 0 TaoCrypt::Integer::IsUnit
FUNC 88e40 722 0 TaoCrypt::RecursiveMultiplyTop
FUNC 89570 53 0 TaoCrypt::RoundupSize
FUNC 895d0 50 0 TaoCrypt::Integer::BitCount
FUNC 89620 4d 0 TaoCrypt::Integer::ByteCount
FUNC 89670 17b 0 TaoCrypt::RecursiveMultiplyBottom
FUNC 897f0 35b 0 TaoCrypt::RecursiveInverseModPower2
FUNC 89b50 140 0 TaoCrypt::MontgomeryReduce
FUNC 89c90 3f 0 TaoCrypt::Integer::Negate
FUNC 89cd0 138 0 TaoCrypt::ModularArithmetic::Inverse
FUNC 89e10 56 0 TaoCrypt::Integer::GetBits
FUNC 89e70 7b 0 TaoCrypt::Integer::IsConvertableToLong
FUNC 89ef0 37b 0 TaoCrypt::Integer::Decode
FUNC 8a270 d2 0 TaoCrypt::Integer::Randomize
FUNC 8a350 92 0 TaoCrypt::Integer::Zero
FUNC 8a3f0 9b 0 TaoCrypt::Integer::Compare
FUNC 8a490 181 0 TaoCrypt::Integer::Power2
FUNC 8a620 a0e 0 TaoCrypt::Divide
FUNC 8b030 a0 0 TaoCrypt::Integer::Integer
FUNC 8b0d0 89 0 TaoCrypt::Integer::Integer
FUNC 8b160 ac 0 TaoCrypt::Integer::Integer
FUNC 8b210 177 0 TaoCrypt::Integer::Integer
FUNC 8b390 7a 0 TaoCrypt::Integer::One
FUNC 8b410 85 0 TaoCrypt::Integer::Integer
FUNC 8b4a0 1b4 0 TaoCrypt::Integer::Integer
FUNC 8b660 22 0 TaoCrypt::Integer::AbsoluteValue
FUNC 8b690 5b 0 TaoCrypt::Integer::operator-
FUNC 8b6f0 67 0 TaoCrypt::Integer::MultiplicativeInverse
FUNC 8b760 1d5 0 TaoCrypt::Integer::operator<<=
FUNC 8b940 115 0 TaoCrypt::Integer::SetByte
FUNC 8ba60 cf 0 TaoCrypt::Integer::SetBit
FUNC 8bb30 317 0 TaoCrypt::PositiveMultiply
FUNC 8be50 94 0 TaoCrypt::Multiply
FUNC 8bef0 8e 0 TaoCrypt::CleanUp
FUNC 8bf80 1c8 0 TaoCrypt::Integer::Gcd
FUNC 8c150 3d8 0 TaoCrypt::MontgomeryRepresentation::MontgomeryRepresentation
FUNC 8c530 229 0 TaoCrypt::a_exp_b_mod_c
FUNC 8c760 11b 0 TaoCrypt::Integer::Times
FUNC 8c880 1bc 0 TaoCrypt::Integer::Modulo
FUNC 8ca40 a0 0 TaoCrypt::Integer::InverseMod
FUNC 8cae0 185 0 TaoCrypt::Integer::MinEncodedSize
FUNC 8cc70 366 0 TaoCrypt::PositiveAdd
FUNC 8cfe0 d0 0 TaoCrypt::Integer::operator-=
FUNC 8d0b0 d7 0 TaoCrypt::Integer::operator+=
FUNC 8d190 8f 0 TaoCrypt::ModularArithmetic::Reduce
FUNC 8d220 16e 0 TaoCrypt::ModularArithmetic::Accumulate
FUNC 8d390 1cb 0 TaoCrypt::Integer::Minus
FUNC 8d560 185 0 TaoCrypt::Integer::Randomize
FUNC 8d6f0 85 0 TaoCrypt::Integer::Integer
FUNC 8d780 1ca 0 TaoCrypt::Integer::Plus
FUNC 8d950 1b1 0 TaoCrypt::Integer::Encode
FUNC 8db10 505 0 TaoCrypt::MontgomeryRepresentation::MultiplicativeInverse
FUNC 8e020 23a 0 TaoCrypt::MontgomeryRepresentation::Multiply
FUNC 8e260 2bd 0 TaoCrypt::MontgomeryRepresentation::ConvertOut
FUNC 8e520 21a 0 TaoCrypt::MontgomeryRepresentation::Square
FUNC 8e740 167 0 TaoCrypt::Integer::Decode
FUNC 8e8b0 a2 0 TaoCrypt::Integer::Integer
FUNC 8e960 1a5 0 TaoCrypt::Integer::operator=
FUNC 8eb10 ee 0 TaoCrypt::ModularArithmetic::Subtract
FUNC 8ec00 1ae 0 TaoCrypt::ModularArithmetic::Add
FUNC 8edb0 45c 0 TaoCrypt::PositiveDivide
FUNC 8f210 159 0 TaoCrypt::Integer::operator>>=
FUNC 8f370 13a 0 TaoCrypt::ModularArithmetic::Half
FUNC 8f4b0 128 0 TaoCrypt::Integer::operator++
FUNC 8f5e0 1e7 0 TaoCrypt::Integer::operator--
FUNC 8f7d0 19c 0 TaoCrypt::Integer::Divide
FUNC 8f970 163 0 TaoCrypt::Integer::Modulo
FUNC 8fae0 469 0 TaoCrypt::ModularArithmetic::SimultaneousExponentiate
FUNC 8ff50 335 0 TaoCrypt::ModularArithmetic::CascadeExponentiate
FUNC 90290 187 0 TaoCrypt::CRT
FUNC 90420 1ef 0 TaoCrypt::ModularRoot
FUNC 90610 7a 0 TaoCrypt::a_times_b_mod_c
FUNC 90690 163 0 TaoCrypt::Integer::DividedBy
FUNC 90800 5b6 0 TaoCrypt::Integer::InverseMod
FUNC 90dc0 418 0 TaoCrypt::Integer::SquareRoot
FUNC 911e0 19d 0 TaoCrypt::Integer::IsSquare
FUNC 91380 5ec 0 TaoCrypt::Integer::Divide
FUNC 91970 c7 0 TaoCrypt::Integer::DividedBy
FUNC 91a40 4ad 0 TaoCrypt::Integer::DivideByPowerOf2
FUNC 91ef0 8 0 TaoCrypt::ModularArithmetic::IsMontgomeryRepresentation
FUNC 91f00 11 0 TaoCrypt::ModularArithmetic::Double
FUNC 91f20 48 0 TaoCrypt::ModularArithmetic::Divide
FUNC 91f70 b 0 TaoCrypt::MontgomeryRepresentation::IsMontgomeryRepresentation
FUNC 91f80 e0 0 TaoCrypt::DivideThreeWordsByTwo<unsigned int, TaoCrypt::Word>
FUNC 92060 37 0 TaoCrypt::AllocatorWithCleanup<long unsigned int>::deallocate
FUNC 920a0 a 0 TaoCrypt::MontgomeryRepresentation::SimultaneousExponentiate
FUNC 920b0 1b 0 TaoCrypt::MontgomeryRepresentation::CascadeExponentiate
FUNC 920d0 39 0 TaoCrypt::EuclideanDomainOf::IsUnit
FUNC 92110 3f 0 TaoCrypt::Block<long unsigned int, TaoCrypt::AllocatorWithCleanup<long unsigned int> >::~Block
FUNC 92150 ef 0 TaoCrypt::AllocatorWithCleanup<long unsigned int>::reallocate
FUNC 92240 5a 0 TaoCrypt::Block<long unsigned int, TaoCrypt::AllocatorWithCleanup<long unsigned int> >::CleanGrow
FUNC 922a0 7e 0 TaoCrypt::Block<long unsigned int, TaoCrypt::AllocatorWithCleanup<long unsigned int> >::Block
FUNC 92320 1d1 0 TaoCrypt::DivideThreeWordsByTwo<long unsigned int, TaoCrypt::DWord>
FUNC 92500 1e 0 TaoCrypt::ModularArithmetic::ConvertOut
FUNC 92520 b4 0 TaoCrypt::ModularArithmetic::Equal
FUNC 925e0 b4 0 TaoCrypt::EuclideanDomainOf::Equal
FUNC 926a0 7a 0 TaoCrypt::ModularArithmetic::MultiplicativeIdentity
FUNC 92720 7a 0 TaoCrypt::EuclideanDomainOf::MultiplicativeIdentity
FUNC 927a0 204 0 TaoCrypt::ModularArithmetic::ModularArithmetic
FUNC 929b0 56 0 TaoCrypt::EuclideanDomainOf::~EuclideanDomainOf
FUNC 92a10 91 0 TaoCrypt::ModularArithmetic::~ModularArithmetic
FUNC 92ab0 1f 0 TaoCrypt::ModularArithmetic::~ModularArithmetic
FUNC 92ad0 67 0 TaoCrypt::MontgomeryRepresentation::~MontgomeryRepresentation
FUNC 92b40 1f 0 TaoCrypt::MontgomeryRepresentation::~MontgomeryRepresentation
FUNC 92b60 7d 0 TaoCrypt::EuclideanDomainOf::~EuclideanDomainOf
FUNC 92be0 89 0 TaoCrypt::ModularArithmetic::IsUnit
FUNC 92c70 1bc 0 TaoCrypt::DWord::operator%
FUNC 92e30 10 0 TaoCrypt::EuclideanDomainOf::Reduce
FUNC 92e40 10 0 TaoCrypt::EuclideanDomainOf::Accumulate
FUNC 92e50 92 0 TaoCrypt::ModularArithmetic::Identity
FUNC 92ef0 92 0 TaoCrypt::EuclideanDomainOf::Identity
FUNC 92f90 8d 0 TaoCrypt::Block<long unsigned int, TaoCrypt::AllocatorWithCleanup<long unsigned int> >::CleanNew
FUNC 93020 6b 0 TaoCrypt::EuclideanDomainOf::Subtract
FUNC 93090 6b 0 TaoCrypt::EuclideanDomainOf::Add
FUNC 93100 6e 0 TaoCrypt::EuclideanDomainOf::Double
FUNC 93170 a6 0 TaoCrypt::EuclideanDomainOf::Inverse
FUNC 93220 6e 0 TaoCrypt::EuclideanDomainOf::Square
FUNC 93290 6b 0 TaoCrypt::EuclideanDomainOf::Multiply
FUNC 93300 aa 0 TaoCrypt::EuclideanDomainOf::MultiplicativeInverse
FUNC 933b0 82 0 TaoCrypt::Integer::operator>>
FUNC 93440 16 0 TaoCrypt::EuclideanDomainOf::DivisionAlgorithm
FUNC 93460 25 0 TaoCrypt::ModularArithmetic::ConvertIn
FUNC 93490 b3 0 TaoCrypt::ModularArithmetic::Square
FUNC 93550 b0 0 TaoCrypt::ModularArithmetic::Multiply
FUNC 93600 dd 0 TaoCrypt::MontgomeryRepresentation::ConvertIn
FUNC 936e0 b6 0 TaoCrypt::MontgomeryRepresentation::MultiplicativeIdentity
FUNC 937a0 6b 0 TaoCrypt::EuclideanDomainOf::Mod
FUNC 93810 6f 0 TaoCrypt::ModularArithmetic::MultiplicativeInverse
FUNC 93880 6b 0 TaoCrypt::EuclideanDomainOf::Divide
FUNC 938f0 8 0 __cxa_pure_virtual
FUNC 93900 29 0 TaoCrypt::Source::reset
FUNC 93930 1c 0 TaoCrypt::FileSink::put
FUNC 93950 1a 0 TaoCrypt::FileSink::~FileSink
FUNC 93970 1a 0 TaoCrypt::FileSource::~FileSource
FUNC 93990 8a 0 TaoCrypt::FileSource::size
FUNC 93a20 5b 0 TaoCrypt::FileSink::FileSink
FUNC 93a80 e7 0 TaoCrypt::FileSource::get
FUNC 93b70 5d 0 TaoCrypt::FileSource::size_left
FUNC 93bd0 11c 0 TaoCrypt::FileSource::FileSource
FUNC 93cf0 8 0 __cxa_pure_virtual
FUNC 93d00 1519 0 TaoCrypt::AES::SetKey
FUNC 95220 569 0 TaoCrypt::AES::decrypt
FUNC 95790 566 0 TaoCrypt::AES::encrypt
FUNC 95d00 1e 0 TaoCrypt::AES::ProcessAndXorBlock
FUNC 95d20 10 0 TaoCrypt::AES::~AES
FUNC 95d30 14 0 TaoCrypt::AES::~AES
FUNC 95d50 8 0 __cxa_pure_virtual
FUNC 95d60 37 0 TaoCrypt::MD5::Init
FUNC 95da0 7a8 0 TaoCrypt::MD5::Transform
FUNC 96550 82 0 TaoCrypt::MD5::Swap
FUNC 965e0 9f 0 TaoCrypt::MD5::MD5
FUNC 96680 ee 0 TaoCrypt::MD5::operator=
FUNC 96770 8 0 TaoCrypt::MD5::getByteOrder
FUNC 96780 b 0 TaoCrypt::MD5::getBlockSize
FUNC 96790 b 0 TaoCrypt::MD5::getDigestSize
FUNC 967a0 b 0 TaoCrypt::MD5::getPadSize
FUNC 967b0 10 0 TaoCrypt::MD5::~MD5
FUNC 967c0 14 0 TaoCrypt::MD5::~MD5
FUNC 967e0 8 0 __cxa_pure_virtual
FUNC 967f0 3e 0 TaoCrypt::RIPEMD160::Init
FUNC 96830 170c 0 TaoCrypt::RIPEMD160::Transform
FUNC 97f40 90 0 TaoCrypt::RIPEMD160::Swap
FUNC 97fd0 ad 0 TaoCrypt::RIPEMD160::RIPEMD160
FUNC 98080 fd 0 TaoCrypt::RIPEMD160::operator=
FUNC 98180 8 0 TaoCrypt::RIPEMD160::getByteOrder
FUNC 98190 b 0 TaoCrypt::RIPEMD160::getBlockSize
FUNC 981a0 b 0 TaoCrypt::RIPEMD160::getDigestSize
FUNC 981b0 b 0 TaoCrypt::RIPEMD160::getPadSize
FUNC 981c0 10 0 TaoCrypt::RIPEMD160::~RIPEMD160
FUNC 981d0 14 0 TaoCrypt::RIPEMD160::~RIPEMD160
FUNC 981f0 8 0 __cxa_pure_virtual
FUNC 98200 10 0 TaoCrypt::HASHwithTransform::HASHwithTransform
FUNC 98210 28 0 TaoCrypt::HASHwithTransform::AddLength
FUNC 98240 10 0 TaoCrypt::HASH64withTransform::HASH64withTransform
FUNC 98250 28 0 TaoCrypt::HASH64withTransform::AddLength
FUNC 98280 12f 0 TaoCrypt::HASHwithTransform::Update
FUNC 983b0 21e 0 TaoCrypt::HASHwithTransform::Final
FUNC 985d0 16f 0 TaoCrypt::HASH64withTransform::Update
FUNC 98740 2fd 0 TaoCrypt::HASH64withTransform::Final
FUNC 98a40 10 0 TaoCrypt::HASHwithTransform::~HASHwithTransform
FUNC 98a50 10 0 TaoCrypt::HASH64withTransform::~HASH64withTransform
FUNC 98a60 14 0 TaoCrypt::HASHwithTransform::~HASHwithTransform
FUNC 98a80 14 0 TaoCrypt::HASH64withTransform::~HASH64withTransform
FUNC 98aa0 8 0 __cxa_pure_virtual
FUNC 98ab0 6b 0 TaoCrypt::OS_Seed::GenerateSeed
FUNC 98b20 c 0 TaoCrypt::OS_Seed::~OS_Seed
FUNC 98b30 58 0 TaoCrypt::OS_Seed::OS_Seed
FUNC 98b90 48 0 TaoCrypt::RandomNumberGenerator::GenerateBlock
FUNC 98be0 27 0 TaoCrypt::RandomNumberGenerator::GenerateByte
FUNC 98c10 116 0 TaoCrypt::RandomNumberGenerator::RandomNumberGenerator
FUNC 98d30 8 0 __cxa_pure_virtual
FUNC 98d40 9 0 TaoCrypt::DSA_PublicKey::GetModulus
FUNC 98d50 a 0 TaoCrypt::DSA_PublicKey::GetSubGroupOrder
FUNC 98d60 a 0 TaoCrypt::DSA_PublicKey::GetSubGroupGenerator
FUNC 98d70 a 0 TaoCrypt::DSA_PublicKey::GetPublicPart
FUNC 98d80 a 0 TaoCrypt::DSA_PrivateKey::GetPrivatePart
FUNC 98d90 a 0 TaoCrypt::DSA_Signer::GetR
FUNC 98da0 a 0 TaoCrypt::DSA_Signer::GetS
FUNC 98db0 a 0 TaoCrypt::DSA_Verifier::GetR
FUNC 98dc0 a 0 TaoCrypt::DSA_Verifier::GetS
FUNC 98dd0 11 0 TaoCrypt::DSA_PublicKey::SignatureLength
FUNC 98df0 e 0 TaoCrypt::DSA_PrivateKey::SetPrivatePart
FUNC 98e00 e 0 TaoCrypt::DSA_PublicKey::SetPublicPart
FUNC 98e10 e 0 TaoCrypt::DSA_PublicKey::SetSubGroupGenerator
FUNC 98e20 e 0 TaoCrypt::DSA_PublicKey::SetSubGroupOrder
FUNC 98e30 a 0 TaoCrypt::DSA_PublicKey::SetModulus
FUNC 98e40 61 0 TaoCrypt::DSA_PublicKey::Initialize
FUNC 98eb0 4a 0 TaoCrypt::DSA_Verifier::DSA_Verifier
FUNC 98f00 4a 0 TaoCrypt::DSA_Signer::DSA_Signer
FUNC 98f50 95 0 TaoCrypt::DSA_PublicKey::DSA_PublicKey
FUNC 98ff0 34 0 TaoCrypt::DSA_PrivateKey::Initialize
FUNC 99030 34 0 TaoCrypt::DSA_PublicKey::Initialize
FUNC 99070 4f 0 TaoCrypt::DSA_PublicKey::Swap
FUNC 990c0 c7 0 TaoCrypt::DSA_PublicKey::DSA_PublicKey
FUNC 99190 75 0 TaoCrypt::DSA_PrivateKey::Initialize
FUNC 99210 d9 0 TaoCrypt::DSA_PrivateKey::DSA_PrivateKey
FUNC 992f0 66d 0 TaoCrypt::DSA_Signer::Sign
FUNC 99960 f6 0 TaoCrypt::DSA_PublicKey::operator=
FUNC 99a60 63b 0 TaoCrypt::DSA_Verifier::Verify
FUNC 9a0a0 8 0 __cxa_pure_virtual
FUNC 9a0b0 1d3 0 TaoCrypt::ARC4::SetKey
FUNC 9a290 ff 0 TaoCrypt::ARC4::Process
FUNC 9a390 8 0 __cxa_pure_virtual
FUNC 9a3a0 174 0 TaoCrypt::xorbuf
FUNC 9a520 73 0 TaoCrypt::BytePrecision
FUNC 9a5a0 3b 0 TaoCrypt::BitPrecision
FUNC 9a5e0 1f 0 TaoCrypt::Crop
FUNC 9a600 8 0 __cxa_pure_virtual
FUNC 9a610 34 0 TaoCrypt::DH::Initialize
FUNC 9a650 83 0 TaoCrypt::DH::DH
FUNC 9a6e0 176 0 TaoCrypt::DH::Agree
FUNC 9a860 e0 0 TaoCrypt::DH::GeneratePublic
FUNC 9a940 222 0 TaoCrypt::DH::GeneratePrivate
FUNC 9ab70 3d 0 TaoCrypt::DH::GenerateKeyPair
FUNC 9abb0 1c 0 net_clear
FUNC 9abd0 22 0 my_net_set_write_timeout
FUNC 9ac00 22 0 my_net_set_read_timeout
FUNC 9ac30 24 0 net_end
FUNC 9ac60 1df 0 net_write_packet
FUNC 9ae40 136 0 net_write_buff
FUNC 9af80 f6 0 my_net_write
FUNC 9b080 41 0 net_flush
FUNC 9b0d0 196 0 net_write_command
FUNC 9b270 a8 0 net_realloc
FUNC 9b320 c9 0 my_net_init
FUNC 9b3f0 1e9 0 net_read_packet
FUNC 9b5e0 27c 0 my_net_read
FUNC 9b860 76 0 randominit
FUNC 9b8e0 94 0 hash_password
FUNC 9b980 18e 0 get_salt_from_password_323
FUNC 9bb10 5b 0 octet2hex
FUNC 9bb70 60 0 get_salt_from_password
FUNC 9bbd0 16 0 make_password_from_salt
FUNC 9bbf0 4a 0 my_make_scrambled_password_sha1
FUNC 9bc40 81 0 check_scramble_sha1
FUNC 9bcd0 a 0 check_scramble
FUNC 9bce0 8b 0 scramble
FUNC 9bd70 36 0 make_scrambled_password
FUNC 9bdb0 5d 0 my_make_scrambled_password
FUNC 9be10 60 0 create_random_string
FUNC 9be70 1a 0 make_password_from_salt_323
FUNC 9be90 35 0 my_make_scrambled_password_323
FUNC 9bed0 36 0 make_scrambled_password_323
FUNC 9bf10 3e5 0 check_scramble_323
FUNC 9c300 245 0 scramble_323
FUNC 9c550 d 0 get_client_errmsgs
FUNC 9c560 14 0 finish_client_errs
FUNC 9c580 1b 0 init_client_errs
FUNC 9c5a0 8 0 sha256_password_init
FUNC 9c5b0 8 0 sha256_password_deinit
FUNC 9c5c0 11c 0 sha256_password_auth_client
FUNC 9c6dc 6 0 __dtrace
FUNC 9c6f0 7e 0 strxmov
FUNC 9c770 1e 0 strmov_overlapp
FUNC 9c790 71 0 my_caseup_str_mb
FUNC 9c810 71 0 my_casedn_str_mb
FUNC 9c890 c7 0 my_caseup_mb
FUNC 9c960 c7 0 my_casedn_mb
FUNC 9ca30 fd 0 my_casedn_mb_varlen
FUNC 9cb30 c0 0 my_strcasecmp_mb
FUNC 9cbf0 6c 0 my_numchars_mb
FUNC 9cc60 9d 0 my_charpos_mb
FUNC 9cd00 a6 0 my_well_formed_len_mb
FUNC 9cdb0 147 0 my_instr_mb
FUNC 9cf00 95 0 my_strnncollsp_mb_bin
FUNC 9cfa0 c2 0 my_hash_sort_mb_bin
FUNC 9d070 bd 0 my_numcells_mb
FUNC 9d130 78 0 my_mb_ctype_mb
FUNC 9d1b0 431 0 my_wildcmp_mb_bin_impl
FUNC 9d5f0 24 0 my_wildcmp_mb_bin
FUNC 9d620 36 0 my_strnncoll_mb_bin
FUNC 9d660 454 0 my_wildcmp_mb_impl
FUNC 9dac0 24 0 my_wildcmp_mb
FUNC 9daf0 44e 0 my_like_range_generic
FUNC 9df40 59f 0 my_like_range_mb
FUNC 9e4e0 10 0 my_strcasecmp_mb_bin
FUNC 9e4f0 39e 0 my_strnxfrm_mb
FUNC 9e890 fd 0 my_caseup_mb_varlen
FUNC 9e990 63 0 bchange
FUNC 9ea00 26f 0 str2int
FUNC 9ec70 35 0 my_charset_get_contractions
FUNC 9ecb0 17 0 my_uca_can_be_contraction_head
FUNC 9ecd0 17 0 my_uca_can_be_contraction_tail
FUNC 9ecf0 46 0 my_uca_contraction2_weight
FUNC 9ed40 17 0 my_uca_can_be_previous_context_head
FUNC 9ed60 17 0 my_uca_can_be_previous_context_tail
FUNC 9ed80 4d 0 my_uca_previous_context_find
FUNC 9edd0 23 0 my_uca_scanner_init_any
FUNC 9ee00 323 0 my_coll_lexem_next
FUNC 9f130 4d7 0 my_uca_scanner_next_any
FUNC 9f610 13c 0 my_uca_charcmp
FUNC 9f750 2ed 0 my_wildcmp_uca_impl
FUNC 9fa40 24 0 my_wildcmp_uca
FUNC 9fa70 27 0 lex_cmp
FUNC 9faa0 ad 0 my_strnncoll_ucs2_uca
FUNC 9fb50 144 0 my_strnncollsp_uca
FUNC 9fca0 a 0 my_strnncollsp_ucs2_uca
FUNC 9fcb0 a 0 my_strnncollsp_any_uca
FUNC 9fcc0 c1 0 my_hash_sort_ucs2_uca
FUNC 9fd90 300 0 my_strnxfrm_uca
FUNC a0090 a 0 my_strnxfrm_ucs2_uca
FUNC a00a0 a 0 my_strnxfrm_any_uca
FUNC a00b0 1a0 0 my_coll_parser_scan_character_list
FUNC a0250 c1 0 my_hash_sort_any_uca
FUNC a0320 ad 0 my_strnncoll_any_uca
FUNC a03d0 385 0 my_coll_parser_scan_shift_sequence
FUNC a0760 14b0 0 create_tailoring
FUNC a1c10 41 0 my_coll_init_uca
FUNC a1c60 e9 0 lex2str
FUNC a1d50 33 0 my_xml_parser_free
FUNC a1d90 d 0 my_xml_set_value_handler
FUNC a1da0 d 0 my_xml_set_enter_handler
FUNC a1db0 d 0 my_xml_set_leave_handler
FUNC a1dc0 d 0 my_xml_set_user_data
FUNC a1dd0 a 0 my_xml_error_string
FUNC a1de0 35 0 my_xml_error_pos
FUNC a1e20 34 0 my_xml_error_lineno
FUNC a1e60 33 0 my_xml_parser_create
FUNC a1ea0 19d 0 my_xml_enter
FUNC a2040 191 0 my_xml_leave
FUNC a21e0 3d1 0 my_xml_scan
FUNC a25c0 541 0 my_xml_parse
FUNC a2b10 37 0 is_prefix
FUNC a2b50 2c 0 strnmov
FUNC a2b80 a 0 my_str_free_default
FUNC a2b90 1a 0 my_str_malloc_default
FUNC a2bb0 a 0 my_str_realloc_default
FUNC a2bc0 8 0 my_caseup_str_mb2_or_mb4
FUNC a2bd0 8 0 my_casedn_str_mb2_or_mb4
FUNC a2be0 8 0 my_strcasecmp_mb2_or_mb4
FUNC a2bf0 293 0 my_strntol_mb2_or_mb4
FUNC a2e90 248 0 my_strntoul_mb2_or_mb4
FUNC a30e0 29c 0 my_strntoll_mb2_or_mb4
FUNC a3380 224 0 my_strntoull_mb2_or_mb4
FUNC a35b0 12a 0 my_l10tostr_mb2_or_mb4
FUNC a36e0 14a 0 my_ll10tostr_mb2_or_mb4
FUNC a3830 4f3 0 my_strtoll10_mb2
FUNC a3d30 a3 0 my_scan_mb2
FUNC a3de0 2d 0 my_lengthsp_mb2
FUNC a3e10 9e 0 my_utf16_uni
FUNC a3eb0 a2 0 my_uni_utf16
FUNC a3f60 bc 0 my_caseup_utf16
FUNC a4020 12f 0 my_hash_sort_utf16
FUNC a4150 bd 0 my_casedn_utf16
FUNC a4210 2a 0 my_ismbchar_utf16
FUNC a4240 1b 0 my_mbcharlen_utf16
FUNC a4260 85 0 my_charpos_utf16
FUNC a42f0 95 0 my_well_formed_len_utf16
FUNC a4390 75 0 my_hash_sort_utf16_bin
FUNC a4410 91 0 my_utf16le_uni
FUNC a44b0 88 0 my_uni_utf16le
FUNC a4540 2d 0 my_lengthsp_utf16le
FUNC a4570 46 0 my_utf32_uni
FUNC a45c0 3a 0 my_uni_utf32
FUNC a4600 d8 0 my_caseup_utf32
FUNC a46e0 1d0 0 my_hash_sort_utf32
FUNC a48b0 d2 0 my_casedn_utf32
FUNC a4990 c 0 my_strnxfrmlen_utf32
FUNC a49a0 b 0 my_ismbchar_utf32
FUNC a49b0 b 0 my_mbcharlen_utf32
FUNC a49c0 465 0 my_strtoll10_utf32
FUNC a4e30 10 0 my_numchars_utf32
FUNC a4e40 1c 0 my_charpos_utf32
FUNC a4e60 73 0 my_well_formed_len_utf32
FUNC a4ee0 39 0 my_lengthsp_utf32
FUNC a4f20 148 0 my_strnncollsp_utf32_bin
FUNC a5070 a4 0 my_scan_utf32
FUNC a5120 2b 0 my_ucs2_uni
FUNC a5150 31 0 my_uni_ucs2
FUNC a5190 8f 0 my_caseup_ucs2
FUNC a5220 fa 0 my_hash_sort_ucs2
FUNC a5320 8f 0 my_casedn_ucs2
FUNC a53b0 118 0 my_fill_ucs2
FUNC a54d0 12c 0 my_strnncoll_ucs2
FUNC a5600 13f 0 my_strnncollsp_ucs2
FUNC a5740 b 0 my_ismbchar_ucs2
FUNC a5750 b 0 my_mbcharlen_ucs2
FUNC a5760 f 0 my_numchars_ucs2
FUNC a5770 18 0 my_charpos_ucs2
FUNC a5790 21 0 my_well_formed_len_ucs2
FUNC a57c0 c5 0 my_strnncoll_ucs2_bin
FUNC a5890 fd 0 my_strnncollsp_ucs2_bin
FUNC a5990 6a 0 my_hash_sort_ucs2_bin
FUNC a5a00 25 0 my_wildcmp_ucs2_bin
FUNC a5a30 25 0 my_wildcmp_ucs2_ci
FUNC a5a60 25 0 my_wildcmp_utf32_bin
FUNC a5a90 25 0 my_wildcmp_utf32_ci
FUNC a5ac0 25 0 my_wildcmp_utf16_bin
FUNC a5af0 25 0 my_wildcmp_utf16_ci
FUNC a5b20 213 0 my_strnncoll_utf16
FUNC a5d40 52 0 my_fill_utf32
FUNC a5da0 114 0 my_fill_mb2
FUNC a5ec0 40f 0 my_snprintf_utf32
FUNC a62d0 3a3 0 my_snprintf_mb2
FUNC a6680 100 0 my_strntoull10rnd_mb2_or_mb4
FUNC a6780 ff 0 my_strntod_mb2_or_mb4
FUNC a6880 69 0 my_numchars_utf16
FUNC a68f0 12f 0 my_strnncoll_utf32_bin
FUNC a6a20 267 0 my_strnncollsp_utf32
FUNC a6c90 1a7 0 my_strnncoll_utf32
FUNC a6e40 1a5 0 my_strnncollsp_utf16_bin
FUNC a6ff0 15f 0 my_strnncoll_utf16_bin
FUNC a7150 248 0 my_strnncollsp_utf16
FUNC a73a0 a 0 my_fileno
FUNC a73b0 a 0 my_ftell
FUNC a73c0 36 0 my_fseek
FUNC a7400 190 0 my_fwrite
FUNC a7590 182 0 my_fread
FUNC a7720 85 0 array_append_string_unique
FUNC a77b0 5a 0 fn_ext
FUNC a7810 7af 0 init_compiled_charsets
FUNC a7fc0 e6 0 my_stat
FUNC a80b0 14 0 my_fstat
FUNC a80d0 10 0 comp_names
FUNC a80e0 3f 0 my_dirend
FUNC a8120 327 0 my_dir
FUNC a8450 a7 0 my_uncompress
FUNC a8500 c2 0 unpackfrm
FUNC a85d0 c4 0 my_compress_alloc
FUNC a86a0 7a 0 my_compress
FUNC a8720 b8 0 packfrm
FUNC a87e0 a 0 my_freopen
FUNC a87f0 195 0 my_fclose
FUNC a8990 24b 0 my_fdopen
FUNC a8be0 337 0 my_fopen
FUNC a8f20 e 0 DIGESTInit
FUNC a8f30 e 0 DIGESTUpdate
FUNC a8f40 17 0 DIGESTFinal
FUNC a8f60 93 0 strlcat
FUNC a9000 5b 0 extract_user_salt
FUNC a9060 34 0 xor_string
FUNC a90a0 48 0 generate_user_salt
FUNC a90f0 1f 0 sha256_find_digest
FUNC a9110 ed2 0 my_crypt_genhash
FUNC a9ff0 5c 0 my_rnd
FUNC aa050 13 0 my_rand_buffer
FUNC aa070 47 0 my_rnd_ssl
FUNC aa0c0 b0 0 mysql_sha1_multi_yassl
FUNC aa170 8c 0 mysql_sha1_yassl
FUNC aa200 8c 0 compute_sha1_hash
FUNC aa290 b0 0 compute_sha1_hash_multi
FUNC aa340 ec 0 uncompress
FUNC aa430 a2 0 inflateReset
FUNC aa4e0 4d 0 inflatePrime
FUNC aa530 119 0 inflateInit2_
FUNC aa650 5e 0 inflateEnd
FUNC aa6b0 2e 0 inflateGetHeader
FUNC aa6e0 23f 0 inflateSync
FUNC aa920 2b 0 inflateSyncPoint
FUNC aa950 17e 0 inflateCopy
FUNC aaad0 183 0 updatewindow
FUNC aac60 112 0 inflateSetDictionary
FUNC aad80 1ef1 0 inflate
FUNC acc80 b7 0 inflateInit_
FUNC acd40 d 0 zlibVersion
FUNC acd50 b 0 zlibCompileFlags
FUNC acd60 1a 0 zError
FUNC acd80 d 0 zcfree
FUNC acd90 f 0 zcalloc
FUNC acda0 8e5 0 inflate_table
FUNC ad690 385 0 adler32
FUNC ada20 f5 0 adler32_combine
FUNC adb20 19 0 compressBound
FUNC adb40 cf 0 compress2
FUNC adc10 cf 0 compress
FUNC adce0 d 0 get_crc_table
FUNC adcf0 2e9 0 crc32
FUNC adfe0 1e4 0 crc32_combine
FUNC ae1d0 4f 0 yassl_mysql_get_tty_password_ext
FUNC ae220 44 0 yassl_mysql_get_tty_password
FUNC ae270 8 0 __cxa_pure_virtual
FUNC ae280 108c 0 yaSSL::SetErrorString
FUNC af310 8 0 __cxa_pure_virtual
FUNC af320 33d 0 my_strnncoll_win1250ch
FUNC af660 1cf 0 my_like_range_win1250ch
FUNC af830 1c6 0 my_strnxfrm_win1250ch
FUNC afa00 391 0 my_strnncollsp_win1250ch
FUNC afda0 44 0 ismbchar_cp932
FUNC afdf0 27 0 mbcharlen_cp932
FUNC afe20 b8 0 my_mb_wc_cp932
FUNC afee0 6c 0 my_wc_mb_cp932
FUNC aff50 42 0 my_numcells_cp932
FUNC affa0 86 0 my_well_formed_len_cp932
FUNC b0030 175 0 my_strnncollsp_cp932
FUNC b01b0 133 0 my_strnncoll_cp932
FUNC b02f0 150 0 my_strnncoll_big5
FUNC b0440 3c 0 ismbchar_big5
FUNC b0480 14 0 mbcharlen_big5
FUNC b04a0 1b7 0 my_wc_mb_big5
FUNC b0660 97 0 my_mb_wc_big5
FUNC b0700 6c 0 my_well_formed_len_big5
FUNC b0770 801 0 my_strnxfrm_big5
FUNC b0f80 1c4 0 my_strnncollsp_big5
FUNC b1150 34 0 ismbchar_gb2312
FUNC b1190 14 0 mbcharlen_gb2312
FUNC b11b0 1b5 0 my_wc_mb_gb2312
FUNC b1370 ba 0 my_mb_wc_gb2312
FUNC b1430 6c 0 my_well_formed_len_gb2312
FUNC b14a0 44 0 ismbchar_sjis
FUNC b14f0 27 0 mbcharlen_sjis
FUNC b1520 b8 0 my_mb_wc_sjis
FUNC b15e0 7f 0 my_wc_mb_sjis
FUNC b1660 42 0 my_numcells_sjis
FUNC b16b0 86 0 my_well_formed_len_sjis
FUNC b1740 175 0 my_strnncollsp_sjis
FUNC b18c0 133 0 my_strnncoll_sjis
FUNC b1a00 44e 0 my_strnncoll_czech
FUNC b1e50 e 0 my_strnxfrmlen_czech
FUNC b1e60 1cb 0 my_like_range_czech
FUNC b2030 262 0 my_strnxfrm_czech
FUNC b22a0 4e9 0 my_strnncollsp_czech
FUNC b2790 b2 0 ismbchar_eucjpms
FUNC b2850 37 0 mbcharlen_eucjpms
FUNC b2890 123 0 my_mb_wc_eucjpms
FUNC b29c0 cf 0 my_wc_mb_eucjpms
FUNC b2a90 cb 0 my_well_formed_len_eucjpms
FUNC b2b60 5a 0 my_numcells_eucjpms
FUNC b2bc0 47 0 ismbchar_euc_kr
FUNC b2c10 14 0 mbcharlen_euc_kr
FUNC b2c30 1ce 0 my_wc_mb_euc_kr
FUNC b2e00 97 0 my_mb_wc_euc_kr
FUNC b2ea0 7c 0 my_well_formed_len_euckr
FUNC b2f20 b2 0 ismbchar_ujis
FUNC b2fe0 37 0 mbcharlen_ujis
FUNC b3020 b8 0 my_well_formed_len_ujis
FUNC b30e0 5a 0 my_numcells_eucjp
FUNC b3140 123 0 my_mb_wc_euc_jp
FUNC b3270 cf 0 my_wc_mb_euc_jp
FUNC b3340 191 0 my_casedn_ujis
FUNC b34e0 191 0 my_caseup_ujis
FUNC b3680 35 0 my_mb_wc_tis620
FUNC b36c0 45 0 my_wc_mb_tis620
FUNC b3710 381 0 my_strnncoll_tis620
FUNC b3aa0 242 0 my_strnxfrm_tis620
FUNC b3cf0 437 0 my_strnncollsp_tis620
FUNC b4130 196 0 my_strnncoll_gbk_internal
FUNC b42d0 65 0 my_strnncoll_gbk
FUNC b4340 b5 0 my_strnncollsp_gbk
FUNC b4400 34 0 ismbchar_gbk
FUNC b4440 14 0 mbcharlen_gbk
FUNC b4460 182 0 my_wc_mb_gbk
FUNC b45f0 77 0 my_mb_wc_gbk
FUNC b4670 6c 0 my_well_formed_len_gbk
FUNC b46e0 209 0 my_strnxfrm_gbk
FUNC b48f0 bfb 0 my_qsort
FUNC b54f0 27 0 deflateSetHeader
FUNC b5520 3c 0 deflatePrime
FUNC b5560 36 0 deflateTune
FUNC b55a0 10a 0 deflateEnd
FUNC b56b0 240 0 deflateCopy
FUNC b58f0 90 0 flush_pending
FUNC b5980 2a8 0 fill_window
FUNC b5c30 14e 0 deflateSetDictionary
FUNC b5d80 b22 0 deflate
FUNC b68b0 11a 0 deflateParams
FUNC b69d0 47 0 deflateBound
FUNC b6a20 1bb 0 deflateReset
FUNC b6be0 2c0 0 deflateInit2_
FUNC b6ea0 238 0 deflateInit_
FUNC b70e0 2d4 0 deflate_stored
FUNC b73c0 9b1 0 deflate_slow
FUNC b7d80 806 0 deflate_fast
FUNC b8590 9f6 0 inflate_fast
FUNC b8f90 109 0 _tr_init
FUNC b90a0 696 0 send_tree
FUNC b9740 19e 0 _tr_stored_block
FUNC b98e0 3a4 0 _tr_align
FUNC b9c90 ad 0 _tr_tally
FUNC b9d40 559 0 compress_block
FUNC ba2a0 a39 0 build_tree
FUNC bace0 b4e 0 _tr_flush_block
STACK CFI INIT b874 8d .cfa: $rsp 8 + .ra: .cfa -8 + ^
STACK CFI b875 $rbp: .cfa -16 + ^ .cfa: $rsp 16 +
STACK CFI b878 .cfa: $rbp 16 +
STACK CFI b88d $r12: .cfa -24 + ^ $rbx: .cfa -32 + ^
STACK CFI b900 .cfa: $rsp 8 +
STACK CFI INIT b901 ca .cfa: $rsp 8 + .ra: .cfa -8 + ^
STACK CFI b902 $rbp: .cfa -16 + ^ .cfa: $rsp 16 +
STACK CFI b905 .cfa: $rbp 16 +
STACK CFI b91c $r12: .cfa -24 + ^ $rbx: .cfa -32 + ^
STACK CFI b9ca .cfa: $rsp 8 +
STACK CFI INIT b9cb 15 .cfa: $rsp 8 + .ra: .cfa -8 + ^
STACK CFI b9cc $rbp: .cfa -16 + ^ .cfa: $rsp 16 +
STACK CFI b9cf .cfa: $rbp 16 +
STACK CFI b9df .cfa: $rsp 8 +
STACK CFI INIT ec4b 12 .cfa: $rsp 8 + .ra: .cfa -8 + ^
STACK CFI ec4c $rbp: .cfa -16 + ^ .cfa: $rsp 16 +
STACK CFI ec4f .cfa: $rbp 16 +
STACK CFI ec5c .cfa: $rsp 8 +
STACK CFI INIT ec5d e .cfa: $rsp 8 + .ra: .cfa -8 + ^
STACK CFI ec5e $rbp: .cfa -16 + ^ .cfa: $rsp 16 +
STACK CFI ec61 .cfa: $rbp 16 +
STACK CFI ec6a .cfa: $rsp 8 +
STACK CFI INIT ec6b 14 .cfa: $rsp 8 + .ra: .cfa -8 + ^
STACK CFI ec6c $rbp: .cfa -16 + ^ .cfa: $rsp 16 +
STACK CFI ec6f .cfa: $rbp 16 +
STACK CFI ec7e .cfa: $rsp 8 +
STACK CFI INIT ec80 1a .cfa: $rsp 8 + .ra: .cfa -8 + ^
STACK CFI ec81 $rbp: .cfa -16 + ^ .cfa: $rsp 16 +
STACK CFI ec84 .cfa: $rbp 16 +
STACK CFI ec99 .cfa: $rsp 8 +
STACK CFI INIT b9e0 543 .cfa: $rsp 8 + .ra: .cfa -8 + ^
STACK CFI b9e1 $rbp: .cfa -16 + ^ .cfa: $rsp 16 +
STACK CFI b9e4 .cfa: $rbp 16 +
STACK CFI ba0c $r12: .cfa -24 + ^ $rbx: .cfa -32 + ^
STACK CFI bf22 .cfa: $rsp 8 +
STACK CFI INIT bf24 74 .cfa: $rsp 8 + .ra: .cfa -8 + ^
STACK CFI bf25 $rbp: .cfa -16 + ^ .cfa: $rsp 16 +
STACK CFI bf28 .cfa: $rbp 16 +
STACK CFI bf40 $r12: .cfa -32 + ^ $r13: .cfa -24 + ^ $rbx: .cfa -40 + ^
STACK CFI bf97 .cfa: $rsp 8 +
STACK CFI INIT bf98 274 .cfa: $rsp 8 + .ra: .cfa -8 + ^
STACK CFI bf99 $rbp: .cfa -16 + ^ .cfa: $rsp 16 +
STACK CFI bf9c .cfa: $rbp 16 +
STACK CFI bfc6 $r12: .cfa -24 + ^ $rbx: .cfa -32 + ^
STACK CFI c20b .cfa: $rsp 8 +
STACK CFI INIT c20c 26 .cfa: $rsp 8 + .ra: .cfa -8 + ^
STACK CFI c20d $rbp: .cfa -16 + ^ .cfa: $rsp 16 +
STACK CFI c210 .cfa: $rbp 16 +
STACK CFI c231 .cfa: $rsp 8 +
STACK CFI INIT c232 14c0 .cfa: $rsp 8 + .ra: .cfa -8 + ^
STACK CFI c233 $rbp: .cfa -16 + ^ .cfa: $rsp 16 +
STACK CFI c236 .cfa: $rbp 16 +
STACK CFI c258 $r12: .cfa -24 + ^ $rbx: .cfa -32 + ^
STACK CFI d6f1 .cfa: $rsp 8 +
STACK CFI INIT d6f2 27 .cfa: $rsp 8 + .ra: .cfa -8 + ^
STACK CFI d6f3 $rbp: .cfa -16 + ^ .cfa: $rsp 16 +
STACK CFI d6f6 .cfa: $rbp 16 +
STACK CFI d718 .cfa: $rsp 8 +
STACK CFI INIT d71a 24 .cfa: $rsp 8 + .ra: .cfa -8 + ^
STACK CFI d71b $rbp: .cfa -16 + ^ .cfa: $rsp 16 +
STACK CFI d71e .cfa: $rbp 16 +
STACK CFI d73d .cfa: $rsp 8 +
STACK CFI INIT d73e 173 .cfa: $rsp 8 + .ra: .cfa -8 + ^
STACK CFI d73f $rbp: .cfa -16 + ^ .cfa: $rsp 16 +
STACK CFI d742 .cfa: $rbp 16 +
STACK CFI d758 $r12: .cfa -24 + ^ $rbx: .cfa -32 + ^
STACK CFI d8b0 .cfa: $rsp 8 +
STACK CFI INIT d8b2 21d .cfa: $rsp 8 + .ra: .cfa -8 + ^
STACK CFI d8b3 $rbp: .cfa -16 + ^ .cfa: $rsp 16 +
STACK CFI d8b6 .cfa: $rbp 16 +
STACK CFI d8d4 $r12: .cfa -24 + ^ $rbx: .cfa -32 + ^
STACK CFI dace .cfa: $rsp 8 +
STACK CFI INIT dad0 238 .cfa: $rsp 8 + .ra: .cfa -8 + ^
STACK CFI dad1 $rbp: .cfa -16 + ^ .cfa: $rsp 16 +
STACK CFI dad4 .cfa: $rbp 16 +
STACK CFI dafa $r12: .cfa -24 + ^ $rbx: .cfa -32 + ^
STACK CFI dd07 .cfa: $rsp 8 +
STACK CFI INIT dd08 ad .cfa: $rsp 8 + .ra: .cfa -8 + ^
STACK CFI dd09 $rbp: .cfa -16 + ^ .cfa: $rsp 16 +
STACK CFI dd0c .cfa: $rbp 16 +
STACK CFI ddb4 .cfa: $rsp 8 +
STACK CFI INIT ddb6 d03 .cfa: $rsp 8 + .ra: .cfa -8 + ^
STACK CFI ddb7 $rbp: .cfa -16 + ^ .cfa: $rsp 16 +
STACK CFI ddba .cfa: $rbp 16 +
STACK CFI ddfa $r12: .cfa -24 + ^ $rbx: .cfa -32 + ^
STACK CFI eab8 .cfa: $rsp 8 +
STACK CFI INIT eaba 134 .cfa: $rsp 8 + .ra: .cfa -8 + ^
STACK CFI eabb $rbp: .cfa -16 + ^ .cfa: $rsp 16 +
STACK CFI eabe .cfa: $rbp 16 +
STACK CFI eaca $r12: .cfa -32 + ^ $r13: .cfa -24 + ^ $rbx: .cfa -40 + ^
STACK CFI ebed .cfa: $rsp 8 +
STACK CFI INIT ec9a 1a .cfa: $rsp 8 + .ra: .cfa -8 + ^
STACK CFI ec9b $rbp: .cfa -16 + ^ .cfa: $rsp 16 +
STACK CFI ec9e .cfa: $rbp 16 +
STACK CFI ecb3 .cfa: $rsp 8 +
STACK CFI INIT ecb4 1a .cfa: $rsp 8 + .ra: .cfa -8 + ^
STACK CFI ecb5 $rbp: .cfa -16 + ^ .cfa: $rsp 16 +
STACK CFI ecb8 .cfa: $rbp 16 +
STACK CFI eccd .cfa: $rsp 8 +
STACK CFI INIT ecce 63 .cfa: $rsp 8 + .ra: .cfa -8 + ^
STACK CFI eccf $rbp: .cfa -16 + ^ .cfa: $rsp 16 +
STACK CFI ecd2 .cfa: $rbp 16 +
STACK CFI ece4 $r12: .cfa -24 + ^ $rbx: .cfa -32 + ^
STACK CFI ed30 .cfa: $rsp 8 +
STACK CFI INIT ed32 1a .cfa: $rsp 8 + .ra: .cfa -8 + ^
STACK CFI ed33 $rbp: .cfa -16 + ^ .cfa: $rsp 16 +
STACK CFI ed36 .cfa: $rbp 16 +
STACK CFI ed4b .cfa: $rsp 8 +
STACK CFI INIT ed4c 6e .cfa: $rsp 8 + .ra: .cfa -8 + ^
STACK CFI ed4d $rbp: .cfa -16 + ^ .cfa: $rsp 16 +
STACK CFI ed50 .cfa: $rbp 16 +
STACK CFI ed62 $r12: .cfa -24 + ^ $rbx: .cfa -32 + ^
STACK CFI edb9 .cfa: $rsp 8 +
STACK CFI INIT edba 1a .cfa: $rsp 8 + .ra: .cfa -8 + ^
STACK CFI edbb $rbp: .cfa -16 + ^ .cfa: $rsp 16 +
STACK CFI edbe .cfa: $rbp 16 +
STACK CFI edd3 .cfa: $rsp 8 +
STACK CFI INIT edd4 6e .cfa: $rsp 8 + .ra: .cfa -8 + ^
STACK CFI edd5 $rbp: .cfa -16 + ^ .cfa: $rsp 16 +
STACK CFI edd8 .cfa: $rbp 16 +
STACK CFI edea $r12: .cfa -24 + ^ $rbx: .cfa -32 + ^
STACK CFI ee41 .cfa: $rsp 8 +
STACK CFI INIT ee42 24 .cfa: $rsp 8 + .ra: .cfa -8 + ^
STACK CFI ee43 $rbp: .cfa -16 + ^ .cfa: $rsp 16 +
STACK CFI ee46 .cfa: $rbp 16 +
STACK CFI ee65 .cfa: $rsp 8 +
STACK CFI INIT ee66 24 .cfa: $rsp 8 + .ra: .cfa -8 + ^
STACK CFI ee67 $rbp: .cfa -16 + ^ .cfa: $rsp 16 +
STACK CFI ee6a .cfa: $rbp 16 +
STACK CFI ee89 .cfa: $rsp 8 +
STACK CFI INIT ee8a 16d .cfa: $rsp 8 + .ra: .cfa -8 + ^
STACK CFI ee8b $rbp: .cfa -16 + ^ .cfa: $rsp 16 +
STACK CFI ee8e .cfa: $rbp 16 +
STACK CFI eec5 $r12: .cfa -24 + ^ $rbx: .cfa -32 + ^
STACK CFI eff6 .cfa: $rsp 8 +
STACK CFI INIT eff8 16d .cfa: $rsp 8 + .ra: .cfa -8 + ^
STACK CFI eff9 $rbp: .cfa -16 + ^ .cfa: $rsp 16 +
STACK CFI effc .cfa: $rbp 16 +
STACK CFI f033 $r12: .cfa -24 + ^ $rbx: .cfa -32 + ^
STACK CFI f164 .cfa: $rsp 8 +
STACK CFI INIT f166 16d .cfa: $rsp 8 + .ra: .cfa -8 + ^
STACK CFI f167 $rbp: .cfa -16 + ^ .cfa: $rsp 16 +
STACK CFI f16a .cfa: $rbp 16 +
STACK CFI f1a1 $r12: .cfa -24 + ^ $rbx: .cfa -32 + ^
STACK CFI f2d2 .cfa: $rsp 8 +
STACK CFI INIT f2d4 242 .cfa: $rsp 8 + .ra: .cfa -8 + ^
STACK CFI f2d5 $rbp: .cfa -16 + ^ .cfa: $rsp 16 +
STACK CFI f2d8 .cfa: $rbp 16 +
STACK CFI f2f9 $r12: .cfa -40 + ^ $r13: .cfa -32 + ^ $r14: .cfa -24 + ^ $rbx: .cfa -48 + ^
STACK CFI f515 .cfa: $rsp 8 +
STACK CFI INIT f516 25 .cfa: $rsp 8 + .ra: .cfa -8 + ^
STACK CFI f517 $rbp: .cfa -16 + ^ .cfa: $rsp 16 +
STACK CFI f51a .cfa: $rbp 16 +
STACK CFI f53a .cfa: $rsp 8 +
STACK CFI INIT f53c 28 .cfa: $rsp 8 + .ra: .cfa -8 + ^
STACK CFI f53d $rbp: .cfa -16 + ^ .cfa: $rsp 16 +
STACK CFI f540 .cfa: $rbp 16 +
STACK CFI f563 .cfa: $rsp 8 +
STACK CFI INIT f564 29 .cfa: $rsp 8 + .ra: .cfa -8 + ^
STACK CFI f565 $rbp: .cfa -16 + ^ .cfa: $rsp 16 +
STACK CFI f568 .cfa: $rbp 16 +
STACK CFI f58c .cfa: $rsp 8 +
STACK CFI INIT f58d 3c .cfa: $rsp 8 + .ra: .cfa -8 + ^
STACK CFI f58e $rbp: .cfa -16 + ^ .cfa: $rsp 16 +
STACK CFI f591 .cfa: $rbp 16 +
STACK CFI f5a5 $rbx: .cfa -24 + ^
STACK CFI f5c8 .cfa: $rsp 8 +
STACK CFI INIT f5ca 20 .cfa: $rsp 8 + .ra: .cfa -8 + ^
STACK CFI f5cb $rbp: .cfa -16 + ^ .cfa: $rsp 16 +
STACK CFI f5ce .cfa: $rbp 16 +
STACK CFI f5e9 .cfa: $rsp 8 +
STACK CFI INIT f5ea 11 .cfa: $rsp 8 + .ra: .cfa -8 + ^
STACK CFI f5eb $rbp: .cfa -16 + ^ .cfa: $rsp 16 +
STACK CFI f5ee .cfa: $rbp 16 +
STACK CFI f5fa .cfa: $rsp 8 +
STACK CFI INIT f5fc f3 .cfa: $rsp 8 + .ra: .cfa -8 + ^
STACK CFI f5fd $rbp: .cfa -16 + ^ .cfa: $rsp 16 +
STACK CFI f600 .cfa: $rbp 16 +
STACK CFI f629 $r12: .cfa -24 + ^ $rbx: .cfa -32 + ^
STACK CFI f6ee .cfa: $rsp 8 +
STACK CFI INIT f6f0 7a .cfa: $rsp 8 + .ra: .cfa -8 + ^
STACK CFI f6f1 $rbp: .cfa -16 + ^ .cfa: $rsp 16 +
STACK CFI f6f4 .cfa: $rbp 16 +
STACK CFI f769 .cfa: $rsp 8 +
STACK CFI INIT f76a 7a .cfa: $rsp 8 + .ra: .cfa -8 + ^
STACK CFI f76b $rbp: .cfa -16 + ^ .cfa: $rsp 16 +
STACK CFI f76e .cfa: $rbp 16 +
STACK CFI f7e3 .cfa: $rsp 8 +
STACK CFI INIT f7e4 29 .cfa: $rsp 8 + .ra: .cfa -8 + ^
STACK CFI f7e5 $rbp: .cfa -16 + ^ .cfa: $rsp 16 +
STACK CFI f7e8 .cfa: $rbp 16 +
STACK CFI f80c .cfa: $rsp 8 +
STACK CFI INIT f80e 28 .cfa: $rsp 8 + .ra: .cfa -8 + ^
STACK CFI f80f $rbp: .cfa -16 + ^ .cfa: $rsp 16 +
STACK CFI f812 .cfa: $rbp 16 +
STACK CFI f835 .cfa: $rsp 8 +
STACK CFI INIT f836 41 .cfa: $rsp 8 + .ra: .cfa -8 + ^
STACK CFI f837 $rbp: .cfa -16 + ^ .cfa: $rsp 16 +
STACK CFI f83a .cfa: $rbp 16 +
STACK CFI f876 .cfa: $rsp 8 +
STACK CFI INIT f878 41 .cfa: $rsp 8 + .ra: .cfa -8 + ^
STACK CFI f879 $rbp: .cfa -16 + ^ .cfa: $rsp 16 +
STACK CFI f87c .cfa: $rbp 16 +
STACK CFI f8b8 .cfa: $rsp 8 +
STACK CFI INIT f8ba 1a .cfa: $rsp 8 + .ra: .cfa -8 + ^
STACK CFI f8bb $rbp: .cfa -16 + ^ .cfa: $rsp 16 +
STACK CFI f8be .cfa: $rbp 16 +
STACK CFI f8d3 .cfa: $rsp 8 +
STACK CFI INIT f8d4 55 .cfa: $rsp 8 + .ra: .cfa -8 + ^
STACK CFI f8d5 $rbp: .cfa -16 + ^ .cfa: $rsp 16 +
STACK CFI f8d8 .cfa: $rbp 16 +
STACK CFI f8ee $r12: .cfa -24 + ^ $rbx: .cfa -32 + ^
STACK CFI f928 .cfa: $rsp 8 +
STACK CFI INIT f92a 146 .cfa: $rsp 8 + .ra: .cfa -8 + ^
STACK CFI f92b $rbp: .cfa -16 + ^ .cfa: $rsp 16 +
STACK CFI f92e .cfa: $rbp 16 +
STACK CFI f94b $r12: .cfa -24 + ^ $rbx: .cfa -32 + ^
STACK CFI fa6f .cfa: $rsp 8 +
STACK CFI INIT fa70 25 .cfa: $rsp 8 + .ra: .cfa -8 + ^
STACK CFI fa71 $rbp: .cfa -16 + ^ .cfa: $rsp 16 +
STACK CFI fa74 .cfa: $rbp 16 +
STACK CFI fa94 .cfa: $rsp 8 +
STACK CFI INIT fa96 1c .cfa: $rsp 8 + .ra: .cfa -8 + ^
STACK CFI fa97 $rbp: .cfa -16 + ^ .cfa: $rsp 16 +
STACK CFI fa9a .cfa: $rbp 16 +
STACK CFI fab1 .cfa: $rsp 8 +
STACK CFI INIT fab2 1a .cfa: $rsp 8 + .ra: .cfa -8 + ^
STACK CFI fab3 $rbp: .cfa -16 + ^ .cfa: $rsp 16 +
STACK CFI fab6 .cfa: $rbp 16 +
STACK CFI facb .cfa: $rsp 8 +
STACK CFI INIT facc 22 .cfa: $rsp 8 + .ra: .cfa -8 + ^
STACK CFI facd $rbp: .cfa -16 + ^ .cfa: $rsp 16 +
STACK CFI fad0 .cfa: $rbp 16 +
STACK CFI faed .cfa: $rsp 8 +
STACK CFI INIT faee 15 .cfa: $rsp 8 + .ra: .cfa -8 + ^
STACK CFI faef $rbp: .cfa -16 + ^ .cfa: $rsp 16 +
STACK CFI faf2 .cfa: $rbp 16 +
STACK CFI fb02 .cfa: $rsp 8 +
STACK CFI INIT fb04 20 .cfa: $rsp 8 + .ra: .cfa -8 + ^
STACK CFI fb05 $rbp: .cfa -16 + ^ .cfa: $rsp 16 +
STACK CFI fb08 .cfa: $rbp 16 +
STACK CFI fb23 .cfa: $rsp 8 +
STACK CFI INIT fb24 1f .cfa: $rsp 8 + .ra: .cfa -8 + ^
STACK CFI fb25 $rbp: .cfa -16 + ^ .cfa: $rsp 16 +
STACK CFI fb28 .cfa: $rbp 16 +
STACK CFI fb42 .cfa: $rsp 8 +
STACK CFI INIT fb44 f3 .cfa: $rsp 8 + .ra: .cfa -8 + ^
STACK CFI fb45 $rbp: .cfa -16 + ^ .cfa: $rsp 16 +
STACK CFI fb48 .cfa: $rbp 16 +
STACK CFI fb71 $r12: .cfa -24 + ^ $rbx: .cfa -32 + ^
STACK CFI fc36 .cfa: $rsp 8 +
STACK CFI INIT fc38 1a .cfa: $rsp 8 + .ra: .cfa -8 + ^
STACK CFI fc39 $rbp: .cfa -16 + ^ .cfa: $rsp 16 +
STACK CFI fc3c .cfa: $rbp 16 +
STACK CFI fc51 .cfa: $rsp 8 +
STACK CFI INIT fc52 1a .cfa: $rsp 8 + .ra: .cfa -8 + ^
STACK CFI fc53 $rbp: .cfa -16 + ^ .cfa: $rsp 16 +
STACK CFI fc56 .cfa: $rbp 16 +
STACK CFI fc6b .cfa: $rsp 8 +
STACK CFI INIT fc6c 69 .cfa: $rsp 8 + .ra: .cfa -8 + ^
STACK CFI fc6d $rbp: .cfa -16 + ^ .cfa: $rsp 16 +
STACK CFI fc70 .cfa: $rbp 16 +
STACK CFI fcd4 .cfa: $rsp 8 +
STACK CFI INIT fcd6 12 .cfa: $rsp 8 + .ra: .cfa -8 + ^
STACK CFI fcd7 $rbp: .cfa -16 + ^ .cfa: $rsp 16 +
STACK CFI fcda .cfa: $rbp 16 +
STACK CFI fce7 .cfa: $rsp 8 +
STACK CFI INIT fce8 1a .cfa: $rsp 8 + .ra: .cfa -8 + ^
STACK CFI fce9 $rbp: .cfa -16 + ^ .cfa: $rsp 16 +
STACK CFI fcec .cfa: $rbp 16 +
STACK CFI fd01 .cfa: $rsp 8 +
STACK CFI INIT fd02 1a .cfa: $rsp 8 + .ra: .cfa -8 + ^
STACK CFI fd03 $rbp: .cfa -16 + ^ .cfa: $rsp 16 +
STACK CFI fd06 .cfa: $rbp 16 +
STACK CFI fd1b .cfa: $rsp 8 +
STACK CFI INIT fd1c 7c .cfa: $rsp 8 + .ra: .cfa -8 + ^
STACK CFI fd1d $rbp: .cfa -16 + ^ .cfa: $rsp 16 +
STACK CFI fd20 .cfa: $rbp 16 +
STACK CFI fd5d $r12: .cfa -24 + ^ $rbx: .cfa -32 + ^
STACK CFI fd97 .cfa: $rsp 8 +
STACK CFI INIT fd98 e .cfa: $rsp 8 + .ra: .cfa -8 + ^
STACK CFI fd99 $rbp: .cfa -16 + ^ .cfa: $rsp 16 +
STACK CFI fd9c .cfa: $rbp 16 +
STACK CFI fda5 .cfa: $rsp 8 +
STACK CFI INIT fda6 29 .cfa: $rsp 8 + .ra: .cfa -8 + ^
STACK CFI fda7 $rbp: .cfa -16 + ^ .cfa: $rsp 16 +
STACK CFI fdaa .cfa: $rbp 16 +
STACK CFI fdce .cfa: $rsp 8 +
STACK CFI INIT fdd0 1a .cfa: $rsp 8 + .ra: .cfa -8 + ^
STACK CFI fdd1 $rbp: .cfa -16 + ^ .cfa: $rsp 16 +
STACK CFI fdd4 .cfa: $rbp 16 +
STACK CFI fde9 .cfa: $rsp 8 +
STACK CFI INIT fdea 1a .cfa: $rsp 8 + .ra: .cfa -8 + ^
STACK CFI fdeb $rbp: .cfa -16 + ^ .cfa: $rsp 16 +
STACK CFI fdee .cfa: $rbp 16 +
STACK CFI fe03 .cfa: $rsp 8 +
STACK CFI INIT fe04 7d .cfa: $rsp 8 + .ra: .cfa -8 + ^
STACK CFI fe05 $rbp: .cfa -16 + ^ .cfa: $rsp 16 +
STACK CFI fe08 .cfa: $rbp 16 +
STACK CFI fe46 $r12: .cfa -24 + ^ $rbx: .cfa -32 + ^
STACK CFI fe80 .cfa: $rsp 8 +
STACK CFI INIT fe82 e .cfa: $rsp 8 + .ra: .cfa -8 + ^
STACK CFI fe83 $rbp: .cfa -16 + ^ .cfa: $rsp 16 +
STACK CFI fe86 .cfa: $rbp 16 +
STACK CFI fe8f .cfa: $rsp 8 +
STACK CFI INIT fe90 29 .cfa: $rsp 8 + .ra: .cfa -8 + ^
STACK CFI fe91 $rbp: .cfa -16 + ^ .cfa: $rsp 16 +
STACK CFI fe94 .cfa: $rbp 16 +
STACK CFI feb8 .cfa: $rsp 8 +
STACK CFI INIT feba 44 .cfa: $rsp 8 + .ra: .cfa -8 + ^
STACK CFI febb $rbp: .cfa -16 + ^ .cfa: $rsp 16 +
STACK CFI febe .cfa: $rbp 16 +
STACK CFI fefd .cfa: $rsp 8 +
STACK CFI INIT fefe 44 .cfa: $rsp 8 + .ra: .cfa -8 + ^
STACK CFI feff $rbp: .cfa -16 + ^ .cfa: $rsp 16 +
STACK CFI ff02 .cfa: $rbp 16 +
STACK CFI ff41 .cfa: $rsp 8 +
STACK CFI INIT ff42 29 .cfa: $rsp 8 + .ra: .cfa -8 + ^
STACK CFI ff43 $rbp: .cfa -16 + ^ .cfa: $rsp 16 +
STACK CFI ff46 .cfa: $rbp 16 +
STACK CFI ff6a .cfa: $rsp 8 +
STACK CFI INIT ff6c 30 .cfa: $rsp 8 + .ra: .cfa -8 + ^
STACK CFI ff6d $rbp: .cfa -16 + ^ .cfa: $rsp 16 +
STACK CFI ff70 .cfa: $rbp 16 +
STACK CFI ff9b .cfa: $rsp 8 +
STACK CFI INIT ff9c 31 .cfa: $rsp 8 + .ra: .cfa -8 + ^
STACK CFI ff9d $rbp: .cfa -16 + ^ .cfa: $rsp 16 +
STACK CFI ffa0 .cfa: $rbp 16 +
STACK CFI ffcc .cfa: $rsp 8 +
STACK CFI INIT ffce a1 .cfa: $rsp 8 + .ra: .cfa -8 + ^
STACK CFI ffcf $rbp: .cfa -16 + ^ .cfa: $rsp 16 +
STACK CFI ffd2 .cfa: $rbp 16 +
STACK CFI fff7 $r12: .cfa -24 + ^ $rbx: .cfa -32 + ^
STACK CFI 10032 .cfa: $rsp 8 +
STACK CFI 10033 .cfa: $rbp 16 +
STACK CFI INIT 10070 34 .cfa: $rsp 8 + .ra: .cfa -8 + ^
STACK CFI 10071 $rbp: .cfa -16 + ^ .cfa: $rsp 16 +
STACK CFI 10074 .cfa: $rbp 16 +
STACK CFI 100a3 .cfa: $rsp 8 +
STACK CFI INIT 100a4 46 .cfa: $rsp 8 + .ra: .cfa -8 + ^
STACK CFI 100a5 $rbp: .cfa -16 + ^ .cfa: $rsp 16 +
STACK CFI 100a8 .cfa: $rbp 16 +
STACK CFI 100c0 $rbx: .cfa -24 + ^
STACK CFI 100e9 .cfa: $rsp 8 +
STACK CFI INIT 100ea 29 .cfa: $rsp 8 + .ra: .cfa -8 + ^
STACK CFI 100eb $rbp: .cfa -16 + ^ .cfa: $rsp 16 +
STACK CFI 100ee .cfa: $rbp 16 +
STACK CFI 10112 .cfa: $rsp 8 +
STACK CFI INIT 10113 46 .cfa: $rsp 8 + .ra: .cfa -8 + ^
STACK CFI 10114 $rbp: .cfa -16 + ^ .cfa: $rsp 16 +
STACK CFI 10117 .cfa: $rbp 16 +
STACK CFI 1012f $rbx: .cfa -24 + ^
STACK CFI 10158 .cfa: $rsp 8 +
STACK CFI INIT 10159 31 .cfa: $rsp 8 + .ra: .cfa -8 + ^
STACK CFI 1015a $rbp: .cfa -16 + ^ .cfa: $rsp 16 +
STACK CFI 1015d .cfa: $rbp 16 +
STACK CFI 10189 .cfa: $rsp 8 +
STACK CFI INIT 1018a 1c .cfa: $rsp 8 + .ra: .cfa -8 + ^
STACK CFI 1018b $rbp: .cfa -16 + ^ .cfa: $rsp 16 +
STACK CFI 1018e .cfa: $rbp 16 +
STACK CFI 101a5 .cfa: $rsp 8 +
STACK CFI INIT 101a6 e .cfa: $rsp 8 + .ra: .cfa -8 + ^
STACK CFI 101a7 $rbp: .cfa -16 + ^ .cfa: $rsp 16 +
STACK CFI 101aa .cfa: $rbp 16 +
STACK CFI 101b3 .cfa: $rsp 8 +
STACK CFI INIT 101b4 e .cfa: $rsp 8 + .ra: .cfa -8 + ^
STACK CFI 101b5 $rbp: .cfa -16 + ^ .cfa: $rsp 16 +
STACK CFI 101b8 .cfa: $rbp 16 +
STACK CFI 101c1 .cfa: $rsp 8 +
STACK CFI INIT 101c2 39 .cfa: $rsp 8 + .ra: .cfa -8 + ^
STACK CFI 101c3 $rbp: .cfa -16 + ^ .cfa: $rsp 16 +
STACK CFI 101c6 .cfa: $rbp 16 +
STACK CFI 101fa .cfa: $rsp 8 +
STACK CFI INIT 101fc 2e5 .cfa: $rsp 8 + .ra: .cfa -8 + ^
STACK CFI 101fd $rbp: .cfa -16 + ^ .cfa: $rsp 16 +
STACK CFI 10200 .cfa: $rbp 16 +
STACK CFI 1022c $r12: .cfa -24 + ^ $rbx: .cfa -32 + ^
STACK CFI 104e0 .cfa: $rsp 8 +
STACK CFI INIT 104e2 29 .cfa: $rsp 8 + .ra: .cfa -8 + ^
STACK CFI 104e3 $rbp: .cfa -16 + ^ .cfa: $rsp 16 +
STACK CFI 104e6 .cfa: $rbp 16 +
STACK CFI 1050a .cfa: $rsp 8 +
STACK CFI INIT 1050c 77 .cfa: $rsp 8 + .ra: .cfa -8 + ^
STACK CFI 1050d $rbp: .cfa -16 + ^ .cfa: $rsp 16 +
STACK CFI 10510 .cfa: $rbp 16 +
STACK CFI 1052b $r12: .cfa -40 + ^ $r13: .cfa -32 + ^ $r14: .cfa -24 + ^ $rbx: .cfa -48 + ^
STACK CFI 10582 .cfa: $rsp 8 +
STACK CFI INIT 10584 326 .cfa: $rsp 8 + .ra: .cfa -8 + ^
STACK CFI 10585 $rbp: .cfa -16 + ^ .cfa: $rsp 16 +
STACK CFI 10588 .cfa: $rbp 16 +
STACK CFI 105b4 $r12: .cfa -24 + ^ $rbx: .cfa -32 + ^
STACK CFI 108a9 .cfa: $rsp 8 +
STACK CFI INIT 108aa 3c .cfa: $rsp 8 + .ra: .cfa -8 + ^
STACK CFI 108ab $rbp: .cfa -16 + ^ .cfa: $rsp 16 +
STACK CFI 108ae .cfa: $rbp 16 +
STACK CFI 108c2 $rbx: .cfa -24 + ^
STACK CFI 108e5 .cfa: $rsp 8 +
STACK CFI INIT 108e6 31 .cfa: $rsp 8 + .ra: .cfa -8 + ^
STACK CFI 108e7 $rbp: .cfa -16 + ^ .cfa: $rsp 16 +
STACK CFI 108ea .cfa: $rbp 16 +
STACK CFI 10916 .cfa: $rsp 8 +
STACK CFI INIT 10918 30 .cfa: $rsp 8 + .ra: .cfa -8 + ^
STACK CFI 10919 $rbp: .cfa -16 + ^ .cfa: $rsp 16 +
STACK CFI 1091c .cfa: $rbp 16 +
STACK CFI 10947 .cfa: $rsp 8 +
STACK CFI INIT 10948 3c .cfa: $rsp 8 + .ra: .cfa -8 + ^
STACK CFI 10949 $rbp: .cfa -16 + ^ .cfa: $rsp 16 +
STACK CFI 1094c .cfa: $rbp 16 +
STACK CFI 10960 $rbx: .cfa -24 + ^
STACK CFI 10983 .cfa: $rsp 8 +
STACK CFI INIT 10984 8d .cfa: $rsp 8 + .ra: .cfa -8 + ^
STACK CFI 10985 $rbp: .cfa -16 + ^ .cfa: $rsp 16 +
STACK CFI 10988 .cfa: $rbp 16 +
STACK CFI 10998 $rbx: .cfa -24 + ^
STACK CFI 10a10 .cfa: $rsp 8 +
STACK CFI INIT 10a12 25 .cfa: $rsp 8 + .ra: .cfa -8 + ^
STACK CFI 10a13 $rbp: .cfa -16 + ^ .cfa: $rsp 16 +
STACK CFI 10a16 .cfa: $rbp 16 +
STACK CFI 10a36 .cfa: $rsp 8 +
STACK CFI INIT 10a38 1a .cfa: $rsp 8 + .ra: .cfa -8 + ^
STACK CFI 10a39 $rbp: .cfa -16 + ^ .cfa: $rsp 16 +
STACK CFI 10a3c .cfa: $rbp 16 +
STACK CFI 10a51 .cfa: $rsp 8 +
STACK CFI INIT 10a52 15 .cfa: $rsp 8 + .ra: .cfa -8 + ^
STACK CFI 10a53 $rbp: .cfa -16 + ^ .cfa: $rsp 16 +
STACK CFI 10a56 .cfa: $rbp 16 +
STACK CFI 10a66 .cfa: $rsp 8 +
STACK CFI INIT 10a68 29 .cfa: $rsp 8 + .ra: .cfa -8 + ^
STACK CFI 10a69 $rbp: .cfa -16 + ^ .cfa: $rsp 16 +
STACK CFI 10a6c .cfa: $rbp 16 +
STACK CFI 10a90 .cfa: $rsp 8 +
STACK CFI INIT 10a92 22 .cfa: $rsp 8 + .ra: .cfa -8 + ^
STACK CFI 10a93 $rbp: .cfa -16 + ^ .cfa: $rsp 16 +
STACK CFI 10a96 .cfa: $rbp 16 +
STACK CFI 10ab3 .cfa: $rsp 8 +
STACK CFI INIT 10ab4 6b .cfa: $rsp 8 + .ra: .cfa -8 + ^
STACK CFI 10ab5 $rbp: .cfa -16 + ^ .cfa: $rsp 16 +
STACK CFI 10ab8 .cfa: $rbp 16 +
STACK CFI 10ad9 $r12: .cfa -24 + ^ $rbx: .cfa -32 + ^
STACK CFI 10b1e .cfa: $rsp 8 +
STACK CFI INIT 10b20 40 .cfa: $rsp 8 + .ra: .cfa -8 + ^
STACK CFI 10b21 $rbp: .cfa -16 + ^ .cfa: $rsp 16 +
STACK CFI 10b24 .cfa: $rbp 16 +
STACK CFI 10b5f .cfa: $rsp 8 +
STACK CFI INIT 10b60 b6 .cfa: $rsp 8 + .ra: .cfa -8 + ^
STACK CFI 10b61 $rbp: .cfa -16 + ^ .cfa: $rsp 16 +
STACK CFI 10b64 .cfa: $rbp 16 +
STACK CFI 10b7a $r12: .cfa -24 + ^ $rbx: .cfa -32 + ^
STACK CFI 10c15 .cfa: $rsp 8 +
STACK CFI INIT 10c16 2c .cfa: $rsp 8 + .ra: .cfa -8 + ^
STACK CFI 10c17 $rbp: .cfa -16 + ^ .cfa: $rsp 16 +
STACK CFI 10c1a .cfa: $rbp 16 +
STACK CFI 10c41 .cfa: $rsp 8 +
STACK CFI INIT 10c42 e .cfa: $rsp 8 + .ra: .cfa -8 + ^
STACK CFI 10c43 $rbp: .cfa -16 + ^ .cfa: $rsp 16 +
STACK CFI 10c46 .cfa: $rbp 16 +
STACK CFI 10c4f .cfa: $rsp 8 +
STACK CFI INIT 10c50 31 .cfa: $rsp 8 + .ra: .cfa -8 + ^
STACK CFI 10c51 $rbp: .cfa -16 + ^ .cfa: $rsp 16 +
STACK CFI 10c54 .cfa: $rbp 16 +
STACK CFI 10c80 .cfa: $rsp 8 +
STACK CFI INIT 10c82 8c .cfa: $rsp 8 + .ra: .cfa -8 + ^
STACK CFI 10c83 $rbp: .cfa -16 + ^ .cfa: $rsp 16 +
STACK CFI 10c86 .cfa: $rbp 16 +
STACK CFI 10c98 $r12: .cfa -24 + ^ $rbx: .cfa -32 + ^
STACK CFI 10d0d .cfa: $rsp 8 +
STACK CFI INIT 10d0e a .cfa: $rsp 8 + .ra: .cfa -8 + ^
STACK CFI 10d0f $rbp: .cfa -16 + ^ .cfa: $rsp 16 +
STACK CFI 10d12 .cfa: $rbp 16 +
STACK CFI 10d17 .cfa: $rsp 8 +
STACK CFI INIT 10d18 12 .cfa: $rsp 8 + .ra: .cfa -8 + ^
STACK CFI 10d19 $rbp: .cfa -16 + ^ .cfa: $rsp 16 +
STACK CFI 10d1c .cfa: $rbp 16 +
STACK CFI 10d29 .cfa: $rsp 8 +
STACK CFI INIT 10d2a 12 .cfa: $rsp 8 + .ra: .cfa -8 + ^
STACK CFI 10d2b $rbp: .cfa -16 + ^ .cfa: $rsp 16 +
STACK CFI 10d2e .cfa: $rbp 16 +
STACK CFI 10d3b .cfa: $rsp 8 +
STACK CFI INIT 10d3c 86 .cfa: $rsp 8 + .ra: .cfa -8 + ^
STACK CFI 10d3d $rbp: .cfa -16 + ^ .cfa: $rsp 16 +
STACK CFI 10d40 .cfa: $rbp 16 +
STACK CFI 10d57 $r12: .cfa -24 + ^ $rbx: .cfa -32 + ^
STACK CFI 10dc1 .cfa: $rsp 8 +
STACK CFI INIT 10dc2 3d .cfa: $rsp 8 + .ra: .cfa -8 + ^
STACK CFI 10dc3 $rbp: .cfa -16 + ^ .cfa: $rsp 16 +
STACK CFI 10dc6 .cfa: $rbp 16 +
STACK CFI 10dfe .cfa: $rsp 8 +
STACK CFI INIT 10e00 1a .cfa: $rsp 8 + .ra: .cfa -8 + ^
STACK CFI 10e01 $rbp: .cfa -16 + ^ .cfa: $rsp 16 +
STACK CFI 10e04 .cfa: $rbp 16 +
STACK CFI 10e19 .cfa: $rsp 8 +
STACK CFI INIT 10e1a 34 .cfa: $rsp 8 + .ra: .cfa -8 + ^
STACK CFI 10e1b $rbp: .cfa -16 + ^ .cfa: $rsp 16 +
STACK CFI 10e1e .cfa: $rbp 16 +
STACK CFI 10e4d .cfa: $rsp 8 +
STACK CFI INIT 10e4e 25 .cfa: $rsp 8 + .ra: .cfa -8 + ^
STACK CFI 10e4f $rbp: .cfa -16 + ^ .cfa: $rsp 16 +
STACK CFI 10e52 .cfa: $rbp 16 +
STACK CFI 10e72 .cfa: $rsp 8 +
STACK CFI INIT 10e74 3d .cfa: $rsp 8 + .ra: .cfa -8 + ^
STACK CFI 10e75 $rbp: .cfa -16 + ^ .cfa: $rsp 16 +
STACK CFI 10e78 .cfa: $rbp 16 +
STACK CFI 10eb0 .cfa: $rsp 8 +
STACK CFI INIT 10eb2 1a .cfa: $rsp 8 + .ra: .cfa -8 + ^
STACK CFI 10eb3 $rbp: .cfa -16 + ^ .cfa: $rsp 16 +
STACK CFI 10eb6 .cfa: $rbp 16 +
STACK CFI 10ecb .cfa: $rsp 8 +
STACK CFI INIT 10ecc 25 .cfa: $rsp 8 + .ra: .cfa -8 + ^
STACK CFI 10ecd $rbp: .cfa -16 + ^ .cfa: $rsp 16 +
STACK CFI 10ed0 .cfa: $rbp 16 +
STACK CFI 10ef0 .cfa: $rsp 8 +
STACK CFI INIT 10ef2 1c .cfa: $rsp 8 + .ra: .cfa -8 + ^
STACK CFI 10ef3 $rbp: .cfa -16 + ^ .cfa: $rsp 16 +
STACK CFI 10ef6 .cfa: $rbp 16 +
STACK CFI 10f0d .cfa: $rsp 8 +
STACK CFI INIT 10f0e 38 .cfa: $rsp 8 + .ra: .cfa -8 + ^
STACK CFI 10f0f $rbp: .cfa -16 + ^ .cfa: $rsp 16 +
STACK CFI 10f12 .cfa: $rbp 16 +
STACK CFI 10f45 .cfa: $rsp 8 +
STACK CFI INIT 10f46 22 .cfa: $rsp 8 + .ra: .cfa -8 + ^
STACK CFI 10f47 $rbp: .cfa -16 + ^ .cfa: $rsp 16 +
STACK CFI 10f4a .cfa: $rbp 16 +
STACK CFI 10f67 .cfa: $rsp 8 +
STACK CFI INIT 10f68 e .cfa: $rsp 8 + .ra: .cfa -8 + ^
STACK CFI 10f69 $rbp: .cfa -16 + ^ .cfa: $rsp 16 +
STACK CFI 10f6c .cfa: $rbp 16 +
STACK CFI 10f75 .cfa: $rsp 8 +
STACK CFI INIT 10f76 73 .cfa: $rsp 8 + .ra: .cfa -8 + ^
STACK CFI 10f77 $rbp: .cfa -16 + ^ .cfa: $rsp 16 +
STACK CFI 10f7a .cfa: $rbp 16 +
STACK CFI 10f94 $r12: .cfa -24 + ^ $rbx: .cfa -32 + ^
STACK CFI 10fe8 .cfa: $rsp 8 +
STACK CFI INIT 10fe9 25 .cfa: $rsp 8 + .ra: .cfa -8 + ^
STACK CFI 10fea $rbp: .cfa -16 + ^ .cfa: $rsp 16 +
STACK CFI 10fed .cfa: $rbp 16 +
STACK CFI 1100d .cfa: $rsp 8 +
STACK CFI INIT 1100e e .cfa: $rsp 8 + .ra: .cfa -8 + ^
STACK CFI 1100f $rbp: .cfa -16 + ^ .cfa: $rsp 16 +
STACK CFI 11012 .cfa: $rbp 16 +
STACK CFI 1101b .cfa: $rsp 8 +
STACK CFI INIT 1101c 58 .cfa: $rsp 8 + .ra: .cfa -8 + ^
STACK CFI 1101d $rbp: .cfa -16 + ^ .cfa: $rsp 16 +
STACK CFI 11020 .cfa: $rbp 16 +
STACK CFI 1103a $r12: .cfa -24 + ^ $rbx: .cfa -32 + ^
STACK CFI 11073 .cfa: $rsp 8 +
STACK CFI INIT 11074 2d .cfa: $rsp 8 + .ra: .cfa -8 + ^
STACK CFI 11075 $rbp: .cfa -16 + ^ .cfa: $rsp 16 +
STACK CFI 11078 .cfa: $rbp 16 +
STACK CFI 110a0 .cfa: $rsp 8 +
STACK CFI INIT 110a2 e .cfa: $rsp 8 + .ra: .cfa -8 + ^
STACK CFI 110a3 $rbp: .cfa -16 + ^ .cfa: $rsp 16 +
STACK CFI 110a6 .cfa: $rbp 16 +
STACK CFI 110af .cfa: $rsp 8 +
STACK CFI INIT 110b0 46 .cfa: $rsp 8 + .ra: .cfa -8 + ^
STACK CFI 110b1 $rbp: .cfa -16 + ^ .cfa: $rsp 16 +
STACK CFI 110b4 .cfa: $rbp 16 +
STACK CFI 110cc $rbx: .cfa -24 + ^
STACK CFI 110f5 .cfa: $rsp 8 +
STACK CFI INIT 110f6 11 .cfa: $rsp 8 + .ra: .cfa -8 + ^
STACK CFI 110f7 $rbp: .cfa -16 + ^ .cfa: $rsp 16 +
STACK CFI 110fa .cfa: $rbp 16 +
STACK CFI 11106 .cfa: $rsp 8 +
STACK CFI INIT 11108 ca .cfa: $rsp 8 + .ra: .cfa -8 + ^
STACK CFI 11109 $rbp: .cfa -16 + ^ .cfa: $rsp 16 +
STACK CFI 1110c .cfa: $rbp 16 +
STACK CFI 11124 $rbx: .cfa -24 + ^
STACK CFI 111d1 .cfa: $rsp 8 +
STACK CFI INIT 111d2 25 .cfa: $rsp 8 + .ra: .cfa -8 + ^
STACK CFI 111d3 $rbp: .cfa -16 + ^ .cfa: $rsp 16 +
STACK CFI 111d6 .cfa: $rbp 16 +
STACK CFI 111f6 .cfa: $rsp 8 +
STACK CFI INIT 111f7 45 .cfa: $rsp 8 + .ra: .cfa -8 + ^
STACK CFI 111f8 $rbp: .cfa -16 + ^ .cfa: $rsp 16 +
STACK CFI 111fb .cfa: $rbp 16 +
STACK CFI 1120f $rbx: .cfa -24 + ^
STACK CFI 1123b .cfa: $rsp 8 +
STACK CFI INIT 1123c 38 .cfa: $rsp 8 + .ra: .cfa -8 + ^
STACK CFI 1123d $rbp: .cfa -16 + ^ .cfa: $rsp 16 +
STACK CFI 11240 .cfa: $rbp 16 +
STACK CFI 11273 .cfa: $rsp 8 +
STACK CFI INIT 11274 3b .cfa: $rsp 8 + .ra: .cfa -8 + ^
STACK CFI 11275 $rbp: .cfa -16 + ^ .cfa: $rsp 16 +
STACK CFI 11278 .cfa: $rbp 16 +
STACK CFI 11299 $rbx: .cfa -24 + ^
STACK CFI 112ae .cfa: $rsp 8 +
STACK CFI INIT 112b0 e .cfa: $rsp 8 + .ra: .cfa -8 + ^
STACK CFI 112b1 $rbp: .cfa -16 + ^ .cfa: $rsp 16 +
STACK CFI 112b4 .cfa: $rbp 16 +
STACK CFI 112bd .cfa: $rsp 8 +
STACK CFI INIT 112be 1c .cfa: $rsp 8 + .ra: .cfa -8 + ^
STACK CFI 112bf $rbp: .cfa -16 + ^ .cfa: $rsp 16 +
STACK CFI 112c2 .cfa: $rbp 16 +
STACK CFI 112d9 .cfa: $rsp 8 +
STACK CFI INIT 112da 46 .cfa: $rsp 8 + .ra: .cfa -8 + ^
STACK CFI 112db $rbp: .cfa -16 + ^ .cfa: $rsp 16 +
STACK CFI 112de .cfa: $rbp 16 +
STACK CFI 112f6 $rbx: .cfa -24 + ^
STACK CFI 1131f .cfa: $rsp 8 +
STACK CFI INIT 11320 11 .cfa: $rsp 8 + .ra: .cfa -8 + ^
STACK CFI 11321 $rbp: .cfa -16 + ^ .cfa: $rsp 16 +
STACK CFI 11324 .cfa: $rbp 16 +
STACK CFI 11330 .cfa: $rsp 8 +
STACK CFI INIT 11332 ca .cfa: $rsp 8 + .ra: .cfa -8 + ^
STACK CFI 11333 $rbp: .cfa -16 + ^ .cfa: $rsp 16 +
STACK CFI 11336 .cfa: $rbp 16 +
STACK CFI 1134e $rbx: .cfa -24 + ^
STACK CFI 113fb .cfa: $rsp 8 +
STACK CFI INIT 113fc 46 .cfa: $rsp 8 + .ra: .cfa -8 + ^
STACK CFI 113fd $rbp: .cfa -16 + ^ .cfa: $rsp 16 +
STACK CFI 11400 .cfa: $rbp 16 +
STACK CFI 11414 $rbx: .cfa -24 + ^
STACK CFI 11441 .cfa: $rsp 8 +
STACK CFI INIT 11442 3b .cfa: $rsp 8 + .ra: .cfa -8 + ^
STACK CFI 11443 $rbp: .cfa -16 + ^ .cfa: $rsp 16 +
STACK CFI 11446 .cfa: $rbp 16 +
STACK CFI 11467 $rbx: .cfa -24 + ^
STACK CFI 1147c .cfa: $rsp 8 +
STACK CFI INIT 1147e 1e .cfa: $rsp 8 + .ra: .cfa -8 + ^
STACK CFI 1147f $rbp: .cfa -16 + ^ .cfa: $rsp 16 +
STACK CFI 11482 .cfa: $rbp 16 +
STACK CFI 1149b .cfa: $rsp 8 +
STACK CFI INIT 1149c 1c .cfa: $rsp 8 + .ra: .cfa -8 + ^
STACK CFI 1149d $rbp: .cfa -16 + ^ .cfa: $rsp 16 +
STACK CFI 114a0 .cfa: $rbp 16 +
STACK CFI 114b7 .cfa: $rsp 8 +
STACK CFI INIT 114b8 e .cfa: $rsp 8 + .ra: .cfa -8 + ^
STACK CFI 114b9 $rbp: .cfa -16 + ^ .cfa: $rsp 16 +
STACK CFI 114bc .cfa: $rbp 16 +
STACK CFI 114c5 .cfa: $rsp 8 +
STACK CFI INIT 114c6 12 .cfa: $rsp 8 + .ra: .cfa -8 + ^
STACK CFI 114c7 $rbp: .cfa -16 + ^ .cfa: $rsp 16 +
STACK CFI 114ca .cfa: $rbp 16 +
STACK CFI 114d7 .cfa: $rsp 8 +
STACK CFI INIT 114d8 12 .cfa: $rsp 8 + .ra: .cfa -8 + ^
STACK CFI 114d9 $rbp: .cfa -16 + ^ .cfa: $rsp 16 +
STACK CFI 114dc .cfa: $rbp 16 +
STACK CFI 114e9 .cfa: $rsp 8 +
STACK CFI INIT 114ea 12 .cfa: $rsp 8 + .ra: .cfa -8 + ^
STACK CFI 114eb $rbp: .cfa -16 + ^ .cfa: $rsp 16 +
STACK CFI 114ee .cfa: $rbp 16 +
STACK CFI 114fb .cfa: $rsp 8 +
STACK CFI INIT 114fc 12 .cfa: $rsp 8 + .ra: .cfa -8 + ^
STACK CFI 114fd $rbp: .cfa -16 + ^ .cfa: $rsp 16 +
STACK CFI 11500 .cfa: $rbp 16 +
STACK CFI 1150d .cfa: $rsp 8 +
STACK CFI INIT 1150e 53 .cfa: $rsp 8 + .ra: .cfa -8 + ^
STACK CFI 1150f $rbp: .cfa -16 + ^ .cfa: $rsp 16 +
STACK CFI 11512 .cfa: $rbp 16 +
STACK CFI 11528 $r12: .cfa -24 + ^ $rbx: .cfa -32 + ^
STACK CFI 11560 .cfa: $rsp 8 +
STACK CFI INIT 11562 a .cfa: $rsp 8 + .ra: .cfa -8 + ^
STACK CFI 11563 $rbp: .cfa -16 + ^ .cfa: $rsp 16 +
STACK CFI 11566 .cfa: $rbp 16 +
STACK CFI 1156b .cfa: $rsp 8 +
STACK CFI INIT 1156c 28 .cfa: $rsp 8 + .ra: .cfa -8 + ^
STACK CFI 1156d $rbp: .cfa -16 + ^ .cfa: $rsp 16 +
STACK CFI 11570 .cfa: $rbp 16 +
STACK CFI 11593 .cfa: $rsp 8 +
STACK CFI INIT 11594 4c0 .cfa: $rsp 8 + .ra: .cfa -8 + ^
STACK CFI 11595 $rbp: .cfa -16 + ^ .cfa: $rsp 16 +
STACK CFI 11598 .cfa: $rbp 16 +
STACK CFI 115be $r12: .cfa -24 + ^ $rbx: .cfa -32 + ^
STACK CFI 11a53 .cfa: $rsp 8 +
STACK CFI INIT 11a54 92 .cfa: $rsp 8 + .ra: .cfa -8 + ^
STACK CFI 11a55 $rbp: .cfa -16 + ^ .cfa: $rsp 16 +
STACK CFI 11a58 .cfa: $rbp 16 +
STACK CFI 11ae5 .cfa: $rsp 8 +
STACK CFI INIT 11ae6 2c .cfa: $rsp 8 + .ra: .cfa -8 + ^
STACK CFI 11ae7 $rbp: .cfa -16 + ^ .cfa: $rsp 16 +
STACK CFI 11aea .cfa: $rbp 16 +
STACK CFI 11b11 .cfa: $rsp 8 +
STACK CFI INIT 11b12 19 .cfa: $rsp 8 + .ra: .cfa -8 + ^
STACK CFI 11b13 $rbp: .cfa -16 + ^ .cfa: $rsp 16 +
STACK CFI 11b16 .cfa: $rbp 16 +
STACK CFI 11b2a .cfa: $rsp 8 +
STACK CFI INIT 11b2b 2d .cfa: $rsp 8 + .ra: .cfa -8 + ^
STACK CFI 11b2c $rbp: .cfa -16 + ^ .cfa: $rsp 16 +
STACK CFI 11b2f .cfa: $rbp 16 +
STACK CFI 11b57 .cfa: $rsp 8 +
STACK CFI INIT 11b58 1a .cfa: $rsp 8 + .ra: .cfa -8 + ^
STACK CFI 11b59 $rbp: .cfa -16 + ^ .cfa: $rsp 16 +
STACK CFI 11b5c .cfa: $rbp 16 +
STACK CFI 11b71 .cfa: $rsp 8 +
STACK CFI INIT 11b72 41 .cfa: $rsp 8 + .ra: .cfa -8 + ^
STACK CFI 11b73 $rbp: .cfa -16 + ^ .cfa: $rsp 16 +
STACK CFI 11b76 .cfa: $rbp 16 +
STACK CFI 11bb2 .cfa: $rsp 8 +
STACK CFI INIT 11bb4 3b .cfa: $rsp 8 + .ra: .cfa -8 + ^
STACK CFI 11bb5 $rbp: .cfa -16 + ^ .cfa: $rsp 16 +
STACK CFI 11bb8 .cfa: $rbp 16 +
STACK CFI 11bc2 $r12: .cfa -24 + ^ $rbx: .cfa -32 + ^
STACK CFI 11bee .cfa: $rsp 8 +
STACK CFI INIT 11bf0 1a .cfa: $rsp 8 + .ra: .cfa -8 + ^
STACK CFI 11bf1 $rbp: .cfa -16 + ^ .cfa: $rsp 16 +
STACK CFI 11bf4 .cfa: $rbp 16 +
STACK CFI 11c09 .cfa: $rsp 8 +
STACK CFI INIT 11c0a 1e .cfa: $rsp 8 + .ra: .cfa -8 + ^
STACK CFI 11c0b $rbp: .cfa -16 + ^ .cfa: $rsp 16 +
STACK CFI 11c0e .cfa: $rbp 16 +
STACK CFI 11c27 .cfa: $rsp 8 +
STACK CFI INIT 11c28 2a .cfa: $rsp 8 + .ra: .cfa -8 + ^
STACK CFI 11c29 $rbp: .cfa -16 + ^ .cfa: $rsp 16 +
STACK CFI 11c2c .cfa: $rbp 16 +
STACK CFI 11c51 .cfa: $rsp 8 +
STACK CFI INIT 11c52 1a .cfa: $rsp 8 + .ra: .cfa -8 + ^
STACK CFI 11c53 $rbp: .cfa -16 + ^ .cfa: $rsp 16 +
STACK CFI 11c56 .cfa: $rbp 16 +
STACK CFI 11c6b .cfa: $rsp 8 +
STACK CFI INIT 11c6c a .cfa: $rsp 8 + .ra: .cfa -8 + ^
STACK CFI 11c6d $rbp: .cfa -16 + ^ .cfa: $rsp 16 +
STACK CFI 11c70 .cfa: $rbp 16 +
STACK CFI 11c75 .cfa: $rsp 8 +
STACK CFI INIT 11c76 22 .cfa: $rsp 8 + .ra: .cfa -8 + ^
STACK CFI 11c77 $rbp: .cfa -16 + ^ .cfa: $rsp 16 +
STACK CFI 11c7a .cfa: $rbp 16 +
STACK CFI 11c97 .cfa: $rsp 8 +
STACK CFI INIT 11c98 e .cfa: $rsp 8 + .ra: .cfa -8 + ^
STACK CFI 11c99 $rbp: .cfa -16 + ^ .cfa: $rsp 16 +
STACK CFI 11c9c .cfa: $rbp 16 +
STACK CFI 11ca5 .cfa: $rsp 8 +
STACK CFI INIT 11ca6 1a .cfa: $rsp 8 + .ra: .cfa -8 + ^
STACK CFI 11ca7 $rbp: .cfa -16 + ^ .cfa: $rsp 16 +
STACK CFI 11caa .cfa: $rbp 16 +
STACK CFI 11cbf .cfa: $rsp 8 +
STACK CFI INIT 11cc0 a .cfa: $rsp 8 + .ra: .cfa -8 + ^
STACK CFI 11cc1 $rbp: .cfa -16 + ^ .cfa: $rsp 16 +
STACK CFI 11cc4 .cfa: $rbp 16 +
STACK CFI 11cc9 .cfa: $rsp 8 +
STACK CFI INIT 11cca 34 .cfa: $rsp 8 + .ra: .cfa -8 + ^
STACK CFI 11ccb $rbp: .cfa -16 + ^ .cfa: $rsp 16 +
STACK CFI 11cce .cfa: $rbp 16 +
STACK CFI 11cfd .cfa: $rsp 8 +
STACK CFI INIT 11cfe 4b .cfa: $rsp 8 + .ra: .cfa -8 + ^
STACK CFI 11cff $rbp: .cfa -16 + ^ .cfa: $rsp 16 +
STACK CFI 11d02 .cfa: $rbp 16 +
STACK CFI 11d48 .cfa: $rsp 8 +
STACK CFI INIT 11d49 1d .cfa: $rsp 8 + .ra: .cfa -8 + ^
STACK CFI 11d4a $rbp: .cfa -16 + ^ .cfa: $rsp 16 +
STACK CFI 11d4d .cfa: $rbp 16 +
STACK CFI 11d65 .cfa: $rsp 8 +
STACK CFI INIT 11d66 1d .cfa: $rsp 8 + .ra: .cfa -8 + ^
STACK CFI 11d67 $rbp: .cfa -16 + ^ .cfa: $rsp 16 +
STACK CFI 11d6a .cfa: $rbp 16 +
STACK CFI 11d82 .cfa: $rsp 8 +
STACK CFI INIT 11d83 31 .cfa: $rsp 8 + .ra: .cfa -8 + ^
STACK CFI 11d84 $rbp: .cfa -16 + ^ .cfa: $rsp 16 +
STACK CFI 11d87 .cfa: $rbp 16 +
STACK CFI 11db3 .cfa: $rsp 8 +
STACK CFI INIT 11db4 4b .cfa: $rsp 8 + .ra: .cfa -8 + ^
STACK CFI 11db5 $rbp: .cfa -16 + ^ .cfa: $rsp 16 +
STACK CFI 11db8 .cfa: $rbp 16 +
STACK CFI 11dfe .cfa: $rsp 8 +
STACK CFI INIT 11dff e .cfa: $rsp 8 + .ra: .cfa -8 + ^
STACK CFI 11e00 $rbp: .cfa -16 + ^ .cfa: $rsp 16 +
STACK CFI 11e03 .cfa: $rbp 16 +
STACK CFI 11e0c .cfa: $rsp 8 +
STACK CFI INIT 11e0d 31 .cfa: $rsp 8 + .ra: .cfa -8 + ^
STACK CFI 11e0e $rbp: .cfa -16 + ^ .cfa: $rsp 16 +
STACK CFI 11e11 .cfa: $rbp 16 +
STACK CFI 11e3d .cfa: $rsp 8 +
STACK CFI INIT 11e3e 92 .cfa: $rsp 8 + .ra: .cfa -8 + ^
STACK CFI 11e3f $rbp: .cfa -16 + ^ .cfa: $rsp 16 +
STACK CFI 11e42 .cfa: $rbp 16 +
STACK CFI 11e5f $r12: .cfa -24 + ^ $rbx: .cfa -32 + ^
STACK CFI 11e97 .cfa: $rsp 8 +
STACK CFI 11e98 .cfa: $rbp 16 +
STACK CFI INIT 11ed0 e .cfa: $rsp 8 + .ra: .cfa -8 + ^
STACK CFI 11ed1 $rbp: .cfa -16 + ^ .cfa: $rsp 16 +
STACK CFI 11ed4 .cfa: $rbp 16 +
STACK CFI 11edd .cfa: $rsp 8 +
STACK CFI INIT 11ede 58 .cfa: $rsp 8 + .ra: .cfa -8 + ^
STACK CFI 11edf $rbp: .cfa -16 + ^ .cfa: $rsp 16 +
STACK CFI 11ee2 .cfa: $rbp 16 +
STACK CFI 11efc $r12: .cfa -24 + ^ $rbx: .cfa -32 + ^
STACK CFI 11f35 .cfa: $rsp 8 +
STACK CFI INIT 11f36 22 .cfa: $rsp 8 + .ra: .cfa -8 + ^
STACK CFI 11f37 $rbp: .cfa -16 + ^ .cfa: $rsp 16 +
STACK CFI 11f3a .cfa: $rbp 16 +
STACK CFI 11f57 .cfa: $rsp 8 +
STACK CFI INIT 11f58 2b .cfa: $rsp 8 + .ra: .cfa -8 + ^
STACK CFI 11f59 $rbp: .cfa -16 + ^ .cfa: $rsp 16 +
STACK CFI 11f5c .cfa: $rbp 16 +
STACK CFI 11f82 .cfa: $rsp 8 +
STACK CFI INIT 11f84 4a .cfa: $rsp 8 + .ra: .cfa -8 + ^
STACK CFI 11f85 $rbp: .cfa -16 + ^ .cfa: $rsp 16 +
STACK CFI 11f88 .cfa: $rbp 16 +
STACK CFI 11fcd .cfa: $rsp 8 +
STACK CFI INIT 11fce 31 .cfa: $rsp 8 + .ra: .cfa -8 + ^
STACK CFI 11fcf $rbp: .cfa -16 + ^ .cfa: $rsp 16 +
STACK CFI 11fd2 .cfa: $rbp 16 +
STACK CFI 11ffe .cfa: $rsp 8 +
STACK CFI INIT 11fff 58 .cfa: $rsp 8 + .ra: .cfa -8 + ^
STACK CFI 12000 $rbp: .cfa -16 + ^ .cfa: $rsp 16 +
STACK CFI 12003 .cfa: $rbp 16 +
STACK CFI 1201d $r12: .cfa -24 + ^ $rbx: .cfa -32 + ^
STACK CFI 12056 .cfa: $rsp 8 +
STACK CFI INIT 12058 22 .cfa: $rsp 8 + .ra: .cfa -8 + ^
STACK CFI 12059 $rbp: .cfa -16 + ^ .cfa: $rsp 16 +
STACK CFI 1205c .cfa: $rbp 16 +
STACK CFI 12079 .cfa: $rsp 8 +
STACK CFI INIT 1207a 12 .cfa: $rsp 8 + .ra: .cfa -8 + ^
STACK CFI 1207b $rbp: .cfa -16 + ^ .cfa: $rsp 16 +
STACK CFI 1207e .cfa: $rbp 16 +
STACK CFI 1208b .cfa: $rsp 8 +
STACK CFI INIT 1208c 12 .cfa: $rsp 8 + .ra: .cfa -8 + ^
STACK CFI 1208d $rbp: .cfa -16 + ^ .cfa: $rsp 16 +
STACK CFI 12090 .cfa: $rbp 16 +
STACK CFI 1209d .cfa: $rsp 8 +
STACK CFI INIT 1209e e3 .cfa: $rsp 8 + .ra: .cfa -8 + ^
STACK CFI 1209f $rbp: .cfa -16 + ^ .cfa: $rsp 16 +
STACK CFI 120a2 .cfa: $rbp 16 +
STACK CFI 120be $rbx: .cfa -24 + ^
STACK CFI 12180 .cfa: $rsp 8 +
STACK CFI INIT 12182 271 .cfa: $rsp 8 + .ra: .cfa -8 + ^
STACK CFI 12183 $rbp: .cfa -16 + ^ .cfa: $rsp 16 +
STACK CFI 12186 .cfa: $rbp 16 +
STACK CFI 121a6 $rbx: .cfa -24 + ^
STACK CFI 123f2 .cfa: $rsp 8 +
STACK CFI INIT 123f4 28 .cfa: $rsp 8 + .ra: .cfa -8 + ^
STACK CFI 123f5 $rbp: .cfa -16 + ^ .cfa: $rsp 16 +
STACK CFI 123f8 .cfa: $rbp 16 +
STACK CFI 1241b .cfa: $rsp 8 +
STACK CFI INIT 1241c 12 .cfa: $rsp 8 + .ra: .cfa -8 + ^
STACK CFI 1241d $rbp: .cfa -16 + ^ .cfa: $rsp 16 +
STACK CFI 12420 .cfa: $rbp 16 +
STACK CFI 1242d .cfa: $rsp 8 +
STACK CFI INIT 1242e 28 .cfa: $rsp 8 + .ra: .cfa -8 + ^
STACK CFI 1242f $rbp: .cfa -16 + ^ .cfa: $rsp 16 +
STACK CFI 12432 .cfa: $rbp 16 +
STACK CFI 12455 .cfa: $rsp 8 +
STACK CFI INIT 12456 2c .cfa: $rsp 8 + .ra: .cfa -8 + ^
STACK CFI 12457 $rbp: .cfa -16 + ^ .cfa: $rsp 16 +
STACK CFI 1245a .cfa: $rbp 16 +
STACK CFI 12481 .cfa: $rsp 8 +
STACK CFI INIT 12482 12 .cfa: $rsp 8 + .ra: .cfa -8 + ^
STACK CFI 12483 $rbp: .cfa -16 + ^ .cfa: $rsp 16 +
STACK CFI 12486 .cfa: $rbp 16 +
STACK CFI 12493 .cfa: $rsp 8 +
STACK CFI INIT 12494 ac .cfa: $rsp 8 + .ra: .cfa -8 + ^
STACK CFI 12495 $rbp: .cfa -16 + ^ .cfa: $rsp 16 +
STACK CFI 12498 .cfa: $rbp 16 +
STACK CFI 124b5 $r12: .cfa -24 + ^ $rbx: .cfa -32 + ^
STACK CFI 12507 .cfa: $rsp 8 +
STACK CFI 12508 .cfa: $rbp 16 +
STACK CFI INIT 12540 a .cfa: $rsp 8 + .ra: .cfa -8 + ^
STACK CFI 12541 $rbp: .cfa -16 + ^ .cfa: $rsp 16 +
STACK CFI 12544 .cfa: $rbp 16 +
STACK CFI 12549 .cfa: $rsp 8 +
STACK CFI INIT 1254a e .cfa: $rsp 8 + .ra: .cfa -8 + ^
STACK CFI 1254b $rbp: .cfa -16 + ^ .cfa: $rsp 16 +
STACK CFI 1254e .cfa: $rbp 16 +
STACK CFI 12557 .cfa: $rsp 8 +
STACK CFI INIT 12558 1e .cfa: $rsp 8 + .ra: .cfa -8 + ^
STACK CFI 12559 $rbp: .cfa -16 + ^ .cfa: $rsp 16 +
STACK CFI 1255c .cfa: $rbp 16 +
STACK CFI 12575 .cfa: $rsp 8 +
STACK CFI INIT 12576 a .cfa: $rsp 8 + .ra: .cfa -8 + ^
STACK CFI 12577 $rbp: .cfa -16 + ^ .cfa: $rsp 16 +
STACK CFI 1257a .cfa: $rbp 16 +
STACK CFI 1257f .cfa: $rsp 8 +
STACK CFI INIT 12580 22 .cfa: $rsp 8 + .ra: .cfa -8 + ^
STACK CFI 12581 $rbp: .cfa -16 + ^ .cfa: $rsp 16 +
STACK CFI 12584 .cfa: $rbp 16 +
STACK CFI 125a1 .cfa: $rsp 8 +
STACK CFI INIT 125a2 a .cfa: $rsp 8 + .ra: .cfa -8 + ^
STACK CFI 125a3 $rbp: .cfa -16 + ^ .cfa: $rsp 16 +
STACK CFI 125a6 .cfa: $rbp 16 +
STACK CFI 125ab .cfa: $rsp 8 +
STACK CFI INIT 125ac a .cfa: $rsp 8 + .ra: .cfa -8 + ^
STACK CFI 125ad $rbp: .cfa -16 + ^ .cfa: $rsp 16 +
STACK CFI 125b0 .cfa: $rbp 16 +
STACK CFI 125b5 .cfa: $rsp 8 +
STACK CFI INIT 125b6 1a .cfa: $rsp 8 + .ra: .cfa -8 + ^
STACK CFI 125b7 $rbp: .cfa -16 + ^ .cfa: $rsp 16 +
STACK CFI 125ba .cfa: $rbp 16 +
STACK CFI 125cf .cfa: $rsp 8 +
STACK CFI INIT 125d0 14 .cfa: $rsp 8 + .ra: .cfa -8 + ^
STACK CFI 125d1 $rbp: .cfa -16 + ^ .cfa: $rsp 16 +
STACK CFI 125d4 .cfa: $rbp 16 +
STACK CFI 125e3 .cfa: $rsp 8 +
STACK CFI INIT 125e4 63 .cfa: $rsp 8 + .ra: .cfa -8 + ^
STACK CFI 125e5 $rbp: .cfa -16 + ^ .cfa: $rsp 16 +
STACK CFI 125e8 .cfa: $rbp 16 +
STACK CFI 12646 .cfa: $rsp 8 +
STACK CFI INIT 12647 3c .cfa: $rsp 8 + .ra: .cfa -8 + ^
STACK CFI 12648 $rbp: .cfa -16 + ^ .cfa: $rsp 16 +
STACK CFI 1264b .cfa: $rbp 16 +
STACK CFI 1265f $rbx: .cfa -24 + ^
STACK CFI 12682 .cfa: $rsp 8 +
STACK CFI INIT 12684 20 .cfa: $rsp 8 + .ra: .cfa -8 + ^
STACK CFI 12685 $rbp: .cfa -16 + ^ .cfa: $rsp 16 +
STACK CFI 12688 .cfa: $rbp 16 +
STACK CFI 126a3 .cfa: $rsp 8 +
STACK CFI INIT 126a4 63 .cfa: $rsp 8 + .ra: .cfa -8 + ^
STACK CFI 126a5 $rbp: .cfa -16 + ^ .cfa: $rsp 16 +
STACK CFI 126a8 .cfa: $rbp 16 +
STACK CFI 12706 .cfa: $rsp 8 +
STACK CFI INIT 12707 73 .cfa: $rsp 8 + .ra: .cfa -8 + ^
STACK CFI 12708 $rbp: .cfa -16 + ^ .cfa: $rsp 16 +
STACK CFI 1270b .cfa: $rbp 16 +
STACK CFI 12722 $r12: .cfa -40 + ^ $r13: .cfa -32 + ^ $r14: .cfa -24 + ^ $rbx: .cfa -48 + ^
STACK CFI 12779 .cfa: $rsp 8 +
STACK CFI INIT 1277a e .cfa: $rsp 8 + .ra: .cfa -8 + ^
STACK CFI 1277b $rbp: .cfa -16 + ^ .cfa: $rsp 16 +
STACK CFI 1277e .cfa: $rbp 16 +
STACK CFI 12787 .cfa: $rsp 8 +
STACK CFI INIT 12788 31 .cfa: $rsp 8 + .ra: .cfa -8 + ^
STACK CFI 12789 $rbp: .cfa -16 + ^ .cfa: $rsp 16 +
STACK CFI 1278c .cfa: $rbp 16 +
STACK CFI 127b8 .cfa: $rsp 8 +
STACK CFI INIT 127ba e .cfa: $rsp 8 + .ra: .cfa -8 + ^
STACK CFI 127bb $rbp: .cfa -16 + ^ .cfa: $rsp 16 +
STACK CFI 127be .cfa: $rbp 16 +
STACK CFI 127c7 .cfa: $rsp 8 +
STACK CFI INIT 127c8 14 .cfa: $rsp 8 + .ra: .cfa -8 + ^
STACK CFI 127c9 $rbp: .cfa -16 + ^ .cfa: $rsp 16 +
STACK CFI 127cc .cfa: $rbp 16 +
STACK CFI 127db .cfa: $rsp 8 +
STACK CFI INIT 127dc 2d .cfa: $rsp 8 + .ra: .cfa -8 + ^
STACK CFI 127dd $rbp: .cfa -16 + ^ .cfa: $rsp 16 +
STACK CFI 127e0 .cfa: $rbp 16 +
STACK CFI 12808 .cfa: $rsp 8 +
STACK CFI INIT 12809 31 .cfa: $rsp 8 + .ra: .cfa -8 + ^
STACK CFI 1280a $rbp: .cfa -16 + ^ .cfa: $rsp 16 +
STACK CFI 1280d .cfa: $rbp 16 +
STACK CFI 12839 .cfa: $rsp 8 +
STACK CFI INIT 1283a bd .cfa: $rsp 8 + .ra: .cfa -8 + ^
STACK CFI 1283b $rbp: .cfa -16 + ^ .cfa: $rsp 16 +
STACK CFI 1283e .cfa: $rbp 16 +
STACK CFI 12854 $r12: .cfa -24 + ^ $rbx: .cfa -32 + ^
STACK CFI 128be .cfa: $rsp 8 +
STACK CFI 128bf .cfa: $rbp 16 +
STACK CFI INIT 128f8 2c .cfa: $rsp 8 + .ra: .cfa -8 + ^
STACK CFI 128f9 $rbp: .cfa -16 + ^ .cfa: $rsp 16 +
STACK CFI 128fc .cfa: $rbp 16 +
STACK CFI 12923 .cfa: $rsp 8 +
STACK CFI INIT 12924 2e .cfa: $rsp 8 + .ra: .cfa -8 + ^
STACK CFI 12925 $rbp: .cfa -16 + ^ .cfa: $rsp 16 +
STACK CFI 12928 .cfa: $rbp 16 +
STACK CFI 12951 .cfa: $rsp 8 +
STACK CFI INIT 12952 28 .cfa: $rsp 8 + .ra: .cfa -8 + ^
STACK CFI 12953 $rbp: .cfa -16 + ^ .cfa: $rsp 16 +
STACK CFI 12956 .cfa: $rbp 16 +
STACK CFI 12979 .cfa: $rsp 8 +
STACK CFI INIT 1297a 12 .cfa: $rsp 8 + .ra: .cfa -8 + ^
STACK CFI 1297b $rbp: .cfa -16 + ^ .cfa: $rsp 16 +
STACK CFI 1297e .cfa: $rbp 16 +
STACK CFI 1298b .cfa: $rsp 8 +
STACK CFI INIT 1298c 3c .cfa: $rsp 8 + .ra: .cfa -8 + ^
STACK CFI 1298d $rbp: .cfa -16 + ^ .cfa: $rsp 16 +
STACK CFI 12990 .cfa: $rbp 16 +
STACK CFI 129a4 $rbx: .cfa -24 + ^
STACK CFI 129c7 .cfa: $rsp 8 +
STACK CFI INIT 129c8 a .cfa: $rsp 8 + .ra: .cfa -8 + ^
STACK CFI 129c9 $rbp: .cfa -16 + ^ .cfa: $rsp 16 +
STACK CFI 129cc .cfa: $rbp 16 +
STACK CFI 129d1 .cfa: $rsp 8 +
STACK CFI INIT 129d2 61 .cfa: $rsp 8 + .ra: .cfa -8 + ^
STACK CFI 129d3 $rbp: .cfa -16 + ^ .cfa: $rsp 16 +
STACK CFI 129d6 .cfa: $rbp 16 +
STACK CFI 12a32 .cfa: $rsp 8 +
STACK CFI INIT 12a33 2d .cfa: $rsp 8 + .ra: .cfa -8 + ^
STACK CFI 12a34 $rbp: .cfa -16 + ^ .cfa: $rsp 16 +
STACK CFI 12a37 .cfa: $rbp 16 +
STACK CFI 12a5f .cfa: $rsp 8 +
STACK CFI INIT 12a60 63 .cfa: $rsp 8 + .ra: .cfa -8 + ^
STACK CFI 12a61 $rbp: .cfa -16 + ^ .cfa: $rsp 16 +
STACK CFI 12a64 .cfa: $rbp 16 +
STACK CFI 12ac2 .cfa: $rsp 8 +
STACK CFI INIT 12ac4 24 .cfa: $rsp 8 + .ra: .cfa -8 + ^
STACK CFI 12ac5 $rbp: .cfa -16 + ^ .cfa: $rsp 16 +
STACK CFI 12ac8 .cfa: $rbp 16 +
STACK CFI 12ae7 .cfa: $rsp 8 +
STACK CFI INIT 12ae8 6b .cfa: $rsp 8 + .ra: .cfa -8 + ^
STACK CFI 12ae9 $rbp: .cfa -16 + ^ .cfa: $rsp 16 +
STACK CFI 12aec .cfa: $rbp 16 +
STACK CFI 12b09 $r12: .cfa -24 + ^ $rbx: .cfa -32 + ^
STACK CFI 12b52 .cfa: $rsp 8 +
STACK CFI INIT 12b54 77 .cfa: $rsp 8 + .ra: .cfa -8 + ^
STACK CFI 12b55 $rbp: .cfa -16 + ^ .cfa: $rsp 16 +
STACK CFI 12b58 .cfa: $rbp 16 +
STACK CFI 12b73 $r12: .cfa -40 + ^ $r13: .cfa -32 + ^ $r14: .cfa -24 + ^ $rbx: .cfa -48 + ^
STACK CFI 12bca .cfa: $rsp 8 +
STACK CFI INIT 12bcb 46 .cfa: $rsp 8 + .ra: .cfa -8 + ^
STACK CFI 12bcc $rbp: .cfa -16 + ^ .cfa: $rsp 16 +
STACK CFI 12bcf .cfa: $rbp 16 +
STACK CFI 12be7 $rbx: .cfa -24 + ^
STACK CFI 12c10 .cfa: $rsp 8 +
STACK CFI INIT 12c12 54 .cfa: $rsp 8 + .ra: .cfa -8 + ^
STACK CFI 12c13 $rbp: .cfa -16 + ^ .cfa: $rsp 16 +
STACK CFI 12c16 .cfa: $rbp 16 +
STACK CFI 12c65 .cfa: $rsp 8 +
STACK CFI INIT 12c66 58 .cfa: $rsp 8 + .ra: .cfa -8 + ^
STACK CFI 12c67 $rbp: .cfa -16 + ^ .cfa: $rsp 16 +
STACK CFI 12c6a .cfa: $rbp 16 +
STACK CFI 12c84 $r12: .cfa -24 + ^ $rbx: .cfa -32 + ^
STACK CFI 12cbd .cfa: $rsp 8 +
STACK CFI INIT 12cbe 14 .cfa: $rsp 8 + .ra: .cfa -8 + ^
STACK CFI 12cbf $rbp: .cfa -16 + ^ .cfa: $rsp 16 +
STACK CFI 12cc2 .cfa: $rbp 16 +
STACK CFI 12cd1 .cfa: $rsp 8 +
STACK CFI INIT 12cd2 31 .cfa: $rsp 8 + .ra: .cfa -8 + ^
STACK CFI 12cd3 $rbp: .cfa -16 + ^ .cfa: $rsp 16 +
STACK CFI 12cd6 .cfa: $rbp 16 +
STACK CFI 12d02 .cfa: $rsp 8 +
STACK CFI INIT 12d03 5c .cfa: $rsp 8 + .ra: .cfa -8 + ^
STACK CFI 12d04 $rbp: .cfa -16 + ^ .cfa: $rsp 16 +
STACK CFI 12d07 .cfa: $rbp 16 +
STACK CFI 12d5e .cfa: $rsp 8 +
STACK CFI INIT ebee 48 .cfa: $rsp 8 + .ra: .cfa -8 + ^
STACK CFI ebef $rbp: .cfa -16 + ^ .cfa: $rsp 16 +
STACK CFI ebf2 .cfa: $rbp 16 +
STACK CFI ec35 .cfa: $rsp 8 +
STACK CFI INIT ec36 15 .cfa: $rsp 8 + .ra: .cfa -8 + ^
STACK CFI ec37 $rbp: .cfa -16 + ^ .cfa: $rsp 16 +
STACK CFI ec3a .cfa: $rbp 16 +
STACK CFI ec4a .cfa: $rsp 8 +
STACK CFI INIT 13b1a 1a .cfa: $rsp 8 + .ra: .cfa -8 + ^
STACK CFI 13b1b $rbp: .cfa -16 + ^ .cfa: $rsp 16 +
STACK CFI 13b1e .cfa: $rbp 16 +
STACK CFI 13b33 .cfa: $rsp 8 +
STACK CFI INIT 13b34 1a .cfa: $rsp 8 + .ra: .cfa -8 + ^
STACK CFI 13b35 $rbp: .cfa -16 + ^ .cfa: $rsp 16 +
STACK CFI 13b38 .cfa: $rbp 16 +
STACK CFI 13b4d .cfa: $rsp 8 +
STACK CFI INIT 13b4e 12 .cfa: $rsp 8 + .ra: .cfa -8 + ^
STACK CFI 13b4f $rbp: .cfa -16 + ^ .cfa: $rsp 16 +
STACK CFI 13b52 .cfa: $rbp 16 +
STACK CFI 13b5f .cfa: $rsp 8 +
STACK CFI INIT 13b60 50 .cfa: $rsp 8 + .ra: .cfa -8 + ^
STACK CFI 13b61 $rbp: .cfa -16 + ^ .cfa: $rsp 16 +
STACK CFI 13b64 .cfa: $rbp 16 +
STACK CFI 13baf .cfa: $rsp 8 +
STACK CFI INIT 13bb0 3f .cfa: $rsp 8 + .ra: .cfa -8 + ^
STACK CFI 13bb1 $rbp: .cfa -16 + ^ .cfa: $rsp 16 +
STACK CFI 13bb4 .cfa: $rbp 16 +
STACK CFI 13bee .cfa: $rsp 8 +
STACK CFI INIT 13bf0 3f .cfa: $rsp 8 + .ra: .cfa -8 + ^
STACK CFI 13bf1 $rbp: .cfa -16 + ^ .cfa: $rsp 16 +
STACK CFI 13bf4 .cfa: $rbp 16 +
STACK CFI 13c2e .cfa: $rsp 8 +
STACK CFI INIT 13c30 3f .cfa: $rsp 8 + .ra: .cfa -8 + ^
STACK CFI 13c31 $rbp: .cfa -16 + ^ .cfa: $rsp 16 +
STACK CFI 13c34 .cfa: $rbp 16 +
STACK CFI 13c6e .cfa: $rsp 8 +
STACK CFI INIT 13c70 2c .cfa: $rsp 8 + .ra: .cfa -8 + ^
STACK CFI 13c71 $rbp: .cfa -16 + ^ .cfa: $rsp 16 +
STACK CFI 13c74 .cfa: $rbp 16 +
STACK CFI 13c9b .cfa: $rsp 8 +
STACK CFI INIT 13c9c 1d .cfa: $rsp 8 + .ra: .cfa -8 + ^
STACK CFI 13c9d $rbp: .cfa -16 + ^ .cfa: $rsp 16 +
STACK CFI 13ca0 .cfa: $rbp 16 +
STACK CFI 13cb8 .cfa: $rsp 8 +
STACK CFI INIT 13cba 1a .cfa: $rsp 8 + .ra: .cfa -8 + ^
STACK CFI 13cbb $rbp: .cfa -16 + ^ .cfa: $rsp 16 +
STACK CFI 13cbe .cfa: $rbp 16 +
STACK CFI 13cd3 .cfa: $rsp 8 +
STACK CFI INIT 12d60 119 .cfa: $rsp 8 + .ra: .cfa -8 + ^
STACK CFI 12d61 $rbp: .cfa -16 + ^ .cfa: $rsp 16 +
STACK CFI 12d64 .cfa: $rbp 16 +
STACK CFI 12d7c $r12: .cfa -24 + ^ $rbx: .cfa -32 + ^
STACK CFI 12e78 .cfa: $rsp 8 +
STACK CFI INIT 12e7a 102 .cfa: $rsp 8 + .ra: .cfa -8 + ^
STACK CFI 12e7b $rbp: .cfa -16 + ^ .cfa: $rsp 16 +
STACK CFI 12e7e .cfa: $rbp 16 +
STACK CFI 12e90 $r12: .cfa -24 + ^ $rbx: .cfa -32 + ^
STACK CFI 12f7b .cfa: $rsp 8 +
STACK CFI INIT 12f7c 74 .cfa: $rsp 8 + .ra: .cfa -8 + ^
STACK CFI 12f7d $rbp: .cfa -16 + ^ .cfa: $rsp 16 +
STACK CFI 12f80 .cfa: $rbp 16 +
STACK CFI 12f98 $r12: .cfa -32 + ^ $r13: .cfa -24 + ^ $rbx: .cfa -40 + ^
STACK CFI 12fef .cfa: $rsp 8 +
STACK CFI INIT 12ff0 112 .cfa: $rsp 8 + .ra: .cfa -8 + ^
STACK CFI 12ff1 $rbp: .cfa -16 + ^ .cfa: $rsp 16 +
STACK CFI 12ff4 .cfa: $rbp 16 +
STACK CFI 1301f $r12: .cfa -24 + ^ $rbx: .cfa -32 + ^
STACK CFI 13101 .cfa: $rsp 8 +
STACK CFI INIT 13102 31 .cfa: $rsp 8 + .ra: .cfa -8 + ^
STACK CFI 13103 $rbp: .cfa -16 + ^ .cfa: $rsp 16 +
STACK CFI 13106 .cfa: $rbp 16 +
STACK CFI 13132 .cfa: $rsp 8 +
STACK CFI INIT 13134 402 .cfa: $rsp 8 + .ra: .cfa -8 + ^
STACK CFI 13135 $rbp: .cfa -16 + ^ .cfa: $rsp 16 +
STACK CFI 13138 .cfa: $rbp 16 +
STACK CFI 13158 $r12: .cfa -24 + ^ $rbx: .cfa -32 + ^
STACK CFI 13535 .cfa: $rsp 8 +
STACK CFI INIT 13536 1e3 .cfa: $rsp 8 + .ra: .cfa -8 + ^
STACK CFI 13537 $rbp: .cfa -16 + ^ .cfa: $rsp 16 +
STACK CFI 1353a .cfa: $rbp 16 +
STACK CFI 1355a $r12: .cfa -24 + ^ $rbx: .cfa -32 + ^
STACK CFI 13718 .cfa: $rsp 8 +
STACK CFI INIT 1371a 4e .cfa: $rsp 8 + .ra: .cfa -8 + ^
STACK CFI 1371b $rbp: .cfa -16 + ^ .cfa: $rsp 16 +
STACK CFI 1371e .cfa: $rbp 16 +
STACK CFI 13767 .cfa: $rsp 8 +
STACK CFI INIT 13768 c3 .cfa: $rsp 8 + .ra: .cfa -8 + ^
STACK CFI 13769 $rbp: .cfa -16 + ^ .cfa: $rsp 16 +
STACK CFI 1376c .cfa: $rbp 16 +
STACK CFI 13782 $r12: .cfa -24 + ^ $rbx: .cfa -32 + ^
STACK CFI 1382a .cfa: $rsp 8 +
STACK CFI INIT 1382c 3b .cfa: $rsp 8 + .ra: .cfa -8 + ^
STACK CFI 1382d $rbp: .cfa -16 + ^ .cfa: $rsp 16 +
STACK CFI 13830 .cfa: $rbp 16 +
STACK CFI 13866 .cfa: $rsp 8 +
STACK CFI INIT 13868 40 .cfa: $rsp 8 + .ra: .cfa -8 + ^
STACK CFI 13869 $rbp: .cfa -16 + ^ .cfa: $rsp 16 +
STACK CFI 1386c .cfa: $rbp 16 +
STACK CFI 138a7 .cfa: $rsp 8 +
STACK CFI INIT 138a8 12 .cfa: $rsp 8 + .ra: .cfa -8 + ^
STACK CFI 138a9 $rbp: .cfa -16 + ^ .cfa: $rsp 16 +
STACK CFI 138ac .cfa: $rbp 16 +
STACK CFI 138b9 .cfa: $rsp 8 +
STACK CFI INIT 138ba 12 .cfa: $rsp 8 + .ra: .cfa -8 + ^
STACK CFI 138bb $rbp: .cfa -16 + ^ .cfa: $rsp 16 +
STACK CFI 138be .cfa: $rbp 16 +
STACK CFI 138cb .cfa: $rsp 8 +
STACK CFI INIT 138cc 1a .cfa: $rsp 8 + .ra: .cfa -8 + ^
STACK CFI 138cd $rbp: .cfa -16 + ^ .cfa: $rsp 16 +
STACK CFI 138d0 .cfa: $rbp 16 +
STACK CFI 138e5 .cfa: $rsp 8 +
STACK CFI INIT 138e6 68 .cfa: $rsp 8 + .ra: .cfa -8 + ^
STACK CFI 138e7 $rbp: .cfa -16 + ^ .cfa: $rsp 16 +
STACK CFI 138ea .cfa: $rbp 16 +
STACK CFI 1394d .cfa: $rsp 8 +
STACK CFI INIT 1394e 107 .cfa: $rsp 8 + .ra: .cfa -8 + ^
STACK CFI 1394f $rbp: .cfa -16 + ^ .cfa: $rsp 16 +
STACK CFI 13952 .cfa: $rbp 16 +
STACK CFI 13964 $r12: .cfa -24 + ^ $rbx: .cfa -32 + ^
STACK CFI 13a54 .cfa: $rsp 8 +
STACK CFI INIT 13a56 11 .cfa: $rsp 8 + .ra: .cfa -8 + ^
STACK CFI 13a57 $rbp: .cfa -16 + ^ .cfa: $rsp 16 +
STACK CFI 13a5a .cfa: $rbp 16 +
STACK CFI 13a66 .cfa: $rsp 8 +
STACK CFI INIT 13a68 11 .cfa: $rsp 8 + .ra: .cfa -8 + ^
STACK CFI 13a69 $rbp: .cfa -16 + ^ .cfa: $rsp 16 +
STACK CFI 13a6c .cfa: $rbp 16 +
STACK CFI 13a78 .cfa: $rsp 8 +
STACK CFI INIT 13a7a 14 .cfa: $rsp 8 + .ra: .cfa -8 + ^
STACK CFI 13a7b $rbp: .cfa -16 + ^ .cfa: $rsp 16 +
STACK CFI 13a7e .cfa: $rbp 16 +
STACK CFI 13a8d .cfa: $rsp 8 +
STACK CFI INIT 13cd4 1a .cfa: $rsp 8 + .ra: .cfa -8 + ^
STACK CFI 13cd5 $rbp: .cfa -16 + ^ .cfa: $rsp 16 +
STACK CFI 13cd8 .cfa: $rbp 16 +
STACK CFI 13ced .cfa: $rsp 8 +
STACK CFI INIT 13cee 1a .cfa: $rsp 8 + .ra: .cfa -8 + ^
STACK CFI 13cef $rbp: .cfa -16 + ^ .cfa: $rsp 16 +
STACK CFI 13cf2 .cfa: $rbp 16 +
STACK CFI 13d07 .cfa: $rsp 8 +
STACK CFI INIT 13d08 63 .cfa: $rsp 8 + .ra: .cfa -8 + ^
STACK CFI 13d09 $rbp: .cfa -16 + ^ .cfa: $rsp 16 +
STACK CFI 13d0c .cfa: $rbp 16 +
STACK CFI 13d1e $r12: .cfa -24 + ^ $rbx: .cfa -32 + ^
STACK CFI 13d6a .cfa: $rsp 8 +
STACK CFI INIT 13d6c 1a .cfa: $rsp 8 + .ra: .cfa -8 + ^
STACK CFI 13d6d $rbp: .cfa -16 + ^ .cfa: $rsp 16 +
STACK CFI 13d70 .cfa: $rbp 16 +
STACK CFI 13d85 .cfa: $rsp 8 +
STACK CFI INIT 13d86 1a .cfa: $rsp 8 + .ra: .cfa -8 + ^
STACK CFI 13d87 $rbp: .cfa -16 + ^ .cfa: $rsp 16 +
STACK CFI 13d8a .cfa: $rbp 16 +
STACK CFI 13d9f .cfa: $rsp 8 +
STACK CFI INIT 13da0 118 .cfa: $rsp 8 + .ra: .cfa -8 + ^
STACK CFI 13da1 $rbp: .cfa -16 + ^ .cfa: $rsp 16 +
STACK CFI 13da4 .cfa: $rbp 16 +
STACK CFI 13dc1 $r12: .cfa -24 + ^ $rbx: .cfa -32 + ^
STACK CFI 13eb7 .cfa: $rsp 8 +
STACK CFI INIT 13eb8 1a .cfa: $rsp 8 + .ra: .cfa -8 + ^
STACK CFI 13eb9 $rbp: .cfa -16 + ^ .cfa: $rsp 16 +
STACK CFI 13ebc .cfa: $rbp 16 +
STACK CFI 13ed1 .cfa: $rsp 8 +
STACK CFI INIT 13ed2 1a .cfa: $rsp 8 + .ra: .cfa -8 + ^
STACK CFI 13ed3 $rbp: .cfa -16 + ^ .cfa: $rsp 16 +
STACK CFI 13ed6 .cfa: $rbp 16 +
STACK CFI 13eeb .cfa: $rsp 8 +
STACK CFI INIT 13eec 69 .cfa: $rsp 8 + .ra: .cfa -8 + ^
STACK CFI 13eed $rbp: .cfa -16 + ^ .cfa: $rsp 16 +
STACK CFI 13ef0 .cfa: $rbp 16 +
STACK CFI 13f54 .cfa: $rsp 8 +
STACK CFI INIT 13f56 12 .cfa: $rsp 8 + .ra: .cfa -8 + ^
STACK CFI 13f57 $rbp: .cfa -16 + ^ .cfa: $rsp 16 +
STACK CFI 13f5a .cfa: $rbp 16 +
STACK CFI 13f67 .cfa: $rsp 8 +
STACK CFI INIT 13f68 8d .cfa: $rsp 8 + .ra: .cfa -8 + ^
STACK CFI 13f69 $rbp: .cfa -16 + ^ .cfa: $rsp 16 +
STACK CFI 13f6c .cfa: $rbp 16 +
STACK CFI 13f7c $rbx: .cfa -24 + ^
STACK CFI 13ff4 .cfa: $rsp 8 +
STACK CFI INIT 13ff6 25 .cfa: $rsp 8 + .ra: .cfa -8 + ^
STACK CFI 13ff7 $rbp: .cfa -16 + ^ .cfa: $rsp 16 +
STACK CFI 13ffa .cfa: $rbp 16 +
STACK CFI 1401a .cfa: $rsp 8 +
STACK CFI INIT 1401c 1a .cfa: $rsp 8 + .ra: .cfa -8 + ^
STACK CFI 1401d $rbp: .cfa -16 + ^ .cfa: $rsp 16 +
STACK CFI 14020 .cfa: $rbp 16 +
STACK CFI 14035 .cfa: $rsp 8 +
STACK CFI INIT 14036 15 .cfa: $rsp 8 + .ra: .cfa -8 + ^
STACK CFI 14037 $rbp: .cfa -16 + ^ .cfa: $rsp 16 +
STACK CFI 1403a .cfa: $rbp 16 +
STACK CFI 1404a .cfa: $rsp 8 +
STACK CFI INIT 1404c 1a .cfa: $rsp 8 + .ra: .cfa -8 + ^
STACK CFI 1404d $rbp: .cfa -16 + ^ .cfa: $rsp 16 +
STACK CFI 14050 .cfa: $rbp 16 +
STACK CFI 14065 .cfa: $rsp 8 +
STACK CFI INIT 14066 22 .cfa: $rsp 8 + .ra: .cfa -8 + ^
STACK CFI 14067 $rbp: .cfa -16 + ^ .cfa: $rsp 16 +
STACK CFI 1406a .cfa: $rbp 16 +
STACK CFI 14087 .cfa: $rsp 8 +
STACK CFI INIT 14088 36 .cfa: $rsp 8 + .ra: .cfa -8 + ^
STACK CFI 14089 $rbp: .cfa -16 + ^ .cfa: $rsp 16 +
STACK CFI 1408c .cfa: $rbp 16 +
STACK CFI 140bd .cfa: $rsp 8 +
STACK CFI INIT 140be 40 .cfa: $rsp 8 + .ra: .cfa -8 + ^
STACK CFI 140bf $rbp: .cfa -16 + ^ .cfa: $rsp 16 +
STACK CFI 140c2 .cfa: $rbp 16 +
STACK CFI 140fd .cfa: $rsp 8 +
STACK CFI INIT 140fe 8c .cfa: $rsp 8 + .ra: .cfa -8 + ^
STACK CFI 140ff $rbp: .cfa -16 + ^ .cfa: $rsp 16 +
STACK CFI 14102 .cfa: $rbp 16 +
STACK CFI 14114 $r12: .cfa -24 + ^ $rbx: .cfa -32 + ^
STACK CFI 14189 .cfa: $rsp 8 +
STACK CFI INIT 1418a a .cfa: $rsp 8 + .ra: .cfa -8 + ^
STACK CFI 1418b $rbp: .cfa -16 + ^ .cfa: $rsp 16 +
STACK CFI 1418e .cfa: $rbp 16 +
STACK CFI 14193 .cfa: $rsp 8 +
STACK CFI INIT 14194 12 .cfa: $rsp 8 + .ra: .cfa -8 + ^
STACK CFI 14195 $rbp: .cfa -16 + ^ .cfa: $rsp 16 +
STACK CFI 14198 .cfa: $rbp 16 +
STACK CFI 141a5 .cfa: $rsp 8 +
STACK CFI INIT 141a6 12 .cfa: $rsp 8 + .ra: .cfa -8 + ^
STACK CFI 141a7 $rbp: .cfa -16 + ^ .cfa: $rsp 16 +
STACK CFI 141aa .cfa: $rbp 16 +
STACK CFI 141b7 .cfa: $rsp 8 +
STACK CFI INIT 141b8 86 .cfa: $rsp 8 + .ra: .cfa -8 + ^
STACK CFI 141b9 $rbp: .cfa -16 + ^ .cfa: $rsp 16 +
STACK CFI 141bc .cfa: $rbp 16 +
STACK CFI 141d3 $r12: .cfa -24 + ^ $rbx: .cfa -32 + ^
STACK CFI 1423d .cfa: $rsp 8 +
STACK CFI INIT 1423e 12 .cfa: $rsp 8 + .ra: .cfa -8 + ^
STACK CFI 1423f $rbp: .cfa -16 + ^ .cfa: $rsp 16 +
STACK CFI 14242 .cfa: $rbp 16 +
STACK CFI 1424f .cfa: $rsp 8 +
STACK CFI INIT 14250 12 .cfa: $rsp 8 + .ra: .cfa -8 + ^
STACK CFI 14251 $rbp: .cfa -16 + ^ .cfa: $rsp 16 +
STACK CFI 14254 .cfa: $rbp 16 +
STACK CFI 14261 .cfa: $rsp 8 +
STACK CFI INIT 14262 12 .cfa: $rsp 8 + .ra: .cfa -8 + ^
STACK CFI 14263 $rbp: .cfa -16 + ^ .cfa: $rsp 16 +
STACK CFI 14266 .cfa: $rbp 16 +
STACK CFI 14273 .cfa: $rsp 8 +
STACK CFI INIT 14274 12 .cfa: $rsp 8 + .ra: .cfa -8 + ^
STACK CFI 14275 $rbp: .cfa -16 + ^ .cfa: $rsp 16 +
STACK CFI 14278 .cfa: $rbp 16 +
STACK CFI 14285 .cfa: $rsp 8 +
STACK CFI INIT 14286 53 .cfa: $rsp 8 + .ra: .cfa -8 + ^
STACK CFI 14287 $rbp: .cfa -16 + ^ .cfa: $rsp 16 +
STACK CFI 1428a .cfa: $rbp 16 +
STACK CFI 142a0 $r12: .cfa -24 + ^ $rbx: .cfa -32 + ^
STACK CFI 142d8 .cfa: $rsp 8 +
STACK CFI INIT 142da a .cfa: $rsp 8 + .ra: .cfa -8 + ^
STACK CFI 142db $rbp: .cfa -16 + ^ .cfa: $rsp 16 +
STACK CFI 142de .cfa: $rbp 16 +
STACK CFI 142e3 .cfa: $rsp 8 +
STACK CFI INIT 142e4 2c .cfa: $rsp 8 + .ra: .cfa -8 + ^
STACK CFI 142e5 $rbp: .cfa -16 + ^ .cfa: $rsp 16 +
STACK CFI 142e8 .cfa: $rbp 16 +
STACK CFI 1430f .cfa: $rsp 8 +
STACK CFI INIT 14310 1c .cfa: $rsp 8 + .ra: .cfa -8 + ^
STACK CFI 14311 $rbp: .cfa -16 + ^ .cfa: $rsp 16 +
STACK CFI 14314 .cfa: $rbp 16 +
STACK CFI 1432b .cfa: $rsp 8 +
STACK CFI INIT 1432c 4c0 .cfa: $rsp 8 + .ra: .cfa -8 + ^
STACK CFI 1432d $rbp: .cfa -16 + ^ .cfa: $rsp 16 +
STACK CFI 14330 .cfa: $rbp 16 +
STACK CFI 14356 $r12: .cfa -24 + ^ $rbx: .cfa -32 + ^
STACK CFI 147eb .cfa: $rsp 8 +
STACK CFI INIT 147ec 1a .cfa: $rsp 8 + .ra: .cfa -8 + ^
STACK CFI 147ed $rbp: .cfa -16 + ^ .cfa: $rsp 16 +
STACK CFI 147f0 .cfa: $rbp 16 +
STACK CFI 14805 .cfa: $rsp 8 +
STACK CFI INIT 14806 41 .cfa: $rsp 8 + .ra: .cfa -8 + ^
STACK CFI 14807 $rbp: .cfa -16 + ^ .cfa: $rsp 16 +
STACK CFI 1480a .cfa: $rbp 16 +
STACK CFI 14846 .cfa: $rsp 8 +
STACK CFI INIT 14848 3b .cfa: $rsp 8 + .ra: .cfa -8 + ^
STACK CFI 14849 $rbp: .cfa -16 + ^ .cfa: $rsp 16 +
STACK CFI 1484c .cfa: $rbp 16 +
STACK CFI 14856 $r12: .cfa -24 + ^ $rbx: .cfa -32 + ^
STACK CFI 14882 .cfa: $rsp 8 +
STACK CFI INIT 14884 1a .cfa: $rsp 8 + .ra: .cfa -8 + ^
STACK CFI 14885 $rbp: .cfa -16 + ^ .cfa: $rsp 16 +
STACK CFI 14888 .cfa: $rbp 16 +
STACK CFI 1489d .cfa: $rsp 8 +
STACK CFI INIT 1489e 1e .cfa: $rsp 8 + .ra: .cfa -8 + ^
STACK CFI 1489f $rbp: .cfa -16 + ^ .cfa: $rsp 16 +
STACK CFI 148a2 .cfa: $rbp 16 +
STACK CFI 148bb .cfa: $rsp 8 +
STACK CFI INIT 148bc 2a .cfa: $rsp 8 + .ra: .cfa -8 + ^
STACK CFI 148bd $rbp: .cfa -16 + ^ .cfa: $rsp 16 +
STACK CFI 148c0 .cfa: $rbp 16 +
STACK CFI 148e5 .cfa: $rsp 8 +
STACK CFI INIT 148e6 92 .cfa: $rsp 8 + .ra: .cfa -8 + ^
STACK CFI 148e7 $rbp: .cfa -16 + ^ .cfa: $rsp 16 +
STACK CFI 148ea .cfa: $rbp 16 +
STACK CFI 14977 .cfa: $rsp 8 +
STACK CFI INIT 14978 19 .cfa: $rsp 8 + .ra: .cfa -8 + ^
STACK CFI 14979 $rbp: .cfa -16 + ^ .cfa: $rsp 16 +
STACK CFI 1497c .cfa: $rbp 16 +
STACK CFI 14990 .cfa: $rsp 8 +
STACK CFI INIT 14991 2c .cfa: $rsp 8 + .ra: .cfa -8 + ^
STACK CFI 14992 $rbp: .cfa -16 + ^ .cfa: $rsp 16 +
STACK CFI 14995 .cfa: $rbp 16 +
STACK CFI 149bc .cfa: $rsp 8 +
STACK CFI INIT 149be 12 .cfa: $rsp 8 + .ra: .cfa -8 + ^
STACK CFI 149bf $rbp: .cfa -16 + ^ .cfa: $rsp 16 +
STACK CFI 149c2 .cfa: $rbp 16 +
STACK CFI 149cf .cfa: $rsp 8 +
STACK CFI INIT 149d0 12 .cfa: $rsp 8 + .ra: .cfa -8 + ^
STACK CFI 149d1 $rbp: .cfa -16 + ^ .cfa: $rsp 16 +
STACK CFI 149d4 .cfa: $rbp 16 +
STACK CFI 149e1 .cfa: $rsp 8 +
STACK CFI INIT 149e2 e3 .cfa: $rsp 8 + .ra: .cfa -8 + ^
STACK CFI 149e3 $rbp: .cfa -16 + ^ .cfa: $rsp 16 +
STACK CFI 149e6 .cfa: $rbp 16 +
STACK CFI 14a02 $rbx: .cfa -24 + ^
STACK CFI 14ac4 .cfa: $rsp 8 +
STACK CFI INIT 14ac6 271 .cfa: $rsp 8 + .ra: .cfa -8 + ^
STACK CFI 14ac7 $rbp: .cfa -16 + ^ .cfa: $rsp 16 +
STACK CFI 14aca .cfa: $rbp 16 +
STACK CFI 14aea $rbx: .cfa -24 + ^
STACK CFI 14d36 .cfa: $rsp 8 +
STACK CFI INIT 14d38 28 .cfa: $rsp 8 + .ra: .cfa -8 + ^
STACK CFI 14d39 $rbp: .cfa -16 + ^ .cfa: $rsp 16 +
STACK CFI 14d3c .cfa: $rbp 16 +
STACK CFI 14d5f .cfa: $rsp 8 +
STACK CFI INIT 14d60 12 .cfa: $rsp 8 + .ra: .cfa -8 + ^
STACK CFI 14d61 $rbp: .cfa -16 + ^ .cfa: $rsp 16 +
STACK CFI 14d64 .cfa: $rbp 16 +
STACK CFI 14d71 .cfa: $rsp 8 +
STACK CFI INIT 14d72 28 .cfa: $rsp 8 + .ra: .cfa -8 + ^
STACK CFI 14d73 $rbp: .cfa -16 + ^ .cfa: $rsp 16 +
STACK CFI 14d76 .cfa: $rbp 16 +
STACK CFI 14d99 .cfa: $rsp 8 +
STACK CFI INIT 14d9a a .cfa: $rsp 8 + .ra: .cfa -8 + ^
STACK CFI 14d9b $rbp: .cfa -16 + ^ .cfa: $rsp 16 +
STACK CFI 14d9e .cfa: $rbp 16 +
STACK CFI 14da3 .cfa: $rsp 8 +
STACK CFI INIT 14da4 e .cfa: $rsp 8 + .ra: .cfa -8 + ^
STACK CFI 14da5 $rbp: .cfa -16 + ^ .cfa: $rsp 16 +
STACK CFI 14da8 .cfa: $rbp 16 +
STACK CFI 14db1 .cfa: $rsp 8 +
STACK CFI INIT 14db2 1e .cfa: $rsp 8 + .ra: .cfa -8 + ^
STACK CFI 14db3 $rbp: .cfa -16 + ^ .cfa: $rsp 16 +
STACK CFI 14db6 .cfa: $rbp 16 +
STACK CFI 14dcf .cfa: $rsp 8 +
STACK CFI INIT 14dd0 a .cfa: $rsp 8 + .ra: .cfa -8 + ^
STACK CFI 14dd1 $rbp: .cfa -16 + ^ .cfa: $rsp 16 +
STACK CFI 14dd4 .cfa: $rbp 16 +
STACK CFI 14dd9 .cfa: $rsp 8 +
STACK CFI INIT 14dda 22 .cfa: $rsp 8 + .ra: .cfa -8 + ^
STACK CFI 14ddb $rbp: .cfa -16 + ^ .cfa: $rsp 16 +
STACK CFI 14dde .cfa: $rbp 16 +
STACK CFI 14dfb .cfa: $rsp 8 +
STACK CFI INIT 14dfc 2c .cfa: $rsp 8 + .ra: .cfa -8 + ^
STACK CFI 14dfd $rbp: .cfa -16 + ^ .cfa: $rsp 16 +
STACK CFI 14e00 .cfa: $rbp 16 +
STACK CFI 14e27 .cfa: $rsp 8 +
STACK CFI INIT 14e28 12 .cfa: $rsp 8 + .ra: .cfa -8 + ^
STACK CFI 14e29 $rbp: .cfa -16 + ^ .cfa: $rsp 16 +
STACK CFI 14e2c .cfa: $rbp 16 +
STACK CFI 14e39 .cfa: $rsp 8 +
STACK CFI INIT 14e3a bd .cfa: $rsp 8 + .ra: .cfa -8 + ^
STACK CFI 14e3b $rbp: .cfa -16 + ^ .cfa: $rsp 16 +
STACK CFI 14e3e .cfa: $rbp 16 +
STACK CFI 14e54 $r12: .cfa -24 + ^ $rbx: .cfa -32 + ^
STACK CFI 14ebe .cfa: $rsp 8 +
STACK CFI 14ebf .cfa: $rbp 16 +
STACK CFI INIT 14ef8 2c .cfa: $rsp 8 + .ra: .cfa -8 + ^
STACK CFI 14ef9 $rbp: .cfa -16 + ^ .cfa: $rsp 16 +
STACK CFI 14efc .cfa: $rbp 16 +
STACK CFI 14f23 .cfa: $rsp 8 +
STACK CFI INIT 14f24 2e .cfa: $rsp 8 + .ra: .cfa -8 + ^
STACK CFI 14f25 $rbp: .cfa -16 + ^ .cfa: $rsp 16 +
STACK CFI 14f28 .cfa: $rbp 16 +
STACK CFI 14f51 .cfa: $rsp 8 +
STACK CFI INIT 14f52 28 .cfa: $rsp 8 + .ra: .cfa -8 + ^
STACK CFI 14f53 $rbp: .cfa -16 + ^ .cfa: $rsp 16 +
STACK CFI 14f56 .cfa: $rbp 16 +
STACK CFI 14f79 .cfa: $rsp 8 +
STACK CFI INIT 14f7a a .cfa: $rsp 8 + .ra: .cfa -8 + ^
STACK CFI 14f7b $rbp: .cfa -16 + ^ .cfa: $rsp 16 +
STACK CFI 14f7e .cfa: $rbp 16 +
STACK CFI 14f83 .cfa: $rsp 8 +
STACK CFI INIT 14f84 12 .cfa: $rsp 8 + .ra: .cfa -8 + ^
STACK CFI 14f85 $rbp: .cfa -16 + ^ .cfa: $rsp 16 +
STACK CFI 14f88 .cfa: $rbp 16 +
STACK CFI 14f95 .cfa: $rsp 8 +
STACK CFI INIT 14f96 24 .cfa: $rsp 8 + .ra: .cfa -8 + ^
STACK CFI 14f97 $rbp: .cfa -16 + ^ .cfa: $rsp 16 +
STACK CFI 14f9a .cfa: $rbp 16 +
STACK CFI 14fb9 .cfa: $rsp 8 +
STACK CFI INIT 14fba 33 .cfa: $rsp 8 + .ra: .cfa -8 + ^
STACK CFI 14fbb $rbp: .cfa -16 + ^ .cfa: $rsp 16 +
STACK CFI 14fbe .cfa: $rbp 16 +
STACK CFI 14fec .cfa: $rsp 8 +
STACK CFI INIT 14fee 77 .cfa: $rsp 8 + .ra: .cfa -8 + ^
STACK CFI 14fef $rbp: .cfa -16 + ^ .cfa: $rsp 16 +
STACK CFI 14ff2 .cfa: $rbp 16 +
STACK CFI 1500d $r12: .cfa -40 + ^ $r13: .cfa -32 + ^ $r14: .cfa -24 + ^ $rbx: .cfa -48 + ^
STACK CFI 15064 .cfa: $rsp 8 +
STACK CFI INIT 15066 54 .cfa: $rsp 8 + .ra: .cfa -8 + ^
STACK CFI 15067 $rbp: .cfa -16 + ^ .cfa: $rsp 16 +
STACK CFI 1506a .cfa: $rbp 16 +
STACK CFI 150b9 .cfa: $rsp 8 +
STACK CFI INIT 150ba 14 .cfa: $rsp 8 + .ra: .cfa -8 + ^
STACK CFI 150bb $rbp: .cfa -16 + ^ .cfa: $rsp 16 +
STACK CFI 150be .cfa: $rbp 16 +
STACK CFI 150cd .cfa: $rsp 8 +
STACK CFI INIT 13a8e 77 .cfa: $rsp 8 + .ra: .cfa -8 + ^
STACK CFI 13a8f $rbp: .cfa -16 + ^ .cfa: $rsp 16 +
STACK CFI 13a92 .cfa: $rbp 16 +
STACK CFI 13b04 .cfa: $rsp 8 +
STACK CFI INIT 13b05 15 .cfa: $rsp 8 + .ra: .cfa -8 + ^
STACK CFI 13b06 $rbp: .cfa -16 + ^ .cfa: $rsp 16 +
STACK CFI 13b09 .cfa: $rbp 16 +
STACK CFI 13b19 .cfa: $rsp 8 +
STACK CFI INIT 15896 12 .cfa: $rsp 8 + .ra: .cfa -8 + ^
STACK CFI 15897 $rbp: .cfa -16 + ^ .cfa: $rsp 16 +
STACK CFI 1589a .cfa: $rbp 16 +
STACK CFI 158a7 .cfa: $rsp 8 +
STACK CFI INIT 158a8 36 .cfa: $rsp 8 + .ra: .cfa -8 + ^
STACK CFI 158a9 $rbp: .cfa -16 + ^ .cfa: $rsp 16 +
STACK CFI 158ac .cfa: $rbp 16 +
STACK CFI 158b4 $rbx: .cfa -24 + ^
STACK CFI 158dd .cfa: $rsp 8 +
STACK CFI INIT 158de 15 .cfa: $rsp 8 + .ra: .cfa -8 + ^
STACK CFI 158df $rbp: .cfa -16 + ^ .cfa: $rsp 16 +
STACK CFI 158e2 .cfa: $rbp 16 +
STACK CFI 158f2 .cfa: $rsp 8 +
STACK CFI INIT 158f4 36 .cfa: $rsp 8 + .ra: .cfa -8 + ^
STACK CFI 158f5 $rbp: .cfa -16 + ^ .cfa: $rsp 16 +
STACK CFI 158f8 .cfa: $rbp 16 +
STACK CFI 15900 $rbx: .cfa -24 + ^
STACK CFI 15929 .cfa: $rsp 8 +
STACK CFI INIT 1592a 36 .cfa: $rsp 8 + .ra: .cfa -8 + ^
STACK CFI 1592b $rbp: .cfa -16 + ^ .cfa: $rsp 16 +
STACK CFI 1592e .cfa: $rbp 16 +
STACK CFI 15936 $rbx: .cfa -24 + ^
STACK CFI 1595f .cfa: $rsp 8 +
STACK CFI INIT 15960 36 .cfa: $rsp 8 + .ra: .cfa -8 + ^
STACK CFI 15961 $rbp: .cfa -16 + ^ .cfa: $rsp 16 +
STACK CFI 15964 .cfa: $rbp 16 +
STACK CFI 1596c $rbx: .cfa -24 + ^
STACK CFI 15995 .cfa: $rsp 8 +
STACK CFI INIT 15996 14 .cfa: $rsp 8 + .ra: .cfa -8 + ^
STACK CFI 15997 $rbp: .cfa -16 + ^ .cfa: $rsp 16 +
STACK CFI 1599a .cfa: $rbp 16 +
STACK CFI 159a9 .cfa: $rsp 8 +
STACK CFI INIT 159aa 14 .cfa: $rsp 8 + .ra: .cfa -8 + ^
STACK CFI 159ab $rbp: .cfa -16 + ^ .cfa: $rsp 16 +
STACK CFI 159ae .cfa: $rbp 16 +
STACK CFI 159bd .cfa: $rsp 8 +
STACK CFI INIT 150d0 28 .cfa: $rsp 8 + .ra: .cfa -8 + ^
STACK CFI 150d1 $rbp: .cfa -16 + ^ .cfa: $rsp 16 +
STACK CFI 150d4 .cfa: $rbp 16 +
STACK CFI 150f7 .cfa: $rsp 8 +
STACK CFI INIT 150f8 61 .cfa: $rsp 8 + .ra: .cfa -8 + ^
STACK CFI 150f9 $rbp: .cfa -16 + ^ .cfa: $rsp 16 +
STACK CFI 150fc .cfa: $rbp 16 +
STACK CFI 15158 .cfa: $rsp 8 +
STACK CFI INIT 1515a 26 .cfa: $rsp 8 + .ra: .cfa -8 + ^
STACK CFI 1515b $rbp: .cfa -16 + ^ .cfa: $rsp 16 +
STACK CFI 1515e .cfa: $rbp 16 +
STACK CFI 1517f .cfa: $rsp 8 +
STACK CFI INIT 15180 58a .cfa: $rsp 8 + .ra: .cfa -8 + ^
STACK CFI 15181 $rbp: .cfa -16 + ^ .cfa: $rsp 16 +
STACK CFI 15184 .cfa: $rbp 16 +
STACK CFI 1519f $r12: .cfa -48 + ^ $r13: .cfa -40 + ^ $r14: .cfa -32 + ^ $r15: .cfa -24 + ^ $rbx: .cfa -56 + ^
STACK CFI 15709 .cfa: $rsp 8 +
STACK CFI INIT 1570a 2d .cfa: $rsp 8 + .ra: .cfa -8 + ^
STACK CFI 1570b $rbp: .cfa -16 + ^ .cfa: $rsp 16 +
STACK CFI 1570e .cfa: $rbp 16 +
STACK CFI 15736 .cfa: $rsp 8 +
STACK CFI INIT 15738 1b .cfa: $rsp 8 + .ra: .cfa -8 + ^
STACK CFI 15739 $rbp: .cfa -16 + ^ .cfa: $rsp 16 +
STACK CFI 1573c .cfa: $rbp 16 +
STACK CFI 15752 .cfa: $rsp 8 +
STACK CFI INIT 15754 62 .cfa: $rsp 8 + .ra: .cfa -8 + ^
STACK CFI 15755 $rbp: .cfa -16 + ^ .cfa: $rsp 16 +
STACK CFI 15758 .cfa: $rbp 16 +
STACK CFI 15762 $r12: .cfa -24 + ^ $rbx: .cfa -32 + ^
STACK CFI INIT 157b6 ca .cfa: $rsp 8 + .ra: .cfa -8 + ^
STACK CFI 157b7 $rbp: .cfa -16 + ^ .cfa: $rsp 16 +
STACK CFI 157ba .cfa: $rbp 16 +
STACK CFI 157d1 $r12: .cfa -24 + ^ $rbx: .cfa -32 + ^
STACK CFI 1587f .cfa: $rsp 8 +
STACK CFI INIT 15880 15 .cfa: $rsp 8 + .ra: .cfa -8 + ^
STACK CFI 15881 $rbp: .cfa -16 + ^ .cfa: $rsp 16 +
STACK CFI 15884 .cfa: $rbp 16 +
STACK CFI 15894 .cfa: $rsp 8 +
STACK CFI INIT 159c0 27 .cfa: $rsp 8 + .ra: .cfa -8 + ^
STACK CFI 159c1 $rbp: .cfa -16 + ^ .cfa: $rsp 16 +
STACK CFI 159c4 .cfa: $rbp 16 +
STACK CFI 159e6 .cfa: $rsp 8 +
STACK CFI INIT 159e8 35 .cfa: $rsp 8 + .ra: .cfa -8 + ^
STACK CFI 159e9 $rbp: .cfa -16 + ^ .cfa: $rsp 16 +
STACK CFI 159ec .cfa: $rbp 16 +
STACK CFI 15a1c .cfa: $rsp 8 +
STACK CFI INIT 15a1e 26 .cfa: $rsp 8 + .ra: .cfa -8 + ^
STACK CFI 15a1f $rbp: .cfa -16 + ^ .cfa: $rsp 16 +
STACK CFI 15a22 .cfa: $rbp 16 +
STACK CFI 15a43 .cfa: $rsp 8 +
STACK CFI INIT 17f46 35 .cfa: $rsp 8 + .ra: .cfa -8 + ^
STACK CFI 17f47 $rbp: .cfa -16 + ^ .cfa: $rsp 16 +
STACK CFI 17f4a .cfa: $rbp 16 +
STACK CFI 17f7a .cfa: $rsp 8 +
STACK CFI INIT 17f7c 26 .cfa: $rsp 8 + .ra: .cfa -8 + ^
STACK CFI 17f7d $rbp: .cfa -16 + ^ .cfa: $rsp 16 +
STACK CFI 17f80 .cfa: $rbp 16 +
STACK CFI 17fa1 .cfa: $rsp 8 +
STACK CFI INIT 17fa2 12 .cfa: $rsp 8 + .ra: .cfa -8 + ^
STACK CFI 17fa3 $rbp: .cfa -16 + ^ .cfa: $rsp 16 +
STACK CFI 17fa6 .cfa: $rbp 16 +
STACK CFI 17fb3 .cfa: $rsp 8 +
STACK CFI INIT 17fb4 12c .cfa: $rsp 8 + .ra: .cfa -8 + ^
STACK CFI 17fb5 $rbp: .cfa -16 + ^ .cfa: $rsp 16 +
STACK CFI 17fb8 .cfa: $rbp 16 +
STACK CFI 180df .cfa: $rsp 8 +
STACK CFI INIT 15a44 13d .cfa: $rsp 8 + .ra: .cfa -8 + ^
STACK CFI 15a45 $rbp: .cfa -16 + ^ .cfa: $rsp 16 +
STACK CFI 15a48 .cfa: $rbp 16 +
STACK CFI 15a60 $rbx: .cfa -24 + ^
STACK CFI 15b80 .cfa: $rsp 8 +
STACK CFI INIT 15b81 23e .cfa: $rsp 8 + .ra: .cfa -8 + ^
STACK CFI 15b82 $rbp: .cfa -16 + ^ .cfa: $rsp 16 +
STACK CFI 15b85 .cfa: $rbp 16 +
STACK CFI 15ba3 $rbx: .cfa -24 + ^
STACK CFI 15dbe .cfa: $rsp 8 +
STACK CFI INIT 15dbf 31 .cfa: $rsp 8 + .ra: .cfa -8 + ^
STACK CFI 15dc0 $rbp: .cfa -16 + ^ .cfa: $rsp 16 +
STACK CFI 15dc3 .cfa: $rbp 16 +
STACK CFI 15def .cfa: $rsp 8 +
STACK CFI INIT 15df0 c8 .cfa: $rsp 8 + .ra: .cfa -8 + ^
STACK CFI 15df1 $rbp: .cfa -16 + ^ .cfa: $rsp 16 +
STACK CFI 15df4 .cfa: $rbp 16 +
STACK CFI 15dfe $r12: .cfa -24 + ^ $rbx: .cfa -32 + ^
STACK CFI 15eb7 .cfa: $rsp 8 +
STACK CFI INIT 15eb8 c8 .cfa: $rsp 8 + .ra: .cfa -8 + ^
STACK CFI 15eb9 $rbp: .cfa -16 + ^ .cfa: $rsp 16 +
STACK CFI 15ebc .cfa: $rbp 16 +
STACK CFI 15ec6 $r12: .cfa -24 + ^ $rbx: .cfa -32 + ^
STACK CFI 15f7f .cfa: $rsp 8 +
STACK CFI INIT 180e0 1c .cfa: $rsp 8 + .ra: .cfa -8 + ^
STACK CFI 180e1 $rbp: .cfa -16 + ^ .cfa: $rsp 16 +
STACK CFI 180e4 .cfa: $rbp 16 +
STACK CFI 180fb .cfa: $rsp 8 +
STACK CFI INIT 15f80 2a1 .cfa: $rsp 8 + .ra: .cfa -8 + ^
STACK CFI 15f81 $rbp: .cfa -16 + ^ .cfa: $rsp 16 +
STACK CFI 15f84 .cfa: $rbp 16 +
STACK CFI 15fa1 $r12: .cfa -24 + ^ $rbx: .cfa -32 + ^
STACK CFI 16220 .cfa: $rsp 8 +
STACK CFI INIT 16222 138 .cfa: $rsp 8 + .ra: .cfa -8 + ^
STACK CFI 16223 $rbp: .cfa -16 + ^ .cfa: $rsp 16 +
STACK CFI 16226 .cfa: $rbp 16 +
STACK CFI 1624e $r12: .cfa -24 + ^ $rbx: .cfa -32 + ^
STACK CFI 16359 .cfa: $rsp 8 +
STACK CFI INIT 1635a 26 .cfa: $rsp 8 + .ra: .cfa -8 + ^
STACK CFI 1635b $rbp: .cfa -16 + ^ .cfa: $rsp 16 +
STACK CFI 1635e .cfa: $rbp 16 +
STACK CFI 1637f .cfa: $rsp 8 +
STACK CFI INIT 16380 124 .cfa: $rsp 8 + .ra: .cfa -8 + ^
STACK CFI 16381 $rbp: .cfa -16 + ^ .cfa: $rsp 16 +
STACK CFI 16384 .cfa: $rbp 16 +
STACK CFI 163a5 $r12: .cfa -24 + ^ $rbx: .cfa -32 + ^
STACK CFI 164a3 .cfa: $rsp 8 +
STACK CFI INIT 164a4 20c .cfa: $rsp 8 + .ra: .cfa -8 + ^
STACK CFI 164a5 $rbp: .cfa -16 + ^ .cfa: $rsp 16 +
STACK CFI 164a8 .cfa: $rbp 16 +
STACK CFI 1652c $r12: .cfa -24 + ^ $rbx: .cfa -32 + ^
STACK CFI 166af .cfa: $rsp 8 +
STACK CFI INIT 166b0 125 .cfa: $rsp 8 + .ra: .cfa -8 + ^
STACK CFI 166b1 $rbp: .cfa -16 + ^ .cfa: $rsp 16 +
STACK CFI 166b4 .cfa: $rbp 16 +
STACK CFI 166d6 $r12: .cfa -24 + ^ $rbx: .cfa -32 + ^
STACK CFI 167d4 .cfa: $rsp 8 +
STACK CFI INIT 167d6 20d .cfa: $rsp 8 + .ra: .cfa -8 + ^
STACK CFI 167d7 $rbp: .cfa -16 + ^ .cfa: $rsp 16 +
STACK CFI 167da .cfa: $rbp 16 +
STACK CFI 1685f $r12: .cfa -24 + ^ $rbx: .cfa -32 + ^
STACK CFI 169e2 .cfa: $rsp 8 +
STACK CFI INIT 169e4 125 .cfa: $rsp 8 + .ra: .cfa -8 + ^
STACK CFI 169e5 $rbp: .cfa -16 + ^ .cfa: $rsp 16 +
STACK CFI 169e8 .cfa: $rbp 16 +
STACK CFI 16a0a $r12: .cfa -24 + ^ $rbx: .cfa -32 + ^
STACK CFI 16b08 .cfa: $rsp 8 +
STACK CFI INIT 16b0a 20d .cfa: $rsp 8 + .ra: .cfa -8 + ^
STACK CFI 16b0b $rbp: .cfa -16 + ^ .cfa: $rsp 16 +
STACK CFI 16b0e .cfa: $rbp 16 +
STACK CFI 16b93 $r12: .cfa -24 + ^ $rbx: .cfa -32 + ^
STACK CFI 16d16 .cfa: $rsp 8 +
STACK CFI INIT 16d18 125 .cfa: $rsp 8 + .ra: .cfa -8 + ^
STACK CFI 16d19 $rbp: .cfa -16 + ^ .cfa: $rsp 16 +
STACK CFI 16d1c .cfa: $rbp 16 +
STACK CFI 16d3e $r12: .cfa -24 + ^ $rbx: .cfa -32 + ^
STACK CFI 16e3c .cfa: $rsp 8 +
STACK CFI INIT 16e3e 20d .cfa: $rsp 8 + .ra: .cfa -8 + ^
STACK CFI 16e3f $rbp: .cfa -16 + ^ .cfa: $rsp 16 +
STACK CFI 16e42 .cfa: $rbp 16 +
STACK CFI 16ec7 $r12: .cfa -24 + ^ $rbx: .cfa -32 + ^
STACK CFI 1704a .cfa: $rsp 8 +
STACK CFI INIT 1704c 125 .cfa: $rsp 8 + .ra: .cfa -8 + ^
STACK CFI 1704d $rbp: .cfa -16 + ^ .cfa: $rsp 16 +
STACK CFI 17050 .cfa: $rbp 16 +
STACK CFI 17072 $r12: .cfa -24 + ^ $rbx: .cfa -32 + ^
STACK CFI 17170 .cfa: $rsp 8 +
STACK CFI INIT 17172 20d .cfa: $rsp 8 + .ra: .cfa -8 + ^
STACK CFI 17173 $rbp: .cfa -16 + ^ .cfa: $rsp 16 +
STACK CFI 17176 .cfa: $rbp 16 +
STACK CFI 171fb $r12: .cfa -24 + ^ $rbx: .cfa -32 + ^
STACK CFI 1737e .cfa: $rsp 8 +
STACK CFI INIT 17380 bc .cfa: $rsp 8 + .ra: .cfa -8 + ^
STACK CFI 17381 $rbp: .cfa -16 + ^ .cfa: $rsp 16 +
STACK CFI 17384 .cfa: $rbp 16 +
STACK CFI 1739f $r12: .cfa -32 + ^ $r13: .cfa -24 + ^ $rbx: .cfa -40 + ^
STACK CFI 1743b .cfa: $rsp 8 +
STACK CFI INIT 1743c 164 .cfa: $rsp 8 + .ra: .cfa -8 + ^
STACK CFI 1743d $rbp: .cfa -16 + ^ .cfa: $rsp 16 +
STACK CFI 17440 .cfa: $rbp 16 +
STACK CFI 1746b $r12: .cfa -32 + ^ $r13: .cfa -24 + ^ $rbx: .cfa -40 + ^
STACK CFI 1759f .cfa: $rsp 8 +
STACK CFI INIT 175a0 24a .cfa: $rsp 8 + .ra: .cfa -8 + ^
STACK CFI 175a1 $rbp: .cfa -16 + ^ .cfa: $rsp 16 +
STACK CFI 175a4 .cfa: $rbp 16 +
STACK CFI 1762f $r12: .cfa -24 + ^ $rbx: .cfa -32 + ^
STACK CFI 177e9 .cfa: $rsp 8 +
STACK CFI INIT 177ea 266 .cfa: $rsp 8 + .ra: .cfa -8 + ^
STACK CFI 177eb $rbp: .cfa -16 + ^ .cfa: $rsp 16 +
STACK CFI 177ee .cfa: $rbp 16 +
STACK CFI 17820 $r12: .cfa -32 + ^ $r13: .cfa -24 + ^ $rbx: .cfa -40 + ^
STACK CFI 17a4f .cfa: $rsp 8 +
STACK CFI INIT 17a50 b .cfa: $rsp 8 + .ra: .cfa -8 + ^
STACK CFI 17a51 $rbp: .cfa -16 + ^ .cfa: $rsp 16 +
STACK CFI 17a54 .cfa: $rbp 16 +
STACK CFI 17a5a .cfa: $rsp 8 +
STACK CFI INIT 17a5c 354 .cfa: $rsp 8 + .ra: .cfa -8 + ^
STACK CFI 17a5d $rbp: .cfa -16 + ^ .cfa: $rsp 16 +
STACK CFI 17a60 .cfa: $rbp 16 +
STACK CFI 17aea $r12: .cfa -24 + ^ $rbx: .cfa -32 + ^
STACK CFI 17daf .cfa: $rsp 8 +
STACK CFI INIT 17db0 85 .cfa: $rsp 8 + .ra: .cfa -8 + ^
STACK CFI 17db1 $rbp: .cfa -16 + ^ .cfa: $rsp 16 +
STACK CFI 17db4 .cfa: $rbp 16 +
STACK CFI 17dd9 $rbx: .cfa -24 + ^
STACK CFI 17e34 .cfa: $rsp 8 +
STACK CFI INIT 17e36 86 .cfa: $rsp 8 + .ra: .cfa -8 + ^
STACK CFI 17e37 $rbp: .cfa -16 + ^ .cfa: $rsp 16 +
STACK CFI 17e3a .cfa: $rbp 16 +
STACK CFI 17ebb .cfa: $rsp 8 +
STACK CFI INIT 17ebc 26 .cfa: $rsp 8 + .ra: .cfa -8 + ^
STACK CFI 17ebd $rbp: .cfa -16 + ^ .cfa: $rsp 16 +
STACK CFI 17ec0 .cfa: $rbp 16 +
STACK CFI 17ee1 .cfa: $rsp 8 +
STACK CFI INIT 17ee2 4e .cfa: $rsp 8 + .ra: .cfa -8 + ^
STACK CFI 17ee3 $rbp: .cfa -16 + ^ .cfa: $rsp 16 +
STACK CFI 17ee6 .cfa: $rbp 16 +
STACK CFI 17f2f .cfa: $rsp 8 +
STACK CFI INIT 17f30 15 .cfa: $rsp 8 + .ra: .cfa -8 + ^
STACK CFI 17f31 $rbp: .cfa -16 + ^ .cfa: $rsp 16 +
STACK CFI 17f34 .cfa: $rbp 16 +
STACK CFI 17f44 .cfa: $rsp 8 +
STACK CFI INIT 18b58 14 .cfa: $rsp 8 + .ra: .cfa -8 + ^
STACK CFI 18b59 $rbp: .cfa -16 + ^ .cfa: $rsp 16 +
STACK CFI 18b5c .cfa: $rbp 16 +
STACK CFI 18b6b .cfa: $rsp 8 +
STACK CFI INIT 18b6c 15 .cfa: $rsp 8 + .ra: .cfa -8 + ^
STACK CFI 18b6d $rbp: .cfa -16 + ^ .cfa: $rsp 16 +
STACK CFI 18b70 .cfa: $rbp 16 +
STACK CFI 18b80 .cfa: $rsp 8 +
STACK CFI INIT 180fc eb .cfa: $rsp 8 + .ra: .cfa -8 + ^
STACK CFI 180fd $rbp: .cfa -16 + ^ .cfa: $rsp 16 +
STACK CFI 18100 .cfa: $rbp 16 +
STACK CFI 18130 $r12: .cfa -24 + ^ $rbx: .cfa -32 + ^
STACK CFI 181e6 .cfa: $rsp 8 +
STACK CFI INIT 181e8 80 .cfa: $rsp 8 + .ra: .cfa -8 + ^
STACK CFI 181e9 $rbp: .cfa -16 + ^ .cfa: $rsp 16 +
STACK CFI 181ec .cfa: $rbp 16 +
STACK CFI 18210 $r12: .cfa -24 + ^ $rbx: .cfa -32 + ^
STACK CFI 18267 .cfa: $rsp 8 +
STACK CFI INIT 18268 26 .cfa: $rsp 8 + .ra: .cfa -8 + ^
STACK CFI 18269 $rbp: .cfa -16 + ^ .cfa: $rsp 16 +
STACK CFI 1826c .cfa: $rbp 16 +
STACK CFI 1828d .cfa: $rsp 8 +
STACK CFI INIT 1828e 74 .cfa: $rsp 8 + .ra: .cfa -8 + ^
STACK CFI 1828f $rbp: .cfa -16 + ^ .cfa: $rsp 16 +
STACK CFI 18292 .cfa: $rbp 16 +
STACK CFI 182aa $r12: .cfa -32 + ^ $r13: .cfa -24 + ^ $rbx: .cfa -40 + ^
STACK CFI 18301 .cfa: $rsp 8 +
STACK CFI INIT 18302 4bc .cfa: $rsp 8 + .ra: .cfa -8 + ^
STACK CFI 18303 $rbp: .cfa -16 + ^ .cfa: $rsp 16 +
STACK CFI 18306 .cfa: $rbp 16 +
STACK CFI 1833f $r12: .cfa -24 + ^ $rbx: .cfa -32 + ^
STACK CFI 187bd .cfa: $rsp 8 +
STACK CFI INIT 187be af .cfa: $rsp 8 + .ra: .cfa -8 + ^
STACK CFI 187bf $rbp: .cfa -16 + ^ .cfa: $rsp 16 +
STACK CFI 187c2 .cfa: $rbp 16 +
STACK CFI 187e5 $rbx: .cfa -24 + ^
STACK CFI 1886c .cfa: $rsp 8 +
STACK CFI INIT 1886e 1a2 .cfa: $rsp 8 + .ra: .cfa -8 + ^
STACK CFI 1886f $rbp: .cfa -16 + ^ .cfa: $rsp 16 +
STACK CFI 18872 .cfa: $rbp 16 +
STACK CFI 18895 $r12: .cfa -24 + ^ $rbx: .cfa -32 + ^
STACK CFI 18a0f .cfa: $rsp 8 +
STACK CFI INIT 18a10 2b .cfa: $rsp 8 + .ra: .cfa -8 + ^
STACK CFI 18a11 $rbp: .cfa -16 + ^ .cfa: $rsp 16 +
STACK CFI 18a14 .cfa: $rbp 16 +
STACK CFI 18a3a .cfa: $rsp 8 +
STACK CFI INIT 18a3c 3c .cfa: $rsp 8 + .ra: .cfa -8 + ^
STACK CFI 18a3d $rbp: .cfa -16 + ^ .cfa: $rsp 16 +
STACK CFI 18a40 .cfa: $rbp 16 +
STACK CFI 18a77 .cfa: $rsp 8 +
STACK CFI INIT 18b82 39 .cfa: $rsp 8 + .ra: .cfa -8 + ^
STACK CFI 18b83 $rbp: .cfa -16 + ^ .cfa: $rsp 16 +
STACK CFI 18b86 .cfa: $rbp 16 +
STACK CFI 18bba .cfa: $rsp 8 +
STACK CFI INIT 18bbc 2d .cfa: $rsp 8 + .ra: .cfa -8 + ^
STACK CFI 18bbd $rbp: .cfa -16 + ^ .cfa: $rsp 16 +
STACK CFI 18bc0 .cfa: $rbp 16 +
STACK CFI 18be8 .cfa: $rsp 8 +
STACK CFI INIT 18a78 ca .cfa: $rsp 8 + .ra: .cfa -8 + ^
STACK CFI 18a79 $rbp: .cfa -16 + ^ .cfa: $rsp 16 +
STACK CFI 18a7c .cfa: $rbp 16 +
STACK CFI 18a93 $r12: .cfa -24 + ^ $rbx: .cfa -32 + ^
STACK CFI 18b41 .cfa: $rsp 8 +
STACK CFI INIT 18b42 15 .cfa: $rsp 8 + .ra: .cfa -8 + ^
STACK CFI 18b43 $rbp: .cfa -16 + ^ .cfa: $rsp 16 +
STACK CFI 18b46 .cfa: $rbp 16 +
STACK CFI 18b56 .cfa: $rsp 8 +
STACK CFI INIT 18bec 2c .cfa: $rsp 8 + .ra: .cfa -8 + ^
STACK CFI 18bed $rbp: .cfa -16 + ^ .cfa: $rsp 16 +
STACK CFI 18bf0 .cfa: $rbp 16 +
STACK CFI 18c17 .cfa: $rsp 8 +
STACK CFI INIT 18c18 41 .cfa: $rsp 8 + .ra: .cfa -8 + ^
STACK CFI 18c19 $rbp: .cfa -16 + ^ .cfa: $rsp 16 +
STACK CFI 18c1c .cfa: $rbp 16 +
STACK CFI 18c58 .cfa: $rsp 8 +
STACK CFI INIT 18c5a 26 .cfa: $rsp 8 + .ra: .cfa -8 + ^
STACK CFI 18c5b $rbp: .cfa -16 + ^ .cfa: $rsp 16 +
STACK CFI 18c5e .cfa: $rbp 16 +
STACK CFI 18c7f .cfa: $rsp 8 +
STACK CFI INIT 18c80 141 .cfa: $rsp 8 + .ra: .cfa -8 + ^
STACK CFI 18c81 $rbp: .cfa -16 + ^ .cfa: $rsp 16 +
STACK CFI 18c84 .cfa: $rbp 16 +
STACK CFI 18c96 $r12: .cfa -32 + ^ $r13: .cfa -24 + ^ $rbx: .cfa -40 + ^
STACK CFI 18dc0 .cfa: $rsp 8 +
STACK CFI INIT 18dc2 385 .cfa: $rsp 8 + .ra: .cfa -8 + ^
STACK CFI 18dc3 $rbp: .cfa -16 + ^ .cfa: $rsp 16 +
STACK CFI 18dc6 .cfa: $rbp 16 +
STACK CFI 18de6 $r12: .cfa -24 + ^ $rbx: .cfa -32 + ^
STACK CFI 19146 .cfa: $rsp 8 +
STACK CFI INIT 19147 48 .cfa: $rsp 8 + .ra: .cfa -8 + ^
STACK CFI 19148 $rbp: .cfa -16 + ^ .cfa: $rsp 16 +
STACK CFI 1914b .cfa: $rbp 16 +
STACK CFI 1918e .cfa: $rsp 8 +
STACK CFI INIT 1918f 15 .cfa: $rsp 8 + .ra: .cfa -8 + ^
STACK CFI 19190 $rbp: .cfa -16 + ^ .cfa: $rsp 16 +
STACK CFI 19193 .cfa: $rbp 16 +
STACK CFI 191a3 .cfa: $rsp 8 +
STACK CFI INIT 191a4 109 .cfa: $rsp 8 + .ra: .cfa -8 + ^
STACK CFI 191a5 $rbp: .cfa -16 + ^ .cfa: $rsp 16 +
STACK CFI 191a8 .cfa: $rbp 16 +
STACK CFI 191ce $r12: .cfa -24 + ^ $rbx: .cfa -32 + ^
STACK CFI 1928d .cfa: $rsp 8 +
STACK CFI 1928e .cfa: $rbp 16 +
STACK CFI INIT 192ae e3 .cfa: $rsp 8 + .ra: .cfa -8 + ^
STACK CFI 192af $rbp: .cfa -16 + ^ .cfa: $rsp 16 +
STACK CFI 192b2 .cfa: $rbp 16 +
STACK CFI 192db $r12: .cfa -24 + ^ $rbx: .cfa -32 + ^
STACK CFI 19390 .cfa: $rsp 8 +
STACK CFI INIT 19392 26 .cfa: $rsp 8 + .ra: .cfa -8 + ^
STACK CFI 19393 $rbp: .cfa -16 + ^ .cfa: $rsp 16 +
STACK CFI 19396 .cfa: $rbp 16 +
STACK CFI 193b7 .cfa: $rsp 8 +
STACK CFI INIT 193b8 485 .cfa: $rsp 8 + .ra: .cfa -8 + ^
STACK CFI 193b9 $rbp: .cfa -16 + ^ .cfa: $rsp 16 +
STACK CFI 193bc .cfa: $rbp 16 +
STACK CFI 193da $r12: .cfa -48 + ^ $r13: .cfa -40 + ^ $r14: .cfa -32 + ^ $r15: .cfa -24 + ^ $rbx: .cfa -56 + ^
STACK CFI 1983c .cfa: $rsp 8 +
STACK CFI INIT 1983e af .cfa: $rsp 8 + .ra: .cfa -8 + ^
STACK CFI 1983f $rbp: .cfa -16 + ^ .cfa: $rsp 16 +
STACK CFI 19842 .cfa: $rbp 16 +
STACK CFI 19865 $rbx: .cfa -24 + ^
STACK CFI 198ec .cfa: $rsp 8 +
STACK CFI INIT 198ee 312 .cfa: $rsp 8 + .ra: .cfa -8 + ^
STACK CFI 198ef $rbp: .cfa -16 + ^ .cfa: $rsp 16 +
STACK CFI 198f2 .cfa: $rbp 16 +
STACK CFI 19917 $r12: .cfa -24 + ^ $rbx: .cfa -32 + ^
STACK CFI 19bff .cfa: $rsp 8 +
STACK CFI INIT 19c00 b3 .cfa: $rsp 8 + .ra: .cfa -8 + ^
STACK CFI 19c01 $rbp: .cfa -16 + ^ .cfa: $rsp 16 +
STACK CFI 19c04 .cfa: $rbp 16 +
STACK CFI 19c31 $r12: .cfa -24 + ^ $rbx: .cfa -32 + ^
STACK CFI 19cb2 .cfa: $rsp 8 +
STACK CFI INIT 19cb4 2c .cfa: $rsp 8 + .ra: .cfa -8 + ^
STACK CFI 19cb5 $rbp: .cfa -16 + ^ .cfa: $rsp 16 +
STACK CFI 19cb8 .cfa: $rbp 16 +
STACK CFI 19cdf .cfa: $rsp 8 +
STACK CFI INIT 19ce0 2b2 .cfa: $rsp 8 + .ra: .cfa -8 + ^
STACK CFI 19ce1 $rbp: .cfa -16 + ^ .cfa: $rsp 16 +
STACK CFI 19ce4 .cfa: $rbp 16 +
STACK CFI 19ddb $r12: .cfa -24 + ^ $rbx: .cfa -32 + ^
STACK CFI 19f91 .cfa: $rsp 8 +
STACK CFI INIT 19f92 35a .cfa: $rsp 8 + .ra: .cfa -8 + ^
STACK CFI 19f93 $rbp: .cfa -16 + ^ .cfa: $rsp 16 +
STACK CFI 19f96 .cfa: $rbp 16 +
STACK CFI 19fbd $r12: .cfa -24 + ^ $rbx: .cfa -32 + ^
STACK CFI 1a2eb .cfa: $rsp 8 +
STACK CFI INIT 1a2ec 42 .cfa: $rsp 8 + .ra: .cfa -8 + ^
STACK CFI 1a2ed $rbp: .cfa -16 + ^ .cfa: $rsp 16 +
STACK CFI 1a2f0 .cfa: $rbp 16 +
STACK CFI 1a32d .cfa: $rsp 8 +
STACK CFI INIT 1a32e 112 .cfa: $rsp 8 + .ra: .cfa -8 + ^
STACK CFI 1a32f $rbp: .cfa -16 + ^ .cfa: $rsp 16 +
STACK CFI 1a332 .cfa: $rbp 16 +
STACK CFI 1a33c $r12: .cfa -24 + ^ $rbx: .cfa -32 + ^
STACK CFI 1a43f .cfa: $rsp 8 +
STACK CFI INIT 1a440 48 .cfa: $rsp 8 + .ra: .cfa -8 + ^
STACK CFI 1a441 $rbp: .cfa -16 + ^ .cfa: $rsp 16 +
STACK CFI 1a444 .cfa: $rbp 16 +
STACK CFI 1a487 .cfa: $rsp 8 +
STACK CFI INIT 1a488 15 .cfa: $rsp 8 + .ra: .cfa -8 + ^
STACK CFI 1a489 $rbp: .cfa -16 + ^ .cfa: $rsp 16 +
STACK CFI 1a48c .cfa: $rbp 16 +
STACK CFI 1a49c .cfa: $rsp 8 +
STACK CFI INIT 1b9aa 33 .cfa: $rsp 8 + .ra: .cfa -8 + ^
STACK CFI 1b9ab $rbp: .cfa -16 + ^ .cfa: $rsp 16 +
STACK CFI 1b9ae .cfa: $rbp 16 +
STACK CFI 1b9b6 $rbx: .cfa -24 + ^
STACK CFI 1b9dc .cfa: $rsp 8 +
STACK CFI INIT 1b9de 11 .cfa: $rsp 8 + .ra: .cfa -8 + ^
STACK CFI 1b9df $rbp: .cfa -16 + ^ .cfa: $rsp 16 +
STACK CFI 1b9e2 .cfa: $rbp 16 +
STACK CFI 1b9ee .cfa: $rsp 8 +
STACK CFI INIT 1b9f0 11 .cfa: $rsp 8 + .ra: .cfa -8 + ^
STACK CFI 1b9f1 $rbp: .cfa -16 + ^ .cfa: $rsp 16 +
STACK CFI 1b9f4 .cfa: $rbp 16 +
STACK CFI 1ba00 .cfa: $rsp 8 +
STACK CFI INIT 1ba02 11 .cfa: $rsp 8 + .ra: .cfa -8 + ^
STACK CFI 1ba03 $rbp: .cfa -16 + ^ .cfa: $rsp 16 +
STACK CFI 1ba06 .cfa: $rbp 16 +
STACK CFI 1ba12 .cfa: $rsp 8 +
STACK CFI INIT 1ba14 12 .cfa: $rsp 8 + .ra: .cfa -8 + ^
STACK CFI 1ba15 $rbp: .cfa -16 + ^ .cfa: $rsp 16 +
STACK CFI 1ba18 .cfa: $rbp 16 +
STACK CFI 1ba25 .cfa: $rsp 8 +
STACK CFI INIT 1ba26 12 .cfa: $rsp 8 + .ra: .cfa -8 + ^
STACK CFI 1ba27 $rbp: .cfa -16 + ^ .cfa: $rsp 16 +
STACK CFI 1ba2a .cfa: $rbp 16 +
STACK CFI 1ba37 .cfa: $rsp 8 +
STACK CFI INIT 1ba38 33 .cfa: $rsp 8 + .ra: .cfa -8 + ^
STACK CFI 1ba39 $rbp: .cfa -16 + ^ .cfa: $rsp 16 +
STACK CFI 1ba3c .cfa: $rbp 16 +
STACK CFI 1ba44 $rbx: .cfa -24 + ^
STACK CFI 1ba6a .cfa: $rsp 8 +
STACK CFI INIT 1ba6c 12 .cfa: $rsp 8 + .ra: .cfa -8 + ^
STACK CFI 1ba6d $rbp: .cfa -16 + ^ .cfa: $rsp 16 +
STACK CFI 1ba70 .cfa: $rbp 16 +
STACK CFI 1ba7d .cfa: $rsp 8 +
STACK CFI INIT 1ba7e 15 .cfa: $rsp 8 + .ra: .cfa -8 + ^
STACK CFI 1ba7f $rbp: .cfa -16 + ^ .cfa: $rsp 16 +
STACK CFI 1ba82 .cfa: $rbp 16 +
STACK CFI 1ba92 .cfa: $rsp 8 +
STACK CFI INIT 1a4a0 cd .cfa: $rsp 8 + .ra: .cfa -8 + ^
STACK CFI 1a4a1 $rbp: .cfa -16 + ^ .cfa: $rsp 16 +
STACK CFI 1a4a4 .cfa: $rbp 16 +
STACK CFI 1a4b6 $r12: .cfa -24 + ^ $rbx: .cfa -32 + ^
STACK CFI 1a52e .cfa: $rsp 8 +
STACK CFI 1a52f .cfa: $rbp 16 +
STACK CFI INIT 1a56e b1 .cfa: $rsp 8 + .ra: .cfa -8 + ^
STACK CFI 1a56f $rbp: .cfa -16 + ^ .cfa: $rsp 16 +
STACK CFI 1a572 .cfa: $rbp 16 +
STACK CFI 1a59c $r12: .cfa -24 + ^ $rbx: .cfa -32 + ^
STACK CFI 1a61e .cfa: $rsp 8 +
STACK CFI INIT 1a620 26 .cfa: $rsp 8 + .ra: .cfa -8 + ^
STACK CFI 1a621 $rbp: .cfa -16 + ^ .cfa: $rsp 16 +
STACK CFI 1a624 .cfa: $rbp 16 +
STACK CFI 1a645 .cfa: $rsp 8 +
STACK CFI INIT 1a646 221 .cfa: $rsp 8 + .ra: .cfa -8 + ^
STACK CFI 1a647 $rbp: .cfa -16 + ^ .cfa: $rsp 16 +
STACK CFI 1a64a .cfa: $rbp 16 +
STACK CFI 1a657 $r12: .cfa -32 + ^ $r13: .cfa -24 + ^ $rbx: .cfa -40 + ^
STACK CFI 1a866 .cfa: $rsp 8 +
STACK CFI INIT 1a868 67e .cfa: $rsp 8 + .ra: .cfa -8 + ^
STACK CFI 1a869 $rbp: .cfa -16 + ^ .cfa: $rsp 16 +
STACK CFI 1a86c .cfa: $rbp 16 +
STACK CFI 1a889 $r12: .cfa -32 + ^ $r13: .cfa -24 + ^ $rbx: .cfa -40 + ^
STACK CFI 1aee5 .cfa: $rsp 8 +
STACK CFI INIT 1aee6 57d .cfa: $rsp 8 + .ra: .cfa -8 + ^
STACK CFI 1aee7 $rbp: .cfa -16 + ^ .cfa: $rsp 16 +
STACK CFI 1aeea .cfa: $rbp 16 +
STACK CFI 1af0a $r12: .cfa -24 + ^ $rbx: .cfa -32 + ^
STACK CFI 1b462 .cfa: $rsp 8 +
STACK CFI INIT 1b464 9c .cfa: $rsp 8 + .ra: .cfa -8 + ^
STACK CFI 1b465 $rbp: .cfa -16 + ^ .cfa: $rsp 16 +
STACK CFI 1b468 .cfa: $rbp 16 +
STACK CFI 1b47e $rbx: .cfa -24 + ^
STACK CFI 1b4ff .cfa: $rsp 8 +
STACK CFI INIT 1b500 b0 .cfa: $rsp 8 + .ra: .cfa -8 + ^
STACK CFI 1b501 $rbp: .cfa -16 + ^ .cfa: $rsp 16 +
STACK CFI 1b504 .cfa: $rbp 16 +
STACK CFI 1b5af .cfa: $rsp 8 +
STACK CFI INIT 1b5b0 213 .cfa: $rsp 8 + .ra: .cfa -8 + ^
STACK CFI 1b5b1 $rbp: .cfa -16 + ^ .cfa: $rsp 16 +
STACK CFI 1b5b4 .cfa: $rbp 16 +
STACK CFI 1b5f6 $rbx: .cfa -24 + ^
STACK CFI 1b7c2 .cfa: $rsp 8 +
STACK CFI INIT 1b7c4 189 .cfa: $rsp 8 + .ra: .cfa -8 + ^
STACK CFI 1b7c5 $rbp: .cfa -16 + ^ .cfa: $rsp 16 +
STACK CFI 1b7c8 .cfa: $rbp 16 +
STACK CFI 1b7d3 $r12: .cfa -24 + ^ $rbx: .cfa -32 + ^
STACK CFI 1b94c .cfa: $rsp 8 +
STACK CFI INIT 1ba94 1a .cfa: $rsp 8 + .ra: .cfa -8 + ^
STACK CFI 1ba95 $rbp: .cfa -16 + ^ .cfa: $rsp 16 +
STACK CFI 1ba98 .cfa: $rbp 16 +
STACK CFI 1baad .cfa: $rsp 8 +
STACK CFI INIT 1baae 6e .cfa: $rsp 8 + .ra: .cfa -8 + ^
STACK CFI 1baaf $rbp: .cfa -16 + ^ .cfa: $rsp 16 +
STACK CFI 1bab2 .cfa: $rbp 16 +
STACK CFI 1bac4 $r12: .cfa -24 + ^ $rbx: .cfa -32 + ^
STACK CFI 1bb1b .cfa: $rsp 8 +
STACK CFI INIT 1bb1c 229 .cfa: $rsp 8 + .ra: .cfa -8 + ^
STACK CFI 1bb1d $rbp: .cfa -16 + ^ .cfa: $rsp 16 +
STACK CFI 1bb20 .cfa: $rbp 16 +
STACK CFI 1bb41 $r12: .cfa -40 + ^ $r13: .cfa -32 + ^ $r14: .cfa -24 + ^ $rbx: .cfa -48 + ^
STACK CFI 1bd44 .cfa: $rsp 8 +
STACK CFI INIT 1bd46 11 .cfa: $rsp 8 + .ra: .cfa -8 + ^
STACK CFI 1bd47 $rbp: .cfa -16 + ^ .cfa: $rsp 16 +
STACK CFI 1bd4a .cfa: $rbp 16 +
STACK CFI 1bd56 .cfa: $rsp 8 +
STACK CFI INIT 1bd58 25 .cfa: $rsp 8 + .ra: .cfa -8 + ^
STACK CFI 1bd59 $rbp: .cfa -16 + ^ .cfa: $rsp 16 +
STACK CFI 1bd5c .cfa: $rbp 16 +
STACK CFI 1bd7c .cfa: $rsp 8 +
STACK CFI INIT 1bd7e 1f .cfa: $rsp 8 + .ra: .cfa -8 + ^
STACK CFI 1bd7f $rbp: .cfa -16 + ^ .cfa: $rsp 16 +
STACK CFI 1bd82 .cfa: $rbp 16 +
STACK CFI 1bd9c .cfa: $rsp 8 +
STACK CFI INIT 1bd9e 1a .cfa: $rsp 8 + .ra: .cfa -8 + ^
STACK CFI 1bd9f $rbp: .cfa -16 + ^ .cfa: $rsp 16 +
STACK CFI 1bda2 .cfa: $rbp 16 +
STACK CFI 1bdb7 .cfa: $rsp 8 +
STACK CFI INIT 1bdb8 1a .cfa: $rsp 8 + .ra: .cfa -8 + ^
STACK CFI 1bdb9 $rbp: .cfa -16 + ^ .cfa: $rsp 16 +
STACK CFI 1bdbc .cfa: $rbp 16 +
STACK CFI 1bdd1 .cfa: $rsp 8 +
STACK CFI INIT 1bdd2 79 .cfa: $rsp 8 + .ra: .cfa -8 + ^
STACK CFI 1bdd3 $rbp: .cfa -16 + ^ .cfa: $rsp 16 +
STACK CFI 1bdd6 .cfa: $rbp 16 +
STACK CFI 1be10 $r12: .cfa -24 + ^ $rbx: .cfa -32 + ^
STACK CFI 1be4a .cfa: $rsp 8 +
STACK CFI INIT 1be4c e .cfa: $rsp 8 + .ra: .cfa -8 + ^
STACK CFI 1be4d $rbp: .cfa -16 + ^ .cfa: $rsp 16 +
STACK CFI 1be50 .cfa: $rbp 16 +
STACK CFI 1be59 .cfa: $rsp 8 +
STACK CFI INIT 1be5a 29 .cfa: $rsp 8 + .ra: .cfa -8 + ^
STACK CFI 1be5b $rbp: .cfa -16 + ^ .cfa: $rsp 16 +
STACK CFI 1be5e .cfa: $rbp 16 +
STACK CFI 1be82 .cfa: $rsp 8 +
STACK CFI INIT 1be84 25 .cfa: $rsp 8 + .ra: .cfa -8 + ^
STACK CFI 1be85 $rbp: .cfa -16 + ^ .cfa: $rsp 16 +
STACK CFI 1be88 .cfa: $rbp 16 +
STACK CFI 1bea8 .cfa: $rsp 8 +
STACK CFI INIT 1beaa 30 .cfa: $rsp 8 + .ra: .cfa -8 + ^
STACK CFI 1beab $rbp: .cfa -16 + ^ .cfa: $rsp 16 +
STACK CFI 1beae .cfa: $rbp 16 +
STACK CFI 1bed9 .cfa: $rsp 8 +
STACK CFI INIT 1beda 31 .cfa: $rsp 8 + .ra: .cfa -8 + ^
STACK CFI 1bedb $rbp: .cfa -16 + ^ .cfa: $rsp 16 +
STACK CFI 1bede .cfa: $rbp 16 +
STACK CFI 1bf0a .cfa: $rsp 8 +
STACK CFI INIT 1bf0c a1 .cfa: $rsp 8 + .ra: .cfa -8 + ^
STACK CFI 1bf0d $rbp: .cfa -16 + ^ .cfa: $rsp 16 +
STACK CFI 1bf10 .cfa: $rbp 16 +
STACK CFI 1bf35 $r12: .cfa -24 + ^ $rbx: .cfa -32 + ^
STACK CFI 1bf70 .cfa: $rsp 8 +
STACK CFI 1bf71 .cfa: $rbp 16 +
STACK CFI INIT 1bfae 34 .cfa: $rsp 8 + .ra: .cfa -8 + ^
STACK CFI 1bfaf $rbp: .cfa -16 + ^ .cfa: $rsp 16 +
STACK CFI 1bfb2 .cfa: $rbp 16 +
STACK CFI 1bfe1 .cfa: $rsp 8 +
STACK CFI INIT 1bfe2 25 .cfa: $rsp 8 + .ra: .cfa -8 + ^
STACK CFI 1bfe3 $rbp: .cfa -16 + ^ .cfa: $rsp 16 +
STACK CFI 1bfe6 .cfa: $rbp 16 +
STACK CFI 1c006 .cfa: $rsp 8 +
STACK CFI INIT 1c007 46 .cfa: $rsp 8 + .ra: .cfa -8 + ^
STACK CFI 1c008 $rbp: .cfa -16 + ^ .cfa: $rsp 16 +
STACK CFI 1c00b .cfa: $rbp 16 +
STACK CFI 1c023 $rbx: .cfa -24 + ^
STACK CFI 1c04c .cfa: $rsp 8 +
STACK CFI INIT 1c04e 29 .cfa: $rsp 8 + .ra: .cfa -8 + ^
STACK CFI 1c04f $rbp: .cfa -16 + ^ .cfa: $rsp 16 +
STACK CFI 1c052 .cfa: $rbp 16 +
STACK CFI 1c076 .cfa: $rsp 8 +
STACK CFI INIT 1c077 29 .cfa: $rsp 8 + .ra: .cfa -8 + ^
STACK CFI 1c078 $rbp: .cfa -16 + ^ .cfa: $rsp 16 +
STACK CFI 1c07b .cfa: $rbp 16 +
STACK CFI 1c09f .cfa: $rsp 8 +
STACK CFI INIT 1c0a0 46 .cfa: $rsp 8 + .ra: .cfa -8 + ^
STACK CFI 1c0a1 $rbp: .cfa -16 + ^ .cfa: $rsp 16 +
STACK CFI 1c0a4 .cfa: $rbp 16 +
STACK CFI 1c0bc $rbx: .cfa -24 + ^
STACK CFI 1c0e5 .cfa: $rsp 8 +
STACK CFI INIT 1c0e6 31 .cfa: $rsp 8 + .ra: .cfa -8 + ^
STACK CFI 1c0e7 $rbp: .cfa -16 + ^ .cfa: $rsp 16 +
STACK CFI 1c0ea .cfa: $rbp 16 +
STACK CFI 1c116 .cfa: $rsp 8 +
STACK CFI INIT 1c118 3d .cfa: $rsp 8 + .ra: .cfa -8 + ^
STACK CFI 1c119 $rbp: .cfa -16 + ^ .cfa: $rsp 16 +
STACK CFI 1c11c .cfa: $rbp 16 +
STACK CFI 1c154 .cfa: $rsp 8 +
STACK CFI INIT 1c155 25 .cfa: $rsp 8 + .ra: .cfa -8 + ^
STACK CFI 1c156 $rbp: .cfa -16 + ^ .cfa: $rsp 16 +
STACK CFI 1c159 .cfa: $rbp 16 +
STACK CFI 1c179 .cfa: $rsp 8 +
STACK CFI INIT 1c17a 1c .cfa: $rsp 8 + .ra: .cfa -8 + ^
STACK CFI 1c17b $rbp: .cfa -16 + ^ .cfa: $rsp 16 +
STACK CFI 1c17e .cfa: $rbp 16 +
STACK CFI 1c195 .cfa: $rsp 8 +
STACK CFI INIT 1c196 38 .cfa: $rsp 8 + .ra: .cfa -8 + ^
STACK CFI 1c197 $rbp: .cfa -16 + ^ .cfa: $rsp 16 +
STACK CFI 1c19a .cfa: $rbp 16 +
STACK CFI 1c1cd .cfa: $rsp 8 +
STACK CFI INIT 1c1ce 31 .cfa: $rsp 8 + .ra: .cfa -8 + ^
STACK CFI 1c1cf $rbp: .cfa -16 + ^ .cfa: $rsp 16 +
STACK CFI 1c1d2 .cfa: $rbp 16 +
STACK CFI 1c1fe .cfa: $rsp 8 +
STACK CFI INIT 1c200 22 .cfa: $rsp 8 + .ra: .cfa -8 + ^
STACK CFI 1c201 $rbp: .cfa -16 + ^ .cfa: $rsp 16 +
STACK CFI 1c204 .cfa: $rbp 16 +
STACK CFI 1c221 .cfa: $rsp 8 +
STACK CFI INIT 1c222 1c .cfa: $rsp 8 + .ra: .cfa -8 + ^
STACK CFI 1c223 $rbp: .cfa -16 + ^ .cfa: $rsp 16 +
STACK CFI 1c226 .cfa: $rbp 16 +
STACK CFI 1c23d .cfa: $rsp 8 +
STACK CFI INIT 1c23e e .cfa: $rsp 8 + .ra: .cfa -8 + ^
STACK CFI 1c23f $rbp: .cfa -16 + ^ .cfa: $rsp 16 +
STACK CFI 1c242 .cfa: $rbp 16 +
STACK CFI 1c24b .cfa: $rsp 8 +
STACK CFI INIT 1c24c 73 .cfa: $rsp 8 + .ra: .cfa -8 + ^
STACK CFI 1c24d $rbp: .cfa -16 + ^ .cfa: $rsp 16 +
STACK CFI 1c250 .cfa: $rbp 16 +
STACK CFI 1c26a $r12: .cfa -24 + ^ $rbx: .cfa -32 + ^
STACK CFI 1c2be .cfa: $rsp 8 +
STACK CFI INIT 1c2bf 25 .cfa: $rsp 8 + .ra: .cfa -8 + ^
STACK CFI 1c2c0 $rbp: .cfa -16 + ^ .cfa: $rsp 16 +
STACK CFI 1c2c3 .cfa: $rbp 16 +
STACK CFI 1c2e3 .cfa: $rsp 8 +
STACK CFI INIT 1c2e4 e .cfa: $rsp 8 + .ra: .cfa -8 + ^
STACK CFI 1c2e5 $rbp: .cfa -16 + ^ .cfa: $rsp 16 +
STACK CFI 1c2e8 .cfa: $rbp 16 +
STACK CFI 1c2f1 .cfa: $rsp 8 +
STACK CFI INIT 1c2f2 58 .cfa: $rsp 8 + .ra: .cfa -8 + ^
STACK CFI 1c2f3 $rbp: .cfa -16 + ^ .cfa: $rsp 16 +
STACK CFI 1c2f6 .cfa: $rbp 16 +
STACK CFI 1c310 $r12: .cfa -24 + ^ $rbx: .cfa -32 + ^
STACK CFI 1c349 .cfa: $rsp 8 +
STACK CFI INIT 1c34a 2d .cfa: $rsp 8 + .ra: .cfa -8 + ^
STACK CFI 1c34b $rbp: .cfa -16 + ^ .cfa: $rsp 16 +
STACK CFI 1c34e .cfa: $rbp 16 +
STACK CFI 1c376 .cfa: $rsp 8 +
STACK CFI INIT 1c377 e .cfa: $rsp 8 + .ra: .cfa -8 + ^
STACK CFI 1c378 $rbp: .cfa -16 + ^ .cfa: $rsp 16 +
STACK CFI 1c37b .cfa: $rbp 16 +
STACK CFI 1c384 .cfa: $rsp 8 +
STACK CFI INIT 1c386 47 .cfa: $rsp 8 + .ra: .cfa -8 + ^
STACK CFI 1c387 $rbp: .cfa -16 + ^ .cfa: $rsp 16 +
STACK CFI 1c38a .cfa: $rbp 16 +
STACK CFI 1c3cc .cfa: $rsp 8 +
STACK CFI INIT 1c3cd 2d .cfa: $rsp 8 + .ra: .cfa -8 + ^
STACK CFI 1c3ce $rbp: .cfa -16 + ^ .cfa: $rsp 16 +
STACK CFI 1c3d1 .cfa: $rbp 16 +
STACK CFI 1c3f9 .cfa: $rsp 8 +
STACK CFI INIT 1c3fa 1d .cfa: $rsp 8 + .ra: .cfa -8 + ^
STACK CFI 1c3fb $rbp: .cfa -16 + ^ .cfa: $rsp 16 +
STACK CFI 1c3fe .cfa: $rbp 16 +
STACK CFI 1c416 .cfa: $rsp 8 +
STACK CFI INIT 1c417 1d .cfa: $rsp 8 + .ra: .cfa -8 + ^
STACK CFI 1c418 $rbp: .cfa -16 + ^ .cfa: $rsp 16 +
STACK CFI 1c41b .cfa: $rbp 16 +
STACK CFI 1c433 .cfa: $rsp 8 +
STACK CFI INIT 1c434 31 .cfa: $rsp 8 + .ra: .cfa -8 + ^
STACK CFI 1c435 $rbp: .cfa -16 + ^ .cfa: $rsp 16 +
STACK CFI 1c438 .cfa: $rbp 16 +
STACK CFI 1c464 .cfa: $rsp 8 +
STACK CFI INIT 1c465 e .cfa: $rsp 8 + .ra: .cfa -8 + ^
STACK CFI 1c466 $rbp: .cfa -16 + ^ .cfa: $rsp 16 +
STACK CFI 1c469 .cfa: $rbp 16 +
STACK CFI 1c472 .cfa: $rsp 8 +
STACK CFI INIT 1c473 e .cfa: $rsp 8 + .ra: .cfa -8 + ^
STACK CFI 1c474 $rbp: .cfa -16 + ^ .cfa: $rsp 16 +
STACK CFI 1c477 .cfa: $rbp 16 +
STACK CFI 1c480 .cfa: $rsp 8 +
STACK CFI INIT 1c481 31 .cfa: $rsp 8 + .ra: .cfa -8 + ^
STACK CFI 1c482 $rbp: .cfa -16 + ^ .cfa: $rsp 16 +
STACK CFI 1c485 .cfa: $rbp 16 +
STACK CFI 1c4b1 .cfa: $rsp 8 +
STACK CFI INIT 1c4b2 2d .cfa: $rsp 8 + .ra: .cfa -8 + ^
STACK CFI 1c4b3 $rbp: .cfa -16 + ^ .cfa: $rsp 16 +
STACK CFI 1c4b6 .cfa: $rbp 16 +
STACK CFI 1c4de .cfa: $rsp 8 +
STACK CFI INIT 1c4e0 11 .cfa: $rsp 8 + .ra: .cfa -8 + ^
STACK CFI 1c4e1 $rbp: .cfa -16 + ^ .cfa: $rsp 16 +
STACK CFI 1c4e4 .cfa: $rbp 16 +
STACK CFI 1c4f0 .cfa: $rsp 8 +
STACK CFI INIT 1c4f1 2d .cfa: $rsp 8 + .ra: .cfa -8 + ^
STACK CFI 1c4f2 $rbp: .cfa -16 + ^ .cfa: $rsp 16 +
STACK CFI 1c4f5 .cfa: $rbp 16 +
STACK CFI 1c51d .cfa: $rsp 8 +
STACK CFI INIT 1c51e e .cfa: $rsp 8 + .ra: .cfa -8 + ^
STACK CFI 1c51f $rbp: .cfa -16 + ^ .cfa: $rsp 16 +
STACK CFI 1c522 .cfa: $rbp 16 +
STACK CFI 1c52b .cfa: $rsp 8 +
STACK CFI INIT 1c52c e .cfa: $rsp 8 + .ra: .cfa -8 + ^
STACK CFI 1c52d $rbp: .cfa -16 + ^ .cfa: $rsp 16 +
STACK CFI 1c530 .cfa: $rbp 16 +
STACK CFI 1c539 .cfa: $rsp 8 +
STACK CFI INIT 1c53a 52 .cfa: $rsp 8 + .ra: .cfa -8 + ^
STACK CFI 1c53b $rbp: .cfa -16 + ^ .cfa: $rsp 16 +
STACK CFI 1c53e .cfa: $rbp 16 +
STACK CFI 1c58b .cfa: $rsp 8 +
STACK CFI INIT 1c58c 46 .cfa: $rsp 8 + .ra: .cfa -8 + ^
STACK CFI 1c58d $rbp: .cfa -16 + ^ .cfa: $rsp 16 +
STACK CFI 1c590 .cfa: $rbp 16 +
STACK CFI 1c5a8 $rbx: .cfa -24 + ^
STACK CFI 1c5d1 .cfa: $rsp 8 +
STACK CFI INIT 1c5d2 58 .cfa: $rsp 8 + .ra: .cfa -8 + ^
STACK CFI 1c5d3 $rbp: .cfa -16 + ^ .cfa: $rsp 16 +
STACK CFI 1c5d6 .cfa: $rbp 16 +
STACK CFI 1c5f0 $r12: .cfa -24 + ^ $rbx: .cfa -32 + ^
STACK CFI 1c629 .cfa: $rsp 8 +
STACK CFI INIT 1b94d 48 .cfa: $rsp 8 + .ra: .cfa -8 + ^
STACK CFI 1b94e $rbp: .cfa -16 + ^ .cfa: $rsp 16 +
STACK CFI 1b951 .cfa: $rbp 16 +
STACK CFI 1b994 .cfa: $rsp 8 +
STACK CFI INIT 1b995 15 .cfa: $rsp 8 + .ra: .cfa -8 + ^
STACK CFI 1b996 $rbp: .cfa -16 + ^ .cfa: $rsp 16 +
STACK CFI 1b999 .cfa: $rbp 16 +
STACK CFI 1b9a9 .cfa: $rsp 8 +
STACK CFI INIT 21778 15 .cfa: $rsp 8 + .ra: .cfa -8 + ^
STACK CFI 21779 $rbp: .cfa -16 + ^ .cfa: $rsp 16 +
STACK CFI 2177c .cfa: $rbp 16 +
STACK CFI 2178c .cfa: $rsp 8 +
STACK CFI INIT 2178e 14 .cfa: $rsp 8 + .ra: .cfa -8 + ^
STACK CFI 2178f $rbp: .cfa -16 + ^ .cfa: $rsp 16 +
STACK CFI 21792 .cfa: $rbp 16 +
STACK CFI 217a1 .cfa: $rsp 8 +
STACK CFI INIT 217a2 66 .cfa: $rsp 8 + .ra: .cfa -8 + ^
STACK CFI 217a3 $rbp: .cfa -16 + ^ .cfa: $rsp 16 +
STACK CFI 217a6 .cfa: $rbp 16 +
STACK CFI 21807 .cfa: $rsp 8 +
STACK CFI INIT 21808 50 .cfa: $rsp 8 + .ra: .cfa -8 + ^
STACK CFI 21809 $rbp: .cfa -16 + ^ .cfa: $rsp 16 +
STACK CFI 2180c .cfa: $rbp 16 +
STACK CFI 21857 .cfa: $rsp 8 +
STACK CFI INIT 21858 63 .cfa: $rsp 8 + .ra: .cfa -8 + ^
STACK CFI 21859 $rbp: .cfa -16 + ^ .cfa: $rsp 16 +
STACK CFI 2185c .cfa: $rbp 16 +
STACK CFI 218ba .cfa: $rsp 8 +
STACK CFI INIT 218bc 8b .cfa: $rsp 8 + .ra: .cfa -8 + ^
STACK CFI 218bd $rbp: .cfa -16 + ^ .cfa: $rsp 16 +
STACK CFI 218c0 .cfa: $rbp 16 +
STACK CFI 21946 .cfa: $rsp 8 +
STACK CFI INIT 21948 1a .cfa: $rsp 8 + .ra: .cfa -8 + ^
STACK CFI 21949 $rbp: .cfa -16 + ^ .cfa: $rsp 16 +
STACK CFI 2194c .cfa: $rbp 16 +
STACK CFI 21961 .cfa: $rsp 8 +
STACK CFI INIT 1c62c cf .cfa: $rsp 8 + .ra: .cfa -8 + ^
STACK CFI 1c62d $rbp: .cfa -16 + ^ .cfa: $rsp 16 +
STACK CFI 1c630 .cfa: $rbp 16 +
STACK CFI 1c6fa .cfa: $rsp 8 +
STACK CFI INIT 1c6fc ad .cfa: $rsp 8 + .ra: .cfa -8 + ^
STACK CFI 1c6fd $rbp: .cfa -16 + ^ .cfa: $rsp 16 +
STACK CFI 1c700 .cfa: $rbp 16 +
STACK CFI 1c72a $r12: .cfa -24 + ^ $rbx: .cfa -32 + ^
STACK CFI 1c7a8 .cfa: $rsp 8 +
STACK CFI INIT 1c7aa 26 .cfa: $rsp 8 + .ra: .cfa -8 + ^
STACK CFI 1c7ab $rbp: .cfa -16 + ^ .cfa: $rsp 16 +
STACK CFI 1c7ae .cfa: $rbp 16 +
STACK CFI 1c7cf .cfa: $rsp 8 +
STACK CFI INIT 1c7d0 a .cfa: $rsp 8 + .ra: .cfa -8 + ^
STACK CFI 1c7d1 $rbp: .cfa -16 + ^ .cfa: $rsp 16 +
STACK CFI 1c7d4 .cfa: $rbp 16 +
STACK CFI 1c7d9 .cfa: $rsp 8 +
STACK CFI INIT 1c7da 2a .cfa: $rsp 8 + .ra: .cfa -8 + ^
STACK CFI 1c7db $rbp: .cfa -16 + ^ .cfa: $rsp 16 +
STACK CFI 1c7de .cfa: $rbp 16 +
STACK CFI 1c803 .cfa: $rsp 8 +
STACK CFI INIT 1c804 1f2 .cfa: $rsp 8 + .ra: .cfa -8 + ^
STACK CFI 1c805 $rbp: .cfa -16 + ^ .cfa: $rsp 16 +
STACK CFI 1c808 .cfa: $rbp 16 +
STACK CFI 1c815 $r12: .cfa -32 + ^ $r13: .cfa -24 + ^ $rbx: .cfa -40 + ^
STACK CFI 1c9f5 .cfa: $rsp 8 +
STACK CFI INIT 1c9f6 837 .cfa: $rsp 8 + .ra: .cfa -8 + ^
STACK CFI 1c9f7 $rbp: .cfa -16 + ^ .cfa: $rsp 16 +
STACK CFI 1c9fa .cfa: $rbp 16 +
STACK CFI 1ca17 $r12: .cfa -32 + ^ $r13: .cfa -24 + ^ $rbx: .cfa -40 + ^
STACK CFI 1d22c .cfa: $rsp 8 +
STACK CFI INIT 1d22e 494 .cfa: $rsp 8 + .ra: .cfa -8 + ^
STACK CFI 1d22f $rbp: .cfa -16 + ^ .cfa: $rsp 16 +
STACK CFI 1d232 .cfa: $rbp 16 +
STACK CFI 1d252 $r12: .cfa -24 + ^ $rbx: .cfa -32 + ^
STACK CFI 1d6c1 .cfa: $rsp 8 +
STACK CFI INIT 1d6c2 177 .cfa: $rsp 8 + .ra: .cfa -8 + ^
STACK CFI 1d6c3 $rbp: .cfa -16 + ^ .cfa: $rsp 16 +
STACK CFI 1d6c6 .cfa: $rbp 16 +
STACK CFI 1d6e5 $rbx: .cfa -24 + ^
STACK CFI 1d838 .cfa: $rsp 8 +
STACK CFI INIT 1d83a 6d .cfa: $rsp 8 + .ra: .cfa -8 + ^
STACK CFI 1d83b $rbp: .cfa -16 + ^ .cfa: $rsp 16 +
STACK CFI 1d83e .cfa: $rbp 16 +
STACK CFI 1d8a6 .cfa: $rsp 8 +
STACK CFI INIT 1d8a8 181 .cfa: $rsp 8 + .ra: .cfa -8 + ^
STACK CFI 1d8a9 $rbp: .cfa -16 + ^ .cfa: $rsp 16 +
STACK CFI 1d8ac .cfa: $rbp 16 +
STACK CFI 1d8d7 $rbx: .cfa -24 + ^
STACK CFI 1da28 .cfa: $rsp 8 +
STACK CFI INIT 1da2a 47 .cfa: $rsp 8 + .ra: .cfa -8 + ^
STACK CFI 1da2b $rbp: .cfa -16 + ^ .cfa: $rsp 16 +
STACK CFI 1da2e .cfa: $rbp 16 +
STACK CFI 1da36 $rbx: .cfa -24 + ^
STACK CFI 1da70 .cfa: $rsp 8 +
STACK CFI INIT 1da72 47 .cfa: $rsp 8 + .ra: .cfa -8 + ^
STACK CFI 1da73 $rbp: .cfa -16 + ^ .cfa: $rsp 16 +
STACK CFI 1da76 .cfa: $rbp 16 +
STACK CFI 1da7e $rbx: .cfa -24 + ^
STACK CFI 1dab8 .cfa: $rsp 8 +
STACK CFI INIT 1daba 4b .cfa: $rsp 8 + .ra: .cfa -8 + ^
STACK CFI 1dabb $rbp: .cfa -16 + ^ .cfa: $rsp 16 +
STACK CFI 1dabe .cfa: $rbp 16 +
STACK CFI 1dac6 $rbx: .cfa -24 + ^
STACK CFI 1db04 .cfa: $rsp 8 +
STACK CFI INIT 1db06 4b .cfa: $rsp 8 + .ra: .cfa -8 + ^
STACK CFI 1db07 $rbp: .cfa -16 + ^ .cfa: $rsp 16 +
STACK CFI 1db0a .cfa: $rbp 16 +
STACK CFI 1db12 $rbx: .cfa -24 + ^
STACK CFI 1db50 .cfa: $rsp 8 +
STACK CFI INIT 1db52 13a .cfa: $rsp 8 + .ra: .cfa -8 + ^
STACK CFI 1db53 $rbp: .cfa -16 + ^ .cfa: $rsp 16 +
STACK CFI 1db56 .cfa: $rbp 16 +
STACK CFI 1db62 $r12: .cfa -32 + ^ $r13: .cfa -24 + ^ $rbx: .cfa -40 + ^
STACK CFI 1dc6c .cfa: $rsp 8 +
STACK CFI 1dc6d .cfa: $rbp 16 +
STACK CFI INIT 1dc8c 3ad .cfa: $rsp 8 + .ra: .cfa -8 + ^
STACK CFI 1dc8d $rbp: .cfa -16 + ^ .cfa: $rsp 16 +
STACK CFI 1dc90 .cfa: $rbp 16 +
STACK CFI 1dc9c $r12: .cfa -32 + ^ $r13: .cfa -24 + ^ $rbx: .cfa -40 + ^
STACK CFI 1e019 .cfa: $rsp 8 +
STACK CFI 1e01a .cfa: $rbp 16 +
STACK CFI INIT 1e03a 22c .cfa: $rsp 8 + .ra: .cfa -8 + ^
STACK CFI 1e03b $rbp: .cfa -16 + ^ .cfa: $rsp 16 +
STACK CFI 1e03e .cfa: $rbp 16 +
STACK CFI 1e04a $r12: .cfa -32 + ^ $r13: .cfa -24 + ^ $rbx: .cfa -40 + ^
STACK CFI 1e246 .cfa: $rsp 8 +
STACK CFI 1e247 .cfa: $rbp 16 +
STACK CFI INIT 1e266 347 .cfa: $rsp 8 + .ra: .cfa -8 + ^
STACK CFI 1e267 $rbp: .cfa -16 + ^ .cfa: $rsp 16 +
STACK CFI 1e26a .cfa: $rbp 16 +
STACK CFI 1e276 $r12: .cfa -32 + ^ $r13: .cfa -24 + ^ $rbx: .cfa -40 + ^
STACK CFI 1e58d .cfa: $rsp 8 +
STACK CFI 1e58e .cfa: $rbp 16 +
STACK CFI INIT 1e5ae 347 .cfa: $rsp 8 + .ra: .cfa -8 + ^
STACK CFI 1e5af $rbp: .cfa -16 + ^ .cfa: $rsp 16 +
STACK CFI 1e5b2 .cfa: $rbp 16 +
STACK CFI 1e5be $r12: .cfa -32 + ^ $r13: .cfa -24 + ^ $rbx: .cfa -40 + ^
STACK CFI 1e8d5 .cfa: $rsp 8 +
STACK CFI 1e8d6 .cfa: $rbp 16 +
STACK CFI INIT 1e8f6 23f .cfa: $rsp 8 + .ra: .cfa -8 + ^
STACK CFI 1e8f7 $rbp: .cfa -16 + ^ .cfa: $rsp 16 +
STACK CFI 1e8fa .cfa: $rbp 16 +
STACK CFI 1e906 $r12: .cfa -32 + ^ $r13: .cfa -24 + ^ $rbx: .cfa -40 + ^
STACK CFI 1eb15 .cfa: $rsp 8 +
STACK CFI 1eb16 .cfa: $rbp 16 +
STACK CFI INIT 1eb36 26d .cfa: $rsp 8 + .ra: .cfa -8 + ^
STACK CFI 1eb37 $rbp: .cfa -16 + ^ .cfa: $rsp 16 +
STACK CFI 1eb3a .cfa: $rbp 16 +
STACK CFI 1eb46 $r12: .cfa -32 + ^ $r13: .cfa -24 + ^ $rbx: .cfa -40 + ^
STACK CFI 1ed83 .cfa: $rsp 8 +
STACK CFI 1ed84 .cfa: $rbp 16 +
STACK CFI INIT 1eda4 273 .cfa: $rsp 8 + .ra: .cfa -8 + ^
STACK CFI 1eda5 $rbp: .cfa -16 + ^ .cfa: $rsp 16 +
STACK CFI 1eda8 .cfa: $rbp 16 +
STACK CFI 1edb4 $r12: .cfa -32 + ^ $r13: .cfa -24 + ^ $rbx: .cfa -40 + ^
STACK CFI 1eff7 .cfa: $rsp 8 +
STACK CFI 1eff8 .cfa: $rbp 16 +
STACK CFI INIT 1f018 42 .cfa: $rsp 8 + .ra: .cfa -8 + ^
STACK CFI 1f019 $rbp: .cfa -16 + ^ .cfa: $rsp 16 +
STACK CFI 1f01c .cfa: $rbp 16 +
STACK CFI 1f059 .cfa: $rsp 8 +
STACK CFI INIT 1f05a 388 .cfa: $rsp 8 + .ra: .cfa -8 + ^
STACK CFI 1f05b $rbp: .cfa -16 + ^ .cfa: $rsp 16 +
STACK CFI 1f05e .cfa: $rbp 16 +
STACK CFI 1f0f5 $r12: .cfa -24 + ^ $rbx: .cfa -32 + ^
STACK CFI 1f3e1 .cfa: $rsp 8 +
STACK CFI INIT 1f3e2 2fe .cfa: $rsp 8 + .ra: .cfa -8 + ^
STACK CFI 1f3e3 $rbp: .cfa -16 + ^ .cfa: $rsp 16 +
STACK CFI 1f3e6 .cfa: $rbp 16 +
STACK CFI 1f473 $r12: .cfa -24 + ^ $rbx: .cfa -32 + ^
STACK CFI 1f6df .cfa: $rsp 8 +
STACK CFI INIT 1f6e0 3c .cfa: $rsp 8 + .ra: .cfa -8 + ^
STACK CFI 1f6e1 $rbp: .cfa -16 + ^ .cfa: $rsp 16 +
STACK CFI 1f6e4 .cfa: $rbp 16 +
STACK CFI 1f702 $rbx: .cfa -24 + ^
STACK CFI 1f71b .cfa: $rsp 8 +
STACK CFI INIT 1f71c 33e .cfa: $rsp 8 + .ra: .cfa -8 + ^
STACK CFI 1f71d $rbp: .cfa -16 + ^ .cfa: $rsp 16 +
STACK CFI 1f720 .cfa: $rbp 16 +
STACK CFI 1f793 $r12: .cfa -24 + ^ $rbx: .cfa -32 + ^
STACK CFI 1fa59 .cfa: $rsp 8 +
STACK CFI INIT 1fa5a 465 .cfa: $rsp 8 + .ra: .cfa -8 + ^
STACK CFI 1fa5b $rbp: .cfa -16 + ^ .cfa: $rsp 16 +
STACK CFI 1fa5e .cfa: $rbp 16 +
STACK CFI 1faf9 $r12: .cfa -24 + ^ $rbx: .cfa -32 + ^
STACK CFI 1febe .cfa: $rsp 8 +
STACK CFI INIT 1fec0 3fa .cfa: $rsp 8 + .ra: .cfa -8 + ^
STACK CFI 1fec1 $rbp: .cfa -16 + ^ .cfa: $rsp 16 +
STACK CFI 1fec4 .cfa: $rbp 16 +
STACK CFI 1ff4d $r12: .cfa -24 + ^ $rbx: .cfa -32 + ^
STACK CFI 2029a .cfa: $rsp 8 +
STACK CFI 2029b .cfa: $rbp 16 +
STACK CFI INIT 202ba 470 .cfa: $rsp 8 + .ra: .cfa -8 + ^
STACK CFI 202bb $rbp: .cfa -16 + ^ .cfa: $rsp 16 +
STACK CFI 202be .cfa: $rbp 16 +
STACK CFI 2034e $r12: .cfa -24 + ^ $rbx: .cfa -32 + ^
STACK CFI 20729 .cfa: $rsp 8 +
STACK CFI INIT 2072a 124 .cfa: $rsp 8 + .ra: .cfa -8 + ^
STACK CFI 2072b $rbp: .cfa -16 + ^ .cfa: $rsp 16 +
STACK CFI 2072e .cfa: $rbp 16 +
STACK CFI 2073a $r12: .cfa -32 + ^ $r13: .cfa -24 + ^ $rbx: .cfa -40 + ^
STACK CFI 2084d .cfa: $rsp 8 +
STACK CFI INIT 2084e a3 .cfa: $rsp 8 + .ra: .cfa -8 + ^
STACK CFI 2084f $rbp: .cfa -16 + ^ .cfa: $rsp 16 +
STACK CFI 20852 .cfa: $rbp 16 +
STACK CFI 208f0 .cfa: $rsp 8 +
STACK CFI INIT 208f2 112 .cfa: $rsp 8 + .ra: .cfa -8 + ^
STACK CFI 208f3 $rbp: .cfa -16 + ^ .cfa: $rsp 16 +
STACK CFI 208f6 .cfa: $rbp 16 +
STACK CFI 20900 $r12: .cfa -24 + ^ $rbx: .cfa -32 + ^
STACK CFI 20a03 .cfa: $rsp 8 +
STACK CFI INIT 21962 1e .cfa: $rsp 8 + .ra: .cfa -8 + ^
STACK CFI 21963 $rbp: .cfa -16 + ^ .cfa: $rsp 16 +
STACK CFI 21966 .cfa: $rbp 16 +
STACK CFI 2197f .cfa: $rsp 8 +
STACK CFI INIT 21980 1e .cfa: $rsp 8 + .ra: .cfa -8 + ^
STACK CFI 21981 $rbp: .cfa -16 + ^ .cfa: $rsp 16 +
STACK CFI 21984 .cfa: $rbp 16 +
STACK CFI 2199d .cfa: $rsp 8 +
STACK CFI INIT 2199e 39 .cfa: $rsp 8 + .ra: .cfa -8 + ^
STACK CFI 2199f $rbp: .cfa -16 + ^ .cfa: $rsp 16 +
STACK CFI 219a2 .cfa: $rbp 16 +
STACK CFI 219d6 .cfa: $rsp 8 +
STACK CFI INIT 219d8 1e .cfa: $rsp 8 + .ra: .cfa -8 + ^
STACK CFI 219d9 $rbp: .cfa -16 + ^ .cfa: $rsp 16 +
STACK CFI 219dc .cfa: $rbp 16 +
STACK CFI 219f5 .cfa: $rsp 8 +
STACK CFI INIT 219f6 55 .cfa: $rsp 8 + .ra: .cfa -8 + ^
STACK CFI 219f7 $rbp: .cfa -16 + ^ .cfa: $rsp 16 +
STACK CFI 219fa .cfa: $rbp 16 +
STACK CFI 21a10 $r12: .cfa -24 + ^ $rbx: .cfa -32 + ^
STACK CFI 21a4a .cfa: $rsp 8 +
STACK CFI INIT 20a04 4dc .cfa: $rsp 8 + .ra: .cfa -8 + ^
STACK CFI 20a05 $rbp: .cfa -16 + ^ .cfa: $rsp 16 +
STACK CFI 20a08 .cfa: $rbp 16 +
STACK CFI 20a27 $r12: .cfa -24 + ^ $rbx: .cfa -32 + ^
STACK CFI 20edf .cfa: $rsp 8 +
STACK CFI INIT 20ee0 a4 .cfa: $rsp 8 + .ra: .cfa -8 + ^
STACK CFI 20ee1 $rbp: .cfa -16 + ^ .cfa: $rsp 16 +
STACK CFI 20ee4 .cfa: $rbp 16 +
STACK CFI 20f0d $rbx: .cfa -24 + ^
STACK CFI 20f83 .cfa: $rsp 8 +
STACK CFI INIT 20f84 db .cfa: $rsp 8 + .ra: .cfa -8 + ^
STACK CFI 20f85 $rbp: .cfa -16 + ^ .cfa: $rsp 16 +
STACK CFI 20f88 .cfa: $rbp 16 +
STACK CFI 20f9e $rbx: .cfa -24 + ^
STACK CFI INIT 21060 1a7 .cfa: $rsp 8 + .ra: .cfa -8 + ^
STACK CFI 21061 $rbp: .cfa -16 + ^ .cfa: $rsp 16 +
STACK CFI 21064 .cfa: $rbp 16 +
STACK CFI 21098 $r12: .cfa -24 + ^ $rbx: .cfa -32 + ^
STACK CFI 21206 .cfa: $rsp 8 +
STACK CFI INIT 21208 491 .cfa: $rsp 8 + .ra: .cfa -8 + ^
STACK CFI 21209 $rbp: .cfa -16 + ^ .cfa: $rsp 16 +
STACK CFI 2120c .cfa: $rbp 16 +
STACK CFI 2126d $r12: .cfa -24 + ^ $rbx: .cfa -32 + ^
STACK CFI 21679 .cfa: $rsp 8 +
STACK CFI 2167a .cfa: $rbp 16 +
STACK CFI INIT 21a4c 1a .cfa: $rsp 8 + .ra: .cfa -8 + ^
STACK CFI 21a4d $rbp: .cfa -16 + ^ .cfa: $rsp 16 +
STACK CFI 21a50 .cfa: $rbp 16 +
STACK CFI 21a65 .cfa: $rsp 8 +
STACK CFI INIT 21a66 6e .cfa: $rsp 8 + .ra: .cfa -8 + ^
STACK CFI 21a67 $rbp: .cfa -16 + ^ .cfa: $rsp 16 +
STACK CFI 21a6a .cfa: $rbp 16 +
STACK CFI 21a7c $r12: .cfa -24 + ^ $rbx: .cfa -32 + ^
STACK CFI 21ad3 .cfa: $rsp 8 +
STACK CFI INIT 21ad4 1a .cfa: $rsp 8 + .ra: .cfa -8 + ^
STACK CFI 21ad5 $rbp: .cfa -16 + ^ .cfa: $rsp 16 +
STACK CFI 21ad8 .cfa: $rbp 16 +
STACK CFI 21aed .cfa: $rsp 8 +
STACK CFI INIT 21aee 1a .cfa: $rsp 8 + .ra: .cfa -8 + ^
STACK CFI 21aef $rbp: .cfa -16 + ^ .cfa: $rsp 16 +
STACK CFI 21af2 .cfa: $rbp 16 +
STACK CFI 21b07 .cfa: $rsp 8 +
STACK CFI INIT 21b08 63 .cfa: $rsp 8 + .ra: .cfa -8 + ^
STACK CFI 21b09 $rbp: .cfa -16 + ^ .cfa: $rsp 16 +
STACK CFI 21b0c .cfa: $rbp 16 +
STACK CFI 21b1e $r12: .cfa -24 + ^ $rbx: .cfa -32 + ^
STACK CFI 21b6a .cfa: $rsp 8 +
STACK CFI INIT 21b6c 73 .cfa: $rsp 8 + .ra: .cfa -8 + ^
STACK CFI 21b6d $rbp: .cfa -16 + ^ .cfa: $rsp 16 +
STACK CFI 21b70 .cfa: $rbp 16 +
STACK CFI 21b99 $r12: .cfa -24 + ^ $rbx: .cfa -32 + ^
STACK CFI 21bde .cfa: $rsp 8 +
STACK CFI INIT 21be0 19 .cfa: $rsp 8 + .ra: .cfa -8 + ^
STACK CFI 21be1 $rbp: .cfa -16 + ^ .cfa: $rsp 16 +
STACK CFI 21be4 .cfa: $rbp 16 +
STACK CFI 21bf8 .cfa: $rsp 8 +
STACK CFI INIT 21bfa 7d .cfa: $rsp 8 + .ra: .cfa -8 + ^
STACK CFI 21bfb $rbp: .cfa -16 + ^ .cfa: $rsp 16 +
STACK CFI 21bfe .cfa: $rbp 16 +
STACK CFI 21c76 .cfa: $rsp 8 +
STACK CFI INIT 21c78 41 .cfa: $rsp 8 + .ra: .cfa -8 + ^
STACK CFI 21c79 $rbp: .cfa -16 + ^ .cfa: $rsp 16 +
STACK CFI 21c7c .cfa: $rbp 16 +
STACK CFI 21cb8 .cfa: $rsp 8 +
STACK CFI INIT 21cba 25 .cfa: $rsp 8 + .ra: .cfa -8 + ^
STACK CFI 21cbb $rbp: .cfa -16 + ^ .cfa: $rsp 16 +
STACK CFI 21cbe .cfa: $rbp 16 +
STACK CFI 21cde .cfa: $rsp 8 +
STACK CFI INIT 21ce0 1c .cfa: $rsp 8 + .ra: .cfa -8 + ^
STACK CFI 21ce1 $rbp: .cfa -16 + ^ .cfa: $rsp 16 +
STACK CFI 21ce4 .cfa: $rbp 16 +
STACK CFI 21cfb .cfa: $rsp 8 +
STACK CFI INIT 21cfc 1a .cfa: $rsp 8 + .ra: .cfa -8 + ^
STACK CFI 21cfd $rbp: .cfa -16 + ^ .cfa: $rsp 16 +
STACK CFI 21d00 .cfa: $rbp 16 +
STACK CFI 21d15 .cfa: $rsp 8 +
STACK CFI INIT 21d16 22 .cfa: $rsp 8 + .ra: .cfa -8 + ^
STACK CFI 21d17 $rbp: .cfa -16 + ^ .cfa: $rsp 16 +
STACK CFI 21d1a .cfa: $rbp 16 +
STACK CFI 21d37 .cfa: $rsp 8 +
STACK CFI INIT 21d38 15 .cfa: $rsp 8 + .ra: .cfa -8 + ^
STACK CFI 21d39 $rbp: .cfa -16 + ^ .cfa: $rsp 16 +
STACK CFI 21d3c .cfa: $rbp 16 +
STACK CFI 21d4c .cfa: $rsp 8 +
STACK CFI INIT 21d4e 1a .cfa: $rsp 8 + .ra: .cfa -8 + ^
STACK CFI 21d4f $rbp: .cfa -16 + ^ .cfa: $rsp 16 +
STACK CFI 21d52 .cfa: $rbp 16 +
STACK CFI 21d67 .cfa: $rsp 8 +
STACK CFI INIT 21d68 37 .cfa: $rsp 8 + .ra: .cfa -8 + ^
STACK CFI 21d69 $rbp: .cfa -16 + ^ .cfa: $rsp 16 +
STACK CFI 21d6c .cfa: $rbp 16 +
STACK CFI 21d74 $rbx: .cfa -24 + ^
STACK CFI 21d9e .cfa: $rsp 8 +
STACK CFI INIT 21da0 ab .cfa: $rsp 8 + .ra: .cfa -8 + ^
STACK CFI 21da1 $rbp: .cfa -16 + ^ .cfa: $rsp 16 +
STACK CFI 21da4 .cfa: $rbp 16 +
STACK CFI 21dba $r12: .cfa -24 + ^ $rbx: .cfa -32 + ^
STACK CFI 21e4a .cfa: $rsp 8 +
STACK CFI INIT 21e4c 47 .cfa: $rsp 8 + .ra: .cfa -8 + ^
STACK CFI 21e4d $rbp: .cfa -16 + ^ .cfa: $rsp 16 +
STACK CFI 21e50 .cfa: $rbp 16 +
STACK CFI 21e92 .cfa: $rsp 8 +
STACK CFI INIT 21e94 1a .cfa: $rsp 8 + .ra: .cfa -8 + ^
STACK CFI 21e95 $rbp: .cfa -16 + ^ .cfa: $rsp 16 +
STACK CFI 21e98 .cfa: $rbp 16 +
STACK CFI 21ead .cfa: $rsp 8 +
STACK CFI INIT 21eae 1a .cfa: $rsp 8 + .ra: .cfa -8 + ^
STACK CFI 21eaf $rbp: .cfa -16 + ^ .cfa: $rsp 16 +
STACK CFI 21eb2 .cfa: $rbp 16 +
STACK CFI 21ec7 .cfa: $rsp 8 +
STACK CFI INIT 21ec8 1a .cfa: $rsp 8 + .ra: .cfa -8 + ^
STACK CFI 21ec9 $rbp: .cfa -16 + ^ .cfa: $rsp 16 +
STACK CFI 21ecc .cfa: $rbp 16 +
STACK CFI 21ee1 .cfa: $rsp 8 +
STACK CFI INIT 21ee2 81 .cfa: $rsp 8 + .ra: .cfa -8 + ^
STACK CFI 21ee3 $rbp: .cfa -16 + ^ .cfa: $rsp 16 +
STACK CFI 21ee6 .cfa: $rbp 16 +
STACK CFI 21f28 $r12: .cfa -24 + ^ $rbx: .cfa -32 + ^
STACK CFI 21f62 .cfa: $rsp 8 +
STACK CFI INIT 21f64 e .cfa: $rsp 8 + .ra: .cfa -8 + ^
STACK CFI 21f65 $rbp: .cfa -16 + ^ .cfa: $rsp 16 +
STACK CFI 21f68 .cfa: $rbp 16 +
STACK CFI 21f71 .cfa: $rsp 8 +
STACK CFI INIT 21f72 29 .cfa: $rsp 8 + .ra: .cfa -8 + ^
STACK CFI 21f73 $rbp: .cfa -16 + ^ .cfa: $rsp 16 +
STACK CFI 21f76 .cfa: $rbp 16 +
STACK CFI 21f9a .cfa: $rsp 8 +
STACK CFI INIT 21f9c 1a .cfa: $rsp 8 + .ra: .cfa -8 + ^
STACK CFI 21f9d $rbp: .cfa -16 + ^ .cfa: $rsp 16 +
STACK CFI 21fa0 .cfa: $rbp 16 +
STACK CFI 21fb5 .cfa: $rsp 8 +
STACK CFI INIT 21fb6 1a .cfa: $rsp 8 + .ra: .cfa -8 + ^
STACK CFI 21fb7 $rbp: .cfa -16 + ^ .cfa: $rsp 16 +
STACK CFI 21fba .cfa: $rbp 16 +
STACK CFI 21fcf .cfa: $rsp 8 +
STACK CFI INIT 21fd0 69 .cfa: $rsp 8 + .ra: .cfa -8 + ^
STACK CFI 21fd1 $rbp: .cfa -16 + ^ .cfa: $rsp 16 +
STACK CFI 21fd4 .cfa: $rbp 16 +
STACK CFI 22038 .cfa: $rsp 8 +
STACK CFI INIT 2203a 12 .cfa: $rsp 8 + .ra: .cfa -8 + ^
STACK CFI 2203b $rbp: .cfa -16 + ^ .cfa: $rsp 16 +
STACK CFI 2203e .cfa: $rbp 16 +
STACK CFI 2204b .cfa: $rsp 8 +
STACK CFI INIT 2204c 91 .cfa: $rsp 8 + .ra: .cfa -8 + ^
STACK CFI 2204d $rbp: .cfa -16 + ^ .cfa: $rsp 16 +
STACK CFI 22050 .cfa: $rbp 16 +
STACK CFI 22071 $r12: .cfa -24 + ^ $rbx: .cfa -32 + ^
STACK CFI 220bd .cfa: $rsp 8 +
STACK CFI 220be .cfa: $rbp 16 +
STACK CFI INIT 220de 55 .cfa: $rsp 8 + .ra: .cfa -8 + ^
STACK CFI 220df $rbp: .cfa -16 + ^ .cfa: $rsp 16 +
STACK CFI 220e2 .cfa: $rbp 16 +
STACK CFI 220fa $rbx: .cfa -24 + ^
STACK CFI 22132 .cfa: $rsp 8 +
STACK CFI INIT 22134 e2 .cfa: $rsp 8 + .ra: .cfa -8 + ^
STACK CFI 22135 $rbp: .cfa -16 + ^ .cfa: $rsp 16 +
STACK CFI 22138 .cfa: $rbp 16 +
STACK CFI 22155 $rbx: .cfa -24 + ^
STACK CFI 22215 .cfa: $rsp 8 +
STACK CFI INIT 22216 42b .cfa: $rsp 8 + .ra: .cfa -8 + ^
STACK CFI 22217 $rbp: .cfa -16 + ^ .cfa: $rsp 16 +
STACK CFI 2221a .cfa: $rbp 16 +
STACK CFI 22258 $r12: .cfa -24 + ^ $rbx: .cfa -32 + ^
STACK CFI 22640 .cfa: $rsp 8 +
STACK CFI INIT 22642 29 .cfa: $rsp 8 + .ra: .cfa -8 + ^
STACK CFI 22643 $rbp: .cfa -16 + ^ .cfa: $rsp 16 +
STACK CFI 22646 .cfa: $rbp 16 +
STACK CFI 2266a .cfa: $rsp 8 +
STACK CFI INIT 2266c 31 .cfa: $rsp 8 + .ra: .cfa -8 + ^
STACK CFI 2266d $rbp: .cfa -16 + ^ .cfa: $rsp 16 +
STACK CFI 22670 .cfa: $rbp 16 +
STACK CFI 2269c .cfa: $rsp 8 +
STACK CFI INIT 2269e 30 .cfa: $rsp 8 + .ra: .cfa -8 + ^
STACK CFI 2269f $rbp: .cfa -16 + ^ .cfa: $rsp 16 +
STACK CFI 226a2 .cfa: $rbp 16 +
STACK CFI 226cd .cfa: $rsp 8 +
STACK CFI INIT 226ce 3c .cfa: $rsp 8 + .ra: .cfa -8 + ^
STACK CFI 226cf $rbp: .cfa -16 + ^ .cfa: $rsp 16 +
STACK CFI 226d2 .cfa: $rbp 16 +
STACK CFI 226e6 $rbx: .cfa -24 + ^
STACK CFI 22709 .cfa: $rsp 8 +
STACK CFI INIT 2270a b6 .cfa: $rsp 8 + .ra: .cfa -8 + ^
STACK CFI 2270b $rbp: .cfa -16 + ^ .cfa: $rsp 16 +
STACK CFI 2270e .cfa: $rbp 16 +
STACK CFI 22724 $r12: .cfa -24 + ^ $rbx: .cfa -32 + ^
STACK CFI 227bf .cfa: $rsp 8 +
STACK CFI INIT 227c0 2c .cfa: $rsp 8 + .ra: .cfa -8 + ^
STACK CFI 227c1 $rbp: .cfa -16 + ^ .cfa: $rsp 16 +
STACK CFI 227c4 .cfa: $rbp 16 +
STACK CFI 227eb .cfa: $rsp 8 +
STACK CFI INIT 227ec 8d .cfa: $rsp 8 + .ra: .cfa -8 + ^
STACK CFI 227ed $rbp: .cfa -16 + ^ .cfa: $rsp 16 +
STACK CFI 227f0 .cfa: $rbp 16 +
STACK CFI 22800 $rbx: .cfa -24 + ^
STACK CFI 22878 .cfa: $rsp 8 +
STACK CFI INIT 2287a 3b .cfa: $rsp 8 + .ra: .cfa -8 + ^
STACK CFI 2287b $rbp: .cfa -16 + ^ .cfa: $rsp 16 +
STACK CFI 2287e .cfa: $rbp 16 +
STACK CFI 228b4 .cfa: $rsp 8 +
STACK CFI INIT 228b6 271 .cfa: $rsp 8 + .ra: .cfa -8 + ^
STACK CFI 228b7 $rbp: .cfa -16 + ^ .cfa: $rsp 16 +
STACK CFI 228ba .cfa: $rbp 16 +
STACK CFI 228da $rbx: .cfa -24 + ^
STACK CFI 22b26 .cfa: $rsp 8 +
STACK CFI INIT 22b28 12 .cfa: $rsp 8 + .ra: .cfa -8 + ^
STACK CFI 22b29 $rbp: .cfa -16 + ^ .cfa: $rsp 16 +
STACK CFI 22b2c .cfa: $rbp 16 +
STACK CFI 22b39 .cfa: $rsp 8 +
STACK CFI INIT 22b3a 3d .cfa: $rsp 8 + .ra: .cfa -8 + ^
STACK CFI 22b3b $rbp: .cfa -16 + ^ .cfa: $rsp 16 +
STACK CFI 22b3e .cfa: $rbp 16 +
STACK CFI 22b76 .cfa: $rsp 8 +
STACK CFI INIT 22b78 1a .cfa: $rsp 8 + .ra: .cfa -8 + ^
STACK CFI 22b79 $rbp: .cfa -16 + ^ .cfa: $rsp 16 +
STACK CFI 22b7c .cfa: $rbp 16 +
STACK CFI 22b91 .cfa: $rsp 8 +
STACK CFI INIT 22b92 34 .cfa: $rsp 8 + .ra: .cfa -8 + ^
STACK CFI 22b93 $rbp: .cfa -16 + ^ .cfa: $rsp 16 +
STACK CFI 22b96 .cfa: $rbp 16 +
STACK CFI 22bc5 .cfa: $rsp 8 +
STACK CFI INIT 22bc6 25 .cfa: $rsp 8 + .ra: .cfa -8 + ^
STACK CFI 22bc7 $rbp: .cfa -16 + ^ .cfa: $rsp 16 +
STACK CFI 22bca .cfa: $rbp 16 +
STACK CFI 22bea .cfa: $rsp 8 +
STACK CFI INIT 22bec 8c .cfa: $rsp 8 + .ra: .cfa -8 + ^
STACK CFI 22bed $rbp: .cfa -16 + ^ .cfa: $rsp 16 +
STACK CFI 22bf0 .cfa: $rbp 16 +
STACK CFI 22c02 $r12: .cfa -24 + ^ $rbx: .cfa -32 + ^
STACK CFI 22c77 .cfa: $rsp 8 +
STACK CFI INIT 22c78 a .cfa: $rsp 8 + .ra: .cfa -8 + ^
STACK CFI 22c79 $rbp: .cfa -16 + ^ .cfa: $rsp 16 +
STACK CFI 22c7c .cfa: $rbp 16 +
STACK CFI 22c81 .cfa: $rsp 8 +
STACK CFI INIT 22c82 12 .cfa: $rsp 8 + .ra: .cfa -8 + ^
STACK CFI 22c83 $rbp: .cfa -16 + ^ .cfa: $rsp 16 +
STACK CFI 22c86 .cfa: $rbp 16 +
STACK CFI 22c93 .cfa: $rsp 8 +
STACK CFI INIT 22c94 12 .cfa: $rsp 8 + .ra: .cfa -8 + ^
STACK CFI 22c95 $rbp: .cfa -16 + ^ .cfa: $rsp 16 +
STACK CFI 22c98 .cfa: $rbp 16 +
STACK CFI 22ca5 .cfa: $rsp 8 +
STACK CFI INIT 22ca6 86 .cfa: $rsp 8 + .ra: .cfa -8 + ^
STACK CFI 22ca7 $rbp: .cfa -16 + ^ .cfa: $rsp 16 +
STACK CFI 22caa .cfa: $rbp 16 +
STACK CFI 22cc1 $r12: .cfa -24 + ^ $rbx: .cfa -32 + ^
STACK CFI 22d2b .cfa: $rsp 8 +
STACK CFI INIT 22d2c 48 .cfa: $rsp 8 + .ra: .cfa -8 + ^
STACK CFI 22d2d $rbp: .cfa -16 + ^ .cfa: $rsp 16 +
STACK CFI 22d30 .cfa: $rbp 16 +
STACK CFI 22d73 .cfa: $rsp 8 +
STACK CFI INIT 22d74 31 .cfa: $rsp 8 + .ra: .cfa -8 + ^
STACK CFI 22d75 $rbp: .cfa -16 + ^ .cfa: $rsp 16 +
STACK CFI 22d78 .cfa: $rbp 16 +
STACK CFI 22da4 .cfa: $rsp 8 +
STACK CFI INIT 22da6 e .cfa: $rsp 8 + .ra: .cfa -8 + ^
STACK CFI 22da7 $rbp: .cfa -16 + ^ .cfa: $rsp 16 +
STACK CFI 22daa .cfa: $rbp 16 +
STACK CFI 22db3 .cfa: $rsp 8 +
STACK CFI INIT 22db4 46 .cfa: $rsp 8 + .ra: .cfa -8 + ^
STACK CFI 22db5 $rbp: .cfa -16 + ^ .cfa: $rsp 16 +
STACK CFI 22db8 .cfa: $rbp 16 +
STACK CFI 22dd0 $rbx: .cfa -24 + ^
STACK CFI 22df9 .cfa: $rsp 8 +
STACK CFI INIT 22dfa 11 .cfa: $rsp 8 + .ra: .cfa -8 + ^
STACK CFI 22dfb $rbp: .cfa -16 + ^ .cfa: $rsp 16 +
STACK CFI 22dfe .cfa: $rbp 16 +
STACK CFI 22e0a .cfa: $rsp 8 +
STACK CFI INIT 22e0c ca .cfa: $rsp 8 + .ra: .cfa -8 + ^
STACK CFI 22e0d $rbp: .cfa -16 + ^ .cfa: $rsp 16 +
STACK CFI 22e10 .cfa: $rbp 16 +
STACK CFI 22e28 $rbx: .cfa -24 + ^
STACK CFI 22ed5 .cfa: $rsp 8 +
STACK CFI INIT 22ed6 25 .cfa: $rsp 8 + .ra: .cfa -8 + ^
STACK CFI 22ed7 $rbp: .cfa -16 + ^ .cfa: $rsp 16 +
STACK CFI 22eda .cfa: $rbp 16 +
STACK CFI 22efa .cfa: $rsp 8 +
STACK CFI INIT 22efb 4d .cfa: $rsp 8 + .ra: .cfa -8 + ^
STACK CFI 22efc $rbp: .cfa -16 + ^ .cfa: $rsp 16 +
STACK CFI 22eff .cfa: $rbp 16 +
STACK CFI 22f13 $rbx: .cfa -24 + ^
STACK CFI 22f47 .cfa: $rsp 8 +
STACK CFI INIT 22f48 38 .cfa: $rsp 8 + .ra: .cfa -8 + ^
STACK CFI 22f49 $rbp: .cfa -16 + ^ .cfa: $rsp 16 +
STACK CFI 22f4c .cfa: $rbp 16 +
STACK CFI 22f7f .cfa: $rsp 8 +
STACK CFI INIT 22f80 3b .cfa: $rsp 8 + .ra: .cfa -8 + ^
STACK CFI 22f81 $rbp: .cfa -16 + ^ .cfa: $rsp 16 +
STACK CFI 22f84 .cfa: $rbp 16 +
STACK CFI 22fa5 $rbx: .cfa -24 + ^
STACK CFI 22fba .cfa: $rsp 8 +
STACK CFI INIT 22fbc 1e .cfa: $rsp 8 + .ra: .cfa -8 + ^
STACK CFI 22fbd $rbp: .cfa -16 + ^ .cfa: $rsp 16 +
STACK CFI 22fc0 .cfa: $rbp 16 +
STACK CFI 22fd9 .cfa: $rsp 8 +
STACK CFI INIT 22fda 1c .cfa: $rsp 8 + .ra: .cfa -8 + ^
STACK CFI 22fdb $rbp: .cfa -16 + ^ .cfa: $rsp 16 +
STACK CFI 22fde .cfa: $rbp 16 +
STACK CFI 22ff5 .cfa: $rsp 8 +
STACK CFI INIT 22ff6 1c .cfa: $rsp 8 + .ra: .cfa -8 + ^
STACK CFI 22ff7 $rbp: .cfa -16 + ^ .cfa: $rsp 16 +
STACK CFI 22ffa .cfa: $rbp 16 +
STACK CFI 23011 .cfa: $rsp 8 +
STACK CFI INIT 23012 e .cfa: $rsp 8 + .ra: .cfa -8 + ^
STACK CFI 23013 $rbp: .cfa -16 + ^ .cfa: $rsp 16 +
STACK CFI 23016 .cfa: $rbp 16 +
STACK CFI 2301f .cfa: $rsp 8 +
STACK CFI INIT 23020 12 .cfa: $rsp 8 + .ra: .cfa -8 + ^
STACK CFI 23021 $rbp: .cfa -16 + ^ .cfa: $rsp 16 +
STACK CFI 23024 .cfa: $rbp 16 +
STACK CFI 23031 .cfa: $rsp 8 +
STACK CFI INIT 23032 92 .cfa: $rsp 8 + .ra: .cfa -8 + ^
STACK CFI 23033 $rbp: .cfa -16 + ^ .cfa: $rsp 16 +
STACK CFI 23036 .cfa: $rbp 16 +
STACK CFI 230c3 .cfa: $rsp 8 +
STACK CFI INIT 230c4 2c .cfa: $rsp 8 + .ra: .cfa -8 + ^
STACK CFI 230c5 $rbp: .cfa -16 + ^ .cfa: $rsp 16 +
STACK CFI 230c8 .cfa: $rbp 16 +
STACK CFI 230ef .cfa: $rsp 8 +
STACK CFI INIT 230f0 22 .cfa: $rsp 8 + .ra: .cfa -8 + ^
STACK CFI 230f1 $rbp: .cfa -16 + ^ .cfa: $rsp 16 +
STACK CFI 230f4 .cfa: $rbp 16 +
STACK CFI 23111 .cfa: $rsp 8 +
STACK CFI INIT 23112 19 .cfa: $rsp 8 + .ra: .cfa -8 + ^
STACK CFI 23113 $rbp: .cfa -16 + ^ .cfa: $rsp 16 +
STACK CFI 23116 .cfa: $rbp 16 +
STACK CFI 2312a .cfa: $rsp 8 +
STACK CFI INIT 2312c 12 .cfa: $rsp 8 + .ra: .cfa -8 + ^
STACK CFI 2312d $rbp: .cfa -16 + ^ .cfa: $rsp 16 +
STACK CFI 23130 .cfa: $rbp 16 +
STACK CFI 2313d .cfa: $rsp 8 +
STACK CFI INIT 2313e 12 .cfa: $rsp 8 + .ra: .cfa -8 + ^
STACK CFI 2313f $rbp: .cfa -16 + ^ .cfa: $rsp 16 +
STACK CFI 23142 .cfa: $rbp 16 +
STACK CFI 2314f .cfa: $rsp 8 +
STACK CFI INIT 23150 12 .cfa: $rsp 8 + .ra: .cfa -8 + ^
STACK CFI 23151 $rbp: .cfa -16 + ^ .cfa: $rsp 16 +
STACK CFI 23154 .cfa: $rbp 16 +
STACK CFI 23161 .cfa: $rsp 8 +
STACK CFI INIT 23162 12 .cfa: $rsp 8 + .ra: .cfa -8 + ^
STACK CFI 23163 $rbp: .cfa -16 + ^ .cfa: $rsp 16 +
STACK CFI 23166 .cfa: $rbp 16 +
STACK CFI 23173 .cfa: $rsp 8 +
STACK CFI INIT 23174 2c .cfa: $rsp 8 + .ra: .cfa -8 + ^
STACK CFI 23175 $rbp: .cfa -16 + ^ .cfa: $rsp 16 +
STACK CFI 23178 .cfa: $rbp 16 +
STACK CFI 2319f .cfa: $rsp 8 +
STACK CFI INIT 231a0 2c .cfa: $rsp 8 + .ra: .cfa -8 + ^
STACK CFI 231a1 $rbp: .cfa -16 + ^ .cfa: $rsp 16 +
STACK CFI 231a4 .cfa: $rbp 16 +
STACK CFI 231cb .cfa: $rsp 8 +
STACK CFI INIT 231cc e3 .cfa: $rsp 8 + .ra: .cfa -8 + ^
STACK CFI 231cd $rbp: .cfa -16 + ^ .cfa: $rsp 16 +
STACK CFI 231d0 .cfa: $rbp 16 +
STACK CFI 231ec $rbx: .cfa -24 + ^
STACK CFI 232ae .cfa: $rsp 8 +
STACK CFI INIT 232b0 2e .cfa: $rsp 8 + .ra: .cfa -8 + ^
STACK CFI 232b1 $rbp: .cfa -16 + ^ .cfa: $rsp 16 +
STACK CFI 232b4 .cfa: $rbp 16 +
STACK CFI 232dd .cfa: $rsp 8 +
STACK CFI INIT 232de 28 .cfa: $rsp 8 + .ra: .cfa -8 + ^
STACK CFI 232df $rbp: .cfa -16 + ^ .cfa: $rsp 16 +
STACK CFI 232e2 .cfa: $rbp 16 +
STACK CFI 23305 .cfa: $rsp 8 +
STACK CFI INIT 23306 1a .cfa: $rsp 8 + .ra: .cfa -8 + ^
STACK CFI 23307 $rbp: .cfa -16 + ^ .cfa: $rsp 16 +
STACK CFI 2330a .cfa: $rbp 16 +
STACK CFI 2331f .cfa: $rsp 8 +
STACK CFI INIT 23320 a .cfa: $rsp 8 + .ra: .cfa -8 + ^
STACK CFI 23321 $rbp: .cfa -16 + ^ .cfa: $rsp 16 +
STACK CFI 23324 .cfa: $rbp 16 +
STACK CFI 23329 .cfa: $rsp 8 +
STACK CFI INIT 2332a 22 .cfa: $rsp 8 + .ra: .cfa -8 + ^
STACK CFI 2332b $rbp: .cfa -16 + ^ .cfa: $rsp 16 +
STACK CFI 2332e .cfa: $rbp 16 +
STACK CFI 2334b .cfa: $rsp 8 +
STACK CFI INIT 2334c 37 .cfa: $rsp 8 + .ra: .cfa -8 + ^
STACK CFI 2334d $rbp: .cfa -16 + ^ .cfa: $rsp 16 +
STACK CFI 23350 .cfa: $rbp 16 +
STACK CFI 23382 .cfa: $rsp 8 +
STACK CFI INIT 23384 1a .cfa: $rsp 8 + .ra: .cfa -8 + ^
STACK CFI 23385 $rbp: .cfa -16 + ^ .cfa: $rsp 16 +
STACK CFI 23388 .cfa: $rbp 16 +
STACK CFI 2339d .cfa: $rsp 8 +
STACK CFI INIT 2339e 41 .cfa: $rsp 8 + .ra: .cfa -8 + ^
STACK CFI 2339f $rbp: .cfa -16 + ^ .cfa: $rsp 16 +
STACK CFI 233a2 .cfa: $rbp 16 +
STACK CFI 233de .cfa: $rsp 8 +
STACK CFI INIT 233e0 3b .cfa: $rsp 8 + .ra: .cfa -8 + ^
STACK CFI 233e1 $rbp: .cfa -16 + ^ .cfa: $rsp 16 +
STACK CFI 233e4 .cfa: $rbp 16 +
STACK CFI 233ee $r12: .cfa -24 + ^ $rbx: .cfa -32 + ^
STACK CFI 2341a .cfa: $rsp 8 +
STACK CFI INIT 2341c 1a .cfa: $rsp 8 + .ra: .cfa -8 + ^
STACK CFI 2341d $rbp: .cfa -16 + ^ .cfa: $rsp 16 +
STACK CFI 23420 .cfa: $rbp 16 +
STACK CFI 23435 .cfa: $rsp 8 +
STACK CFI INIT 23436 1e .cfa: $rsp 8 + .ra: .cfa -8 + ^
STACK CFI 23437 $rbp: .cfa -16 + ^ .cfa: $rsp 16 +
STACK CFI 2343a .cfa: $rbp 16 +
STACK CFI 23453 .cfa: $rsp 8 +
STACK CFI INIT 23454 2a .cfa: $rsp 8 + .ra: .cfa -8 + ^
STACK CFI 23455 $rbp: .cfa -16 + ^ .cfa: $rsp 16 +
STACK CFI 23458 .cfa: $rbp 16 +
STACK CFI 2347d .cfa: $rsp 8 +
STACK CFI INIT 2347e 2d .cfa: $rsp 8 + .ra: .cfa -8 + ^
STACK CFI 2347f $rbp: .cfa -16 + ^ .cfa: $rsp 16 +
STACK CFI 23482 .cfa: $rbp 16 +
STACK CFI 234aa .cfa: $rsp 8 +
STACK CFI INIT 234ab e .cfa: $rsp 8 + .ra: .cfa -8 + ^
STACK CFI 234ac $rbp: .cfa -16 + ^ .cfa: $rsp 16 +
STACK CFI 234af .cfa: $rbp 16 +
STACK CFI 234b8 .cfa: $rsp 8 +
STACK CFI INIT 234b9 58 .cfa: $rsp 8 + .ra: .cfa -8 + ^
STACK CFI 234ba $rbp: .cfa -16 + ^ .cfa: $rsp 16 +
STACK CFI 234bd .cfa: $rbp 16 +
STACK CFI 234d7 $r12: .cfa -24 + ^ $rbx: .cfa -32 + ^
STACK CFI 23510 .cfa: $rsp 8 +
STACK CFI INIT 23512 22 .cfa: $rsp 8 + .ra: .cfa -8 + ^
STACK CFI 23513 $rbp: .cfa -16 + ^ .cfa: $rsp 16 +
STACK CFI 23516 .cfa: $rbp 16 +
STACK CFI 23533 .cfa: $rsp 8 +
STACK CFI INIT 23534 63 .cfa: $rsp 8 + .ra: .cfa -8 + ^
STACK CFI 23535 $rbp: .cfa -16 + ^ .cfa: $rsp 16 +
STACK CFI 23538 .cfa: $rbp 16 +
STACK CFI 23596 .cfa: $rsp 8 +
STACK CFI INIT 23597 31 .cfa: $rsp 8 + .ra: .cfa -8 + ^
STACK CFI 23598 $rbp: .cfa -16 + ^ .cfa: $rsp 16 +
STACK CFI 2359b .cfa: $rbp 16 +
STACK CFI 235c7 .cfa: $rsp 8 +
STACK CFI INIT 235c8 12 .cfa: $rsp 8 + .ra: .cfa -8 + ^
STACK CFI 235c9 $rbp: .cfa -16 + ^ .cfa: $rsp 16 +
STACK CFI 235cc .cfa: $rbp 16 +
STACK CFI 235d9 .cfa: $rsp 8 +
STACK CFI INIT 235da 12 .cfa: $rsp 8 + .ra: .cfa -8 + ^
STACK CFI 235db $rbp: .cfa -16 + ^ .cfa: $rsp 16 +
STACK CFI 235de .cfa: $rbp 16 +
STACK CFI 235eb .cfa: $rsp 8 +
STACK CFI INIT 235ec bd .cfa: $rsp 8 + .ra: .cfa -8 + ^
STACK CFI 235ed $rbp: .cfa -16 + ^ .cfa: $rsp 16 +
STACK CFI 235f0 .cfa: $rbp 16 +
STACK CFI 23606 $r12: .cfa -24 + ^ $rbx: .cfa -32 + ^
STACK CFI 23670 .cfa: $rsp 8 +
STACK CFI 23671 .cfa: $rbp 16 +
STACK CFI INIT 236aa a .cfa: $rsp 8 + .ra: .cfa -8 + ^
STACK CFI 236ab $rbp: .cfa -16 + ^ .cfa: $rsp 16 +
STACK CFI 236ae .cfa: $rbp 16 +
STACK CFI 236b3 .cfa: $rsp 8 +
STACK CFI INIT 236b4 1a .cfa: $rsp 8 + .ra: .cfa -8 + ^
STACK CFI 236b5 $rbp: .cfa -16 + ^ .cfa: $rsp 16 +
STACK CFI 236b8 .cfa: $rbp 16 +
STACK CFI 236cd .cfa: $rsp 8 +
STACK CFI INIT 236ce a .cfa: $rsp 8 + .ra: .cfa -8 + ^
STACK CFI 236cf $rbp: .cfa -16 + ^ .cfa: $rsp 16 +
STACK CFI 236d2 .cfa: $rbp 16 +
STACK CFI 236d7 .cfa: $rsp 8 +
STACK CFI INIT 236d8 e .cfa: $rsp 8 + .ra: .cfa -8 + ^
STACK CFI 236d9 $rbp: .cfa -16 + ^ .cfa: $rsp 16 +
STACK CFI 236dc .cfa: $rbp 16 +
STACK CFI 236e5 .cfa: $rsp 8 +
STACK CFI INIT 236e6 1e .cfa: $rsp 8 + .ra: .cfa -8 + ^
STACK CFI 236e7 $rbp: .cfa -16 + ^ .cfa: $rsp 16 +
STACK CFI 236ea .cfa: $rbp 16 +
STACK CFI 23703 .cfa: $rsp 8 +
STACK CFI INIT 23704 a .cfa: $rsp 8 + .ra: .cfa -8 + ^
STACK CFI 23705 $rbp: .cfa -16 + ^ .cfa: $rsp 16 +
STACK CFI 23708 .cfa: $rbp 16 +
STACK CFI 2370d .cfa: $rsp 8 +
STACK CFI INIT 2370e 22 .cfa: $rsp 8 + .ra: .cfa -8 + ^
STACK CFI 2370f $rbp: .cfa -16 + ^ .cfa: $rsp 16 +
STACK CFI 23712 .cfa: $rbp 16 +
STACK CFI 2372f .cfa: $rsp 8 +
STACK CFI INIT 23730 2d .cfa: $rsp 8 + .ra: .cfa -8 + ^
STACK CFI 23731 $rbp: .cfa -16 + ^ .cfa: $rsp 16 +
STACK CFI 23734 .cfa: $rbp 16 +
STACK CFI 2375c .cfa: $rsp 8 +
STACK CFI INIT 2375d e .cfa: $rsp 8 + .ra: .cfa -8 + ^
STACK CFI 2375e $rbp: .cfa -16 + ^ .cfa: $rsp 16 +
STACK CFI 23761 .cfa: $rbp 16 +
STACK CFI 2376a .cfa: $rsp 8 +
STACK CFI INIT 2376b 31 .cfa: $rsp 8 + .ra: .cfa -8 + ^
STACK CFI 2376c $rbp: .cfa -16 + ^ .cfa: $rsp 16 +
STACK CFI 2376f .cfa: $rbp 16 +
STACK CFI 2379b .cfa: $rsp 8 +
STACK CFI INIT 2379c e .cfa: $rsp 8 + .ra: .cfa -8 + ^
STACK CFI 2379d $rbp: .cfa -16 + ^ .cfa: $rsp 16 +
STACK CFI 237a0 .cfa: $rbp 16 +
STACK CFI 237a9 .cfa: $rsp 8 +
STACK CFI INIT 237aa 14 .cfa: $rsp 8 + .ra: .cfa -8 + ^
STACK CFI 237ab $rbp: .cfa -16 + ^ .cfa: $rsp 16 +
STACK CFI 237ae .cfa: $rbp 16 +
STACK CFI 237bd .cfa: $rsp 8 +
STACK CFI INIT 237be 2d .cfa: $rsp 8 + .ra: .cfa -8 + ^
STACK CFI 237bf $rbp: .cfa -16 + ^ .cfa: $rsp 16 +
STACK CFI 237c2 .cfa: $rbp 16 +
STACK CFI 237ea .cfa: $rsp 8 +
STACK CFI INIT 237ec 24 .cfa: $rsp 8 + .ra: .cfa -8 + ^
STACK CFI 237ed $rbp: .cfa -16 + ^ .cfa: $rsp 16 +
STACK CFI 237f0 .cfa: $rbp 16 +
STACK CFI 2380f .cfa: $rsp 8 +
STACK CFI INIT 23810 6b .cfa: $rsp 8 + .ra: .cfa -8 + ^
STACK CFI 23811 $rbp: .cfa -16 + ^ .cfa: $rsp 16 +
STACK CFI 23814 .cfa: $rbp 16 +
STACK CFI 23831 $r12: .cfa -24 + ^ $rbx: .cfa -32 + ^
STACK CFI 2387a .cfa: $rsp 8 +
STACK CFI INIT 2387c 77 .cfa: $rsp 8 + .ra: .cfa -8 + ^
STACK CFI 2387d $rbp: .cfa -16 + ^ .cfa: $rsp 16 +
STACK CFI 23880 .cfa: $rbp 16 +
STACK CFI 2389b $r12: .cfa -40 + ^ $r13: .cfa -32 + ^ $r14: .cfa -24 + ^ $rbx: .cfa -48 + ^
STACK CFI 238f2 .cfa: $rsp 8 +
STACK CFI INIT 238f4 a .cfa: $rsp 8 + .ra: .cfa -8 + ^
STACK CFI 238f5 $rbp: .cfa -16 + ^ .cfa: $rsp 16 +
STACK CFI 238f8 .cfa: $rbp 16 +
STACK CFI 238fd .cfa: $rsp 8 +
STACK CFI INIT 238fe 35 .cfa: $rsp 8 + .ra: .cfa -8 + ^
STACK CFI 238ff $rbp: .cfa -16 + ^ .cfa: $rsp 16 +
STACK CFI 23902 .cfa: $rbp 16 +
STACK CFI 23932 .cfa: $rsp 8 +
STACK CFI INIT 23933 6d .cfa: $rsp 8 + .ra: .cfa -8 + ^
STACK CFI 23934 $rbp: .cfa -16 + ^ .cfa: $rsp 16 +
STACK CFI 23937 .cfa: $rbp 16 +
STACK CFI 2399f .cfa: $rsp 8 +
STACK CFI INIT 239a0 98 .cfa: $rsp 8 + .ra: .cfa -8 + ^
STACK CFI 239a1 $rbp: .cfa -16 + ^ .cfa: $rsp 16 +
STACK CFI 239a4 .cfa: $rbp 16 +
STACK CFI 239c1 $r12: .cfa -24 + ^ $rbx: .cfa -32 + ^
STACK CFI 239ff .cfa: $rsp 8 +
STACK CFI 23a00 .cfa: $rbp 16 +
STACK CFI INIT 23a38 5c .cfa: $rsp 8 + .ra: .cfa -8 + ^
STACK CFI 23a39 $rbp: .cfa -16 + ^ .cfa: $rsp 16 +
STACK CFI 23a3c .cfa: $rbp 16 +
STACK CFI 23a93 .cfa: $rsp 8 +
STACK CFI INIT 23a94 41 .cfa: $rsp 8 + .ra: .cfa -8 + ^
STACK CFI 23a95 $rbp: .cfa -16 + ^ .cfa: $rsp 16 +
STACK CFI 23a98 .cfa: $rbp 16 +
STACK CFI 23ad4 .cfa: $rsp 8 +
STACK CFI INIT 23ad5 de .cfa: $rsp 8 + .ra: .cfa -8 + ^
STACK CFI 23ad6 $rbp: .cfa -16 + ^ .cfa: $rsp 16 +
STACK CFI 23ad9 .cfa: $rbp 16 +
STACK CFI 23af2 $rbx: .cfa -24 + ^
STACK CFI 23bb2 .cfa: $rsp 8 +
STACK CFI INIT 23bb4 14 .cfa: $rsp 8 + .ra: .cfa -8 + ^
STACK CFI 23bb5 $rbp: .cfa -16 + ^ .cfa: $rsp 16 +
STACK CFI 23bb8 .cfa: $rbp 16 +
STACK CFI 23bc7 .cfa: $rsp 8 +
STACK CFI INIT 23bc8 49 .cfa: $rsp 8 + .ra: .cfa -8 + ^
STACK CFI 23bc9 $rbp: .cfa -16 + ^ .cfa: $rsp 16 +
STACK CFI 23bcc .cfa: $rbp 16 +
STACK CFI 23c10 .cfa: $rsp 8 +
STACK CFI INIT 21699 ca .cfa: $rsp 8 + .ra: .cfa -8 + ^
STACK CFI 2169a $rbp: .cfa -16 + ^ .cfa: $rsp 16 +
STACK CFI 2169d .cfa: $rbp 16 +
STACK CFI 216b4 $r12: .cfa -24 + ^ $rbx: .cfa -32 + ^
STACK CFI 21762 .cfa: $rsp 8 +
STACK CFI INIT 21763 15 .cfa: $rsp 8 + .ra: .cfa -8 + ^
STACK CFI 21764 $rbp: .cfa -16 + ^ .cfa: $rsp 16 +
STACK CFI 21767 .cfa: $rbp 16 +
STACK CFI 21777 .cfa: $rsp 8 +
STACK CFI INIT 23c14 db .cfa: $rsp 8 + .ra: .cfa -8 + ^
STACK CFI 23c15 $rbp: .cfa -16 + ^ .cfa: $rsp 16 +
STACK CFI 23c18 .cfa: $rbp 16 +
STACK CFI 23c34 $r12: .cfa -24 + ^ $rbx: .cfa -32 + ^
STACK CFI 23cb2 .cfa: $rsp 8 +
STACK CFI 23cb3 .cfa: $rbp 16 +
STACK CFI INIT 23cf0 7c .cfa: $rsp 8 + .ra: .cfa -8 + ^
STACK CFI 23cf1 $rbp: .cfa -16 + ^ .cfa: $rsp 16 +
STACK CFI 23cf4 .cfa: $rbp 16 +
STACK CFI 23d1c $r12: .cfa -24 + ^ $rbx: .cfa -32 + ^
STACK CFI 23d6b .cfa: $rsp 8 +
STACK CFI INIT 23d6c 26 .cfa: $rsp 8 + .ra: .cfa -8 + ^
STACK CFI 23d6d $rbp: .cfa -16 + ^ .cfa: $rsp 16 +
STACK CFI 23d70 .cfa: $rbp 16 +
STACK CFI 23d91 .cfa: $rsp 8 +
STACK CFI INIT 23d92 17d .cfa: $rsp 8 + .ra: .cfa -8 + ^
STACK CFI 23d93 $rbp: .cfa -16 + ^ .cfa: $rsp 16 +
STACK CFI 23d96 .cfa: $rbp 16 +
STACK CFI 23db0 $r12: .cfa -24 + ^ $rbx: .cfa -32 + ^
STACK CFI 23f0e .cfa: $rsp 8 +
STACK CFI INIT 23f10 15d .cfa: $rsp 8 + .ra: .cfa -8 + ^
STACK CFI 23f11 $rbp: .cfa -16 + ^ .cfa: $rsp 16 +
STACK CFI 23f14 .cfa: $rbp 16 +
STACK CFI 23f61 $r12: .cfa -24 + ^ $rbx: .cfa -32 + ^
STACK CFI 2406c .cfa: $rsp 8 +
STACK CFI INIT 2406e e8 .cfa: $rsp 8 + .ra: .cfa -8 + ^
STACK CFI 2406f $rbp: .cfa -16 + ^ .cfa: $rsp 16 +
STACK CFI 24072 .cfa: $rbp 16 +
STACK CFI 24099 $r12: .cfa -24 + ^ $rbx: .cfa -32 + ^
STACK CFI 24155 .cfa: $rsp 8 +
STACK CFI INIT 24156 2c .cfa: $rsp 8 + .ra: .cfa -8 + ^
STACK CFI 24157 $rbp: .cfa -16 + ^ .cfa: $rsp 16 +
STACK CFI 2415a .cfa: $rbp 16 +
STACK CFI 24181 .cfa: $rsp 8 +
STACK CFI INIT 24182 48 .cfa: $rsp 8 + .ra: .cfa -8 + ^
STACK CFI 24183 $rbp: .cfa -16 + ^ .cfa: $rsp 16 +
STACK CFI 24186 .cfa: $rbp 16 +
STACK CFI 241c9 .cfa: $rsp 8 +
STACK CFI INIT 241ca 15 .cfa: $rsp 8 + .ra: .cfa -8 + ^
STACK CFI 241cb $rbp: .cfa -16 + ^ .cfa: $rsp 16 +
STACK CFI 241ce .cfa: $rbp 16 +
STACK CFI 241de .cfa: $rsp 8 +
STACK CFI INIT 241e0 91 .cfa: $rsp 8 + .ra: .cfa -8 + ^
STACK CFI 241e1 $rbp: .cfa -16 + ^ .cfa: $rsp 16 +
STACK CFI 241e4 .cfa: $rbp 16 +
STACK CFI 241f6 $r12: .cfa -24 + ^ $rbx: .cfa -32 + ^
STACK CFI 24251 .cfa: $rsp 8 +
STACK CFI 24252 .cfa: $rbp 16 +
STACK CFI INIT 24272 7e .cfa: $rsp 8 + .ra: .cfa -8 + ^
STACK CFI 24273 $rbp: .cfa -16 + ^ .cfa: $rsp 16 +
STACK CFI 24276 .cfa: $rbp 16 +
STACK CFI 242a0 $r12: .cfa -24 + ^ $rbx: .cfa -32 + ^
STACK CFI 242ef .cfa: $rsp 8 +
STACK CFI INIT 242f0 26 .cfa: $rsp 8 + .ra: .cfa -8 + ^
STACK CFI 242f1 $rbp: .cfa -16 + ^ .cfa: $rsp 16 +
STACK CFI 242f4 .cfa: $rbp 16 +
STACK CFI 24315 .cfa: $rsp 8 +
STACK CFI INIT 24316 18f .cfa: $rsp 8 + .ra: .cfa -8 + ^
STACK CFI 24317 $rbp: .cfa -16 + ^ .cfa: $rsp 16 +
STACK CFI 2431a .cfa: $rbp 16 +
STACK CFI 2432c $r12: .cfa -32 + ^ $r13: .cfa -24 + ^ $rbx: .cfa -40 + ^
STACK CFI 244a4 .cfa: $rsp 8 +
STACK CFI INIT 244a6 622 .cfa: $rsp 8 + .ra: .cfa -8 + ^
STACK CFI 244a7 $rbp: .cfa -16 + ^ .cfa: $rsp 16 +
STACK CFI 244aa .cfa: $rbp 16 +
STACK CFI 244c7 $r12: .cfa -32 + ^ $r13: .cfa -24 + ^ $rbx: .cfa -40 + ^
STACK CFI 24ac7 .cfa: $rsp 8 +
STACK CFI INIT 24ac8 581 .cfa: $rsp 8 + .ra: .cfa -8 + ^
STACK CFI 24ac9 $rbp: .cfa -16 + ^ .cfa: $rsp 16 +
STACK CFI 24acc .cfa: $rbp 16 +
STACK CFI 24aec $r12: .cfa -24 + ^ $rbx: .cfa -32 + ^
STACK CFI 25048 .cfa: $rsp 8 +
STACK CFI INIT 2504a 20b .cfa: $rsp 8 + .ra: .cfa -8 + ^
STACK CFI 2504b $rbp: .cfa -16 + ^ .cfa: $rsp 16 +
STACK CFI 2504e .cfa: $rbp 16 +
STACK CFI 25064 $rbx: .cfa -24 + ^
STACK CFI 25254 .cfa: $rsp 8 +
STACK CFI INIT 25256 11f .cfa: $rsp 8 + .ra: .cfa -8 + ^
STACK CFI 25257 $rbp: .cfa -16 + ^ .cfa: $rsp 16 +
STACK CFI 2525a .cfa: $rbp 16 +
STACK CFI 25266 $r12: .cfa -32 + ^ $r13: .cfa -24 + ^ $rbx: .cfa -40 + ^
STACK CFI 25355 .cfa: $rsp 8 +
STACK CFI 25356 .cfa: $rbp 16 +
STACK CFI INIT 25376 11f .cfa: $rsp 8 + .ra: .cfa -8 + ^
STACK CFI 25377 $rbp: .cfa -16 + ^ .cfa: $rsp 16 +
STACK CFI 2537a .cfa: $rbp 16 +
STACK CFI 25386 $r12: .cfa -32 + ^ $r13: .cfa -24 + ^ $rbx: .cfa -40 + ^
STACK CFI 25475 .cfa: $rsp 8 +
STACK CFI 25476 .cfa: $rbp 16 +
STACK CFI INIT 25496 11f .cfa: $rsp 8 + .ra: .cfa -8 + ^
STACK CFI 25497 $rbp: .cfa -16 + ^ .cfa: $rsp 16 +
STACK CFI 2549a .cfa: $rbp 16 +
STACK CFI 254a6 $r12: .cfa -32 + ^ $r13: .cfa -24 + ^ $rbx: .cfa -40 + ^
STACK CFI 25595 .cfa: $rsp 8 +
STACK CFI 25596 .cfa: $rbp 16 +
STACK CFI INIT 255b6 2a7 .cfa: $rsp 8 + .ra: .cfa -8 + ^
STACK CFI 255b7 $rbp: .cfa -16 + ^ .cfa: $rsp 16 +
STACK CFI 255ba .cfa: $rbp 16 +
STACK CFI 255c6 $r12: .cfa -32 + ^ $r13: .cfa -24 + ^ $rbx: .cfa -40 + ^
STACK CFI 2583d .cfa: $rsp 8 +
STACK CFI 2583e .cfa: $rbp 16 +
STACK CFI INIT 2585e 2e1 .cfa: $rsp 8 + .ra: .cfa -8 + ^
STACK CFI 2585f $rbp: .cfa -16 + ^ .cfa: $rsp 16 +
STACK CFI 25862 .cfa: $rbp 16 +
STACK CFI 2586e $r12: .cfa -32 + ^ $r13: .cfa -24 + ^ $rbx: .cfa -40 + ^
STACK CFI 25b1f .cfa: $rsp 8 +
STACK CFI 25b20 .cfa: $rbp 16 +
STACK CFI INIT 25b40 15b .cfa: $rsp 8 + .ra: .cfa -8 + ^
STACK CFI 25b41 $rbp: .cfa -16 + ^ .cfa: $rsp 16 +
STACK CFI 25b44 .cfa: $rbp 16 +
STACK CFI 25b6f $rbx: .cfa -24 + ^
STACK CFI 25c9a .cfa: $rsp 8 +
STACK CFI INIT 25c9c 379 .cfa: $rsp 8 + .ra: .cfa -8 + ^
STACK CFI 25c9d $rbp: .cfa -16 + ^ .cfa: $rsp 16 +
STACK CFI 25ca0 .cfa: $rbp 16 +
STACK CFI 25d30 $r12: .cfa -24 + ^ $rbx: .cfa -32 + ^
STACK CFI 26014 .cfa: $rsp 8 +
STACK CFI INIT 26016 120 .cfa: $rsp 8 + .ra: .cfa -8 + ^
STACK CFI 26017 $rbp: .cfa -16 + ^ .cfa: $rsp 16 +
STACK CFI 2601a .cfa: $rbp 16 +
STACK CFI 2604e $r12: .cfa -24 + ^ $rbx: .cfa -32 + ^
STACK CFI 26135 .cfa: $rsp 8 +
STACK CFI INIT 26136 82f .cfa: $rsp 8 + .ra: .cfa -8 + ^
STACK CFI 26137 $rbp: .cfa -16 + ^ .cfa: $rsp 16 +
STACK CFI 2613a .cfa: $rbp 16 +
STACK CFI 2618d $r12: .cfa -24 + ^ $rbx: .cfa -32 + ^
STACK CFI 26964 .cfa: $rsp 8 +
STACK CFI INIT 26966 2fe .cfa: $rsp 8 + .ra: .cfa -8 + ^
STACK CFI 26967 $rbp: .cfa -16 + ^ .cfa: $rsp 16 +
STACK CFI 2696a .cfa: $rbp 16 +
STACK CFI 269f7 $r12: .cfa -24 + ^ $rbx: .cfa -32 + ^
STACK CFI 26c63 .cfa: $rsp 8 +
STACK CFI INIT 26c64 3c .cfa: $rsp 8 + .ra: .cfa -8 + ^
STACK CFI 26c65 $rbp: .cfa -16 + ^ .cfa: $rsp 16 +
STACK CFI 26c68 .cfa: $rbp 16 +
STACK CFI 26c86 $rbx: .cfa -24 + ^
STACK CFI 26c9f .cfa: $rsp 8 +
STACK CFI INIT 26ca0 391 .cfa: $rsp 8 + .ra: .cfa -8 + ^
STACK CFI 26ca1 $rbp: .cfa -16 + ^ .cfa: $rsp 16 +
STACK CFI 26ca4 .cfa: $rbp 16 +
STACK CFI 26d2e $r12: .cfa -24 + ^ $rbx: .cfa -32 + ^
STACK CFI 27030 .cfa: $rsp 8 +
STACK CFI INIT 27032 388 .cfa: $rsp 8 + .ra: .cfa -8 + ^
STACK CFI 27033 $rbp: .cfa -16 + ^ .cfa: $rsp 16 +
STACK CFI 27036 .cfa: $rbp 16 +
STACK CFI 270cd $r12: .cfa -24 + ^ $rbx: .cfa -32 + ^
STACK CFI 273b9 .cfa: $rsp 8 +
STACK CFI INIT 273ba 465 .cfa: $rsp 8 + .ra: .cfa -8 + ^
STACK CFI 273bb $rbp: .cfa -16 + ^ .cfa: $rsp 16 +
STACK CFI 273be .cfa: $rbp 16 +
STACK CFI 27459 $r12: .cfa -24 + ^ $rbx: .cfa -32 + ^
STACK CFI 2781e .cfa: $rsp 8 +
STACK CFI INIT 27820 8e .cfa: $rsp 8 + .ra: .cfa -8 + ^
STACK CFI 27821 $rbp: .cfa -16 + ^ .cfa: $rsp 16 +
STACK CFI 27824 .cfa: $rbp 16 +
STACK CFI 2782f $r12: .cfa -24 + ^ $rbx: .cfa -32 + ^
STACK CFI 278ad .cfa: $rsp 8 +
STACK CFI INIT 278ae 14 .cfa: $rsp 8 + .ra: .cfa -8 + ^
STACK CFI 278af $rbp: .cfa -16 + ^ .cfa: $rsp 16 +
STACK CFI 278b2 .cfa: $rbp 16 +
STACK CFI 278c1 .cfa: $rsp 8 +
STACK CFI INIT 278c2 14 .cfa: $rsp 8 + .ra: .cfa -8 + ^
STACK CFI 278c3 $rbp: .cfa -16 + ^ .cfa: $rsp 16 +
STACK CFI 278c6 .cfa: $rbp 16 +
STACK CFI 278d5 .cfa: $rsp 8 +
STACK CFI INIT 278d6 ca .cfa: $rsp 8 + .ra: .cfa -8 + ^
STACK CFI 278d7 $rbp: .cfa -16 + ^ .cfa: $rsp 16 +
STACK CFI 278da .cfa: $rbp 16 +
STACK CFI 278f1 $r12: .cfa -24 + ^ $rbx: .cfa -32 + ^
STACK CFI 2799f .cfa: $rsp 8 +
STACK CFI INIT 279a0 15 .cfa: $rsp 8 + .ra: .cfa -8 + ^
STACK CFI 279a1 $rbp: .cfa -16 + ^ .cfa: $rsp 16 +
STACK CFI 279a4 .cfa: $rbp 16 +
STACK CFI 279b4 .cfa: $rsp 8 +
STACK CFI INIT 279b8 107 .cfa: $rsp 8 + .ra: .cfa -8 + ^
STACK CFI 279b9 $rbp: .cfa -16 + ^ .cfa: $rsp 16 +
STACK CFI 279bc .cfa: $rbp 16 +
STACK CFI 279dc $r12: .cfa -24 + ^ $rbx: .cfa -32 + ^
STACK CFI 27a82 .cfa: $rsp 8 +
STACK CFI 27a83 .cfa: $rbp 16 +
STACK CFI INIT 27ac0 7c .cfa: $rsp 8 + .ra: .cfa -8 + ^
STACK CFI 27ac1 $rbp: .cfa -16 + ^ .cfa: $rsp 16 +
STACK CFI 27ac4 .cfa: $rbp 16 +
STACK CFI 27aec $r12: .cfa -24 + ^ $rbx: .cfa -32 + ^
STACK CFI 27b3b .cfa: $rsp 8 +
STACK CFI INIT 27b3c 26 .cfa: $rsp 8 + .ra: .cfa -8 + ^
STACK CFI 27b3d $rbp: .cfa -16 + ^ .cfa: $rsp 16 +
STACK CFI 27b40 .cfa: $rbp 16 +
STACK CFI 27b61 .cfa: $rsp 8 +
STACK CFI INIT 27b62 139 .cfa: $rsp 8 + .ra: .cfa -8 + ^
STACK CFI 27b63 $rbp: .cfa -16 + ^ .cfa: $rsp 16 +
STACK CFI 27b66 .cfa: $rbp 16 +
STACK CFI 27b80 $r12: .cfa -24 + ^ $rbx: .cfa -32 + ^
STACK CFI 27c9a .cfa: $rsp 8 +
STACK CFI INIT 27c9c c3 .cfa: $rsp 8 + .ra: .cfa -8 + ^
STACK CFI 27c9d $rbp: .cfa -16 + ^ .cfa: $rsp 16 +
STACK CFI 27ca0 .cfa: $rbp 16 +
STACK CFI 27cd6 $r12: .cfa -24 + ^ $rbx: .cfa -32 + ^
STACK CFI 27d5e .cfa: $rsp 8 +
STACK CFI INIT 27d60 ce .cfa: $rsp 8 + .ra: .cfa -8 + ^
STACK CFI 27d61 $rbp: .cfa -16 + ^ .cfa: $rsp 16 +
STACK CFI 27d64 .cfa: $rbp 16 +
STACK CFI 27d96 $r12: .cfa -24 + ^ $rbx: .cfa -32 + ^
STACK CFI 27e2d .cfa: $rsp 8 +
STACK CFI INIT 27e2e 2c .cfa: $rsp 8 + .ra: .cfa -8 + ^
STACK CFI 27e2f $rbp: .cfa -16 + ^ .cfa: $rsp 16 +
STACK CFI 27e32 .cfa: $rbp 16 +
STACK CFI 27e59 .cfa: $rsp 8 +
STACK CFI INIT 27e5a 48 .cfa: $rsp 8 + .ra: .cfa -8 + ^
STACK CFI 27e5b $rbp: .cfa -16 + ^ .cfa: $rsp 16 +
STACK CFI 27e5e .cfa: $rbp 16 +
STACK CFI 27ea1 .cfa: $rsp 8 +
STACK CFI INIT 27ea2 15 .cfa: $rsp 8 + .ra: .cfa -8 + ^
STACK CFI 27ea3 $rbp: .cfa -16 + ^ .cfa: $rsp 16 +
STACK CFI 27ea6 .cfa: $rbp 16 +
STACK CFI 27eb6 .cfa: $rsp 8 +
STACK CFI INIT 27eb8 1c .cfa: $rsp 8 + .ra: .cfa -8 + ^
STACK CFI 27eb9 $rbp: .cfa -16 + ^ .cfa: $rsp 16 +
STACK CFI 27ebc .cfa: $rbp 16 +
STACK CFI 27ed3 .cfa: $rsp 8 +
STACK CFI INIT 27ed4 35 .cfa: $rsp 8 + .ra: .cfa -8 + ^
STACK CFI 27ed5 $rbp: .cfa -16 + ^ .cfa: $rsp 16 +
STACK CFI 27ed8 .cfa: $rbp 16 +
STACK CFI 27f08 .cfa: $rsp 8 +
STACK CFI INIT 27f0a 26 .cfa: $rsp 8 + .ra: .cfa -8 + ^
STACK CFI 27f0b $rbp: .cfa -16 + ^ .cfa: $rsp 16 +
STACK CFI 27f0e .cfa: $rbp 16 +
STACK CFI 27f2f .cfa: $rsp 8 +
STACK CFI INIT 27f30 74 .cfa: $rsp 8 + .ra: .cfa -8 + ^
STACK CFI 27f31 $rbp: .cfa -16 + ^ .cfa: $rsp 16 +
STACK CFI 27f34 .cfa: $rbp 16 +
STACK CFI 27f4c $r12: .cfa -32 + ^ $r13: .cfa -24 + ^ $rbx: .cfa -40 + ^
STACK CFI 27fa3 .cfa: $rsp 8 +
STACK CFI INIT 27fa4 2f4 .cfa: $rsp 8 + .ra: .cfa -8 + ^
STACK CFI 27fa5 $rbp: .cfa -16 + ^ .cfa: $rsp 16 +
STACK CFI 27fa8 .cfa: $rbp 16 +
STACK CFI 27fe3 $r12: .cfa -24 + ^ $rbx: .cfa -32 + ^
STACK CFI 28297 .cfa: $rsp 8 +
STACK CFI INIT 28298 96 .cfa: $rsp 8 + .ra: .cfa -8 + ^
STACK CFI 28299 $rbp: .cfa -16 + ^ .cfa: $rsp 16 +
STACK CFI 2829c .cfa: $rbp 16 +
STACK CFI 282bf $rbx: .cfa -24 + ^
STACK CFI 2832d .cfa: $rsp 8 +
STACK CFI INIT 2832e 2b .cfa: $rsp 8 + .ra: .cfa -8 + ^
STACK CFI 2832f $rbp: .cfa -16 + ^ .cfa: $rsp 16 +
STACK CFI 28332 .cfa: $rbp 16 +
STACK CFI 28358 .cfa: $rsp 8 +
STACK CFI INIT 2835a 36 .cfa: $rsp 8 + .ra: .cfa -8 + ^
STACK CFI 2835b $rbp: .cfa -16 + ^ .cfa: $rsp 16 +
STACK CFI 2835e .cfa: $rbp 16 +
STACK CFI 2838f .cfa: $rsp 8 +
STACK CFI INIT 28390 63 .cfa: $rsp 8 + .ra: .cfa -8 + ^
STACK CFI 28391 $rbp: .cfa -16 + ^ .cfa: $rsp 16 +
STACK CFI 28394 .cfa: $rbp 16 +
STACK CFI 283f2 .cfa: $rsp 8 +
STACK CFI INIT 283f4 2b .cfa: $rsp 8 + .ra: .cfa -8 + ^
STACK CFI 283f5 $rbp: .cfa -16 + ^ .cfa: $rsp 16 +
STACK CFI 283f8 .cfa: $rbp 16 +
STACK CFI 2841e .cfa: $rsp 8 +
STACK CFI INIT 28420 d .cfa: $rsp 8 + .ra: .cfa -8 + ^
STACK CFI 28421 $rbp: .cfa -16 + ^ .cfa: $rsp 16 +
STACK CFI 2842b .cfa: $rbp 16 +
STACK CFI 2842c .cfa: $rsp 8 +
STACK CFI INIT 28430 6 .cfa: $rsp 8 + .ra: .cfa -8 + ^
STACK CFI 28431 $rbp: .cfa -16 + ^ .cfa: $rsp 16 +
STACK CFI 28434 .cfa: $rbp 16 +
STACK CFI 28435 .cfa: $rsp 8 +
STACK CFI INIT 28440 6 .cfa: $rsp 8 + .ra: .cfa -8 + ^
STACK CFI 28441 $rbp: .cfa -16 + ^ .cfa: $rsp 16 +
STACK CFI 28444 .cfa: $rbp 16 +
STACK CFI 28445 .cfa: $rsp 8 +
STACK CFI INIT 28450 29 .cfa: $rsp 8 + .ra: .cfa -8 + ^
STACK CFI 28451 $rbp: .cfa -16 + ^ .cfa: $rsp 16 +
STACK CFI 28469 .cfa: $rbp 16 +
STACK CFI 28478 .cfa: $rsp 8 +
STACK CFI INIT 28480 3e .cfa: $rsp 8 + .ra: .cfa -8 + ^
STACK CFI 28488 $rbp: .cfa -16 + ^ .cfa: $rsp 16 +
STACK CFI 28499 .cfa: $rbp 16 +
STACK CFI 284bd .cfa: $rsp 8 +
STACK CFI INIT 284c0 29 .cfa: $rsp 8 + .ra: .cfa -8 + ^
STACK CFI 284cf $rbp: .cfa -16 + ^ .cfa: $rsp 16 +
STACK CFI 284d2 .cfa: $rbp 16 +
STACK CFI 284e8 .cfa: $rsp 8 +
STACK CFI INIT 284f0 47 .cfa: $rsp 8 + .ra: .cfa -8 + ^
STACK CFI 284f5 $rbp: .cfa -16 + ^ .cfa: $rsp 16 +
STACK CFI 284fa .cfa: $rbp 16 +
STACK CFI 28536 .cfa: $rsp 8 +
STACK CFI INIT 28540 16 .cfa: $rsp 8 + .ra: .cfa -8 + ^
STACK CFI 28541 $rbp: .cfa -16 + ^ .cfa: $rsp 16 +
STACK CFI 28554 .cfa: $rbp 16 +
STACK CFI 28555 .cfa: $rsp 8 +
STACK CFI INIT 28560 12 .cfa: $rsp 8 + .ra: .cfa -8 + ^
STACK CFI 28561 $rbp: .cfa -16 + ^ .cfa: $rsp 16 +
STACK CFI 28570 .cfa: $rbp 16 +
STACK CFI 28571 .cfa: $rsp 8 +
STACK CFI INIT 28580 3e .cfa: $rsp 8 + .ra: .cfa -8 + ^
STACK CFI 28581 $rbp: .cfa -16 + ^ .cfa: $rsp 16 +
STACK CFI 2858e .cfa: $rbp 16 +
STACK CFI 285ba .cfa: $rsp 8 +
STACK CFI INIT 285c0 3e .cfa: $rsp 8 + .ra: .cfa -8 + ^
STACK CFI 285c1 $rbp: .cfa -16 + ^ .cfa: $rsp 16 +
STACK CFI 285ce .cfa: $rbp 16 +
STACK CFI 285fa .cfa: $rsp 8 +
STACK CFI INIT 28600 55 .cfa: $rsp 8 + .ra: .cfa -8 + ^
STACK CFI 28601 $rbp: .cfa -16 + ^ .cfa: $rsp 16 +
STACK CFI 28613 .cfa: $rbp 16 +
STACK CFI 2861d .cfa: $rsp 8 +
STACK CFI 28620 .cfa: $rbp 16 +
STACK CFI 28651 .cfa: $rsp 8 +
STACK CFI INIT 28660 3e .cfa: $rsp 8 + .ra: .cfa -8 + ^
STACK CFI 28661 $rbp: .cfa -16 + ^ .cfa: $rsp 16 +
STACK CFI 2866e .cfa: $rbp 16 +
STACK CFI 2869a .cfa: $rsp 8 +
STACK CFI INIT 286a0 36 .cfa: $rsp 8 + .ra: .cfa -8 + ^
STACK CFI 286a1 $rbp: .cfa -16 + ^ .cfa: $rsp 16 +
STACK CFI 286b3 .cfa: $rbp 16 +
STACK CFI 286d2 .cfa: $rsp 8 +
STACK CFI INIT 286e0 66 .cfa: $rsp 8 + .ra: .cfa -8 + ^
STACK CFI 286e1 $rbp: .cfa -16 + ^ .cfa: $rsp 16 +
STACK CFI 286f3 .cfa: $rbp 16 +
STACK CFI 286f7 $rbx: .cfa -24 + ^
STACK CFI 28726 .cfa: $rsp 8 +
STACK CFI 28730 .cfa: $rbp 16 +
STACK CFI 28744 .cfa: $rsp 8 +
STACK CFI INIT 28750 36 .cfa: $rsp 8 + .ra: .cfa -8 + ^
STACK CFI 28751 $rbp: .cfa -16 + ^ .cfa: $rsp 16 +
STACK CFI 28763 .cfa: $rbp 16 +
STACK CFI 28782 .cfa: $rsp 8 +
STACK CFI INIT 28790 d .cfa: $rsp 8 + .ra: .cfa -8 + ^
STACK CFI 28791 $rbp: .cfa -16 + ^ .cfa: $rsp 16 +
STACK CFI 2879b .cfa: $rbp 16 +
STACK CFI 2879c .cfa: $rsp 8 +
STACK CFI INIT 287a0 d .cfa: $rsp 8 + .ra: .cfa -8 + ^
STACK CFI 287a1 $rbp: .cfa -16 + ^ .cfa: $rsp 16 +
STACK CFI 287ab .cfa: $rbp 16 +
STACK CFI 287ac .cfa: $rsp 8 +
STACK CFI INIT 287b0 c .cfa: $rsp 8 + .ra: .cfa -8 + ^
STACK CFI 287b1 $rbp: .cfa -16 + ^ .cfa: $rsp 16 +
STACK CFI 287ba .cfa: $rbp 16 +
STACK CFI 287bb .cfa: $rsp 8 +
STACK CFI INIT 287c0 d .cfa: $rsp 8 + .ra: .cfa -8 + ^
STACK CFI 287c1 $rbp: .cfa -16 + ^ .cfa: $rsp 16 +
STACK CFI 287cb .cfa: $rbp 16 +
STACK CFI 287cc .cfa: $rsp 8 +
STACK CFI INIT 287d0 b .cfa: $rsp 8 + .ra: .cfa -8 + ^
STACK CFI 287d1 $rbp: .cfa -16 + ^ .cfa: $rsp 16 +
STACK CFI 287d9 .cfa: $rbp 16 +
STACK CFI 287da .cfa: $rsp 8 +
STACK CFI INIT 287e0 d .cfa: $rsp 8 + .ra: .cfa -8 + ^
STACK CFI 287e1 $rbp: .cfa -16 + ^ .cfa: $rsp 16 +
STACK CFI 287eb .cfa: $rbp 16 +
STACK CFI 287ec .cfa: $rsp 8 +
STACK CFI INIT 287f0 10 .cfa: $rsp 8 + .ra: .cfa -8 + ^
STACK CFI 287f1 $rbp: .cfa -16 + ^ .cfa: $rsp 16 +
STACK CFI 287fe .cfa: $rbp 16 +
STACK CFI 287ff .cfa: $rsp 8 +
STACK CFI INIT 28800 a .cfa: $rsp 8 + .ra: .cfa -8 + ^
STACK CFI 28801 $rbp: .cfa -16 + ^ .cfa: $rsp 16 +
STACK CFI 28808 .cfa: $rbp 16 +
STACK CFI 28809 .cfa: $rsp 8 +
STACK CFI INIT 28810 a .cfa: $rsp 8 + .ra: .cfa -8 + ^
STACK CFI 28811 $rbp: .cfa -16 + ^ .cfa: $rsp 16 +
STACK CFI 28818 .cfa: $rbp 16 +
STACK CFI 28819 .cfa: $rsp 8 +
STACK CFI INIT 28820 c .cfa: $rsp 8 + .ra: .cfa -8 + ^
STACK CFI 28821 $rbp: .cfa -16 + ^ .cfa: $rsp 16 +
STACK CFI 2882a .cfa: $rbp 16 +
STACK CFI 2882b .cfa: $rsp 8 +
STACK CFI INIT 28830 c .cfa: $rsp 8 + .ra: .cfa -8 + ^
STACK CFI 28831 $rbp: .cfa -16 + ^ .cfa: $rsp 16 +
STACK CFI 2883a .cfa: $rbp 16 +
STACK CFI 2883b .cfa: $rsp 8 +
STACK CFI INIT 28840 d .cfa: $rsp 8 + .ra: .cfa -8 + ^
STACK CFI 28841 $rbp: .cfa -16 + ^ .cfa: $rsp 16 +
STACK CFI 2884b .cfa: $rbp 16 +
STACK CFI 2884c .cfa: $rsp 8 +
STACK CFI INIT 28850 d .cfa: $rsp 8 + .ra: .cfa -8 + ^
STACK CFI 28851 $rbp: .cfa -16 + ^ .cfa: $rsp 16 +
STACK CFI 2885b .cfa: $rbp 16 +
STACK CFI 2885c .cfa: $rsp 8 +
STACK CFI INIT 28860 24 .cfa: $rsp 8 + .ra: .cfa -8 + ^
STACK CFI 28861 $rbp: .cfa -16 + ^ .cfa: $rsp 16 +
STACK CFI 2886e .cfa: $rbp 16 +
STACK CFI 28871 .cfa: $rsp 8 +
STACK CFI 28878 .cfa: $rbp 16 +
STACK CFI 28883 .cfa: $rsp 8 +
STACK CFI INIT 28890 c .cfa: $rsp 8 + .ra: .cfa -8 + ^
STACK CFI 28891 $rbp: .cfa -16 + ^ .cfa: $rsp 16 +
STACK CFI 2889a .cfa: $rbp 16 +
STACK CFI 2889b .cfa: $rsp 8 +
STACK CFI INIT 288a0 d .cfa: $rsp 8 + .ra: .cfa -8 + ^
STACK CFI 288a1 $rbp: .cfa -16 + ^ .cfa: $rsp 16 +
STACK CFI 288ab .cfa: $rbp 16 +
STACK CFI 288ac .cfa: $rsp 8 +
STACK CFI INIT 288b0 d .cfa: $rsp 8 + .ra: .cfa -8 + ^
STACK CFI 288b1 $rbp: .cfa -16 + ^ .cfa: $rsp 16 +
STACK CFI 288bb .cfa: $rbp 16 +
STACK CFI 288bc .cfa: $rsp 8 +
STACK CFI INIT 288c0 11 .cfa: $rsp 8 + .ra: .cfa -8 + ^
STACK CFI 288c8 $rbp: .cfa -16 + ^ .cfa: $rsp 16 +
STACK CFI 288cb .cfa: $rbp 16 +
STACK CFI 288d0 .cfa: $rsp 8 +
STACK CFI INIT 288e0 90 .cfa: $rsp 8 + .ra: .cfa -8 + ^
STACK CFI 288e8 $rbp: .cfa -16 + ^ .cfa: $rsp 16 +
STACK CFI 288eb .cfa: $rbp 16 +
STACK CFI 2895a .cfa: $rsp 8 +
STACK CFI 28960 .cfa: $rbp 16 +
STACK CFI 2896f .cfa: $rsp 8 +
STACK CFI INIT 28970 b .cfa: $rsp 8 + .ra: .cfa -8 + ^
STACK CFI 28971 $rbp: .cfa -16 + ^ .cfa: $rsp 16 +
STACK CFI 28979 .cfa: $rbp 16 +
STACK CFI 2897a .cfa: $rsp 8 +
STACK CFI INIT 28980 8 .cfa: $rsp 8 + .ra: .cfa -8 + ^
STACK CFI 28981 $rbp: .cfa -16 + ^ .cfa: $rsp 16 +
STACK CFI 28986 .cfa: $rbp 16 +
STACK CFI 28987 .cfa: $rsp 8 +
STACK CFI INIT 28990 67 .cfa: $rsp 8 + .ra: .cfa -8 + ^
STACK CFI 28995 $rbp: .cfa -16 + ^ .cfa: $rsp 16 +
STACK CFI 2899d .cfa: $rbp 16 +
STACK CFI 289f6 .cfa: $rsp 8 +
STACK CFI INIT 28a00 1e0 .cfa: $rsp 8 + .ra: .cfa -8 + ^
STACK CFI 28a01 $rbp: .cfa -16 + ^ .cfa: $rsp 16 +
STACK CFI 28a04 .cfa: $rbp 16 +
STACK CFI 28a09 $r15: .cfa -24 + ^
STACK CFI 28a13 $r12: .cfa -48 + ^ $r13: .cfa -40 + ^ $r14: .cfa -32 + ^ $rbx: .cfa -56 + ^
STACK CFI 28b53 .cfa: $rsp 8 +
STACK CFI 28b58 .cfa: $rbp 16 +
STACK CFI INIT 28be0 8 .cfa: $rsp 8 + .ra: .cfa -8 + ^
STACK CFI 28be1 $rbp: .cfa -16 + ^ .cfa: $rsp 16 +
STACK CFI 28be6 .cfa: $rbp 16 +
STACK CFI 28be7 .cfa: $rsp 8 +
STACK CFI INIT 28bf0 1b .cfa: $rsp 8 + .ra: .cfa -8 + ^
STACK CFI 28bf5 $rbp: .cfa -16 + ^ .cfa: $rsp 16 +
STACK CFI 28bfc .cfa: $rbp 16 +
STACK CFI 28c0a .cfa: $rsp 8 +
STACK CFI INIT 28c10 19 .cfa: $rsp 8 + .ra: .cfa -8 + ^
STACK CFI 28c15 $rbp: .cfa -16 + ^ .cfa: $rsp 16 +
STACK CFI 28c1c .cfa: $rbp 16 +
STACK CFI 28c28 .cfa: $rsp 8 +
STACK CFI INIT 28c30 17 .cfa: $rsp 8 + .ra: .cfa -8 + ^
STACK CFI 28c35 $rbp: .cfa -16 + ^ .cfa: $rsp 16 +
STACK CFI 28c3c .cfa: $rbp 16 +
STACK CFI 28c46 .cfa: $rsp 8 +
STACK CFI INIT 28c50 19 .cfa: $rsp 8 + .ra: .cfa -8 + ^
STACK CFI 28c55 $rbp: .cfa -16 + ^ .cfa: $rsp 16 +
STACK CFI 28c5c .cfa: $rbp 16 +
STACK CFI 28c68 .cfa: $rsp 8 +
STACK CFI INIT 28c70 17 .cfa: $rsp 8 + .ra: .cfa -8 + ^
STACK CFI 28c75 $rbp: .cfa -16 + ^ .cfa: $rsp 16 +
STACK CFI 28c7c .cfa: $rbp 16 +
STACK CFI 28c86 .cfa: $rsp 8 +
STACK CFI INIT 28c90 19 .cfa: $rsp 8 + .ra: .cfa -8 + ^
STACK CFI 28c95 $rbp: .cfa -16 + ^ .cfa: $rsp 16 +
STACK CFI 28c9c .cfa: $rbp 16 +
STACK CFI 28ca8 .cfa: $rsp 8 +
STACK CFI INIT 28cb0 3e .cfa: $rsp 8 + .ra: .cfa -8 + ^
STACK CFI 28cb8 $rbp: .cfa -16 + ^ .cfa: $rsp 16 +
STACK CFI 28cbb .cfa: $rbp 16 +
STACK CFI 28cdb .cfa: $rsp 8 +
STACK CFI 28ce0 .cfa: $rbp 16 +
STACK CFI 28ced .cfa: $rsp 8 +
STACK CFI INIT 28cf0 b .cfa: $rsp 8 + .ra: .cfa -8 + ^
STACK CFI 28cf1 $rbp: .cfa -16 + ^ .cfa: $rsp 16 +
STACK CFI 28cf9 .cfa: $rbp 16 +
STACK CFI 28cfa .cfa: $rsp 8 +
STACK CFI INIT 28d00 4e .cfa: $rsp 8 + .ra: .cfa -8 + ^
STACK CFI 28d01 $rbp: .cfa -16 + ^ .cfa: $rsp 16 +
STACK CFI 28d07 .cfa: $rbp 16 +
STACK CFI 28d17 .cfa: $rsp 8 +
STACK CFI 28d20 .cfa: $rbp 16 +
STACK CFI 28d37 .cfa: $rsp 8 +
STACK CFI 28d40 .cfa: $rbp 16 +
STACK CFI 28d4d .cfa: $rsp 8 +
STACK CFI INIT 28d50 c .cfa: $rsp 8 + .ra: .cfa -8 + ^
STACK CFI 28d51 $rbp: .cfa -16 + ^ .cfa: $rsp 16 +
STACK CFI 28d5a .cfa: $rbp 16 +
STACK CFI 28d5b .cfa: $rsp 8 +
STACK CFI INIT 28d60 d .cfa: $rsp 8 + .ra: .cfa -8 + ^
STACK CFI 28d61 $rbp: .cfa -16 + ^ .cfa: $rsp 16 +
STACK CFI 28d6b .cfa: $rbp 16 +
STACK CFI 28d6c .cfa: $rsp 8 +
STACK CFI INIT 28d70 c .cfa: $rsp 8 + .ra: .cfa -8 + ^
STACK CFI 28d71 $rbp: .cfa -16 + ^ .cfa: $rsp 16 +
STACK CFI 28d7a .cfa: $rbp 16 +
STACK CFI 28d7b .cfa: $rsp 8 +
STACK CFI INIT 28d80 d .cfa: $rsp 8 + .ra: .cfa -8 + ^
STACK CFI 28d81 $rbp: .cfa -16 + ^ .cfa: $rsp 16 +
STACK CFI 28d8b .cfa: $rbp 16 +
STACK CFI 28d8c .cfa: $rsp 8 +
STACK CFI INIT 28d90 34 .cfa: $rsp 8 + .ra: .cfa -8 + ^
STACK CFI 28d91 $rbp: .cfa -16 + ^ .cfa: $rsp 16 +
STACK CFI 28d9b .cfa: $rbp 16 +
STACK CFI 28dc3 .cfa: $rsp 8 +
STACK CFI INIT 28dd0 35 .cfa: $rsp 8 + .ra: .cfa -8 + ^
STACK CFI 28dd1 $rbp: .cfa -16 + ^ .cfa: $rsp 16 +
STACK CFI 28ddb .cfa: $rbp 16 +
STACK CFI 28e04 .cfa: $rsp 8 +
STACK CFI INIT 28e10 33 .cfa: $rsp 8 + .ra: .cfa -8 + ^
STACK CFI 28e11 $rbp: .cfa -16 + ^ .cfa: $rsp 16 +
STACK CFI 28e1b .cfa: $rbp 16 +
STACK CFI 28e42 .cfa: $rsp 8 +
STACK CFI INIT 28e50 c .cfa: $rsp 8 + .ra: .cfa -8 + ^
STACK CFI 28e51 $rbp: .cfa -16 + ^ .cfa: $rsp 16 +
STACK CFI 28e5a .cfa: $rbp 16 +
STACK CFI 28e5b .cfa: $rsp 8 +
STACK CFI INIT 28e60 488 .cfa: $rsp 8 + .ra: .cfa -8 + ^
STACK CFI 28e61 $rbp: .cfa -16 + ^ .cfa: $rsp 16 +
STACK CFI 28e68 .cfa: $rbp 16 +
STACK CFI 28e75 $r12: .cfa -24 + ^ $rbx: .cfa -32 + ^
STACK CFI 28eb3 .cfa: $rsp 8 +
STACK CFI 28eb4 .cfa: $rbp 16 +
STACK CFI 28ff4 .cfa: $rsp 8 +
STACK CFI 28ff5 .cfa: $rbp 16 +
STACK CFI INIT 292f0 180 .cfa: $rsp 8 + .ra: .cfa -8 + ^
STACK CFI 292f1 $rbp: .cfa -16 + ^ .cfa: $rsp 16 +
STACK CFI 292f4 .cfa: $rbp 16 +
STACK CFI 292fb $rbx: .cfa -56 + ^
STACK CFI 29313 $r12: .cfa -48 + ^ $r13: .cfa -40 + ^ $r14: .cfa -32 + ^ $r15: .cfa -24 + ^
STACK CFI 2944b .cfa: $rsp 8 +
STACK CFI 29450 .cfa: $rbp 16 +
STACK CFI INIT 29470 14 .cfa: $rsp 8 + .ra: .cfa -8 + ^
STACK CFI 29471 $rbp: .cfa -16 + ^ .cfa: $rsp 16 +
STACK CFI 29482 .cfa: $rbp 16 +
STACK CFI 29483 .cfa: $rsp 8 +
STACK CFI INIT 29490 d .cfa: $rsp 8 + .ra: .cfa -8 + ^
STACK CFI 29491 $rbp: .cfa -16 + ^ .cfa: $rsp 16 +
STACK CFI 2949b .cfa: $rbp 16 +
STACK CFI 2949c .cfa: $rsp 8 +
STACK CFI INIT 294a0 55 .cfa: $rsp 8 + .ra: .cfa -8 + ^
STACK CFI 294a5 $rbp: .cfa -16 + ^ .cfa: $rsp 16 +
STACK CFI 294a8 .cfa: $rbp 16 +
STACK CFI 294f4 .cfa: $rsp 8 +
STACK CFI INIT 29500 d .cfa: $rsp 8 + .ra: .cfa -8 + ^
STACK CFI 29501 $rbp: .cfa -16 + ^ .cfa: $rsp 16 +
STACK CFI 2950b .cfa: $rbp 16 +
STACK CFI 2950c .cfa: $rsp 8 +
STACK CFI INIT 29510 c .cfa: $rsp 8 + .ra: .cfa -8 + ^
STACK CFI 29511 $rbp: .cfa -16 + ^ .cfa: $rsp 16 +
STACK CFI 2951a .cfa: $rbp 16 +
STACK CFI 2951b .cfa: $rsp 8 +
STACK CFI INIT 29520 d .cfa: $rsp 8 + .ra: .cfa -8 + ^
STACK CFI 29521 $rbp: .cfa -16 + ^ .cfa: $rsp 16 +
STACK CFI 2952b .cfa: $rbp 16 +
STACK CFI 2952c .cfa: $rsp 8 +
STACK CFI INIT 29530 d .cfa: $rsp 8 + .ra: .cfa -8 + ^
STACK CFI 29531 $rbp: .cfa -16 + ^ .cfa: $rsp 16 +
STACK CFI 2953b .cfa: $rbp 16 +
STACK CFI 2953c .cfa: $rsp 8 +
STACK CFI INIT 29540 12 .cfa: $rsp 8 + .ra: .cfa -8 + ^
STACK CFI 29547 $rbp: .cfa -16 + ^ .cfa: $rsp 16 +
STACK CFI 2954a .cfa: $rbp 16 +
STACK CFI 2954b .cfa: $rsp 8 +
STACK CFI INIT 29560 12 .cfa: $rsp 8 + .ra: .cfa -8 + ^
STACK CFI 29568 $rbp: .cfa -16 + ^ .cfa: $rsp 16 +
STACK CFI 2956b .cfa: $rbp 16 +
STACK CFI 29570 .cfa: $rsp 8 +
STACK CFI INIT 29580 11 .cfa: $rsp 8 + .ra: .cfa -8 + ^
STACK CFI 29588 $rbp: .cfa -16 + ^ .cfa: $rsp 16 +
STACK CFI 2958b .cfa: $rbp 16 +
STACK CFI 2958f .cfa: $rsp 8 +
STACK CFI INIT 295a0 5c .cfa: $rsp 8 + .ra: .cfa -8 + ^
STACK CFI 295a1 $rbp: .cfa -16 + ^ .cfa: $rsp 16 +
STACK CFI 295a4 .cfa: $rbp 16 +
STACK CFI 295b9 $r12: .cfa -24 + ^ $rbx: .cfa -32 + ^
STACK CFI 295f7 .cfa: $rsp 8 +
STACK CFI INIT 29600 167 .cfa: $rsp 8 + .ra: .cfa -8 + ^
STACK CFI 29601 $rbp: .cfa -16 + ^ .cfa: $rsp 16 +
STACK CFI 29604 .cfa: $rbp 16 +
STACK CFI 2960f $r12: .cfa -32 + ^ $rbx: .cfa -40 + ^
STACK CFI 29626 $r13: .cfa -24 + ^
STACK CFI 2964e .cfa: $rsp 8 +
STACK CFI 29650 .cfa: $rbp 16 +
STACK CFI 2967b .cfa: $rsp 8 +
STACK CFI 29680 .cfa: $rbp 16 +
STACK CFI 29722 .cfa: $rsp 8 +
STACK CFI 29723 .cfa: $rbp 16 +
STACK CFI INIT 29770 1f0 .cfa: $rsp 8 + .ra: .cfa -8 + ^
STACK CFI 29771 $rbp: .cfa -16 + ^ .cfa: $rsp 16 +
STACK CFI 29776 .cfa: $rbp 16 +
STACK CFI 2977d $r12: .cfa -32 + ^ $r13: .cfa -24 + ^
STACK CFI 29781 $rbx: .cfa -40 + ^
STACK CFI 29876 .cfa: $rsp 8 +
STACK CFI 29880 .cfa: $rbp 16 +
STACK CFI INIT 29960 f .cfa: $rsp 8 + .ra: .cfa -8 + ^
STACK CFI 29961 $rbp: .cfa -16 + ^ .cfa: $rsp 16 +
STACK CFI 29969 .cfa: $rbp 16 +
STACK CFI 2996a .cfa: $rsp 8 +
STACK CFI INIT 29970 70 .cfa: $rsp 8 + .ra: .cfa -8 + ^
STACK CFI 29971 $rbp: .cfa -16 + ^ .cfa: $rsp 16 +
STACK CFI 29974 .cfa: $rbp 16 +
STACK CFI 2998f $r12: .cfa -24 + ^ $rbx: .cfa -32 + ^
STACK CFI 299c5 .cfa: $rsp 8 +
STACK CFI 299d0 .cfa: $rbp 16 +
STACK CFI INIT 299e0 21 .cfa: $rsp 8 + .ra: .cfa -8 + ^
STACK CFI 299e8 $rbp: .cfa -16 + ^ .cfa: $rsp 16 +
STACK CFI 299f2 .cfa: $rbp 16 +
STACK CFI 29a00 .cfa: $rsp 8 +
STACK CFI INIT 29a10 111 .cfa: $rsp 8 + .ra: .cfa -8 + ^
STACK CFI 29a11 $rbp: .cfa -16 + ^ .cfa: $rsp 16 +
STACK CFI 29a14 .cfa: $rbp 16 +
STACK CFI 29a1f $r13: .cfa -24 + ^ $rbx: .cfa -40 + ^
STACK CFI 29a2b $r12: .cfa -32 + ^
STACK CFI 29a88 .cfa: $rsp 8 +
STACK CFI 29a90 .cfa: $rbp 16 +
STACK CFI 29aa9 .cfa: $rsp 8 +
STACK CFI 29ab0 .cfa: $rbp 16 +
STACK CFI INIT 29b30 3d .cfa: $rsp 8 + .ra: .cfa -8 + ^
STACK CFI 29b36 $rbp: .cfa -16 + ^ .cfa: $rsp 16 +
STACK CFI 29b39 .cfa: $rbp 16 +
STACK CFI 29b3c .cfa: $rsp 8 +
STACK CFI 29b50 .cfa: $rbp 16 +
STACK CFI 29b6c .cfa: $rsp 8 +
STACK CFI INIT 29b70 7b .cfa: $rsp 8 + .ra: .cfa -8 + ^
STACK CFI 29b71 $rbp: .cfa -16 + ^ .cfa: $rsp 16 +
STACK CFI 29b77 .cfa: $rbp 16 +
STACK CFI 29b8e .cfa: $rsp 8 +
STACK CFI 29b90 .cfa: $rbp 16 +
STACK CFI 29bb1 .cfa: $rsp 8 +
STACK CFI 29bb8 .cfa: $rbp 16 +
STACK CFI 29bcf .cfa: $rsp 8 +
STACK CFI 29bd0 .cfa: $rbp 16 +
STACK CFI 29bea .cfa: $rsp 8 +
STACK CFI INIT 29bf0 1fb .cfa: $rsp 8 + .ra: .cfa -8 + ^
STACK CFI 29bf1 $rbp: .cfa -16 + ^ .cfa: $rsp 16 +
STACK CFI 29bf4 .cfa: $rbp 16 +
STACK CFI 29bff $r13: .cfa -32 + ^ $rbx: .cfa -48 + ^
STACK CFI 29c0f $r12: .cfa -40 + ^ $r14: .cfa -24 + ^
STACK CFI 29c62 .cfa: $rsp 8 +
STACK CFI 29c68 .cfa: $rbp 16 +
STACK CFI INIT 29df0 239 .cfa: $rsp 8 + .ra: .cfa -8 + ^
STACK CFI 29df1 $rbp: .cfa -16 + ^ .cfa: $rsp 16 +
STACK CFI 29df6 .cfa: $rbp 16 +
STACK CFI 29e04 $r12: .cfa -40 + ^ $r13: .cfa -32 + ^ $r14: .cfa -24 + ^ $rbx: .cfa -48 + ^
STACK CFI 2a000 .cfa: $rsp 8 +
STACK CFI 2a008 .cfa: $rbp 16 +
STACK CFI 2a024 .cfa: $rsp 8 +
STACK CFI INIT 2a030 52 .cfa: $rsp 8 + .ra: .cfa -8 + ^
STACK CFI 2a031 $rbp: .cfa -16 + ^ .cfa: $rsp 16 +
STACK CFI 2a034 .cfa: $rbp 16 +
STACK CFI 2a038 $rbx: .cfa -24 + ^
STACK CFI 2a05a .cfa: $rsp 8 +
STACK CFI 2a060 .cfa: $rbp 16 +
STACK CFI 2a081 .cfa: $rsp 8 +
STACK CFI INIT 2a090 70 .cfa: $rsp 8 + .ra: .cfa -8 + ^
STACK CFI 2a091 $rbp: .cfa -16 + ^ .cfa: $rsp 16 +
STACK CFI 2a094 .cfa: $rbp 16 +
STACK CFI 2a098 $rbx: .cfa -24 + ^
STACK CFI 2a0c5 .cfa: $rsp 8 +
STACK CFI 2a0d0 .cfa: $rbp 16 +
STACK CFI INIT 2a100 26 .cfa: $rsp 8 + .ra: .cfa -8 + ^
STACK CFI 2a103 $rbp: .cfa -16 + ^ .cfa: $rsp 16 +
STACK CFI 2a11b .cfa: $rbp 16 +
STACK CFI 2a125 .cfa: $rsp 8 +
STACK CFI INIT 2a130 17 .cfa: $rsp 8 + .ra: .cfa -8 + ^
STACK CFI 2a131 $rbp: .cfa -16 + ^ .cfa: $rsp 16 +
STACK CFI 2a140 .cfa: $rbp 16 +
STACK CFI 2a146 .cfa: $rsp 8 +
STACK CFI INIT 2a150 17 .cfa: $rsp 8 + .ra: .cfa -8 + ^
STACK CFI 2a151 $rbp: .cfa -16 + ^ .cfa: $rsp 16 +
STACK CFI 2a160 .cfa: $rbp 16 +
STACK CFI 2a166 .cfa: $rsp 8 +
STACK CFI INIT 2a170 151 .cfa: $rsp 8 + .ra: .cfa -8 + ^
STACK CFI 2a171 $rbp: .cfa -16 + ^ .cfa: $rsp 16 +
STACK CFI 2a176 .cfa: $rbp 16 +
STACK CFI 2a17c $r12: .cfa -24 + ^ $rbx: .cfa -32 + ^
STACK CFI 2a259 .cfa: $rsp 8 +
STACK CFI 2a260 .cfa: $rbp 16 +
STACK CFI INIT 2a2d0 1f .cfa: $rsp 8 + .ra: .cfa -8 + ^
STACK CFI 2a2d1 $rbp: .cfa -16 + ^ .cfa: $rsp 16 +
STACK CFI 2a2d7 .cfa: $rbp 16 +
STACK CFI 2a2ee .cfa: $rsp 8 +
STACK CFI INIT 2a2f0 1b .cfa: $rsp 8 + .ra: .cfa -8 + ^
STACK CFI 2a2f1 $rbp: .cfa -16 + ^ .cfa: $rsp 16 +
STACK CFI 2a2f7 .cfa: $rbp 16 +
STACK CFI 2a30a .cfa: $rsp 8 +
STACK CFI INIT 2a310 3a .cfa: $rsp 8 + .ra: .cfa -8 + ^
STACK CFI 2a311 $rbp: .cfa -16 + ^ .cfa: $rsp 16 +
STACK CFI 2a31a .cfa: $rbp 16 +
STACK CFI 2a349 .cfa: $rsp 8 +
STACK CFI INIT 2a350 ad .cfa: $rsp 8 + .ra: .cfa -8 + ^
STACK CFI 2a351 $rbp: .cfa -16 + ^ .cfa: $rsp 16 +
STACK CFI 2a354 .cfa: $rbp 16 +
STACK CFI 2a35c $r12: .cfa -24 + ^
STACK CFI 2a360 $rbx: .cfa -32 + ^
STACK CFI 2a3ef .cfa: $rsp 8 +
STACK CFI 2a3f0 .cfa: $rbp 16 +
STACK CFI INIT 2a400 a5 .cfa: $rsp 8 + .ra: .cfa -8 + ^
STACK CFI 2a401 $rbp: .cfa -16 + ^ .cfa: $rsp 16 +
STACK CFI 2a404 .cfa: $rbp 16 +
STACK CFI 2a40c $r12: .cfa -24 + ^
STACK CFI 2a410 $rbx: .cfa -32 + ^
STACK CFI 2a493 .cfa: $rsp 8 +
STACK CFI 2a498 .cfa: $rbp 16 +
STACK CFI INIT 2a4b0 180 .cfa: $rsp 8 + .ra: .cfa -8 + ^
STACK CFI 2a4b1 $rbp: .cfa -16 + ^ .cfa: $rsp 16 +
STACK CFI 2a4b4 .cfa: $rbp 16 +
STACK CFI 2a4bd $r15: .cfa -24 + ^
STACK CFI 2a4c5 $r13: .cfa -40 + ^ $r14: .cfa -32 + ^
STACK CFI 2a4cb $r12: .cfa -48 + ^ $rbx: .cfa -56 + ^
STACK CFI 2a564 .cfa: $rsp 8 +
STACK CFI 2a568 .cfa: $rbp 16 +
STACK CFI 2a5ba .cfa: $rsp 8 +
STACK CFI 2a5c0 .cfa: $rbp 16 +
STACK CFI 2a5ec .cfa: $rsp 8 +
STACK CFI 2a5f0 .cfa: $rbp 16 +
STACK CFI 2a60f .cfa: $rsp 8 +
STACK CFI 2a610 .cfa: $rbp 16 +
STACK CFI INIT 2a630 4b .cfa: $rsp 8 + .ra: .cfa -8 + ^
STACK CFI 2a631 $rbp: .cfa -16 + ^ .cfa: $rsp 16 +
STACK CFI 2a634 .cfa: $rbp 16 +
STACK CFI 2a643 $r12: .cfa -24 + ^ $rbx: .cfa -32 + ^
STACK CFI 2a67a .cfa: $rsp 8 +
STACK CFI INIT 2a680 37 .cfa: $rsp 8 + .ra: .cfa -8 + ^
STACK CFI 2a681 $rbp: .cfa -16 + ^ .cfa: $rsp 16 +
STACK CFI 2a687 .cfa: $rbp 16 +
STACK CFI 2a696 $r12: .cfa -24 + ^ $rbx: .cfa -32 + ^
STACK CFI 2a6b6 .cfa: $rsp 8 +
STACK CFI INIT 2a6c0 1e .cfa: $rsp 8 + .ra: .cfa -8 + ^
STACK CFI 2a6c1 $rbp: .cfa -16 + ^ .cfa: $rsp 16 +
STACK CFI 2a6c7 .cfa: $rbp 16 +
STACK CFI 2a6cb $rbx: .cfa -24 + ^
STACK CFI 2a6dd .cfa: $rsp 8 +
STACK CFI INIT 2a6e0 7c .cfa: $rsp 8 + .ra: .cfa -8 + ^
STACK CFI 2a6e1 $rbp: .cfa -16 + ^ .cfa: $rsp 16 +
STACK CFI 2a6e4 .cfa: $rbp 16 +
STACK CFI 2a6ef $r12: .cfa -40 + ^ $rbx: .cfa -48 + ^
STACK CFI 2a701 $r13: .cfa -32 + ^ $r14: .cfa -24 + ^
STACK CFI 2a75b .cfa: $rsp 8 +
STACK CFI INIT 2a760 6e .cfa: $rsp 8 + .ra: .cfa -8 + ^
STACK CFI 2a761 $rbp: .cfa -16 + ^ .cfa: $rsp 16 +
STACK CFI 2a764 .cfa: $rbp 16 +
STACK CFI 2a76f $r12: .cfa -40 + ^ $rbx: .cfa -48 + ^
STACK CFI 2a77a $r13: .cfa -32 + ^ $r14: .cfa -24 + ^
STACK CFI 2a7cd .cfa: $rsp 8 +
STACK CFI INIT 2a7d0 361 .cfa: $rsp 8 + .ra: .cfa -8 + ^
STACK CFI 2a7d1 $rbp: .cfa -16 + ^ .cfa: $rsp 16 +
STACK CFI 2a7d4 .cfa: $rbp 16 +
STACK CFI 2a7df $r12: .cfa -40 + ^ $rbx: .cfa -48 + ^
STACK CFI 2a7f9 $r13: .cfa -32 + ^ $r14: .cfa -24 + ^
STACK CFI 2a851 .cfa: $rsp 8 +
STACK CFI 2a858 .cfa: $rbp 16 +
STACK CFI INIT 2ab40 35b .cfa: $rsp 8 + .ra: .cfa -8 + ^
STACK CFI 2ab41 $rbp: .cfa -16 + ^ .cfa: $rsp 16 +
STACK CFI 2ab44 .cfa: $rbp 16 +
STACK CFI 2ab4b $rbx: .cfa -48 + ^
STACK CFI 2ab62 $r12: .cfa -40 + ^ $r13: .cfa -32 + ^ $r14: .cfa -24 + ^
STACK CFI 2abf9 .cfa: $rsp 8 +
STACK CFI 2ac00 .cfa: $rbp 16 +
STACK CFI INIT 2aea0 32a .cfa: $rsp 8 + .ra: .cfa -8 + ^
STACK CFI 2aea1 $rbp: .cfa -16 + ^ .cfa: $rsp 16 +
STACK CFI 2aea8 .cfa: $rbp 16 +
STACK CFI 2aeb3 $r12: .cfa -40 + ^ $rbx: .cfa -48 + ^
STACK CFI 2aed0 $r13: .cfa -32 + ^ $r14: .cfa -24 + ^
STACK CFI 2afc1 .cfa: $rsp 8 +
STACK CFI 2afc8 .cfa: $rbp 16 +
STACK CFI INIT 2b1d0 1ca .cfa: $rsp 8 + .ra: .cfa -8 + ^
STACK CFI 2b1d1 $rbp: .cfa -16 + ^ .cfa: $rsp 16 +
STACK CFI 2b1d4 .cfa: $rbp 16 +
STACK CFI 2b1db $rbx: .cfa -32 + ^
STACK CFI 2b1ec $r12: .cfa -24 + ^
STACK CFI 2b211 .cfa: $rsp 8 +
STACK CFI 2b218 .cfa: $rbp 16 +
STACK CFI 2b249 .cfa: $rsp 8 +
STACK CFI 2b250 .cfa: $rbp 16 +
STACK CFI 2b276 .cfa: $rsp 8 +
STACK CFI 2b280 .cfa: $rbp 16 +
STACK CFI 2b2b1 .cfa: $rsp 8 +
STACK CFI 2b2b8 .cfa: $rbp 16 +
STACK CFI 2b2eb .cfa: $rsp 8 +
STACK CFI 2b2f0 .cfa: $rbp 16 +
STACK CFI 2b331 .cfa: $rsp 8 +
STACK CFI 2b338 .cfa: $rbp 16 +
STACK CFI 2b376 .cfa: $rsp 8 +
STACK CFI 2b380 .cfa: $rbp 16 +
STACK CFI INIT 2b3a0 39e .cfa: $rsp 8 + .ra: .cfa -8 + ^
STACK CFI 2b3a1 $rbp: .cfa -16 + ^ .cfa: $rsp 16 +
STACK CFI 2b3a4 .cfa: $rbp 16 +
STACK CFI 2b3af $r12: .cfa -32 + ^ $rbx: .cfa -40 + ^
STACK CFI 2b3bd $r13: .cfa -24 + ^
STACK CFI 2b3f5 .cfa: $rsp 8 +
STACK CFI 2b400 .cfa: $rbp 16 +
STACK CFI 2b4c5 .cfa: $rsp 8 +
STACK CFI 2b4d0 .cfa: $rbp 16 +
STACK CFI 2b4f7 .cfa: $rsp 8 +
STACK CFI 2b500 .cfa: $rbp 16 +
STACK CFI 2b584 .cfa: $rsp 8 +
STACK CFI 2b588 .cfa: $rbp 16 +
STACK CFI 2b5fa .cfa: $rsp 8 +
STACK CFI 2b600 .cfa: $rbp 16 +
STACK CFI 2b62b .cfa: $rsp 8 +
STACK CFI 2b630 .cfa: $rbp 16 +
STACK CFI 2b657 .cfa: $rsp 8 +
STACK CFI 2b660 .cfa: $rbp 16 +
STACK CFI 2b68d .cfa: $rsp 8 +
STACK CFI 2b690 .cfa: $rbp 16 +
STACK CFI INIT 2b740 110 .cfa: $rsp 8 + .ra: .cfa -8 + ^
STACK CFI 2b741 $rbp: .cfa -16 + ^ .cfa: $rsp 16 +
STACK CFI 2b747 .cfa: $rbp 16 +
STACK CFI 2b7dc .cfa: $rsp 8 +
STACK CFI 2b7e0 .cfa: $rbp 16 +
STACK CFI 2b7fc .cfa: $rsp 8 +
STACK CFI 2b800 .cfa: $rbp 16 +
STACK CFI 2b82c .cfa: $rsp 8 +
STACK CFI 2b830 .cfa: $rbp 16 +
STACK CFI 2b84f .cfa: $rsp 8 +
STACK CFI INIT 2b850 1d3 .cfa: $rsp 8 + .ra: .cfa -8 + ^
STACK CFI 2b851 $rbp: .cfa -16 + ^ .cfa: $rsp 16 +
STACK CFI 2b854 .cfa: $rbp 16 +
STACK CFI 2b860 $r12: .cfa -48 + ^ $r13: .cfa -40 + ^ $r14: .cfa -32 + ^ $r15: .cfa -24 + ^ $rbx: .cfa -56 + ^
STACK CFI 2b8a8 .cfa: $rsp 8 +
STACK CFI 2b8b0 .cfa: $rbp 16 +
STACK CFI 2b9a7 .cfa: $rsp 8 +
STACK CFI 2b9b0 .cfa: $rbp 16 +
STACK CFI 2ba06 .cfa: $rsp 8 +
STACK CFI 2ba10 .cfa: $rbp 16 +
STACK CFI INIT 2ba30 35a .cfa: $rsp 8 + .ra: .cfa -8 + ^
STACK CFI 2ba31 $rbp: .cfa -16 + ^ .cfa: $rsp 16 +
STACK CFI 2ba34 .cfa: $rbp 16 +
STACK CFI 2ba40 $r12: .cfa -48 + ^ $r13: .cfa -40 + ^ $r14: .cfa -32 + ^ $r15: .cfa -24 + ^ $rbx: .cfa -56 + ^
STACK CFI 2bbfe .cfa: $rsp 8 +
STACK CFI 2bc00 .cfa: $rbp 16 +
STACK CFI 2bc2c .cfa: $rsp 8 +
STACK CFI 2bc30 .cfa: $rbp 16 +
STACK CFI 2bc43 .cfa: $rsp 8 +
STACK CFI 2bc48 .cfa: $rbp 16 +
STACK CFI 2bcb3 .cfa: $rsp 8 +
STACK CFI 2bcb4 .cfa: $rbp 16 +
STACK CFI INIT 2bd90 165 .cfa: $rsp 8 + .ra: .cfa -8 + ^
STACK CFI 2bd91 $rbp: .cfa -16 + ^ .cfa: $rsp 16 +
STACK CFI 2bd94 .cfa: $rbp 16 +
STACK CFI 2bd9f $r12: .cfa -32 + ^ $rbx: .cfa -40 + ^
STACK CFI 2bdb4 $r13: .cfa -24 + ^
STACK CFI 2be28 .cfa: $rsp 8 +
STACK CFI 2be30 .cfa: $rbp 16 +
STACK CFI INIT 2bf00 1f5 .cfa: $rsp 8 + .ra: .cfa -8 + ^
STACK CFI 2bf01 $rbp: .cfa -16 + ^ .cfa: $rsp 16 +
STACK CFI 2bf04 .cfa: $rbp 16 +
STACK CFI 2bf0f $r12: .cfa -48 + ^ $rbx: .cfa -56 + ^
STACK CFI 2bf28 $r13: .cfa -40 + ^ $r14: .cfa -32 + ^ $r15: .cfa -24 + ^
STACK CFI 2bf50 .cfa: $rsp 8 +
STACK CFI 2bf58 .cfa: $rbp 16 +
STACK CFI INIT 2c100 161 .cfa: $rsp 8 + .ra: .cfa -8 + ^
STACK CFI 2c101 $rbp: .cfa -16 + ^ .cfa: $rsp 16 +
STACK CFI 2c104 .cfa: $rbp 16 +
STACK CFI 2c10f $r12: .cfa -32 + ^ $rbx: .cfa -40 + ^
STACK CFI 2c123 $r13: .cfa -24 + ^
STACK CFI 2c1cb .cfa: $rsp 8 +
STACK CFI 2c1d0 .cfa: $rbp 16 +
STACK CFI 2c1df .cfa: $rsp 8 +
STACK CFI 2c1e0 .cfa: $rbp 16 +
STACK CFI 2c232 .cfa: $rsp 8 +
STACK CFI 2c238 .cfa: $rbp 16 +
STACK CFI 2c260 .cfa: $rsp 8 +
STACK CFI INIT 2c270 3a8 .cfa: $rsp 8 + .ra: .cfa -8 + ^
STACK CFI 2c271 $rbp: .cfa -16 + ^ .cfa: $rsp 16 +
STACK CFI 2c274 .cfa: $rbp 16 +
STACK CFI 2c27c $r12: .cfa -32 + ^ $r13: .cfa -24 + ^ $rbx: .cfa -40 + ^
STACK CFI 2c2a1 .cfa: $rsp 8 +
STACK CFI 2c2a8 .cfa: $rbp 16 +
STACK CFI 2c460 .cfa: $rsp 8 +
STACK CFI 2c468 .cfa: $rbp 16 +
STACK CFI 2c4d5 .cfa: $rsp 8 +
STACK CFI 2c4e0 .cfa: $rbp 16 +
STACK CFI INIT 2c620 61 .cfa: $rsp 8 + .ra: .cfa -8 + ^
STACK CFI 2c621 $rbp: .cfa -16 + ^ .cfa: $rsp 16 +
STACK CFI 2c624 .cfa: $rbp 16 +
STACK CFI 2c62f $r12: .cfa -40 + ^ $r13: .cfa -32 + ^
STACK CFI 2c645 $r14: .cfa -24 + ^ $rbx: .cfa -48 + ^
STACK CFI 2c680 .cfa: $rsp 8 +
STACK CFI INIT 2c690 88 .cfa: $rsp 8 + .ra: .cfa -8 + ^
STACK CFI 2c691 $rbp: .cfa -16 + ^ .cfa: $rsp 16 +
STACK CFI 2c696 .cfa: $rbp 16 +
STACK CFI 2c69a $rbx: .cfa -24 + ^
STACK CFI 2c6ae .cfa: $rsp 8 +
STACK CFI 2c6b0 .cfa: $rbp 16 +
STACK CFI 2c6f4 .cfa: $rsp 8 +
STACK CFI 2c6f5 .cfa: $rbp 16 +
STACK CFI INIT 2c720 113 .cfa: $rsp 8 + .ra: .cfa -8 + ^
STACK CFI 2c721 $rbp: .cfa -16 + ^ .cfa: $rsp 16 +
STACK CFI 2c729 .cfa: $rbp 16 +
STACK CFI 2c72e $r12: .cfa -24 + ^
STACK CFI 2c734 $rbx: .cfa -32 + ^
STACK CFI 2c80b .cfa: $rsp 8 +
STACK CFI 2c810 .cfa: $rbp 16 +
STACK CFI INIT 2c840 133 .cfa: $rsp 8 + .ra: .cfa -8 + ^
STACK CFI 2c841 $rbp: .cfa -16 + ^ .cfa: $rsp 16 +
STACK CFI 2c844 .cfa: $rbp 16 +
STACK CFI 2c84f $r12: .cfa -40 + ^ $rbx: .cfa -48 + ^
STACK CFI 2c85e $r13: .cfa -32 + ^ $r14: .cfa -24 + ^
STACK CFI 2c8ce .cfa: $rsp 8 +
STACK CFI 2c8d0 .cfa: $rbp 16 +
STACK CFI INIT 2c980 3d .cfa: $rsp 8 + .ra: .cfa -8 + ^
STACK CFI 2c981 $rbp: .cfa -16 + ^ .cfa: $rsp 16 +
STACK CFI 2c98e .cfa: $rbp 16 +
STACK CFI 2c9a2 .cfa: $rsp 8 +
STACK CFI 2c9a8 .cfa: $rbp 16 +
STACK CFI 2c9ba .cfa: $rsp 8 +
STACK CFI INIT 2c9c0 22 .cfa: $rsp 8 + .ra: .cfa -8 + ^
STACK CFI 2c9c8 $rbp: .cfa -16 + ^ .cfa: $rsp 16 +
STACK CFI 2c9d6 .cfa: $rbp 16 +
STACK CFI 2c9df .cfa: $rsp 8 +
STACK CFI INIT 2c9f0 62 .cfa: $rsp 8 + .ra: .cfa -8 + ^
STACK CFI 2c9f1 $rbp: .cfa -16 + ^ .cfa: $rsp 16 +
STACK CFI 2c9f9 .cfa: $rbp 16 +
STACK CFI 2ca0c $r12: .cfa -24 + ^ $rbx: .cfa -32 + ^
STACK CFI 2ca51 .cfa: $rsp 8 +
STACK CFI INIT 2ca60 e6 .cfa: $rsp 8 + .ra: .cfa -8 + ^
STACK CFI 2ca61 $rbp: .cfa -16 + ^ .cfa: $rsp 16 +
STACK CFI 2ca73 .cfa: $rbp 16 +
STACK CFI 2ca89 $r12: .cfa -24 + ^ $rbx: .cfa -32 + ^
STACK CFI 2caab .cfa: $rsp 8 +
STACK CFI 2cab0 .cfa: $rbp 16 +
STACK CFI INIT 2cb50 148 .cfa: $rsp 8 + .ra: .cfa -8 + ^
STACK CFI 2cb51 $rbp: .cfa -16 + ^ .cfa: $rsp 16 +
STACK CFI 2cb5b .cfa: $rbp 16 +
STACK CFI 2cb66 $r12: .cfa -32 + ^
STACK CFI 2cb71 $r13: .cfa -24 + ^ $rbx: .cfa -40 + ^
STACK CFI 2cbee .cfa: $rsp 8 +
STACK CFI 2cbf0 .cfa: $rbp 16 +
STACK CFI INIT 2cca0 4c .cfa: $rsp 8 + .ra: .cfa -8 + ^
STACK CFI 2cca1 $rbp: .cfa -16 + ^ .cfa: $rsp 16 +
STACK CFI 2cca4 .cfa: $rbp 16 +
STACK CFI 2cca8 $rbx: .cfa -24 + ^
STACK CFI 2ccc8 .cfa: $rsp 8 +
STACK CFI 2ccd0 .cfa: $rbp 16 +
STACK CFI 2cceb .cfa: $rsp 8 +
STACK CFI INIT 2ccf0 67 .cfa: $rsp 8 + .ra: .cfa -8 + ^
STACK CFI 2ccf1 $rbp: .cfa -16 + ^ .cfa: $rsp 16 +
STACK CFI 2ccf4 .cfa: $rbp 16 +
STACK CFI 2ccf8 $rbx: .cfa -24 + ^
STACK CFI 2cd4a .cfa: $rsp 8 +
STACK CFI 2cd50 .cfa: $rbp 16 +
STACK CFI 2cd56 .cfa: $rsp 8 +
STACK CFI INIT 2cd60 35 .cfa: $rsp 8 + .ra: .cfa -8 + ^
STACK CFI 2cd61 $rbp: .cfa -16 + ^ .cfa: $rsp 16 +
STACK CFI 2cd64 .cfa: $rbp 16 +
STACK CFI 2cd6f $r12: .cfa -24 + ^ $rbx: .cfa -32 + ^
STACK CFI 2cd8e .cfa: $rsp 8 +
STACK CFI INIT 2cda0 e7 .cfa: $rsp 8 + .ra: .cfa -8 + ^
STACK CFI 2cda1 $rbp: .cfa -16 + ^ .cfa: $rsp 16 +
STACK CFI 2cdae .cfa: $rbp 16 +
STACK CFI 2cdb2 $rbx: .cfa -24 + ^
STACK CFI 2ce0f .cfa: $rsp 8 +
STACK CFI 2ce10 .cfa: $rbp 16 +
STACK CFI INIT 2ce90 37 .cfa: $rsp 8 + .ra: .cfa -8 + ^
STACK CFI 2ce91 $rbp: .cfa -16 + ^ .cfa: $rsp 16 +
STACK CFI 2ce94 .cfa: $rbp 16 +
STACK CFI 2ce98 $rbx: .cfa -24 + ^
STACK CFI 2ceba .cfa: $rsp 8 +
STACK CFI 2cec0 .cfa: $rbp 16 +
STACK CFI 2cec6 .cfa: $rsp 8 +
STACK CFI INIT 2ced0 9c .cfa: $rsp 8 + .ra: .cfa -8 + ^
STACK CFI 2ced1 $rbp: .cfa -16 + ^ .cfa: $rsp 16 +
STACK CFI 2ced8 .cfa: $rbp 16 +
STACK CFI 2cee3 $r12: .cfa -32 + ^ $rbx: .cfa -40 + ^
STACK CFI 2cef0 $r13: .cfa -24 + ^
STACK CFI 2cf0a .cfa: $rsp 8 +
STACK CFI 2cf10 .cfa: $rbp 16 +
STACK CFI 2cf6b .cfa: $rsp 8 +
STACK CFI INIT 2cf70 e6 .cfa: $rsp 8 + .ra: .cfa -8 + ^
STACK CFI 2cf71 $rbp: .cfa -16 + ^ .cfa: $rsp 16 +
STACK CFI 2cf74 .cfa: $rbp 16 +
STACK CFI 2cf7f $r12: .cfa -32 + ^ $rbx: .cfa -40 + ^
STACK CFI 2cf8f $r13: .cfa -24 + ^
STACK CFI 2cffe .cfa: $rsp 8 +
STACK CFI 2d000 .cfa: $rbp 16 +
STACK CFI 2d055 .cfa: $rsp 8 +
STACK CFI INIT 2d060 1dd .cfa: $rsp 8 + .ra: .cfa -8 + ^
STACK CFI 2d061 $rbp: .cfa -16 + ^ .cfa: $rsp 16 +
STACK CFI 2d064 .cfa: $rbp 16 +
STACK CFI 2d06d $r12: .cfa -40 + ^ $r13: .cfa -32 + ^ $r14: .cfa -24 + ^
STACK CFI 2d071 $rbx: .cfa -48 + ^
STACK CFI 2d163 .cfa: $rsp 8 +
STACK CFI 2d168 .cfa: $rbp 16 +
STACK CFI 2d23c .cfa: $rsp 8 +
STACK CFI INIT 2d240 af .cfa: $rsp 8 + .ra: .cfa -8 + ^
STACK CFI 2d241 $rbp: .cfa -16 + ^ .cfa: $rsp 16 +
STACK CFI 2d244 .cfa: $rbp 16 +
STACK CFI 2d248 $rbx: .cfa -24 + ^
STACK CFI 2d270 .cfa: $rsp 8 +
STACK CFI 2d280 .cfa: $rbp 16 +
STACK CFI 2d290 .cfa: $rsp 8 +
STACK CFI 2d298 .cfa: $rbp 16 +
STACK CFI INIT 2d2f0 18e .cfa: $rsp 8 + .ra: .cfa -8 + ^
STACK CFI 2d2f1 $rbp: .cfa -16 + ^ .cfa: $rsp 16 +
STACK CFI 2d2f4 .cfa: $rbp 16 +
STACK CFI 2d2ff $r12: .cfa -48 + ^ $rbx: .cfa -56 + ^
STACK CFI 2d30a $r13: .cfa -40 + ^ $r14: .cfa -32 + ^
STACK CFI 2d327 $r15: .cfa -24 + ^
STACK CFI 2d432 .cfa: $rsp 8 +
STACK CFI 2d438 .cfa: $rbp 16 +
STACK CFI INIT 2d480 a .cfa: $rsp 8 + .ra: .cfa -8 + ^
STACK CFI 2d481 $rbp: .cfa -16 + ^ .cfa: $rsp 16 +
STACK CFI 2d484 .cfa: $rbp 16 +
STACK CFI 2d485 .cfa: $rsp 8 +
STACK CFI INIT 2d490 a .cfa: $rsp 8 + .ra: .cfa -8 + ^
STACK CFI 2d491 $rbp: .cfa -16 + ^ .cfa: $rsp 16 +
STACK CFI 2d494 .cfa: $rbp 16 +
STACK CFI 2d495 .cfa: $rsp 8 +
STACK CFI INIT 2d4a0 51 .cfa: $rsp 8 + .ra: .cfa -8 + ^
STACK CFI 2d4a8 $rbp: .cfa -16 + ^ .cfa: $rsp 16 +
STACK CFI 2d4ab .cfa: $rbp 16 +
STACK CFI 2d4ae .cfa: $rsp 8 +
STACK CFI 2d4b0 .cfa: $rbp 16 +
STACK CFI 2d4e3 .cfa: $rsp 8 +
STACK CFI 2d4e8 .cfa: $rbp 16 +
STACK CFI INIT 2d500 115 .cfa: $rsp 8 + .ra: .cfa -8 + ^
STACK CFI 2d501 $rbp: .cfa -16 + ^ .cfa: $rsp 16 +
STACK CFI 2d504 .cfa: $rbp 16 +
STACK CFI 2d512 $rbx: .cfa -24 + ^
STACK CFI 2d53d .cfa: $rsp 8 +
STACK CFI 2d540 .cfa: $rbp 16 +
STACK CFI 2d54e .cfa: $rsp 8 +
STACK CFI 2d550 .cfa: $rbp 16 +
STACK CFI 2d59a .cfa: $rsp 8 +
STACK CFI 2d5a0 .cfa: $rbp 16 +
STACK CFI INIT 2d620 c9 .cfa: $rsp 8 + .ra: .cfa -8 + ^
STACK CFI 2d621 $rbp: .cfa -16 + ^ .cfa: $rsp 16 +
STACK CFI 2d624 .cfa: $rbp 16 +
STACK CFI 2d62c $r12: .cfa -24 + ^
STACK CFI 2d630 $rbx: .cfa -32 + ^
STACK CFI 2d6e8 .cfa: $rsp 8 +
STACK CFI INIT 2d6f0 d7 .cfa: $rsp 8 + .ra: .cfa -8 + ^
STACK CFI 2d6f1 $rbp: .cfa -16 + ^ .cfa: $rsp 16 +
STACK CFI 2d6fe .cfa: $rbp 16 +
STACK CFI 2d702 $rbx: .cfa -24 + ^
STACK CFI 2d74f .cfa: $rsp 8 +
STACK CFI 2d750 .cfa: $rbp 16 +
STACK CFI INIT 2d7d0 8c .cfa: $rsp 8 + .ra: .cfa -8 + ^
STACK CFI 2d7d1 $rbp: .cfa -16 + ^ .cfa: $rsp 16 +
STACK CFI 2d7d4 .cfa: $rbp 16 +
STACK CFI 2d7e4 $r12: .cfa -24 + ^ $rbx: .cfa -32 + ^
STACK CFI 2d842 .cfa: $rsp 8 +
STACK CFI 2d848 .cfa: $rbp 16 +
STACK CFI 2d855 .cfa: $rsp 8 +
STACK CFI INIT 2d860 a1 .cfa: $rsp 8 + .ra: .cfa -8 + ^
STACK CFI 2d861 $rbp: .cfa -16 + ^ .cfa: $rsp 16 +
STACK CFI 2d864 .cfa: $rbp 16 +
STACK CFI 2d869 $r12: .cfa -24 + ^
STACK CFI 2d86e $rbx: .cfa -32 + ^
STACK CFI 2d8dc .cfa: $rsp 8 +
STACK CFI 2d8e0 .cfa: $rbp 16 +
STACK CFI 2d8fc .cfa: $rsp 8 +
STACK CFI INIT 2d910 a1 .cfa: $rsp 8 + .ra: .cfa -8 + ^
STACK CFI 2d911 $rbp: .cfa -16 + ^ .cfa: $rsp 16 +
STACK CFI 2d914 .cfa: $rbp 16 +
STACK CFI 2d919 $r12: .cfa -24 + ^
STACK CFI 2d91e $rbx: .cfa -32 + ^
STACK CFI 2d99c .cfa: $rsp 8 +
STACK CFI 2d9a0 .cfa: $rbp 16 +
STACK CFI 2d9ac .cfa: $rsp 8 +
STACK CFI INIT 2d9c0 786 .cfa: $rsp 8 + .ra: .cfa -8 + ^
STACK CFI 2d9c1 $rbp: .cfa -16 + ^ .cfa: $rsp 16 +
STACK CFI 2d9c4 .cfa: $rbp 16 +
STACK CFI 2d9cf $r12: .cfa -48 + ^ $rbx: .cfa -56 + ^
STACK CFI 2d9ed $r13: .cfa -40 + ^ $r14: .cfa -32 + ^ $r15: .cfa -24 + ^
STACK CFI 2db4b .cfa: $rsp 8 +
STACK CFI 2db50 .cfa: $rbp 16 +
STACK CFI INIT 2e150 27 .cfa: $rsp 8 + .ra: .cfa -8 + ^
STACK CFI 2e151 $rbp: .cfa -16 + ^ .cfa: $rsp 16 +
STACK CFI 2e15a .cfa: $rbp 16 +
STACK CFI 2e16c .cfa: $rsp 8 +
STACK CFI 2e170 .cfa: $rbp 16 +
STACK CFI 2e176 .cfa: $rsp 8 +
STACK CFI INIT 2e180 139 .cfa: $rsp 8 + .ra: .cfa -8 + ^
STACK CFI 2e181 $rbp: .cfa -16 + ^ .cfa: $rsp 16 +
STACK CFI 2e184 .cfa: $rbp 16 +
STACK CFI 2e18b $r12: .cfa -40 + ^
STACK CFI 2e1a9 $r13: .cfa -32 + ^ $r14: .cfa -24 + ^ $rbx: .cfa -48 + ^
STACK CFI 2e254 .cfa: $rsp 8 +
STACK CFI 2e258 .cfa: $rbp 16 +
STACK CFI INIT 2e2c0 98 .cfa: $rsp 8 + .ra: .cfa -8 + ^
STACK CFI 2e2c1 $rbp: .cfa -16 + ^ .cfa: $rsp 16 +
STACK CFI 2e2c7 .cfa: $rbp 16 +
STACK CFI 2e2d0 $rbx: .cfa -24 + ^
STACK CFI 2e357 .cfa: $rsp 8 +
STACK CFI INIT 2e360 d1 .cfa: $rsp 8 + .ra: .cfa -8 + ^
STACK CFI 2e361 $rbp: .cfa -16 + ^ .cfa: $rsp 16 +
STACK CFI 2e36b .cfa: $rbp 16 +
STACK CFI 2e378 $r12: .cfa -40 + ^ $r13: .cfa -32 + ^ $r14: .cfa -24 + ^ $rbx: .cfa -48 + ^
STACK CFI 2e419 .cfa: $rsp 8 +
STACK CFI 2e428 .cfa: $rbp 16 +
STACK CFI 2e430 .cfa: $rsp 8 +
STACK CFI INIT 2e440 349 .cfa: $rsp 8 + .ra: .cfa -8 + ^
STACK CFI 2e441 $rbp: .cfa -16 + ^ .cfa: $rsp 16 +
STACK CFI 2e444 .cfa: $rbp 16 +
STACK CFI 2e44e $r12: .cfa -48 + ^ $rbx: .cfa -56 + ^
STACK CFI 2e459 $r13: .cfa -40 + ^ $r14: .cfa -32 + ^
STACK CFI 2e481 $r15: .cfa -24 + ^
STACK CFI 2e62b .cfa: $rsp 8 +
STACK CFI 2e630 .cfa: $rbp 16 +
STACK CFI INIT 2e790 98 .cfa: $rsp 8 + .ra: .cfa -8 + ^
STACK CFI 2e791 $rbp: .cfa -16 + ^ .cfa: $rsp 16 +
STACK CFI 2e797 .cfa: $rbp 16 +
STACK CFI 2e7a0 $rbx: .cfa -24 + ^
STACK CFI 2e827 .cfa: $rsp 8 +
STACK CFI INIT 2e830 12b .cfa: $rsp 8 + .ra: .cfa -8 + ^
STACK CFI 2e831 $rbp: .cfa -16 + ^ .cfa: $rsp 16 +
STACK CFI 2e834 .cfa: $rbp 16 +
STACK CFI 2e83e $r12: .cfa -48 + ^ $rbx: .cfa -56 + ^
STACK CFI 2e849 $r13: .cfa -40 + ^ $r14: .cfa -32 + ^
STACK CFI 2e861 $r15: .cfa -24 + ^
STACK CFI 2e8a1 .cfa: $rsp 8 +
STACK CFI 2e8b0 .cfa: $rbp 16 +
STACK CFI 2e8e8 .cfa: $rsp 8 +
STACK CFI 2e8f0 .cfa: $rbp 16 +
STACK CFI INIT 2e960 219 .cfa: $rsp 8 + .ra: .cfa -8 + ^
STACK CFI 2e961 $rbp: .cfa -16 + ^ .cfa: $rsp 16 +
STACK CFI 2e964 .cfa: $rbp 16 +
STACK CFI 2e97b $r12: .cfa -40 + ^ $r13: .cfa -32 + ^ $r14: .cfa -24 + ^ $rbx: .cfa -48 + ^
STACK CFI 2e98c .cfa: $rsp 8 +
STACK CFI 2e990 .cfa: $rbp 16 +
STACK CFI INIT 2eb80 1a8 .cfa: $rsp 8 + .ra: .cfa -8 + ^
STACK CFI 2eb81 $rbp: .cfa -16 + ^ .cfa: $rsp 16 +
STACK CFI 2eb84 .cfa: $rbp 16 +
STACK CFI 2eb8f $r12: .cfa -40 + ^ $rbx: .cfa -48 + ^
STACK CFI 2ebaf $r13: .cfa -32 + ^ $r14: .cfa -24 + ^
STACK CFI 2ec68 .cfa: $rsp 8 +
STACK CFI 2ec70 .cfa: $rbp 16 +
STACK CFI INIT 2ed30 4f .cfa: $rsp 8 + .ra: .cfa -8 + ^
STACK CFI 2ed31 $rbp: .cfa -16 + ^ .cfa: $rsp 16 +
STACK CFI 2ed38 .cfa: $rbp 16 +
STACK CFI 2ed67 .cfa: $rsp 8 +
STACK CFI 2ed70 .cfa: $rbp 16 +
STACK CFI 2ed7e .cfa: $rsp 8 +
STACK CFI INIT 2ed80 1b .cfa: $rsp 8 + .ra: .cfa -8 + ^
STACK CFI 2ed81 $rbp: .cfa -16 + ^ .cfa: $rsp 16 +
STACK CFI 2ed99 .cfa: $rbp 16 +
STACK CFI 2ed9a .cfa: $rsp 8 +
STACK CFI INIT 2eda0 d9 .cfa: $rsp 8 + .ra: .cfa -8 + ^
STACK CFI 2eda1 $rbp: .cfa -16 + ^ .cfa: $rsp 16 +
STACK CFI 2eda4 .cfa: $rbp 16 +
STACK CFI 2eda8 $rbx: .cfa -24 + ^
STACK CFI 2ee21 .cfa: $rsp 8 +
STACK CFI 2ee28 .cfa: $rbp 16 +
STACK CFI 2ee45 .cfa: $rsp 8 +
STACK CFI 2ee50 .cfa: $rbp 16 +
STACK CFI 2ee78 .cfa: $rsp 8 +
STACK CFI INIT 2ee80 27 .cfa: $rsp 8 + .ra: .cfa -8 + ^
STACK CFI 2ee85 $rbp: .cfa -16 + ^ .cfa: $rsp 16 +
STACK CFI 2ee88 .cfa: $rbp 16 +
STACK CFI 2ee99 .cfa: $rsp 8 +
STACK CFI 2eea0 .cfa: $rbp 16 +
STACK CFI 2eea6 .cfa: $rsp 8 +
STACK CFI INIT 2eeb0 4a .cfa: $rsp 8 + .ra: .cfa -8 + ^
STACK CFI 2eeb4 $rbp: .cfa -16 + ^ .cfa: $rsp 16 +
STACK CFI 2eeb7 .cfa: $rbp 16 +
STACK CFI 2eed5 .cfa: $rsp 8 +
STACK CFI 2eee0 .cfa: $rbp 16 +
STACK CFI 2eef6 .cfa: $rsp 8 +
STACK CFI INIT 2ef00 57 .cfa: $rsp 8 + .ra: .cfa -8 + ^
STACK CFI 2ef07 $rbp: .cfa -16 + ^ .cfa: $rsp 16 +
STACK CFI 2ef0a .cfa: $rbp 16 +
STACK CFI 2ef43 .cfa: $rsp 8 +
STACK CFI 2ef50 .cfa: $rbp 16 +
STACK CFI 2ef56 .cfa: $rsp 8 +
STACK CFI INIT 2ef60 46 .cfa: $rsp 8 + .ra: .cfa -8 + ^
STACK CFI 2ef61 $rbp: .cfa -16 + ^ .cfa: $rsp 16 +
STACK CFI 2ef64 .cfa: $rbp 16 +
STACK CFI 2ef73 $r12: .cfa -24 + ^ $rbx: .cfa -32 + ^
STACK CFI 2efa5 .cfa: $rsp 8 +
STACK CFI INIT 2efb0 1a .cfa: $rsp 8 + .ra: .cfa -8 + ^
STACK CFI 2efb7 $rbp: .cfa -16 + ^ .cfa: $rsp 16 +
STACK CFI 2efc5 .cfa: $rbp 16 +
STACK CFI 2efc9 .cfa: $rsp 8 +
STACK CFI INIT 2efd0 a8 .cfa: $rsp 8 + .ra: .cfa -8 + ^
STACK CFI 2efd1 $rbp: .cfa -16 + ^ .cfa: $rsp 16 +
STACK CFI 2efd8 .cfa: $rbp 16 +
STACK CFI 2f02d .cfa: $rsp 8 +
STACK CFI 2f060 .cfa: $rbp 16 +
STACK CFI 2f077 .cfa: $rsp 8 +
STACK CFI INIT 2f080 4f .cfa: $rsp 8 + .ra: .cfa -8 + ^
STACK CFI 2f089 $rbp: .cfa -16 + ^ .cfa: $rsp 16 +
STACK CFI 2f08c .cfa: $rbp 16 +
STACK CFI 2f0c0 .cfa: $rsp 8 +
STACK CFI INIT 2f0d0 25 .cfa: $rsp 8 + .ra: .cfa -8 + ^
STACK CFI 2f0d6 $rbp: .cfa -16 + ^ .cfa: $rsp 16 +
STACK CFI 2f0d9 .cfa: $rbp 16 +
STACK CFI 2f0f0 .cfa: $rsp 8 +
STACK CFI INIT 2f100 26 .cfa: $rsp 8 + .ra: .cfa -8 + ^
STACK CFI 2f107 $rbp: .cfa -16 + ^ .cfa: $rsp 16 +
STACK CFI 2f10a .cfa: $rbp 16 +
STACK CFI 2f121 .cfa: $rsp 8 +
STACK CFI INIT 2f130 4e .cfa: $rsp 8 + .ra: .cfa -8 + ^
STACK CFI 2f142 $rbp: .cfa -16 + ^ .cfa: $rsp 16 +
STACK CFI 2f145 .cfa: $rbp 16 +
STACK CFI 2f17d .cfa: $rsp 8 +
STACK CFI INIT 2f180 4f .cfa: $rsp 8 + .ra: .cfa -8 + ^
STACK CFI 2f198 $rbp: .cfa -16 + ^ .cfa: $rsp 16 +
STACK CFI 2f19b .cfa: $rbp 16 +
STACK CFI 2f1ce .cfa: $rsp 8 +
STACK CFI INIT 2f1d0 36 .cfa: $rsp 8 + .ra: .cfa -8 + ^
STACK CFI 2f1d4 $rbp: .cfa -16 + ^ .cfa: $rsp 16 +
STACK CFI 2f1d7 .cfa: $rbp 16 +
STACK CFI 2f1e6 .cfa: $rsp 8 +
STACK CFI 2f1f0 .cfa: $rbp 16 +
STACK CFI 2f1f3 .cfa: $rsp 8 +
STACK CFI 2f1f8 .cfa: $rbp 16 +
STACK CFI 2f1f9 .cfa: $rsp 8 +
STACK CFI 2f200 .cfa: $rbp 16 +
STACK CFI 2f201 .cfa: $rsp 8 +
STACK CFI INIT 2f210 3f .cfa: $rsp 8 + .ra: .cfa -8 + ^
STACK CFI 2f214 $rbp: .cfa -16 + ^ .cfa: $rsp 16 +
STACK CFI 2f219 .cfa: $rbp 16 +
STACK CFI 2f24a .cfa: $rsp 8 +
STACK CFI INIT 2f250 7d .cfa: $rsp 8 + .ra: .cfa -8 + ^
STACK CFI 2f257 $rbp: .cfa -16 + ^ .cfa: $rsp 16 +
STACK CFI 2f26d .cfa: $rbp 16 +
STACK CFI 2f2cc .cfa: $rsp 8 +
STACK CFI INIT 2f2d0 e .cfa: $rsp 8 + .ra: .cfa -8 + ^
STACK CFI 2f2d4 $rbp: .cfa -16 + ^ .cfa: $rsp 16 +
STACK CFI 2f2d9 .cfa: $rbp 16 +
STACK CFI 2f2dd .cfa: $rsp 8 +
STACK CFI INIT 2f2e0 13f .cfa: $rsp 8 + .ra: .cfa -8 + ^
STACK CFI 2f2e1 $rbp: .cfa -16 + ^ .cfa: $rsp 16 +
STACK CFI 2f2e7 .cfa: $rbp 16 +
STACK CFI 2f30a .cfa: $rsp 8 +
STACK CFI 2f310 .cfa: $rbp 16 +
STACK CFI 2f35c .cfa: $rsp 8 +
STACK CFI 2f360 .cfa: $rbp 16 +
STACK CFI 2f3be .cfa: $rsp 8 +
STACK CFI 2f3c0 .cfa: $rbp 16 +
STACK CFI 2f41e .cfa: $rsp 8 +
STACK CFI INIT 2f420 125 .cfa: $rsp 8 + .ra: .cfa -8 + ^
STACK CFI 2f421 $rbp: .cfa -16 + ^ .cfa: $rsp 16 +
STACK CFI 2f427 .cfa: $rbp 16 +
STACK CFI 2f43b .cfa: $rsp 8 +
STACK CFI 2f450 .cfa: $rbp 16 +
STACK CFI 2f486 .cfa: $rsp 8 +
STACK CFI 2f4a0 .cfa: $rbp 16 +
STACK CFI 2f4e7 .cfa: $rsp 8 +
STACK CFI 2f4f0 .cfa: $rbp 16 +
STACK CFI 2f53f .cfa: $rsp 8 +
STACK CFI INIT 2f550 45 .cfa: $rsp 8 + .ra: .cfa -8 + ^
STACK CFI 2f556 $rbp: .cfa -16 + ^ .cfa: $rsp 16 +
STACK CFI 2f55f .cfa: $rbp 16 +
STACK CFI 2f590 .cfa: $rsp 8 +
STACK CFI INIT 2f5a0 1b .cfa: $rsp 8 + .ra: .cfa -8 + ^
STACK CFI 2f5a3 $rbp: .cfa -16 + ^ .cfa: $rsp 16 +
STACK CFI 2f5a6 .cfa: $rbp 16 +
STACK CFI 2f5b6 .cfa: $rsp 8 +
STACK CFI INIT 2f5c0 12 .cfa: $rsp 8 + .ra: .cfa -8 + ^
STACK CFI 2f5c5 $rbp: .cfa -16 + ^ .cfa: $rsp 16 +
STACK CFI 2f5cc .cfa: $rbp 16 +
STACK CFI 2f5cd .cfa: $rsp 8 +
STACK CFI INIT 2f5e0 d3 .cfa: $rsp 8 + .ra: .cfa -8 + ^
STACK CFI 2f5e7 $rbp: .cfa -16 + ^ .cfa: $rsp 16 +
STACK CFI 2f5fe .cfa: $rbp 16 +
STACK CFI 2f6b2 .cfa: $rsp 8 +
STACK CFI INIT 2f6c0 1f .cfa: $rsp 8 + .ra: .cfa -8 + ^
STACK CFI 2f6c1 $rbp: .cfa -16 + ^ .cfa: $rsp 16 +
STACK CFI 2f6c4 .cfa: $rbp 16 +
STACK CFI 2f6c8 $rbx: .cfa -24 + ^
STACK CFI 2f6de .cfa: $rsp 8 +
STACK CFI INIT 2f6e0 e .cfa: $rsp 8 + .ra: .cfa -8 + ^
STACK CFI 2f6e4 $rbp: .cfa -16 + ^ .cfa: $rsp 16 +
STACK CFI 2f6e9 .cfa: $rbp 16 +
STACK CFI 2f6ed .cfa: $rsp 8 +
STACK CFI INIT 2f6f0 e4 .cfa: $rsp 8 + .ra: .cfa -8 + ^
STACK CFI 2f6f1 $rbp: .cfa -16 + ^ .cfa: $rsp 16 +
STACK CFI 2f709 .cfa: $rbp 16 +
STACK CFI 2f735 .cfa: $rsp 8 +
STACK CFI 2f740 .cfa: $rbp 16 +
STACK CFI 2f796 .cfa: $rsp 8 +
STACK CFI 2f7a0 .cfa: $rbp 16 +
STACK CFI INIT 2f7e0 10f .cfa: $rsp 8 + .ra: .cfa -8 + ^
STACK CFI 2f7ee $rbp: .cfa -16 + ^ .cfa: $rsp 16 +
STACK CFI 2f7f9 .cfa: $rbp 16 +
STACK CFI 2f861 .cfa: $rsp 8 +
STACK CFI 2f868 .cfa: $rbp 16 +
STACK CFI 2f8a6 .cfa: $rsp 8 +
STACK CFI 2f8b0 .cfa: $rbp 16 +
STACK CFI 2f8ee .cfa: $rsp 8 +
STACK CFI INIT 2f8f0 e .cfa: $rsp 8 + .ra: .cfa -8 + ^
STACK CFI 2f8f4 $rbp: .cfa -16 + ^ .cfa: $rsp 16 +
STACK CFI 2f8f9 .cfa: $rbp 16 +
STACK CFI 2f8fd .cfa: $rsp 8 +
STACK CFI INIT 2f900 e0 .cfa: $rsp 8 + .ra: .cfa -8 + ^
STACK CFI 2f908 $rbp: .cfa -16 + ^ .cfa: $rsp 16 +
STACK CFI 2f90b .cfa: $rbp 16 +
STACK CFI 2f935 .cfa: $rsp 8 +
STACK CFI 2f940 .cfa: $rbp 16 +
STACK CFI 2f972 .cfa: $rsp 8 +
STACK CFI 2f978 .cfa: $rbp 16 +
STACK CFI 2f990 .cfa: $rsp 8 +
STACK CFI 2f998 .cfa: $rbp 16 +
STACK CFI 2f9b8 .cfa: $rsp 8 +
STACK CFI 2f9c0 .cfa: $rbp 16 +
STACK CFI INIT 2f9e0 b4 .cfa: $rsp 8 + .ra: .cfa -8 + ^
STACK CFI 2f9e4 $rbp: .cfa -16 + ^ .cfa: $rsp 16 +
STACK CFI 2f9e7 .cfa: $rbp 16 +
STACK CFI 2fa30 .cfa: $rsp 8 +
STACK CFI 2fa38 .cfa: $rbp 16 +
STACK CFI 2fa63 .cfa: $rsp 8 +
STACK CFI 2fa68 .cfa: $rbp 16 +
STACK CFI 2fa93 .cfa: $rsp 8 +
STACK CFI INIT 2faa0 36 .cfa: $rsp 8 + .ra: .cfa -8 + ^
STACK CFI 2faa4 $rbp: .cfa -16 + ^ .cfa: $rsp 16 +
STACK CFI 2faa7 .cfa: $rbp 16 +
STACK CFI 2fab6 .cfa: $rsp 8 +
STACK CFI 2fac0 .cfa: $rbp 16 +
STACK CFI 2fac3 .cfa: $rsp 8 +
STACK CFI 2fac8 .cfa: $rbp 16 +
STACK CFI 2fac9 .cfa: $rsp 8 +
STACK CFI 2fad0 .cfa: $rbp 16 +
STACK CFI 2fad1 .cfa: $rsp 8 +
STACK CFI INIT 2fae0 2ca .cfa: $rsp 8 + .ra: .cfa -8 + ^
STACK CFI 2fae1 $rbp: .cfa -16 + ^ .cfa: $rsp 16 +
STACK CFI 2faf1 .cfa: $rbp 16 +
STACK CFI 2faf6 $r14: .cfa -24 + ^
STACK CFI 2fafb $r13: .cfa -32 + ^
STACK CFI 2fb00 $r12: .cfa -40 + ^
STACK CFI 2fb0a $rbx: .cfa -48 + ^
STACK CFI 2fc51 .cfa: $rsp 8 +
STACK CFI 2fc58 .cfa: $rbp 16 +
STACK CFI 2fca3 .cfa: $rsp 8 +
STACK CFI 2fca8 .cfa: $rbp 16 +
STACK CFI 2fcd2 .cfa: $rsp 8 +
STACK CFI 2fcd8 .cfa: $rbp 16 +
STACK CFI INIT 2fdb0 30 .cfa: $rsp 8 + .ra: .cfa -8 + ^
STACK CFI 2fdb1 $rbp: .cfa -16 + ^ .cfa: $rsp 16 +
STACK CFI 2fdcb .cfa: $rbp 16 +
STACK CFI 2fddf .cfa: $rsp 8 +
STACK CFI INIT 2fde0 995 .cfa: $rsp 8 + .ra: .cfa -8 + ^
STACK CFI 2fde1 $rbp: .cfa -16 + ^ .cfa: $rsp 16 +
STACK CFI 2fde6 .cfa: $rbp 16 +
STACK CFI 2fdf2 $r12: .cfa -48 + ^ $r13: .cfa -40 + ^ $r14: .cfa -32 + ^ $r15: .cfa -24 + ^
STACK CFI 2fdf6 $rbx: .cfa -56 + ^
STACK CFI 2ff69 .cfa: $rsp 8 +
STACK CFI 2ff70 .cfa: $rbp 16 +
STACK CFI INIT 30780 37 .cfa: $rsp 8 + .ra: .cfa -8 + ^
STACK CFI 30781 $rbp: .cfa -16 + ^ .cfa: $rsp 16 +
STACK CFI 30784 .cfa: $rbp 16 +
STACK CFI 3078f $r12: .cfa -24 + ^ $rbx: .cfa -32 + ^
STACK CFI 307b6 .cfa: $rsp 8 +
STACK CFI INIT 307c0 1a5 .cfa: $rsp 8 + .ra: .cfa -8 + ^
STACK CFI 307c1 $rbp: .cfa -16 + ^ .cfa: $rsp 16 +
STACK CFI 307c4 .cfa: $rbp 16 +
STACK CFI 307cf $r12: .cfa -32 + ^ $rbx: .cfa -40 + ^
STACK CFI 307e3 $r13: .cfa -24 + ^
STACK CFI 3081f .cfa: $rsp 8 +
STACK CFI 30820 .cfa: $rbp 16 +
STACK CFI 308ce .cfa: $rsp 8 +
STACK CFI 308d0 .cfa: $rbp 16 +
STACK CFI 308f5 .cfa: $rsp 8 +
STACK CFI 30900 .cfa: $rbp 16 +
STACK CFI 3093c .cfa: $rsp 8 +
STACK CFI 30940 .cfa: $rbp 16 +
STACK CFI 30964 .cfa: $rsp 8 +
STACK CFI INIT 30970 187 .cfa: $rsp 8 + .ra: .cfa -8 + ^
STACK CFI 30971 $rbp: .cfa -16 + ^ .cfa: $rsp 16 +
STACK CFI 3098b .cfa: $rbp 16 +
STACK CFI 30aba .cfa: $rsp 8 +
STACK CFI 30ac0 .cfa: $rbp 16 +
STACK CFI 30af3 .cfa: $rsp 8 +
STACK CFI INIT 30b00 22 .cfa: $rsp 8 + .ra: .cfa -8 + ^
STACK CFI 30b01 $rbp: .cfa -16 + ^ .cfa: $rsp 16 +
STACK CFI 30b1a .cfa: $rbp 16 +
STACK CFI 30b1d .cfa: $rsp 8 +
STACK CFI INIT 30b30 461 .cfa: $rsp 8 + .ra: .cfa -8 + ^
STACK CFI 30b31 $rbp: .cfa -16 + ^ .cfa: $rsp 16 +
STACK CFI 30b34 .cfa: $rbp 16 +
STACK CFI 30b39 $r15: .cfa -24 + ^
STACK CFI 30b70 $r12: .cfa -48 + ^ $r13: .cfa -40 + ^ $r14: .cfa -32 + ^ $rbx: .cfa -56 + ^
STACK CFI 30bb0 .cfa: $rsp 8 +
STACK CFI 30bb8 .cfa: $rbp 16 +
STACK CFI INIT 30fa0 80 .cfa: $rsp 8 + .ra: .cfa -8 + ^
STACK CFI 30fa1 $rbp: .cfa -16 + ^ .cfa: $rsp 16 +
STACK CFI 30fa6 .cfa: $rbp 16 +
STACK CFI 3101f .cfa: $rsp 8 +
STACK CFI INIT 31020 68e .cfa: $rsp 8 + .ra: .cfa -8 + ^
STACK CFI 31021 $rbp: .cfa -16 + ^ .cfa: $rsp 16 +
STACK CFI 31024 .cfa: $rbp 16 +
STACK CFI 3102b $r14: .cfa -32 + ^ $r15: .cfa -24 + ^
STACK CFI 31030 $r13: .cfa -40 + ^
STACK CFI 31035 $r12: .cfa -48 + ^
STACK CFI 3103d $rbx: .cfa -56 + ^
STACK CFI 310ac .cfa: $rsp 8 +
STACK CFI 310b0 .cfa: $rbp 16 +
STACK CFI 31337 .cfa: $rsp 8 +
STACK CFI 31338 .cfa: $rbp 16 +
STACK CFI INIT 316b0 ab .cfa: $rsp 8 + .ra: .cfa -8 + ^
STACK CFI 316b1 $rbp: .cfa -16 + ^ .cfa: $rsp 16 +
STACK CFI 316bb .cfa: $rbp 16 +
STACK CFI 316c6 $r12: .cfa -40 + ^ $rbx: .cfa -48 + ^
STACK CFI 316eb $r13: .cfa -32 + ^ $r14: .cfa -24 + ^
STACK CFI 3175a .cfa: $rsp 8 +
STACK CFI INIT 31760 66 .cfa: $rsp 8 + .ra: .cfa -8 + ^
STACK CFI 31764 $rbp: .cfa -16 + ^ .cfa: $rsp 16 +
STACK CFI 31767 .cfa: $rbp 16 +
STACK CFI 31772 .cfa: $rsp 8 +
STACK CFI 31778 .cfa: $rbp 16 +
STACK CFI 31791 .cfa: $rsp 8 +
STACK CFI 317a0 .cfa: $rbp 16 +
STACK CFI 317a1 .cfa: $rsp 8 +
STACK CFI 317b0 .cfa: $rbp 16 +
STACK CFI 317b6 .cfa: $rsp 8 +
STACK CFI 317c0 .cfa: $rbp 16 +
STACK CFI 317c1 .cfa: $rsp 8 +
STACK CFI INIT 317d0 8a .cfa: $rsp 8 + .ra: .cfa -8 + ^
STACK CFI 317d1 $rbp: .cfa -16 + ^ .cfa: $rsp 16 +
STACK CFI 317d6 .cfa: $rbp 16 +
STACK CFI 317e1 $r12: .cfa -40 + ^ $rbx: .cfa -48 + ^
STACK CFI 317f3 $r13: .cfa -32 + ^ $r14: .cfa -24 + ^
STACK CFI 31859 .cfa: $rsp 8 +
STACK CFI INIT 31860 e .cfa: $rsp 8 + .ra: .cfa -8 + ^
STACK CFI 31866 $rbp: .cfa -16 + ^ .cfa: $rsp 16 +
STACK CFI 31869 .cfa: $rbp 16 +
STACK CFI 3186a .cfa: $rsp 8 +
STACK CFI INIT 31870 62 .cfa: $rsp 8 + .ra: .cfa -8 + ^
STACK CFI 31873 $rbp: .cfa -16 + ^ .cfa: $rsp 16 +
STACK CFI 3187b .cfa: $rbp 16 +
STACK CFI 318d1 .cfa: $rsp 8 +
STACK CFI INIT 318e0 36 .cfa: $rsp 8 + .ra: .cfa -8 + ^
STACK CFI 318e1 $rbp: .cfa -16 + ^ .cfa: $rsp 16 +
STACK CFI 318f3 .cfa: $rbp 16 +
STACK CFI 31912 .cfa: $rsp 8 +
STACK CFI INIT 31920 32 .cfa: $rsp 8 + .ra: .cfa -8 + ^
STACK CFI 31921 $rbp: .cfa -16 + ^ .cfa: $rsp 16 +
STACK CFI 31924 .cfa: $rbp 16 +
STACK CFI 31928 $rbx: .cfa -24 + ^
STACK CFI 31951 .cfa: $rsp 8 +
STACK CFI INIT 31960 3a .cfa: $rsp 8 + .ra: .cfa -8 + ^
STACK CFI 31961 $rbp: .cfa -16 + ^ .cfa: $rsp 16 +
STACK CFI 31966 .cfa: $rbp 16 +
STACK CFI 3196a $rbx: .cfa -24 + ^
STACK CFI 31999 .cfa: $rsp 8 +
STACK CFI INIT 319a0 10 .cfa: $rsp 8 + .ra: .cfa -8 + ^
STACK CFI 319a5 $rbp: .cfa -16 + ^ .cfa: $rsp 16 +
STACK CFI 319a8 .cfa: $rbp 16 +
STACK CFI 319af .cfa: $rsp 8 +
STACK CFI INIT 319b0 9 .cfa: $rsp 8 + .ra: .cfa -8 + ^
STACK CFI 319b1 $rbp: .cfa -16 + ^ .cfa: $rsp 16 +
STACK CFI 319b7 .cfa: $rbp 16 +
STACK CFI 319b8 .cfa: $rsp 8 +
STACK CFI INIT 319c0 c .cfa: $rsp 8 + .ra: .cfa -8 + ^
STACK CFI 319c1 $rbp: .cfa -16 + ^ .cfa: $rsp 16 +
STACK CFI 319ca .cfa: $rbp 16 +
STACK CFI 319cb .cfa: $rsp 8 +
STACK CFI INIT 319d0 23 .cfa: $rsp 8 + .ra: .cfa -8 + ^
STACK CFI 319d1 $rbp: .cfa -16 + ^ .cfa: $rsp 16 +
STACK CFI 319d7 .cfa: $rbp 16 +
STACK CFI 319e0 .cfa: $rsp 8 +
STACK CFI 319e8 .cfa: $rbp 16 +
STACK CFI 319f2 .cfa: $rsp 8 +
STACK CFI INIT 31a00 18 .cfa: $rsp 8 + .ra: .cfa -8 + ^
STACK CFI 31a01 $rbp: .cfa -16 + ^ .cfa: $rsp 16 +
STACK CFI 31a16 .cfa: $rbp 16 +
STACK CFI 31a17 .cfa: $rsp 8 +
STACK CFI INIT 31a20 3e .cfa: $rsp 8 + .ra: .cfa -8 + ^
STACK CFI 31a21 $rbp: .cfa -16 + ^ .cfa: $rsp 16 +
STACK CFI 31a24 .cfa: $rbp 16 +
STACK CFI 31a37 $r12: .cfa -24 + ^ $rbx: .cfa -32 + ^
STACK CFI 31a5d .cfa: $rsp 8 +
STACK CFI INIT 31a60 44 .cfa: $rsp 8 + .ra: .cfa -8 + ^
STACK CFI 31a61 $rbp: .cfa -16 + ^ .cfa: $rsp 16 +
STACK CFI 31a6a .cfa: $rbp 16 +
STACK CFI 31a78 $rbx: .cfa -24 + ^
STACK CFI 31a83 .cfa: $rsp 8 +
STACK CFI 31a88 .cfa: $rbp 16 +
STACK CFI INIT 31ab0 c1 .cfa: $rsp 8 + .ra: .cfa -8 + ^
STACK CFI 31ab1 $rbp: .cfa -16 + ^ .cfa: $rsp 16 +
STACK CFI 31ab4 .cfa: $rbp 16 +
STACK CFI 31ab9 $r12: .cfa -24 + ^
STACK CFI 31abd $rbx: .cfa -32 + ^
STACK CFI 31b0c .cfa: $rsp 8 +
STACK CFI 31b10 .cfa: $rbp 16 +
STACK CFI INIT 31b80 60 .cfa: $rsp 8 + .ra: .cfa -8 + ^
STACK CFI 31b81 $rbp: .cfa -16 + ^ .cfa: $rsp 16 +
STACK CFI 31b84 .cfa: $rbp 16 +
STACK CFI 31b8b $r14: .cfa -24 + ^
STACK CFI 31b9d $r12: .cfa -40 + ^ $r13: .cfa -32 + ^ $rbx: .cfa -48 + ^
STACK CFI 31bcf .cfa: $rsp 8 +
STACK CFI 31bd0 .cfa: $rbp 16 +
STACK CFI INIT 31be0 89 .cfa: $rsp 8 + .ra: .cfa -8 + ^
STACK CFI 31be1 $rbp: .cfa -16 + ^ .cfa: $rsp 16 +
STACK CFI 31be4 .cfa: $rbp 16 +
STACK CFI 31bef $r12: .cfa -32 + ^ $rbx: .cfa -40 + ^
STACK CFI 31bfd $r13: .cfa -24 + ^
STACK CFI 31c68 .cfa: $rsp 8 +
STACK CFI INIT 31c70 89 .cfa: $rsp 8 + .ra: .cfa -8 + ^
STACK CFI 31c71 $rbp: .cfa -16 + ^ .cfa: $rsp 16 +
STACK CFI 31c74 .cfa: $rbp 16 +
STACK CFI 31c79 $r12: .cfa -24 + ^
STACK CFI 31c7d $rbx: .cfa -32 + ^
STACK CFI 31ccb .cfa: $rsp 8 +
STACK CFI 31cd0 .cfa: $rbp 16 +
STACK CFI INIT 31d00 7b .cfa: $rsp 8 + .ra: .cfa -8 + ^
STACK CFI 31d01 $rbp: .cfa -16 + ^ .cfa: $rsp 16 +
STACK CFI 31d04 .cfa: $rbp 16 +
STACK CFI 31d0f $r12: .cfa -40 + ^ $r13: .cfa -32 + ^
STACK CFI 31d1a $r14: .cfa -24 + ^ $rbx: .cfa -48 + ^
STACK CFI 31d7a .cfa: $rsp 8 +
STACK CFI INIT 31d80 7e9 .cfa: $rsp 8 + .ra: .cfa -8 + ^
STACK CFI 31d81 $rbp: .cfa -16 + ^ .cfa: $rsp 16 +
STACK CFI 31d84 .cfa: $rbp 16 +
STACK CFI 31d8f $r12: .cfa -48 + ^ $rbx: .cfa -56 + ^
STACK CFI 31da7 $r13: .cfa -40 + ^ $r14: .cfa -32 + ^ $r15: .cfa -24 + ^
STACK CFI 31dc5 .cfa: $rsp 8 +
STACK CFI 31dd0 .cfa: $rbp 16 +
STACK CFI INIT 32570 b5 .cfa: $rsp 8 + .ra: .cfa -8 + ^
STACK CFI 32571 $rbp: .cfa -16 + ^ .cfa: $rsp 16 +
STACK CFI 32574 .cfa: $rbp 16 +
STACK CFI 3257f $r12: .cfa -48 + ^ $rbx: .cfa -56 + ^
STACK CFI 3258a $r13: .cfa -40 + ^ $r14: .cfa -32 + ^
STACK CFI 325a4 $r15: .cfa -24 + ^
STACK CFI 32624 .cfa: $rsp 8 +
STACK CFI INIT 32630 245 .cfa: $rsp 8 + .ra: .cfa -8 + ^
STACK CFI 32631 $rbp: .cfa -16 + ^ .cfa: $rsp 16 +
STACK CFI 32634 .cfa: $rbp 16 +
STACK CFI 3263d $r12: .cfa -40 + ^ $r13: .cfa -32 + ^ $r14: .cfa -24 + ^
STACK CFI 32645 $rbx: .cfa -48 + ^
STACK CFI 32874 .cfa: $rsp 8 +
STACK CFI INIT 32880 92 .cfa: $rsp 8 + .ra: .cfa -8 + ^
STACK CFI 32881 $rbp: .cfa -16 + ^ .cfa: $rsp 16 +
STACK CFI 3288c .cfa: $rbp 16 +
STACK CFI 32895 $r13: .cfa -40 + ^ $r14: .cfa -32 + ^ $r15: .cfa -24 + ^
STACK CFI 3289e $r12: .cfa -48 + ^
STACK CFI 328b0 $rbx: .cfa -56 + ^
STACK CFI 32911 .cfa: $rsp 8 +
STACK CFI INIT 32920 2c .cfa: $rsp 8 + .ra: .cfa -8 + ^
STACK CFI 32928 $rbp: .cfa -16 + ^ .cfa: $rsp 16 +
STACK CFI 32943 .cfa: $rbp 16 +
STACK CFI 32947 .cfa: $rsp 8 +
STACK CFI INIT 32950 c0 .cfa: $rsp 8 + .ra: .cfa -8 + ^
STACK CFI 32951 $rbp: .cfa -16 + ^ .cfa: $rsp 16 +
STACK CFI 32954 .cfa: $rbp 16 +
STACK CFI 32966 $r12: .cfa -24 + ^ $rbx: .cfa -32 + ^
STACK CFI 329aa .cfa: $rsp 8 +
STACK CFI 329b0 .cfa: $rbp 16 +
STACK CFI 329f3 .cfa: $rsp 8 +
STACK CFI 32a00 .cfa: $rbp 16 +
STACK CFI INIT 32a10 11c .cfa: $rsp 8 + .ra: .cfa -8 + ^
STACK CFI 32a11 $rbp: .cfa -16 + ^ .cfa: $rsp 16 +
STACK CFI 32a14 .cfa: $rbp 16 +
STACK CFI 32a1f $r12: .cfa -32 + ^ $rbx: .cfa -40 + ^
STACK CFI 32a35 $r13: .cfa -24 + ^
STACK CFI 32a91 .cfa: $rsp 8 +
STACK CFI 32a98 .cfa: $rbp 16 +
STACK CFI 32abe .cfa: $rsp 8 +
STACK CFI 32ac0 .cfa: $rbp 16 +
STACK CFI INIT 32b30 b4 .cfa: $rsp 8 + .ra: .cfa -8 + ^
STACK CFI 32b31 $rbp: .cfa -16 + ^ .cfa: $rsp 16 +
STACK CFI 32b34 .cfa: $rbp 16 +
STACK CFI 32b50 $r12: .cfa -32 + ^ $r13: .cfa -24 + ^ $rbx: .cfa -40 + ^
STACK CFI 32bb5 .cfa: $rsp 8 +
STACK CFI 32bc0 .cfa: $rbp 16 +
STACK CFI 32be3 .cfa: $rsp 8 +
STACK CFI INIT 32bf0 2b3 .cfa: $rsp 8 + .ra: .cfa -8 + ^
STACK CFI 32bf1 $rbp: .cfa -16 + ^ .cfa: $rsp 16 +
STACK CFI 32bf9 .cfa: $rbp 16 +
STACK CFI 32c04 $r13: .cfa -40 + ^ $r14: .cfa -32 + ^
STACK CFI 32c20 $r12: .cfa -48 + ^ $r15: .cfa -24 + ^ $rbx: .cfa -56 + ^
STACK CFI 32c37 .cfa: $rsp 8 +
STACK CFI 32c40 .cfa: $rbp 16 +
STACK CFI INIT 32eb0 1be .cfa: $rsp 8 + .ra: .cfa -8 + ^
STACK CFI 32eb1 $rbp: .cfa -16 + ^ .cfa: $rsp 16 +
STACK CFI 32eb4 .cfa: $rbp 16 +
STACK CFI 32eb9 $r12: .cfa -24 + ^
STACK CFI 32ec5 $rbx: .cfa -32 + ^
STACK CFI 33024 .cfa: $rsp 8 +
STACK CFI 33028 .cfa: $rbp 16 +
STACK CFI 33043 .cfa: $rsp 8 +
STACK CFI 33048 .cfa: $rbp 16 +
STACK CFI INIT 33070 18d .cfa: $rsp 8 + .ra: .cfa -8 + ^
STACK CFI 33071 $rbp: .cfa -16 + ^ .cfa: $rsp 16 +
STACK CFI 33074 .cfa: $rbp 16 +
STACK CFI 33079 $r12: .cfa -24 + ^
STACK CFI 33085 $rbx: .cfa -32 + ^
STACK CFI 330ab .cfa: $rsp 8 +
STACK CFI 330b0 .cfa: $rbp 16 +
STACK CFI 331ec .cfa: $rsp 8 +
STACK CFI 331ed .cfa: $rbp 16 +
STACK CFI INIT 33200 d2 .cfa: $rsp 8 + .ra: .cfa -8 + ^
STACK CFI 33201 $rbp: .cfa -16 + ^ .cfa: $rsp 16 +
STACK CFI 33204 .cfa: $rbp 16 +
STACK CFI 3320f $r12: .cfa -32 + ^ $rbx: .cfa -40 + ^
STACK CFI 3322c $r13: .cfa -24 + ^
STACK CFI 33240 .cfa: $rsp 8 +
STACK CFI 33248 .cfa: $rbp 16 +
STACK CFI 33263 .cfa: $rsp 8 +
STACK CFI 33268 .cfa: $rbp 16 +
STACK CFI 33283 .cfa: $rsp 8 +
STACK CFI 33288 .cfa: $rbp 16 +
STACK CFI 332d1 .cfa: $rsp 8 +
STACK CFI INIT 332e0 11 .cfa: $rsp 8 + .ra: .cfa -8 + ^
STACK CFI 332e1 $rbp: .cfa -16 + ^ .cfa: $rsp 16 +
STACK CFI 332e8 .cfa: $rbp 16 +
STACK CFI 332ec .cfa: $rsp 8 +
STACK CFI INIT 33300 105 .cfa: $rsp 8 + .ra: .cfa -8 + ^
STACK CFI 33301 $rbp: .cfa -16 + ^ .cfa: $rsp 16 +
STACK CFI 33304 .cfa: $rbp 16 +
STACK CFI 3330b $r14: .cfa -32 + ^ $r15: .cfa -24 + ^
STACK CFI 33313 $r12: .cfa -48 + ^ $r13: .cfa -40 + ^ $rbx: .cfa -56 + ^
STACK CFI 33404 .cfa: $rsp 8 +
STACK CFI INIT 33410 1d1 .cfa: $rsp 8 + .ra: .cfa -8 + ^
STACK CFI 33411 $rbp: .cfa -16 + ^ .cfa: $rsp 16 +
STACK CFI 33414 .cfa: $rbp 16 +
STACK CFI 3341f $r13: .cfa -40 + ^ $r14: .cfa -32 + ^
STACK CFI 3343a $r12: .cfa -48 + ^ $r15: .cfa -24 + ^ $rbx: .cfa -56 + ^
STACK CFI 33538 .cfa: $rsp 8 +
STACK CFI 33540 .cfa: $rbp 16 +
STACK CFI INIT 335f0 22 .cfa: $rsp 8 + .ra: .cfa -8 + ^
STACK CFI 335f1 $rbp: .cfa -16 + ^ .cfa: $rsp 16 +
STACK CFI 335f7 .cfa: $rbp 16 +
STACK CFI 335ff .cfa: $rsp 8 +
STACK CFI 33600 .cfa: $rbp 16 +
STACK CFI 3360d .cfa: $rsp 8 +
STACK CFI INIT 33620 cb .cfa: $rsp 8 + .ra: .cfa -8 + ^
STACK CFI 33621 $rbp: .cfa -16 + ^ .cfa: $rsp 16 +
STACK CFI 33628 .cfa: $rbp 16 +
STACK CFI 3362c $rbx: .cfa -24 + ^
STACK CFI 3369c .cfa: $rsp 8 +
STACK CFI 336a0 .cfa: $rbp 16 +
STACK CFI 336ab .cfa: $rsp 8 +
STACK CFI 336b0 .cfa: $rbp 16 +
STACK CFI INIT 336f0 767 .cfa: $rsp 8 + .ra: .cfa -8 + ^
STACK CFI 336f1 $rbp: .cfa -16 + ^ .cfa: $rsp 16 +
STACK CFI 336f7 .cfa: $rbp 16 +
STACK CFI 3370b $r12: .cfa -48 + ^ $r13: .cfa -40 + ^ $r14: .cfa -32 + ^ $r15: .cfa -24 + ^ $rbx: .cfa -56 + ^
STACK CFI 33812 .cfa: $rsp 8 +
STACK CFI 33813 .cfa: $rbp 16 +
STACK CFI INIT 33e60 72 .cfa: $rsp 8 + .ra: .cfa -8 + ^
STACK CFI 33e61 $rbp: .cfa -16 + ^ .cfa: $rsp 16 +
STACK CFI 33e64 .cfa: $rbp 16 +
STACK CFI 33e7b $r12: .cfa -24 + ^ $rbx: .cfa -32 + ^
STACK CFI 33ed1 .cfa: $rsp 8 +
STACK CFI INIT 33ee0 37 .cfa: $rsp 8 + .ra: .cfa -8 + ^
STACK CFI 33ee1 $rbp: .cfa -16 + ^ .cfa: $rsp 16 +
STACK CFI 33ee4 .cfa: $rbp 16 +
STACK CFI 33ee8 $rbx: .cfa -24 + ^
STACK CFI 33f05 .cfa: $rsp 8 +
STACK CFI 33f10 .cfa: $rbp 16 +
STACK CFI 33f16 .cfa: $rsp 8 +
STACK CFI INIT 33f20 523 .cfa: $rsp 8 + .ra: .cfa -8 + ^
STACK CFI 33f21 $rbp: .cfa -16 + ^ .cfa: $rsp 16 +
STACK CFI 33f24 .cfa: $rbp 16 +
STACK CFI 33f2b $r14: .cfa -32 + ^ $r15: .cfa -24 + ^
STACK CFI 33f30 $r13: .cfa -40 + ^
STACK CFI 33f35 $r12: .cfa -48 + ^
STACK CFI 33f39 $rbx: .cfa -56 + ^
STACK CFI 343ed .cfa: $rsp 8 +
STACK CFI 343ee .cfa: $rbp 16 +
STACK CFI INIT 34450 cd .cfa: $rsp 8 + .ra: .cfa -8 + ^
STACK CFI 34451 $rbp: .cfa -16 + ^ .cfa: $rsp 16 +
STACK CFI 34457 .cfa: $rbp 16 +
STACK CFI 3445d $r12: .cfa -24 + ^ $rbx: .cfa -32 + ^
STACK CFI 344b3 .cfa: $rsp 8 +
STACK CFI 344c0 .cfa: $rbp 16 +
STACK CFI 3451c .cfa: $rsp 8 +
STACK CFI INIT 34520 103 .cfa: $rsp 8 + .ra: .cfa -8 + ^
STACK CFI 34521 $rbp: .cfa -16 + ^ .cfa: $rsp 16 +
STACK CFI 34524 .cfa: $rbp 16 +
STACK CFI 3452d $r13: .cfa -40 + ^ $r14: .cfa -32 + ^ $r15: .cfa -24 + ^
STACK CFI 34534 $r12: .cfa -48 + ^ $rbx: .cfa -56 + ^
STACK CFI 3460e .cfa: $rsp 8 +
STACK CFI 34610 .cfa: $rbp 16 +
STACK CFI INIT 34630 15e .cfa: $rsp 8 + .ra: .cfa -8 + ^
STACK CFI 34631 $rbp: .cfa -16 + ^ .cfa: $rsp 16 +
STACK CFI 34634 .cfa: $rbp 16 +
STACK CFI 3463f $r12: .cfa -40 + ^ $rbx: .cfa -48 + ^
STACK CFI 34655 $r13: .cfa -32 + ^ $r14: .cfa -24 + ^
STACK CFI 3468d .cfa: $rsp 8 +
STACK CFI 34690 .cfa: $rbp 16 +
STACK CFI INIT 34790 245 .cfa: $rsp 8 + .ra: .cfa -8 + ^
STACK CFI 34791 $rbp: .cfa -16 + ^ .cfa: $rsp 16 +
STACK CFI 34794 .cfa: $rbp 16 +
STACK CFI 3479f $r12: .cfa -48 + ^ $rbx: .cfa -56 + ^
STACK CFI 347b6 $r13: .cfa -40 + ^ $r14: .cfa -32 + ^ $r15: .cfa -24 + ^
STACK CFI 347e3 .cfa: $rsp 8 +
STACK CFI 347e8 .cfa: $rbp 16 +
STACK CFI INIT 349e0 b .cfa: $rsp 8 + .ra: .cfa -8 + ^
STACK CFI 349e1 $rbp: .cfa -16 + ^ .cfa: $rsp 16 +
STACK CFI 349e4 .cfa: $rbp 16 +
STACK CFI 349ea .cfa: $rsp 8 +
STACK CFI INIT 349f0 354 .cfa: $rsp 8 + .ra: .cfa -8 + ^
STACK CFI 349f1 $rbp: .cfa -16 + ^ .cfa: $rsp 16 +
STACK CFI 349f4 .cfa: $rbp 16 +
STACK CFI 34a0c $r12: .cfa -48 + ^ $r13: .cfa -40 + ^ $r14: .cfa -32 + ^ $r15: .cfa -24 + ^ $rbx: .cfa -56 + ^
STACK CFI 34c0a .cfa: $rsp 8 +
STACK CFI 34c10 .cfa: $rbp 16 +
STACK CFI INIT 34d50 1f8 .cfa: $rsp 8 + .ra: .cfa -8 + ^
STACK CFI 34d51 $rbp: .cfa -16 + ^ .cfa: $rsp 16 +
STACK CFI 34d54 .cfa: $rbp 16 +
STACK CFI 34d5e $r12: .cfa -40 + ^ $r13: .cfa -32 + ^ $r14: .cfa -24 + ^ $rbx: .cfa -48 + ^
STACK CFI 34de1 .cfa: $rsp 8 +
STACK CFI 34de8 .cfa: $rbp 16 +
STACK CFI INIT 34f50 9b .cfa: $rsp 8 + .ra: .cfa -8 + ^
STACK CFI 34f51 $rbp: .cfa -16 + ^ .cfa: $rsp 16 +
STACK CFI 34f54 .cfa: $rbp 16 +
STACK CFI 34f59 $r12: .cfa -24 + ^
STACK CFI 34f5d $rbx: .cfa -32 + ^
STACK CFI 34f90 .cfa: $rsp 8 +
STACK CFI 34f98 .cfa: $rbp 16 +
STACK CFI 34fea .cfa: $rsp 8 +
STACK CFI INIT 34ff0 64 .cfa: $rsp 8 + .ra: .cfa -8 + ^
STACK CFI 34ff1 $rbp: .cfa -16 + ^ .cfa: $rsp 16 +
STACK CFI 34ff4 .cfa: $rbp 16 +
STACK CFI 34ff8 $rbx: .cfa -24 + ^
STACK CFI 35044 .cfa: $rsp 8 +
STACK CFI 35048 .cfa: $rbp 16 +
STACK CFI 35053 .cfa: $rsp 8 +
STACK CFI INIT 35060 62 .cfa: $rsp 8 + .ra: .cfa -8 + ^
STACK CFI 35061 $rbp: .cfa -16 + ^ .cfa: $rsp 16 +
STACK CFI 35064 .cfa: $rbp 16 +
STACK CFI 35069 $r12: .cfa -24 + ^
STACK CFI 3506d $rbx: .cfa -32 + ^
STACK CFI 350c1 .cfa: $rsp 8 +
STACK CFI INIT 350d0 c6 .cfa: $rsp 8 + .ra: .cfa -8 + ^
STACK CFI 350d1 $rbp: .cfa -16 + ^ .cfa: $rsp 16 +
STACK CFI 350d7 .cfa: $rbp 16 +
STACK CFI 350dc $r12: .cfa -24 + ^
STACK CFI 350ef $rbx: .cfa -32 + ^
STACK CFI 35195 .cfa: $rsp 8 +
STACK CFI INIT 351a0 481 .cfa: $rsp 8 + .ra: .cfa -8 + ^
STACK CFI 351a1 $rbp: .cfa -16 + ^ .cfa: $rsp 16 +
STACK CFI 351a4 .cfa: $rbp 16 +
STACK CFI 351af $r12: .cfa -48 + ^ $rbx: .cfa -56 + ^
STACK CFI 351ba $r13: .cfa -40 + ^ $r14: .cfa -32 + ^
STACK CFI 351db $r15: .cfa -24 + ^
STACK CFI 35312 .cfa: $rsp 8 +
STACK CFI 35318 .cfa: $rbp 16 +
STACK CFI INIT 35630 7cf .cfa: $rsp 8 + .ra: .cfa -8 + ^
STACK CFI 35631 $rbp: .cfa -16 + ^ .cfa: $rsp 16 +
STACK CFI 35634 .cfa: $rbp 16 +
STACK CFI 3563b $r14: .cfa -32 + ^ $r15: .cfa -24 + ^
STACK CFI 35640 $r13: .cfa -40 + ^
STACK CFI 35655 $r12: .cfa -48 + ^ $rbx: .cfa -56 + ^
STACK CFI 358e8 .cfa: $rsp 8 +
STACK CFI 358f0 .cfa: $rbp 16 +
STACK CFI 35c71 .cfa: $rsp 8 +
STACK CFI 35c78 .cfa: $rbp 16 +
STACK CFI INIT 35e00 c7 .cfa: $rsp 8 + .ra: .cfa -8 + ^
STACK CFI 35e01 $rbp: .cfa -16 + ^ .cfa: $rsp 16 +
STACK CFI 35e04 .cfa: $rbp 16 +
STACK CFI 35e0e $r12: .cfa -24 + ^ $rbx: .cfa -32 + ^
STACK CFI 35e29 .cfa: $rsp 8 +
STACK CFI 35e30 .cfa: $rbp 16 +
STACK CFI 35e82 .cfa: $rsp 8 +
STACK CFI 35e88 .cfa: $rbp 16 +
STACK CFI 35e95 .cfa: $rsp 8 +
STACK CFI 35ea0 .cfa: $rbp 16 +
STACK CFI INIT 35ed0 2b5 .cfa: $rsp 8 + .ra: .cfa -8 + ^
STACK CFI 35ed1 $rbp: .cfa -16 + ^ .cfa: $rsp 16 +
STACK CFI 35ed4 .cfa: $rbp 16 +
STACK CFI 35ede $r12: .cfa -40 + ^ $r13: .cfa -32 + ^ $r14: .cfa -24 + ^ $rbx: .cfa -48 + ^
STACK CFI 35fa2 .cfa: $rsp 8 +
STACK CFI 35fa8 .cfa: $rbp 16 +
STACK CFI 360cd .cfa: $rsp 8 +
STACK CFI 360d0 .cfa: $rbp 16 +
STACK CFI 3612e .cfa: $rsp 8 +
STACK CFI 36130 .cfa: $rbp 16 +
STACK CFI INIT 36190 1ac .cfa: $rsp 8 + .ra: .cfa -8 + ^
STACK CFI 36191 $rbp: .cfa -16 + ^ .cfa: $rsp 16 +
STACK CFI 36194 .cfa: $rbp 16 +
STACK CFI 3619f $r12: .cfa -48 + ^ $rbx: .cfa -56 + ^
STACK CFI 361aa $r13: .cfa -40 + ^ $r14: .cfa -32 + ^
STACK CFI 361cc $r15: .cfa -24 + ^
STACK CFI 36303 .cfa: $rsp 8 +
STACK CFI 36308 .cfa: $rbp 16 +
STACK CFI INIT 36340 106f .cfa: $rsp 8 + .ra: .cfa -8 + ^
STACK CFI 36341 $rbp: .cfa -16 + ^ .cfa: $rsp 16 +
STACK CFI 36344 .cfa: $rbp 16 +
STACK CFI 3634f $r12: .cfa -48 + ^ $rbx: .cfa -56 + ^
STACK CFI 3635a $r13: .cfa -40 + ^ $r14: .cfa -32 + ^
STACK CFI 36376 $r15: .cfa -24 + ^
STACK CFI 363a9 .cfa: $rsp 8 +
STACK CFI 363b0 .cfa: $rbp 16 +
STACK CFI INIT 373b0 16b .cfa: $rsp 8 + .ra: .cfa -8 + ^
STACK CFI 373b1 $rbp: .cfa -16 + ^ .cfa: $rsp 16 +
STACK CFI 373b4 .cfa: $rbp 16 +
STACK CFI 373bf $r13: .cfa -24 + ^ $rbx: .cfa -40 + ^
STACK CFI 373d2 $r12: .cfa -32 + ^
STACK CFI 373f6 .cfa: $rsp 8 +
STACK CFI 37400 .cfa: $rbp 16 +
STACK CFI INIT 37520 12e .cfa: $rsp 8 + .ra: .cfa -8 + ^
STACK CFI 37521 $rbp: .cfa -16 + ^ .cfa: $rsp 16 +
STACK CFI 37524 .cfa: $rbp 16 +
STACK CFI 37528 $rbx: .cfa -24 + ^
STACK CFI 37639 .cfa: $rsp 8 +
STACK CFI 37640 .cfa: $rbp 16 +
STACK CFI 37649 .cfa: $rsp 8 +
STACK CFI INIT 37650 222 .cfa: $rsp 8 + .ra: .cfa -8 + ^
STACK CFI 37651 $rbp: .cfa -16 + ^ .cfa: $rsp 16 +
STACK CFI 37654 .cfa: $rbp 16 +
STACK CFI 3765f $r12: .cfa -40 + ^ $rbx: .cfa -48 + ^
STACK CFI 3767b $r13: .cfa -32 + ^ $r14: .cfa -24 + ^
STACK CFI 377fc .cfa: $rsp 8 +
STACK CFI 37800 .cfa: $rbp 16 +
STACK CFI INIT 37880 219 .cfa: $rsp 8 + .ra: .cfa -8 + ^
STACK CFI 37881 $rbp: .cfa -16 + ^ .cfa: $rsp 16 +
STACK CFI 37884 .cfa: $rbp 16 +
STACK CFI 3788f $r12: .cfa -48 + ^ $rbx: .cfa -56 + ^
STACK CFI 378b1 $r13: .cfa -40 + ^ $r14: .cfa -32 + ^ $r15: .cfa -24 + ^
STACK CFI 3791e .cfa: $rsp 8 +
STACK CFI 37920 .cfa: $rbp 16 +
STACK CFI INIT 37aa0 71 .cfa: $rsp 8 + .ra: .cfa -8 + ^
STACK CFI 37aa4 $rbp: .cfa -16 + ^ .cfa: $rsp 16 +
STACK CFI 37aa7 .cfa: $rbp 16 +
STACK CFI 37ac9 .cfa: $rsp 8 +
STACK CFI 37ad0 .cfa: $rbp 16 +
STACK CFI 37adf .cfa: $rsp 8 +
STACK CFI 37ae0 .cfa: $rbp 16 +
STACK CFI 37aeb .cfa: $rsp 8 +
STACK CFI 37af0 .cfa: $rbp 16 +
STACK CFI 37afc .cfa: $rsp 8 +
STACK CFI 37b00 .cfa: $rbp 16 +
STACK CFI 37b0b .cfa: $rsp 8 +
STACK CFI INIT 37b20 71 .cfa: $rsp 8 + .ra: .cfa -8 + ^
STACK CFI 37b24 $rbp: .cfa -16 + ^ .cfa: $rsp 16 +
STACK CFI 37b27 .cfa: $rbp 16 +
STACK CFI 37b4a .cfa: $rsp 8 +
STACK CFI 37b50 .cfa: $rbp 16 +
STACK CFI 37b5f .cfa: $rsp 8 +
STACK CFI 37b60 .cfa: $rbp 16 +
STACK CFI 37b6b .cfa: $rsp 8 +
STACK CFI 37b70 .cfa: $rbp 16 +
STACK CFI 37b7c .cfa: $rsp 8 +
STACK CFI 37b80 .cfa: $rbp 16 +
STACK CFI 37b8b .cfa: $rsp 8 +
STACK CFI INIT 37ba0 71 .cfa: $rsp 8 + .ra: .cfa -8 + ^
STACK CFI 37ba1 $rbp: .cfa -16 + ^ .cfa: $rsp 16 +
STACK CFI 37bab .cfa: $rbp 16 +
STACK CFI 37bcb .cfa: $rsp 8 +
STACK CFI 37bd0 .cfa: $rbp 16 +
STACK CFI 37bdc .cfa: $rsp 8 +
STACK CFI 37be0 .cfa: $rbp 16 +
STACK CFI 37be8 .cfa: $rsp 8 +
STACK CFI 37bf0 .cfa: $rbp 16 +
STACK CFI 37c10 .cfa: $rsp 8 +
STACK CFI INIT 37c20 c8 .cfa: $rsp 8 + .ra: .cfa -8 + ^
STACK CFI 37c21 $rbp: .cfa -16 + ^ .cfa: $rsp 16 +
STACK CFI 37c26 .cfa: $rbp 16 +
STACK CFI 37ccb .cfa: $rsp 8 +
STACK CFI 37cd0 .cfa: $rbp 16 +
STACK CFI INIT 37cf0 11d .cfa: $rsp 8 + .ra: .cfa -8 + ^
STACK CFI 37cf1 $rbp: .cfa -16 + ^ .cfa: $rsp 16 +
STACK CFI 37cf4 .cfa: $rbp 16 +
STACK CFI 37cfe $r12: .cfa -40 + ^ $r13: .cfa -32 + ^ $r14: .cfa -24 + ^ $rbx: .cfa -48 + ^
STACK CFI 37dc5 .cfa: $rsp 8 +
STACK CFI 37dd0 .cfa: $rbp 16 +
STACK CFI 37de9 .cfa: $rsp 8 +
STACK CFI 37df0 .cfa: $rbp 16 +
STACK CFI INIT 37e10 28 .cfa: $rsp 8 + .ra: .cfa -8 + ^
STACK CFI 37e11 $rbp: .cfa -16 + ^ .cfa: $rsp 16 +
STACK CFI 37e17 .cfa: $rbp 16 +
STACK CFI 37e37 .cfa: $rsp 8 +
STACK CFI INIT 37e40 13 .cfa: $rsp 8 + .ra: .cfa -8 + ^
STACK CFI 37e41 $rbp: .cfa -16 + ^ .cfa: $rsp 16 +
STACK CFI 37e51 .cfa: $rbp 16 +
STACK CFI 37e52 .cfa: $rsp 8 +
STACK CFI INIT 37e60 9 .cfa: $rsp 8 + .ra: .cfa -8 + ^
STACK CFI 37e61 $rbp: .cfa -16 + ^ .cfa: $rsp 16 +
STACK CFI 37e67 .cfa: $rbp 16 +
STACK CFI 37e68 .cfa: $rsp 8 +
STACK CFI INIT 37e70 95 .cfa: $rsp 8 + .ra: .cfa -8 + ^
STACK CFI 37e77 $rbp: .cfa -16 + ^ .cfa: $rsp 16 +
STACK CFI 37e82 .cfa: $rbp 16 +
STACK CFI 37eb2 .cfa: $rsp 8 +
STACK CFI 37eb8 .cfa: $rbp 16 +
STACK CFI 37ee3 .cfa: $rsp 8 +
STACK CFI 37ee8 .cfa: $rbp 16 +
STACK CFI 37efc .cfa: $rsp 8 +
STACK CFI INIT 37f10 8 .cfa: $rsp 8 + .ra: .cfa -8 + ^
STACK CFI 37f11 $rbp: .cfa -16 + ^ .cfa: $rsp 16 +
STACK CFI 37f16 .cfa: $rbp 16 +
STACK CFI 37f17 .cfa: $rsp 8 +
STACK CFI INIT 37f20 9 .cfa: $rsp 8 + .ra: .cfa -8 + ^
STACK CFI 37f21 $rbp: .cfa -16 + ^ .cfa: $rsp 16 +
STACK CFI 37f27 .cfa: $rbp 16 +
STACK CFI 37f28 .cfa: $rsp 8 +
STACK CFI INIT 37f30 b .cfa: $rsp 8 + .ra: .cfa -8 + ^
STACK CFI 37f31 $rbp: .cfa -16 + ^ .cfa: $rsp 16 +
STACK CFI 37f39 .cfa: $rbp 16 +
STACK CFI 37f3a .cfa: $rsp 8 +
STACK CFI INIT 37f40 1b .cfa: $rsp 8 + .ra: .cfa -8 + ^
STACK CFI 37f41 $rbp: .cfa -16 + ^ .cfa: $rsp 16 +
STACK CFI 37f4c .cfa: $rbp 16 +
STACK CFI 37f5a .cfa: $rsp 8 +
STACK CFI INIT 37f60 20 .cfa: $rsp 8 + .ra: .cfa -8 + ^
STACK CFI 37f61 $rbp: .cfa -16 + ^ .cfa: $rsp 16 +
STACK CFI 37f6c .cfa: $rbp 16 +
STACK CFI 37f7f .cfa: $rsp 8 +
STACK CFI INIT 37f80 c2 .cfa: $rsp 8 + .ra: .cfa -8 + ^
STACK CFI 37f81 $rbp: .cfa -16 + ^ .cfa: $rsp 16 +
STACK CFI 37f8c .cfa: $rbp 16 +
STACK CFI 37ffb .cfa: $rsp 8 +
STACK CFI 38000 .cfa: $rbp 16 +
STACK CFI 38041 .cfa: $rsp 8 +
STACK CFI INIT 38050 4a .cfa: $rsp 8 + .ra: .cfa -8 + ^
STACK CFI 38055 $rbp: .cfa -16 + ^ .cfa: $rsp 16 +
STACK CFI 3805b .cfa: $rbp 16 +
STACK CFI 38099 .cfa: $rsp 8 +
STACK CFI INIT 380a0 231 .cfa: $rsp 8 + .ra: .cfa -8 + ^
STACK CFI 380a1 $rbp: .cfa -16 + ^ .cfa: $rsp 16 +
STACK CFI 380a4 .cfa: $rbp 16 +
STACK CFI 380ab $r14: .cfa -32 + ^ $r15: .cfa -24 + ^
STACK CFI 380b0 $r13: .cfa -40 + ^
STACK CFI 380b5 $r12: .cfa -48 + ^
STACK CFI 380b9 $rbx: .cfa -56 + ^
STACK CFI 381b6 .cfa: $rsp 8 +
STACK CFI 381c0 .cfa: $rbp 16 +
STACK CFI 381d3 .cfa: $rsp 8 +
STACK CFI 381d8 .cfa: $rbp 16 +
STACK CFI INIT 382e0 24 .cfa: $rsp 8 + .ra: .cfa -8 + ^
STACK CFI 382e1 $rbp: .cfa -16 + ^ .cfa: $rsp 16 +
STACK CFI 382e4 .cfa: $rbp 16 +
STACK CFI 38303 .cfa: $rsp 8 +
STACK CFI INIT 38310 127 .cfa: $rsp 8 + .ra: .cfa -8 + ^
STACK CFI 38311 $rbp: .cfa -16 + ^ .cfa: $rsp 16 +
STACK CFI 38317 .cfa: $rbp 16 +
STACK CFI 3831f $r13: .cfa -32 + ^ $r14: .cfa -24 + ^
STACK CFI 38328 $r12: .cfa -40 + ^ $rbx: .cfa -48 + ^
STACK CFI 383ec .cfa: $rsp 8 +
STACK CFI 383f0 .cfa: $rbp 16 +
STACK CFI 383fa .cfa: $rsp 8 +
STACK CFI 38400 .cfa: $rbp 16 +
STACK CFI 38429 .cfa: $rsp 8 +
STACK CFI 38430 .cfa: $rbp 16 +
STACK CFI INIT 38440 36 .cfa: $rsp 8 + .ra: .cfa -8 + ^
STACK CFI 38447 $rbp: .cfa -16 + ^ .cfa: $rsp 16 +
STACK CFI 38457 .cfa: $rbp 16 +
STACK CFI 38475 .cfa: $rsp 8 +
STACK CFI INIT 38480 36 .cfa: $rsp 8 + .ra: .cfa -8 + ^
STACK CFI 38487 $rbp: .cfa -16 + ^ .cfa: $rsp 16 +
STACK CFI 38497 .cfa: $rbp 16 +
STACK CFI 384b5 .cfa: $rsp 8 +
STACK CFI INIT 384c0 10 .cfa: $rsp 8 + .ra: .cfa -8 + ^
STACK CFI 384c1 $rbp: .cfa -16 + ^ .cfa: $rsp 16 +
STACK CFI 384ca .cfa: $rbp 16 +
STACK CFI 384cb .cfa: $rsp 8 +
STACK CFI INIT 384d0 8f .cfa: $rsp 8 + .ra: .cfa -8 + ^
STACK CFI 384d1 $rbp: .cfa -16 + ^ .cfa: $rsp 16 +
STACK CFI 384d6 .cfa: $rbp 16 +
STACK CFI 384e1 $r12: .cfa -48 + ^ $rbx: .cfa -56 + ^
STACK CFI 384ec $r13: .cfa -40 + ^ $r14: .cfa -32 + ^
STACK CFI 384fe $r15: .cfa -24 + ^
STACK CFI 3855a .cfa: $rsp 8 +
STACK CFI INIT 38560 2b .cfa: $rsp 8 + .ra: .cfa -8 + ^
STACK CFI 3856a $rbp: .cfa -16 + ^ .cfa: $rsp 16 +
STACK CFI 38576 .cfa: $rbp 16 +
STACK CFI 38577 .cfa: $rsp 8 +
STACK CFI INIT 38590 87 .cfa: $rsp 8 + .ra: .cfa -8 + ^
STACK CFI 38591 $rbp: .cfa -16 + ^ .cfa: $rsp 16 +
STACK CFI 38597 .cfa: $rbp 16 +
STACK CFI 3859c $r12: .cfa -24 + ^ $rbx: .cfa -32 + ^
STACK CFI 3860b .cfa: $rsp 8 +
STACK CFI 38610 .cfa: $rbp 16 +
STACK CFI INIT 38620 36 .cfa: $rsp 8 + .ra: .cfa -8 + ^
STACK CFI 38624 $rbp: .cfa -16 + ^ .cfa: $rsp 16 +
STACK CFI 38627 .cfa: $rbp 16 +
STACK CFI 3864b .cfa: $rsp 8 +
STACK CFI 38650 .cfa: $rbp 16 +
STACK CFI 38651 .cfa: $rsp 8 +
STACK CFI INIT 38660 391 .cfa: $rsp 8 + .ra: .cfa -8 + ^
STACK CFI 38661 $rbp: .cfa -16 + ^ .cfa: $rsp 16 +
STACK CFI 38664 .cfa: $rbp 16 +
STACK CFI 38668 $rbx: .cfa -24 + ^
STACK CFI 387a9 .cfa: $rsp 8 +
STACK CFI 387b0 .cfa: $rbp 16 +
STACK CFI 3880c .cfa: $rsp 8 +
STACK CFI 38810 .cfa: $rbp 16 +
STACK CFI INIT 38a00 262 .cfa: $rsp 8 + .ra: .cfa -8 + ^
STACK CFI 38a01 $rbp: .cfa -16 + ^ .cfa: $rsp 16 +
STACK CFI 38a04 .cfa: $rbp 16 +
STACK CFI 38a0f $r12: .cfa -48 + ^ $r13: .cfa -40 + ^ $r14: .cfa -32 + ^ $r15: .cfa -24 + ^
STACK CFI 38a17 $rbx: .cfa -56 + ^
STACK CFI 38bfc .cfa: $rsp 8 +
STACK CFI 38c00 .cfa: $rbp 16 +
STACK CFI 38c36 .cfa: $rsp 8 +
STACK CFI 38c40 .cfa: $rbp 16 +
STACK CFI INIT 38c70 166 .cfa: $rsp 8 + .ra: .cfa -8 + ^
STACK CFI 38c71 $rbp: .cfa -16 + ^ .cfa: $rsp 16 +
STACK CFI 38c77 .cfa: $rbp 16 +
STACK CFI 38c7e $r14: .cfa -32 + ^ $r15: .cfa -24 + ^
STACK CFI 38c83 $r13: .cfa -40 + ^
STACK CFI 38c89 $r12: .cfa -48 + ^ $rbx: .cfa -56 + ^
STACK CFI 38ced .cfa: $rsp 8 +
STACK CFI 38cf0 .cfa: $rbp 16 +
STACK CFI INIT 38de0 915 .cfa: $rsp 8 + .ra: .cfa -8 + ^
STACK CFI 38de1 $rbp: .cfa -16 + ^ .cfa: $rsp 16 +
STACK CFI 38de6 .cfa: $rbp 16 +
STACK CFI 38df1 $r12: .cfa -48 + ^ $r13: .cfa -40 + ^ $r14: .cfa -32 + ^ $r15: .cfa -24 + ^ $rbx: .cfa -56 + ^
STACK CFI 392c2 .cfa: $rsp 8 +
STACK CFI 392c8 .cfa: $rbp 16 +
STACK CFI INIT 39700 1d46 .cfa: $rsp 8 + .ra: .cfa -8 + ^
STACK CFI 39701 $rbp: .cfa -16 + ^ .cfa: $rsp 16 +
STACK CFI 3970c .cfa: $rbp 16 +
STACK CFI 3971c $r12: .cfa -48 + ^ $r13: .cfa -40 + ^ $r14: .cfa -32 + ^ $r15: .cfa -24 + ^ $rbx: .cfa -56 + ^
STACK CFI 39a0c .cfa: $rsp 8 +
STACK CFI 39a10 .cfa: $rbp 16 +
STACK CFI INIT 3b450 22 .cfa: $rsp 8 + .ra: .cfa -8 + ^
STACK CFI 3b451 $rbp: .cfa -16 + ^ .cfa: $rsp 16 +
STACK CFI 3b45b .cfa: $rbp 16 +
STACK CFI 3b471 .cfa: $rsp 8 +
STACK CFI INIT 3b480 20fd .cfa: $rsp 8 + .ra: .cfa -8 + ^
STACK CFI 3b481 $rbp: .cfa -16 + ^ .cfa: $rsp 16 +
STACK CFI 3b489 .cfa: $rbp 16 +
STACK CFI 3b494 $r14: .cfa -32 + ^ $r15: .cfa -24 + ^
STACK CFI 3b49b $r12: .cfa -48 + ^ $r13: .cfa -40 + ^ $rbx: .cfa -56 + ^
STACK CFI 3b572 .cfa: $rsp 8 +
STACK CFI 3b578 .cfa: $rbp 16 +
STACK CFI INIT 3d580 32d .cfa: $rsp 8 + .ra: .cfa -8 + ^
STACK CFI 3d581 $rbp: .cfa -16 + ^ .cfa: $rsp 16 +
STACK CFI 3d584 .cfa: $rbp 16 +
STACK CFI 3d593 $r14: .cfa -32 + ^ $r15: .cfa -24 + ^
STACK CFI 3d59c $r13: .cfa -40 + ^
STACK CFI 3d5a5 $r12: .cfa -48 + ^
STACK CFI 3d5ac $rbx: .cfa -56 + ^
STACK CFI 3d764 .cfa: $rsp 8 +
STACK CFI 3d768 .cfa: $rbp 16 +
STACK CFI INIT 3d8b0 6d9 .cfa: $rsp 8 + .ra: .cfa -8 + ^
STACK CFI 3d8b1 $rbp: .cfa -16 + ^ .cfa: $rsp 16 +
STACK CFI 3d8bc .cfa: $rbp 16 +
STACK CFI 3d8c1 $r15: .cfa -24 + ^
STACK CFI 3d8c8 $r13: .cfa -40 + ^ $r14: .cfa -32 + ^
STACK CFI 3d8cd $r12: .cfa -48 + ^ $rbx: .cfa -56 + ^
STACK CFI 3dba2 .cfa: $rsp 8 +
STACK CFI 3dba8 .cfa: $rbp 16 +
STACK CFI INIT 3df90 1e .cfa: $rsp 8 + .ra: .cfa -8 + ^
STACK CFI 3df91 $rbp: .cfa -16 + ^ .cfa: $rsp 16 +
STACK CFI 3df97 .cfa: $rbp 16 +
STACK CFI 3dfad .cfa: $rsp 8 +
STACK CFI INIT 3dfb0 9e .cfa: $rsp 8 + .ra: .cfa -8 + ^
STACK CFI 3dfb1 $rbp: .cfa -16 + ^ .cfa: $rsp 16 +
STACK CFI 3dfbe .cfa: $rbp 16 +
STACK CFI 3e03c .cfa: $rsp 8 +
STACK CFI 3e040 .cfa: $rbp 16 +
STACK CFI INIT 3e050 3c4 .cfa: $rsp 8 + .ra: .cfa -8 + ^
STACK CFI 3e051 $rbp: .cfa -16 + ^ .cfa: $rsp 16 +
STACK CFI 3e057 .cfa: $rbp 16 +
STACK CFI 3e066 $r12: .cfa -48 + ^ $r13: .cfa -40 + ^ $r14: .cfa -32 + ^ $r15: .cfa -24 + ^ $rbx: .cfa -56 + ^
STACK CFI 3e0a5 .cfa: $rsp 8 +
STACK CFI 3e0b0 .cfa: $rbp 16 +
STACK CFI 3e26d .cfa: $rsp 8 +
STACK CFI 3e270 .cfa: $rbp 16 +
STACK CFI INIT 3e420 16e .cfa: $rsp 8 + .ra: .cfa -8 + ^
STACK CFI 3e421 $rbp: .cfa -16 + ^ .cfa: $rsp 16 +
STACK CFI 3e42b .cfa: $rbp 16 +
STACK CFI 3e430 $r15: .cfa -24 + ^
STACK CFI 3e438 $r14: .cfa -32 + ^
STACK CFI 3e440 $r13: .cfa -40 + ^
STACK CFI 3e445 $r12: .cfa -48 + ^
STACK CFI 3e449 $rbx: .cfa -56 + ^
STACK CFI 3e555 .cfa: $rsp 8 +
STACK CFI 3e560 .cfa: $rbp 16 +
STACK CFI 3e57c .cfa: $rsp 8 +
STACK CFI 3e580 .cfa: $rbp 16 +
STACK CFI INIT 3e590 1db .cfa: $rsp 8 + .ra: .cfa -8 + ^
STACK CFI 3e591 $rbp: .cfa -16 + ^ .cfa: $rsp 16 +
STACK CFI 3e594 .cfa: $rbp 16 +
STACK CFI 3e59f $r12: .cfa -48 + ^ $rbx: .cfa -56 + ^
STACK CFI 3e5c3 $r13: .cfa -40 + ^ $r14: .cfa -32 + ^ $r15: .cfa -24 + ^
STACK CFI 3e65d .cfa: $rsp 8 +
STACK CFI 3e660 .cfa: $rbp 16 +
STACK CFI INIT 3e770 848 .cfa: $rsp 8 + .ra: .cfa -8 + ^
STACK CFI 3e771 $rbp: .cfa -16 + ^ .cfa: $rsp 16 +
STACK CFI 3e777 .cfa: $rbp 16 +
STACK CFI 3e77e $r14: .cfa -32 + ^ $r15: .cfa -24 + ^
STACK CFI 3e783 $r13: .cfa -40 + ^
STACK CFI 3e788 $r12: .cfa -48 + ^
STACK CFI 3e790 $rbx: .cfa -56 + ^
STACK CFI 3eb2d .cfa: $rsp 8 +
STACK CFI 3eb2e .cfa: $rbp 16 +
STACK CFI INIT 3efc0 5cc .cfa: $rsp 8 + .ra: .cfa -8 + ^
STACK CFI 3efc1 $rbp: .cfa -16 + ^ .cfa: $rsp 16 +
STACK CFI 3efc7 .cfa: $rbp 16 +
STACK CFI 3efce $r15: .cfa -24 + ^
STACK CFI 3efd3 $r14: .cfa -32 + ^
STACK CFI 3efdb $r12: .cfa -48 + ^ $r13: .cfa -40 + ^ $rbx: .cfa -56 + ^
STACK CFI 3f26b .cfa: $rsp 8 +
STACK CFI 3f270 .cfa: $rbp 16 +
STACK CFI INIT 3f590 1d .cfa: $rsp 8 + .ra: .cfa -8 + ^
STACK CFI 3f591 $rbp: .cfa -16 + ^ .cfa: $rsp 16 +
STACK CFI 3f5a7 .cfa: $rbp 16 +
STACK CFI 3f5a8 .cfa: $rsp 8 +
STACK CFI INIT 3f5b0 96 .cfa: $rsp 8 + .ra: .cfa -8 + ^
STACK CFI 3f5b1 $rbp: .cfa -16 + ^ .cfa: $rsp 16 +
STACK CFI 3f5b7 .cfa: $rbp 16 +
STACK CFI 3f645 .cfa: $rsp 8 +
STACK CFI INIT 3f650 1d .cfa: $rsp 8 + .ra: .cfa -8 + ^
STACK CFI 3f657 $rbp: .cfa -16 + ^ .cfa: $rsp 16 +
STACK CFI 3f65f .cfa: $rbp 16 +
STACK CFI 3f660 .cfa: $rsp 8 +
STACK CFI INIT 3f670 71 .cfa: $rsp 8 + .ra: .cfa -8 + ^
STACK CFI 3f671 $rbp: .cfa -16 + ^ .cfa: $rsp 16 +
STACK CFI 3f67b .cfa: $rbp 16 +
STACK CFI 3f6c1 .cfa: $rsp 8 +
STACK CFI 3f6c8 .cfa: $rbp 16 +
STACK CFI 3f6de .cfa: $rsp 8 +
STACK CFI INIT 3f6f0 c2 .cfa: $rsp 8 + .ra: .cfa -8 + ^
STACK CFI 3f6f7 $rbp: .cfa -16 + ^ .cfa: $rsp 16 +
STACK CFI 3f706 .cfa: $rbp 16 +
STACK CFI 3f73d .cfa: $rsp 8 +
STACK CFI 3f740 .cfa: $rbp 16 +
STACK CFI 3f798 .cfa: $rsp 8 +
STACK CFI 3f7a0 .cfa: $rbp 16 +
STACK CFI 3f7a9 .cfa: $rsp 8 +
STACK CFI INIT 3f7c0 39 .cfa: $rsp 8 + .ra: .cfa -8 + ^
STACK CFI 3f7c4 $rbp: .cfa -16 + ^ .cfa: $rsp 16 +
STACK CFI 3f7ce .cfa: $rbp 16 +
STACK CFI 3f7f8 .cfa: $rsp 8 +
STACK CFI INIT 3f800 39 .cfa: $rsp 8 + .ra: .cfa -8 + ^
STACK CFI 3f804 $rbp: .cfa -16 + ^ .cfa: $rsp 16 +
STACK CFI 3f80e .cfa: $rbp 16 +
STACK CFI 3f838 .cfa: $rsp 8 +
STACK CFI INIT 3f840 2c .cfa: $rsp 8 + .ra: .cfa -8 + ^
STACK CFI 3f845 $rbp: .cfa -16 + ^ .cfa: $rsp 16 +
STACK CFI 3f852 .cfa: $rbp 16 +
STACK CFI 3f86b .cfa: $rsp 8 +
STACK CFI INIT 3f870 2c .cfa: $rsp 8 + .ra: .cfa -8 + ^
STACK CFI 3f875 $rbp: .cfa -16 + ^ .cfa: $rsp 16 +
STACK CFI 3f882 .cfa: $rbp 16 +
STACK CFI 3f89b .cfa: $rsp 8 +
STACK CFI INIT 3f8a0 4c .cfa: $rsp 8 + .ra: .cfa -8 + ^
STACK CFI 3f8a1 $rbp: .cfa -16 + ^ .cfa: $rsp 16 +
STACK CFI 3f8a8 .cfa: $rbp 16 +
STACK CFI 3f8d6 .cfa: $rsp 8 +
STACK CFI 3f8e0 .cfa: $rbp 16 +
STACK CFI 3f8eb .cfa: $rsp 8 +
STACK CFI INIT 3f8f0 32 .cfa: $rsp 8 + .ra: .cfa -8 + ^
STACK CFI 3f8f1 $rbp: .cfa -16 + ^ .cfa: $rsp 16 +
STACK CFI 3f8fc .cfa: $rbp 16 +
STACK CFI 3f921 .cfa: $rsp 8 +
STACK CFI INIT 3f930 66 .cfa: $rsp 8 + .ra: .cfa -8 + ^
STACK CFI 3f931 $rbp: .cfa -16 + ^ .cfa: $rsp 16 +
STACK CFI 3f93c .cfa: $rbp 16 +
STACK CFI 3f972 .cfa: $rsp 8 +
STACK CFI 3f978 .cfa: $rbp 16 +
STACK CFI 3f990 .cfa: $rsp 8 +
STACK CFI INIT 3f9a0 cf .cfa: $rsp 8 + .ra: .cfa -8 + ^
STACK CFI 3f9a1 $rbp: .cfa -16 + ^ .cfa: $rsp 16 +
STACK CFI 3f9b0 .cfa: $rbp 16 +
STACK CFI 3fa23 .cfa: $rsp 8 +
STACK CFI 3fa28 .cfa: $rbp 16 +
STACK CFI 3fa6e .cfa: $rsp 8 +
STACK CFI INIT 3fa70 203 .cfa: $rsp 8 + .ra: .cfa -8 + ^
STACK CFI 3fa71 $rbp: .cfa -16 + ^ .cfa: $rsp 16 +
STACK CFI 3fa7f .cfa: $rbp 16 +
STACK CFI 3fa91 $r12: .cfa -48 + ^ $r13: .cfa -40 + ^ $r14: .cfa -32 + ^ $r15: .cfa -24 + ^ $rbx: .cfa -56 + ^
STACK CFI 3fb98 .cfa: $rsp 8 +
STACK CFI 3fba0 .cfa: $rbp 16 +
STACK CFI 3fbfb .cfa: $rsp 8 +
STACK CFI 3fc00 .cfa: $rbp 16 +
STACK CFI 3fc40 .cfa: $rsp 8 +
STACK CFI 3fc48 .cfa: $rbp 16 +
STACK CFI INIT 3fc80 1b0 .cfa: $rsp 8 + .ra: .cfa -8 + ^
STACK CFI 3fc81 $rbp: .cfa -16 + ^ .cfa: $rsp 16 +
STACK CFI 3fc8f .cfa: $rbp 16 +
STACK CFI 3fca1 $r12: .cfa -48 + ^ $r13: .cfa -40 + ^ $r14: .cfa -32 + ^ $r15: .cfa -24 + ^ $rbx: .cfa -56 + ^
STACK CFI 3fd8c .cfa: $rsp 8 +
STACK CFI 3fd90 .cfa: $rbp 16 +
STACK CFI 3fdd3 .cfa: $rsp 8 +
STACK CFI 3fdd8 .cfa: $rbp 16 +
STACK CFI 3fdf1 .cfa: $rsp 8 +
STACK CFI 3fdf8 .cfa: $rbp 16 +
STACK CFI INIT 3fe30 219 .cfa: $rsp 8 + .ra: .cfa -8 + ^
STACK CFI 3fe31 $rbp: .cfa -16 + ^ .cfa: $rsp 16 +
STACK CFI 3fe38 .cfa: $rbp 16 +
STACK CFI 3fe51 $r12: .cfa -48 + ^ $r13: .cfa -40 + ^ $r14: .cfa -32 + ^ $r15: .cfa -24 + ^ $rbx: .cfa -56 + ^
STACK CFI 3ff67 .cfa: $rsp 8 +
STACK CFI 3ff70 .cfa: $rbp 16 +
STACK CFI 3ffcb .cfa: $rsp 8 +
STACK CFI 3ffd0 .cfa: $rbp 16 +
STACK CFI 40011 .cfa: $rsp 8 +
STACK CFI 40018 .cfa: $rbp 16 +
STACK CFI INIT 40050 1d5 .cfa: $rsp 8 + .ra: .cfa -8 + ^
STACK CFI 40051 $rbp: .cfa -16 + ^ .cfa: $rsp 16 +
STACK CFI 40058 .cfa: $rbp 16 +
STACK CFI 40071 $r12: .cfa -48 + ^ $r13: .cfa -40 + ^ $r14: .cfa -32 + ^ $r15: .cfa -24 + ^ $rbx: .cfa -56 + ^
STACK CFI 4016f .cfa: $rsp 8 +
STACK CFI 40170 .cfa: $rbp 16 +
STACK CFI 401b3 .cfa: $rsp 8 +
STACK CFI 401b8 .cfa: $rbp 16 +
STACK CFI 401d1 .cfa: $rsp 8 +
STACK CFI 401d8 .cfa: $rbp 16 +
STACK CFI INIT 40230 267 .cfa: $rsp 8 + .ra: .cfa -8 + ^
STACK CFI 40231 $rbp: .cfa -16 + ^ .cfa: $rsp 16 +
STACK CFI 40234 .cfa: $rbp 16 +
STACK CFI 40239 $r15: .cfa -24 + ^
STACK CFI 4023e $r14: .cfa -32 + ^
STACK CFI 40243 $r13: .cfa -40 + ^
STACK CFI 40248 $r12: .cfa -48 + ^
STACK CFI 4024c $rbx: .cfa -56 + ^
STACK CFI 40366 .cfa: $rsp 8 +
STACK CFI 40370 .cfa: $rbp 16 +
STACK CFI 40383 .cfa: $rsp 8 +
STACK CFI 40388 .cfa: $rbp 16 +
STACK CFI INIT 404a0 24 .cfa: $rsp 8 + .ra: .cfa -8 + ^
STACK CFI 404a1 $rbp: .cfa -16 + ^ .cfa: $rsp 16 +
STACK CFI 404a4 .cfa: $rbp 16 +
STACK CFI 404c3 .cfa: $rsp 8 +
STACK CFI INIT 404d0 281 .cfa: $rsp 8 + .ra: .cfa -8 + ^
STACK CFI 404d1 $rbp: .cfa -16 + ^ .cfa: $rsp 16 +
STACK CFI 404d4 .cfa: $rbp 16 +
STACK CFI 404dd $r13: .cfa -40 + ^ $r14: .cfa -32 + ^ $r15: .cfa -24 + ^
STACK CFI 404fa $r12: .cfa -48 + ^ $rbx: .cfa -56 + ^
STACK CFI 406a4 .cfa: $rsp 8 +
STACK CFI 406a8 .cfa: $rbp 16 +
STACK CFI 406cc .cfa: $rsp 8 +
STACK CFI 406d0 .cfa: $rbp 16 +
STACK CFI 40737 .cfa: $rsp 8 +
STACK CFI 40738 .cfa: $rbp 16 +
STACK CFI INIT 40760 80 .cfa: $rsp 8 + .ra: .cfa -8 + ^
STACK CFI 40761 $rbp: .cfa -16 + ^ .cfa: $rsp 16 +
STACK CFI 40767 .cfa: $rbp 16 +
STACK CFI 40771 .cfa: $rsp 8 +
STACK CFI 40778 .cfa: $rbp 16 +
STACK CFI 407a7 .cfa: $rsp 8 +
STACK CFI 407b0 .cfa: $rbp 16 +
STACK CFI INIT 407e0 c .cfa: $rsp 8 + .ra: .cfa -8 + ^
STACK CFI 407e1 $rbp: .cfa -16 + ^ .cfa: $rsp 16 +
STACK CFI 407ea .cfa: $rbp 16 +
STACK CFI 407eb .cfa: $rsp 8 +
STACK CFI INIT 407f0 c .cfa: $rsp 8 + .ra: .cfa -8 + ^
STACK CFI 407f1 $rbp: .cfa -16 + ^ .cfa: $rsp 16 +
STACK CFI 407fa .cfa: $rbp 16 +
STACK CFI 407fb .cfa: $rsp 8 +
STACK CFI INIT 40800 9 .cfa: $rsp 8 + .ra: .cfa -8 + ^
STACK CFI 40801 $rbp: .cfa -16 + ^ .cfa: $rsp 16 +
STACK CFI 40807 .cfa: $rbp 16 +
STACK CFI 40808 .cfa: $rsp 8 +
STACK CFI INIT 40810 1a .cfa: $rsp 8 + .ra: .cfa -8 + ^
STACK CFI 40814 $rbp: .cfa -16 + ^ .cfa: $rsp 16 +
STACK CFI 40824 .cfa: $rbp 16 +
STACK CFI 40829 .cfa: $rsp 8 +
STACK CFI INIT 40830 147 .cfa: $rsp 8 + .ra: .cfa -8 + ^
STACK CFI 40831 $rbp: .cfa -16 + ^ .cfa: $rsp 16 +
STACK CFI 40837 .cfa: $rbp 16 +
STACK CFI 40846 $r12: .cfa -48 + ^ $r13: .cfa -40 + ^ $r14: .cfa -32 + ^ $r15: .cfa -24 + ^ $rbx: .cfa -56 + ^
STACK CFI 4092a .cfa: $rsp 8 +
STACK CFI 40930 .cfa: $rbp 16 +
STACK CFI 4093c .cfa: $rsp 8 +
STACK CFI 40940 .cfa: $rbp 16 +
STACK CFI 4096d .cfa: $rsp 8 +
STACK CFI 40970 .cfa: $rbp 16 +
STACK CFI INIT 40980 16 .cfa: $rsp 8 + .ra: .cfa -8 + ^
STACK CFI 40985 $rbp: .cfa -16 + ^ .cfa: $rsp 16 +
STACK CFI 40988 .cfa: $rbp 16 +
STACK CFI 40995 .cfa: $rsp 8 +
STACK CFI INIT 409a0 54 .cfa: $rsp 8 + .ra: .cfa -8 + ^
STACK CFI 409a5 $rbp: .cfa -16 + ^ .cfa: $rsp 16 +
STACK CFI 409a8 .cfa: $rbp 16 +
STACK CFI 409f3 .cfa: $rsp 8 +
STACK CFI INIT 40a00 2d .cfa: $rsp 8 + .ra: .cfa -8 + ^
STACK CFI 40a01 $rbp: .cfa -16 + ^ .cfa: $rsp 16 +
STACK CFI 40a07 .cfa: $rbp 16 +
STACK CFI 40a1d .cfa: $rsp 8 +
STACK CFI 40a20 .cfa: $rbp 16 +
STACK CFI 40a2c .cfa: $rsp 8 +
STACK CFI INIT 40a30 4b5 .cfa: $rsp 8 + .ra: .cfa -8 + ^
STACK CFI 40a31 $rbp: .cfa -16 + ^ .cfa: $rsp 16 +
STACK CFI 40a38 .cfa: $rbp 16 +
STACK CFI 40a46 $r12: .cfa -48 + ^ $r13: .cfa -40 + ^ $r14: .cfa -32 + ^ $r15: .cfa -24 + ^ $rbx: .cfa -56 + ^
STACK CFI 40a7e .cfa: $rsp 8 +
STACK CFI 40a80 .cfa: $rbp 16 +
STACK CFI 40b23 .cfa: $rsp 8 +
STACK CFI 40b28 .cfa: $rbp 16 +
STACK CFI 40d31 .cfa: $rsp 8 +
STACK CFI 40d32 .cfa: $rbp 16 +
STACK CFI INIT 40ef0 b .cfa: $rsp 8 + .ra: .cfa -8 + ^
STACK CFI 40ef1 $rbp: .cfa -16 + ^ .cfa: $rsp 16 +
STACK CFI 40ef9 .cfa: $rbp 16 +
STACK CFI 40efa .cfa: $rsp 8 +
STACK CFI INIT 40f00 8 .cfa: $rsp 8 + .ra: .cfa -8 + ^
STACK CFI 40f01 $rbp: .cfa -16 + ^ .cfa: $rsp 16 +
STACK CFI 40f06 .cfa: $rbp 16 +
STACK CFI 40f07 .cfa: $rsp 8 +
STACK CFI INIT 40f10 155 .cfa: $rsp 8 + .ra: .cfa -8 + ^
STACK CFI 40f11 $rbp: .cfa -16 + ^ .cfa: $rsp 16 +
STACK CFI 40f18 .cfa: $rbp 16 +
STACK CFI 40f63 .cfa: $rsp 8 +
STACK CFI 41050 .cfa: $rbp 16 +
STACK CFI 41064 .cfa: $rsp 8 +
STACK CFI INIT 41070 145 .cfa: $rsp 8 + .ra: .cfa -8 + ^
STACK CFI 41076 $rbp: .cfa -16 + ^ .cfa: $rsp 16 +
STACK CFI 4107d .cfa: $rbp 16 +
STACK CFI 41144 .cfa: $rsp 8 +
STACK CFI 41148 .cfa: $rbp 16 +
STACK CFI 41178 .cfa: $rsp 8 +
STACK CFI 41180 .cfa: $rbp 16 +
STACK CFI 411ac .cfa: $rsp 8 +
STACK CFI 411ad .cfa: $rbp 16 +
STACK CFI INIT 411c0 fc .cfa: $rsp 8 + .ra: .cfa -8 + ^
STACK CFI 411c1 $rbp: .cfa -16 + ^ .cfa: $rsp 16 +
STACK CFI 411c4 .cfa: $rbp 16 +
STACK CFI 411cf $r12: .cfa -48 + ^ $rbx: .cfa -56 + ^
STACK CFI 411ee $r13: .cfa -40 + ^ $r14: .cfa -32 + ^ $r15: .cfa -24 + ^
STACK CFI 41234 .cfa: $rsp 8 +
STACK CFI 41238 .cfa: $rbp 16 +
STACK CFI INIT 412c0 b5 .cfa: $rsp 8 + .ra: .cfa -8 + ^
STACK CFI 412c1 $rbp: .cfa -16 + ^ .cfa: $rsp 16 +
STACK CFI 412ca .cfa: $rbp 16 +
STACK CFI 412d9 $r12: .cfa -32 + ^ $r13: .cfa -24 + ^ $rbx: .cfa -40 + ^
STACK CFI 41335 .cfa: $rsp 8 +
STACK CFI 41348 .cfa: $rbp 16 +
STACK CFI INIT 41380 f .cfa: $rsp 8 + .ra: .cfa -8 + ^
STACK CFI 41381 $rbp: .cfa -16 + ^ .cfa: $rsp 16 +
STACK CFI 41389 .cfa: $rbp 16 +
STACK CFI 4138a .cfa: $rsp 8 +
STACK CFI INIT 41390 267 .cfa: $rsp 8 + .ra: .cfa -8 + ^
STACK CFI 41391 $rbp: .cfa -16 + ^ .cfa: $rsp 16 +
STACK CFI 41394 .cfa: $rbp 16 +
STACK CFI 4139f $r12: .cfa -48 + ^ $r13: .cfa -40 + ^ $r14: .cfa -32 + ^ $r15: .cfa -24 + ^
STACK CFI 413a3 $rbx: .cfa -56 + ^
STACK CFI 415da .cfa: $rsp 8 +
STACK CFI 415db .cfa: $rbp 16 +
STACK CFI INIT 41600 1f .cfa: $rsp 8 + .ra: .cfa -8 + ^
STACK CFI 41601 $rbp: .cfa -16 + ^ .cfa: $rsp 16 +
STACK CFI 41619 .cfa: $rbp 16 +
STACK CFI 4161a .cfa: $rsp 8 +
STACK CFI INIT 41620 13 .cfa: $rsp 8 + .ra: .cfa -8 + ^
STACK CFI 41621 $rbp: .cfa -16 + ^ .cfa: $rsp 16 +
STACK CFI 4162d .cfa: $rbp 16 +
STACK CFI 4162e .cfa: $rsp 8 +
STACK CFI INIT 41640 117 .cfa: $rsp 8 + .ra: .cfa -8 + ^
STACK CFI 41641 $rbp: .cfa -16 + ^ .cfa: $rsp 16 +
STACK CFI 4164a .cfa: $rbp 16 +
STACK CFI 41657 $rbx: .cfa -24 + ^
STACK CFI 4170d .cfa: $rsp 8 +
STACK CFI 41710 .cfa: $rbp 16 +
STACK CFI 4172b .cfa: $rsp 8 +
STACK CFI 41730 .cfa: $rbp 16 +
STACK CFI INIT 41760 e2 .cfa: $rsp 8 + .ra: .cfa -8 + ^
STACK CFI 41761 $rbp: .cfa -16 + ^ .cfa: $rsp 16 +
STACK CFI 4176a .cfa: $rbp 16 +
STACK CFI 4177d $r12: .cfa -24 + ^ $rbx: .cfa -32 + ^
STACK CFI 4181f .cfa: $rsp 8 +
STACK CFI 41820 .cfa: $rbp 16 +
STACK CFI INIT 41850 2a .cfa: $rsp 8 + .ra: .cfa -8 + ^
STACK CFI 4185d $rbp: .cfa -16 + ^ .cfa: $rsp 16 +
STACK CFI 4186b .cfa: $rbp 16 +
STACK CFI 41872 .cfa: $rsp 8 +
STACK CFI INIT 41880 9a .cfa: $rsp 8 + .ra: .cfa -8 + ^
STACK CFI 41881 $rbp: .cfa -16 + ^ .cfa: $rsp 16 +
STACK CFI 4189c .cfa: $rbp 16 +
STACK CFI 41917 .cfa: $rsp 8 +
STACK CFI INIT 41920 b3 .cfa: $rsp 8 + .ra: .cfa -8 + ^
STACK CFI 41921 $rbp: .cfa -16 + ^ .cfa: $rsp 16 +
STACK CFI 4192c .cfa: $rbp 16 +
STACK CFI 41969 .cfa: $rsp 8 +
STACK CFI 41970 .cfa: $rbp 16 +
STACK CFI INIT 419e0 35 .cfa: $rsp 8 + .ra: .cfa -8 + ^
STACK CFI 419e1 $rbp: .cfa -16 + ^ .cfa: $rsp 16 +
STACK CFI 419e7 .cfa: $rbp 16 +
STACK CFI 41a0b .cfa: $rsp 8 +
STACK CFI 41a10 .cfa: $rbp 16 +
STACK CFI 41a14 .cfa: $rsp 8 +
STACK CFI INIT 41a20 90 .cfa: $rsp 8 + .ra: .cfa -8 + ^
STACK CFI 41a21 $rbp: .cfa -16 + ^ .cfa: $rsp 16 +
STACK CFI 41a24 .cfa: $rbp 16 +
STACK CFI 41a2a $r14: .cfa -24 + ^
STACK CFI 41a30 $r13: .cfa -32 + ^
STACK CFI 41a35 $r12: .cfa -40 + ^
STACK CFI 41a39 $rbx: .cfa -48 + ^
STACK CFI 41a88 .cfa: $rsp 8 +
STACK CFI 41a89 .cfa: $rbp 16 +
STACK CFI 41aaf .cfa: $rsp 8 +
STACK CFI INIT 41ab0 19 .cfa: $rsp 8 + .ra: .cfa -8 + ^
STACK CFI 41ab4 $rbp: .cfa -16 + ^ .cfa: $rsp 16 +
STACK CFI 41ab7 .cfa: $rbp 16 +
STACK CFI 41ab8 .cfa: $rsp 8 +
STACK CFI INIT 41ad0 4a .cfa: $rsp 8 + .ra: .cfa -8 + ^
STACK CFI 41ad7 $rbp: .cfa -16 + ^ .cfa: $rsp 16 +
STACK CFI 41ada .cfa: $rbp 16 +
STACK CFI 41aeb .cfa: $rsp 8 +
STACK CFI 41af0 .cfa: $rbp 16 +
STACK CFI 41af4 .cfa: $rsp 8 +
STACK CFI 41b00 .cfa: $rbp 16 +
STACK CFI 41b19 .cfa: $rsp 8 +
STACK CFI INIT 41b20 37 .cfa: $rsp 8 + .ra: .cfa -8 + ^
STACK CFI 41b25 $rbp: .cfa -16 + ^ .cfa: $rsp 16 +
STACK CFI 41b28 .cfa: $rbp 16 +
STACK CFI 41b4e .cfa: $rsp 8 +
STACK CFI 41b50 .cfa: $rbp 16 +
STACK CFI 41b56 .cfa: $rsp 8 +
STACK CFI INIT 41b60 37 .cfa: $rsp 8 + .ra: .cfa -8 + ^
STACK CFI 41b65 $rbp: .cfa -16 + ^ .cfa: $rsp 16 +
STACK CFI 41b68 .cfa: $rbp 16 +
STACK CFI 41b8d .cfa: $rsp 8 +
STACK CFI 41b90 .cfa: $rbp 16 +
STACK CFI 41b96 .cfa: $rsp 8 +
STACK CFI INIT 41ba0 c5 .cfa: $rsp 8 + .ra: .cfa -8 + ^
STACK CFI 41ba1 $rbp: .cfa -16 + ^ .cfa: $rsp 16 +
STACK CFI 41ba4 .cfa: $rbp 16 +
STACK CFI 41baf $r13: .cfa -24 + ^ $rbx: .cfa -40 + ^
STACK CFI 41bd3 $r12: .cfa -32 + ^
STACK CFI 41c08 .cfa: $rsp 8 +
STACK CFI 41c10 .cfa: $rbp 16 +
STACK CFI INIT 41c70 15c .cfa: $rsp 8 + .ra: .cfa -8 + ^
STACK CFI 41c71 $rbp: .cfa -16 + ^ .cfa: $rsp 16 +
STACK CFI 41c7b .cfa: $rbp 16 +
STACK CFI 41c86 $r14: .cfa -32 + ^
STACK CFI 41c8d $r15: .cfa -24 + ^
STACK CFI 41c94 $r12: .cfa -48 + ^
STACK CFI 41cb1 $r13: .cfa -40 + ^ $rbx: .cfa -56 + ^
STACK CFI 41d73 .cfa: $rsp 8 +
STACK CFI 41d78 .cfa: $rbp 16 +
STACK CFI INIT 41dd0 d9 .cfa: $rsp 8 + .ra: .cfa -8 + ^
STACK CFI 41dd1 $rbp: .cfa -16 + ^ .cfa: $rsp 16 +
STACK CFI 41dd4 .cfa: $rbp 16 +
STACK CFI 41dda $r15: .cfa -24 + ^
STACK CFI 41de1 $r13: .cfa -40 + ^ $r14: .cfa -32 + ^
STACK CFI 41de6 $r12: .cfa -48 + ^
STACK CFI 41de9 $rbx: .cfa -56 + ^
STACK CFI 41ea8 .cfa: $rsp 8 +
STACK CFI INIT 41eb0 22b .cfa: $rsp 8 + .ra: .cfa -8 + ^
STACK CFI 41eb1 $rbp: .cfa -16 + ^ .cfa: $rsp 16 +
STACK CFI 41eb4 .cfa: $rbp 16 +
STACK CFI 41eb9 $r15: .cfa -24 + ^
STACK CFI 41ebe $r14: .cfa -32 + ^
STACK CFI 41ec6 $r12: .cfa -48 + ^ $r13: .cfa -40 + ^ $rbx: .cfa -56 + ^
STACK CFI 41f26 .cfa: $rsp 8 +
STACK CFI 41f30 .cfa: $rbp 16 +
STACK CFI 41f89 .cfa: $rsp 8 +
STACK CFI 41f90 .cfa: $rbp 16 +
STACK CFI 420a5 .cfa: $rsp 8 +
STACK CFI 420a7 .cfa: $rbp 16 +
STACK CFI INIT 420e0 2c4 .cfa: $rsp 8 + .ra: .cfa -8 + ^
STACK CFI 420e1 $rbp: .cfa -16 + ^ .cfa: $rsp 16 +
STACK CFI 420e4 .cfa: $rbp 16 +
STACK CFI 420ed $r13: .cfa -40 + ^ $r14: .cfa -32 + ^ $r15: .cfa -24 + ^
STACK CFI 420f2 $r12: .cfa -48 + ^
STACK CFI 420f6 $rbx: .cfa -56 + ^
STACK CFI 42161 .cfa: $rsp 8 +
STACK CFI 42168 .cfa: $rbp 16 +
STACK CFI 4226e .cfa: $rsp 8 +
STACK CFI 42270 .cfa: $rbp 16 +
STACK CFI 4233f .cfa: $rsp 8 +
STACK CFI 42340 .cfa: $rbp 16 +
STACK CFI INIT 423b0 abf .cfa: $rsp 8 + .ra: .cfa -8 + ^
STACK CFI 423b1 $rbp: .cfa -16 + ^ .cfa: $rsp 16 +
STACK CFI 423b4 .cfa: $rbp 16 +
STACK CFI 423bf $r12: .cfa -48 + ^ $r13: .cfa -40 + ^ $r14: .cfa -32 + ^ $r15: .cfa -24 + ^
STACK CFI 423c3 $rbx: .cfa -56 + ^
STACK CFI 4243e .cfa: $rsp 8 +
STACK CFI 42440 .cfa: $rbp 16 +
STACK CFI INIT 42e70 1c1 .cfa: $rsp 8 + .ra: .cfa -8 + ^
STACK CFI 42e71 $rbp: .cfa -16 + ^ .cfa: $rsp 16 +
STACK CFI 42e74 .cfa: $rbp 16 +
STACK CFI 42e79 $r15: .cfa -24 + ^
STACK CFI 42e83 $r12: .cfa -48 + ^ $r13: .cfa -40 + ^ $r14: .cfa -32 + ^ $rbx: .cfa -56 + ^
STACK CFI 42f02 .cfa: $rsp 8 +
STACK CFI 42f08 .cfa: $rbp 16 +
STACK CFI 42f32 .cfa: $rsp 8 +
STACK CFI 42f38 .cfa: $rbp 16 +
STACK CFI 42fb7 .cfa: $rsp 8 +
STACK CFI 42fc0 .cfa: $rbp 16 +
STACK CFI 42fe2 .cfa: $rsp 8 +
STACK CFI 42fe3 .cfa: $rbp 16 +
STACK CFI INIT 43040 22 .cfa: $rsp 8 + .ra: .cfa -8 + ^
STACK CFI 43041 $rbp: .cfa -16 + ^ .cfa: $rsp 16 +
STACK CFI 43047 .cfa: $rbp 16 +
STACK CFI 43061 .cfa: $rsp 8 +
STACK CFI INIT 43070 19 .cfa: $rsp 8 + .ra: .cfa -8 + ^
STACK CFI 4307d $rbp: .cfa -16 + ^ .cfa: $rsp 16 +
STACK CFI 43080 .cfa: $rbp 16 +
STACK CFI 43081 .cfa: $rsp 8 +
STACK CFI INIT 43090 c9 .cfa: $rsp 8 + .ra: .cfa -8 + ^
STACK CFI 43091 $rbp: .cfa -16 + ^ .cfa: $rsp 16 +
STACK CFI 4309c .cfa: $rbp 16 +
STACK CFI 430b3 .cfa: $rsp 8 +
STACK CFI 430b8 .cfa: $rbp 16 +
STACK CFI 430cd .cfa: $rsp 8 +
STACK CFI 430ce .cfa: $rbp 16 +
STACK CFI 4311c .cfa: $rsp 8 +
STACK CFI 4311d .cfa: $rbp 16 +
STACK CFI 4314c .cfa: $rsp 8 +
STACK CFI 4314d .cfa: $rbp 16 +
STACK CFI INIT 43160 a6 .cfa: $rsp 8 + .ra: .cfa -8 + ^
STACK CFI 43161 $rbp: .cfa -16 + ^ .cfa: $rsp 16 +
STACK CFI 4316c .cfa: $rbp 16 +
STACK CFI 431a9 .cfa: $rsp 8 +
STACK CFI 431b0 .cfa: $rbp 16 +
STACK CFI 431c7 .cfa: $rsp 8 +
STACK CFI 431d0 .cfa: $rbp 16 +
STACK CFI 431d4 .cfa: $rsp 8 +
STACK CFI 431d8 .cfa: $rbp 16 +
STACK CFI INIT 43210 15a .cfa: $rsp 8 + .ra: .cfa -8 + ^
STACK CFI 43214 $rbp: .cfa -16 + ^ .cfa: $rsp 16 +
STACK CFI 43221 .cfa: $rbp 16 +
STACK CFI 432d3 .cfa: $rsp 8 +
STACK CFI 432d8 .cfa: $rbp 16 +
STACK CFI INIT 43370 1e .cfa: $rsp 8 + .ra: .cfa -8 + ^
STACK CFI 43380 $rbp: .cfa -16 + ^ .cfa: $rsp 16 +
STACK CFI 43386 .cfa: $rbp 16 +
STACK CFI 43387 .cfa: $rsp 8 +
STACK CFI INIT 43390 2e .cfa: $rsp 8 + .ra: .cfa -8 + ^
STACK CFI 43391 $rbp: .cfa -16 + ^ .cfa: $rsp 16 +
STACK CFI 4339c .cfa: $rbp 16 +
STACK CFI 433bd .cfa: $rsp 8 +
STACK CFI INIT 433c0 131 .cfa: $rsp 8 + .ra: .cfa -8 + ^
STACK CFI 433c1 $rbp: .cfa -16 + ^ .cfa: $rsp 16 +
STACK CFI 433cc .cfa: $rbp 16 +
STACK CFI 433ed .cfa: $rsp 8 +
STACK CFI 433f0 .cfa: $rbp 16 +
STACK CFI 433f9 .cfa: $rsp 8 +
STACK CFI 433fa .cfa: $rbp 16 +
STACK CFI 4345d .cfa: $rsp 8 +
STACK CFI 4345e .cfa: $rbp 16 +
STACK CFI 43476 .cfa: $rsp 8 +
STACK CFI 43477 .cfa: $rbp 16 +
STACK CFI 434f0 .cfa: $rsp 8 +
STACK CFI INIT 43500 184 .cfa: $rsp 8 + .ra: .cfa -8 + ^
STACK CFI 43501 $rbp: .cfa -16 + ^ .cfa: $rsp 16 +
STACK CFI 43512 .cfa: $rbp 16 +
STACK CFI 43530 .cfa: $rsp 8 +
STACK CFI 43538 .cfa: $rbp 16 +
STACK CFI 43594 .cfa: $rsp 8 +
STACK CFI 43598 .cfa: $rbp 16 +
STACK CFI 43683 .cfa: $rsp 8 +
STACK CFI INIT 43690 179 .cfa: $rsp 8 + .ra: .cfa -8 + ^
STACK CFI 43691 $rbp: .cfa -16 + ^ .cfa: $rsp 16 +
STACK CFI 4369c .cfa: $rbp 16 +
STACK CFI 436b3 .cfa: $rsp 8 +
STACK CFI 436b8 .cfa: $rbp 16 +
STACK CFI 436db .cfa: $rsp 8 +
STACK CFI 436dc .cfa: $rbp 16 +
STACK CFI 4374d .cfa: $rsp 8 +
STACK CFI 43750 .cfa: $rbp 16 +
STACK CFI 43787 .cfa: $rsp 8 +
STACK CFI 43788 .cfa: $rbp 16 +
STACK CFI 437e2 .cfa: $rsp 8 +
STACK CFI 437e3 .cfa: $rbp 16 +
STACK CFI INIT 43810 d4 .cfa: $rsp 8 + .ra: .cfa -8 + ^
STACK CFI 43811 $rbp: .cfa -16 + ^ .cfa: $rsp 16 +
STACK CFI 4381c .cfa: $rbp 16 +
STACK CFI 43886 .cfa: $rsp 8 +
STACK CFI 43890 .cfa: $rbp 16 +
STACK CFI 43894 .cfa: $rsp 8 +
STACK CFI 43898 .cfa: $rbp 16 +
STACK CFI 438e3 .cfa: $rsp 8 +
STACK CFI INIT 438f0 f .cfa: $rsp 8 + .ra: .cfa -8 + ^
STACK CFI 438f1 $rbp: .cfa -16 + ^ .cfa: $rsp 16 +
STACK CFI 438f9 .cfa: $rbp 16 +
STACK CFI 438fe .cfa: $rsp 8 +
STACK CFI INIT 43900 e5 .cfa: $rsp 8 + .ra: .cfa -8 + ^
STACK CFI 43901 $rbp: .cfa -16 + ^ .cfa: $rsp 16 +
STACK CFI 43907 .cfa: $rbp 16 +
STACK CFI 43917 .cfa: $rsp 8 +
STACK CFI 43920 .cfa: $rbp 16 +
STACK CFI 43947 .cfa: $rsp 8 +
STACK CFI 43950 .cfa: $rbp 16 +
STACK CFI 4398c .cfa: $rsp 8 +
STACK CFI 43990 .cfa: $rbp 16 +
STACK CFI 439c7 .cfa: $rsp 8 +
STACK CFI 439c8 .cfa: $rbp 16 +
STACK CFI INIT 439f0 38 .cfa: $rsp 8 + .ra: .cfa -8 + ^
STACK CFI 439f1 $rbp: .cfa -16 + ^ .cfa: $rsp 16 +
STACK CFI 439fc .cfa: $rbp 16 +
STACK CFI 43a27 .cfa: $rsp 8 +
STACK CFI INIT 43a30 1c1 .cfa: $rsp 8 + .ra: .cfa -8 + ^
STACK CFI 43a31 $rbp: .cfa -16 + ^ .cfa: $rsp 16 +
STACK CFI 43a38 .cfa: $rbp 16 +
STACK CFI 43a3d $r15: .cfa -24 + ^
STACK CFI 43a47 $r13: .cfa -40 + ^ $r14: .cfa -32 + ^
STACK CFI 43a4c $r12: .cfa -48 + ^
STACK CFI 43a4f $rbx: .cfa -56 + ^
STACK CFI 43ba5 .cfa: $rsp 8 +
STACK CFI 43bb0 .cfa: $rbp 16 +
STACK CFI INIT 43c00 1ba .cfa: $rsp 8 + .ra: .cfa -8 + ^
STACK CFI 43c01 $rbp: .cfa -16 + ^ .cfa: $rsp 16 +
STACK CFI 43c04 .cfa: $rbp 16 +
STACK CFI 43c10 $r14: .cfa -32 + ^ $r15: .cfa -24 + ^
STACK CFI 43c15 $r13: .cfa -40 + ^
STACK CFI 43c1a $r12: .cfa -48 + ^
STACK CFI 43c1e $rbx: .cfa -56 + ^
STACK CFI 43dae .cfa: $rsp 8 +
STACK CFI 43db0 .cfa: $rbp 16 +
STACK CFI INIT 43dc0 299 .cfa: $rsp 8 + .ra: .cfa -8 + ^
STACK CFI 43dc1 $rbp: .cfa -16 + ^ .cfa: $rsp 16 +
STACK CFI 43dcc .cfa: $rbp 16 +
STACK CFI 43dd1 $r15: .cfa -24 + ^
STACK CFI 43dda $r12: .cfa -48 + ^ $r13: .cfa -40 + ^ $r14: .cfa -32 + ^
STACK CFI 43dde $rbx: .cfa -56 + ^
STACK CFI 43f5b .cfa: $rsp 8 +
STACK CFI 43f60 .cfa: $rbp 16 +
STACK CFI 43ff1 .cfa: $rsp 8 +
STACK CFI 43ff8 .cfa: $rbp 16 +
STACK CFI 4403e .cfa: $rsp 8 +
STACK CFI 44040 .cfa: $rbp 16 +
STACK CFI 44058 .cfa: $rsp 8 +
STACK CFI INIT 44060 25a .cfa: $rsp 8 + .ra: .cfa -8 + ^
STACK CFI 44061 $rbp: .cfa -16 + ^ .cfa: $rsp 16 +
STACK CFI 4406c .cfa: $rbp 16 +
STACK CFI 44071 $r15: .cfa -24 + ^
STACK CFI 4407a $r12: .cfa -48 + ^ $r13: .cfa -40 + ^ $r14: .cfa -32 + ^
STACK CFI 4407e $rbx: .cfa -56 + ^
STACK CFI 44203 .cfa: $rsp 8 +
STACK CFI 44208 .cfa: $rbp 16 +
STACK CFI 44251 .cfa: $rsp 8 +
STACK CFI 44258 .cfa: $rbp 16 +
STACK CFI 4429d .cfa: $rsp 8 +
STACK CFI 442a0 .cfa: $rbp 16 +
STACK CFI 442b9 .cfa: $rsp 8 +
STACK CFI INIT 442c0 351 .cfa: $rsp 8 + .ra: .cfa -8 + ^
STACK CFI 442c1 $rbp: .cfa -16 + ^ .cfa: $rsp 16 +
STACK CFI 442c8 .cfa: $rbp 16 +
STACK CFI 442cd $r15: .cfa -24 + ^
STACK CFI 442d7 $r13: .cfa -40 + ^ $r14: .cfa -32 + ^
STACK CFI 442dc $r12: .cfa -48 + ^
STACK CFI 442e0 $rbx: .cfa -56 + ^
STACK CFI 44564 .cfa: $rsp 8 +
STACK CFI 44568 .cfa: $rbp 16 +
STACK CFI INIT 44620 15a .cfa: $rsp 8 + .ra: .cfa -8 + ^
STACK CFI 44624 $rbp: .cfa -16 + ^ .cfa: $rsp 16 +
STACK CFI 44631 .cfa: $rbp 16 +
STACK CFI 446e3 .cfa: $rsp 8 +
STACK CFI 446e8 .cfa: $rbp 16 +
STACK CFI INIT 44780 eb .cfa: $rsp 8 + .ra: .cfa -8 + ^
STACK CFI 44781 $rbp: .cfa -16 + ^ .cfa: $rsp 16 +
STACK CFI 44790 .cfa: $rbp 16 +
STACK CFI 447e5 .cfa: $rsp 8 +
STACK CFI 447f0 .cfa: $rbp 16 +
STACK CFI INIT 44870 177 .cfa: $rsp 8 + .ra: .cfa -8 + ^
STACK CFI 44871 $rbp: .cfa -16 + ^ .cfa: $rsp 16 +
STACK CFI 44880 .cfa: $rbp 16 +
STACK CFI 448b0 .cfa: $rsp 8 +
STACK CFI 448b8 .cfa: $rbp 16 +
STACK CFI 44914 .cfa: $rsp 8 +
STACK CFI 44918 .cfa: $rbp 16 +
STACK CFI INIT 449f0 175 .cfa: $rsp 8 + .ra: .cfa -8 + ^
STACK CFI 449f1 $rbp: .cfa -16 + ^ .cfa: $rsp 16 +
STACK CFI 449f4 .cfa: $rbp 16 +
STACK CFI 449fa $r15: .cfa -24 + ^
STACK CFI 44a05 $r13: .cfa -40 + ^ $r14: .cfa -32 + ^
STACK CFI 44a0d $r12: .cfa -48 + ^
STACK CFI 44a11 $rbx: .cfa -56 + ^
STACK CFI 44b15 .cfa: $rsp 8 +
STACK CFI 44b20 .cfa: $rbp 16 +
STACK CFI INIT 44b70 175 .cfa: $rsp 8 + .ra: .cfa -8 + ^
STACK CFI 44b71 $rbp: .cfa -16 + ^ .cfa: $rsp 16 +
STACK CFI 44b74 .cfa: $rbp 16 +
STACK CFI 44b7a $r15: .cfa -24 + ^
STACK CFI 44b85 $r13: .cfa -40 + ^ $r14: .cfa -32 + ^
STACK CFI 44b8d $r12: .cfa -48 + ^
STACK CFI 44b91 $rbx: .cfa -56 + ^
STACK CFI 44c95 .cfa: $rsp 8 +
STACK CFI 44ca0 .cfa: $rbp 16 +
STACK CFI INIT 44cf0 235 .cfa: $rsp 8 + .ra: .cfa -8 + ^
STACK CFI 44cf4 $rbp: .cfa -16 + ^ .cfa: $rsp 16 +
STACK CFI 44d01 .cfa: $rbp 16 +
STACK CFI 44dea .cfa: $rsp 8 +
STACK CFI 44df0 .cfa: $rbp 16 +
STACK CFI INIT 44f30 235 .cfa: $rsp 8 + .ra: .cfa -8 + ^
STACK CFI 44f34 $rbp: .cfa -16 + ^ .cfa: $rsp 16 +
STACK CFI 44f41 .cfa: $rbp 16 +
STACK CFI 4502a .cfa: $rsp 8 +
STACK CFI 45030 .cfa: $rbp 16 +
STACK CFI INIT 45170 7d .cfa: $rsp 8 + .ra: .cfa -8 + ^
STACK CFI 45171 $rbp: .cfa -16 + ^ .cfa: $rsp 16 +
STACK CFI 45177 .cfa: $rbp 16 +
STACK CFI 45183 .cfa: $rsp 8 +
STACK CFI 45188 .cfa: $rbp 16 +
STACK CFI 451b1 .cfa: $rsp 8 +
STACK CFI 451b8 .cfa: $rbp 16 +
STACK CFI 451e3 .cfa: $rsp 8 +
STACK CFI 451e4 .cfa: $rbp 16 +
STACK CFI INIT 451f0 3cb .cfa: $rsp 8 + .ra: .cfa -8 + ^
STACK CFI 451f1 $rbp: .cfa -16 + ^ .cfa: $rsp 16 +
STACK CFI 451ff .cfa: $rbp 16 +
STACK CFI 45215 $r12: .cfa -48 + ^ $r13: .cfa -40 + ^ $r14: .cfa -32 + ^ $r15: .cfa -24 + ^ $rbx: .cfa -56 + ^
STACK CFI 45307 .cfa: $rsp 8 +
STACK CFI 45310 .cfa: $rbp 16 +
STACK CFI 453c2 .cfa: $rsp 8 +
STACK CFI 453c8 .cfa: $rbp 16 +
STACK CFI 45445 .cfa: $rsp 8 +
STACK CFI 45450 .cfa: $rbp 16 +
STACK CFI 4545c .cfa: $rsp 8 +
STACK CFI 4545d .cfa: $rbp 16 +
STACK CFI INIT 455c0 396 .cfa: $rsp 8 + .ra: .cfa -8 + ^
STACK CFI 455c1 $rbp: .cfa -16 + ^ .cfa: $rsp 16 +
STACK CFI 455cf .cfa: $rbp 16 +
STACK CFI 455e9 $r12: .cfa -48 + ^ $r13: .cfa -40 + ^ $r14: .cfa -32 + ^ $r15: .cfa -24 + ^ $rbx: .cfa -56 + ^
STACK CFI 456d7 .cfa: $rsp 8 +
STACK CFI 456e0 .cfa: $rbp 16 +
STACK CFI 45798 .cfa: $rsp 8 +
STACK CFI 457a0 .cfa: $rbp 16 +
STACK CFI 457e3 .cfa: $rsp 8 +
STACK CFI 457e8 .cfa: $rbp 16 +
STACK CFI 457fa .cfa: $rsp 8 +
STACK CFI 457fb .cfa: $rbp 16 +
STACK CFI INIT 45960 1c7 .cfa: $rsp 8 + .ra: .cfa -8 + ^
STACK CFI 45961 $rbp: .cfa -16 + ^ .cfa: $rsp 16 +
STACK CFI 4596a .cfa: $rbp 16 +
STACK CFI 45970 $r12: .cfa -24 + ^
STACK CFI 4597d $rbx: .cfa -32 + ^
STACK CFI 45a33 .cfa: $rsp 8 +
STACK CFI 45a38 .cfa: $rbp 16 +
STACK CFI 45ae2 .cfa: $rsp 8 +
STACK CFI 45ae3 .cfa: $rbp 16 +
STACK CFI INIT 45b30 1c7 .cfa: $rsp 8 + .ra: .cfa -8 + ^
STACK CFI 45b31 $rbp: .cfa -16 + ^ .cfa: $rsp 16 +
STACK CFI 45b38 .cfa: $rbp 16 +
STACK CFI 45b42 $r12: .cfa -24 + ^ $rbx: .cfa -32 + ^
STACK CFI 45c47 .cfa: $rsp 8 +
STACK CFI 45c50 .cfa: $rbp 16 +
STACK CFI INIT 45d00 1c7 .cfa: $rsp 8 + .ra: .cfa -8 + ^
STACK CFI 45d01 $rbp: .cfa -16 + ^ .cfa: $rsp 16 +
STACK CFI 45d0a .cfa: $rbp 16 +
STACK CFI 45d10 $r12: .cfa -24 + ^
STACK CFI 45d1d $rbx: .cfa -32 + ^
STACK CFI 45dd4 .cfa: $rsp 8 +
STACK CFI 45dd8 .cfa: $rbp 16 +
STACK CFI 45e82 .cfa: $rsp 8 +
STACK CFI 45e83 .cfa: $rbp 16 +
STACK CFI INIT 45ed0 34e .cfa: $rsp 8 + .ra: .cfa -8 + ^
STACK CFI 45ed1 $rbp: .cfa -16 + ^ .cfa: $rsp 16 +
STACK CFI 45ede .cfa: $rbp 16 +
STACK CFI 45ef4 $rbx: .cfa -24 + ^
STACK CFI 45f38 .cfa: $rsp 8 +
STACK CFI 45f40 .cfa: $rbp 16 +
STACK CFI 46034 .cfa: $rsp 8 +
STACK CFI 46038 .cfa: $rbp 16 +
STACK CFI 46152 .cfa: $rsp 8 +
STACK CFI 4615d .cfa: $rbp 16 +
STACK CFI INIT 46220 21c .cfa: $rsp 8 + .ra: .cfa -8 + ^
STACK CFI 46221 $rbp: .cfa -16 + ^ .cfa: $rsp 16 +
STACK CFI 4622e .cfa: $rbp 16 +
STACK CFI 46244 $rbx: .cfa -24 + ^
STACK CFI 46284 .cfa: $rsp 8 +
STACK CFI 46288 .cfa: $rbp 16 +
STACK CFI 462aa .cfa: $rsp 8 +
STACK CFI 462b8 .cfa: $rbp 16 +
STACK CFI 46354 .cfa: $rsp 8 +
STACK CFI 46358 .cfa: $rbp 16 +
STACK CFI INIT 46440 4de .cfa: $rsp 8 + .ra: .cfa -8 + ^
STACK CFI 46441 $rbp: .cfa -16 + ^ .cfa: $rsp 16 +
STACK CFI 46444 .cfa: $rbp 16 +
STACK CFI 4644b $r14: .cfa -32 + ^ $r15: .cfa -24 + ^
STACK CFI 46450 $r13: .cfa -40 + ^
STACK CFI 46455 $r12: .cfa -48 + ^
STACK CFI 46459 $rbx: .cfa -56 + ^
STACK CFI 46606 .cfa: $rsp 8 +
STACK CFI 46610 .cfa: $rbp 16 +
STACK CFI INIT 46920 2d .cfa: $rsp 8 + .ra: .cfa -8 + ^
STACK CFI 46921 $rbp: .cfa -16 + ^ .cfa: $rsp 16 +
STACK CFI 46924 .cfa: $rbp 16 +
STACK CFI 4694c .cfa: $rsp 8 +
STACK CFI INIT 46950 25 .cfa: $rsp 8 + .ra: .cfa -8 + ^
STACK CFI 46951 $rbp: .cfa -16 + ^ .cfa: $rsp 16 +
STACK CFI 46954 .cfa: $rbp 16 +
STACK CFI 46974 .cfa: $rsp 8 +
STACK CFI INIT 46980 25 .cfa: $rsp 8 + .ra: .cfa -8 + ^
STACK CFI 46981 $rbp: .cfa -16 + ^ .cfa: $rsp 16 +
STACK CFI 46984 .cfa: $rbp 16 +
STACK CFI 469a4 .cfa: $rsp 8 +
STACK CFI INIT 469b0 35 .cfa: $rsp 8 + .ra: .cfa -8 + ^
STACK CFI 469b1 $rbp: .cfa -16 + ^ .cfa: $rsp 16 +
STACK CFI 469bc .cfa: $rbp 16 +
STACK CFI 469e4 .cfa: $rsp 8 +
STACK CFI INIT 469f0 51 .cfa: $rsp 8 + .ra: .cfa -8 + ^
STACK CFI 469f1 $rbp: .cfa -16 + ^ .cfa: $rsp 16 +
STACK CFI 469fc .cfa: $rbp 16 +
STACK CFI 46a40 .cfa: $rsp 8 +
STACK CFI INIT 46a50 c4 .cfa: $rsp 8 + .ra: .cfa -8 + ^
STACK CFI 46a51 $rbp: .cfa -16 + ^ .cfa: $rsp 16 +
STACK CFI 46a61 .cfa: $rbp 16 +
STACK CFI 46a71 $rbx: .cfa -24 + ^
STACK CFI 46adf .cfa: $rsp 8 +
STACK CFI 46ae0 .cfa: $rbp 16 +
STACK CFI 46b13 .cfa: $rsp 8 +
STACK CFI INIT 46b20 109 .cfa: $rsp 8 + .ra: .cfa -8 + ^
STACK CFI 46b21 $rbp: .cfa -16 + ^ .cfa: $rsp 16 +
STACK CFI 46b31 .cfa: $rbp 16 +
STACK CFI 46bb0 .cfa: $rsp 8 +
STACK CFI 46bb8 .cfa: $rbp 16 +
STACK CFI 46bf4 .cfa: $rsp 8 +
STACK CFI 46c00 .cfa: $rbp 16 +
STACK CFI 46c14 .cfa: $rsp 8 +
STACK CFI 46c15 .cfa: $rbp 16 +
STACK CFI 46c1d .cfa: $rsp 8 +
STACK CFI 46c1e .cfa: $rbp 16 +
STACK CFI INIT 46c30 111 .cfa: $rsp 8 + .ra: .cfa -8 + ^
STACK CFI 46c31 $rbp: .cfa -16 + ^ .cfa: $rsp 16 +
STACK CFI 46c3c .cfa: $rbp 16 +
STACK CFI 46c3f $rbx: .cfa -24 + ^
STACK CFI 46cac .cfa: $rsp 8 +
STACK CFI 46cb0 .cfa: $rbp 16 +
STACK CFI 46d40 .cfa: $rsp 8 +
STACK CFI INIT 46d50 bd .cfa: $rsp 8 + .ra: .cfa -8 + ^
STACK CFI 46d51 $rbp: .cfa -16 + ^ .cfa: $rsp 16 +
STACK CFI 46d5c .cfa: $rbp 16 +
STACK CFI 46d6e $r12: .cfa -32 + ^ $r13: .cfa -24 + ^ $rbx: .cfa -40 + ^
STACK CFI 46dfb .cfa: $rsp 8 +
STACK CFI 46e08 .cfa: $rbp 16 +
STACK CFI INIT 46e10 17 .cfa: $rsp 8 + .ra: .cfa -8 + ^
STACK CFI 46e1f $rbp: .cfa -16 + ^ .cfa: $rsp 16 +
STACK CFI 46e22 .cfa: $rbp 16 +
STACK CFI 46e23 .cfa: $rsp 8 +
STACK CFI INIT 46e30 c .cfa: $rsp 8 + .ra: .cfa -8 + ^
STACK CFI 46e31 $rbp: .cfa -16 + ^ .cfa: $rsp 16 +
STACK CFI 46e3a .cfa: $rbp 16 +
STACK CFI 46e3b .cfa: $rsp 8 +
STACK CFI INIT 46e40 8 .cfa: $rsp 8 + .ra: .cfa -8 + ^
STACK CFI 46e41 $rbp: .cfa -16 + ^ .cfa: $rsp 16 +
STACK CFI 46e46 .cfa: $rbp 16 +
STACK CFI 46e47 .cfa: $rsp 8 +
STACK CFI INIT 46e50 c .cfa: $rsp 8 + .ra: .cfa -8 + ^
STACK CFI 46e51 $rbp: .cfa -16 + ^ .cfa: $rsp 16 +
STACK CFI 46e5a .cfa: $rbp 16 +
STACK CFI 46e5b .cfa: $rsp 8 +
STACK CFI INIT 46e60 41 .cfa: $rsp 8 + .ra: .cfa -8 + ^
STACK CFI 46e61 $rbp: .cfa -16 + ^ .cfa: $rsp 16 +
STACK CFI 46e69 .cfa: $rbp 16 +
STACK CFI 46ea0 .cfa: $rsp 8 +
STACK CFI INIT 46eb0 d .cfa: $rsp 8 + .ra: .cfa -8 + ^
STACK CFI 46eb1 $rbp: .cfa -16 + ^ .cfa: $rsp 16 +
STACK CFI 46eb4 .cfa: $rbp 16 +
STACK CFI 46ebc .cfa: $rsp 8 +
STACK CFI INIT 46ec0 11 .cfa: $rsp 8 + .ra: .cfa -8 + ^
STACK CFI 46ec1 $rbp: .cfa -16 + ^ .cfa: $rsp 16 +
STACK CFI 46ec4 .cfa: $rbp 16 +
STACK CFI 46ecd .cfa: $rsp 8 +
STACK CFI INIT 46ee0 11 .cfa: $rsp 8 + .ra: .cfa -8 + ^
STACK CFI 46ee1 $rbp: .cfa -16 + ^ .cfa: $rsp 16 +
STACK CFI 46ee4 .cfa: $rbp 16 +
STACK CFI 46eed .cfa: $rsp 8 +
STACK CFI INIT 46f00 bc .cfa: $rsp 8 + .ra: .cfa -8 + ^
STACK CFI 46f01 $rbp: .cfa -16 + ^ .cfa: $rsp 16 +
STACK CFI 46f04 .cfa: $rbp 16 +
STACK CFI 46f09 $r12: .cfa -24 + ^ $rbx: .cfa -32 + ^
STACK CFI 46fa4 .cfa: $rsp 8 +
STACK CFI 46fa8 .cfa: $rbp 16 +
STACK CFI INIT 46fc0 90 .cfa: $rsp 8 + .ra: .cfa -8 + ^
STACK CFI 46fc1 $rbp: .cfa -16 + ^ .cfa: $rsp 16 +
STACK CFI 46fc8 .cfa: $rbp 16 +
STACK CFI 46fce $r12: .cfa -24 + ^
STACK CFI 46fd2 $rbx: .cfa -32 + ^
STACK CFI 47020 .cfa: $rsp 8 +
STACK CFI 47028 .cfa: $rbp 16 +
STACK CFI 4703c .cfa: $rsp 8 +
STACK CFI 4703d .cfa: $rbp 16 +
STACK CFI INIT 47050 35 .cfa: $rsp 8 + .ra: .cfa -8 + ^
STACK CFI 47051 $rbp: .cfa -16 + ^ .cfa: $rsp 16 +
STACK CFI 47056 .cfa: $rbp 16 +
STACK CFI 47067 .cfa: $rsp 8 +
STACK CFI 47070 .cfa: $rbp 16 +
STACK CFI 4707f .cfa: $rsp 8 +
STACK CFI INIT 47090 240 .cfa: $rsp 8 + .ra: .cfa -8 + ^
STACK CFI 47091 $rbp: .cfa -16 + ^ .cfa: $rsp 16 +
STACK CFI 47094 .cfa: $rbp 16 +
STACK CFI 4709f $r14: .cfa -32 + ^ $rbx: .cfa -56 + ^
STACK CFI 470cd $r12: .cfa -48 + ^ $r13: .cfa -40 + ^ $r15: .cfa -24 + ^
STACK CFI 4716a .cfa: $rsp 8 +
STACK CFI 47170 .cfa: $rbp 16 +
STACK CFI INIT 472d0 4d .cfa: $rsp 8 + .ra: .cfa -8 + ^
STACK CFI 472d1 $rbp: .cfa -16 + ^ .cfa: $rsp 16 +
STACK CFI 472d4 .cfa: $rbp 16 +
STACK CFI 472dc $rbx: .cfa -24 + ^
STACK CFI 4731c .cfa: $rsp 8 +
STACK CFI INIT 47320 175 .cfa: $rsp 8 + .ra: .cfa -8 + ^
STACK CFI 47321 $rbp: .cfa -16 + ^ .cfa: $rsp 16 +
STACK CFI 47324 .cfa: $rbp 16 +
STACK CFI 4732f $r12: .cfa -48 + ^ $rbx: .cfa -56 + ^
STACK CFI 47352 $r13: .cfa -40 + ^ $r14: .cfa -32 + ^ $r15: .cfa -24 + ^
STACK CFI 47468 .cfa: $rsp 8 +
STACK CFI 47470 .cfa: $rbp 16 +
STACK CFI INIT 474a0 12a .cfa: $rsp 8 + .ra: .cfa -8 + ^
STACK CFI 474a1 $rbp: .cfa -16 + ^ .cfa: $rsp 16 +
STACK CFI 474a4 .cfa: $rbp 16 +
STACK CFI 474b4 $r12: .cfa -48 + ^ $r13: .cfa -40 + ^ $r14: .cfa -32 + ^ $r15: .cfa -24 + ^ $rbx: .cfa -56 + ^
STACK CFI 475c9 .cfa: $rsp 8 +
STACK CFI INIT 475d0 11a .cfa: $rsp 8 + .ra: .cfa -8 + ^
STACK CFI 475d1 $rbp: .cfa -16 + ^ .cfa: $rsp 16 +
STACK CFI 475d4 .cfa: $rbp 16 +
STACK CFI 475e4 $r12: .cfa -48 + ^ $r13: .cfa -40 + ^ $r14: .cfa -32 + ^ $r15: .cfa -24 + ^ $rbx: .cfa -56 + ^
STACK CFI 476e9 .cfa: $rsp 8 +
STACK CFI INIT 476f0 ee .cfa: $rsp 8 + .ra: .cfa -8 + ^
STACK CFI 476f1 $rbp: .cfa -16 + ^ .cfa: $rsp 16 +
STACK CFI 476f4 .cfa: $rbp 16 +
STACK CFI 476ff $r12: .cfa -40 + ^ $rbx: .cfa -48 + ^
STACK CFI 4770a $r13: .cfa -32 + ^ $r14: .cfa -24 + ^
STACK CFI 4779f .cfa: $rsp 8 +
STACK CFI 477a0 .cfa: $rbp 16 +
STACK CFI 477b7 .cfa: $rsp 8 +
STACK CFI 477c0 .cfa: $rbp 16 +
STACK CFI INIT 477e0 272 .cfa: $rsp 8 + .ra: .cfa -8 + ^
STACK CFI 477e1 $rbp: .cfa -16 + ^ .cfa: $rsp 16 +
STACK CFI 477e4 .cfa: $rbp 16 +
STACK CFI 477ef $r12: .cfa -48 + ^ $rbx: .cfa -56 + ^
STACK CFI 477fa $r14: .cfa -32 + ^ $r15: .cfa -24 + ^
STACK CFI 4780f $r13: .cfa -40 + ^
STACK CFI 4783d .cfa: $rsp 8 +
STACK CFI 47840 .cfa: $rbp 16 +
STACK CFI INIT 47a60 195 .cfa: $rsp 8 + .ra: .cfa -8 + ^
STACK CFI 47a61 $rbp: .cfa -16 + ^ .cfa: $rsp 16 +
STACK CFI 47a64 .cfa: $rbp 16 +
STACK CFI 47a6f $r12: .cfa -48 + ^ $rbx: .cfa -56 + ^
STACK CFI 47a90 $r13: .cfa -40 + ^ $r14: .cfa -32 + ^ $r15: .cfa -24 + ^
STACK CFI 47b1a .cfa: $rsp 8 +
STACK CFI 47b20 .cfa: $rbp 16 +
STACK CFI INIT 47c00 ca .cfa: $rsp 8 + .ra: .cfa -8 + ^
STACK CFI 47c01 $rbp: .cfa -16 + ^ .cfa: $rsp 16 +
STACK CFI 47c04 .cfa: $rbp 16 +
STACK CFI 47c13 $r12: .cfa -32 + ^ $rbx: .cfa -40 + ^
STACK CFI 47c24 $r13: .cfa -24 + ^
STACK CFI 47c5e .cfa: $rsp 8 +
STACK CFI 47c60 .cfa: $rbp 16 +
STACK CFI INIT 47cd0 101 .cfa: $rsp 8 + .ra: .cfa -8 + ^
STACK CFI 47cd1 $rbp: .cfa -16 + ^ .cfa: $rsp 16 +
STACK CFI 47cd6 .cfa: $rbp 16 +
STACK CFI 47cf9 $r12: .cfa -32 + ^ $r13: .cfa -24 + ^ $rbx: .cfa -40 + ^
STACK CFI 47d85 .cfa: $rsp 8 +
STACK CFI 47d90 .cfa: $rbp 16 +
STACK CFI 47dd0 .cfa: $rsp 8 +
STACK CFI INIT 47de0 ab .cfa: $rsp 8 + .ra: .cfa -8 + ^
STACK CFI 47de1 $rbp: .cfa -16 + ^ .cfa: $rsp 16 +
STACK CFI 47de4 .cfa: $rbp 16 +
STACK CFI 47dfa $r12: .cfa -24 + ^ $rbx: .cfa -32 + ^
STACK CFI 47e08 .cfa: $rsp 8 +
STACK CFI 47e10 .cfa: $rbp 16 +
STACK CFI 47e47 .cfa: $rsp 8 +
STACK CFI 47e50 .cfa: $rbp 16 +
STACK CFI INIT 47e90 8 .cfa: $rsp 8 + .ra: .cfa -8 + ^
STACK CFI 47e91 $rbp: .cfa -16 + ^ .cfa: $rsp 16 +
STACK CFI 47e96 .cfa: $rbp 16 +
STACK CFI 47e97 .cfa: $rsp 8 +
STACK CFI INIT 47ea0 63 .cfa: $rsp 8 + .ra: .cfa -8 + ^
STACK CFI 47eb2 $rbp: .cfa -16 + ^ .cfa: $rsp 16 +
STACK CFI 47ec0 .cfa: $rbp 16 +
STACK CFI 47edb .cfa: $rsp 8 +
STACK CFI 47ee0 .cfa: $rbp 16 +
STACK CFI 47ef3 .cfa: $rsp 8 +
STACK CFI 47ef8 .cfa: $rbp 16 +
STACK CFI INIT 47f10 c .cfa: $rsp 8 + .ra: .cfa -8 + ^
STACK CFI 47f11 $rbp: .cfa -16 + ^ .cfa: $rsp 16 +
STACK CFI 47f16 .cfa: $rbp 16 +
STACK CFI 47f17 .cfa: $rsp 8 +
STACK CFI INIT 47f20 47 .cfa: $rsp 8 + .ra: .cfa -8 + ^
STACK CFI 47f21 $rbp: .cfa -16 + ^ .cfa: $rsp 16 +
STACK CFI 47f24 .cfa: $rbp 16 +
STACK CFI 47f28 $rbx: .cfa -24 + ^
STACK CFI 47f4f .cfa: $rsp 8 +
STACK CFI 47f58 .cfa: $rbp 16 +
STACK CFI 47f66 .cfa: $rsp 8 +
STACK CFI INIT 47f70 326 .cfa: $rsp 8 + .ra: .cfa -8 + ^
STACK CFI 47f71 $rbp: .cfa -16 + ^ .cfa: $rsp 16 +
STACK CFI 47f74 .cfa: $rbp 16 +
STACK CFI 47f7e $r12: .cfa -48 + ^ $rbx: .cfa -56 + ^
STACK CFI 47fa5 $r13: .cfa -40 + ^ $r14: .cfa -32 + ^ $r15: .cfa -24 + ^
STACK CFI 480f3 .cfa: $rsp 8 +
STACK CFI 480f8 .cfa: $rbp 16 +
STACK CFI INIT 482a0 32 .cfa: $rsp 8 + .ra: .cfa -8 + ^
STACK CFI 482a1 $rbp: .cfa -16 + ^ .cfa: $rsp 16 +
STACK CFI 482aa .cfa: $rbp 16 +
STACK CFI 482cd .cfa: $rsp 8 +
STACK CFI INIT 482e0 39e .cfa: $rsp 8 + .ra: .cfa -8 + ^
STACK CFI 482e1 $rbp: .cfa -16 + ^ .cfa: $rsp 16 +
STACK CFI 482e6 .cfa: $rbp 16 +
STACK CFI 482eb $r15: .cfa -24 + ^
STACK CFI 482f9 $r14: .cfa -32 + ^
STACK CFI 482fe $r13: .cfa -40 + ^
STACK CFI 48303 $r12: .cfa -48 + ^
STACK CFI 48307 $rbx: .cfa -56 + ^
STACK CFI 484c1 .cfa: $rsp 8 +
STACK CFI 484c8 .cfa: $rbp 16 +
STACK CFI INIT 48680 13 .cfa: $rsp 8 + .ra: .cfa -8 + ^
STACK CFI 48681 $rbp: .cfa -16 + ^ .cfa: $rsp 16 +
STACK CFI 48691 .cfa: $rbp 16 +
STACK CFI 48692 .cfa: $rsp 8 +
STACK CFI INIT 486a0 22 .cfa: $rsp 8 + .ra: .cfa -8 + ^
STACK CFI 486a1 $rbp: .cfa -16 + ^ .cfa: $rsp 16 +
STACK CFI 486a4 .cfa: $rbp 16 +
STACK CFI 486a8 $rbx: .cfa -24 + ^
STACK CFI 486bd .cfa: $rsp 8 +
STACK CFI INIT 486d0 43 .cfa: $rsp 8 + .ra: .cfa -8 + ^
STACK CFI 486d1 $rbp: .cfa -16 + ^ .cfa: $rsp 16 +
STACK CFI 486d4 .cfa: $rbp 16 +
STACK CFI 486da $r14: .cfa -24 + ^
STACK CFI 486e0 $r13: .cfa -32 + ^
STACK CFI 486e6 $r12: .cfa -40 + ^
STACK CFI 486eb $rbx: .cfa -48 + ^
STACK CFI 48712 .cfa: $rsp 8 +
STACK CFI INIT 48720 45 .cfa: $rsp 8 + .ra: .cfa -8 + ^
STACK CFI 48728 $rbp: .cfa -16 + ^ .cfa: $rsp 16 +
STACK CFI 4872b .cfa: $rbp 16 +
STACK CFI 48737 .cfa: $rsp 8 +
STACK CFI 48740 .cfa: $rbp 16 +
STACK CFI 48748 .cfa: $rsp 8 +
STACK CFI 48750 .cfa: $rbp 16 +
STACK CFI INIT 48770 361 .cfa: $rsp 8 + .ra: .cfa -8 + ^
STACK CFI 48771 $rbp: .cfa -16 + ^ .cfa: $rsp 16 +
STACK CFI 48774 .cfa: $rbp 16 +
STACK CFI 48779 $r15: .cfa -24 + ^
STACK CFI 48780 $r13: .cfa -40 + ^ $r14: .cfa -32 + ^
STACK CFI 48785 $r12: .cfa -48 + ^
STACK CFI 48789 $rbx: .cfa -56 + ^
STACK CFI 48900 .cfa: $rsp 8 +
STACK CFI 48908 .cfa: $rbp 16 +
STACK CFI INIT 48ae0 65 .cfa: $rsp 8 + .ra: .cfa -8 + ^
STACK CFI 48ae1 $rbp: .cfa -16 + ^ .cfa: $rsp 16 +
STACK CFI 48ae4 .cfa: $rbp 16 +
STACK CFI 48b02 $rbx: .cfa -24 + ^
STACK CFI 48b44 .cfa: $rsp 8 +
STACK CFI INIT 48b50 75 .cfa: $rsp 8 + .ra: .cfa -8 + ^
STACK CFI 48b51 $rbp: .cfa -16 + ^ .cfa: $rsp 16 +
STACK CFI 48b54 .cfa: $rbp 16 +
STACK CFI 48b5f $r12: .cfa -32 + ^ $rbx: .cfa -40 + ^
STACK CFI 48b86 $r13: .cfa -24 + ^
STACK CFI 48bc4 .cfa: $rsp 8 +
STACK CFI INIT 48bd0 17 .cfa: $rsp 8 + .ra: .cfa -8 + ^
STACK CFI 48bd1 $rbp: .cfa -16 + ^ .cfa: $rsp 16 +
STACK CFI 48bdb .cfa: $rbp 16 +
STACK CFI 48be3 .cfa: $rsp 8 +
STACK CFI INIT 48bf0 a .cfa: $rsp 8 + .ra: .cfa -8 + ^
STACK CFI 48bf1 $rbp: .cfa -16 + ^ .cfa: $rsp 16 +
STACK CFI 48bf4 .cfa: $rbp 16 +
STACK CFI 48bf5 .cfa: $rsp 8 +
STACK CFI INIT 48c00 a .cfa: $rsp 8 + .ra: .cfa -8 + ^
STACK CFI 48c01 $rbp: .cfa -16 + ^ .cfa: $rsp 16 +
STACK CFI 48c04 .cfa: $rbp 16 +
STACK CFI 48c05 .cfa: $rsp 8 +
STACK CFI INIT 48c10 46 .cfa: $rsp 8 + .ra: .cfa -8 + ^
STACK CFI 48c11 $rbp: .cfa -16 + ^ .cfa: $rsp 16 +
STACK CFI 48c14 .cfa: $rbp 16 +
STACK CFI 48c27 $r12: .cfa -24 + ^ $rbx: .cfa -32 + ^
STACK CFI 48c51 .cfa: $rsp 8 +
STACK CFI INIT 48c60 57 .cfa: $rsp 8 + .ra: .cfa -8 + ^
STACK CFI 48c61 $rbp: .cfa -16 + ^ .cfa: $rsp 16 +
STACK CFI 48c64 .cfa: $rbp 16 +
STACK CFI 48c68 $rbx: .cfa -24 + ^
STACK CFI 48c9f .cfa: $rsp 8 +
STACK CFI 48ca8 .cfa: $rbp 16 +
STACK CFI 48cb6 .cfa: $rsp 8 +
STACK CFI INIT 48cc0 ac .cfa: $rsp 8 + .ra: .cfa -8 + ^
STACK CFI 48cc1 $rbp: .cfa -16 + ^ .cfa: $rsp 16 +
STACK CFI 48cc4 .cfa: $rbp 16 +
STACK CFI 48ccb $r14: .cfa -32 + ^ $r15: .cfa -24 + ^
STACK CFI 48cd2 $r12: .cfa -48 + ^ $r13: .cfa -40 + ^
STACK CFI 48cd6 $rbx: .cfa -56 + ^
STACK CFI 48d49 .cfa: $rsp 8 +
STACK CFI 48d50 .cfa: $rbp 16 +
STACK CFI INIT 48d70 ac .cfa: $rsp 8 + .ra: .cfa -8 + ^
STACK CFI 48d71 $rbp: .cfa -16 + ^ .cfa: $rsp 16 +
STACK CFI 48d74 .cfa: $rbp 16 +
STACK CFI 48d7b $r14: .cfa -32 + ^ $r15: .cfa -24 + ^
STACK CFI 48d82 $r12: .cfa -48 + ^ $r13: .cfa -40 + ^
STACK CFI 48d86 $rbx: .cfa -56 + ^
STACK CFI 48df9 .cfa: $rsp 8 +
STACK CFI 48e00 .cfa: $rbp 16 +
STACK CFI INIT 48e20 19c .cfa: $rsp 8 + .ra: .cfa -8 + ^
STACK CFI 48e21 $rbp: .cfa -16 + ^ .cfa: $rsp 16 +
STACK CFI 48e24 .cfa: $rbp 16 +
STACK CFI 48e29 $r15: .cfa -24 + ^
STACK CFI 48e2e $r14: .cfa -32 + ^
STACK CFI 48e33 $r13: .cfa -40 + ^
STACK CFI 48e39 $r12: .cfa -48 + ^ $rbx: .cfa -56 + ^
STACK CFI 48f28 .cfa: $rsp 8 +
STACK CFI 48f30 .cfa: $rbp 16 +
STACK CFI 48f94 .cfa: $rsp 8 +
STACK CFI 48f98 .cfa: $rbp 16 +
STACK CFI 48fbb .cfa: $rsp 8 +
STACK CFI INIT 48fc0 14 .cfa: $rsp 8 + .ra: .cfa -8 + ^
STACK CFI 48fc1 $rbp: .cfa -16 + ^ .cfa: $rsp 16 +
STACK CFI 48fce .cfa: $rbp 16 +
STACK CFI 48fcf .cfa: $rsp 8 +
STACK CFI INIT 48fe0 14 .cfa: $rsp 8 + .ra: .cfa -8 + ^
STACK CFI 48fe1 $rbp: .cfa -16 + ^ .cfa: $rsp 16 +
STACK CFI 48fee .cfa: $rbp 16 +
STACK CFI 48fef .cfa: $rsp 8 +
STACK CFI INIT 49000 b8 .cfa: $rsp 8 + .ra: .cfa -8 + ^
STACK CFI 49001 $rbp: .cfa -16 + ^ .cfa: $rsp 16 +
STACK CFI 49004 .cfa: $rbp 16 +
STACK CFI 4900b $rbx: .cfa -48 + ^
STACK CFI 4901d $r12: .cfa -40 + ^ $r14: .cfa -24 + ^
STACK CFI 4902e $r13: .cfa -32 + ^
STACK CFI 4905b .cfa: $rsp 8 +
STACK CFI 49060 .cfa: $rbp 16 +
STACK CFI INIT 490c0 3c .cfa: $rsp 8 + .ra: .cfa -8 + ^
STACK CFI 490c1 $rbp: .cfa -16 + ^ .cfa: $rsp 16 +
STACK CFI 490cc .cfa: $rbp 16 +
STACK CFI 490fb .cfa: $rsp 8 +
STACK CFI INIT 49100 c3 .cfa: $rsp 8 + .ra: .cfa -8 + ^
STACK CFI 49101 $rbp: .cfa -16 + ^ .cfa: $rsp 16 +
STACK CFI 49104 .cfa: $rbp 16 +
STACK CFI 4910f $r12: .cfa -48 + ^ $rbx: .cfa -56 + ^
STACK CFI 49128 $r13: .cfa -40 + ^ $r14: .cfa -32 + ^ $r15: .cfa -24 + ^
STACK CFI 49151 .cfa: $rsp 8 +
STACK CFI 49158 .cfa: $rbp 16 +
STACK CFI INIT 491d0 cc .cfa: $rsp 8 + .ra: .cfa -8 + ^
STACK CFI 491d1 $rbp: .cfa -16 + ^ .cfa: $rsp 16 +
STACK CFI 491d4 .cfa: $rbp 16 +
STACK CFI 491db $rbx: .cfa -56 + ^
STACK CFI 491f1 $r12: .cfa -48 + ^ $r13: .cfa -40 + ^ $r14: .cfa -32 + ^ $r15: .cfa -24 + ^
STACK CFI 4922b .cfa: $rsp 8 +
STACK CFI 49230 .cfa: $rbp 16 +
STACK CFI INIT 492a0 1f .cfa: $rsp 8 + .ra: .cfa -8 + ^
STACK CFI 492a4 $rbp: .cfa -16 + ^ .cfa: $rsp 16 +
STACK CFI 492a9 .cfa: $rbp 16 +
STACK CFI 492be .cfa: $rsp 8 +
STACK CFI INIT 492c0 5c .cfa: $rsp 8 + .ra: .cfa -8 + ^
STACK CFI 492c1 $rbp: .cfa -16 + ^ .cfa: $rsp 16 +
STACK CFI 492c4 .cfa: $rbp 16 +
STACK CFI 492cf $r12: .cfa -24 + ^ $rbx: .cfa -32 + ^
STACK CFI 4931b .cfa: $rsp 8 +
STACK CFI INIT 49320 2b .cfa: $rsp 8 + .ra: .cfa -8 + ^
STACK CFI 49324 $rbp: .cfa -16 + ^ .cfa: $rsp 16 +
STACK CFI 49330 .cfa: $rbp 16 +
STACK CFI 4933f .cfa: $rsp 8 +
STACK CFI INIT 49350 3e .cfa: $rsp 8 + .ra: .cfa -8 + ^
STACK CFI 49351 $rbp: .cfa -16 + ^ .cfa: $rsp 16 +
STACK CFI 49354 .cfa: $rbp 16 +
STACK CFI 49358 $rbx: .cfa -24 + ^
STACK CFI 4938d .cfa: $rsp 8 +
STACK CFI INIT 49390 36 .cfa: $rsp 8 + .ra: .cfa -8 + ^
STACK CFI 49391 $rbp: .cfa -16 + ^ .cfa: $rsp 16 +
STACK CFI 4939a .cfa: $rbp 16 +
STACK CFI 493ab .cfa: $rsp 8 +
STACK CFI 493b8 .cfa: $rbp 16 +
STACK CFI 493bc .cfa: $rsp 8 +
STACK CFI INIT 493d0 bd .cfa: $rsp 8 + .ra: .cfa -8 + ^
STACK CFI 493d1 $rbp: .cfa -16 + ^ .cfa: $rsp 16 +
STACK CFI 493d4 .cfa: $rbp 16 +
STACK CFI 493df $r12: .cfa -32 + ^ $rbx: .cfa -40 + ^
STACK CFI 493ec $r13: .cfa -24 + ^
STACK CFI 49441 .cfa: $rsp 8 +
STACK CFI 49448 .cfa: $rbp 16 +
STACK CFI 49457 .cfa: $rsp 8 +
STACK CFI 49460 .cfa: $rbp 16 +
STACK CFI INIT 49490 87 .cfa: $rsp 8 + .ra: .cfa -8 + ^
STACK CFI 49491 $rbp: .cfa -16 + ^ .cfa: $rsp 16 +
STACK CFI 49494 .cfa: $rbp 16 +
STACK CFI 4949f $r12: .cfa -32 + ^ $rbx: .cfa -40 + ^
STACK CFI 494ad $r13: .cfa -24 + ^
STACK CFI 494fc .cfa: $rsp 8 +
STACK CFI 49500 .cfa: $rbp 16 +
STACK CFI INIT 49520 b7 .cfa: $rsp 8 + .ra: .cfa -8 + ^
STACK CFI 49521 $rbp: .cfa -16 + ^ .cfa: $rsp 16 +
STACK CFI 49524 .cfa: $rbp 16 +
STACK CFI 49539 $r12: .cfa -24 + ^ $rbx: .cfa -32 + ^
STACK CFI 49558 .cfa: $rsp 8 +
STACK CFI 49560 .cfa: $rbp 16 +
STACK CFI INIT 495e0 54 .cfa: $rsp 8 + .ra: .cfa -8 + ^
STACK CFI 495e1 $rbp: .cfa -16 + ^ .cfa: $rsp 16 +
STACK CFI 495e4 .cfa: $rbp 16 +
STACK CFI 495e8 $rbx: .cfa -24 + ^
STACK CFI 49613 .cfa: $rsp 8 +
STACK CFI 49618 .cfa: $rbp 16 +
STACK CFI INIT 49640 a9 .cfa: $rsp 8 + .ra: .cfa -8 + ^
STACK CFI 49641 $rbp: .cfa -16 + ^ .cfa: $rsp 16 +
STACK CFI 49647 .cfa: $rbp 16 +
STACK CFI 4964b $rbx: .cfa -24 + ^
STACK CFI 496a8 .cfa: $rsp 8 +
STACK CFI 496b0 .cfa: $rbp 16 +
STACK CFI 496db .cfa: $rsp 8 +
STACK CFI 496e0 .cfa: $rbp 16 +
STACK CFI INIT 496f0 11 .cfa: $rsp 8 + .ra: .cfa -8 + ^
STACK CFI 496f1 $rbp: .cfa -16 + ^ .cfa: $rsp 16 +
STACK CFI 496fb .cfa: $rbp 16 +
STACK CFI 496fc .cfa: $rsp 8 +
STACK CFI INIT 49710 14e .cfa: $rsp 8 + .ra: .cfa -8 + ^
STACK CFI 49711 $rbp: .cfa -16 + ^ .cfa: $rsp 16 +
STACK CFI 49714 .cfa: $rbp 16 +
STACK CFI 49830 .cfa: $rsp 8 +
STACK CFI 49838 .cfa: $rbp 16 +
STACK CFI INIT 49860 51a .cfa: $rsp 8 + .ra: .cfa -8 + ^
STACK CFI 49861 $rbp: .cfa -16 + ^ .cfa: $rsp 16 +
STACK CFI 49864 .cfa: $rbp 16 +
STACK CFI 4986e $r12: .cfa -48 + ^ $rbx: .cfa -56 + ^
STACK CFI 49879 $r13: .cfa -40 + ^ $r14: .cfa -32 + ^
STACK CFI 49891 $r15: .cfa -24 + ^
STACK CFI 499b0 .cfa: $rsp 8 +
STACK CFI 499b8 .cfa: $rbp 16 +
STACK CFI INIT 49d80 6 .cfa: $rsp 8 + .ra: .cfa -8 + ^
STACK CFI 49d81 $rbp: .cfa -16 + ^ .cfa: $rsp 16 +
STACK CFI 49d84 .cfa: $rbp 16 +
STACK CFI 49d85 .cfa: $rsp 8 +
STACK CFI INIT 49d90 d .cfa: $rsp 8 + .ra: .cfa -8 + ^
STACK CFI 49d91 $rbp: .cfa -16 + ^ .cfa: $rsp 16 +
STACK CFI 49d9b .cfa: $rbp 16 +
STACK CFI 49d9c .cfa: $rsp 8 +
STACK CFI INIT 49da0 8f .cfa: $rsp 8 + .ra: .cfa -8 + ^
STACK CFI 49da8 $rbp: .cfa -16 + ^ .cfa: $rsp 16 +
STACK CFI 49db2 .cfa: $rbp 16 +
STACK CFI 49dbb $r12: .cfa -24 + ^ $rbx: .cfa -32 + ^
STACK CFI 49e2e .cfa: $rsp 8 +
STACK CFI INIT 49e30 3d .cfa: $rsp 8 + .ra: .cfa -8 + ^
STACK CFI 49e31 $rbp: .cfa -16 + ^ .cfa: $rsp 16 +
STACK CFI 49e3a .cfa: $rbp 16 +
STACK CFI 49e58 .cfa: $rsp 8 +
STACK CFI 49e60 .cfa: $rbp 16 +
STACK CFI 49e6c .cfa: $rsp 8 +
STACK CFI INIT 49e70 39 .cfa: $rsp 8 + .ra: .cfa -8 + ^
STACK CFI 49e74 $rbp: .cfa -16 + ^ .cfa: $rsp 16 +
STACK CFI 49e7a .cfa: $rbp 16 +
STACK CFI 49e97 .cfa: $rsp 8 +
STACK CFI 49ea0 .cfa: $rbp 16 +
STACK CFI INIT 49eb0 2b .cfa: $rsp 8 + .ra: .cfa -8 + ^
STACK CFI 49eb1 $rbp: .cfa -16 + ^ .cfa: $rsp 16 +
STACK CFI 49eb9 .cfa: $rbp 16 +
STACK CFI 49eda .cfa: $rsp 8 +
STACK CFI INIT 49ee0 1e .cfa: $rsp 8 + .ra: .cfa -8 + ^
STACK CFI 49ee1 $rbp: .cfa -16 + ^ .cfa: $rsp 16 +
STACK CFI 49ee9 .cfa: $rbp 16 +
STACK CFI 49efd .cfa: $rsp 8 +
STACK CFI INIT 49f00 42 .cfa: $rsp 8 + .ra: .cfa -8 + ^
STACK CFI 49f01 $rbp: .cfa -16 + ^ .cfa: $rsp 16 +
STACK CFI 49f06 .cfa: $rbp 16 +
STACK CFI 49f0b $r13: .cfa -24 + ^
STACK CFI 49f10 $r12: .cfa -32 + ^
STACK CFI 49f14 $rbx: .cfa -40 + ^
STACK CFI 49f41 .cfa: $rsp 8 +
STACK CFI INIT 49f50 53 .cfa: $rsp 8 + .ra: .cfa -8 + ^
STACK CFI 49f51 $rbp: .cfa -16 + ^ .cfa: $rsp 16 +
STACK CFI 49f54 .cfa: $rbp 16 +
STACK CFI 49f5f $r12: .cfa -24 + ^ $rbx: .cfa -32 + ^
STACK CFI 49f8b .cfa: $rsp 8 +
STACK CFI 49f98 .cfa: $rbp 16 +
STACK CFI 49fa2 .cfa: $rsp 8 +
STACK CFI INIT 49fb0 57 .cfa: $rsp 8 + .ra: .cfa -8 + ^
STACK CFI 49fb1 $rbp: .cfa -16 + ^ .cfa: $rsp 16 +
STACK CFI 49fb7 .cfa: $rbp 16 +
STACK CFI 49fbd $r12: .cfa -24 + ^ $rbx: .cfa -32 + ^
STACK CFI 49fe0 .cfa: $rsp 8 +
STACK CFI 49fe8 .cfa: $rbp 16 +
STACK CFI INIT 4a010 5e .cfa: $rsp 8 + .ra: .cfa -8 + ^
STACK CFI 4a015 $rbp: .cfa -16 + ^ .cfa: $rsp 16 +
STACK CFI 4a018 .cfa: $rbp 16 +
STACK CFI 4a062 .cfa: $rsp 8 +
STACK CFI 4a068 .cfa: $rbp 16 +
STACK CFI 4a06d .cfa: $rsp 8 +
STACK CFI INIT 4a070 121 .cfa: $rsp 8 + .ra: .cfa -8 + ^
STACK CFI 4a071 $rbp: .cfa -16 + ^ .cfa: $rsp 16 +
STACK CFI 4a078 .cfa: $rbp 16 +
STACK CFI 4a07e $r12: .cfa -24 + ^ $rbx: .cfa -32 + ^
STACK CFI 4a0d4 .cfa: $rsp 8 +
STACK CFI 4a0d8 .cfa: $rbp 16 +
STACK CFI 4a140 .cfa: $rsp 8 +
STACK CFI 4a148 .cfa: $rbp 16 +
STACK CFI INIT 4a1a0 138 .cfa: $rsp 8 + .ra: .cfa -8 + ^
STACK CFI 4a1a1 $rbp: .cfa -16 + ^ .cfa: $rsp 16 +
STACK CFI 4a1a4 .cfa: $rbp 16 +
STACK CFI 4a1ab $r13: .cfa -32 + ^ $r14: .cfa -24 + ^
STACK CFI 4a1b0 $r12: .cfa -40 + ^
STACK CFI 4a1b8 $rbx: .cfa -48 + ^
STACK CFI 4a20d .cfa: $rsp 8 +
STACK CFI 4a210 .cfa: $rbp 16 +
STACK CFI INIT 4a2e0 49 .cfa: $rsp 8 + .ra: .cfa -8 + ^
STACK CFI 4a2e1 $rbp: .cfa -16 + ^ .cfa: $rsp 16 +
STACK CFI 4a2e4 .cfa: $rbp 16 +
STACK CFI 4a2ef $r12: .cfa -32 + ^ $rbx: .cfa -40 + ^
STACK CFI 4a2fd $r13: .cfa -24 + ^
STACK CFI 4a328 .cfa: $rsp 8 +
STACK CFI INIT 4a330 4f .cfa: $rsp 8 + .ra: .cfa -8 + ^
STACK CFI 4a331 $rbp: .cfa -16 + ^ .cfa: $rsp 16 +
STACK CFI 4a334 .cfa: $rbp 16 +
STACK CFI 4a33b $r13: .cfa -24 + ^
STACK CFI 4a34e $r12: .cfa -32 + ^ $rbx: .cfa -40 + ^
STACK CFI 4a37e .cfa: $rsp 8 +
STACK CFI INIT 4a380 36 .cfa: $rsp 8 + .ra: .cfa -8 + ^
STACK CFI 4a381 $rbp: .cfa -16 + ^ .cfa: $rsp 16 +
STACK CFI 4a384 .cfa: $rbp 16 +
STACK CFI 4a38f $r12: .cfa -24 + ^ $rbx: .cfa -32 + ^
STACK CFI 4a3ae .cfa: $rsp 8 +
STACK CFI INIT 4a3c0 146 .cfa: $rsp 8 + .ra: .cfa -8 + ^
STACK CFI 4a3c1 $rbp: .cfa -16 + ^ .cfa: $rsp 16 +
STACK CFI 4a3c4 .cfa: $rbp 16 +
STACK CFI 4a4d8 .cfa: $rsp 8 +
STACK CFI 4a4e0 .cfa: $rbp 16 +
STACK CFI INIT 4a510 cd .cfa: $rsp 8 + .ra: .cfa -8 + ^
STACK CFI 4a511 $rbp: .cfa -16 + ^ .cfa: $rsp 16 +
STACK CFI 4a51b .cfa: $rbp 16 +
STACK CFI 4a520 $r14: .cfa -24 + ^
STACK CFI 4a528 $r12: .cfa -40 + ^ $r13: .cfa -32 + ^ $rbx: .cfa -48 + ^
STACK CFI 4a59d .cfa: $rsp 8 +
STACK CFI 4a5a0 .cfa: $rbp 16 +
STACK CFI 4a5b0 .cfa: $rsp 8 +
STACK CFI 4a5b8 .cfa: $rbp 16 +
STACK CFI 4a5dc .cfa: $rsp 8 +
STACK CFI INIT 4a5e0 a3 .cfa: $rsp 8 + .ra: .cfa -8 + ^
STACK CFI 4a5e1 $rbp: .cfa -16 + ^ .cfa: $rsp 16 +
STACK CFI 4a5e8 .cfa: $rbp 16 +
STACK CFI 4a5fa $r12: .cfa -24 + ^ $rbx: .cfa -32 + ^
STACK CFI 4a642 .cfa: $rsp 8 +
STACK CFI 4a648 .cfa: $rbp 16 +
STACK CFI 4a682 .cfa: $rsp 8 +
STACK CFI INIT 4a690 7c .cfa: $rsp 8 + .ra: .cfa -8 + ^
STACK CFI 4a691 $rbp: .cfa -16 + ^ .cfa: $rsp 16 +
STACK CFI 4a6a7 .cfa: $rbp 16 +
STACK CFI 4a6b3 $rbx: .cfa -24 + ^
STACK CFI 4a70a .cfa: $rsp 8 +
STACK CFI INIT 4a710 1fb .cfa: $rsp 8 + .ra: .cfa -8 + ^
STACK CFI 4a711 $rbp: .cfa -16 + ^ .cfa: $rsp 16 +
STACK CFI 4a714 .cfa: $rbp 16 +
STACK CFI 4a71f $r12: .cfa -40 + ^ $rbx: .cfa -48 + ^
STACK CFI 4a742 $r13: .cfa -32 + ^ $r14: .cfa -24 + ^
STACK CFI 4a7a3 .cfa: $rsp 8 +
STACK CFI 4a7a8 .cfa: $rbp 16 +
STACK CFI INIT 4a910 1a4 .cfa: $rsp 8 + .ra: .cfa -8 + ^
STACK CFI 4a911 $rbp: .cfa -16 + ^ .cfa: $rsp 16 +
STACK CFI 4a914 .cfa: $rbp 16 +
STACK CFI 4a927 $r12: .cfa -24 + ^ $rbx: .cfa -32 + ^
STACK CFI 4a931 .cfa: $rsp 8 +
STACK CFI 4a938 .cfa: $rbp 16 +
STACK CFI 4aab3 .cfa: $rsp 8 +
STACK CFI INIT 4aac0 79 .cfa: $rsp 8 + .ra: .cfa -8 + ^
STACK CFI 4aac1 $rbp: .cfa -16 + ^ .cfa: $rsp 16 +
STACK CFI 4aac4 .cfa: $rbp 16 +
STACK CFI 4aacf $r12: .cfa -32 + ^ $rbx: .cfa -40 + ^
STACK CFI 4aae2 $r13: .cfa -24 + ^
STACK CFI 4ab1a .cfa: $rsp 8 +
STACK CFI 4ab20 .cfa: $rbp 16 +
STACK CFI INIT 4ab40 20 .cfa: $rsp 8 + .ra: .cfa -8 + ^
STACK CFI 4ab41 $rbp: .cfa -16 + ^ .cfa: $rsp 16 +
STACK CFI 4ab49 .cfa: $rbp 16 +
STACK CFI 4ab4d $rbx: .cfa -24 + ^
STACK CFI 4ab5f .cfa: $rsp 8 +
STACK CFI INIT 4ab60 380 .cfa: $rsp 8 + .ra: .cfa -8 + ^
STACK CFI 4ab61 $rbp: .cfa -16 + ^ .cfa: $rsp 16 +
STACK CFI 4ab67 .cfa: $rbp 16 +
STACK CFI 4ab76 $r14: .cfa -32 + ^ $r15: .cfa -24 + ^
STACK CFI 4ab82 $r13: .cfa -40 + ^
STACK CFI 4ab87 $r12: .cfa -48 + ^
STACK CFI 4abae $rbx: .cfa -56 + ^
STACK CFI 4ad05 .cfa: $rsp 8 +
STACK CFI 4ad10 .cfa: $rbp 16 +
STACK CFI INIT 4aee0 9b .cfa: $rsp 8 + .ra: .cfa -8 + ^
STACK CFI 4aee1 $rbp: .cfa -16 + ^ .cfa: $rsp 16 +
STACK CFI 4aee4 .cfa: $rbp 16 +
STACK CFI 4aee9 $r12: .cfa -24 + ^
STACK CFI 4aef1 $rbx: .cfa -32 + ^
STACK CFI 4af7a .cfa: $rsp 8 +
STACK CFI INIT 4af80 180 .cfa: $rsp 8 + .ra: .cfa -8 + ^
STACK CFI 4af81 $rbp: .cfa -16 + ^ .cfa: $rsp 16 +
STACK CFI 4af84 .cfa: $rbp 16 +
STACK CFI 4af8f $rbx: .cfa -56 + ^
STACK CFI 4af9e $r12: .cfa -48 + ^ $r13: .cfa -40 + ^ $r14: .cfa -32 + ^
STACK CFI 4afaf $r15: .cfa -24 + ^
STACK CFI 4afe0 .cfa: $rsp 8 +
STACK CFI 4afe8 .cfa: $rbp 16 +
STACK CFI INIT 4b100 a1 .cfa: $rsp 8 + .ra: .cfa -8 + ^
STACK CFI 4b101 $rbp: .cfa -16 + ^ .cfa: $rsp 16 +
STACK CFI 4b104 .cfa: $rbp 16 +
STACK CFI 4b10f $rbx: .cfa -56 + ^
STACK CFI 4b11e $r12: .cfa -48 + ^ $r13: .cfa -40 + ^
STACK CFI 4b133 $r14: .cfa -32 + ^ $r15: .cfa -24 + ^
STACK CFI 4b184 .cfa: $rsp 8 +
STACK CFI 4b188 .cfa: $rbp 16 +
STACK CFI INIT 4b1b0 24d .cfa: $rsp 8 + .ra: .cfa -8 + ^
STACK CFI 4b1b1 $rbp: .cfa -16 + ^ .cfa: $rsp 16 +
STACK CFI 4b1b4 .cfa: $rbp 16 +
STACK CFI 4b1bf $r13: .cfa -40 + ^
STACK CFI 4b1ce $r12: .cfa -48 + ^ $r14: .cfa -32 + ^ $rbx: .cfa -56 + ^
STACK CFI 4b1d9 $r15: .cfa -24 + ^
STACK CFI 4b355 .cfa: $rsp 8 +
STACK CFI 4b360 .cfa: $rbp 16 +
STACK CFI INIT 4b400 6b .cfa: $rsp 8 + .ra: .cfa -8 + ^
STACK CFI 4b401 $rbp: .cfa -16 + ^ .cfa: $rsp 16 +
STACK CFI 4b404 .cfa: $rbp 16 +
STACK CFI 4b410 $rbx: .cfa -24 + ^
STACK CFI 4b435 .cfa: $rsp 8 +
STACK CFI 4b440 .cfa: $rbp 16 +
STACK CFI 4b46a .cfa: $rsp 8 +
STACK CFI INIT 4b470 11 .cfa: $rsp 8 + .ra: .cfa -8 + ^
STACK CFI 4b478 $rbp: .cfa -16 + ^ .cfa: $rsp 16 +
STACK CFI 4b47b .cfa: $rbp 16 +
STACK CFI 4b47f .cfa: $rsp 8 +
STACK CFI INIT 4b490 48 .cfa: $rsp 8 + .ra: .cfa -8 + ^
STACK CFI 4b491 $rbp: .cfa -16 + ^ .cfa: $rsp 16 +
STACK CFI 4b494 .cfa: $rbp 16 +
STACK CFI 4b4a5 $rbx: .cfa -24 + ^
STACK CFI 4b4d7 .cfa: $rsp 8 +
STACK CFI INIT 4b4e0 69 .cfa: $rsp 8 + .ra: .cfa -8 + ^
STACK CFI 4b4e1 $rbp: .cfa -16 + ^ .cfa: $rsp 16 +
STACK CFI 4b4e4 .cfa: $rbp 16 +
STACK CFI 4b4f0 $rbx: .cfa -24 + ^
STACK CFI 4b539 .cfa: $rsp 8 +
STACK CFI 4b540 .cfa: $rbp 16 +
STACK CFI 4b548 .cfa: $rsp 8 +
STACK CFI INIT 4b550 a9 .cfa: $rsp 8 + .ra: .cfa -8 + ^
STACK CFI 4b551 $rbp: .cfa -16 + ^ .cfa: $rsp 16 +
STACK CFI 4b554 .cfa: $rbp 16 +
STACK CFI 4b559 $r13: .cfa -24 + ^
STACK CFI 4b55e $r12: .cfa -32 + ^
STACK CFI 4b566 $rbx: .cfa -40 + ^
STACK CFI 4b5c6 .cfa: $rsp 8 +
STACK CFI 4b5c7 .cfa: $rbp 16 +
STACK CFI 4b5ef .cfa: $rsp 8 +
STACK CFI 4b5f0 .cfa: $rbp 16 +
STACK CFI INIT 4b600 54 .cfa: $rsp 8 + .ra: .cfa -8 + ^
STACK CFI 4b601 $rbp: .cfa -16 + ^ .cfa: $rsp 16 +
STACK CFI 4b604 .cfa: $rbp 16 +
STACK CFI 4b60f $rbx: .cfa -40 + ^
STACK CFI 4b61a $r12: .cfa -32 + ^ $r13: .cfa -24 + ^
STACK CFI 4b653 .cfa: $rsp 8 +
STACK CFI INIT 4b660 cd .cfa: $rsp 8 + .ra: .cfa -8 + ^
STACK CFI 4b661 $rbp: .cfa -16 + ^ .cfa: $rsp 16 +
STACK CFI 4b667 .cfa: $rbp 16 +
STACK CFI 4b66f $rbx: .cfa -24 + ^
STACK CFI 4b72c .cfa: $rsp 8 +
STACK CFI INIT 4b730 df .cfa: $rsp 8 + .ra: .cfa -8 + ^
STACK CFI 4b731 $rbp: .cfa -16 + ^ .cfa: $rsp 16 +
STACK CFI 4b737 .cfa: $rbp 16 +
STACK CFI 4b746 $r12: .cfa -32 + ^ $rbx: .cfa -40 + ^
STACK CFI 4b778 $r13: .cfa -24 + ^
STACK CFI 4b80e .cfa: $rsp 8 +
STACK CFI INIT 4b810 10f .cfa: $rsp 8 + .ra: .cfa -8 + ^
STACK CFI 4b811 $rbp: .cfa -16 + ^ .cfa: $rsp 16 +
STACK CFI 4b817 .cfa: $rbp 16 +
STACK CFI 4b821 $r13: .cfa -24 + ^ $rbx: .cfa -40 + ^
STACK CFI 4b883 $r12: .cfa -32 + ^
STACK CFI 4b8fd .cfa: $rsp 8 +
STACK CFI 4b900 .cfa: $rbp 16 +
STACK CFI INIT 4b920 89 .cfa: $rsp 8 + .ra: .cfa -8 + ^
STACK CFI 4b921 $rbp: .cfa -16 + ^ .cfa: $rsp 16 +
STACK CFI 4b924 .cfa: $rbp 16 +
STACK CFI 4b929 $r12: .cfa -24 + ^
STACK CFI 4b92d $rbx: .cfa -32 + ^
STACK CFI 4b980 .cfa: $rsp 8 +
STACK CFI 4b988 .cfa: $rbp 16 +
STACK CFI INIT 4b9b0 29 .cfa: $rsp 8 + .ra: .cfa -8 + ^
STACK CFI 4b9b3 $rbp: .cfa -16 + ^ .cfa: $rsp 16 +
STACK CFI 4b9b6 .cfa: $rbp 16 +
STACK CFI 4b9c8 .cfa: $rsp 8 +
STACK CFI 4b9d0 .cfa: $rbp 16 +
STACK CFI 4b9d8 .cfa: $rsp 8 +
STACK CFI INIT 4b9e0 145 .cfa: $rsp 8 + .ra: .cfa -8 + ^
STACK CFI 4b9e1 $rbp: .cfa -16 + ^ .cfa: $rsp 16 +
STACK CFI 4b9e4 .cfa: $rbp 16 +
STACK CFI 4b9ef $r14: .cfa -32 + ^ $rbx: .cfa -56 + ^
STACK CFI 4ba07 $r12: .cfa -48 + ^ $r13: .cfa -40 + ^ $r15: .cfa -24 + ^
STACK CFI 4ba22 .cfa: $rsp 8 +
STACK CFI 4ba28 .cfa: $rbp 16 +
STACK CFI INIT 4bb30 3c .cfa: $rsp 8 + .ra: .cfa -8 + ^
STACK CFI 4bb31 $rbp: .cfa -16 + ^ .cfa: $rsp 16 +
STACK CFI 4bb34 .cfa: $rbp 16 +
STACK CFI 4bb38 $rbx: .cfa -24 + ^
STACK CFI 4bb49 .cfa: $rsp 8 +
STACK CFI 4bb50 .cfa: $rbp 16 +
STACK CFI 4bb67 .cfa: $rsp 8 +
STACK CFI INIT 4bb70 21c .cfa: $rsp 8 + .ra: .cfa -8 + ^
STACK CFI 4bb71 $rbp: .cfa -16 + ^ .cfa: $rsp 16 +
STACK CFI 4bb74 .cfa: $rbp 16 +
STACK CFI 4bb80 $r12: .cfa -48 + ^ $r13: .cfa -40 + ^ $r14: .cfa -32 + ^ $r15: .cfa -24 + ^ $rbx: .cfa -56 + ^
STACK CFI 4bc85 .cfa: $rsp 8 +
STACK CFI 4bc90 .cfa: $rbp 16 +
STACK CFI 4bcc5 .cfa: $rsp 8 +
STACK CFI 4bcd0 .cfa: $rbp 16 +
STACK CFI INIT 4bd90 1bf .cfa: $rsp 8 + .ra: .cfa -8 + ^
STACK CFI 4bd91 $rbp: .cfa -16 + ^ .cfa: $rsp 16 +
STACK CFI 4bd97 .cfa: $rbp 16 +
STACK CFI 4bda0 $r15: .cfa -24 + ^
STACK CFI 4bda5 $r14: .cfa -32 + ^
STACK CFI 4bdad $r12: .cfa -48 + ^ $r13: .cfa -40 + ^
STACK CFI 4bdd5 $rbx: .cfa -56 + ^
STACK CFI 4bf26 .cfa: $rsp 8 +
STACK CFI 4bf30 .cfa: $rbp 16 +
STACK CFI INIT 4bf50 e2 .cfa: $rsp 8 + .ra: .cfa -8 + ^
STACK CFI 4bf51 $rbp: .cfa -16 + ^ .cfa: $rsp 16 +
STACK CFI 4bf54 .cfa: $rbp 16 +
STACK CFI 4bf5b $r14: .cfa -32 + ^ $r15: .cfa -24 + ^
STACK CFI 4bf60 $r13: .cfa -40 + ^
STACK CFI 4bf69 $r12: .cfa -48 + ^ $rbx: .cfa -56 + ^
STACK CFI 4c024 .cfa: $rsp 8 +
STACK CFI 4c025 .cfa: $rbp 16 +
STACK CFI INIT 4c040 e2 .cfa: $rsp 8 + .ra: .cfa -8 + ^
STACK CFI 4c041 $rbp: .cfa -16 + ^ .cfa: $rsp 16 +
STACK CFI 4c044 .cfa: $rbp 16 +
STACK CFI 4c04f $r12: .cfa -40 + ^ $rbx: .cfa -48 + ^
STACK CFI 4c060 $r13: .cfa -32 + ^ $r14: .cfa -24 + ^
STACK CFI 4c080 .cfa: $rsp 8 +
STACK CFI 4c081 .cfa: $rbp 16 +
STACK CFI INIT 4c130 33 .cfa: $rsp 8 + .ra: .cfa -8 + ^
STACK CFI 4c131 $rbp: .cfa -16 + ^ .cfa: $rsp 16 +
STACK CFI 4c134 .cfa: $rbp 16 +
STACK CFI 4c162 .cfa: $rsp 8 +
STACK CFI INIT 4c170 6a .cfa: $rsp 8 + .ra: .cfa -8 + ^
STACK CFI 4c171 $rbp: .cfa -16 + ^ .cfa: $rsp 16 +
STACK CFI 4c174 .cfa: $rbp 16 +
STACK CFI 4c17b $r12: .cfa -32 + ^ $r13: .cfa -24 + ^
STACK CFI 4c189 $rbx: .cfa -40 + ^
STACK CFI 4c1d9 .cfa: $rsp 8 +
STACK CFI INIT 4c1e0 14 .cfa: $rsp 8 + .ra: .cfa -8 + ^
