MODULE Linux x86_64 990D31ACB6EBDAAAE24E8A581DDE0ECD0 IEC103_SFIEC103
FUNC 133f4 1b0 0 main
FUNC 135a4 1c4 0 __static_initialization_and_destruction_0
FUNC 13768 15 0 _GLOBAL__I_IEC103.cpp
FUNC 1377e 1c 0 std::exception::exception
FUNC 1379a 2c 0 std::bad_exception::bad_exception
FUNC 137c6 2c 0 std::bad_alloc::bad_alloc
FUNC 137f2 29 0 Config::setChannelName
FUNC 1381c 19 0 boost::error_info<boost::throw_function_, const char*>::error_info
FUNC 13836 19 0 boost::error_info<boost::throw_file_, const char*>::error_info
FUNC 13850 16 0 boost::error_info<boost::throw_line_, int>::error_info
FUNC 13866 53 0 boost::exception::exception
FUNC 138ba 5d 0 boost::exception::~exception
FUNC 13918 26 0 boost::exception::~exception
FUNC 1393e 35 0 boost::exception_detail::clone_base::~clone_base
FUNC 13974 26 0 boost::exception_detail::clone_base::~clone_base
FUNC 1399a 10d 0 boost::exception_detail::copy_boost_exception
FUNC 13aa7 22 0 boost::detail::atomic_exchange_and_add
FUNC 13ac9 15 0 boost::detail::atomic_increment
FUNC 13ade 32 0 boost::detail::sp_counted_base::sp_counted_base
FUNC 13b10 35 0 boost::detail::sp_counted_base::~sp_counted_base
FUNC 13b46 26 0 boost::detail::sp_counted_base::~sp_counted_base
FUNC 13b6c 2c 0 boost::detail::sp_counted_base::destroy
FUNC 13b98 1e 0 boost::detail::sp_counted_base::add_ref_copy
FUNC 13bb6 50 0 boost::detail::sp_counted_base::release
FUNC 13c06 44 0 boost::detail::sp_counted_base::weak_release
FUNC 13c4a 29 0 boost::detail::shared_count::~shared_count
FUNC 13c74 3b 0 boost::detail::shared_count::shared_count
FUNC 13caf 6 0 boost::detail::sp_enable_shared_from_this
FUNC 13cb6 1e 0 boost::shared_ptr<const boost::exception_detail::clone_base>::~shared_ptr
FUNC 13cd4 3b 0 boost::shared_ptr<const boost::exception_detail::clone_base>::shared_ptr
FUNC 13d10 25 0 boost::exception_ptr::exception_ptr
FUNC 13d36 7c 0 boost::exception_detail::bad_alloc_::~bad_alloc_
FUNC 13dc2 26 0 boost::exception_detail::bad_alloc_::~bad_alloc_
FUNC 13de8 7c 0 boost::exception_detail::bad_exception_::~bad_exception_
FUNC 13e74 26 0 boost::exception_detail::bad_exception_::~bad_exception_
FUNC 13e9a 6d 0 boost::exception::exception
FUNC 13f08 1a 0 boost::exception_ptr::~exception_ptr
FUNC 13f22 25 0 boost::exception_ptr::exception_ptr
FUNC 13f48 15 0 boost::exception_detail::refcount_ptr<boost::exception_detail::error_info_container>::refcount_ptr
FUNC 13f5e 1a 0 boost::exception_detail::refcount_ptr<boost::exception_detail::error_info_container>::~refcount_ptr
FUNC 13f78 11 0 boost::exception_detail::refcount_ptr<boost::exception_detail::error_info_container>::get
FUNC 13f8a 2c 0 boost::exception_detail::refcount_ptr<boost::exception_detail::error_info_container>::operator=
FUNC 13fb6 20 0 std::exception::exception
FUNC 13fd6 20 0 boost::exception_detail::clone_base::clone_base
FUNC 13ff6 a 0 boost::arg<1>::arg
FUNC 14000 a 0 boost::arg<2>::arg
FUNC 1400a a 0 boost::arg<3>::arg
FUNC 14014 a 0 boost::arg<4>::arg
FUNC 1401e a 0 boost::arg<5>::arg
FUNC 14028 a 0 boost::arg<6>::arg
FUNC 14032 a 0 boost::arg<7>::arg
FUNC 1403c a 0 boost::arg<8>::arg
FUNC 14046 a 0 boost::arg<9>::arg
FUNC 14050 35 0 boost::exception_detail::refcount_ptr<boost::exception_detail::error_info_container>::adopt
FUNC 14086 2c 0 boost::exception_detail::refcount_ptr<boost::exception_detail::error_info_container>::refcount_ptr
FUNC 140b2 4f 0 boost::exception_detail::bad_alloc_::bad_alloc_
FUNC 14102 37 0 std::bad_alloc::bad_alloc
FUNC 1413a 65 0 boost::exception_detail::bad_alloc_::bad_alloc_
FUNC 141a0 78 0 boost::exception_detail::clone_impl<boost::exception_detail::bad_alloc_>::clone_impl
FUNC 14218 228 0 boost::exception_detail::get_static_exception_object<boost::exception_detail::bad_alloc_>
FUNC 14440 4f 0 boost::exception_detail::bad_exception_::bad_exception_
FUNC 14490 37 0 std::bad_exception::bad_exception
FUNC 144c8 65 0 boost::exception_detail::bad_exception_::bad_exception_
FUNC 1452e 78 0 boost::exception_detail::clone_impl<boost::exception_detail::bad_exception_>::clone_impl
FUNC 145a6 228 0 boost::exception_detail::get_static_exception_object<boost::exception_detail::bad_exception_>
FUNC 147ce 56 0 boost::exception_detail::refcount_ptr<boost::exception_detail::error_info_container>::release
FUNC 14824 37 0 boost::exception_detail::refcount_ptr<boost::exception_detail::error_info_container>::add_ref
FUNC 1485c 1c 0 boost::exception_detail::clone_base::clone_base
FUNC 14878 c6 0 boost::exception_detail::clone_impl<boost::exception_detail::bad_alloc_>::clone_impl
FUNC 1493e 8f 0 boost::exception_detail::clone_impl<boost::exception_detail::bad_alloc_>::~clone_impl
FUNC 149ec 26 0 boost::exception_detail::clone_impl<boost::exception_detail::bad_alloc_>::~clone_impl
FUNC 14a12 25 0 boost::operator<< <boost::exception_detail::clone_impl<boost::exception_detail::bad_alloc_>, boost::throw_function_, const char*>
FUNC 14a37 25 0 boost::operator<< <boost::exception_detail::clone_impl<boost::exception_detail::bad_alloc_>, boost::throw_file_, const char*>
FUNC 14a5c 25 0 boost::operator<< <boost::exception_detail::clone_impl<boost::exception_detail::bad_alloc_>, boost::throw_line_, int>
FUNC 14a82 62 0 boost::shared_ptr<const boost::exception_detail::clone_base>::shared_ptr<boost::exception_detail::clone_impl<boost::exception_detail::bad_alloc_> >
FUNC 14ae4 c6 0 boost::exception_detail::clone_impl<boost::exception_detail::bad_exception_>::clone_impl
FUNC 14baa 8f 0 boost::exception_detail::clone_impl<boost::exception_detail::bad_exception_>::~clone_impl
FUNC 14c58 26 0 boost::exception_detail::clone_impl<boost::exception_detail::bad_exception_>::~clone_impl
FUNC 14c7e 25 0 boost::operator<< <boost::exception_detail::clone_impl<boost::exception_detail::bad_exception_>, boost::throw_function_, const char*>
FUNC 14ca3 25 0 boost::operator<< <boost::exception_detail::clone_impl<boost::exception_detail::bad_exception_>, boost::throw_file_, const char*>
FUNC 14cc8 25 0 boost::operator<< <boost::exception_detail::clone_impl<boost::exception_detail::bad_exception_>, boost::throw_line_, int>
FUNC 14cee 62 0 boost::shared_ptr<const boost::exception_detail::clone_base>::shared_ptr<boost::exception_detail::clone_impl<boost::exception_detail::bad_exception_> >
FUNC 14d50 21 0 boost::exception_detail::set_info<boost::exception_detail::clone_impl<boost::exception_detail::bad_alloc_> >
FUNC 14d71 21 0 boost::exception_detail::set_info<boost::exception_detail::clone_impl<boost::exception_detail::bad_alloc_> >
FUNC 14d92 1f 0 boost::exception_detail::set_info<boost::exception_detail::clone_impl<boost::exception_detail::bad_alloc_> >
FUNC 14db2 a0 0 boost::detail::shared_count::shared_count<boost::exception_detail::clone_impl<boost::exception_detail::bad_alloc_> >
FUNC 14e52 21 0 boost::exception_detail::set_info<boost::exception_detail::clone_impl<boost::exception_detail::bad_exception_> >
FUNC 14e73 21 0 boost::exception_detail::set_info<boost::exception_detail::clone_impl<boost::exception_detail::bad_exception_> >
FUNC 14e94 1f 0 boost::exception_detail::set_info<boost::exception_detail::clone_impl<boost::exception_detail::bad_exception_> >
FUNC 14eb4 a0 0 boost::detail::shared_count::shared_count<boost::exception_detail::clone_impl<boost::exception_detail::bad_exception_> >
FUNC 14f54 3c 0 boost::detail::sp_counted_impl_p<boost::exception_detail::clone_impl<boost::exception_detail::bad_alloc_> >::sp_counted_impl_p
FUNC 14f90 2c 0 boost::checked_delete<boost::exception_detail::clone_impl<boost::exception_detail::bad_alloc_> >
FUNC 14fbc 3c 0 boost::detail::sp_counted_impl_p<boost::exception_detail::clone_impl<boost::exception_detail::bad_exception_> >::sp_counted_impl_p
FUNC 14ff8 2c 0 boost::checked_delete<boost::exception_detail::clone_impl<boost::exception_detail::bad_exception_> >
FUNC 15024 41 0 boost::detail::sp_counted_impl_p<boost::exception_detail::clone_impl<boost::exception_detail::bad_exception_> >::~sp_counted_impl_p
FUNC 15066 26 0 boost::detail::sp_counted_impl_p<boost::exception_detail::clone_impl<boost::exception_detail::bad_exception_> >::~sp_counted_impl_p
FUNC 1508c 41 0 boost::detail::sp_counted_impl_p<boost::exception_detail::clone_impl<boost::exception_detail::bad_alloc_> >::~sp_counted_impl_p
FUNC 150ce 26 0 boost::detail::sp_counted_impl_p<boost::exception_detail::clone_impl<boost::exception_detail::bad_alloc_> >::~sp_counted_impl_p
FUNC 150f4 1e 0 boost::detail::sp_counted_impl_p<boost::exception_detail::clone_impl<boost::exception_detail::bad_exception_> >::dispose
FUNC 15112 13 0 boost::detail::sp_counted_impl_p<boost::exception_detail::clone_impl<boost::exception_detail::bad_exception_> >::get_deleter
FUNC 15126 1e 0 boost::detail::sp_counted_impl_p<boost::exception_detail::clone_impl<boost::exception_detail::bad_alloc_> >::dispose
FUNC 15144 13 0 boost::detail::sp_counted_impl_p<boost::exception_detail::clone_impl<boost::exception_detail::bad_alloc_> >::get_deleter
FUNC 1515e 6c 0 boost::exception_detail::clone_impl<boost::exception_detail::bad_exception_>::clone
FUNC 151d0 5d 0 boost::exception_detail::clone_impl<boost::exception_detail::bad_exception_>::rethrow
FUNC 15234 6c 0 boost::exception_detail::clone_impl<boost::exception_detail::bad_alloc_>::clone
FUNC 152a6 5d 0 boost::exception_detail::clone_impl<boost::exception_detail::bad_alloc_>::rethrow
FUNC 15304 570 0 Config::Config
FUNC 15874 74 0 Config::GetInstance
FUNC 158e8 2a3 0 Config::~Config
FUNC 15b8c 26 0 Config::~Config
FUNC 15bb2 cbf 0 Config::Init
FUNC 16872 27 0 Config::IsSpace
FUNC 1689a 24 0 Config::IsCommentChar
FUNC 168be 173 0 Config::Trim
FUNC 16a32 21d 0 Config::AnalyseLine
FUNC 16c50 238 0 Config::ReadConfig
FUNC 16e88 ad 0 Config::GetStrValueByKey
FUNC 16f36 d03 0 Config::InitMysqlParams
FUNC 17c3a 134 0 Config::Split
FUNC 17d6e 48 0 __static_initialization_and_destruction_0
FUNC 17db6 15 0 _GLOBAL__I_Config.cpp
FUNC 17dcb 12 0 operator new
FUNC 17ddd e 0 operator delete
FUNC 17deb 14 0 std::operator|
FUNC 17e00 1a 0 std::map<std::basic_string<char, std::char_traits<char>, std::allocator<char> >, std::basic_string<char, std::char_traits<char>, std::allocator<char> >, std::less<std::basic_string<char, std::char_traits<char>, std::allocator<char> > >, std::allocator<std::pair<const std::basic_string<char, std::char_traits<char>, std::allocator<char> >, std::basic_string<char, std::char_traits<char>, std::allocator<char> > > > >::~map
FUNC 17e1a 1a 0 std::map<std::basic_string<char, std::char_traits<char>, std::allocator<char> >, std::basic_string<char, std::char_traits<char>, std::allocator<char> >, std::less<std::basic_string<char, std::char_traits<char>, std::allocator<char> > >, std::allocator<std::pair<const std::basic_string<char, std::char_traits<char>, std::allocator<char> >, std::basic_string<char, std::char_traits<char>, std::allocator<char> > > > >::map
FUNC 17e34 1a 0 std::_Rb_tree<std::basic_string<char, std::char_traits<char>, std::allocator<char> >, std::pair<const std::basic_string<char, std::char_traits<char>, std::allocator<char> >, std::basic_string<char, std::char_traits<char>, std::allocator<char> > >, std::_Select1st<std::pair<const std::basic_string<char, std::char_traits<char>, std::allocator<char> >, std::basic_string<char, std::char_traits<char>, std::allocator<char> > > >, std::less<std::basic_string<char, std::char_traits<char>, std::allocator<char> > >, std::allocator<std::pair<const std::basic_string<char, std::char_traits<char>, std::allocator<char> >, std::basic_string<char, std::char_traits<char>, std::allocator<char> > > > >::_Rb_tree_impl<std::less<std::basic_string<char, std::char_traits<char>, std::allocator<char> > >, false>::~_Rb_tree_impl
FUNC 17e4e 63 0 std::_Rb_tree<std::basic_string<char, std::char_traits<char>, std::allocator<char> >, std::pair<const std::basic_string<char, std::char_traits<char>, std::allocator<char> >, std::basic_string<char, std::char_traits<char>, std::allocator<char> > >, std::_Select1st<std::pair<const std::basic_string<char, std::char_traits<char>, std::allocator<char> >, std::basic_string<char, std::char_traits<char>, std::allocator<char> > > >, std::less<std::basic_string<char, std::char_traits<char>, std::allocator<char> > >, std::allocator<std::pair<const std::basic_string<char, std::char_traits<char>, std::allocator<char> >, std::basic_string<char, std::char_traits<char>, std::allocator<char> > > > >::~_Rb_tree
FUNC 17eb2 1a 0 std::vector<short unsigned int, std::allocator<short unsigned int> >::vector
FUNC 17ecc 6e 0 std::vector<short unsigned int, std::allocator<short unsigned int> >::~vector
FUNC 17f3a 1a 0 std::vector<std::basic_string<char, std::char_traits<char>, std::allocator<char> >, std::allocator<std::basic_string<char, std::char_traits<char>, std::allocator<char> > > >::vector
FUNC 17f54 6e 0 std::vector<std::basic_string<char, std::char_traits<char>, std::allocator<char> >, std::allocator<std::basic_string<char, std::char_traits<char>, std::allocator<char> > > >::~vector
FUNC 17fc2 24 0 std::vector<short unsigned int, std::allocator<short unsigned int> >::clear
FUNC 17fe6 24 0 std::vector<std::basic_string<char, std::char_traits<char>, std::allocator<char> >, std::allocator<std::basic_string<char, std::char_traits<char>, std::allocator<char> > > >::clear
FUNC 1800a 16d 0 Config::GetValueByKey<int32_t>
FUNC 18178 16d 0 Config::GetValueByKey<uint16_t>
FUNC 182e6 1a 0 std::map<std::basic_string<char, std::char_traits<char>, std::allocator<char> >, std::basic_string<char, std::char_traits<char>, std::allocator<char> >, std::less<std::basic_string<char, std::char_traits<char>, std::allocator<char> > >, std::allocator<std::pair<const std::basic_string<char, std::char_traits<char>, std::allocator<char> >, std::basic_string<char, std::char_traits<char>, std::allocator<char> > > > >::clear
FUNC 18300 55 0 std::pair<const std::basic_string<char, std::char_traits<char>, std::allocator<char> >, std::basic_string<char, std::char_traits<char>, std::allocator<char> > >::~pair
FUNC 18356 146 0 std::map<std::basic_string<char, std::char_traits<char>, std::allocator<char> >, std::basic_string<char, std::char_traits<char>, std::allocator<char> >, std::less<std::basic_string<char, std::char_traits<char>, std::allocator<char> > >, std::allocator<std::pair<const std::basic_string<char, std::char_traits<char>, std::allocator<char> >, std::basic_string<char, std::char_traits<char>, std::allocator<char> > > > >::operator[]
FUNC 1849c 25 0 std::map<std::basic_string<char, std::char_traits<char>, std::allocator<char> >, std::basic_string<char, std::char_traits<char>, std::allocator<char> >, std::less<std::basic_string<char, std::char_traits<char>, std::allocator<char> > >, std::allocator<std::pair<const std::basic_string<char, std::char_traits<char>, std::allocator<char> >, std::basic_string<char, std::char_traits<char>, std::allocator<char> > > > >::find
FUNC 184c2 1c 0 std::_Rb_tree_const_iterator<std::pair<const std::basic_string<char, std::char_traits<char>, std::allocator<char> >, std::basic_string<char, std::char_traits<char>, std::allocator<char> > > >::_Rb_tree_const_iterator
FUNC 184de 1a 0 std::map<std::basic_string<char, std::char_traits<char>, std::allocator<char> >, std::basic_string<char, std::char_traits<char>, std::allocator<char> >, std::less<std::basic_string<char, std::char_traits<char>, std::allocator<char> > >, std::allocator<std::pair<const std::basic_string<char, std::char_traits<char>, std::allocator<char> >, std::basic_string<char, std::char_traits<char>, std::allocator<char> > > > >::end
FUNC 184f8 22 0 std::_Rb_tree_const_iterator<std::pair<const std::basic_string<char, std::char_traits<char>, std::allocator<char> >, std::basic_string<char, std::char_traits<char>, std::allocator<char> > > >::operator!=
FUNC 1851a 15 0 std::_Rb_tree_const_iterator<std::pair<const std::basic_string<char, std::char_traits<char>, std::allocator<char> >, std::basic_string<char, std::char_traits<char>, std::allocator<char> > > >::operator->
FUNC 18530 20 0 std::vector<std::basic_string<char, std::char_traits<char>, std::allocator<char> >, std::allocator<std::basic_string<char, std::char_traits<char>, std::allocator<char> > > >::operator[]
FUNC 18550 f3 0 Config::String2Int<uint16_t>
FUNC 18644 25 0 std::vector<std::basic_string<char, std::char_traits<char>, std::allocator<char> >, std::allocator<std::basic_string<char, std::char_traits<char>, std::allocator<char> > > >::begin
FUNC 1866a 28 0 __gnu_cxx::__normal_iterator<const std::basic_string<char, std::char_traits<char>, std::allocator<char> >*, std::vector<std::basic_string<char, std::char_traits<char>, std::allocator<char> >, std::allocator<std::basic_string<char, std::char_traits<char>, std::allocator<char> > > > >::__normal_iterator<std::basic_string<char, std::char_traits<char>, std::allocator<char> >*>
FUNC 18692 29 0 std::vector<std::basic_string<char, std::char_traits<char>, std::allocator<char> >, std::allocator<std::basic_string<char, std::char_traits<char>, std::allocator<char> > > >::end
FUNC 186bb 3c 0 __gnu_cxx::operator!=<const std::basic_string<char, std::char_traits<char>, std::allocator<char> >*, std::basic_string<char, std::char_traits<char>, std::allocator<char> >*, std::vector<std::basic_string<char, std::char_traits<char>, std::allocator<char> >, std::allocator<std::basic_string<char, std::char_traits<char>, std::allocator<char> > > > >
FUNC 186f8 20 0 __gnu_cxx::__normal_iterator<const std::basic_string<char, std::char_traits<char>, std::allocator<char> >*, std::vector<std::basic_string<char, std::char_traits<char>, std::allocator<char> >, std::allocator<std::basic_string<char, std::char_traits<char>, std::allocator<char> > > > >::operator++
FUNC 18718 11 0 __gnu_cxx::__normal_iterator<const std::basic_string<char, std::char_traits<char>, std::allocator<char> >*, std::vector<std::basic_string<char, std::char_traits<char>, std::allocator<char> >, std::allocator<std::basic_string<char, std::char_traits<char>, std::allocator<char> > > > >::operator*
FUNC 1872a 7a 0 std::vector<short unsigned int, std::allocator<short unsigned int> >::push_back
FUNC 187a4 41 0 std::vector<short unsigned int, std::allocator<short unsigned int> >::empty
FUNC 187e6 1f 0 std::vector<short unsigned int, std::allocator<short unsigned int> >::operator[]
FUNC 18806 f3 0 Config::String2Int<int32_t>
FUNC 188fa 242 0 std::vector<std::basic_string<char, std::char_traits<char>, std::allocator<char> >, std::allocator<std::basic_string<char, std::char_traits<char>, std::allocator<char> > > >::operator=
FUNC 18b3c 29 0 std::vector<std::basic_string<char, std::char_traits<char>, std::allocator<char> >, std::allocator<std::basic_string<char, std::char_traits<char>, std::allocator<char> > > >::size
FUNC 18b66 7a 0 std::vector<std::basic_string<char, std::char_traits<char>, std::allocator<char> >, std::allocator<std::basic_string<char, std::char_traits<char>, std::allocator<char> > > >::push_back
FUNC 18be0 1a 0 std::_Rb_tree<std::basic_string<char, std::char_traits<char>, std::allocator<char> >, std::pair<const std::basic_string<char, std::char_traits<char>, std::allocator<char> >, std::basic_string<char, std::char_traits<char>, std::allocator<char> > >, std::_Select1st<std::pair<const std::basic_string<char, std::char_traits<char>, std::allocator<char> >, std::basic_string<char, std::char_traits<char>, std::allocator<char> > > >, std::less<std::basic_string<char, std::char_traits<char>, std::allocator<char> > >, std::allocator<std::pair<const std::basic_string<char, std::char_traits<char>, std::allocator<char> >, std::basic_string<char, std::char_traits<char>, std::allocator<char> > > > >::_Rb_tree
FUNC 18bfa 1a 0 std::allocator<std::_Rb_tree_node<std::pair<const std::basic_string<char, std::char_traits<char>, std::allocator<char> >, std::basic_string<char, std::char_traits<char>, std::allocator<char> > > > >::~allocator
FUNC 18c14 69 0 std::_Rb_tree<std::basic_string<char, std::char_traits<char>, std::allocator<char> >, std::pair<const std::basic_string<char, std::char_traits<char>, std::allocator<char> >, std::basic_string<char, std::char_traits<char>, std::allocator<char> > >, std::_Select1st<std::pair<const std::basic_string<char, std::char_traits<char>, std::allocator<char> >, std::basic_string<char, std::char_traits<char>, std::allocator<char> > > >, std::less<std::basic_string<char, std::char_traits<char>, std::allocator<char> > >, std::allocator<std::pair<const std::basic_string<char, std::char_traits<char>, std::allocator<char> >, std::basic_string<char, std::char_traits<char>, std::allocator<char> > > > >::_M_erase
FUNC 18c7e 12 0 std::_Rb_tree<std::basic_string<char, std::char_traits<char>, std::allocator<char> >, std::pair<const std::basic_string<char, std::char_traits<char>, std::allocator<char> >, std::basic_string<char, std::char_traits<char>, std::allocator<char> > >, std::_Select1st<std::pair<const std::basic_string<char, std::char_traits<char>, std::allocator<char> >, std::basic_string<char, std::char_traits<char>, std::allocator<char> > > >, std::less<std::basic_string<char, std::char_traits<char>, std::allocator<char> > >, std::allocator<std::pair<const std::basic_string<char, std::char_traits<char>, std::allocator<char> >, std::basic_string<char, std::char_traits<char>, std::allocator<char> > > > >::_M_begin
FUNC 18c90 1a 0 std::_Vector_base<short unsigned int, std::allocator<short unsigned int> >::_Vector_impl::~_Vector_impl
FUNC 18caa 1a 0 std::_Vector_base<short unsigned int, std::allocator<short unsigned int> >::_Vector_base
FUNC 18cc4 7c 0 std::_Vector_base<short unsigned int, std::allocator<short unsigned int> >::~_Vector_base
FUNC 18d40 e 0 std::_Vector_base<short unsigned int, std::allocator<short unsigned int> >::_M_get_Tp_allocator
FUNC 18d4e 29 0 std::_Destroy<short unsigned int*, short unsigned int>
FUNC 18d78 1a 0 std::_Vector_base<std::basic_string<char, std::char_traits<char>, std::allocator<char> >, std::allocator<std::basic_string<char, std::char_traits<char>, std::allocator<char> > > >::_Vector_impl::~_Vector_impl
FUNC 18d92 1a 0 std::_Vector_base<std::basic_string<char, std::char_traits<char>, std::allocator<char> >, std::allocator<std::basic_string<char, std::char_traits<char>, std::allocator<char> > > >::_Vector_base
FUNC 18dac 7d 0 std::_Vector_base<std::basic_string<char, std::char_traits<char>, std::allocator<char> >, std::allocator<std::basic_string<char, std::char_traits<char>, std::allocator<char> > > >::~_Vector_base
FUNC 18e2a e 0 std::_Vector_base<std::basic_string<char, std::char_traits<char>, std::allocator<char> >, std::allocator<std::basic_string<char, std::char_traits<char>, std::allocator<char> > > >::_M_get_Tp_allocator
FUNC 18e38 29 0 std::_Destroy<std::basic_string<char, std::char_traits<char>, std::allocator<char> >*, std::basic_string<char, std::char_traits<char>, std::allocator<char> > >
FUNC 18e62 44 0 std::vector<short unsigned int, std::allocator<short unsigned int> >::_M_erase_at_end
FUNC 18ea6 44 0 std::vector<std::basic_string<char, std::char_traits<char>, std::allocator<char> >, std::allocator<std::basic_string<char, std::char_traits<char>, std::allocator<char> > > >::_M_erase_at_end
FUNC 18eea 8d 0 std::_Rb_tree<std::basic_string<char, std::char_traits<char>, std::allocator<char> >, std::pair<const std::basic_string<char, std::char_traits<char>, std::allocator<char> >, std::basic_string<char, std::char_traits<char>, std::allocator<char> > >, std::_Select1st<std::pair<const std::basic_string<char, std::char_traits<char>, std::allocator<char> >, std::basic_string<char, std::char_traits<char>, std::allocator<char> > > >, std::less<std::basic_string<char, std::char_traits<char>, std::allocator<char> > >, std::allocator<std::pair<const std::basic_string<char, std::char_traits<char>, std::allocator<char> >, std::basic_string<char, std::char_traits<char>, std::allocator<char> > > > >::clear
FUNC 18f78 25 0 std::map<std::basic_string<char, std::char_traits<char>, std::allocator<char> >, std::basic_string<char, std::char_traits<char>, std::allocator<char> >, std::less<std::basic_string<char, std::char_traits<char>, std::allocator<char> > >, std::allocator<std::pair<const std::basic_string<char, std::char_traits<char>, std::allocator<char> >, std::basic_string<char, std::char_traits<char>, std::allocator<char> > > > >::lower_bound
FUNC 18f9e 1a 0 std::map<std::basic_string<char, std::char_traits<char>, std::allocator<char> >, std::basic_string<char, std::char_traits<char>, std::allocator<char> >, std::less<std::basic_string<char, std::char_traits<char>, std::allocator<char> > >, std::allocator<std::pair<const std::basic_string<char, std::char_traits<char>, std::allocator<char> >, std::basic_string<char, std::char_traits<char>, std::allocator<char> > > > >::key_comp
FUNC 18fb8 15 0 std::_Rb_tree_iterator<std::pair<const std::basic_string<char, std::char_traits<char>, std::allocator<char> >, std::basic_string<char, std::char_traits<char>, std::allocator<char> > > >::operator*
FUNC 18fce 29 0 std::less<std::basic_string<char, std::char_traits<char>, std::allocator<char> > >::operator()
FUNC 18ff8 22 0 std::_Rb_tree_iterator<std::pair<const std::basic_string<char, std::char_traits<char>, std::allocator<char> >, std::basic_string<char, std::char_traits<char>, std::allocator<char> > > >::operator==
FUNC 1901a 6b 0 std::pair<const std::basic_string<char, std::char_traits<char>, std::allocator<char> >, std::basic_string<char, std::char_traits<char>, std::allocator<char> > >::pair
FUNC 19086 40 0 std::map<std::basic_string<char, std::char_traits<char>, std::allocator<char> >, std::basic_string<char, std::char_traits<char>, std::allocator<char> >, std::less<std::basic_string<char, std::char_traits<char>, std::allocator<char> > >, std::allocator<std::pair<const std::basic_string<char, std::char_traits<char>, std::allocator<char> >, std::basic_string<char, std::char_traits<char>, std::allocator<char> > > > >::insert
FUNC 190c6 b6 0 std::_Rb_tree<std::basic_string<char, std::char_traits<char>, std::allocator<char> >, std::pair<const std::basic_string<char, std::char_traits<char>, std::allocator<char> >, std::basic_string<char, std::char_traits<char>, std::allocator<char> > >, std::_Select1st<std::pair<const std::basic_string<char, std::char_traits<char>, std::allocator<char> >, std::basic_string<char, std::char_traits<char>, std::allocator<char> > > >, std::less<std::basic_string<char, std::char_traits<char>, std::allocator<char> > >, std::allocator<std::pair<const std::basic_string<char, std::char_traits<char>, std::allocator<char> >, std::basic_string<char, std::char_traits<char>, std::allocator<char> > > > >::find
FUNC 1917c 2c 0 std::_Rb_tree<std::basic_string<char, std::char_traits<char>, std::allocator<char> >, std::pair<const std::basic_string<char, std::char_traits<char>, std::allocator<char> >, std::basic_string<char, std::char_traits<char>, std::allocator<char> > >, std::_Select1st<std::pair<const std::basic_string<char, std::char_traits<char>, std::allocator<char> >, std::basic_string<char, std::char_traits<char>, std::allocator<char> > > >, std::less<std::basic_string<char, std::char_traits<char>, std::allocator<char> > >, std::allocator<std::pair<const std::basic_string<char, std::char_traits<char>, std::allocator<char> >, std::basic_string<char, std::char_traits<char>, std::allocator<char> > > > >::end
FUNC 191a8 1c 0 __gnu_cxx::__normal_iterator<std::basic_string<char, std::char_traits<char>, std::allocator<char> >*, std::vector<std::basic_string<char, std::char_traits<char>, std::allocator<char> >, std::allocator<std::basic_string<char, std::char_traits<char>, std::allocator<char> > > > >::__normal_iterator
FUNC 191c4 e 0 __gnu_cxx::__normal_iterator<std::basic_string<char, std::char_traits<char>, std::allocator<char> >*, std::vector<std::basic_string<char, std::char_traits<char>, std::allocator<char> >, std::allocator<std::basic_string<char, std::char_traits<char>, std::allocator<char> > > > >::base
FUNC 191d2 e 0 __gnu_cxx::__normal_iterator<const std::basic_string<char, std::char_traits<char>, std::allocator<char> >*, std::vector<std::basic_string<char, std::char_traits<char>, std::allocator<char> >, std::allocator<std::basic_string<char, std::char_traits<char>, std::allocator<char> > > > >::base
FUNC 191e0 39 0 __gnu_cxx::new_allocator<short unsigned int>::construct
FUNC 1921a 2e5 0 std::vector<short unsigned int, std::allocator<short unsigned int> >::_M_insert_aux
FUNC 19500 29 0 std::vector<short unsigned int, std::allocator<short unsigned int> >::end
FUNC 1952a 31 0 std::vector<short unsigned int, std::allocator<short unsigned int> >::end
FUNC 1955c 30 0 std::vector<short unsigned int, std::allocator<short unsigned int> >::begin
FUNC 1958c 3c 0 __gnu_cxx::operator==<const short unsigned int*, std::vector<short unsigned int, std::allocator<short unsigned int> > >
FUNC 195c8 29 0 std::vector<std::basic_string<char, std::char_traits<char>, std::allocator<char> >, std::allocator<std::basic_string<char, std::char_traits<char>, std::allocator<char> > > >::capacity
FUNC 195f2 30 0 std::vector<std::basic_string<char, std::char_traits<char>, std::allocator<char> >, std::allocator<std::basic_string<char, std::char_traits<char>, std::allocator<char> > > >::begin
FUNC 19622 31 0 std::vector<std::basic_string<char, std::char_traits<char>, std::allocator<char> >, std::allocator<std::basic_string<char, std::char_traits<char>, std::allocator<char> > > >::end
FUNC 19654 a1 0 std::vector<std::basic_string<char, std::char_traits<char>, std::allocator<char> >, std::allocator<std::basic_string<char, std::char_traits<char>, std::allocator<char> > > >::_M_allocate_and_copy<__gnu_cxx::__normal_iterator<const std::basic_string<char, std::char_traits<char>, std::allocator<char> >*, std::vector<std::basic_string<char, std::char_traits<char>, std::allocator<char> >, std::allocator<std::basic_string<char, std::char_traits<char>, std::allocator<char> > > > > >
FUNC 196f6 34 0 std::_Vector_base<std::basic_string<char, std::char_traits<char>, std::allocator<char> >, std::allocator<std::basic_string<char, std::char_traits<char>, std::allocator<char> > > >::_M_deallocate
FUNC 1972a 46 0 std::copy<__gnu_cxx::__normal_iterator<const std::basic_string<char, std::char_traits<char>, std::allocator<char> >*, std::vector<std::basic_string<char, std::char_traits<char>, std::allocator<char> >, std::allocator<std::basic_string<char, std::char_traits<char>, std::allocator<char> > > > >, __gnu_cxx::__normal_iterator<std::basic_string<char, std::char_traits<char>, std::allocator<char> >*, std::vector<std::basic_string<char, std::char_traits<char>, std::allocator<char> >, std::allocator<std::basic_string<char, std::char_traits<char>, std::allocator<char> > > > > >
FUNC 19770 29 0 std::_Destroy<__gnu_cxx::__normal_iterator<std::basic_string<char, std::char_traits<char>, std::allocator<char> >*, std::vector<std::basic_string<char, std::char_traits<char>, std::allocator<char> >, std::allocator<std::basic_string<char, std::char_traits<char>, std::allocator<char> > > > >, std::basic_string<char, std::char_traits<char>, std::allocator<char> > >
FUNC 19799 46 0 std::copy<std::basic_string<char, std::char_traits<char>, std::allocator<char> >*, std::basic_string<char, std::char_traits<char>, std::allocator<char> >*>
FUNC 197df 31 0 std::__uninitialized_copy_a<std::basic_string<char, std::char_traits<char>, std::allocator<char> >*, std::basic_string<char, std::char_traits<char>, std::allocator<char> >*, std::basic_string<char, std::char_traits<char>, std::allocator<char> > >
FUNC 19810 77 0 __gnu_cxx::new_allocator<std::basic_string<char, std::char_traits<char>, std::allocator<char> > >::construct
FUNC 19888 326 0 std::vector<std::basic_string<char, std::char_traits<char>, std::allocator<char> >, std::allocator<std::basic_string<char, std::char_traits<char>, std::allocator<char> > > >::_M_insert_aux
FUNC 19bae e 0 std::_Vector_base<std::basic_string<char, std::char_traits<char>, std::allocator<char> >, std::allocator<std::basic_string<char, std::char_traits<char>, std::allocator<char> > > >::_M_get_Tp_allocator
FUNC 19bbc 31 0 std::__uninitialized_copy_a<__gnu_cxx::__normal_iterator<const std::basic_string<char, std::char_traits<char>, std::allocator<char> >*, std::vector<std::basic_string<char, std::char_traits<char>, std::allocator<char> >, std::allocator<std::basic_string<char, std::char_traits<char>, std::allocator<char> > > > >, std::basic_string<char, std::char_traits<char>, std::allocator<char> >*, std::basic_string<char, std::char_traits<char>, std::allocator<char> > >
FUNC 19bee 12 0 std::_Rb_tree<std::basic_string<char, std::char_traits<char>, std::allocator<char> >, std::pair<const std::basic_string<char, std::char_traits<char>, std::allocator<char> >, std::basic_string<char, std::char_traits<char>, std::allocator<char> > >, std::_Select1st<std::pair<const std::basic_string<char, std::char_traits<char>, std::allocator<char> >, std::basic_string<char, std::char_traits<char>, std::allocator<char> > > >, std::less<std::basic_string<char, std::char_traits<char>, std::allocator<char> > >, std::allocator<std::pair<const std::basic_string<char, std::char_traits<char>, std::allocator<char> >, std::basic_string<char, std::char_traits<char>, std::allocator<char> > > > >::_M_end
FUNC 19c00 12 0 std::_Rb_tree<std::basic_string<char, std::char_traits<char>, std::allocator<char> >, std::pair<const std::basic_string<char, std::char_traits<char>, std::allocator<char> >, std::basic_string<char, std::char_traits<char>, std::allocator<char> > >, std::_Select1st<std::pair<const std::basic_string<char, std::char_traits<char>, std::allocator<char> >, std::basic_string<char, std::char_traits<char>, std::allocator<char> > > >, std::less<std::basic_string<char, std::char_traits<char>, std::allocator<char> > >, std::allocator<std::pair<const std::basic_string<char, std::char_traits<char>, std::allocator<char> >, std::basic_string<char, std::char_traits<char>, std::allocator<char> > > > >::_M_root
FUNC 19c12 12 0 std::_Rb_tree<std::basic_string<char, std::char_traits<char>, std::allocator<char> >, std::pair<const std::basic_string<char, std::char_traits<char>, std::allocator<char> >, std::basic_string<char, std::char_traits<char>, std::allocator<char> > >, std::_Select1st<std::pair<const std::basic_string<char, std::char_traits<char>, std::allocator<char> >, std::basic_string<char, std::char_traits<char>, std::allocator<char> > > >, std::less<std::basic_string<char, std::char_traits<char>, std::allocator<char> > >, std::allocator<std::pair<const std::basic_string<char, std::char_traits<char>, std::allocator<char> >, std::basic_string<char, std::char_traits<char>, std::allocator<char> > > > >::_M_leftmost
FUNC 19c24 12 0 std::_Rb_tree<std::basic_string<char, std::char_traits<char>, std::allocator<char> >, std::pair<const std::basic_string<char, std::char_traits<char>, std::allocator<char> >, std::basic_string<char, std::char_traits<char>, std::allocator<char> > >, std::_Select1st<std::pair<const std::basic_string<char, std::char_traits<char>, std::allocator<char> >, std::basic_string<char, std::char_traits<char>, std::allocator<char> > > >, std::less<std::basic_string<char, std::char_traits<char>, std::allocator<char> > >, std::allocator<std::pair<const std::basic_string<char, std::char_traits<char>, std::allocator<char> >, std::basic_string<char, std::char_traits<char>, std::allocator<char> > > > >::_M_rightmost
FUNC 19c36 8c 0 std::_Rb_tree<std::basic_string<char, std::char_traits<char>, std::allocator<char> >, std::pair<const std::basic_string<char, std::char_traits<char>, std::allocator<char> >, std::basic_string<char, std::char_traits<char>, std::allocator<char> > >, std::_Select1st<std::pair<const std::basic_string<char, std::char_traits<char>, std::allocator<char> >, std::basic_string<char, std::char_traits<char>, std::allocator<char> > > >, std::less<std::basic_string<char, std::char_traits<char>, std::allocator<char> > >, std::allocator<std::pair<const std::basic_string<char, std::char_traits<char>, std::allocator<char> >, std::basic_string<char, std::char_traits<char>, std::allocator<char> > > > >::_Rb_tree_impl<std::less<std::basic_string<char, std::char_traits<char>, std::allocator<char> > >, false>::_Rb_tree_impl
FUNC 19cc2 a 0 __gnu_cxx::new_allocator<std::_Rb_tree_node<std::pair<const std::basic_string<char, std::char_traits<char>, std::allocator<char> >, std::basic_string<char, std::char_traits<char>, std::allocator<char> > > > >::~new_allocator
FUNC 19ccc 12 0 std::_Rb_tree<std::basic_string<char, std::char_traits<char>, std::allocator<char> >, std::pair<const std::basic_string<char, std::char_traits<char>, std::allocator<char> >, std::basic_string<char, std::char_traits<char>, std::allocator<char> > >, std::_Select1st<std::pair<const std::basic_string<char, std::char_traits<char>, std::allocator<char> >, std::basic_string<char, std::char_traits<char>, std::allocator<char> > > >, std::less<std::basic_string<char, std::char_traits<char>, std::allocator<char> > >, std::allocator<std::pair<const std::basic_string<char, std::char_traits<char>, std::allocator<char> >, std::basic_string<char, std::char_traits<char>, std::allocator<char> > > > >::_S_right
FUNC 19cde 12 0 std::_Rb_tree<std::basic_string<char, std::char_traits<char>, std::allocator<char> >, std::pair<const std::basic_string<char, std::char_traits<char>, std::allocator<char> >, std::basic_string<char, std::char_traits<char>, std::allocator<char> > >, std::_Select1st<std::pair<const std::basic_string<char, std::char_traits<char>, std::allocator<char> >, std::basic_string<char, std::char_traits<char>, std::allocator<char> > > >, std::less<std::basic_string<char, std::char_traits<char>, std::allocator<char> > >, std::allocator<std::pair<const std::basic_string<char, std::char_traits<char>, std::allocator<char> >, std::basic_string<char, std::char_traits<char>, std::allocator<char> > > > >::_S_left
FUNC 19cf0 86 0 std::_Rb_tree<std::basic_string<char, std::char_traits<char>, std::allocator<char> >, std::pair<const std::basic_string<char, std::char_traits<char>, std::allocator<char> >, std::basic_string<char, std::char_traits<char>, std::allocator<char> > >, std::_Select1st<std::pair<const std::basic_string<char, std::char_traits<char>, std::allocator<char> >, std::basic_string<char, std::char_traits<char>, std::allocator<char> > > >, std::less<std::basic_string<char, std::char_traits<char>, std::allocator<char> > >, std::allocator<std::pair<const std::basic_string<char, std::char_traits<char>, std::allocator<char> >, std::basic_string<char, std::char_traits<char>, std::allocator<char> > > > >::_M_destroy_node
FUNC 19d76 3d 0 std::_Vector_base<short unsigned int, std::allocator<short unsigned int> >::_Vector_impl::_Vector_impl
FUNC 19db4 1a 0 std::allocator<short unsigned int>::~allocator
FUNC 19dce 34 0 std::_Vector_base<short unsigned int, std::allocator<short unsigned int> >::_M_deallocate
FUNC 19e02 25 0 std::_Destroy<short unsigned int*>
FUNC 19e28 3d 0 std::_Vector_base<std::basic_string<char, std::char_traits<char>, std::allocator<char> >, std::allocator<std::basic_string<char, std::char_traits<char>, std::allocator<char> > > >::_Vector_impl::_Vector_impl
FUNC 19e66 1a 0 std::allocator<std::basic_string<char, std::char_traits<char>, std::allocator<char> > >::~allocator
FUNC 19e80 25 0 std::_Destroy<std::basic_string<char, std::char_traits<char>, std::allocator<char> >*>
FUNC 19ea6 53 0 std::_Rb_tree<std::basic_string<char, std::char_traits<char>, std::allocator<char> >, std::pair<const std::basic_string<char, std::char_traits<char>, std::allocator<char> >, std::basic_string<char, std::char_traits<char>, std::allocator<char> > >, std::_Select1st<std::pair<const std::basic_string<char, std::char_traits<char>, std::allocator<char> >, std::basic_string<char, std::char_traits<char>, std::allocator<char> > > >, std::less<std::basic_string<char, std::char_traits<char>, std::allocator<char> > >, std::allocator<std::pair<const std::basic_string<char, std::char_traits<char>, std::allocator<char> >, std::basic_string<char, std::char_traits<char>, std::allocator<char> > > > >::lower_bound
FUNC 19efa a 0 std::_Rb_tree<std::basic_string<char, std::char_traits<char>, std::allocator<char> >, std::pair<const std::basic_string<char, std::char_traits<char>, std::allocator<char> >, std::basic_string<char, std::char_traits<char>, std::allocator<char> > >, std::_Select1st<std::pair<const std::basic_string<char, std::char_traits<char>, std::allocator<char> >, std::basic_string<char, std::char_traits<char>, std::allocator<char> > > >, std::less<std::basic_string<char, std::char_traits<char>, std::allocator<char> > >, std::allocator<std::pair<const std::basic_string<char, std::char_traits<char>, std::allocator<char> >, std::basic_string<char, std::char_traits<char>, std::allocator<char> > > > >::key_comp
FUNC 19f04 28 0 std::operator< <char, std::char_traits<char>, std::allocator<char> >
FUNC 19f2c 4c0 0 std::_Rb_tree<std::basic_string<char, std::char_traits<char>, std::allocator<char> >, std::pair<const std::basic_string<char, std::char_traits<char>, std::allocator<char> >, std::basic_string<char, std::char_traits<char>, std::allocator<char> > >, std::_Select1st<std::pair<const std::basic_string<char, std::char_traits<char>, std::allocator<char> >, std::basic_string<char, std::char_traits<char>, std::allocator<char> > > >, std::less<std::basic_string<char, std::char_traits<char>, std::allocator<char> > >, std::allocator<std::pair<const std::basic_string<char, std::char_traits<char>, std::allocator<char> >, std::basic_string<char, std::char_traits<char>, std::allocator<char> > > > >::_M_insert_unique_
FUNC 1a3ec 92 0 std::_Rb_tree<std::basic_string<char, std::char_traits<char>, std::allocator<char> >, std::pair<const std::basic_string<char, std::char_traits<char>, std::allocator<char> >, std::basic_string<char, std::char_traits<char>, std::allocator<char> > >, std::_Select1st<std::pair<const std::basic_string<char, std::char_traits<char>, std::allocator<char> >, std::basic_string<char, std::char_traits<char>, std::allocator<char> > > >, std::less<std::basic_string<char, std::char_traits<char>, std::allocator<char> > >, std::allocator<std::pair<const std::basic_string<char, std::char_traits<char>, std::allocator<char> >, std::basic_string<char, std::char_traits<char>, std::allocator<char> > > > >::_M_lower_bound
FUNC 1a47e 2c 0 std::_Rb_tree<std::basic_string<char, std::char_traits<char>, std::allocator<char> >, std::pair<const std::basic_string<char, std::char_traits<char>, std::allocator<char> >, std::basic_string<char, std::char_traits<char>, std::allocator<char> > >, std::_Select1st<std::pair<const std::basic_string<char, std::char_traits<char>, std::allocator<char> >, std::basic_string<char, std::char_traits<char>, std::allocator<char> > > >, std::less<std::basic_string<char, std::char_traits<char>, std::allocator<char> > >, std::allocator<std::pair<const std::basic_string<char, std::char_traits<char>, std::allocator<char> >, std::basic_string<char, std::char_traits<char>, std::allocator<char> > > > >::_S_key
FUNC 1a4aa 19 0 std::_Rb_tree_iterator<std::pair<const std::basic_string<char, std::char_traits<char>, std::allocator<char> >, std::basic_string<char, std::char_traits<char>, std::allocator<char> > > >::_Rb_tree_iterator
FUNC 1a4c4 e 0 __gnu_cxx::__normal_iterator<short unsigned int*, std::vector<short unsigned int, std::allocator<short unsigned int> > >::base
FUNC 1a4d2 46 0 std::copy_backward<short unsigned int*, short unsigned int*>
FUNC 1a518 11 0 __gnu_cxx::__normal_iterator<short unsigned int*, std::vector<short unsigned int, std::allocator<short unsigned int> > >::operator*
FUNC 1a52a ca 0 std::vector<short unsigned int, std::allocator<short unsigned int> >::_M_check_len
FUNC 1a5f4 25 0 std::vector<short unsigned int, std::allocator<short unsigned int> >::begin
FUNC 1a619 45 0 __gnu_cxx::operator-<short unsigned int*, std::vector<short unsigned int, std::allocator<short unsigned int> > >
FUNC 1a65e 38 0 std::_Vector_base<short unsigned int, std::allocator<short unsigned int> >::_M_allocate
FUNC 1a696 3b 0 std::__uninitialized_move_a<short unsigned int*, short unsigned int*, std::allocator<short unsigned int> >
FUNC 1a6d2 e 0 __gnu_cxx::new_allocator<short unsigned int>::destroy
FUNC 1a6e0 1c 0 __gnu_cxx::__normal_iterator<short unsigned int*, std::vector<short unsigned int, std::allocator<short unsigned int> > >::__normal_iterator
FUNC 1a6fc 1c 0 __gnu_cxx::__normal_iterator<const short unsigned int*, std::vector<short unsigned int, std::allocator<short unsigned int> > >::__normal_iterator
FUNC 1a718 e 0 __gnu_cxx::__normal_iterator<const short unsigned int*, std::vector<short unsigned int, std::allocator<short unsigned int> > >::base
FUNC 1a726 1c 0 __gnu_cxx::__normal_iterator<const std::basic_string<char, std::char_traits<char>, std::allocator<char> >*, std::vector<std::basic_string<char, std::char_traits<char>, std::allocator<char> >, std::allocator<std::basic_string<char, std::char_traits<char>, std::allocator<char> > > > >::__normal_iterator
FUNC 1a742 38 0 std::_Vector_base<std::basic_string<char, std::char_traits<char>, std::allocator<char> >, std::allocator<std::basic_string<char, std::char_traits<char>, std::allocator<char> > > >::_M_allocate
FUNC 1a77a 22 0 __gnu_cxx::new_allocator<std::basic_string<char, std::char_traits<char>, std::allocator<char> > >::deallocate
FUNC 1a79c e 0 std::__miter_base<__gnu_cxx::__normal_iterator<const std::basic_string<char, std::char_traits<char>, std::allocator<char> >*, std::vector<std::basic_string<char, std::char_traits<char>, std::allocator<char> >, std::allocator<std::basic_string<char, std::char_traits<char>, std::allocator<char> > > > >, false>::__b
FUNC 1a7aa 73 0 std::__copy_move_a2<false, __gnu_cxx::__normal_iterator<const std::basic_string<char, std::char_traits<char>, std::allocator<char> >*, std::vector<std::basic_string<char, std::char_traits<char>, std::allocator<char> >, std::allocator<std::basic_string<char, std::char_traits<char>, std::allocator<char> > > > >, __gnu_cxx::__normal_iterator<std::basic_string<char, std::char_traits<char>, std::allocator<char> >*, std::vector<std::basic_string<char, std::char_traits<char>, std::allocator<char> >, std::allocator<std::basic_string<char, std::char_traits<char>, std::allocator<char> > > > > >
FUNC 1a81d 25 0 std::_Destroy<__gnu_cxx::__normal_iterator<std::basic_string<char, std::char_traits<char>, std::allocator<char> >*, std::vector<std::basic_string<char, std::char_traits<char>, std::allocator<char> >, std::allocator<std::basic_string<char, std::char_traits<char>, std::allocator<char> > > > > >
FUNC 1a842 e 0 std::__miter_base<std::basic_string<char, std::char_traits<char>, std::allocator<char> >*, false>::__b
FUNC 1a850 58 0 std::__copy_move_a2<false, std::basic_string<char, std::char_traits<char>, std::allocator<char> >*, std::basic_string<char, std::char_traits<char>, std::allocator<char> >*>
FUNC 1a8a8 2d 0 std::uninitialized_copy<std::basic_string<char, std::char_traits<char>, std::allocator<char> >*, std::basic_string<char, std::char_traits<char>, std::allocator<char> >*>
FUNC 1a8d5 46 0 std::copy_backward<std::basic_string<char, std::char_traits<char>, std::allocator<char> >*, std::basic_string<char, std::char_traits<char>, std::allocator<char> >*>
FUNC 1a91c 11 0 __gnu_cxx::__normal_iterator<std::basic_string<char, std::char_traits<char>, std::allocator<char> >*, std::vector<std::basic_string<char, std::char_traits<char>, std::allocator<char> >, std::allocator<std::basic_string<char, std::char_traits<char>, std::allocator<char> > > > >::operator*
FUNC 1a92e ca 0 std::vector<std::basic_string<char, std::char_traits<char>, std::allocator<char> >, std::allocator<std::basic_string<char, std::char_traits<char>, std::allocator<char> > > >::_M_check_len
FUNC 1a9f8 46 0 __gnu_cxx::operator-<std::basic_string<char, std::char_traits<char>, std::allocator<char> >*, std::vector<std::basic_string<char, std::char_traits<char>, std::allocator<char> >, std::allocator<std::basic_string<char, std::char_traits<char>, std::allocator<char> > > > >
FUNC 1aa3e 3b 0 std::__uninitialized_move_a<std::basic_string<char, std::char_traits<char>, std::allocator<char> >*, std::basic_string<char, std::char_traits<char>, std::allocator<char> >*, std::allocator<std::basic_string<char, std::char_traits<char>, std::allocator<char> > > >
FUNC 1aa7a 1e 0 __gnu_cxx::new_allocator<std::basic_string<char, std::char_traits<char>, std::allocator<char> > >::destroy
FUNC 1aa98 2d 0 std::uninitialized_copy<__gnu_cxx::__normal_iterator<const std::basic_string<char, std::char_traits<char>, std::allocator<char> >*, std::vector<std::basic_string<char, std::char_traits<char>, std::allocator<char> >, std::allocator<std::basic_string<char, std::char_traits<char>, std::allocator<char> > > > >, std::basic_string<char, std::char_traits<char>, std::allocator<char> >*>
FUNC 1aac5 12 0 std::_Rb_tree<std::basic_string<char, std::char_traits<char>, std::allocator<char> >, std::pair<const std::basic_string<char, std::char_traits<char>, std::allocator<char> >, std::basic_string<char, std::char_traits<char>, std::allocator<char> > >, std::_Select1st<std::pair<const std::basic_string<char, std::char_traits<char>, std::allocator<char> >, std::basic_string<char, std::char_traits<char>, std::allocator<char> > > >, std::less<std::basic_string<char, std::char_traits<char>, std::allocator<char> > >, std::allocator<std::pair<const std::basic_string<char, std::char_traits<char>, std::allocator<char> >, std::basic_string<char, std::char_traits<char>, std::allocator<char> > > > >::_S_right
FUNC 1aad8 1a 0 std::allocator<std::_Rb_tree_node<std::pair<const std::basic_string<char, std::char_traits<char>, std::allocator<char> >, std::basic_string<char, std::char_traits<char>, std::allocator<char> > > > >::allocator
FUNC 1aaf2 41 0 std::_Rb_tree<std::basic_string<char, std::char_traits<char>, std::allocator<char> >, std::pair<const std::basic_string<char, std::char_traits<char>, std::allocator<char> >, std::basic_string<char, std::char_traits<char>, std::allocator<char> > >, std::_Select1st<std::pair<const std::basic_string<char, std::char_traits<char>, std::allocator<char> >, std::basic_string<char, std::char_traits<char>, std::allocator<char> > > >, std::less<std::basic_string<char, std::char_traits<char>, std::allocator<char> > >, std::allocator<std::pair<const std::basic_string<char, std::char_traits<char>, std::allocator<char> >, std::basic_string<char, std::char_traits<char>, std::allocator<char> > > > >::_Rb_tree_impl<std::less<std::basic_string<char, std::char_traits<char>, std::allocator<char> > >, false>::_M_initialize
FUNC 1ab34 3b 0 std::_Rb_tree<std::basic_string<char, std::char_traits<char>, std::allocator<char> >, std::pair<const std::basic_string<char, std::char_traits<char>, std::allocator<char> >, std::basic_string<char, std::char_traits<char>, std::allocator<char> > >, std::_Select1st<std::pair<const std::basic_string<char, std::char_traits<char>, std::allocator<char> >, std::basic_string<char, std::char_traits<char>, std::allocator<char> > > >, std::less<std::basic_string<char, std::char_traits<char>, std::allocator<char> > >, std::allocator<std::pair<const std::basic_string<char, std::char_traits<char>, std::allocator<char> >, std::basic_string<char, std::char_traits<char>, std::allocator<char> > > > >::get_allocator
FUNC 1ab70 1a 0 std::allocator<std::pair<const std::basic_string<char, std::char_traits<char>, std::allocator<char> >, std::basic_string<char, std::char_traits<char>, std::allocator<char> > > >::~allocator
FUNC 1ab8a 1e 0 __gnu_cxx::new_allocator<std::pair<const std::basic_string<char, std::char_traits<char>, std::allocator<char> >, std::basic_string<char, std::char_traits<char>, std::allocator<char> > > >::destroy
FUNC 1aba8 2a 0 std::_Rb_tree<std::basic_string<char, std::char_traits<char>, std::allocator<char> >, std::pair<const std::basic_string<char, std::char_traits<char>, std::allocator<char> >, std::basic_string<char, std::char_traits<char>, std::allocator<char> > >, std::_Select1st<std::pair<const std::basic_string<char, std::char_traits<char>, std::allocator<char> >, std::basic_string<char, std::char_traits<char>, std::allocator<char> > > >, std::less<std::basic_string<char, std::char_traits<char>, std::allocator<char> > >, std::allocator<std::pair<const std::basic_string<char, std::char_traits<char>, std::allocator<char> >, std::basic_string<char, std::char_traits<char>, std::allocator<char> > > > >::_M_put_node
FUNC 1abd2 1a 0 std::allocator<short unsigned int>::allocator
FUNC 1abec a 0 __gnu_cxx::new_allocator<short unsigned int>::~new_allocator
FUNC 1abf6 22 0 __gnu_cxx::new_allocator<short unsigned int>::deallocate
FUNC 1ac18 e 0 std::_Destroy_aux<true>::__destroy<short unsigned int*>
FUNC 1ac26 1a 0 std::allocator<std::basic_string<char, std::char_traits<char>, std::allocator<char> > >::allocator
FUNC 1ac40 a 0 __gnu_cxx::new_allocator<std::basic_string<char, std::char_traits<char>, std::allocator<char> > >::~new_allocator
FUNC 1ac4a 34 0 std::_Destroy_aux<false>::__destroy<std::basic_string<char, std::char_traits<char>, std::allocator<char> >*>
FUNC 1ac7e 12 0 std::_Select1st<std::pair<const std::basic_string<char, std::char_traits<char>, std::allocator<char> >, std::basic_string<char, std::char_traits<char>, std::allocator<char> > > >::operator()
FUNC 1ac90 12 0 std::_Rb_tree<std::basic_string<char, std::char_traits<char>, std::allocator<char> >, std::pair<const std::basic_string<char, std::char_traits<char>, std::allocator<char> >, std::basic_string<char, std::char_traits<char>, std::allocator<char> > >, std::_Select1st<std::pair<const std::basic_string<char, std::char_traits<char>, std::allocator<char> >, std::basic_string<char, std::char_traits<char>, std::allocator<char> > > >, std::less<std::basic_string<char, std::char_traits<char>, std::allocator<char> > >, std::allocator<std::pair<const std::basic_string<char, std::char_traits<char>, std::allocator<char> >, std::basic_string<char, std::char_traits<char>, std::allocator<char> > > > >::size
FUNC 1aca2 e3 0 std::_Rb_tree<std::basic_string<char, std::char_traits<char>, std::allocator<char> >, std::pair<const std::basic_string<char, std::char_traits<char>, std::allocator<char> >, std::basic_string<char, std::char_traits<char>, std::allocator<char> > >, std::_Select1st<std::pair<const std::basic_string<char, std::char_traits<char>, std::allocator<char> >, std::basic_string<char, std::char_traits<char>, std::allocator<char> > > >, std::less<std::basic_string<char, std::char_traits<char>, std::allocator<char> > >, std::allocator<std::pair<const std::basic_string<char, std::char_traits<char>, std::allocator<char> >, std::basic_string<char, std::char_traits<char>, std::allocator<char> > > > >::_M_insert_
FUNC 1ad86 271 0 std::_Rb_tree<std::basic_string<char, std::char_traits<char>, std::allocator<char> >, std::pair<const std::basic_string<char, std::char_traits<char>, std::allocator<char> >, std::basic_string<char, std::char_traits<char>, std::allocator<char> > >, std::_Select1st<std::pair<const std::basic_string<char, std::char_traits<char>, std::allocator<char> >, std::basic_string<char, std::char_traits<char>, std::allocator<char> > > >, std::less<std::basic_string<char, std::char_traits<char>, std::allocator<char> > >, std::allocator<std::pair<const std::basic_string<char, std::char_traits<char>, std::allocator<char> >, std::basic_string<char, std::char_traits<char>, std::allocator<char> > > > >::_M_insert_unique
FUNC 1aff8 28 0 std::_Rb_tree_const_iterator<std::pair<const std::basic_string<char, std::char_traits<char>, std::allocator<char> >, std::basic_string<char, std::char_traits<char>, std::allocator<char> > > >::operator--
FUNC 1b020 28 0 std::_Rb_tree_const_iterator<std::pair<const std::basic_string<char, std::char_traits<char>, std::allocator<char> >, std::basic_string<char, std::char_traits<char>, std::allocator<char> > > >::operator++
FUNC 1b048 2c 0 std::_Rb_tree<std::basic_string<char, std::char_traits<char>, std::allocator<char> >, std::pair<const std::basic_string<char, std::char_traits<char>, std::allocator<char> >, std::basic_string<char, std::char_traits<char>, std::allocator<char> > >, std::_Select1st<std::pair<const std::basic_string<char, std::char_traits<char>, std::allocator<char> >, std::basic_string<char, std::char_traits<char>, std::allocator<char> > > >, std::less<std::basic_string<char, std::char_traits<char>, std::allocator<char> > >, std::allocator<std::pair<const std::basic_string<char, std::char_traits<char>, std::allocator<char> >, std::basic_string<char, std::char_traits<char>, std::allocator<char> > > > >::_S_key
FUNC 1b074 12 0 std::_Rb_tree<std::basic_string<char, std::char_traits<char>, std::allocator<char> >, std::pair<const std::basic_string<char, std::char_traits<char>, std::allocator<char> >, std::basic_string<char, std::char_traits<char>, std::allocator<char> > >, std::_Select1st<std::pair<const std::basic_string<char, std::char_traits<char>, std::allocator<char> >, std::basic_string<char, std::char_traits<char>, std::allocator<char> > > >, std::less<std::basic_string<char, std::char_traits<char>, std::allocator<char> > >, std::allocator<std::pair<const std::basic_string<char, std::char_traits<char>, std::allocator<char> >, std::basic_string<char, std::char_traits<char>, std::allocator<char> > > > >::_S_value
FUNC 1b086 e 0 std::__miter_base<short unsigned int*, false>::__b
FUNC 1b094 58 0 std::__copy_move_backward_a2<false, short unsigned int*, short unsigned int*>
FUNC 1b0ec 28 0 std::vector<short unsigned int, std::allocator<short unsigned int> >::size
FUNC 1b114 22 0 std::vector<short unsigned int, std::allocator<short unsigned int> >::max_size
FUNC 1b136 2b 0 std::max<size_t>
FUNC 1b162 4a 0 __gnu_cxx::new_allocator<short unsigned int>::allocate
FUNC 1b1ac 31 0 std::__uninitialized_copy_a<short unsigned int*, short unsigned int*, short unsigned int>
FUNC 1b1de 4b 0 __gnu_cxx::new_allocator<std::basic_string<char, std::char_traits<char>, std::allocator<char> > >::allocate
FUNC 1b229 1d 0 std::__niter_base<__gnu_cxx::__normal_iterator<const std::basic_string<char, std::char_traits<char>, std::allocator<char> >*, std::vector<std::basic_string<char, std::char_traits<char>, std::allocator<char> >, std::allocator<std::basic_string<char, std::char_traits<char>, std::allocator<char> > > > >, true>::__b
FUNC 1b246 1d 0 std::__niter_base<__gnu_cxx::__normal_iterator<std::basic_string<char, std::char_traits<char>, std::allocator<char> >*, std::vector<std::basic_string<char, std::char_traits<char>, std::allocator<char> >, std::allocator<std::basic_string<char, std::char_traits<char>, std::allocator<char> > > > >, true>::__b
FUNC 1b263 31 0 std::__copy_move_a<false, const std::basic_string<char, std::char_traits<char>, std::allocator<char> >*, std::basic_string<char, std::char_traits<char>, std::allocator<char> >*>
FUNC 1b294 4b 0 std::_Destroy_aux<false>::__destroy<__gnu_cxx::__normal_iterator<std::basic_string<char, std::char_traits<char>, std::allocator<char> >*, std::vector<std::basic_string<char, std::char_traits<char>, std::allocator<char> >, std::allocator<std::basic_string<char, std::char_traits<char>, std::allocator<char> > > > > >
FUNC 1b2df e 0 std::__niter_base<std::basic_string<char, std::char_traits<char>, std::allocator<char> >*, false>::__b
FUNC 1b2ed 31 0 std::__copy_move_a<false, std::basic_string<char, std::char_traits<char>, std::allocator<char> >*, std::basic_string<char, std::char_traits<char>, std::allocator<char> >*>
FUNC 1b31e 92 0 std::__uninitialized_copy<false>::uninitialized_copy<std::basic_string<char, std::char_traits<char>, std::allocator<char> >*, std::basic_string<char, std::char_traits<char>, std::allocator<char> >*>
FUNC 1b3b0 58 0 std::__copy_move_backward_a2<false, std::basic_string<char, std::char_traits<char>, std::allocator<char> >*, std::basic_string<char, std::char_traits<char>, std::allocator<char> >*>
FUNC 1b408 22 0 std::vector<std::basic_string<char, std::char_traits<char>, std::allocator<char> >, std::allocator<std::basic_string<char, std::char_traits<char>, std::allocator<char> > > >::max_size
FUNC 1b42a ac 0 std::__uninitialized_copy<false>::uninitialized_copy<__gnu_cxx::__normal_iterator<const std::basic_string<char, std::char_traits<char>, std::allocator<char> >*, std::vector<std::basic_string<char, std::char_traits<char>, std::allocator<char> >, std::allocator<std::basic_string<char, std::char_traits<char>, std::allocator<char> > > > >, std::basic_string<char, std::char_traits<char>, std::allocator<char> >*>
FUNC 1b4d6 bd 0 std::_Rb_tree<std::basic_string<char, std::char_traits<char>, std::allocator<char> >, std::pair<const std::basic_string<char, std::char_traits<char>, std::allocator<char> >, std::basic_string<char, std::char_traits<char>, std::allocator<char> > >, std::_Select1st<std::pair<const std::basic_string<char, std::char_traits<char>, std::allocator<char> >, std::basic_string<char, std::char_traits<char>, std::allocator<char> > > >, std::less<std::basic_string<char, std::char_traits<char>, std::allocator<char> > >, std::allocator<std::pair<const std::basic_string<char, std::char_traits<char>, std::allocator<char> >, std::basic_string<char, std::char_traits<char>, std::allocator<char> > > > >::_M_create_node
FUNC 1b594 a 0 __gnu_cxx::new_allocator<std::_Rb_tree_node<std::pair<const std::basic_string<char, std::char_traits<char>, std::allocator<char> >, std::basic_string<char, std::char_traits<char>, std::allocator<char> > > > >::new_allocator
FUNC 1b59e e 0 std::_Rb_tree<std::basic_string<char, std::char_traits<char>, std::allocator<char> >, std::pair<const std::basic_string<char, std::char_traits<char>, std::allocator<char> >, std::basic_string<char, std::char_traits<char>, std::allocator<char> > >, std::_Select1st<std::pair<const std::basic_string<char, std::char_traits<char>, std::allocator<char> >, std::basic_string<char, std::char_traits<char>, std::allocator<char> > > >, std::less<std::basic_string<char, std::char_traits<char>, std::allocator<char> > >, std::allocator<std::pair<const std::basic_string<char, std::char_traits<char>, std::allocator<char> >, std::basic_string<char, std::char_traits<char>, std::allocator<char> > > > >::_M_get_Node_allocator
FUNC 1b5ac 1e 0 std::allocator<std::pair<const std::basic_string<char, std::char_traits<char>, std::allocator<char> >, std::basic_string<char, std::char_traits<char>, std::allocator<char> > > >::allocator<std::_Rb_tree_node<std::pair<const std::basic_string<char, std::char_traits<char>, std::allocator<char> >, std::basic_string<char, std::char_traits<char>, std::allocator<char> > > > >
FUNC 1b5ca a 0 __gnu_cxx::new_allocator<std::pair<const std::basic_string<char, std::char_traits<char>, std::allocator<char> >, std::basic_string<char, std::char_traits<char>, std::allocator<char> > > >::~new_allocator
FUNC 1b5d4 22 0 __gnu_cxx::new_allocator<std::_Rb_tree_node<std::pair<const std::basic_string<char, std::char_traits<char>, std::allocator<char> >, std::basic_string<char, std::char_traits<char>, std::allocator<char> > > > >::deallocate
FUNC 1b5f6 a 0 __gnu_cxx::new_allocator<short unsigned int>::new_allocator
FUNC 1b600 a 0 __gnu_cxx::new_allocator<std::basic_string<char, std::char_traits<char>, std::allocator<char> > >::new_allocator
FUNC 1b60a 1a 0 std::_Destroy<std::basic_string<char, std::char_traits<char>, std::allocator<char> > >
FUNC 1b624 2c 0 std::_Rb_tree<std::basic_string<char, std::char_traits<char>, std::allocator<char> >, std::pair<const std::basic_string<char, std::char_traits<char>, std::allocator<char> >, std::basic_string<char, std::char_traits<char>, std::allocator<char> > >, std::_Select1st<std::pair<const std::basic_string<char, std::char_traits<char>, std::allocator<char> >, std::basic_string<char, std::char_traits<char>, std::allocator<char> > > >, std::less<std::basic_string<char, std::char_traits<char>, std::allocator<char> > >, std::allocator<std::pair<const std::basic_string<char, std::char_traits<char>, std::allocator<char> >, std::basic_string<char, std::char_traits<char>, std::allocator<char> > > > >::begin
FUNC 1b650 2e 0 std::pair<std::_Rb_tree_iterator<std::pair<const std::basic_string<char, std::char_traits<char>, std::allocator<char> >, std::basic_string<char, std::char_traits<char>, std::allocator<char> > > >, bool>::pair
FUNC 1b67e 28 0 std::_Rb_tree_iterator<std::pair<const std::basic_string<char, std::char_traits<char>, std::allocator<char> >, std::basic_string<char, std::char_traits<char>, std::allocator<char> > > >::operator--
FUNC 1b6a6 12 0 std::_Rb_tree<std::basic_string<char, std::char_traits<char>, std::allocator<char> >, std::pair<const std::basic_string<char, std::char_traits<char>, std::allocator<char> >, std::basic_string<char, std::char_traits<char>, std::allocator<char> > >, std::_Select1st<std::pair<const std::basic_string<char, std::char_traits<char>, std::allocator<char> >, std::basic_string<char, std::char_traits<char>, std::allocator<char> > > >, std::less<std::basic_string<char, std::char_traits<char>, std::allocator<char> > >, std::allocator<std::pair<const std::basic_string<char, std::char_traits<char>, std::allocator<char> >, std::basic_string<char, std::char_traits<char>, std::allocator<char> > > > >::_S_value
FUNC 1b6b8 e 0 std::__niter_base<short unsigned int*, false>::__b
FUNC 1b6c6 31 0 std::__copy_move_backward_a<false, short unsigned int*, short unsigned int*>
FUNC 1b6f8 e 0 std::_Vector_base<short unsigned int, std::allocator<short unsigned int> >::_M_get_Tp_allocator
FUNC 1b706 14 0 __gnu_cxx::new_allocator<short unsigned int>::max_size
FUNC 1b71a 2d 0 std::uninitialized_copy<short unsigned int*, short unsigned int*>
FUNC 1b748 14 0 __gnu_cxx::new_allocator<std::basic_string<char, std::char_traits<char>, std::allocator<char> > >::max_size
FUNC 1b75c 63 0 std::__copy_move<false, false, std::random_access_iterator_tag>::__copy_m<const std::basic_string<char, std::char_traits<char>, std::allocator<char> >*, std::basic_string<char, std::char_traits<char>, std::allocator<char> >*>
FUNC 1b7bf 3c 0 __gnu_cxx::operator!=<std::basic_string<char, std::char_traits<char>, std::allocator<char> >*, std::vector<std::basic_string<char, std::char_traits<char>, std::allocator<char> >, std::allocator<std::basic_string<char, std::char_traits<char>, std::allocator<char> > > > >
FUNC 1b7fc 20 0 __gnu_cxx::__normal_iterator<std::basic_string<char, std::char_traits<char>, std::allocator<char> >*, std::vector<std::basic_string<char, std::char_traits<char>, std::allocator<char> >, std::allocator<std::basic_string<char, std::char_traits<char>, std::allocator<char> > > > >::operator++
FUNC 1b81c 63 0 std::__copy_move<false, false, std::random_access_iterator_tag>::__copy_m<std::basic_string<char, std::char_traits<char>, std::allocator<char> >*, std::basic_string<char, std::char_traits<char>, std::allocator<char> >*>
FUNC 1b87f 73 0 std::_Construct<std::basic_string<char, std::char_traits<char>, std::allocator<char> >, std::basic_string<char, std::char_traits<char>, std::allocator<char> > >
FUNC 1b8f2 31 0 std::__copy_move_backward_a<false, std::basic_string<char, std::char_traits<char>, std::allocator<char> >*, std::basic_string<char, std::char_traits<char>, std::allocator<char> >*>
FUNC 1b923 3c 0 __gnu_cxx::operator!=<const std::basic_string<char, std::char_traits<char>, std::allocator<char> >*, std::vector<std::basic_string<char, std::char_traits<char>, std::allocator<char> >, std::allocator<std::basic_string<char, std::char_traits<char>, std::allocator<char> > > > >
FUNC 1b960 24 0 std::_Rb_tree<std::basic_string<char, std::char_traits<char>, std::allocator<char> >, std::pair<const std::basic_string<char, std::char_traits<char>, std::allocator<char> >, std::basic_string<char, std::char_traits<char>, std::allocator<char> > >, std::_Select1st<std::pair<const std::basic_string<char, std::char_traits<char>, std::allocator<char> >, std::basic_string<char, std::char_traits<char>, std::allocator<char> > > >, std::less<std::basic_string<char, std::char_traits<char>, std::allocator<char> > >, std::allocator<std::pair<const std::basic_string<char, std::char_traits<char>, std::allocator<char> >, std::basic_string<char, std::char_traits<char>, std::allocator<char> > > > >::_M_get_node
FUNC 1b984 6b 0 std::pair<const std::basic_string<char, std::char_traits<char>, std::allocator<char> >, std::basic_string<char, std::char_traits<char>, std::allocator<char> > >::pair
FUNC 1b9f0 77 0 __gnu_cxx::new_allocator<std::pair<const std::basic_string<char, std::char_traits<char>, std::allocator<char> >, std::basic_string<char, std::char_traits<char>, std::allocator<char> > > >::construct
FUNC 1ba68 a 0 __gnu_cxx::new_allocator<std::pair<const std::basic_string<char, std::char_traits<char>, std::allocator<char> >, std::basic_string<char, std::char_traits<char>, std::allocator<char> > > >::new_allocator
FUNC 1ba72 61 0 std::__copy_move_backward<false, true, std::random_access_iterator_tag>::__copy_move_b<short unsigned int>
FUNC 1bad3 2d 0 std::__uninitialized_copy<true>::uninitialized_copy<short unsigned int*, short unsigned int*>
FUNC 1bb00 63 0 std::__copy_move_backward<false, false, std::random_access_iterator_tag>::__copy_move_b<std::basic_string<char, std::char_traits<char>, std::allocator<char> >*, std::basic_string<char, std::char_traits<char>, std::allocator<char> >*>
FUNC 1bb64 54 0 __gnu_cxx::new_allocator<std::_Rb_tree_node<std::pair<const std::basic_string<char, std::char_traits<char>, std::allocator<char> >, std::basic_string<char, std::char_traits<char>, std::allocator<char> > > > >::allocate
FUNC 1bbb8 46 0 std::copy<short unsigned int*, short unsigned int*>
FUNC 1bbfe 14 0 __gnu_cxx::new_allocator<std::_Rb_tree_node<std::pair<const std::basic_string<char, std::char_traits<char>, std::allocator<char> >, std::basic_string<char, std::char_traits<char>, std::allocator<char> > > > >::max_size
FUNC 1bc12 58 0 std::__copy_move_a2<false, short unsigned int*, short unsigned int*>
FUNC 1bc6a 31 0 std::__copy_move_a<false, short unsigned int*, short unsigned int*>
FUNC 1bc9b 5c 0 std::__copy_move<false, true, std::random_access_iterator_tag>::__copy_m<short unsigned int>
FUNC 1bcf8 119 0 EncapMysql::EncapMysql
FUNC 1be12 102 0 EncapMysql::~EncapMysql
FUNC 1bf14 74 0 EncapMysql::GetInstance
FUNC 1bf88 112 0 EncapMysql::Connect
FUNC 1c09a 31 0 EncapMysql::CloseConnect
FUNC 1c0cc 402 0 EncapMysql::SelectQuery
FUNC 1c4ce 1e3 0 EncapMysql::ModifyQuery
FUNC 1c6b2 4e 0 EncapMysql::FetchRow
FUNC 1c700 c3 0 EncapMysql::GetField
FUNC 1c7c4 3b 0 EncapMysql::GetField
FUNC 1c800 40 0 EncapMysql::FreePreResult
FUNC 1c840 12 0 EncapMysql::GetErrMsg
FUNC 1c852 12 0 EncapMysql::IsConnected
FUNC 1c864 1a 0 EncapMysql::SetConnected
FUNC 1c87e 68 0 EncapMysql::SaveParam
FUNC 1c8e6 107 0 EncapMysql::ReConnect
FUNC 1c9ee 11 0 EncapMysql::SetUsed
FUNC 1ca00 11 0 EncapMysql::SetIdle
FUNC 1ca12 14 0 EncapMysql::IsIdle
FUNC 1ca26 77 0 __static_initialization_and_destruction_0
FUNC 1ca9d 15 0 _GLOBAL__I_EncapMysql.cpp
FUNC 1cab2 1a 0 Mutex::WriterLock
FUNC 1cacc 1a 0 Mutex::WriterUnlock
FUNC 1cae6 12 0 Mutex::SetIsSafe
FUNC 1caf8 50 0 Mutex::Mutex
FUNC 1cb48 3f 0 Mutex::~Mutex
FUNC 1cb88 3f 0 Mutex::Lock
FUNC 1cbc8 3f 0 Mutex::Unlock
FUNC 1cc08 2c 0 WriterMutexLock::WriterMutexLock
FUNC 1cc34 1d 0 WriterMutexLock::~WriterMutexLock
FUNC 1cc52 1a 0 std::map<std::basic_string<char, std::char_traits<char>, std::allocator<char> >, int, std::less<std::basic_string<char, std::char_traits<char>, std::allocator<char> > >, std::allocator<std::pair<const std::basic_string<char, std::char_traits<char>, std::allocator<char> >, int> > >::~map
FUNC 1cc6c 1a 0 std::map<std::basic_string<char, std::char_traits<char>, std::allocator<char> >, int, std::less<std::basic_string<char, std::char_traits<char>, std::allocator<char> > >, std::allocator<std::pair<const std::basic_string<char, std::char_traits<char>, std::allocator<char> >, int> > >::map
FUNC 1cc86 1a 0 std::_Rb_tree<std::basic_string<char, std::char_traits<char>, std::allocator<char> >, std::pair<const std::basic_string<char, std::char_traits<char>, std::allocator<char> >, int>, std::_Select1st<std::pair<const std::basic_string<char, std::char_traits<char>, std::allocator<char> >, int> >, std::less<std::basic_string<char, std::char_traits<char>, std::allocator<char> > >, std::allocator<std::pair<const std::basic_string<char, std::char_traits<char>, std::allocator<char> >, int> > >::_Rb_tree_impl<std::less<std::basic_string<char, std::char_traits<char>, std::allocator<char> > >, false>::~_Rb_tree_impl
FUNC 1cca0 63 0 std::_Rb_tree<std::basic_string<char, std::char_traits<char>, std::allocator<char> >, std::pair<const std::basic_string<char, std::char_traits<char>, std::allocator<char> >, int>, std::_Select1st<std::pair<const std::basic_string<char, std::char_traits<char>, std::allocator<char> >, int> >, std::less<std::basic_string<char, std::char_traits<char>, std::allocator<char> > >, std::allocator<std::pair<const std::basic_string<char, std::char_traits<char>, std::allocator<char> >, int> > >::~_Rb_tree
FUNC 1cd04 1a 0 std::map<std::basic_string<char, std::char_traits<char>, std::allocator<char> >, int, std::less<std::basic_string<char, std::char_traits<char>, std::allocator<char> > >, std::allocator<std::pair<const std::basic_string<char, std::char_traits<char>, std::allocator<char> >, int> > >::clear
FUNC 1cd1e 1a 0 std::pair<const std::basic_string<char, std::char_traits<char>, std::allocator<char> >, int>::~pair
FUNC 1cd38 118 0 std::map<std::basic_string<char, std::char_traits<char>, std::allocator<char> >, int, std::less<std::basic_string<char, std::char_traits<char>, std::allocator<char> > >, std::allocator<std::pair<const std::basic_string<char, std::char_traits<char>, std::allocator<char> >, int> > >::operator[]
FUNC 1ce50 1a 0 std::_Rb_tree<std::basic_string<char, std::char_traits<char>, std::allocator<char> >, std::pair<const std::basic_string<char, std::char_traits<char>, std::allocator<char> >, int>, std::_Select1st<std::pair<const std::basic_string<char, std::char_traits<char>, std::allocator<char> >, int> >, std::less<std::basic_string<char, std::char_traits<char>, std::allocator<char> > >, std::allocator<std::pair<const std::basic_string<char, std::char_traits<char>, std::allocator<char> >, int> > >::_Rb_tree
FUNC 1ce6a 1a 0 std::allocator<std::_Rb_tree_node<std::pair<const std::basic_string<char, std::char_traits<char>, std::allocator<char> >, int> > >::~allocator
FUNC 1ce84 69 0 std::_Rb_tree<std::basic_string<char, std::char_traits<char>, std::allocator<char> >, std::pair<const std::basic_string<char, std::char_traits<char>, std::allocator<char> >, int>, std::_Select1st<std::pair<const std::basic_string<char, std::char_traits<char>, std::allocator<char> >, int> >, std::less<std::basic_string<char, std::char_traits<char>, std::allocator<char> > >, std::allocator<std::pair<const std::basic_string<char, std::char_traits<char>, std::allocator<char> >, int> > >::_M_erase
FUNC 1ceee 12 0 std::_Rb_tree<std::basic_string<char, std::char_traits<char>, std::allocator<char> >, std::pair<const std::basic_string<char, std::char_traits<char>, std::allocator<char> >, int>, std::_Select1st<std::pair<const std::basic_string<char, std::char_traits<char>, std::allocator<char> >, int> >, std::less<std::basic_string<char, std::char_traits<char>, std::allocator<char> > >, std::allocator<std::pair<const std::basic_string<char, std::char_traits<char>, std::allocator<char> >, int> > >::_M_begin
FUNC 1cf00 8d 0 std::_Rb_tree<std::basic_string<char, std::char_traits<char>, std::allocator<char> >, std::pair<const std::basic_string<char, std::char_traits<char>, std::allocator<char> >, int>, std::_Select1st<std::pair<const std::basic_string<char, std::char_traits<char>, std::allocator<char> >, int> >, std::less<std::basic_string<char, std::char_traits<char>, std::allocator<char> > >, std::allocator<std::pair<const std::basic_string<char, std::char_traits<char>, std::allocator<char> >, int> > >::clear
FUNC 1cf8e 25 0 std::map<std::basic_string<char, std::char_traits<char>, std::allocator<char> >, int, std::less<std::basic_string<char, std::char_traits<char>, std::allocator<char> > >, std::allocator<std::pair<const std::basic_string<char, std::char_traits<char>, std::allocator<char> >, int> > >::lower_bound
FUNC 1cfb4 1a 0 std::map<std::basic_string<char, std::char_traits<char>, std::allocator<char> >, int, std::less<std::basic_string<char, std::char_traits<char>, std::allocator<char> > >, std::allocator<std::pair<const std::basic_string<char, std::char_traits<char>, std::allocator<char> >, int> > >::key_comp
FUNC 1cfce 15 0 std::_Rb_tree_iterator<std::pair<const std::basic_string<char, std::char_traits<char>, std::allocator<char> >, int> >::operator*
FUNC 1cfe4 1a 0 std::map<std::basic_string<char, std::char_traits<char>, std::allocator<char> >, int, std::less<std::basic_string<char, std::char_traits<char>, std::allocator<char> > >, std::allocator<std::pair<const std::basic_string<char, std::char_traits<char>, std::allocator<char> >, int> > >::end
FUNC 1cffe 22 0 std::_Rb_tree_iterator<std::pair<const std::basic_string<char, std::char_traits<char>, std::allocator<char> >, int> >::operator==
FUNC 1d020 36 0 std::pair<const std::basic_string<char, std::char_traits<char>, std::allocator<char> >, int>::pair
FUNC 1d056 40 0 std::map<std::basic_string<char, std::char_traits<char>, std::allocator<char> >, int, std::less<std::basic_string<char, std::char_traits<char>, std::allocator<char> > >, std::allocator<std::pair<const std::basic_string<char, std::char_traits<char>, std::allocator<char> >, int> > >::insert
FUNC 1d096 8c 0 std::_Rb_tree<std::basic_string<char, std::char_traits<char>, std::allocator<char> >, std::pair<const std::basic_string<char, std::char_traits<char>, std::allocator<char> >, int>, std::_Select1st<std::pair<const std::basic_string<char, std::char_traits<char>, std::allocator<char> >, int> >, std::less<std::basic_string<char, std::char_traits<char>, std::allocator<char> > >, std::allocator<std::pair<const std::basic_string<char, std::char_traits<char>, std::allocator<char> >, int> > >::_Rb_tree_impl<std::less<std::basic_string<char, std::char_traits<char>, std::allocator<char> > >, false>::_Rb_tree_impl
FUNC 1d122 a 0 __gnu_cxx::new_allocator<std::_Rb_tree_node<std::pair<const std::basic_string<char, std::char_traits<char>, std::allocator<char> >, int> > >::~new_allocator
FUNC 1d12c 12 0 std::_Rb_tree<std::basic_string<char, std::char_traits<char>, std::allocator<char> >, std::pair<const std::basic_string<char, std::char_traits<char>, std::allocator<char> >, int>, std::_Select1st<std::pair<const std::basic_string<char, std::char_traits<char>, std::allocator<char> >, int> >, std::less<std::basic_string<char, std::char_traits<char>, std::allocator<char> > >, std::allocator<std::pair<const std::basic_string<char, std::char_traits<char>, std::allocator<char> >, int> > >::_S_right
FUNC 1d13e 12 0 std::_Rb_tree<std::basic_string<char, std::char_traits<char>, std::allocator<char> >, std::pair<const std::basic_string<char, std::char_traits<char>, std::allocator<char> >, int>, std::_Select1st<std::pair<const std::basic_string<char, std::char_traits<char>, std::allocator<char> >, int> >, std::less<std::basic_string<char, std::char_traits<char>, std::allocator<char> > >, std::allocator<std::pair<const std::basic_string<char, std::char_traits<char>, std::allocator<char> >, int> > >::_S_left
FUNC 1d150 86 0 std::_Rb_tree<std::basic_string<char, std::char_traits<char>, std::allocator<char> >, std::pair<const std::basic_string<char, std::char_traits<char>, std::allocator<char> >, int>, std::_Select1st<std::pair<const std::basic_string<char, std::char_traits<char>, std::allocator<char> >, int> >, std::less<std::basic_string<char, std::char_traits<char>, std::allocator<char> > >, std::allocator<std::pair<const std::basic_string<char, std::char_traits<char>, std::allocator<char> >, int> > >::_M_destroy_node
FUNC 1d1d6 12 0 std::_Rb_tree<std::basic_string<char, std::char_traits<char>, std::allocator<char> >, std::pair<const std::basic_string<char, std::char_traits<char>, std::allocator<char> >, int>, std::_Select1st<std::pair<const std::basic_string<char, std::char_traits<char>, std::allocator<char> >, int> >, std::less<std::basic_string<char, std::char_traits<char>, std::allocator<char> > >, std::allocator<std::pair<const std::basic_string<char, std::char_traits<char>, std::allocator<char> >, int> > >::_M_end
FUNC 1d1e8 12 0 std::_Rb_tree<std::basic_string<char, std::char_traits<char>, std::allocator<char> >, std::pair<const std::basic_string<char, std::char_traits<char>, std::allocator<char> >, int>, std::_Select1st<std::pair<const std::basic_string<char, std::char_traits<char>, std::allocator<char> >, int> >, std::less<std::basic_string<char, std::char_traits<char>, std::allocator<char> > >, std::allocator<std::pair<const std::basic_string<char, std::char_traits<char>, std::allocator<char> >, int> > >::_M_leftmost
FUNC 1d1fa 12 0 std::_Rb_tree<std::basic_string<char, std::char_traits<char>, std::allocator<char> >, std::pair<const std::basic_string<char, std::char_traits<char>, std::allocator<char> >, int>, std::_Select1st<std::pair<const std::basic_string<char, std::char_traits<char>, std::allocator<char> >, int> >, std::less<std::basic_string<char, std::char_traits<char>, std::allocator<char> > >, std::allocator<std::pair<const std::basic_string<char, std::char_traits<char>, std::allocator<char> >, int> > >::_M_root
FUNC 1d20c 12 0 std::_Rb_tree<std::basic_string<char, std::char_traits<char>, std::allocator<char> >, std::pair<const std::basic_string<char, std::char_traits<char>, std::allocator<char> >, int>, std::_Select1st<std::pair<const std::basic_string<char, std::char_traits<char>, std::allocator<char> >, int> >, std::less<std::basic_string<char, std::char_traits<char>, std::allocator<char> > >, std::allocator<std::pair<const std::basic_string<char, std::char_traits<char>, std::allocator<char> >, int> > >::_M_rightmost
FUNC 1d21e 53 0 std::_Rb_tree<std::basic_string<char, std::char_traits<char>, std::allocator<char> >, std::pair<const std::basic_string<char, std::char_traits<char>, std::allocator<char> >, int>, std::_Select1st<std::pair<const std::basic_string<char, std::char_traits<char>, std::allocator<char> >, int> >, std::less<std::basic_string<char, std::char_traits<char>, std::allocator<char> > >, std::allocator<std::pair<const std::basic_string<char, std::char_traits<char>, std::allocator<char> >, int> > >::lower_bound
FUNC 1d272 a 0 std::_Rb_tree<std::basic_string<char, std::char_traits<char>, std::allocator<char> >, std::pair<const std::basic_string<char, std::char_traits<char>, std::allocator<char> >, int>, std::_Select1st<std::pair<const std::basic_string<char, std::char_traits<char>, std::allocator<char> >, int> >, std::less<std::basic_string<char, std::char_traits<char>, std::allocator<char> > >, std::allocator<std::pair<const std::basic_string<char, std::char_traits<char>, std::allocator<char> >, int> > >::key_comp
FUNC 1d27c 2c 0 std::_Rb_tree<std::basic_string<char, std::char_traits<char>, std::allocator<char> >, std::pair<const std::basic_string<char, std::char_traits<char>, std::allocator<char> >, int>, std::_Select1st<std::pair<const std::basic_string<char, std::char_traits<char>, std::allocator<char> >, int> >, std::less<std::basic_string<char, std::char_traits<char>, std::allocator<char> > >, std::allocator<std::pair<const std::basic_string<char, std::char_traits<char>, std::allocator<char> >, int> > >::end
FUNC 1d2a8 1c 0 std::_Rb_tree_const_iterator<std::pair<const std::basic_string<char, std::char_traits<char>, std::allocator<char> >, int> >::_Rb_tree_const_iterator
FUNC 1d2c4 4c0 0 std::_Rb_tree<std::basic_string<char, std::char_traits<char>, std::allocator<char> >, std::pair<const std::basic_string<char, std::char_traits<char>, std::allocator<char> >, int>, std::_Select1st<std::pair<const std::basic_string<char, std::char_traits<char>, std::allocator<char> >, int> >, std::less<std::basic_string<char, std::char_traits<char>, std::allocator<char> > >, std::allocator<std::pair<const std::basic_string<char, std::char_traits<char>, std::allocator<char> >, int> > >::_M_insert_unique_
FUNC 1d784 1a 0 std::allocator<std::_Rb_tree_node<std::pair<const std::basic_string<char, std::char_traits<char>, std::allocator<char> >, int> > >::allocator
FUNC 1d79e 41 0 std::_Rb_tree<std::basic_string<char, std::char_traits<char>, std::allocator<char> >, std::pair<const std::basic_string<char, std::char_traits<char>, std::allocator<char> >, int>, std::_Select1st<std::pair<const std::basic_string<char, std::char_traits<char>, std::allocator<char> >, int> >, std::less<std::basic_string<char, std::char_traits<char>, std::allocator<char> > >, std::allocator<std::pair<const std::basic_string<char, std::char_traits<char>, std::allocator<char> >, int> > >::_Rb_tree_impl<std::less<std::basic_string<char, std::char_traits<char>, std::allocator<char> > >, false>::_M_initialize
FUNC 1d7e0 3b 0 std::_Rb_tree<std::basic_string<char, std::char_traits<char>, std::allocator<char> >, std::pair<const std::basic_string<char, std::char_traits<char>, std::allocator<char> >, int>, std::_Select1st<std::pair<const std::basic_string<char, std::char_traits<char>, std::allocator<char> >, int> >, std::less<std::basic_string<char, std::char_traits<char>, std::allocator<char> > >, std::allocator<std::pair<const std::basic_string<char, std::char_traits<char>, std::allocator<char> >, int> > >::get_allocator
FUNC 1d81c 1a 0 std::allocator<std::pair<const std::basic_string<char, std::char_traits<char>, std::allocator<char> >, int> >::~allocator
FUNC 1d836 1e 0 __gnu_cxx::new_allocator<std::pair<const std::basic_string<char, std::char_traits<char>, std::allocator<char> >, int> >::destroy
FUNC 1d854 2a 0 std::_Rb_tree<std::basic_string<char, std::char_traits<char>, std::allocator<char> >, std::pair<const std::basic_string<char, std::char_traits<char>, std::allocator<char> >, int>, std::_Select1st<std::pair<const std::basic_string<char, std::char_traits<char>, std::allocator<char> >, int> >, std::less<std::basic_string<char, std::char_traits<char>, std::allocator<char> > >, std::allocator<std::pair<const std::basic_string<char, std::char_traits<char>, std::allocator<char> >, int> > >::_M_put_node
FUNC 1d87e 92 0 std::_Rb_tree<std::basic_string<char, std::char_traits<char>, std::allocator<char> >, std::pair<const std::basic_string<char, std::char_traits<char>, std::allocator<char> >, int>, std::_Select1st<std::pair<const std::basic_string<char, std::char_traits<char>, std::allocator<char> >, int> >, std::less<std::basic_string<char, std::char_traits<char>, std::allocator<char> > >, std::allocator<std::pair<const std::basic_string<char, std::char_traits<char>, std::allocator<char> >, int> > >::_M_lower_bound
FUNC 1d910 19 0 std::_Rb_tree_iterator<std::pair<const std::basic_string<char, std::char_traits<char>, std::allocator<char> >, int> >::_Rb_tree_iterator
FUNC 1d929 2c 0 std::_Rb_tree<std::basic_string<char, std::char_traits<char>, std::allocator<char> >, std::pair<const std::basic_string<char, std::char_traits<char>, std::allocator<char> >, int>, std::_Select1st<std::pair<const std::basic_string<char, std::char_traits<char>, std::allocator<char> >, int> >, std::less<std::basic_string<char, std::char_traits<char>, std::allocator<char> > >, std::allocator<std::pair<const std::basic_string<char, std::char_traits<char>, std::allocator<char> >, int> > >::_S_key
FUNC 1d956 12 0 std::_Select1st<std::pair<const std::basic_string<char, std::char_traits<char>, std::allocator<char> >, int> >::operator()
FUNC 1d968 12 0 std::_Rb_tree<std::basic_string<char, std::char_traits<char>, std::allocator<char> >, std::pair<const std::basic_string<char, std::char_traits<char>, std::allocator<char> >, int>, std::_Select1st<std::pair<const std::basic_string<char, std::char_traits<char>, std::allocator<char> >, int> >, std::less<std::basic_string<char, std::char_traits<char>, std::allocator<char> > >, std::allocator<std::pair<const std::basic_string<char, std::char_traits<char>, std::allocator<char> >, int> > >::size
FUNC 1d97a e3 0 std::_Rb_tree<std::basic_string<char, std::char_traits<char>, std::allocator<char> >, std::pair<const std::basic_string<char, std::char_traits<char>, std::allocator<char> >, int>, std::_Select1st<std::pair<const std::basic_string<char, std::char_traits<char>, std::allocator<char> >, int> >, std::less<std::basic_string<char, std::char_traits<char>, std::allocator<char> > >, std::allocator<std::pair<const std::basic_string<char, std::char_traits<char>, std::allocator<char> >, int> > >::_M_insert_
FUNC 1da5e 271 0 std::_Rb_tree<std::basic_string<char, std::char_traits<char>, std::allocator<char> >, std::pair<const std::basic_string<char, std::char_traits<char>, std::allocator<char> >, int>, std::_Select1st<std::pair<const std::basic_string<char, std::char_traits<char>, std::allocator<char> >, int> >, std::less<std::basic_string<char, std::char_traits<char>, std::allocator<char> > >, std::allocator<std::pair<const std::basic_string<char, std::char_traits<char>, std::allocator<char> >, int> > >::_M_insert_unique
FUNC 1dcd0 28 0 std::_Rb_tree_const_iterator<std::pair<const std::basic_string<char, std::char_traits<char>, std::allocator<char> >, int> >::operator--
FUNC 1dcf8 12 0 std::_Rb_tree<std::basic_string<char, std::char_traits<char>, std::allocator<char> >, std::pair<const std::basic_string<char, std::char_traits<char>, std::allocator<char> >, int>, std::_Select1st<std::pair<const std::basic_string<char, std::char_traits<char>, std::allocator<char> >, int> >, std::less<std::basic_string<char, std::char_traits<char>, std::allocator<char> > >, std::allocator<std::pair<const std::basic_string<char, std::char_traits<char>, std::allocator<char> >, int> > >::_S_right
FUNC 1dd0a 28 0 std::_Rb_tree_const_iterator<std::pair<const std::basic_string<char, std::char_traits<char>, std::allocator<char> >, int> >::operator++
FUNC 1dd32 a 0 __gnu_cxx::new_allocator<std::_Rb_tree_node<std::pair<const std::basic_string<char, std::char_traits<char>, std::allocator<char> >, int> > >::new_allocator
FUNC 1dd3c e 0 std::_Rb_tree<std::basic_string<char, std::char_traits<char>, std::allocator<char> >, std::pair<const std::basic_string<char, std::char_traits<char>, std::allocator<char> >, int>, std::_Select1st<std::pair<const std::basic_string<char, std::char_traits<char>, std::allocator<char> >, int> >, std::less<std::basic_string<char, std::char_traits<char>, std::allocator<char> > >, std::allocator<std::pair<const std::basic_string<char, std::char_traits<char>, std::allocator<char> >, int> > >::_M_get_Node_allocator
FUNC 1dd4a 1e 0 std::allocator<std::pair<const std::basic_string<char, std::char_traits<char>, std::allocator<char> >, int> >::allocator<std::_Rb_tree_node<std::pair<const std::basic_string<char, std::char_traits<char>, std::allocator<char> >, int> > >
FUNC 1dd68 a 0 __gnu_cxx::new_allocator<std::pair<const std::basic_string<char, std::char_traits<char>, std::allocator<char> >, int> >::~new_allocator
FUNC 1dd72 22 0 __gnu_cxx::new_allocator<std::_Rb_tree_node<std::pair<const std::basic_string<char, std::char_traits<char>, std::allocator<char> >, int> > >::deallocate
FUNC 1dd94 2c 0 std::_Rb_tree<std::basic_string<char, std::char_traits<char>, std::allocator<char> >, std::pair<const std::basic_string<char, std::char_traits<char>, std::allocator<char> >, int>, std::_Select1st<std::pair<const std::basic_string<char, std::char_traits<char>, std::allocator<char> >, int> >, std::less<std::basic_string<char, std::char_traits<char>, std::allocator<char> > >, std::allocator<std::pair<const std::basic_string<char, std::char_traits<char>, std::allocator<char> >, int> > >::_S_key
FUNC 1ddc0 12 0 std::_Rb_tree<std::basic_string<char, std::char_traits<char>, std::allocator<char> >, std::pair<const std::basic_string<char, std::char_traits<char>, std::allocator<char> >, int>, std::_Select1st<std::pair<const std::basic_string<char, std::char_traits<char>, std::allocator<char> >, int> >, std::less<std::basic_string<char, std::char_traits<char>, std::allocator<char> > >, std::allocator<std::pair<const std::basic_string<char, std::char_traits<char>, std::allocator<char> >, int> > >::_S_value
FUNC 1ddd2 bd 0 std::_Rb_tree<std::basic_string<char, std::char_traits<char>, std::allocator<char> >, std::pair<const std::basic_string<char, std::char_traits<char>, std::allocator<char> >, int>, std::_Select1st<std::pair<const std::basic_string<char, std::char_traits<char>, std::allocator<char> >, int> >, std::less<std::basic_string<char, std::char_traits<char>, std::allocator<char> > >, std::allocator<std::pair<const std::basic_string<char, std::char_traits<char>, std::allocator<char> >, int> > >::_M_create_node
FUNC 1de90 2c 0 std::_Rb_tree<std::basic_string<char, std::char_traits<char>, std::allocator<char> >, std::pair<const std::basic_string<char, std::char_traits<char>, std::allocator<char> >, int>, std::_Select1st<std::pair<const std::basic_string<char, std::char_traits<char>, std::allocator<char> >, int> >, std::less<std::basic_string<char, std::char_traits<char>, std::allocator<char> > >, std::allocator<std::pair<const std::basic_string<char, std::char_traits<char>, std::allocator<char> >, int> > >::begin
FUNC 1debc 2e 0 std::pair<std::_Rb_tree_iterator<std::pair<const std::basic_string<char, std::char_traits<char>, std::allocator<char> >, int> >, bool>::pair
FUNC 1deea 28 0 std::_Rb_tree_iterator<std::pair<const std::basic_string<char, std::char_traits<char>, std::allocator<char> >, int> >::operator--
FUNC 1df12 a 0 __gnu_cxx::new_allocator<std::pair<const std::basic_string<char, std::char_traits<char>, std::allocator<char> >, int> >::new_allocator
FUNC 1df1c 12 0 std::_Rb_tree<std::basic_string<char, std::char_traits<char>, std::allocator<char> >, std::pair<const std::basic_string<char, std::char_traits<char>, std::allocator<char> >, int>, std::_Select1st<std::pair<const std::basic_string<char, std::char_traits<char>, std::allocator<char> >, int> >, std::less<std::basic_string<char, std::char_traits<char>, std::allocator<char> > >, std::allocator<std::pair<const std::basic_string<char, std::char_traits<char>, std::allocator<char> >, int> > >::_S_value
FUNC 1df2e 24 0 std::_Rb_tree<std::basic_string<char, std::char_traits<char>, std::allocator<char> >, std::pair<const std::basic_string<char, std::char_traits<char>, std::allocator<char> >, int>, std::_Select1st<std::pair<const std::basic_string<char, std::char_traits<char>, std::allocator<char> >, int> >, std::less<std::basic_string<char, std::char_traits<char>, std::allocator<char> > >, std::allocator<std::pair<const std::basic_string<char, std::char_traits<char>, std::allocator<char> >, int> > >::_M_get_node
FUNC 1df52 33 0 std::pair<const std::basic_string<char, std::char_traits<char>, std::allocator<char> >, int>::pair
FUNC 1df86 77 0 __gnu_cxx::new_allocator<std::pair<const std::basic_string<char, std::char_traits<char>, std::allocator<char> >, int> >::construct
FUNC 1dffe 54 0 __gnu_cxx::new_allocator<std::_Rb_tree_node<std::pair<const std::basic_string<char, std::char_traits<char>, std::allocator<char> >, int> > >::allocate
FUNC 1e052 14 0 __gnu_cxx::new_allocator<std::_Rb_tree_node<std::pair<const std::basic_string<char, std::char_traits<char>, std::allocator<char> >, int> > >::max_size
FUNC 1e068 28 0 IEC103Manager::IEC103Manager
FUNC 1e090 61 0 IEC103Manager::~IEC103Manager
FUNC 1e0f2 26 0 IEC103Manager::~IEC103Manager
FUNC 1e118 c8f 0 IEC103Manager::Init
FUNC 1eda8 2d 0 IEC103Manager::Start
FUNC 1edd6 1b 0 IEC103Manager::Stop
FUNC 1edf2 62 0 IEC103Manager::SignalHandle
FUNC 1ee54 257 0 __static_initialization_and_destruction_0
FUNC 1f0ab 15 0 _GLOBAL__I_IEC103Manager.cpp
FUNC 1f0c0 1a 0 std::char_traits<char>::length
FUNC 1f0da 2e 0 std::_Rb_tree_node_base::_S_minimum
FUNC 1f108 2e 0 std::_Rb_tree_node_base::_S_maximum
FUNC 1f136 33 0 Config::GetChannelName
FUNC 1f16a 12 0 Config::GetNetType
FUNC 1f17c 29 0 Config::SetIp
FUNC 1f1a6 1a 0 Config::SetUdpPort
FUNC 1f1c0 14 0 Config::GetIec103RunType
FUNC 1f1d4 37 0 boost::thread_exception::thread_exception
FUNC 1f20c 39 0 boost::thread_exception::thread_exception
FUNC 1f246 41 0 boost::thread_exception::~thread_exception
FUNC 1f288 26 0 boost::thread_exception::~thread_exception
FUNC 1f2ae 34 0 boost::lock_error::lock_error
FUNC 1f2e2 41 0 boost::lock_error::~lock_error
FUNC 1f324 26 0 boost::lock_error::~lock_error
FUNC 1f34a 11 0 boost::lock_error::what
FUNC 1f35c 2c 0 boost::thread_resource_error::thread_resource_error
FUNC 1f388 41 0 boost::thread_resource_error::~thread_resource_error
FUNC 1f3ca 26 0 boost::thread_resource_error::~thread_resource_error
FUNC 1f3f0 11 0 boost::thread_resource_error::what
FUNC 1f401 a 0 boost::throw_exception_assert_compatibility
FUNC 1f40c 69 0 boost::mutex::mutex
FUNC 1f476 3d 0 boost::mutex::~mutex
FUNC 1f4b4 69 0 boost::mutex::lock
FUNC 1f51e 3d 0 boost::mutex::unlock
FUNC 1f55c 2c 0 Log::Logger::setlogPath
FUNC 1f588 bd 0 stLogInfo::stLogInfo
FUNC 1f646 5d 0 stLogInfo::~stLogInfo
FUNC 1f6a4 d1 0 WgjFunctionEx::LogSend
FUNC 1f776 1a 0 std::map<std::basic_string<char, std::char_traits<char>, std::allocator<char> >, IEC103::stConfigParam, std::less<std::basic_string<char, std::char_traits<char>, std::allocator<char> > >, std::allocator<std::pair<const std::basic_string<char, std::char_traits<char>, std::allocator<char> >, IEC103::stConfigParam> > >::~map
FUNC 1f790 1a 0 std::map<std::basic_string<char, std::char_traits<char>, std::allocator<char> >, std::map<std::basic_string<char, std::char_traits<char>, std::allocator<char> >, std::basic_string<char, std::char_traits<char>, std::allocator<char> >, std::less<std::basic_string<char, std::char_traits<char>, std::allocator<char> > >, std::allocator<std::pair<const std::basic_string<char, std::char_traits<char>, std::allocator<char> >, std::basic_string<char, std::char_traits<char>, std::allocator<char> > > > >, std::less<std::basic_string<char, std::char_traits<char>, std::allocator<char> > >, std::allocator<std::pair<const std::basic_string<char, std::char_traits<char>, std::allocator<char> >, std::map<std::basic_string<char, std::char_traits<char>, std::allocator<char> >, std::basic_string<char, std::char_traits<char>, std::allocator<char> >, std::less<std::basic_string<char, std::char_traits<char>, std::allocator<char> > >, std::allocator<std::pair<const std::basic_string<char, std::char_traits<char>, std::allocator<char> >, std::basic_string<char, std::char_traits<char>, std::allocator<char> > > > > > > >::~map
FUNC 1f7aa 45 0 boost::thread_exception::thread_exception
FUNC 1f7f0 37 0 boost::thread_resource_error::thread_resource_error
FUNC 1f828 8e 0 boost::exception_detail::error_info_injector<boost::thread_resource_error>::error_info_injector
FUNC 1f8b6 78 0 boost::exception_detail::clone_impl<boost::exception_detail::error_info_injector<boost::thread_resource_error> >::clone_impl
FUNC 1f92e ac 0 boost::throw_exception<boost::thread_resource_error>
FUNC 1f9da 37 0 boost::lock_error::lock_error
FUNC 1fa12 8e 0 boost::exception_detail::error_info_injector<boost::lock_error>::error_info_injector
FUNC 1faa0 78 0 boost::exception_detail::clone_impl<boost::exception_detail::error_info_injector<boost::lock_error> >::clone_impl
FUNC 1fb18 ac 0 boost::throw_exception<boost::lock_error>
FUNC 1fbc4 2c 0 boost::lock_guard<boost::mutex>::lock_guard
FUNC 1fbf0 1d 0 boost::lock_guard<boost::mutex>::~lock_guard
FUNC 1fc0d ae 0 std::operator+<char, std::char_traits<char>, std::allocator<char> >
FUNC 1fcbc 34 0 std::list<stLogInfo, std::allocator<stLogInfo> >::push_back
FUNC 1fcf0 e5 0 DesignPattern::Singleton<Log::Logger, 0>::instance
FUNC 1fdd5 6e 0 std::operator+<char, std::char_traits<char>, std::allocator<char> >
FUNC 1fe44 1a 0 std::_Rb_tree<std::basic_string<char, std::char_traits<char>, std::allocator<char> >, std::pair<const std::basic_string<char, std::char_traits<char>, std::allocator<char> >, IEC103::stConfigParam>, std::_Select1st<std::pair<const std::basic_string<char, std::char_traits<char>, std::allocator<char> >, IEC103::stConfigParam> >, std::less<std::basic_string<char, std::char_traits<char>, std::allocator<char> > >, std::allocator<std::pair<const std::basic_string<char, std::char_traits<char>, std::allocator<char> >, IEC103::stConfigParam> > >::_Rb_tree_impl<std::less<std::basic_string<char, std::char_traits<char>, std::allocator<char> > >, false>::~_Rb_tree_impl
FUNC 1fe5e 63 0 std::_Rb_tree<std::basic_string<char, std::char_traits<char>, std::allocator<char> >, std::pair<const std::basic_string<char, std::char_traits<char>, std::allocator<char> >, IEC103::stConfigParam>, std::_Select1st<std::pair<const std::basic_string<char, std::char_traits<char>, std::allocator<char> >, IEC103::stConfigParam> >, std::less<std::basic_string<char, std::char_traits<char>, std::allocator<char> > >, std::allocator<std::pair<const std::basic_string<char, std::char_traits<char>, std::allocator<char> >, IEC103::stConfigParam> > >::~_Rb_tree
FUNC 1fec2 1a 0 std::map<std::basic_string<char, std::char_traits<char>, std::allocator<char> >, IEC103::stConfigParam, std::less<std::basic_string<char, std::char_traits<char>, std::allocator<char> > >, std::allocator<std::pair<const std::basic_string<char, std::char_traits<char>, std::allocator<char> >, IEC103::stConfigParam> > >::size
FUNC 1fedc 1a 0 std::map<std::basic_string<char, std::char_traits<char>, std::allocator<char> >, IEC103::stConfigParam, std::less<std::basic_string<char, std::char_traits<char>, std::allocator<char> > >, std::allocator<std::pair<const std::basic_string<char, std::char_traits<char>, std::allocator<char> >, IEC103::stConfigParam> > >::begin
FUNC 1fef6 15 0 std::_Rb_tree_iterator<std::pair<const std::basic_string<char, std::char_traits<char>, std::allocator<char> >, IEC103::stConfigParam> >::operator->
FUNC 1ff0c 1a 0 std::_Rb_tree<std::basic_string<char, std::char_traits<char>, std::allocator<char> >, std::pair<const std::basic_string<char, std::char_traits<char>, std::allocator<char> >, std::map<std::basic_string<char, std::char_traits<char>, std::allocator<char> >, std::basic_string<char, std::char_traits<char>, std::allocator<char> >, std::less<std::basic_string<char, std::char_traits<char>, std::allocator<char> > >, std::allocator<std::pair<const std::basic_string<char, std::char_traits<char>, std::allocator<char> >, std::basic_string<char, std::char_traits<char>, std::allocator<char> > > > > >, std::_Select1st<std::pair<const std::basic_string<char, std::char_traits<char>, std::allocator<char> >, std::map<std::basic_string<char, std::char_traits<char>, std::allocator<char> >, std::basic_string<char, std::char_traits<char>, std::allocator<char> >, std::less<std::basic_string<char, std::char_traits<char>, std::allocator<char> > >, std::allocator<std::pair<const std::basic_string<char, std::char_traits<char>, std::allocator<char> >, std::basic_string<char, std::char_traits<char>, std::allocator<char> > > > > > >, std::less<std::basic_string<char, std::char_traits<char>, std::allocator<char> > >, std::allocator<std::pair<const std::basic_string<char, std::char_traits<char>, std::allocator<char> >, std::map<std::basic_string<char, std::char_traits<char>, std::allocator<char> >, std::basic_string<char, std::char_traits<char>, std::allocator<char> >, std::less<std::basic_string<char, std::char_traits<char>, std::allocator<char> > >, std::allocator<std::pair<const std::basic_string<char, std::char_traits<char>, std::allocator<char> >, std::basic_string<char, std::char_traits<char>, std::allocator<char> > > > > > > >::_Rb_tree_impl<std::less<std::basic_string<char, std::char_traits<char>, std::allocator<char> > >, false>::~_Rb_tree_impl
FUNC 1ff26 63 0 std::_Rb_tree<std::basic_string<char, std::char_traits<char>, std::allocator<char> >, std::pair<const std::basic_string<char, std::char_traits<char>, std::allocator<char> >, std::map<std::basic_string<char, std::char_traits<char>, std::allocator<char> >, std::basic_string<char, std::char_traits<char>, std::allocator<char> >, std::less<std::basic_string<char, std::char_traits<char>, std::allocator<char> > >, std::allocator<std::pair<const std::basic_string<char, std::char_traits<char>, std::allocator<char> >, std::basic_string<char, std::char_traits<char>, std::allocator<char> > > > > >, std::_Select1st<std::pair<const std::basic_string<char, std::char_traits<char>, std::allocator<char> >, std::map<std::basic_string<char, std::char_traits<char>, std::allocator<char> >, std::basic_string<char, std::char_traits<char>, std::allocator<char> >, std::less<std::basic_string<char, std::char_traits<char>, std::allocator<char> > >, std::allocator<std::pair<const std::basic_string<char, std::char_traits<char>, std::allocator<char> >, std::basic_string<char, std::char_traits<char>, std::allocator<char> > > > > > >, std::less<std::basic_string<char, std::char_traits<char>, std::allocator<char> > >, std::allocator<std::pair<const std::basic_string<char, std::char_traits<char>, std::allocator<char> >, std::map<std::basic_string<char, std::char_traits<char>, std::allocator<char> >, std::basic_string<char, std::char_traits<char>, std::allocator<char> >, std::less<std::basic_string<char, std::char_traits<char>, std::allocator<char> > >, std::allocator<std::pair<const std::basic_string<char, std::char_traits<char>, std::allocator<char> >, std::basic_string<char, std::char_traits<char>, std::allocator<char> > > > > > > >::~_Rb_tree
FUNC 1ff8a 1a 0 std::map<std::basic_string<char, std::char_traits<char>, std::allocator<char> >, std::map<std::basic_string<char, std::char_traits<char>, std::allocator<char> >, std::basic_string<char, std::char_traits<char>, std::allocator<char> >, std::less<std::basic_string<char, std::char_traits<char>, std::allocator<char> > >, std::allocator<std::pair<const std::basic_string<char, std::char_traits<char>, std::allocator<char> >, std::basic_string<char, std::char_traits<char>, std::allocator<char> > > > >, std::less<std::basic_string<char, std::char_traits<char>, std::allocator<char> > >, std::allocator<std::pair<const std::basic_string<char, std::char_traits<char>, std::allocator<char> >, std::map<std::basic_string<char, std::char_traits<char>, std::allocator<char> >, std::basic_string<char, std::char_traits<char>, std::allocator<char> >, std::less<std::basic_string<char, std::char_traits<char>, std::allocator<char> > >, std::allocator<std::pair<const std::basic_string<char, std::char_traits<char>, std::allocator<char> >, std::basic_string<char, std::char_traits<char>, std::allocator<char> > > > > > > >::begin
FUNC 1ffa4 15 0 std::_Rb_tree_iterator<std::pair<const std::basic_string<char, std::char_traits<char>, std::allocator<char> >, std::map<std::basic_string<char, std::char_traits<char>, std::allocator<char> >, std::basic_string<char, std::char_traits<char>, std::allocator<char> >, std::less<std::basic_string<char, std::char_traits<char>, std::allocator<char> > >, std::allocator<std::pair<const std::basic_string<char, std::char_traits<char>, std::allocator<char> >, std::basic_string<char, std::char_traits<char>, std::allocator<char> > > > > > >::operator->
FUNC 1ffba 25 0 std::map<std::basic_string<char, std::char_traits<char>, std::allocator<char> >, std::basic_string<char, std::char_traits<char>, std::allocator<char> >, std::less<std::basic_string<char, std::char_traits<char>, std::allocator<char> > >, std::allocator<std::pair<const std::basic_string<char, std::char_traits<char>, std::allocator<char> >, std::basic_string<char, std::char_traits<char>, std::allocator<char> > > > >::map
FUNC 1ffe0 b9 0 std::vector<std::basic_string<char, std::char_traits<char>, std::allocator<char> >, std::allocator<std::basic_string<char, std::char_traits<char>, std::allocator<char> > > >::vector
FUNC 20099 2f 0 boost::enable_error_info<boost::thread_resource_error>
FUNC 200c8 a1 0 boost::exception_detail::error_info_injector<boost::thread_resource_error>::~error_info_injector
FUNC 20178 26 0 boost::exception_detail::error_info_injector<boost::thread_resource_error>::~error_info_injector
FUNC 2019e 2f 0 boost::enable_current_exception<boost::exception_detail::error_info_injector<boost::thread_resource_error> >
FUNC 201ce 8f 0 boost::exception_detail::clone_impl<boost::exception_detail::error_info_injector<boost::thread_resource_error> >::~clone_impl
FUNC 2027c 26 0 boost::exception_detail::clone_impl<boost::exception_detail::error_info_injector<boost::thread_resource_error> >::~clone_impl
FUNC 202a2 2f 0 boost::enable_error_info<boost::lock_error>
FUNC 202d2 a1 0 boost::exception_detail::error_info_injector<boost::lock_error>::~error_info_injector
FUNC 20382 26 0 boost::exception_detail::error_info_injector<boost::lock_error>::~error_info_injector
FUNC 203a8 2f 0 boost::enable_current_exception<boost::exception_detail::error_info_injector<boost::lock_error> >
FUNC 203d8 8f 0 boost::exception_detail::clone_impl<boost::exception_detail::error_info_injector<boost::lock_error> >::~clone_impl
FUNC 20486 26 0 boost::exception_detail::clone_impl<boost::exception_detail::error_info_injector<boost::lock_error> >::~clone_impl
FUNC 204ac 25 0 std::list<stLogInfo, std::allocator<stLogInfo> >::end
FUNC 204d2 40 0 std::list<stLogInfo, std::allocator<stLogInfo> >::_M_insert
FUNC 20512 19 0 std::auto_ptr<Log::Logger>::auto_ptr
FUNC 2052c 11 0 std::auto_ptr<Log::Logger>::get
FUNC 2053e 64 0 std::auto_ptr<Log::Logger>::reset
FUNC 205a2 1a 0 std::allocator<std::_Rb_tree_node<std::pair<const std::basic_string<char, std::char_traits<char>, std::allocator<char> >, IEC103::stConfigParam> > >::~allocator
FUNC 205bc 69 0 std::_Rb_tree<std::basic_string<char, std::char_traits<char>, std::allocator<char> >, std::pair<const std::basic_string<char, std::char_traits<char>, std::allocator<char> >, IEC103::stConfigParam>, std::_Select1st<std::pair<const std::basic_string<char, std::char_traits<char>, std::allocator<char> >, IEC103::stConfigParam> >, std::less<std::basic_string<char, std::char_traits<char>, std::allocator<char> > >, std::allocator<std::pair<const std::basic_string<char, std::char_traits<char>, std::allocator<char> >, IEC103::stConfigParam> > >::_M_erase
FUNC 20626 12 0 std::_Rb_tree<std::basic_string<char, std::char_traits<char>, std::allocator<char> >, std::pair<const std::basic_string<char, std::char_traits<char>, std::allocator<char> >, IEC103::stConfigParam>, std::_Select1st<std::pair<const std::basic_string<char, std::char_traits<char>, std::allocator<char> >, IEC103::stConfigParam> >, std::less<std::basic_string<char, std::char_traits<char>, std::allocator<char> > >, std::allocator<std::pair<const std::basic_string<char, std::char_traits<char>, std::allocator<char> >, IEC103::stConfigParam> > >::_M_begin
FUNC 20638 12 0 std::_Rb_tree<std::basic_string<char, std::char_traits<char>, std::allocator<char> >, std::pair<const std::basic_string<char, std::char_traits<char>, std::allocator<char> >, IEC103::stConfigParam>, std::_Select1st<std::pair<const std::basic_string<char, std::char_traits<char>, std::allocator<char> >, IEC103::stConfigParam> >, std::less<std::basic_string<char, std::char_traits<char>, std::allocator<char> > >, std::allocator<std::pair<const std::basic_string<char, std::char_traits<char>, std::allocator<char> >, IEC103::stConfigParam> > >::size
FUNC 2064a 2c 0 std::_Rb_tree<std::basic_string<char, std::char_traits<char>, std::allocator<char> >, std::pair<const std::basic_string<char, std::char_traits<char>, std::allocator<char> >, IEC103::stConfigParam>, std::_Select1st<std::pair<const std::basic_string<char, std::char_traits<char>, std::allocator<char> >, IEC103::stConfigParam> >, std::less<std::basic_string<char, std::char_traits<char>, std::allocator<char> > >, std::allocator<std::pair<const std::basic_string<char, std::char_traits<char>, std::allocator<char> >, IEC103::stConfigParam> > >::begin
FUNC 20676 1a 0 std::allocator<std::_Rb_tree_node<std::pair<const std::basic_string<char, std::char_traits<char>, std::allocator<char> >, std::map<std::basic_string<char, std::char_traits<char>, std::allocator<char> >, std::basic_string<char, std::char_traits<char>, std::allocator<char> >, std::less<std::basic_string<char, std::char_traits<char>, std::allocator<char> > >, std::allocator<std::pair<const std::basic_string<char, std::char_traits<char>, std::allocator<char> >, std::basic_string<char, std::char_traits<char>, std::allocator<char> > > > > > > >::~allocator
FUNC 20690 69 0 std::_Rb_tree<std::basic_string<char, std::char_traits<char>, std::allocator<char> >, std::pair<const std::basic_string<char, std::char_traits<char>, std::allocator<char> >, std::map<std::basic_string<char, std::char_traits<char>, std::allocator<char> >, std::basic_string<char, std::char_traits<char>, std::allocator<char> >, std::less<std::basic_string<char, std::char_traits<char>, std::allocator<char> > >, std::allocator<std::pair<const std::basic_string<char, std::char_traits<char>, std::allocator<char> >, std::basic_string<char, std::char_traits<char>, std::allocator<char> > > > > >, std::_Select1st<std::pair<const std::basic_string<char, std::char_traits<char>, std::allocator<char> >, std::map<std::basic_string<char, std::char_traits<char>, std::allocator<char> >, std::basic_string<char, std::char_traits<char>, std::allocator<char> >, std::less<std::basic_string<char, std::char_traits<char>, std::allocator<char> > >, std::allocator<std::pair<const std::basic_string<char, std::char_traits<char>, std::allocator<char> >, std::basic_string<char, std::char_traits<char>, std::allocator<char> > > > > > >, std::less<std::basic_string<char, std::char_traits<char>, std::allocator<char> > >, std::allocator<std::pair<const std::basic_string<char, std::char_traits<char>, std::allocator<char> >, std::map<std::basic_string<char, std::char_traits<char>, std::allocator<char> >, std::basic_string<char, std::char_traits<char>, std::allocator<char> >, std::less<std::basic_string<char, std::char_traits<char>, std::allocator<char> > >, std::allocator<std::pair<const std::basic_string<char, std::char_traits<char>, std::allocator<char> >, std::basic_string<char, std::char_traits<char>, std::allocator<char> > > > > > > >::_M_erase
FUNC 206fa 12 0 std::_Rb_tree<std::basic_string<char, std::char_traits<char>, std::allocator<char> >, std::pair<const std::basic_string<char, std::char_traits<char>, std::allocator<char> >, std::map<std::basic_string<char, std::char_traits<char>, std::allocator<char> >, std::basic_string<char, std::char_traits<char>, std::allocator<char> >, std::less<std::basic_string<char, std::char_traits<char>, std::allocator<char> > >, std::allocator<std::pair<const std::basic_string<char, std::char_traits<char>, std::allocator<char> >, std::basic_string<char, std::char_traits<char>, std::allocator<char> > > > > >, std::_Select1st<std::pair<const std::basic_string<char, std::char_traits<char>, std::allocator<char> >, std::map<std::basic_string<char, std::char_traits<char>, std::allocator<char> >, std::basic_string<char, std::char_traits<char>, std::allocator<char> >, std::less<std::basic_string<char, std::char_traits<char>, std::allocator<char> > >, std::allocator<std::pair<const std::basic_string<char, std::char_traits<char>, std::allocator<char> >, std::basic_string<char, std::char_traits<char>, std::allocator<char> > > > > > >, std::less<std::basic_string<char, std::char_traits<char>, std::allocator<char> > >, std::allocator<std::pair<const std::basic_string<char, std::char_traits<char>, std::allocator<char> >, std::map<std::basic_string<char, std::char_traits<char>, std::allocator<char> >, std::basic_string<char, std::char_traits<char>, std::allocator<char> >, std::less<std::basic_string<char, std::char_traits<char>, std::allocator<char> > >, std::allocator<std::pair<const std::basic_string<char, std::char_traits<char>, std::allocator<char> >, std::basic_string<char, std::char_traits<char>, std::allocator<char> > > > > > > >::_M_begin
FUNC 2070c 2c 0 std::_Rb_tree<std::basic_string<char, std::char_traits<char>, std::allocator<char> >, std::pair<const std::basic_string<char, std::char_traits<char>, std::allocator<char> >, std::map<std::basic_string<char, std::char_traits<char>, std::allocator<char> >, std::basic_string<char, std::char_traits<char>, std::allocator<char> >, std::less<std::basic_string<char, std::char_traits<char>, std::allocator<char> > >, std::allocator<std::pair<const std::basic_string<char, std::char_traits<char>, std::allocator<char> >, std::basic_string<char, std::char_traits<char>, std::allocator<char> > > > > >, std::_Select1st<std::pair<const std::basic_string<char, std::char_traits<char>, std::allocator<char> >, std::map<std::basic_string<char, std::char_traits<char>, std::allocator<char> >, std::basic_string<char, std::char_traits<char>, std::allocator<char> >, std::less<std::basic_string<char, std::char_traits<char>, std::allocator<char> > >, std::allocator<std::pair<const std::basic_string<char, std::char_traits<char>, std::allocator<char> >, std::basic_string<char, std::char_traits<char>, std::allocator<char> > > > > > >, std::less<std::basic_string<char, std::char_traits<char>, std::allocator<char> > >, std::allocator<std::pair<const std::basic_string<char, std::char_traits<char>, std::allocator<char> >, std::map<std::basic_string<char, std::char_traits<char>, std::allocator<char> >, std::basic_string<char, std::char_traits<char>, std::allocator<char> >, std::less<std::basic_string<char, std::char_traits<char>, std::allocator<char> > >, std::allocator<std::pair<const std::basic_string<char, std::char_traits<char>, std::allocator<char> >, std::basic_string<char, std::char_traits<char>, std::allocator<char> > > > > > > >::begin
FUNC 20738 11d 0 std::_Rb_tree<std::basic_string<char, std::char_traits<char>, std::allocator<char> >, std::pair<const std::basic_string<char, std::char_traits<char>, std::allocator<char> >, std::basic_string<char, std::char_traits<char>, std::allocator<char> > >, std::_Select1st<std::pair<const std::basic_string<char, std::char_traits<char>, std::allocator<char> >, std::basic_string<char, std::char_traits<char>, std::allocator<char> > > >, std::less<std::basic_string<char, std::char_traits<char>, std::allocator<char> > >, std::allocator<std::pair<const std::basic_string<char, std::char_traits<char>, std::allocator<char> >, std::basic_string<char, std::char_traits<char>, std::allocator<char> > > > >::_Rb_tree
FUNC 20856 96 0 std::_Vector_base<std::basic_string<char, std::char_traits<char>, std::allocator<char> >, std::allocator<std::basic_string<char, std::char_traits<char>, std::allocator<char> > > >::_Vector_base
FUNC 208ec 12 0 std::_Rb_tree<std::basic_string<char, std::char_traits<char>, std::allocator<char> >, std::pair<const std::basic_string<char, std::char_traits<char>, std::allocator<char> >, std::basic_string<char, std::char_traits<char>, std::allocator<char> > >, std::_Select1st<std::pair<const std::basic_string<char, std::char_traits<char>, std::allocator<char> >, std::basic_string<char, std::char_traits<char>, std::allocator<char> > > >, std::less<std::basic_string<char, std::char_traits<char>, std::allocator<char> > >, std::allocator<std::pair<const std::basic_string<char, std::char_traits<char>, std::allocator<char> >, std::basic_string<char, std::char_traits<char>, std::allocator<char> > > > >::_M_root
FUNC 208fe 169 0 std::_Rb_tree<std::basic_string<char, std::char_traits<char>, std::allocator<char> >, std::pair<const std::basic_string<char, std::char_traits<char>, std::allocator<char> >, std::basic_string<char, std::char_traits<char>, std::allocator<char> > >, std::_Select1st<std::pair<const std::basic_string<char, std::char_traits<char>, std::allocator<char> >, std::basic_string<char, std::char_traits<char>, std::allocator<char> > > >, std::less<std::basic_string<char, std::char_traits<char>, std::allocator<char> > >, std::allocator<std::pair<const std::basic_string<char, std::char_traits<char>, std::allocator<char> >, std::basic_string<char, std::char_traits<char>, std::allocator<char> > > > >::_M_copy
FUNC 20a68 12 0 std::_Rb_tree<std::basic_string<char, std::char_traits<char>, std::allocator<char> >, std::pair<const std::basic_string<char, std::char_traits<char>, std::allocator<char> >, std::basic_string<char, std::char_traits<char>, std::allocator<char> > >, std::_Select1st<std::pair<const std::basic_string<char, std::char_traits<char>, std::allocator<char> >, std::basic_string<char, std::char_traits<char>, std::allocator<char> > > >, std::less<std::basic_string<char, std::char_traits<char>, std::allocator<char> > >, std::allocator<std::pair<const std::basic_string<char, std::char_traits<char>, std::allocator<char> >, std::basic_string<char, std::char_traits<char>, std::allocator<char> > > > >::_M_begin
FUNC 20a7a 1a 0 std::_Rb_tree<std::basic_string<char, std::char_traits<char>, std::allocator<char> >, std::pair<const std::basic_string<char, std::char_traits<char>, std::allocator<char> >, std::basic_string<char, std::char_traits<char>, std::allocator<char> > >, std::_Select1st<std::pair<const std::basic_string<char, std::char_traits<char>, std::allocator<char> >, std::basic_string<char, std::char_traits<char>, std::allocator<char> > > >, std::less<std::basic_string<char, std::char_traits<char>, std::allocator<char> > >, std::allocator<std::pair<const std::basic_string<char, std::char_traits<char>, std::allocator<char> >, std::basic_string<char, std::char_traits<char>, std::allocator<char> > > > >::_S_minimum
FUNC 20a94 1a 0 std::_Rb_tree<std::basic_string<char, std::char_traits<char>, std::allocator<char> >, std::pair<const std::basic_string<char, std::char_traits<char>, std::allocator<char> >, std::basic_string<char, std::char_traits<char>, std::allocator<char> > >, std::_Select1st<std::pair<const std::basic_string<char, std::char_traits<char>, std::allocator<char> >, std::basic_string<char, std::char_traits<char>, std::allocator<char> > > >, std::less<std::basic_string<char, std::char_traits<char>, std::allocator<char> > >, std::allocator<std::pair<const std::basic_string<char, std::char_traits<char>, std::allocator<char> >, std::basic_string<char, std::char_traits<char>, std::allocator<char> > > > >::_S_maximum
FUNC 20aae 83 0 boost::exception_detail::error_info_injector<boost::thread_resource_error>::error_info_injector
FUNC 20b32 ce 0 boost::exception_detail::clone_impl<boost::exception_detail::error_info_injector<boost::thread_resource_error> >::clone_impl
FUNC 20c00 83 0 boost::exception_detail::error_info_injector<boost::lock_error>::error_info_injector
FUNC 20c84 ce 0 boost::exception_detail::clone_impl<boost::exception_detail::error_info_injector<boost::lock_error> >::clone_impl
FUNC 20d52 19 0 std::_List_iterator<stLogInfo>::_List_iterator
FUNC 20d6c bd 0 std::list<stLogInfo, std::allocator<stLogInfo> >::_M_create_node
FUNC 20e2a a 0 __gnu_cxx::new_allocator<std::_Rb_tree_node<std::pair<const std::basic_string<char, std::char_traits<char>, std::allocator<char> >, IEC103::stConfigParam> > >::~new_allocator
FUNC 20e34 12 0 std::_Rb_tree<std::basic_string<char, std::char_traits<char>, std::allocator<char> >, std::pair<const std::basic_string<char, std::char_traits<char>, std::allocator<char> >, IEC103::stConfigParam>, std::_Select1st<std::pair<const std::basic_string<char, std::char_traits<char>, std::allocator<char> >, IEC103::stConfigParam> >, std::less<std::basic_string<char, std::char_traits<char>, std::allocator<char> > >, std::allocator<std::pair<const std::basic_string<char, std::char_traits<char>, std::allocator<char> >, IEC103::stConfigParam> > >::_S_right
FUNC 20e46 12 0 std::_Rb_tree<std::basic_string<char, std::char_traits<char>, std::allocator<char> >, std::pair<const std::basic_string<char, std::char_traits<char>, std::allocator<char> >, IEC103::stConfigParam>, std::_Select1st<std::pair<const std::basic_string<char, std::char_traits<char>, std::allocator<char> >, IEC103::stConfigParam> >, std::less<std::basic_string<char, std::char_traits<char>, std::allocator<char> > >, std::allocator<std::pair<const std::basic_string<char, std::char_traits<char>, std::allocator<char> >, IEC103::stConfigParam> > >::_S_left
FUNC 20e58 86 0 std::_Rb_tree<std::basic_string<char, std::char_traits<char>, std::allocator<char> >, std::pair<const std::basic_string<char, std::char_traits<char>, std::allocator<char> >, IEC103::stConfigParam>, std::_Select1st<std::pair<const std::basic_string<char, std::char_traits<char>, std::allocator<char> >, IEC103::stConfigParam> >, std::less<std::basic_string<char, std::char_traits<char>, std::allocator<char> > >, std::allocator<std::pair<const std::basic_string<char, std::char_traits<char>, std::allocator<char> >, IEC103::stConfigParam> > >::_M_destroy_node
FUNC 20ede e 0 std::_Rb_tree<std::basic_string<char, std::char_traits<char>, std::allocator<char> >, std::pair<const std::basic_string<char, std::char_traits<char>, std::allocator<char> >, IEC103::stConfigParam>, std::_Select1st<std::pair<const std::basic_string<char, std::char_traits<char>, std::allocator<char> >, IEC103::stConfigParam> >, std::less<std::basic_string<char, std::char_traits<char>, std::allocator<char> > >, std::allocator<std::pair<const std::basic_string<char, std::char_traits<char>, std::allocator<char> >, IEC103::stConfigParam> > >::_M_get_Node_allocator
FUNC 20eec 19 0 std::_Rb_tree_iterator<std::pair<const std::basic_string<char, std::char_traits<char>, std::allocator<char> >, IEC103::stConfigParam> >::_Rb_tree_iterator
FUNC 20f06 a 0 __gnu_cxx::new_allocator<std::_Rb_tree_node<std::pair<const std::basic_string<char, std::char_traits<char>, std::allocator<char> >, std::map<std::basic_string<char, std::char_traits<char>, std::allocator<char> >, std::basic_string<char, std::char_traits<char>, std::allocator<char> >, std::less<std::basic_string<char, std::char_traits<char>, std::allocator<char> > >, std::allocator<std::pair<const std::basic_string<char, std::char_traits<char>, std::allocator<char> >, std::basic_string<char, std::char_traits<char>, std::allocator<char> > > > > > > >::~new_allocator
FUNC 20f10 12 0 std::_Rb_tree<std::basic_string<char, std::char_traits<char>, std::allocator<char> >, std::pair<const std::basic_string<char, std::char_traits<char>, std::allocator<char> >, std::map<std::basic_string<char, std::char_traits<char>, std::allocator<char> >, std::basic_string<char, std::char_traits<char>, std::allocator<char> >, std::less<std::basic_string<char, std::char_traits<char>, std::allocator<char> > >, std::allocator<std::pair<const std::basic_string<char, std::char_traits<char>, std::allocator<char> >, std::basic_string<char, std::char_traits<char>, std::allocator<char> > > > > >, std::_Select1st<std::pair<const std::basic_string<char, std::char_traits<char>, std::allocator<char> >, std::map<std::basic_string<char, std::char_traits<char>, std::allocator<char> >, std::basic_string<char, std::char_traits<char>, std::allocator<char> >, std::less<std::basic_string<char, std::char_traits<char>, std::allocator<char> > >, std::allocator<std::pair<const std::basic_string<char, std::char_traits<char>, std::allocator<char> >, std::basic_string<char, std::char_traits<char>, std::allocator<char> > > > > > >, std::less<std::basic_string<char, std::char_traits<char>, std::allocator<char> > >, std::allocator<std::pair<const std::basic_string<char, std::char_traits<char>, std::allocator<char> >, std::map<std::basic_string<char, std::char_traits<char>, std::allocator<char> >, std::basic_string<char, std::char_traits<char>, std::allocator<char> >, std::less<std::basic_string<char, std::char_traits<char>, std::allocator<char> > >, std::allocator<std::pair<const std::basic_string<char, std::char_traits<char>, std::allocator<char> >, std::basic_string<char, std::char_traits<char>, std::allocator<char> > > > > > > >::_S_right
FUNC 20f22 12 0 std::_Rb_tree<std::basic_string<char, std::char_traits<char>, std::allocator<char> >, std::pair<const std::basic_string<char, std::char_traits<char>, std::allocator<char> >, std::map<std::basic_string<char, std::char_traits<char>, std::allocator<char> >, std::basic_string<char, std::char_traits<char>, std::allocator<char> >, std::less<std::basic_string<char, std::char_traits<char>, std::allocator<char> > >, std::allocator<std::pair<const std::basic_string<char, std::char_traits<char>, std::allocator<char> >, std::basic_string<char, std::char_traits<char>, std::allocator<char> > > > > >, std::_Select1st<std::pair<const std::basic_string<char, std::char_traits<char>, std::allocator<char> >, std::map<std::basic_string<char, std::char_traits<char>, std::allocator<char> >, std::basic_string<char, std::char_traits<char>, std::allocator<char> >, std::less<std::basic_string<char, std::char_traits<char>, std::allocator<char> > >, std::allocator<std::pair<const std::basic_string<char, std::char_traits<char>, std::allocator<char> >, std::basic_string<char, std::char_traits<char>, std::allocator<char> > > > > > >, std::less<std::basic_string<char, std::char_traits<char>, std::allocator<char> > >, std::allocator<std::pair<const std::basic_string<char, std::char_traits<char>, std::allocator<char> >, std::map<std::basic_string<char, std::char_traits<char>, std::allocator<char> >, std::basic_string<char, std::char_traits<char>, std::allocator<char> >, std::less<std::basic_string<char, std::char_traits<char>, std::allocator<char> > >, std::allocator<std::pair<const std::basic_string<char, std::char_traits<char>, std::allocator<char> >, std::basic_string<char, std::char_traits<char>, std::allocator<char> > > > > > > >::_S_left
FUNC 20f34 86 0 std::_Rb_tree<std::basic_string<char, std::char_traits<char>, std::allocator<char> >, std::pair<const std::basic_string<char, std::char_traits<char>, std::allocator<char> >, std::map<std::basic_string<char, std::char_traits<char>, std::allocator<char> >, std::basic_string<char, std::char_traits<char>, std::allocator<char> >, std::less<std::basic_string<char, std::char_traits<char>, std::allocator<char> > >, std::allocator<std::pair<const std::basic_string<char, std::char_traits<char>, std::allocator<char> >, std::basic_string<char, std::char_traits<char>, std::allocator<char> > > > > >, std::_Select1st<std::pair<const std::basic_string<char, std::char_traits<char>, std::allocator<char> >, std::map<std::basic_string<char, std::char_traits<char>, std::allocator<char> >, std::basic_string<char, std::char_traits<char>, std::allocator<char> >, std::less<std::basic_string<char, std::char_traits<char>, std::allocator<char> > >, std::allocator<std::pair<const std::basic_string<char, std::char_traits<char>, std::allocator<char> >, std::basic_string<char, std::char_traits<char>, std::allocator<char> > > > > > >, std::less<std::basic_string<char, std::char_traits<char>, std::allocator<char> > >, std::allocator<std::pair<const std::basic_string<char, std::char_traits<char>, std::allocator<char> >, std::map<std::basic_string<char, std::char_traits<char>, std::allocator<char> >, std::basic_string<char, std::char_traits<char>, std::allocator<char> >, std::less<std::basic_string<char, std::char_traits<char>, std::allocator<char> > >, std::allocator<std::pair<const std::basic_string<char, std::char_traits<char>, std::allocator<char> >, std::basic_string<char, std::char_traits<char>, std::allocator<char> > > > > > > >::_M_destroy_node
FUNC 20fba e 0 std::_Rb_tree<std::basic_string<char, std::char_traits<char>, std::allocator<char> >, std::pair<const std::basic_string<char, std::char_traits<char>, std::allocator<char> >, std::map<std::basic_string<char, std::char_traits<char>, std::allocator<char> >, std::basic_string<char, std::char_traits<char>, std::allocator<char> >, std::less<std::basic_string<char, std::char_traits<char>, std::allocator<char> > >, std::allocator<std::pair<const std::basic_string<char, std::char_traits<char>, std::allocator<char> >, std::basic_string<char, std::char_traits<char>, std::allocator<char> > > > > >, std::_Select1st<std::pair<const std::basic_string<char, std::char_traits<char>, std::allocator<char> >, std::map<std::basic_string<char, std::char_traits<char>, std::allocator<char> >, std::basic_string<char, std::char_traits<char>, std::allocator<char> >, std::less<std::basic_string<char, std::char_traits<char>, std::allocator<char> > >, std::allocator<std::pair<const std::basic_string<char, std::char_traits<char>, std::allocator<char> >, std::basic_string<char, std::char_traits<char>, std::allocator<char> > > > > > >, std::less<std::basic_string<char, std::char_traits<char>, std::allocator<char> > >, std::allocator<std::pair<const std::basic_string<char, std::char_traits<char>, std::allocator<char> >, std::map<std::basic_string<char, std::char_traits<char>, std::allocator<char> >, std::basic_string<char, std::char_traits<char>, std::allocator<char> >, std::less<std::basic_string<char, std::char_traits<char>, std::allocator<char> > >, std::allocator<std::pair<const std::basic_string<char, std::char_traits<char>, std::allocator<char> >, std::basic_string<char, std::char_traits<char>, std::allocator<char> > > > > > > >::_M_get_Node_allocator
FUNC 20fc8 19 0 std::_Rb_tree_iterator<std::pair<const std::basic_string<char, std::char_traits<char>, std::allocator<char> >, std::map<std::basic_string<char, std::char_traits<char>, std::allocator<char> >, std::basic_string<char, std::char_traits<char>, std::allocator<char> >, std::less<std::basic_string<char, std::char_traits<char>, std::allocator<char> > >, std::allocator<std::pair<const std::basic_string<char, std::char_traits<char>, std::allocator<char> >, std::basic_string<char, std::char_traits<char>, std::allocator<char> > > > > > >::_Rb_tree_iterator
FUNC 20fe2 9b 0 std::_Rb_tree<std::basic_string<char, std::char_traits<char>, std::allocator<char> >, std::pair<const std::basic_string<char, std::char_traits<char>, std::allocator<char> >, std::basic_string<char, std::char_traits<char>, std::allocator<char> > >, std::_Select1st<std::pair<const std::basic_string<char, std::char_traits<char>, std::allocator<char> >, std::basic_string<char, std::char_traits<char>, std::allocator<char> > > >, std::less<std::basic_string<char, std::char_traits<char>, std::allocator<char> > >, std::allocator<std::pair<const std::basic_string<char, std::char_traits<char>, std::allocator<char> >, std::basic_string<char, std::char_traits<char>, std::allocator<char> > > > >::_Rb_tree_impl<std::less<std::basic_string<char, std::char_traits<char>, std::allocator<char> > >, false>::_Rb_tree_impl
FUNC 2107e 48 0 std::_Vector_base<std::basic_string<char, std::char_traits<char>, std::allocator<char> >, std::allocator<std::basic_string<char, std::char_traits<char>, std::allocator<char> > > >::_Vector_impl::_Vector_impl
FUNC 210c6 55 0 std::_Rb_tree<std::basic_string<char, std::char_traits<char>, std::allocator<char> >, std::pair<const std::basic_string<char, std::char_traits<char>, std::allocator<char> >, std::basic_string<char, std::char_traits<char>, std::allocator<char> > >, std::_Select1st<std::pair<const std::basic_string<char, std::char_traits<char>, std::allocator<char> >, std::basic_string<char, std::char_traits<char>, std::allocator<char> > > >, std::less<std::basic_string<char, std::char_traits<char>, std::allocator<char> > >, std::allocator<std::pair<const std::basic_string<char, std::char_traits<char>, std::allocator<char> >, std::basic_string<char, std::char_traits<char>, std::allocator<char> > > > >::_M_clone_node
FUNC 2111b 12 0 std::_Rb_tree<std::basic_string<char, std::char_traits<char>, std::allocator<char> >, std::pair<const std::basic_string<char, std::char_traits<char>, std::allocator<char> >, std::basic_string<char, std::char_traits<char>, std::allocator<char> > >, std::_Select1st<std::pair<const std::basic_string<char, std::char_traits<char>, std::allocator<char> >, std::basic_string<char, std::char_traits<char>, std::allocator<char> > > >, std::less<std::basic_string<char, std::char_traits<char>, std::allocator<char> > >, std::allocator<std::pair<const std::basic_string<char, std::char_traits<char>, std::allocator<char> >, std::basic_string<char, std::char_traits<char>, std::allocator<char> > > > >::_S_left
FUNC 2112e 24 0 std::_List_base<stLogInfo, std::allocator<stLogInfo> >::_M_get_node
FUNC 21152 3b 0 std::_List_base<stLogInfo, std::allocator<stLogInfo> >::_M_get_Tp_allocator
FUNC 2118e 1a 0 std::allocator<stLogInfo>::~allocator
FUNC 211a8 91 0 stLogInfo::stLogInfo
FUNC 2123a 77 0 __gnu_cxx::new_allocator<stLogInfo>::construct
FUNC 212b2 2a 0 std::_List_base<stLogInfo, std::allocator<stLogInfo> >::_M_put_node
FUNC 212dc 3b 0 std::_Rb_tree<std::basic_string<char, std::char_traits<char>, std::allocator<char> >, std::pair<const std::basic_string<char, std::char_traits<char>, std::allocator<char> >, IEC103::stConfigParam>, std::_Select1st<std::pair<const std::basic_string<char, std::char_traits<char>, std::allocator<char> >, IEC103::stConfigParam> >, std::less<std::basic_string<char, std::char_traits<char>, std::allocator<char> > >, std::allocator<std::pair<const std::basic_string<char, std::char_traits<char>, std::allocator<char> >, IEC103::stConfigParam> > >::get_allocator
FUNC 21318 1a 0 std::allocator<std::pair<const std::basic_string<char, std::char_traits<char>, std::allocator<char> >, IEC103::stConfigParam> >::~allocator
FUNC 21332 84 0 IEC103::stConfigParam::~stConfigParam
FUNC 213b6 55 0 std::pair<const std::basic_string<char, std::char_traits<char>, std::allocator<char> >, IEC103::stConfigParam>::~pair
FUNC 2140c 1e 0 __gnu_cxx::new_allocator<std::pair<const std::basic_string<char, std::char_traits<char>, std::allocator<char> >, IEC103::stConfigParam> >::destroy
FUNC 2142a 2a 0 std::_Rb_tree<std::basic_string<char, std::char_traits<char>, std::allocator<char> >, std::pair<const std::basic_string<char, std::char_traits<char>, std::allocator<char> >, IEC103::stConfigParam>, std::_Select1st<std::pair<const std::basic_string<char, std::char_traits<char>, std::allocator<char> >, IEC103::stConfigParam> >, std::less<std::basic_string<char, std::char_traits<char>, std::allocator<char> > >, std::allocator<std::pair<const std::basic_string<char, std::char_traits<char>, std::allocator<char> >, IEC103::stConfigParam> > >::_M_put_node
FUNC 21454 3b 0 std::_Rb_tree<std::basic_string<char, std::char_traits<char>, std::allocator<char> >, std::pair<const std::basic_string<char, std::char_traits<char>, std::allocator<char> >, std::map<std::basic_string<char, std::char_traits<char>, std::allocator<char> >, std::basic_string<char, std::char_traits<char>, std::allocator<char> >, std::less<std::basic_string<char, std::char_traits<char>, std::allocator<char> > >, std::allocator<std::pair<const std::basic_string<char, std::char_traits<char>, std::allocator<char> >, std::basic_string<char, std::char_traits<char>, std::allocator<char> > > > > >, std::_Select1st<std::pair<const std::basic_string<char, std::char_traits<char>, std::allocator<char> >, std::map<std::basic_string<char, std::char_traits<char>, std::allocator<char> >, std::basic_string<char, std::char_traits<char>, std::allocator<char> >, std::less<std::basic_string<char, std::char_traits<char>, std::allocator<char> > >, std::allocator<std::pair<const std::basic_string<char, std::char_traits<char>, std::allocator<char> >, std::basic_string<char, std::char_traits<char>, std::allocator<char> > > > > > >, std::less<std::basic_string<char, std::char_traits<char>, std::allocator<char> > >, std::allocator<std::pair<const std::basic_string<char, std::char_traits<char>, std::allocator<char> >, std::map<std::basic_string<char, std::char_traits<char>, std::allocator<char> >, std::basic_string<char, std::char_traits<char>, std::allocator<char> >, std::less<std::basic_string<char, std::char_traits<char>, std::allocator<char> > >, std::allocator<std::pair<const std::basic_string<char, std::char_traits<char>, std::allocator<char> >, std::basic_string<char, std::char_traits<char>, std::allocator<char> > > > > > > >::get_allocator
FUNC 21490 1a 0 std::allocator<std::pair<const std::basic_string<char, std::char_traits<char>, std::allocator<char> >, std::map<std::basic_string<char, std::char_traits<char>, std::allocator<char> >, std::basic_string<char, std::char_traits<char>, std::allocator<char> >, std::less<std::basic_string<char, std::char_traits<char>, std::allocator<char> > >, std::allocator<std::pair<const std::basic_string<char, std::char_traits<char>, std::allocator<char> >, std::basic_string<char, std::char_traits<char>, std::allocator<char> > > > > > >::~allocator
FUNC 214aa 55 0 std::pair<const std::basic_string<char, std::char_traits<char>, std::allocator<char> >, std::map<std::basic_string<char, std::char_traits<char>, std::allocator<char> >, std::basic_string<char, std::char_traits<char>, std::allocator<char> >, std::less<std::basic_string<char, std::char_traits<char>, std::allocator<char> > >, std::allocator<std::pair<const std::basic_string<char, std::char_traits<char>, std::allocator<char> >, std::basic_string<char, std::char_traits<char>, std::allocator<char> > > > > >::~pair
FUNC 21500 1e 0 __gnu_cxx::new_allocator<std::pair<const std::basic_string<char, std::char_traits<char>, std::allocator<char> >, std::map<std::basic_string<char, std::char_traits<char>, std::allocator<char> >, std::basic_string<char, std::char_traits<char>, std::allocator<char> >, std::less<std::basic_string<char, std::char_traits<char>, std::allocator<char> > >, std::allocator<std::pair<const std::basic_string<char, std::char_traits<char>, std::allocator<char> >, std::basic_string<char, std::char_traits<char>, std::allocator<char> > > > > > >::destroy
FUNC 2151e 2a 0 std::_Rb_tree<std::basic_string<char, std::char_traits<char>, std::allocator<char> >, std::pair<const std::basic_string<char, std::char_traits<char>, std::allocator<char> >, std::map<std::basic_string<char, std::char_traits<char>, std::allocator<char> >, std::basic_string<char, std::char_traits<char>, std::allocator<char> >, std::less<std::basic_string<char, std::char_traits<char>, std::allocator<char> > >, std::allocator<std::pair<const std::basic_string<char, std::char_traits<char>, std::allocator<char> >, std::basic_string<char, std::char_traits<char>, std::allocator<char> > > > > >, std::_Select1st<std::pair<const std::basic_string<char, std::char_traits<char>, std::allocator<char> >, std::map<std::basic_string<char, std::char_traits<char>, std::allocator<char> >, std::basic_string<char, std::char_traits<char>, std::allocator<char> >, std::less<std::basic_string<char, std::char_traits<char>, std::allocator<char> > >, std::allocator<std::pair<const std::basic_string<char, std::char_traits<char>, std::allocator<char> >, std::basic_string<char, std::char_traits<char>, std::allocator<char> > > > > > >, std::less<std::basic_string<char, std::char_traits<char>, std::allocator<char> > >, std::allocator<std::pair<const std::basic_string<char, std::char_traits<char>, std::allocator<char> >, std::map<std::basic_string<char, std::char_traits<char>, std::allocator<char> >, std::basic_string<char, std::char_traits<char>, std::allocator<char> >, std::less<std::basic_string<char, std::char_traits<char>, std::allocator<char> > >, std::allocator<std::pair<const std::basic_string<char, std::char_traits<char>, std::allocator<char> >, std::basic_string<char, std::char_traits<char>, std::allocator<char> > > > > > > >::_M_put_node
FUNC 21548 25 0 std::allocator<std::_Rb_tree_node<std::pair<const std::basic_string<char, std::char_traits<char>, std::allocator<char> >, std::basic_string<char, std::char_traits<char>, std::allocator<char> > > > >::allocator
FUNC 2156e 25 0 std::allocator<std::basic_string<char, std::char_traits<char>, std::allocator<char> > >::allocator
FUNC 21594 55 0 __gnu_cxx::new_allocator<std::_List_node<stLogInfo> >::allocate
FUNC 215ea e 0 std::_List_base<stLogInfo, std::allocator<stLogInfo> >::_M_get_Node_allocator
FUNC 215f8 1e 0 std::allocator<stLogInfo>::allocator<std::_List_node<stLogInfo> >
FUNC 21616 a 0 __gnu_cxx::new_allocator<stLogInfo>::~new_allocator
FUNC 21620 22 0 __gnu_cxx::new_allocator<std::_List_node<stLogInfo> >::deallocate
FUNC 21642 1e 0 std::allocator<std::pair<const std::basic_string<char, std::char_traits<char>, std::allocator<char> >, IEC103::stConfigParam> >::allocator<std::_Rb_tree_node<std::pair<const std::basic_string<char, std::char_traits<char>, std::allocator<char> >, IEC103::stConfigParam> > >
FUNC 21660 a 0 __gnu_cxx::new_allocator<std::pair<const std::basic_string<char, std::char_traits<char>, std::allocator<char> >, IEC103::stConfigParam> >::~new_allocator
FUNC 2166a 22 0 __gnu_cxx::new_allocator<std::_Rb_tree_node<std::pair<const std::basic_string<char, std::char_traits<char>, std::allocator<char> >, IEC103::stConfigParam> > >::deallocate
FUNC 2168c 1e 0 std::allocator<std::pair<const std::basic_string<char, std::char_traits<char>, std::allocator<char> >, std::map<std::basic_string<char, std::char_traits<char>, std::allocator<char> >, std::basic_string<char, std::char_traits<char>, std::allocator<char> >, std::less<std::basic_string<char, std::char_traits<char>, std::allocator<char> > >, std::allocator<std::pair<const std::basic_string<char, std::char_traits<char>, std::allocator<char> >, std::basic_string<char, std::char_traits<char>, std::allocator<char> > > > > > >::allocator<std::_Rb_tree_node<std::pair<const std::basic_string<char, std::char_traits<char>, std::allocator<char> >, std::map<std::basic_string<char, std::char_traits<char>, std::allocator<char> >, std::basic_string<char, std::char_traits<char>, std::allocator<char> >, std::less<std::basic_string<char, std::char_traits<char>, std::allocator<char> > >, std::allocator<std::pair<const std::basic_string<char, std::char_traits<char>, std::allocator<char> >, std::basic_string<char, std::char_traits<char>, std::allocator<char> > > > > > > >
FUNC 216aa a 0 __gnu_cxx::new_allocator<std::pair<const std::basic_string<char, std::char_traits<char>, std::allocator<char> >, std::map<std::basic_string<char, std::char_traits<char>, std::allocator<char> >, std::basic_string<char, std::char_traits<char>, std::allocator<char> >, std::less<std::basic_string<char, std::char_traits<char>, std::allocator<char> > >, std::allocator<std::pair<const std::basic_string<char, std::char_traits<char>, std::allocator<char> >, std::basic_string<char, std::char_traits<char>, std::allocator<char> > > > > > >::~new_allocator
FUNC 216b4 22 0 __gnu_cxx::new_allocator<std::_Rb_tree_node<std::pair<const std::basic_string<char, std::char_traits<char>, std::allocator<char> >, std::map<std::basic_string<char, std::char_traits<char>, std::allocator<char> >, std::basic_string<char, std::char_traits<char>, std::allocator<char> >, std::less<std::basic_string<char, std::char_traits<char>, std::allocator<char> > >, std::allocator<std::pair<const std::basic_string<char, std::char_traits<char>, std::allocator<char> >, std::basic_string<char, std::char_traits<char>, std::allocator<char> > > > > > > >::deallocate
FUNC 216d6 e 0 __gnu_cxx::new_allocator<std::_Rb_tree_node<std::pair<const std::basic_string<char, std::char_traits<char>, std::allocator<char> >, std::basic_string<char, std::char_traits<char>, std::allocator<char> > > > >::new_allocator
FUNC 216e4 e 0 __gnu_cxx::new_allocator<std::basic_string<char, std::char_traits<char>, std::allocator<char> > >::new_allocator
FUNC 216f2 14 0 __gnu_cxx::new_allocator<std::_List_node<stLogInfo> >::max_size
FUNC 21706 a 0 __gnu_cxx::new_allocator<stLogInfo>::new_allocator
FUNC 21710 a 0 __gnu_cxx::new_allocator<std::pair<const std::basic_string<char, std::char_traits<char>, std::allocator<char> >, IEC103::stConfigParam> >::new_allocator
FUNC 2171a a 0 __gnu_cxx::new_allocator<std::pair<const std::basic_string<char, std::char_traits<char>, std::allocator<char> >, std::map<std::basic_string<char, std::char_traits<char>, std::allocator<char> >, std::basic_string<char, std::char_traits<char>, std::allocator<char> >, std::less<std::basic_string<char, std::char_traits<char>, std::allocator<char> > >, std::allocator<std::pair<const std::basic_string<char, std::char_traits<char>, std::allocator<char> >, std::basic_string<char, std::char_traits<char>, std::allocator<char> > > > > > >::new_allocator
FUNC 2172a 6c 0 boost::exception_detail::clone_impl<boost::exception_detail::error_info_injector<boost::lock_error> >::clone
FUNC 2179c 5d 0 boost::exception_detail::clone_impl<boost::exception_detail::error_info_injector<boost::lock_error> >::rethrow
FUNC 21800 6c 0 boost::exception_detail::clone_impl<boost::exception_detail::error_info_injector<boost::thread_resource_error> >::clone
FUNC 21872 5d 0 boost::exception_detail::clone_impl<boost::exception_detail::error_info_injector<boost::thread_resource_error> >::rethrow
FUNC 218d0 30 0 std::auto_ptr<Log::Logger>::~auto_ptr
FUNC 21900 27 0 Inet::Inet
FUNC 21928 35 0 Inet::~Inet
FUNC 2195e 26 0 Inet::~Inet
FUNC 21984 13d 0 combine_folder
FUNC 21ac1 23e 0 InitPaths
FUNC 21cff 31 0 InitLogging
FUNC 21d30 c8 0 GetLocalDate
FUNC 21df8 c8 0 GetCurTime
FUNC 21ec0 2a1 0 Logger::Logger
FUNC 22162 138 0 Logger::~Logger
FUNC 2229a 26 0 Logger::~Logger
FUNC 222c0 124 0 Logger::Debug
FUNC 223e4 20c 0 Logger::Debug
FUNC 225f0 125 0 Logger::Info
FUNC 22716 20d 0 Logger::Info
FUNC 22924 125 0 Logger::Warn
FUNC 22a4a 20d 0 Logger::Warn
FUNC 22c58 125 0 Logger::Error
FUNC 22d7e 20d 0 Logger::Error
FUNC 22f8c 125 0 Logger::Fatal
FUNC 230b2 20d 0 Logger::Fatal
FUNC 232c0 bc 0 Logger::GetInstance
FUNC 2337c 164 0 Logger::Log
FUNC 234e0 24a 0 Logger::Log
FUNC 2372a 266 0 Logger::Log
FUNC 23990 b 0 Logger::GetInstancePtr
FUNC 2399c 354 0 Logger::Log
FUNC 23cf0 85 0 LogMessage::LogMessage
FUNC 23d76 86 0 LogMessage::~LogMessage
FUNC 23dfc 26 0 LogMessage::~LogMessage
FUNC 23e22 4e 0 __static_initialization_and_destruction_0
FUNC 23e70 15 0 _GLOBAL__I_Logger.cpp
FUNC 23e86 35 0 ILogger::~ILogger
FUNC 23ebc 26 0 ILogger::~ILogger
FUNC 23ee2 12 0 Logger::stream
FUNC 23ef4 12c 0 FileHelper::CreateDir
FUNC 24020 1c 0 ILogger::ILogger
FUNC 2403c eb 0 MemCache::MemCache
FUNC 24128 80 0 MemCache::~MemCache
FUNC 241a8 26 0 MemCache::~MemCache
FUNC 241ce 74 0 MemCache::GetInstance
FUNC 24242 4bc 0 MemCache::Init
FUNC 246fe af 0 MemCache::GetFunction
FUNC 247ae 1a2 0 MemCache::WritePointsValue_V
FUNC 24950 2b 0 MemCache::Post
FUNC 2497c 3c 0 MemCache::Free
FUNC 249b8 ca 0 __static_initialization_and_destruction_0
FUNC 24a82 15 0 _GLOBAL__I_MemCache.cpp
FUNC 24a98 14 0 Config::GetRedisPostName
FUNC 24aac 15 0 Config::GetRedisPostSize
FUNC 24ac2 39 0 std::vector<Tag, std::allocator<Tag> >::operator[]
FUNC 24afc 2d 0 std::vector<Tag, std::allocator<Tag> >::size
FUNC 24b2c 123 0 protobuf_RtdbMessage_2eproto::TableStruct::Shutdown
FUNC 24c50 2a7 0 protobuf_RtdbMessage_2eproto::TableStruct::InitDefaultsImpl
FUNC 24ef7 1c 0 protobuf_RtdbMessage_2eproto::InitDefaults
FUNC 24f13 1a 0 protobuf_RtdbMessage_2eproto::AddDescriptorsImpl
FUNC 24f2d 1c 0 protobuf_RtdbMessage_2eproto::AddDescriptors
FUNC 24f49 20 0 PointValueType_IsValid
FUNC 24f69 20 0 RtdbMessageType_IsValid
FUNC 24f89 20 0 ObjectType_IsValid
FUNC 24faa b3 0 RawMessage::RawMessage
FUNC 2505e 1f8 0 RawMessage::RawMessage
FUNC 25256 63 0 RawMessage::SharedCtor
FUNC 252ba a7 0 RawMessage::~RawMessage
FUNC 25362 26 0 RawMessage::~RawMessage
FUNC 25388 3e 0 RawMessage::SharedDtor
FUNC 253c6 17 0 RawMessage::SetCachedSize
FUNC 253de 10 0 RawMessage::default_instance
FUNC 253ee 78 0 RawMessage::New
FUNC 25466 58 0 RawMessage::Clear
FUNC 254be 40f 0 RawMessage::MergePartialFromCodedStream
FUNC 258ce 177 0 RawMessage::SerializeWithCachedSizes
FUNC 25a46 117 0 RawMessage::ByteSizeLong
FUNC 25b5e 30 0 RawMessage::CheckTypeAndMergeFrom
FUNC 25b8e 25d 0 RawMessage::MergeFrom
FUNC 25dec 49 0 RawMessage::CopyFrom
FUNC 25e36 f 0 RawMessage::IsInitialized
FUNC 25e46 32 0 RawMessage::Swap
FUNC 25e78 b9 0 RawMessage::InternalSwap
FUNC 25f32 73 0 RawMessage::GetTypeName
FUNC 25fa6 b3 0 AlarmMessage::AlarmMessage
FUNC 2605a 2a4 0 AlarmMessage::AlarmMessage
FUNC 262fe 93 0 AlarmMessage::SharedCtor
FUNC 26392 a7 0 AlarmMessage::~AlarmMessage
FUNC 2643a 26 0 AlarmMessage::~AlarmMessage
FUNC 26460 6e 0 AlarmMessage::SharedDtor
FUNC 264ce 17 0 AlarmMessage::SetCachedSize
FUNC 264e6 10 0 AlarmMessage::default_instance
FUNC 264f6 78 0 AlarmMessage::New
FUNC 2656e 88 0 AlarmMessage::Clear
FUNC 265f6 5a9 0 AlarmMessage::MergePartialFromCodedStream
FUNC 26ba0 2cf 0 AlarmMessage::SerializeWithCachedSizes
FUNC 26e70 1fb 0 AlarmMessage::ByteSizeLong
FUNC 2706c 30 0 AlarmMessage::CheckTypeAndMergeFrom
FUNC 2709c 35f 0 AlarmMessage::MergeFrom
FUNC 273fc 49 0 AlarmMessage::CopyFrom
FUNC 27446 f 0 AlarmMessage::IsInitialized
FUNC 27456 32 0 AlarmMessage::Swap
FUNC 27488 145 0 AlarmMessage::InternalSwap
FUNC 275ce 73 0 AlarmMessage::GetTypeName
FUNC 27642 b3 0 DebugRequest::DebugRequest
FUNC 276f6 1a2 0 DebugRequest::DebugRequest
FUNC 27898 4b 0 DebugRequest::SharedCtor
FUNC 278e4 a7 0 DebugRequest::~DebugRequest
FUNC 2798c 26 0 DebugRequest::~DebugRequest
FUNC 279b2 26 0 DebugRequest::SharedDtor
FUNC 279d8 17 0 DebugRequest::SetCachedSize
FUNC 279f0 10 0 DebugRequest::default_instance
FUNC 27a00 78 0 DebugRequest::New
FUNC 27a78 40 0 DebugRequest::Clear
FUNC 27ab8 365 0 DebugRequest::MergePartialFromCodedStream
FUNC 27e1e fc 0 DebugRequest::SerializeWithCachedSizes
FUNC 27f1a d9 0 DebugRequest::ByteSizeLong
FUNC 27ff4 30 0 DebugRequest::CheckTypeAndMergeFrom
FUNC 28024 216 0 DebugRequest::MergeFrom
FUNC 2823a 49 0 DebugRequest::CopyFrom
FUNC 28284 f 0 DebugRequest::IsInitialized
FUNC 28294 32 0 DebugRequest::Swap
FUNC 282c6 8e 0 DebugRequest::InternalSwap
FUNC 28354 73 0 DebugRequest::GetTypeName
FUNC 283c8 b3 0 SOEMessage::SOEMessage
FUNC 2847c 1a2 0 SOEMessage::SOEMessage
FUNC 2861e 4b 0 SOEMessage::SharedCtor
FUNC 2866a a7 0 SOEMessage::~SOEMessage
FUNC 28712 26 0 SOEMessage::~SOEMessage
FUNC 28738 26 0 SOEMessage::SharedDtor
FUNC 2875e 17 0 SOEMessage::SetCachedSize
FUNC 28776 10 0 SOEMessage::default_instance
FUNC 28786 78 0 SOEMessage::New
FUNC 287fe 40 0 SOEMessage::Clear
FUNC 2883e 365 0 SOEMessage::MergePartialFromCodedStream
FUNC 28ba4 fc 0 SOEMessage::SerializeWithCachedSizes
FUNC 28ca0 d9 0 SOEMessage::ByteSizeLong
FUNC 28d7a 30 0 SOEMessage::CheckTypeAndMergeFrom
FUNC 28daa 216 0 SOEMessage::MergeFrom
FUNC 28fc0 49 0 SOEMessage::CopyFrom
FUNC 2900a f 0 SOEMessage::IsInitialized
FUNC 2901a 32 0 SOEMessage::Swap
FUNC 2904c 8e 0 SOEMessage::InternalSwap
FUNC 290da 73 0 SOEMessage::GetTypeName
FUNC 2914e b3 0 ControlRequet::ControlRequet
FUNC 29202 1e7 0 ControlRequet::ControlRequet
FUNC 293ea 51 0 ControlRequet::SharedCtor
FUNC 2943c a7 0 ControlRequet::~ControlRequet
FUNC 294e4 26 0 ControlRequet::~ControlRequet
FUNC 2950a 3e 0 ControlRequet::SharedDtor
FUNC 29548 17 0 ControlRequet::SetCachedSize
FUNC 29560 10 0 ControlRequet::default_instance
FUNC 29570 78 0 ControlRequet::New
FUNC 295e8 46 0 ControlRequet::Clear
FUNC 2962e 3c1 0 ControlRequet::MergePartialFromCodedStream
FUNC 299f0 144 0 ControlRequet::SerializeWithCachedSizes
FUNC 29b34 c4 0 ControlRequet::ByteSizeLong
FUNC 29bf8 30 0 ControlRequet::CheckTypeAndMergeFrom
FUNC 29c28 21f 0 ControlRequet::MergeFrom
FUNC 29e48 49 0 ControlRequet::CopyFrom
FUNC 29e92 f 0 ControlRequet::IsInitialized
FUNC 29ea2 32 0 ControlRequet::Swap
FUNC 29ed4 9e 0 ControlRequet::InternalSwap
FUNC 29f72 73 0 ControlRequet::GetTypeName
FUNC 29fe6 b3 0 LogRequest::LogRequest
FUNC 2a09a 190 0 LogRequest::LogRequest
FUNC 2a22a 3c 0 LogRequest::SharedCtor
FUNC 2a266 a7 0 LogRequest::~LogRequest
FUNC 2a30e 26 0 LogRequest::~LogRequest
FUNC 2a334 26 0 LogRequest::SharedDtor
FUNC 2a35a 17 0 LogRequest::SetCachedSize
FUNC 2a372 10 0 LogRequest::default_instance
FUNC 2a382 78 0 LogRequest::New
FUNC 2a3fa 31 0 LogRequest::Clear
FUNC 2a42c 326 0 LogRequest::MergePartialFromCodedStream
FUNC 2a752 cb 0 LogRequest::SerializeWithCachedSizes
FUNC 2a81e a5 0 LogRequest::ByteSizeLong
FUNC 2a8c4 30 0 LogRequest::CheckTypeAndMergeFrom
FUNC 2a8f4 1dc 0 LogRequest::MergeFrom
FUNC 2aad0 49 0 LogRequest::CopyFrom
FUNC 2ab1a f 0 LogRequest::IsInitialized
FUNC 2ab2a 32 0 LogRequest::Swap
FUNC 2ab5c 73 0 LogRequest::InternalSwap
FUNC 2abd0 73 0 LogRequest::GetTypeName
FUNC 2ac44 b3 0 RealLogResponse::RealLogResponse
FUNC 2acf8 24e 0 RealLogResponse::RealLogResponse
FUNC 2af46 7b 0 RealLogResponse::SharedCtor
FUNC 2afc2 a7 0 RealLogResponse::~RealLogResponse
FUNC 2b06a 26 0 RealLogResponse::~RealLogResponse
FUNC 2b090 56 0 RealLogResponse::SharedDtor
FUNC 2b0e6 17 0 RealLogResponse::SetCachedSize
FUNC 2b0fe 10 0 RealLogResponse::default_instance
FUNC 2b10e 78 0 RealLogResponse::New
FUNC 2b186 70 0 RealLogResponse::Clear
FUNC 2b1f6 4e3 0 RealLogResponse::MergePartialFromCodedStream
FUNC 2b6da 225 0 RealLogResponse::SerializeWithCachedSizes
FUNC 2b900 18b 0 RealLogResponse::ByteSizeLong
FUNC 2ba8c 30 0 RealLogResponse::CheckTypeAndMergeFrom
FUNC 2babc 2e1 0 RealLogResponse::MergeFrom
FUNC 2bd9e 49 0 RealLogResponse::CopyFrom
FUNC 2bde8 f 0 RealLogResponse::IsInitialized
FUNC 2bdf8 32 0 RealLogResponse::Swap
FUNC 2be2a ff 0 RealLogResponse::InternalSwap
FUNC 2bf2a 73 0 RealLogResponse::GetTypeName
FUNC 2bf9e b3 0 LogQuery::LogQuery
FUNC 2c052 1f8 0 LogQuery::LogQuery
FUNC 2c24a 63 0 LogQuery::SharedCtor
FUNC 2c2ae a7 0 LogQuery::~LogQuery
FUNC 2c356 26 0 LogQuery::~LogQuery
FUNC 2c37c 3e 0 LogQuery::SharedDtor
FUNC 2c3ba 17 0 LogQuery::SetCachedSize
FUNC 2c3d2 10 0 LogQuery::default_instance
FUNC 2c3e2 78 0 LogQuery::New
FUNC 2c45a 58 0 LogQuery::Clear
FUNC 2c4b2 4c2 0 LogQuery::MergePartialFromCodedStream
FUNC 2c974 20e 0 LogQuery::SerializeWithCachedSizes
FUNC 2cb82 1b7 0 LogQuery::ByteSizeLong
FUNC 2cd3a 30 0 LogQuery::CheckTypeAndMergeFrom
FUNC 2cd6a 311 0 LogQuery::MergeFrom
FUNC 2d07c 49 0 LogQuery::CopyFrom
FUNC 2d0c6 f 0 LogQuery::IsInitialized
FUNC 2d0d6 32 0 LogQuery::Swap
FUNC 2d108 10a 0 LogQuery::InternalSwap
FUNC 2d212 73 0 LogQuery::GetTypeName
FUNC 2d286 b3 0 HisLogResponse::HisLogResponse
FUNC 2d33a 24e 0 HisLogResponse::HisLogResponse
FUNC 2d588 7b 0 HisLogResponse::SharedCtor
FUNC 2d604 a7 0 HisLogResponse::~HisLogResponse
FUNC 2d6ac 26 0 HisLogResponse::~HisLogResponse
FUNC 2d6d2 56 0 HisLogResponse::SharedDtor
FUNC 2d728 17 0 HisLogResponse::SetCachedSize
FUNC 2d740 10 0 HisLogResponse::default_instance
FUNC 2d750 78 0 HisLogResponse::New
FUNC 2d7c8 70 0 HisLogResponse::Clear
FUNC 2d838 51a 0 HisLogResponse::MergePartialFromCodedStream
FUNC 2dd52 256 0 HisLogResponse::SerializeWithCachedSizes
FUNC 2dfa8 1bf 0 HisLogResponse::ByteSizeLong
FUNC 2e168 30 0 HisLogResponse::CheckTypeAndMergeFrom
FUNC 2e198 31b 0 HisLogResponse::MergeFrom
FUNC 2e4b4 49 0 HisLogResponse::CopyFrom
FUNC 2e4fe f 0 HisLogResponse::IsInitialized
FUNC 2e50e 32 0 HisLogResponse::Swap
FUNC 2e540 11a 0 HisLogResponse::InternalSwap
FUNC 2e65a 73 0 HisLogResponse::GetTypeName
FUNC 2e6ce b3 0 NetcardInfoRequest::NetcardInfoRequest
FUNC 2e782 184 0 NetcardInfoRequest::NetcardInfoRequest
FUNC 2e906 31 0 NetcardInfoRequest::SharedCtor
FUNC 2e938 a7 0 NetcardInfoRequest::~NetcardInfoRequest
FUNC 2e9e0 26 0 NetcardInfoRequest::~NetcardInfoRequest
FUNC 2ea06 26 0 NetcardInfoRequest::SharedDtor
FUNC 2ea2c 17 0 NetcardInfoRequest::SetCachedSize
FUNC 2ea44 10 0 NetcardInfoRequest::default_instance
FUNC 2ea54 78 0 NetcardInfoRequest::New
FUNC 2eacc 26 0 NetcardInfoRequest::Clear
FUNC 2eaf2 2e7 0 NetcardInfoRequest::MergePartialFromCodedStream
FUNC 2edda 9a 0 NetcardInfoRequest::SerializeWithCachedSizes
FUNC 2ee74 71 0 NetcardInfoRequest::ByteSizeLong
FUNC 2eee6 30 0 NetcardInfoRequest::CheckTypeAndMergeFrom
FUNC 2ef16 1a2 0 NetcardInfoRequest::MergeFrom
FUNC 2f0b8 49 0 NetcardInfoRequest::CopyFrom
FUNC 2f102 f 0 NetcardInfoRequest::IsInitialized
FUNC 2f112 32 0 NetcardInfoRequest::Swap
FUNC 2f144 58 0 NetcardInfoRequest::InternalSwap
FUNC 2f19c 73 0 NetcardInfoRequest::GetTypeName
FUNC 2f210 b3 0 NetcardInfo::NetcardInfo
FUNC 2f2c4 286 0 NetcardInfo::NetcardInfo
FUNC 2f54a 79 0 NetcardInfo::SharedCtor
FUNC 2f5c4 a7 0 NetcardInfo::~NetcardInfo
FUNC 2f66c 26 0 NetcardInfo::~NetcardInfo
FUNC 2f692 6e 0 NetcardInfo::SharedDtor
FUNC 2f700 17 0 NetcardInfo::SetCachedSize
FUNC 2f718 10 0 NetcardInfo::default_instance
FUNC 2f728 78 0 NetcardInfo::New
FUNC 2f7a0 6e 0 NetcardInfo::Clear
FUNC 2f80e 4c7 0 NetcardInfo::MergePartialFromCodedStream
FUNC 2fcd6 20b 0 NetcardInfo::SerializeWithCachedSizes
FUNC 2fee2 12b 0 NetcardInfo::ByteSizeLong
FUNC 3000e 30 0 NetcardInfo::CheckTypeAndMergeFrom
FUNC 3003e 277 0 NetcardInfo::MergeFrom
FUNC 302b6 49 0 NetcardInfo::CopyFrom
FUNC 30300 f 0 NetcardInfo::IsInitialized
FUNC 30310 32 0 NetcardInfo::Swap
FUNC 30342 d9 0 NetcardInfo::InternalSwap
FUNC 3041c 73 0 NetcardInfo::GetTypeName
FUNC 30490 e0 0 NetcardInfoResponse::NetcardInfoResponse
FUNC 30570 16a 0 NetcardInfoResponse::NetcardInfoResponse
FUNC 306da 15 0 NetcardInfoResponse::SharedCtor
FUNC 306f0 d6 0 NetcardInfoResponse::~NetcardInfoResponse
FUNC 307c6 26 0 NetcardInfoResponse::~NetcardInfoResponse
FUNC 307ec a 0 NetcardInfoResponse::SharedDtor
FUNC 307f6 17 0 NetcardInfoResponse::SetCachedSize
FUNC 3080e 10 0 NetcardInfoResponse::default_instance
FUNC 3081e 78 0 NetcardInfoResponse::New
FUNC 30896 1e 0 NetcardInfoResponse::Clear
FUNC 308b4 284 0 NetcardInfoResponse::MergePartialFromCodedStream
FUNC 30b38 64 0 NetcardInfoResponse::SerializeWithCachedSizes
FUNC 30b9c 80 0 NetcardInfoResponse::ByteSizeLong
FUNC 30c1c 30 0 NetcardInfoResponse::CheckTypeAndMergeFrom
FUNC 30c4c 17c 0 NetcardInfoResponse::MergeFrom
FUNC 30dc8 49 0 NetcardInfoResponse::CopyFrom
FUNC 30e12 f 0 NetcardInfoResponse::IsInitialized
FUNC 30e22 32 0 NetcardInfoResponse::Swap
FUNC 30e54 48 0 NetcardInfoResponse::InternalSwap
FUNC 30e9c 73 0 NetcardInfoResponse::GetTypeName
FUNC 30f10 b3 0 ProcessData::ProcessData
FUNC 30fc4 24e 0 ProcessData::ProcessData
FUNC 31212 7b 0 ProcessData::SharedCtor
FUNC 3128e a7 0 ProcessData::~ProcessData
FUNC 31336 26 0 ProcessData::~ProcessData
FUNC 3135c 56 0 ProcessData::SharedDtor
FUNC 313b2 17 0 ProcessData::SetCachedSize
FUNC 313ca 10 0 ProcessData::default_instance
FUNC 313da 78 0 ProcessData::New
FUNC 31452 70 0 ProcessData::Clear
FUNC 314c2 5c7 0 ProcessData::MergePartialFromCodedStream
FUNC 31a8a 2fb 0 ProcessData::SerializeWithCachedSizes
FUNC 31d86 237 0 ProcessData::ByteSizeLong
FUNC 31fbe 30 0 ProcessData::CheckTypeAndMergeFrom
FUNC 31fee 3d0 0 ProcessData::MergeFrom
FUNC 323be 49 0 ProcessData::CopyFrom
FUNC 32408 f 0 ProcessData::IsInitialized
FUNC 32418 32 0 ProcessData::Swap
FUNC 3244a 16b 0 ProcessData::InternalSwap
FUNC 325b6 73 0 ProcessData::GetTypeName
FUNC 3262a b3 0 ProcessCtrl::ProcessCtrl
FUNC 326de 190 0 ProcessCtrl::ProcessCtrl
FUNC 3286e 3c 0 ProcessCtrl::SharedCtor
FUNC 328aa a7 0 ProcessCtrl::~ProcessCtrl
FUNC 32952 26 0 ProcessCtrl::~ProcessCtrl
FUNC 32978 26 0 ProcessCtrl::SharedDtor
FUNC 3299e 17 0 ProcessCtrl::SetCachedSize
FUNC 329b6 10 0 ProcessCtrl::default_instance
FUNC 329c6 78 0 ProcessCtrl::New
FUNC 32a3e 31 0 ProcessCtrl::Clear
FUNC 32a70 326 0 ProcessCtrl::MergePartialFromCodedStream
FUNC 32d96 cb 0 ProcessCtrl::SerializeWithCachedSizes
FUNC 32e62 a5 0 ProcessCtrl::ByteSizeLong
FUNC 32f08 30 0 ProcessCtrl::CheckTypeAndMergeFrom
FUNC 32f38 1dc 0 ProcessCtrl::MergeFrom
FUNC 33114 49 0 ProcessCtrl::CopyFrom
FUNC 3315e f 0 ProcessCtrl::IsInitialized
FUNC 3316e 32 0 ProcessCtrl::Swap
FUNC 331a0 73 0 ProcessCtrl::InternalSwap
FUNC 33214 73 0 ProcessCtrl::GetTypeName
FUNC 33288 b3 0 RealPointValue::RealPointValue
FUNC 3333c 2a4 0 RealPointValue::RealPointValue
FUNC 335e0 93 0 RealPointValue::SharedCtor
FUNC 33674 a7 0 RealPointValue::~RealPointValue
FUNC 3371c 26 0 RealPointValue::~RealPointValue
FUNC 33742 6e 0 RealPointValue::SharedDtor
FUNC 337b0 17 0 RealPointValue::SetCachedSize
FUNC 337c8 10 0 RealPointValue::default_instance
FUNC 337d8 78 0 RealPointValue::New
FUNC 33850 88 0 RealPointValue::Clear
FUNC 338d8 540 0 RealPointValue::MergePartialFromCodedStream
FUNC 33e18 26d 0 RealPointValue::SerializeWithCachedSizes
FUNC 34086 193 0 RealPointValue::ByteSizeLong
FUNC 3421a 30 0 RealPointValue::CheckTypeAndMergeFrom
FUNC 3424a 2eb 0 RealPointValue::MergeFrom
FUNC 34536 49 0 RealPointValue::CopyFrom
FUNC 34580 f 0 RealPointValue::IsInitialized
FUNC 34590 32 0 RealPointValue::Swap
FUNC 345c2 10f 0 RealPointValue::InternalSwap
FUNC 346d2 73 0 RealPointValue::GetTypeName
FUNC 34746 b3 0 HeartBeatMessage::HeartBeatMessage
FUNC 347fa 190 0 HeartBeatMessage::HeartBeatMessage
FUNC 3498a 3c 0 HeartBeatMessage::SharedCtor
FUNC 349c6 a7 0 HeartBeatMessage::~HeartBeatMessage
FUNC 34a6e 26 0 HeartBeatMessage::~HeartBeatMessage
FUNC 34a94 26 0 HeartBeatMessage::SharedDtor
FUNC 34aba 17 0 HeartBeatMessage::SetCachedSize
FUNC 34ad2 10 0 HeartBeatMessage::default_instance
FUNC 34ae2 78 0 HeartBeatMessage::New
FUNC 34b5a 31 0 HeartBeatMessage::Clear
FUNC 34b8c 326 0 HeartBeatMessage::MergePartialFromCodedStream
FUNC 34eb2 cb 0 HeartBeatMessage::SerializeWithCachedSizes
FUNC 34f7e a5 0 HeartBeatMessage::ByteSizeLong
FUNC 35024 30 0 HeartBeatMessage::CheckTypeAndMergeFrom
FUNC 35054 1dc 0 HeartBeatMessage::MergeFrom
FUNC 35230 49 0 HeartBeatMessage::CopyFrom
FUNC 3527a f 0 HeartBeatMessage::IsInitialized
FUNC 3528a 32 0 HeartBeatMessage::Swap
FUNC 352bc 73 0 HeartBeatMessage::InternalSwap
FUNC 35330 73 0 HeartBeatMessage::GetTypeName
FUNC 353a4 b3 0 CommunicationPair::CommunicationPair
FUNC 35458 4fe 0 CommunicationPair::CommunicationPair
FUNC 35956 13b 0 CommunicationPair::SharedCtor
FUNC 35a92 a7 0 CommunicationPair::~CommunicationPair
FUNC 35b3a 26 0 CommunicationPair::~CommunicationPair
FUNC 35b60 116 0 CommunicationPair::SharedDtor
FUNC 35c76 17 0 CommunicationPair::SetCachedSize
FUNC 35c8e 10 0 CommunicationPair::default_instance
FUNC 35c9e 78 0 CommunicationPair::New
FUNC 35d16 130 0 CommunicationPair::Clear
FUNC 35e46 97f 0 CommunicationPair::MergePartialFromCodedStream
FUNC 367c6 5fb 0 CommunicationPair::SerializeWithCachedSizes
FUNC 36dc2 379 0 CommunicationPair::ByteSizeLong
FUNC 3713c 30 0 CommunicationPair::CheckTypeAndMergeFrom
FUNC 3716c 516 0 CommunicationPair::MergeFrom
FUNC 37682 49 0 CommunicationPair::CopyFrom
FUNC 376cc f 0 CommunicationPair::IsInitialized
FUNC 376dc 32 0 CommunicationPair::Swap
FUNC 3770e 2de 0 CommunicationPair::InternalSwap
FUNC 379ec 73 0 CommunicationPair::GetTypeName
FUNC 37a60 b3 0 FlowThreshold::FlowThreshold
FUNC 37b14 286 0 FlowThreshold::FlowThreshold
FUNC 37d9a 79 0 FlowThreshold::SharedCtor
FUNC 37e14 a7 0 FlowThreshold::~FlowThreshold
FUNC 37ebc 26 0 FlowThreshold::~FlowThreshold
FUNC 37ee2 6e 0 FlowThreshold::SharedDtor
FUNC 37f50 17 0 FlowThreshold::SetCachedSize
FUNC 37f68 10 0 FlowThreshold::default_instance
FUNC 37f78 78 0 FlowThreshold::New
FUNC 37ff0 6e 0 FlowThreshold::Clear
FUNC 3805e 4c7 0 FlowThreshold::MergePartialFromCodedStream
FUNC 38526 20b 0 FlowThreshold::SerializeWithCachedSizes
FUNC 38732 12b 0 FlowThreshold::ByteSizeLong
FUNC 3885e 30 0 FlowThreshold::CheckTypeAndMergeFrom
FUNC 3888e 277 0 FlowThreshold::MergeFrom
FUNC 38b06 49 0 FlowThreshold::CopyFrom
FUNC 38b50 f 0 FlowThreshold::IsInitialized
FUNC 38b60 32 0 FlowThreshold::Swap
FUNC 38b92 d9 0 FlowThreshold::InternalSwap
FUNC 38c6c 73 0 FlowThreshold::GetTypeName
FUNC 38ce0 b3 0 RtdbMessage::RtdbMessage
FUNC 38d94 68b 0 RtdbMessage::RtdbMessage
FUNC 39420 36 0 RtdbMessage::SharedCtor
FUNC 39456 a7 0 RtdbMessage::~RtdbMessage
FUNC 394fe 26 0 RtdbMessage::~RtdbMessage
FUNC 39524 31a 0 RtdbMessage::SharedDtor
FUNC 3983e 1a 0 RtdbMessage::SetCachedSize
FUNC 39858 10 0 RtdbMessage::default_instance
FUNC 39868 78 0 RtdbMessage::New
FUNC 398e0 556 0 RtdbMessage::Clear
FUNC 39e36 75c 0 RtdbMessage::MergePartialFromCodedStream
FUNC 3a592 354 0 RtdbMessage::SerializeWithCachedSizes
FUNC 3a8e6 3aa 0 RtdbMessage::ByteSizeLong
FUNC 3ac90 30 0 RtdbMessage::CheckTypeAndMergeFrom
FUNC 3acc0 5ea 0 RtdbMessage::MergeFrom
FUNC 3b2aa 49 0 RtdbMessage::CopyFrom
FUNC 3b2f4 f 0 RtdbMessage::IsInitialized
FUNC 3b304 32 0 RtdbMessage::Swap
FUNC 3b336 245 0 RtdbMessage::InternalSwap
FUNC 3b57c 73 0 RtdbMessage::GetTypeName
FUNC 3b5ef 2e 0 __static_initialization_and_destruction_0
FUNC 3b61d 15 0 _GLOBAL__I_RtdbMessage.pb.cpp
FUNC 3b632 13 0 google::protobuf::Bits::Log2FloorNonZero
FUNC 3b645 16 0 google::protobuf::Bits::Log2FloorNonZero64
FUNC 3b65c 1c 0 google::protobuf::Closure::Closure
FUNC 3b678 4c 0 google::protobuf::internal::FunctionClosure0::FunctionClosure0
FUNC 3b6c4 19 0 google::protobuf::internal::Acquire_Load
FUNC 3b6de 99 0 google::protobuf::io::CodedInputStream::ReadVarint32
FUNC 3b778 9f 0 google::protobuf::io::CodedInputStream::ReadVarint64
FUNC 3b818 83 0 google::protobuf::io::CodedInputStream::ReadVarintSizeAsInt
FUNC 3b89c 32 0 google::protobuf::io::CodedInputStream::ReadLittleEndian32FromArray
FUNC 3b8ce 68 0 google::protobuf::io::CodedInputStream::ReadLittleEndian32
FUNC 3b936 2f 0 google::protobuf::io::CodedOutputStream::VarintSize32
FUNC 3b966 33 0 google::protobuf::io::CodedOutputStream::VarintSize64
FUNC 3b99a 24 0 google::protobuf::io::CodedOutputStream::VarintSize32SignExtended
FUNC 3b9be 23 0 google::protobuf::io::CodedInputStream::Advance
FUNC 3b9e2 21 0 google::protobuf::io::CodedInputStream::BufferSize
FUNC 3ba04 19 0 google::protobuf::internal::ArenaStringPtr::UnsafeSetDefault
FUNC 3ba1e 4e 0 google::protobuf::internal::ArenaStringPtr::SetNoArena
FUNC 3ba6c 11 0 google::protobuf::internal::ArenaStringPtr::GetNoArena
FUNC 3ba7e 39 0 google::protobuf::internal::ArenaStringPtr::MutableNoArena
FUNC 3bab8 41 0 google::protobuf::internal::ArenaStringPtr::DestroyNoArena
FUNC 3bafa 2e 0 google::protobuf::internal::ArenaStringPtr::ClearToEmptyNoArena
FUNC 3bb28 e 0 google::protobuf::internal::ArenaStringPtr::UnsafeRawStringPointer
FUNC 3bb36 f0 0 google::protobuf::internal::ArenaStringPtr::CreateInstanceNoArena
FUNC 3bc26 68 0 google::protobuf::internal::ArenaStringPtr::AssignWithDefault
FUNC 3bc8e 8b 0 google::protobuf::GoogleOnceInit
FUNC 3bd19 15 0 google::protobuf::internal::GetEmptyStringAlreadyInited
FUNC 3bd2e e 0 google::protobuf::internal::ToCachedSize
FUNC 3bd3c 1c 0 google::protobuf::MessageLite::MessageLite
FUNC 3bd58 35 0 google::protobuf::MessageLite::~MessageLite
FUNC 3bd8e 26 0 google::protobuf::MessageLite::~MessageLite
FUNC 3bdb4 f 0 google::protobuf::MessageLite::GetArena
FUNC 3bdc4 25 0 google::protobuf::MessageLite::GetMaybeArenaPointer
FUNC 3bdea a 0 google::protobuf::internal::AuxillaryParseTableField::AuxillaryParseTableField
FUNC 3bdf4 25 0 google::protobuf::internal::InternalMetadataWithArenaLite::InternalMetadataWithArenaLite
FUNC 3be1a 70 0 google::protobuf::internal::InternalMetadataWithArenaLite::DoMergeFrom
FUNC 3be8a b 0 google::protobuf::internal::InternalMetadataWithArenaLite::default_instance
FUNC 3be96 a 0 google::protobuf::internal::RepeatedPtrFieldBase::~RepeatedPtrFieldBase
FUNC 3bea0 11 0 google::protobuf::internal::RepeatedPtrFieldBase::GetArenaNoVirtual
FUNC 3beb2 37 0 google::protobuf::internal::RepeatedPtrFieldBase::RepeatedPtrFieldBase
FUNC 3beea 11 0 google::protobuf::internal::RepeatedPtrFieldBase::size
FUNC 3befc f1 0 google::protobuf::internal::RepeatedPtrFieldBase::MergeFromInternal
FUNC 3bfee 1c3 0 google::protobuf::internal::RepeatedPtrFieldBase::InternalSwap
FUNC 3c1b1 d 0 RawMessage::internal_default_instance
FUNC 3c1be 2a 0 RawMessage::New
FUNC 3c1e8 11 0 RawMessage::GetCachedSize
FUNC 3c1f9 d 0 AlarmMessage::internal_default_instance
FUNC 3c206 2a 0 AlarmMessage::New
FUNC 3c230 11 0 AlarmMessage::GetCachedSize
FUNC 3c241 d 0 DebugRequest::internal_default_instance
FUNC 3c24e 2a 0 DebugRequest::New
FUNC 3c278 11 0 DebugRequest::GetCachedSize
FUNC 3c289 d 0 SOEMessage::internal_default_instance
FUNC 3c296 2a 0 SOEMessage::New
FUNC 3c2c0 11 0 SOEMessage::GetCachedSize
FUNC 3c2d1 d 0 ControlRequet::internal_default_instance
FUNC 3c2de 2a 0 ControlRequet::New
FUNC 3c308 11 0 ControlRequet::GetCachedSize
FUNC 3c319 d 0 LogRequest::internal_default_instance
FUNC 3c326 2a 0 LogRequest::New
FUNC 3c350 11 0 LogRequest::GetCachedSize
FUNC 3c361 d 0 RealLogResponse::internal_default_instance
FUNC 3c36e 2a 0 RealLogResponse::New
FUNC 3c398 11 0 RealLogResponse::GetCachedSize
FUNC 3c3a9 d 0 LogQuery::internal_default_instance
FUNC 3c3b6 2a 0 LogQuery::New
FUNC 3c3e0 11 0 LogQuery::GetCachedSize
FUNC 3c3f1 d 0 HisLogResponse::internal_default_instance
FUNC 3c3fe 2a 0 HisLogResponse::New
FUNC 3c428 11 0 HisLogResponse::GetCachedSize
FUNC 3c439 d 0 NetcardInfoRequest::internal_default_instance
FUNC 3c446 2a 0 NetcardInfoRequest::New
FUNC 3c470 11 0 NetcardInfoRequest::GetCachedSize
FUNC 3c481 d 0 NetcardInfo::internal_default_instance
FUNC 3c48e 2a 0 NetcardInfo::New
FUNC 3c4b8 11 0 NetcardInfo::GetCachedSize
FUNC 3c4c9 d 0 NetcardInfoResponse::internal_default_instance
FUNC 3c4d6 2a 0 NetcardInfoResponse::New
FUNC 3c500 11 0 NetcardInfoResponse::GetCachedSize
FUNC 3c511 d 0 ProcessData::internal_default_instance
FUNC 3c51e 2a 0 ProcessData::New
FUNC 3c548 11 0 ProcessData::GetCachedSize
FUNC 3c559 d 0 ProcessCtrl::internal_default_instance
FUNC 3c566 2a 0 ProcessCtrl::New
FUNC 3c590 11 0 ProcessCtrl::GetCachedSize
FUNC 3c5a1 d 0 RealPointValue::internal_default_instance
FUNC 3c5ae 2a 0 RealPointValue::New
FUNC 3c5d8 11 0 RealPointValue::GetCachedSize
FUNC 3c5e9 d 0 HeartBeatMessage::internal_default_instance
FUNC 3c5f6 2a 0 HeartBeatMessage::New
FUNC 3c620 11 0 HeartBeatMessage::GetCachedSize
FUNC 3c631 d 0 CommunicationPair::internal_default_instance
FUNC 3c63e 2a 0 CommunicationPair::New
FUNC 3c668 11 0 CommunicationPair::GetCachedSize
FUNC 3c679 d 0 FlowThreshold::internal_default_instance
FUNC 3c686 2a 0 FlowThreshold::New
FUNC 3c6b0 11 0 FlowThreshold::GetCachedSize
FUNC 3c6c1 d 0 RtdbMessage::internal_default_instance
FUNC 3c6ce 2a 0 RtdbMessage::New
FUNC 3c6f8 14 0 RtdbMessage::GetCachedSize
FUNC 3c70c f 0 RtdbMessage::GetArenaNoVirtual
FUNC 3c71c 1e 0 RawMessage::data
FUNC 3c73a 26 0 RawMessage::mutable_data
FUNC 3c760 1e 0 RawMessage::filename
FUNC 3c77e 26 0 RawMessage::mutable_filename
FUNC 3c7a4 11 0 RawMessage::startoffset
FUNC 3c7b6 17 0 RawMessage::set_startoffset
FUNC 3c7ce 11 0 RawMessage::messagenumber
FUNC 3c7e0 17 0 RawMessage::set_messagenumber
FUNC 3c7f8 1e 0 AlarmMessage::type
FUNC 3c816 26 0 AlarmMessage::mutable_type
FUNC 3c83c 1e 0 AlarmMessage::ethname
FUNC 3c85a 26 0 AlarmMessage::mutable_ethname
FUNC 3c880 1e 0 AlarmMessage::mac
FUNC 3c89e 26 0 AlarmMessage::mutable_mac
FUNC 3c8c4 1e 0 AlarmMessage::ip
FUNC 3c8e2 26 0 AlarmMessage::mutable_ip
FUNC 3c908 11 0 AlarmMessage::time
FUNC 3c91a 17 0 AlarmMessage::set_time
FUNC 3c932 11 0 AlarmMessage::port
FUNC 3c944 17 0 AlarmMessage::set_port
FUNC 3c95c 11 0 AlarmMessage::alarmid
FUNC 3c96e 17 0 AlarmMessage::set_alarmid
FUNC 3c986 11 0 AlarmMessage::alarmstatus
FUNC 3c998 17 0 AlarmMessage::set_alarmstatus
FUNC 3c9b0 1e 0 DebugRequest::address
FUNC 3c9ce 26 0 DebugRequest::mutable_address
FUNC 3c9f4 11 0 DebugRequest::time
FUNC 3ca06 17 0 DebugRequest::set_time
FUNC 3ca1e 11 0 DebugRequest::quality
FUNC 3ca30 17 0 DebugRequest::set_quality
FUNC 3ca48 1e 0 SOEMessage::address
FUNC 3ca66 26 0 SOEMessage::mutable_address
FUNC 3ca8c 11 0 SOEMessage::time
FUNC 3ca9e 17 0 SOEMessage::set_time
FUNC 3cab6 11 0 SOEMessage::quality
FUNC 3cac8 17 0 SOEMessage::set_quality
FUNC 3cae0 1e 0 ControlRequet::address
FUNC 3cafe 26 0 ControlRequet::mutable_address
FUNC 3cb24 1e 0 ControlRequet::errorinfo
FUNC 3cb42 26 0 ControlRequet::mutable_errorinfo
FUNC 3cb68 12 0 ControlRequet::status
FUNC 3cb7a 1a 0 ControlRequet::set_status
FUNC 3cb94 1e 0 LogRequest::channelname
FUNC 3cbb2 26 0 LogRequest::mutable_channelname
FUNC 3cbd8 11 0 LogRequest::command
FUNC 3cbea 17 0 LogRequest::set_command
FUNC 3cc02 11 0 RealLogResponse::type
FUNC 3cc14 17 0 RealLogResponse::set_type
FUNC 3cc2c 11 0 RealLogResponse::level
FUNC 3cc3e 17 0 RealLogResponse::set_level
FUNC 3cc56 1e 0 RealLogResponse::channelname
FUNC 3cc74 26 0 RealLogResponse::mutable_channelname
FUNC 3cc9a 1e 0 RealLogResponse::devname
FUNC 3ccb8 26 0 RealLogResponse::mutable_devname
FUNC 3ccde 12 0 RealLogResponse::logtime
FUNC 3ccf0 1a 0 RealLogResponse::set_logtime
FUNC 3cd0a 1e 0 RealLogResponse::logdetail
FUNC 3cd28 26 0 RealLogResponse::mutable_logdetail
FUNC 3cd4e 11 0 LogQuery::level
FUNC 3cd60 17 0 LogQuery::set_level
FUNC 3cd78 11 0 LogQuery::type
FUNC 3cd8a 17 0 LogQuery::set_type
FUNC 3cda2 12 0 LogQuery::starttime
FUNC 3cdb4 1a 0 LogQuery::set_starttime
FUNC 3cdce 12 0 LogQuery::endtime
FUNC 3cde0 1a 0 LogQuery::set_endtime
FUNC 3cdfa 1e 0 LogQuery::channelname
FUNC 3ce18 26 0 LogQuery::mutable_channelname
FUNC 3ce3e 1e 0 LogQuery::devname
FUNC 3ce5c 26 0 LogQuery::mutable_devname
FUNC 3ce82 11 0 LogQuery::stopquery
FUNC 3ce94 17 0 LogQuery::set_stopquery
FUNC 3ceac 11 0 HisLogResponse::type
FUNC 3cebe 17 0 HisLogResponse::set_type
FUNC 3ced6 11 0 HisLogResponse::level
FUNC 3cee8 17 0 HisLogResponse::set_level
FUNC 3cf00 1e 0 HisLogResponse::channelname
FUNC 3cf1e 26 0 HisLogResponse::mutable_channelname
FUNC 3cf44 1e 0 HisLogResponse::devname
FUNC 3cf62 26 0 HisLogResponse::mutable_devname
FUNC 3cf88 12 0 HisLogResponse::logtime
FUNC 3cf9a 1a 0 HisLogResponse::set_logtime
FUNC 3cfb4 1e 0 HisLogResponse::logdetail
FUNC 3cfd2 26 0 HisLogResponse::mutable_logdetail
FUNC 3cff8 11 0 HisLogResponse::isend
FUNC 3d00a 17 0 HisLogResponse::set_isend
FUNC 3d022 1e 0 NetcardInfoRequest::value
FUNC 3d040 26 0 NetcardInfoRequest::mutable_value
FUNC 3d066 1e 0 NetcardInfo::name
FUNC 3d084 26 0 NetcardInfo::mutable_name
FUNC 3d0aa 1e 0 NetcardInfo::ip
FUNC 3d0c8 26 0 NetcardInfo::mutable_ip
FUNC 3d0ee 1e 0 NetcardInfo::mac
FUNC 3d10c 26 0 NetcardInfo::mutable_mac
FUNC 3d132 1e 0 NetcardInfo::networktype
FUNC 3d150 26 0 NetcardInfo::mutable_networktype
FUNC 3d176 1e 0 NetcardInfoResponse::netcardinfo_size
FUNC 3d194 26 0 NetcardInfoResponse::netcardinfo
FUNC 3d1ba 1e 0 NetcardInfoResponse::add_netcardinfo
FUNC 3d1d8 1e 0 ProcessData::process_id
FUNC 3d1f6 26 0 ProcessData::mutable_process_id
FUNC 3d21c 1e 0 ProcessData::process_path
FUNC 3d23a 26 0 ProcessData::mutable_process_path
FUNC 3d260 1e 0 ProcessData::process_name
FUNC 3d27e 26 0 ProcessData::mutable_process_name
FUNC 3d2a4 11 0 ProcessData::start_time
FUNC 3d2b6 17 0 ProcessData::set_start_time
FUNC 3d2ce 11 0 ProcessData::process_pid
FUNC 3d2e0 17 0 ProcessData::set_process_pid
FUNC 3d2f8 11 0 ProcessData::process_status
FUNC 3d30a 17 0 ProcessData::set_process_status
FUNC 3d322 11 0 ProcessData::heart_beat_time
FUNC 3d334 17 0 ProcessData::set_heart_beat_time
FUNC 3d34c 19 0 ProcessData::cpu_use
FUNC 3d366 19 0 ProcessData::set_cpu_use
FUNC 3d380 19 0 ProcessData::ram_use
FUNC 3d39a 19 0 ProcessData::set_ram_use
FUNC 3d3b4 11 0 ProcessData::restart_num
FUNC 3d3c6 17 0 ProcessData::set_restart_num
FUNC 3d3de 1e 0 ProcessCtrl::process_id
FUNC 3d3fc 26 0 ProcessCtrl::mutable_process_id
FUNC 3d422 11 0 ProcessCtrl::command
FUNC 3d434 17 0 ProcessCtrl::set_command
FUNC 3d44c 1e 0 RealPointValue::channelname
FUNC 3d46a 26 0 RealPointValue::mutable_channelname
FUNC 3d490 1e 0 RealPointValue::devicename
FUNC 3d4ae 26 0 RealPointValue::mutable_devicename
FUNC 3d4d4 1e 0 RealPointValue::pointvalue
FUNC 3d4f2 26 0 RealPointValue::mutable_pointvalue
FUNC 3d518 1e 0 RealPointValue::pointaddr
FUNC 3d536 26 0 RealPointValue::mutable_pointaddr
FUNC 3d55c 11 0 RealPointValue::valuetype
FUNC 3d56e 17 0 RealPointValue::set_valuetype
FUNC 3d586 11 0 RealPointValue::channeltype
FUNC 3d598 17 0 RealPointValue::set_channeltype
FUNC 3d5b0 1e 0 HeartBeatMessage::channelname
FUNC 3d5ce 26 0 HeartBeatMessage::mutable_channelname
FUNC 3d5f4 11 0 HeartBeatMessage::time
FUNC 3d606 17 0 HeartBeatMessage::set_time
FUNC 3d61e 1e 0 CommunicationPair::type
FUNC 3d63c 26 0 CommunicationPair::mutable_type
FUNC 3d662 1e 0 CommunicationPair::source_ip
FUNC 3d680 26 0 CommunicationPair::mutable_source_ip
FUNC 3d6a6 1e 0 CommunicationPair::source_mac
FUNC 3d6c4 26 0 CommunicationPair::mutable_source_mac
FUNC 3d6ea 11 0 CommunicationPair::soure_port
FUNC 3d6fc 17 0 CommunicationPair::set_soure_port
FUNC 3d714 1e 0 CommunicationPair::dest_ip
FUNC 3d732 26 0 CommunicationPair::mutable_dest_ip
FUNC 3d758 1e 0 CommunicationPair::dest_mac
FUNC 3d776 26 0 CommunicationPair::mutable_dest_mac
FUNC 3d79c 11 0 CommunicationPair::dest_port
FUNC 3d7ae 17 0 CommunicationPair::set_dest_port
FUNC 3d7c6 11 0 CommunicationPair::netstatus
FUNC 3d7d8 17 0 CommunicationPair::set_netstatus
FUNC 3d7f0 1e 0 CommunicationPair::lasttime
FUNC 3d80e 26 0 CommunicationPair::mutable_lasttime
FUNC 3d834 1e 0 CommunicationPair::eth_name
FUNC 3d852 26 0 CommunicationPair::mutable_eth_name
FUNC 3d878 1e 0 CommunicationPair::conn_start_time
FUNC 3d896 26 0 CommunicationPair::mutable_conn_start_time
FUNC 3d8bc 1e 0 CommunicationPair::conn_end_time
FUNC 3d8da 26 0 CommunicationPair::mutable_conn_end_time
FUNC 3d900 1e 0 CommunicationPair::packagename
FUNC 3d91e 26 0 CommunicationPair::mutable_packagename
FUNC 3d944 1e 0 CommunicationPair::packageline
FUNC 3d962 26 0 CommunicationPair::mutable_packageline
FUNC 3d988 1e 0 FlowThreshold::messagecount
FUNC 3d9a6 26 0 FlowThreshold::mutable_messagecount
FUNC 3d9cc 1e 0 FlowThreshold::flowmax
FUNC 3d9ea 26 0 FlowThreshold::mutable_flowmax
FUNC 3da10 1e 0 FlowThreshold::noflowtime
FUNC 3da2e 26 0 FlowThreshold::mutable_noflowtime
FUNC 3da54 1e 0 FlowThreshold::linkmax
FUNC 3da72 26 0 FlowThreshold::mutable_linkmax
FUNC 3da98 11 0 RtdbMessage::fromobject
FUNC 3daaa 17 0 RtdbMessage::set_fromobject
FUNC 3dac2 11 0 RtdbMessage::toobject
FUNC 3dad4 17 0 RtdbMessage::set_toobject
FUNC 3daec 14 0 RtdbMessage::fromobjecttype
FUNC 3db00 1a 0 RtdbMessage::set_fromobjecttype
FUNC 3db1a 14 0 RtdbMessage::toobjecttype
FUNC 3db2e 1a 0 RtdbMessage::set_toobjecttype
FUNC 3db48 14 0 RtdbMessage::messagetype
FUNC 3db5c 1a 0 RtdbMessage::set_messagetype
FUNC 3db76 14 0 RtdbMessage::transactionid
FUNC 3db8a 1a 0 RtdbMessage::set_transactionid
FUNC 3dba4 32 0 RtdbMessage::has_logrequest
FUNC 3dbd6 2a 0 RtdbMessage::logrequest
FUNC 3dc00 72 0 RtdbMessage::mutable_logrequest
FUNC 3dc72 32 0 RtdbMessage::has_reallogresponse
FUNC 3dca4 2a 0 RtdbMessage::reallogresponse
FUNC 3dcce 72 0 RtdbMessage::mutable_reallogresponse
FUNC 3dd40 32 0 RtdbMessage::has_hislogquery
FUNC 3dd72 2a 0 RtdbMessage::hislogquery
FUNC 3dd9c 72 0 RtdbMessage::mutable_hislogquery
FUNC 3de0e 32 0 RtdbMessage::has_hislogresponse
FUNC 3de40 2a 0 RtdbMessage::hislogresponse
FUNC 3de6a 72 0 RtdbMessage::mutable_hislogresponse
FUNC 3dedc 32 0 RtdbMessage::has_netcardinforequest
FUNC 3df0e 2a 0 RtdbMessage::netcardinforequest
FUNC 3df38 72 0 RtdbMessage::mutable_netcardinforequest
FUNC 3dfaa 32 0 RtdbMessage::has_netcardinforesponse
FUNC 3dfdc 2a 0 RtdbMessage::netcardinforesponse
FUNC 3e006 72 0 RtdbMessage::mutable_netcardinforesponse
FUNC 3e078 32 0 RtdbMessage::has_processdata
FUNC 3e0aa 2a 0 RtdbMessage::processdata
FUNC 3e0d4 72 0 RtdbMessage::mutable_processdata
FUNC 3e146 32 0 RtdbMessage::has_processctrl
FUNC 3e178 2a 0 RtdbMessage::processctrl
FUNC 3e1a2 72 0 RtdbMessage::mutable_processctrl
FUNC 3e214 32 0 RtdbMessage::has_realpointvalue
FUNC 3e246 2a 0 RtdbMessage::realpointvalue
FUNC 3e270 72 0 RtdbMessage::mutable_realpointvalue
FUNC 3e2e2 32 0 RtdbMessage::has_heartbeatmessage
FUNC 3e314 2a 0 RtdbMessage::heartbeatmessage
FUNC 3e33e 72 0 RtdbMessage::mutable_heartbeatmessage
FUNC 3e3b0 32 0 RtdbMessage::has_alarmmessage
FUNC 3e3e2 2a 0 RtdbMessage::alarmmessage
FUNC 3e40c 72 0 RtdbMessage::mutable_alarmmessage
FUNC 3e47e 32 0 RtdbMessage::has_communicationpair
FUNC 3e4b0 2a 0 RtdbMessage::communicationpair
FUNC 3e4da 72 0 RtdbMessage::mutable_communicationpair
FUNC 3e54c 32 0 RtdbMessage::has_flowthreshold
FUNC 3e57e 2a 0 RtdbMessage::flowthreshold
FUNC 3e5a8 72 0 RtdbMessage::mutable_flowthreshold
FUNC 3e61a f 0 google::protobuf::internal::WireFormatLite::GetTagWireType
FUNC 3e62a f 0 google::protobuf::internal::WireFormatLite::GetTagFieldNumber
FUNC 3e63a 1a 0 google::protobuf::internal::WireFormatLite::DecodeFloat
FUNC 3e654 25 0 google::protobuf::internal::WireFormatLite::ReadString
FUNC 3e67a 43 0 google::protobuf::internal::WireFormatLite::ReadPrimitive<int, (google::protobuf::internal::WireFormatLite::FieldType)5u>
FUNC 3e6be 25 0 google::protobuf::internal::WireFormatLite::ReadPrimitive<long unsigned int, (google::protobuf::internal::WireFormatLite::FieldType)4u>
FUNC 3e6e4 4a 0 google::protobuf::internal::WireFormatLite::ReadPrimitive<float, (google::protobuf::internal::WireFormatLite::FieldType)2u>
FUNC 3e72e 48 0 google::protobuf::internal::WireFormatLite::ReadPrimitive<bool, (google::protobuf::internal::WireFormatLite::FieldType)8u>
FUNC 3e776 43 0 google::protobuf::internal::WireFormatLite::ReadPrimitive<int, (google::protobuf::internal::WireFormatLite::FieldType)14u>
FUNC 3e7ba 17 0 google::protobuf::internal::WireFormatLite::Int32Size
FUNC 3e7d2 1a 0 google::protobuf::internal::WireFormatLite::UInt64Size
FUNC 3e7ec 17 0 google::protobuf::internal::WireFormatLite::EnumSize
FUNC 3e804 22 0 google::protobuf::internal::WireFormatLite::StringSize
FUNC 3e826 1d 0 google::protobuf::internal::WireFormatLite::LengthDelimitedSize
FUNC 3e844 1a 0 google::protobuf::internal::InternalMetadataWithArenaLite::~InternalMetadataWithArenaLite
FUNC 3e85e 32 0 std::swap<std::string*>
FUNC 3e890 e 0 google::protobuf::internal::ExplicitlyConstructed<std::basic_string<char, std::char_traits<char>, std::allocator<char> > >::get
FUNC 3e89e 1a 0 google::protobuf::internal::InternalMetadataWithArenaBase<std::basic_string<char, std::char_traits<char>, std::allocator<char> >, google::protobuf::internal::InternalMetadataWithArenaLite>::Container::~Container
FUNC 3e8b8 cf 0 google::protobuf::internal::InternalMetadataWithArenaBase<std::basic_string<char, std::char_traits<char>, std::allocator<char> >, google::protobuf::internal::InternalMetadataWithArenaLite>::~InternalMetadataWithArenaBase
FUNC 3e988 19 0 google::protobuf::internal::InternalMetadataWithArenaBase<std::basic_string<char, std::char_traits<char>, std::allocator<char> >, google::protobuf::internal::InternalMetadataWithArenaLite>::InternalMetadataWithArenaBase
FUNC 3e9a1 32 0 std::swap<google::protobuf::internal::RepeatedPtrFieldBase::Rep*>
FUNC 3e9d3 2c 0 std::swap<int>
FUNC 3ea00 1a 0 google::protobuf::RepeatedPtrField<NetcardInfo>::size
FUNC 3ea1a 1a 0 google::protobuf::RepeatedPtrField<NetcardInfo>::Clear
FUNC 3ea34 22 0 google::protobuf::RepeatedPtrField<NetcardInfo>::Get
FUNC 3ea56 1f 0 google::protobuf::RepeatedPtrField<NetcardInfo>::Add
FUNC 3ea76 39 0 google::protobuf::internal::ExplicitlyConstructed<RawMessage>::Shutdown
FUNC 3eab0 39 0 google::protobuf::internal::ExplicitlyConstructed<AlarmMessage>::Shutdown
FUNC 3eaea 39 0 google::protobuf::internal::ExplicitlyConstructed<DebugRequest>::Shutdown
FUNC 3eb24 39 0 google::protobuf::internal::ExplicitlyConstructed<SOEMessage>::Shutdown
FUNC 3eb5e 39 0 google::protobuf::internal::ExplicitlyConstructed<ControlRequet>::Shutdown
FUNC 3eb98 39 0 google::protobuf::internal::ExplicitlyConstructed<LogRequest>::Shutdown
FUNC 3ebd2 39 0 google::protobuf::internal::ExplicitlyConstructed<RealLogResponse>::Shutdown
FUNC 3ec0c 39 0 google::protobuf::internal::ExplicitlyConstructed<LogQuery>::Shutdown
FUNC 3ec46 39 0 google::protobuf::internal::ExplicitlyConstructed<HisLogResponse>::Shutdown
FUNC 3ec80 39 0 google::protobuf::internal::ExplicitlyConstructed<NetcardInfoRequest>::Shutdown
FUNC 3ecba 39 0 google::protobuf::internal::ExplicitlyConstructed<NetcardInfo>::Shutdown
FUNC 3ecf4 39 0 google::protobuf::internal::ExplicitlyConstructed<NetcardInfoResponse>::Shutdown
FUNC 3ed2e 39 0 google::protobuf::internal::ExplicitlyConstructed<ProcessData>::Shutdown
FUNC 3ed68 39 0 google::protobuf::internal::ExplicitlyConstructed<ProcessCtrl>::Shutdown
FUNC 3eda2 39 0 google::protobuf::internal::ExplicitlyConstructed<RealPointValue>::Shutdown
FUNC 3eddc 39 0 google::protobuf::internal::ExplicitlyConstructed<HeartBeatMessage>::Shutdown
FUNC 3ee16 39 0 google::protobuf::internal::ExplicitlyConstructed<CommunicationPair>::Shutdown
FUNC 3ee50 39 0 google::protobuf::internal::ExplicitlyConstructed<FlowThreshold>::Shutdown
FUNC 3ee8a 3f 0 google::protobuf::internal::ExplicitlyConstructed<RtdbMessage>::Shutdown
FUNC 3eeca 70 0 google::protobuf::internal::ExplicitlyConstructed<RawMessage>::DefaultConstruct
FUNC 3ef3a 70 0 google::protobuf::internal::ExplicitlyConstructed<AlarmMessage>::DefaultConstruct
FUNC 3efaa 70 0 google::protobuf::internal::ExplicitlyConstructed<DebugRequest>::DefaultConstruct
FUNC 3f01a 70 0 google::protobuf::internal::ExplicitlyConstructed<SOEMessage>::DefaultConstruct
FUNC 3f08a 70 0 google::protobuf::internal::ExplicitlyConstructed<ControlRequet>::DefaultConstruct
FUNC 3f0fa 70 0 google::protobuf::internal::ExplicitlyConstructed<LogRequest>::DefaultConstruct
FUNC 3f16a 70 0 google::protobuf::internal::ExplicitlyConstructed<RealLogResponse>::DefaultConstruct
FUNC 3f1da 70 0 google::protobuf::internal::ExplicitlyConstructed<LogQuery>::DefaultConstruct
FUNC 3f24a 70 0 google::protobuf::internal::ExplicitlyConstructed<HisLogResponse>::DefaultConstruct
FUNC 3f2ba 70 0 google::protobuf::internal::ExplicitlyConstructed<NetcardInfoRequest>::DefaultConstruct
FUNC 3f32a 70 0 google::protobuf::internal::ExplicitlyConstructed<NetcardInfo>::DefaultConstruct
FUNC 3f39a 70 0 google::protobuf::internal::ExplicitlyConstructed<NetcardInfoResponse>::DefaultConstruct
FUNC 3f40a 70 0 google::protobuf::internal::ExplicitlyConstructed<ProcessData>::DefaultConstruct
FUNC 3f47a 70 0 google::protobuf::internal::ExplicitlyConstructed<ProcessCtrl>::DefaultConstruct
FUNC 3f4ea 70 0 google::protobuf::internal::ExplicitlyConstructed<RealPointValue>::DefaultConstruct
FUNC 3f55a 70 0 google::protobuf::internal::ExplicitlyConstructed<HeartBeatMessage>::DefaultConstruct
FUNC 3f5ca 70 0 google::protobuf::internal::ExplicitlyConstructed<CommunicationPair>::DefaultConstruct
FUNC 3f63a 70 0 google::protobuf::internal::ExplicitlyConstructed<FlowThreshold>::DefaultConstruct
FUNC 3f6aa 73 0 google::protobuf::internal::ExplicitlyConstructed<RtdbMessage>::DefaultConstruct
FUNC 3f71e e 0 google::protobuf::internal::ExplicitlyConstructed<RtdbMessage>::get_mutable
FUNC 3f72c 43 0 google::protobuf::Arena::Own<RawMessage>
FUNC 3f76f 6a 0 google::protobuf::internal::down_cast<const RawMessage*, const google::protobuf::MessageLite>
FUNC 3f7da 43 0 google::protobuf::Arena::Own<AlarmMessage>
FUNC 3f81d 6a 0 google::protobuf::internal::down_cast<const AlarmMessage*, const google::protobuf::MessageLite>
FUNC 3f888 43 0 google::protobuf::Arena::Own<DebugRequest>
FUNC 3f8cb 6a 0 google::protobuf::internal::down_cast<const DebugRequest*, const google::protobuf::MessageLite>
FUNC 3f936 43 0 google::protobuf::Arena::Own<SOEMessage>
FUNC 3f979 6a 0 google::protobuf::internal::down_cast<const SOEMessage*, const google::protobuf::MessageLite>
FUNC 3f9e4 43 0 google::protobuf::Arena::Own<ControlRequet>
FUNC 3fa27 6a 0 google::protobuf::internal::down_cast<const ControlRequet*, const google::protobuf::MessageLite>
FUNC 3fa91 2f 0 std::swap<bool>
FUNC 3fac0 43 0 google::protobuf::Arena::Own<LogRequest>
FUNC 3fb03 6a 0 google::protobuf::internal::down_cast<const LogRequest*, const google::protobuf::MessageLite>
FUNC 3fb6e 43 0 google::protobuf::Arena::Own<RealLogResponse>
FUNC 3fbb1 6a 0 google::protobuf::internal::down_cast<const RealLogResponse*, const google::protobuf::MessageLite>
FUNC 3fc1b 32 0 std::swap<google::protobuf::uint64>
FUNC 3fc4e 43 0 google::protobuf::Arena::Own<LogQuery>
FUNC 3fc91 6a 0 google::protobuf::internal::down_cast<const LogQuery*, const google::protobuf::MessageLite>
FUNC 3fcfc 43 0 google::protobuf::Arena::Own<HisLogResponse>
FUNC 3fd3f 6a 0 google::protobuf::internal::down_cast<const HisLogResponse*, const google::protobuf::MessageLite>
FUNC 3fdaa 43 0 google::protobuf::Arena::Own<NetcardInfoRequest>
FUNC 3fded 6a 0 google::protobuf::internal::down_cast<const NetcardInfoRequest*, const google::protobuf::MessageLite>
FUNC 3fe58 43 0 google::protobuf::Arena::Own<NetcardInfo>
FUNC 3fe9b 6a 0 google::protobuf::internal::down_cast<const NetcardInfo*, const google::protobuf::MessageLite>
FUNC 3ff06 1a 0 google::protobuf::RepeatedPtrField<NetcardInfo>::RepeatedPtrField
FUNC 3ff20 51 0 google::protobuf::RepeatedPtrField<NetcardInfo>::~RepeatedPtrField
FUNC 3ff72 5c 0 google::protobuf::RepeatedPtrField<NetcardInfo>::RepeatedPtrField
FUNC 3ffce 43 0 google::protobuf::Arena::Own<NetcardInfoResponse>
FUNC 40012 91 0 google::protobuf::internal::WireFormatLite::ReadMessageNoVirtual<NetcardInfo>
FUNC 400a4 22 0 google::protobuf::internal::WireFormatLite::MessageSizeNoVirtual<NetcardInfo>
FUNC 400c6 6a 0 google::protobuf::internal::down_cast<const NetcardInfoResponse*, const google::protobuf::MessageLite>
FUNC 40130 25 0 google::protobuf::RepeatedPtrField<NetcardInfo>::MergeFrom
FUNC 40156 43 0 google::protobuf::Arena::Own<ProcessData>
FUNC 40199 6a 0 google::protobuf::internal::down_cast<const ProcessData*, const google::protobuf::MessageLite>
FUNC 40203 2c 0 std::swap<float>
FUNC 40230 43 0 google::protobuf::Arena::Own<ProcessCtrl>
FUNC 40273 6a 0 google::protobuf::internal::down_cast<const ProcessCtrl*, const google::protobuf::MessageLite>
FUNC 402de 43 0 google::protobuf::Arena::Own<RealPointValue>
FUNC 40321 6a 0 google::protobuf::internal::down_cast<const RealPointValue*, const google::protobuf::MessageLite>
FUNC 4038c 43 0 google::protobuf::Arena::Own<HeartBeatMessage>
FUNC 403cf 6a 0 google::protobuf::internal::down_cast<const HeartBeatMessage*, const google::protobuf::MessageLite>
FUNC 4043a 43 0 google::protobuf::Arena::Own<CommunicationPair>
FUNC 4047d 6a 0 google::protobuf::internal::down_cast<const CommunicationPair*, const google::protobuf::MessageLite>
FUNC 404e8 43 0 google::protobuf::Arena::Own<FlowThreshold>
FUNC 4052b 6a 0 google::protobuf::internal::down_cast<const FlowThreshold*, const google::protobuf::MessageLite>
FUNC 40596 43 0 google::protobuf::Arena::Own<RtdbMessage>
FUNC 405da 91 0 google::protobuf::internal::WireFormatLite::ReadMessageNoVirtual<LogRequest>
FUNC 4066c 91 0 google::protobuf::internal::WireFormatLite::ReadMessageNoVirtual<RealLogResponse>
FUNC 406fe 91 0 google::protobuf::internal::WireFormatLite::ReadMessageNoVirtual<LogQuery>
FUNC 40790 91 0 google::protobuf::internal::WireFormatLite::ReadMessageNoVirtual<HisLogResponse>
FUNC 40822 91 0 google::protobuf::internal::WireFormatLite::ReadMessageNoVirtual<NetcardInfoRequest>
FUNC 408b4 91 0 google::protobuf::internal::WireFormatLite::ReadMessageNoVirtual<NetcardInfoResponse>
FUNC 40946 91 0 google::protobuf::internal::WireFormatLite::ReadMessageNoVirtual<ProcessData>
FUNC 409d8 91 0 google::protobuf::internal::WireFormatLite::ReadMessageNoVirtual<ProcessCtrl>
FUNC 40a6a 91 0 google::protobuf::internal::WireFormatLite::ReadMessageNoVirtual<RealPointValue>
FUNC 40afc 91 0 google::protobuf::internal::WireFormatLite::ReadMessageNoVirtual<HeartBeatMessage>
FUNC 40b8e 91 0 google::protobuf::internal::WireFormatLite::ReadMessageNoVirtual<AlarmMessage>
FUNC 40c20 91 0 google::protobuf::internal::WireFormatLite::ReadMessageNoVirtual<CommunicationPair>
FUNC 40cb2 91 0 google::protobuf::internal::WireFormatLite::ReadMessageNoVirtual<FlowThreshold>
FUNC 40d44 22 0 google::protobuf::internal::WireFormatLite::MessageSizeNoVirtual<LogRequest>
FUNC 40d66 22 0 google::protobuf::internal::WireFormatLite::MessageSizeNoVirtual<RealLogResponse>
FUNC 40d88 22 0 google::protobuf::internal::WireFormatLite::MessageSizeNoVirtual<LogQuery>
FUNC 40daa 22 0 google::protobuf::internal::WireFormatLite::MessageSizeNoVirtual<HisLogResponse>
FUNC 40dcc 22 0 google::protobuf::internal::WireFormatLite::MessageSizeNoVirtual<NetcardInfoRequest>
FUNC 40dee 22 0 google::protobuf::internal::WireFormatLite::MessageSizeNoVirtual<NetcardInfoResponse>
FUNC 40e10 22 0 google::protobuf::internal::WireFormatLite::MessageSizeNoVirtual<ProcessData>
FUNC 40e32 22 0 google::protobuf::internal::WireFormatLite::MessageSizeNoVirtual<ProcessCtrl>
FUNC 40e54 22 0 google::protobuf::internal::WireFormatLite::MessageSizeNoVirtual<RealPointValue>
FUNC 40e76 22 0 google::protobuf::internal::WireFormatLite::MessageSizeNoVirtual<HeartBeatMessage>
FUNC 40e98 22 0 google::protobuf::internal::WireFormatLite::MessageSizeNoVirtual<AlarmMessage>
FUNC 40eba 22 0 google::protobuf::internal::WireFormatLite::MessageSizeNoVirtual<CommunicationPair>
FUNC 40edc 22 0 google::protobuf::internal::WireFormatLite::MessageSizeNoVirtual<FlowThreshold>
FUNC 40efe 6a 0 google::protobuf::internal::down_cast<const RtdbMessage*, const google::protobuf::MessageLite>
FUNC 40f68 32 0 std::swap<LogRequest*>
FUNC 40f9a 32 0 std::swap<RealLogResponse*>
FUNC 40fcc 32 0 std::swap<LogQuery*>
FUNC 40ffe 32 0 std::swap<HisLogResponse*>
FUNC 41030 32 0 std::swap<NetcardInfoRequest*>
FUNC 41062 32 0 std::swap<NetcardInfoResponse*>
FUNC 41094 32 0 std::swap<ProcessData*>
FUNC 410c6 32 0 std::swap<ProcessCtrl*>
FUNC 410f8 32 0 std::swap<RealPointValue*>
FUNC 4112a 32 0 std::swap<HeartBeatMessage*>
FUNC 4115c 32 0 std::swap<AlarmMessage*>
FUNC 4118e 32 0 std::swap<CommunicationPair*>
FUNC 411c0 32 0 std::swap<FlowThreshold*>
FUNC 411f2 2d 0 std::make_pair<unsigned int, bool>
FUNC 41220 15 0 google::protobuf::internal::InternalMetadataWithArenaBase<std::basic_string<char, std::char_traits<char>, std::allocator<char> >, google::protobuf::internal::InternalMetadataWithArenaLite>::PtrValue<google::protobuf::internal::InternalMetadataWithArenaBase<std::basic_string<char, std::char_traits<char>, std::allocator<char> >, google::protobuf::internal::InternalMetadataWithArenaLite>::Container>
FUNC 41236 1ae 0 google::protobuf::internal::InternalMetadataWithArenaBase<std::basic_string<char, std::char_traits<char>, std::allocator<char> >, google::protobuf::internal::InternalMetadataWithArenaLite>::mutable_unknown_fields_slow
FUNC 413e4 107 0 google::protobuf::internal::RepeatedPtrFieldBase::Clear<google::protobuf::RepeatedPtrField<NetcardInfo>::TypeHandler>
FUNC 414ec 165 0 google::protobuf::internal::RepeatedPtrFieldBase::Get<google::protobuf::RepeatedPtrField<NetcardInfo>::TypeHandler>
FUNC 41652 f4 0 google::protobuf::internal::RepeatedPtrFieldBase::Add<google::protobuf::RepeatedPtrField<NetcardInfo>::TypeHandler>
FUNC 41746 e 0 google::protobuf::internal::ExplicitlyConstructed<RawMessage>::get_mutable
FUNC 41754 e 0 google::protobuf::internal::ExplicitlyConstructed<AlarmMessage>::get_mutable
FUNC 41762 e 0 google::protobuf::internal::ExplicitlyConstructed<DebugRequest>::get_mutable
FUNC 41770 e 0 google::protobuf::internal::ExplicitlyConstructed<SOEMessage>::get_mutable
FUNC 4177e e 0 google::protobuf::internal::ExplicitlyConstructed<ControlRequet>::get_mutable
FUNC 4178c e 0 google::protobuf::internal::ExplicitlyConstructed<LogRequest>::get_mutable
FUNC 4179a e 0 google::protobuf::internal::ExplicitlyConstructed<RealLogResponse>::get_mutable
FUNC 417a8 e 0 google::protobuf::internal::ExplicitlyConstructed<LogQuery>::get_mutable
FUNC 417b6 e 0 google::protobuf::internal::ExplicitlyConstructed<HisLogResponse>::get_mutable
FUNC 417c4 e 0 google::protobuf::internal::ExplicitlyConstructed<NetcardInfoRequest>::get_mutable
FUNC 417d2 e 0 google::protobuf::internal::ExplicitlyConstructed<NetcardInfo>::get_mutable
FUNC 417e0 e 0 google::protobuf::internal::ExplicitlyConstructed<NetcardInfoResponse>::get_mutable
FUNC 417ee e 0 google::protobuf::internal::ExplicitlyConstructed<ProcessData>::get_mutable
FUNC 417fc e 0 google::protobuf::internal::ExplicitlyConstructed<ProcessCtrl>::get_mutable
FUNC 4180a e 0 google::protobuf::internal::ExplicitlyConstructed<RealPointValue>::get_mutable
FUNC 41818 e 0 google::protobuf::internal::ExplicitlyConstructed<HeartBeatMessage>::get_mutable
FUNC 41826 e 0 google::protobuf::internal::ExplicitlyConstructed<CommunicationPair>::get_mutable
FUNC 41834 e 0 google::protobuf::internal::ExplicitlyConstructed<FlowThreshold>::get_mutable
FUNC 41842 9f 0 google::protobuf::internal::RepeatedPtrFieldBase::Destroy<google::protobuf::RepeatedPtrField<NetcardInfo>::TypeHandler>
FUNC 418e2 e8 0 google::protobuf::internal::RepeatedPtrFieldBase::MergeFrom<google::protobuf::RepeatedPtrField<NetcardInfo>::TypeHandler>
FUNC 419ca 2c 0 std::pair<unsigned int, bool>::pair
FUNC 419f6 15 0 google::protobuf::internal::InternalMetadataWithArenaBase<std::basic_string<char, std::char_traits<char>, std::allocator<char> >, google::protobuf::internal::InternalMetadataWithArenaLite>::PtrValue<google::protobuf::Arena>
FUNC 41a0c 1a 0 google::protobuf::internal::InternalMetadataWithArenaBase<std::basic_string<char, std::char_traits<char>, std::allocator<char> >, google::protobuf::internal::InternalMetadataWithArenaLite>::Container::Container
FUNC 41a26 25 0 google::protobuf::internal::GenericTypeHandler<NetcardInfo>::Clear
FUNC 41a4b e 0 google::protobuf::internal::RepeatedPtrFieldBase::cast<google::protobuf::RepeatedPtrField<NetcardInfo>::TypeHandler>
FUNC 41a5a 1e 0 google::protobuf::internal::GenericTypeHandler<NetcardInfo>::NewFromPrototype
FUNC 41a78 2e 0 google::protobuf::internal::arena_delete_object<RawMessage>
FUNC 41aa6 2e 0 google::protobuf::internal::arena_delete_object<AlarmMessage>
FUNC 41ad4 2e 0 google::protobuf::internal::arena_delete_object<DebugRequest>
FUNC 41b02 2e 0 google::protobuf::internal::arena_delete_object<SOEMessage>
FUNC 41b30 2e 0 google::protobuf::internal::arena_delete_object<ControlRequet>
FUNC 41b5e 2e 0 google::protobuf::internal::arena_delete_object<LogRequest>
FUNC 41b8c 2e 0 google::protobuf::internal::arena_delete_object<RealLogResponse>
FUNC 41bba 2e 0 google::protobuf::internal::arena_delete_object<LogQuery>
FUNC 41be8 2e 0 google::protobuf::internal::arena_delete_object<HisLogResponse>
FUNC 41c16 2e 0 google::protobuf::internal::arena_delete_object<NetcardInfoRequest>
FUNC 41c44 2e 0 google::protobuf::internal::arena_delete_object<NetcardInfo>
FUNC 41c72 37 0 google::protobuf::internal::GenericTypeHandler<NetcardInfo>::Delete
FUNC 41ca9 2e 0 google::protobuf::internal::arena_delete_object<NetcardInfoResponse>
FUNC 41cd8 100 0 google::protobuf::internal::RepeatedPtrFieldBase::MergeFromInnerLoop<google::protobuf::RepeatedPtrField<NetcardInfo>::TypeHandler>
FUNC 41dd8 2e 0 google::protobuf::internal::arena_delete_object<ProcessData>
FUNC 41e06 2e 0 google::protobuf::internal::arena_delete_object<ProcessCtrl>
FUNC 41e34 2e 0 google::protobuf::internal::arena_delete_object<RealPointValue>
FUNC 41e62 2e 0 google::protobuf::internal::arena_delete_object<HeartBeatMessage>
FUNC 41e90 2e 0 google::protobuf::internal::arena_delete_object<CommunicationPair>
FUNC 41ebe 2e 0 google::protobuf::internal::arena_delete_object<FlowThreshold>
FUNC 41eec 2e 0 google::protobuf::internal::arena_delete_object<RtdbMessage>
FUNC 41f1a 11b 0 google::protobuf::internal::GenericTypeHandler<NetcardInfo>::New
FUNC 42036 25 0 google::protobuf::internal::GenericTypeHandler<NetcardInfo>::Merge
FUNC 4205b 1a 0 google::protobuf::internal::arena_destruct_object<google::protobuf::internal::InternalMetadataWithArenaBase<std::basic_string<char, std::char_traits<char>, std::allocator<char> >, google::protobuf::internal::InternalMetadataWithArenaLite>::Container>
FUNC 42075 21 0 google::protobuf::internal::arena_destruct_object<NetcardInfo>
FUNC 42098 2c 0 Serial485ClientService::Serial485ClientService
FUNC 420c4 41 0 Serial485ClientService::~Serial485ClientService
FUNC 42106 26 0 Serial485ClientService::~Serial485ClientService
FUNC 4212c 141 0 Serial485ClientService::Start
FUNC 4226e 385 0 Serial485ClientService::Read
FUNC 425f3 1c4 0 __static_initialization_and_destruction_0
FUNC 427b7 15 0 _GLOBAL__I_Serial485ClientService.cpp
FUNC 427cc 109 0 SerialNet::SerialNet
FUNC 428d6 e3 0 SerialNet::~SerialNet
FUNC 429ba 26 0 SerialNet::~SerialNet
FUNC 429e0 485 0 SerialNet::Connect
FUNC 42e66 af 0 SerialNet::GetFunction
FUNC 42f16 312 0 SerialNet::Read
FUNC 43228 b3 0 SerialNet::Write
FUNC 432dc 2c 0 SerialNet::DisConnect
FUNC 43308 2b2 0 SerialNet::SetSpeed
FUNC 435ba 35a 0 SerialNet::SetParity
FUNC 43914 42 0 SerialNet::SumCheck
FUNC 43956 112 0 SerialNet::ToHexString
FUNC 43a68 48 0 __static_initialization_and_destruction_0
FUNC 43ab0 15 0 _GLOBAL__I_SerialNet.cpp
FUNC 43ac8 cd 0 SerialService::SerialService
FUNC 43b96 b1 0 SerialService::~SerialService
FUNC 43c48 26 0 SerialService::~SerialService
FUNC 43c6e 221 0 SerialService::Start
FUNC 43e90 67e 0 SerialService::Write
FUNC 4450e 57d 0 SerialService::Read
FUNC 44a8c 9c 0 SerialService::ParseRecvData
FUNC 44b28 b0 0 SerialService::ParseFixedData
FUNC 44bd8 213 0 SerialService::ParseVariableData
FUNC 44dec 189 0 SerialService::InitConfig
FUNC 44f75 1c4 0 __static_initialization_and_destruction_0
FUNC 45139 15 0 _GLOBAL__I_SerialService.cpp
FUNC 4514e 33 0 Config::GetSerialPortPath
FUNC 45182 11 0 Config::GetSpeed
FUNC 45194 11 0 Config::GetDatabits
FUNC 451a6 11 0 Config::GetStopbits
FUNC 451b8 12 0 Config::GetParity
FUNC 451ca 12 0 Config::GetClientAddr
FUNC 451dc 33 0 Config::GetIp
FUNC 45210 12 0 Config::GetTcpPort
FUNC 45222 15 0 Config::GetOutTime
FUNC 45238 1a 0 std::vector<char, std::allocator<char> >::vector
FUNC 45252 6e 0 std::vector<char, std::allocator<char> >::~vector
FUNC 452c0 229 0 std::vector<char, std::allocator<char> >::operator=
FUNC 454ea 11 0 std::vector<char, std::allocator<char> >::data
FUNC 454fc 25 0 std::vector<char, std::allocator<char> >::size
FUNC 45522 1f 0 std::vector<short unsigned int, std::allocator<short unsigned int> >::operator[]
FUNC 45542 1a 0 std::_Vector_base<char, std::allocator<char> >::_Vector_impl::~_Vector_impl
FUNC 4555c 1a 0 std::_Vector_base<char, std::allocator<char> >::_Vector_base
FUNC 45576 79 0 std::_Vector_base<char, std::allocator<char> >::~_Vector_base
FUNC 455f0 e 0 std::_Vector_base<char, std::allocator<char> >::_M_get_Tp_allocator
FUNC 455fe 29 0 std::_Destroy<char*, char>
FUNC 45628 25 0 std::vector<char, std::allocator<char> >::capacity
FUNC 4564e 30 0 std::vector<char, std::allocator<char> >::begin
FUNC 4567e 31 0 std::vector<char, std::allocator<char> >::end
FUNC 456b0 a1 0 std::vector<char, std::allocator<char> >::_M_allocate_and_copy<__gnu_cxx::__normal_iterator<const char*, std::vector<char, std::allocator<char> > > >
FUNC 45752 34 0 std::_Vector_base<char, std::allocator<char> >::_M_deallocate
FUNC 45786 25 0 std::vector<char, std::allocator<char> >::begin
FUNC 457ab 46 0 std::copy<__gnu_cxx::__normal_iterator<const char*, std::vector<char, std::allocator<char> > >, __gnu_cxx::__normal_iterator<char*, std::vector<char, std::allocator<char> > > >
FUNC 457f2 29 0 std::vector<char, std::allocator<char> >::end
FUNC 4581b 29 0 std::_Destroy<__gnu_cxx::__normal_iterator<char*, std::vector<char, std::allocator<char> > >, char>
FUNC 45844 46 0 std::copy<char*, char*>
FUNC 4588a 31 0 std::__uninitialized_copy_a<char*, char*, char>
FUNC 458bc 3d 0 std::_Vector_base<char, std::allocator<char> >::_Vector_impl::_Vector_impl
FUNC 458f9 25 0 std::_Destroy<char*>
FUNC 4591e 1c 0 __gnu_cxx::__normal_iterator<const char*, std::vector<char, std::allocator<char> > >::__normal_iterator
FUNC 4593a 38 0 std::_Vector_base<char, std::allocator<char> >::_M_allocate
FUNC 45972 31 0 std::__uninitialized_copy_a<__gnu_cxx::__normal_iterator<const char*, std::vector<char, std::allocator<char> > >, char*, char>
FUNC 459a4 22 0 __gnu_cxx::new_allocator<char>::deallocate
FUNC 459c6 1c 0 __gnu_cxx::__normal_iterator<char*, std::vector<char, std::allocator<char> > >::__normal_iterator
FUNC 459e2 e 0 std::__miter_base<__gnu_cxx::__normal_iterator<const char*, std::vector<char, std::allocator<char> > >, false>::__b
FUNC 459f0 73 0 std::__copy_move_a2<false, __gnu_cxx::__normal_iterator<const char*, std::vector<char, std::allocator<char> > >, __gnu_cxx::__normal_iterator<char*, std::vector<char, std::allocator<char> > > >
FUNC 45a63 25 0 std::_Destroy<__gnu_cxx::__normal_iterator<char*, std::vector<char, std::allocator<char> > > >
FUNC 45a88 e 0 std::__miter_base<char*, false>::__b
FUNC 45a96 58 0 std::__copy_move_a2<false, char*, char*>
FUNC 45aee 2d 0 std::uninitialized_copy<char*, char*>
FUNC 45b1b e 0 std::_Destroy_aux<true>::__destroy<char*>
FUNC 45b2a 47 0 __gnu_cxx::new_allocator<char>::allocate
FUNC 45b71 2d 0 std::uninitialized_copy<__gnu_cxx::__normal_iterator<const char*, std::vector<char, std::allocator<char> > >, char*>
FUNC 45b9e 1d 0 std::__niter_base<__gnu_cxx::__normal_iterator<const char*, std::vector<char, std::allocator<char> > >, true>::__b
FUNC 45bbb 1d 0 std::__niter_base<__gnu_cxx::__normal_iterator<char*, std::vector<char, std::allocator<char> > >, true>::__b
FUNC 45bd8 31 0 std::__copy_move_a<false, const char*, char*>
FUNC 45c09 e 0 std::_Destroy_aux<true>::__destroy<__gnu_cxx::__normal_iterator<char*, std::vector<char, std::allocator<char> > > >
FUNC 45c17 e 0 std::__niter_base<char*, false>::__b
FUNC 45c25 31 0 std::__copy_move_a<false, char*, char*>
FUNC 45c56 2d 0 std::__uninitialized_copy<true>::uninitialized_copy<char*, char*>
FUNC 45c84 11 0 __gnu_cxx::new_allocator<char>::max_size
FUNC 45c95 2d 0 std::__uninitialized_copy<true>::uninitialized_copy<__gnu_cxx::__normal_iterator<const char*, std::vector<char, std::allocator<char> > >, char*>
FUNC 45cc2 e 0 __gnu_cxx::__normal_iterator<const char*, std::vector<char, std::allocator<char> > >::base
FUNC 45cd0 e 0 __gnu_cxx::__normal_iterator<char*, std::vector<char, std::allocator<char> > >::base
FUNC 45cde 52 0 std::__copy_move<false, true, std::random_access_iterator_tag>::__copy_m<char>
FUNC 45d30 46 0 std::copy<__gnu_cxx::__normal_iterator<const char*, std::vector<char, std::allocator<char> > >, char*>
FUNC 45d76 58 0 std::__copy_move_a2<false, __gnu_cxx::__normal_iterator<const char*, std::vector<char, std::allocator<char> > >, char*>
FUNC 45dd0 137 0 Service::Service
FUNC 45f08 113 0 Service::~Service
FUNC 4601c 26 0 Service::~Service
FUNC 46042 a 0 Service::InitConfig
FUNC 4604c 2a 0 Service::Init
FUNC 46076 f2 0 Service::setPointAddrMap
FUNC 46168 1af 0 Service::connectRedis
FUNC 46318 56d 0 Service::writePointsValue
FUNC 46886 6c 0 Service::setChannel
FUNC 468f2 2c 0 Service::setChannel
FUNC 4691e 3f6 0 Service::Start
FUNC 46d14 94c 0 Service::Write
FUNC 47660 6f5 0 Service::Read
FUNC 47d56 15e 0 Service::ParseRecvData
FUNC 47eb4 6d 0 Service::ParseFixedData
FUNC 47f22 181 0 Service::ParseVariableData
FUNC 480a4 47 0 Service::CmdResetCon
FUNC 480ec 47 0 Service::CmdResetNum
FUNC 48134 4b 0 Service::CmdGetDataLv1
FUNC 48180 4b 0 Service::CmdGetDataLv2
FUNC 481cc 13a 0 Service::CmdFixedData
FUNC 48306 3ad 0 Service::CmdSetTimeStamp
FUNC 486b4 22c 0 Service::CmdResetEventAlarm
FUNC 488e0 347 0 Service::CmdSettingDownload
FUNC 48c28 347 0 Service::CmdSettingModify
FUNC 48f70 23f 0 Service::CmdGetAll
FUNC 491b0 26d 0 Service::CmdGetGroupValue
FUNC 4941e 273 0 Service::CmdGetEntryValue
FUNC 49692 42 0 Service::SumCheck
FUNC 496d4 370 0 Service::ParseASDU44
FUNC 49a44 2e6 0 Service::ParseASDU40
FUNC 49d2a 3c 0 Service::ParseASDU41
FUNC 49d66 619 0 Service::ParseASDU42
FUNC 4a380 754 0 Service::ParseASDU50
FUNC 4aad4 655 0 Service::ParseASDU1
FUNC 4b12a 5b0 0 Service::ParseASDU2
FUNC 4b6da 124 0 Service::GetGlobalAddrByPrivateAddr
FUNC 4b7fe a3 0 Service::GetRateByPrivateAddr
FUNC 4b8a2 112 0 Service::ToHexString
FUNC 4b9b4 4c3 0 Service::InitPointAddrMap
FUNC 4be78 8b 0 Service::StartBreakHeart
FUNC 4bf04 db 0 Service::ThreadFunc
FUNC 4bfe0 18e 0 Service::ParseASDU10
FUNC 4c16e 555 0 Service::ParseASDU10AllValue
FUNC 4c6c3 257 0 __static_initialization_and_destruction_0
FUNC 4c91a 15 0 _GLOBAL__I_Service.cpp
FUNC 4c930 12 0 Config::GetUdpPort
FUNC 4c942 15 0 Config::GetId
FUNC 4c958 14 0 Config::GetIedName
FUNC 4c96c ac 0 google::protobuf::internal::ToIntSize
FUNC 4ca18 2d 0 google::protobuf::MessageLite::ByteSize
FUNC 4ca46 2e 0 RealPointValue::set_channelname
FUNC 4ca74 13c 0 RealPointValue::set_pointvalue
FUNC 4cbb0 13c 0 RealPointValue::set_pointaddr
FUNC 4ccec 66 0 Tag::Tag
FUNC 4cd52 50 0 Tag::~Tag
FUNC 4cda2 63 0 Tag::operator=
FUNC 4ce06 8b 0 Tag::ZeroTag
FUNC 4ce92 1a 0 std::map<std::basic_string<char, std::char_traits<char>, std::allocator<char> >, Service::Point103, std::less<std::basic_string<char, std::char_traits<char>, std::allocator<char> > >, std::allocator<std::pair<const std::basic_string<char, std::char_traits<char>, std::allocator<char> >, Service::Point103> > >::~map
FUNC 4ceac 1e 0 Service::Point103::Point103
FUNC 4ceca 1e 0 Service::Point103::~Point103
FUNC 4cee8 3d 0 Service::Point103::operator=
FUNC 4cf26 39 0 Service::Point103::Point103
FUNC 4cf60 1e 0 std::pair<char*, Service::Point103>::~pair
FUNC 4cf7e 55 0 std::pair<const std::basic_string<char, std::char_traits<char>, std::allocator<char> >, Service::Point103>::~pair
FUNC 4cfd4 1a 0 std::vector<Tag, std::allocator<Tag> >::vector
FUNC 4cfee 6e 0 std::vector<Tag, std::allocator<Tag> >::~vector
FUNC 4d05c 1a 0 std::map<std::basic_string<char, std::char_traits<char>, std::allocator<char> >, Service::Point103, std::less<std::basic_string<char, std::char_traits<char>, std::allocator<char> > >, std::allocator<std::pair<const std::basic_string<char, std::char_traits<char>, std::allocator<char> >, Service::Point103> > >::map
FUNC 4d076 1a 0 std::_Rb_tree<std::basic_string<char, std::char_traits<char>, std::allocator<char> >, std::pair<const std::basic_string<char, std::char_traits<char>, std::allocator<char> >, Service::Point103>, std::_Select1st<std::pair<const std::basic_string<char, std::char_traits<char>, std::allocator<char> >, Service::Point103> >, std::less<std::basic_string<char, std::char_traits<char>, std::allocator<char> > >, std::allocator<std::pair<const std::basic_string<char, std::char_traits<char>, std::allocator<char> >, Service::Point103> > >::_Rb_tree_impl<std::less<std::basic_string<char, std::char_traits<char>, std::allocator<char> > >, false>::~_Rb_tree_impl
FUNC 4d090 63 0 std::_Rb_tree<std::basic_string<char, std::char_traits<char>, std::allocator<char> >, std::pair<const std::basic_string<char, std::char_traits<char>, std::allocator<char> >, Service::Point103>, std::_Select1st<std::pair<const std::basic_string<char, std::char_traits<char>, std::allocator<char> >, Service::Point103> >, std::less<std::basic_string<char, std::char_traits<char>, std::allocator<char> > >, std::allocator<std::pair<const std::basic_string<char, std::char_traits<char>, std::allocator<char> >, Service::Point103> > >::~_Rb_tree
FUNC 4d0f4 1a 0 std::map<std::basic_string<char, std::char_traits<char>, std::allocator<char> >, std::basic_string<char, std::char_traits<char>, std::allocator<char> >, std::less<std::basic_string<char, std::char_traits<char>, std::allocator<char> > >, std::allocator<std::pair<const std::basic_string<char, std::char_traits<char>, std::allocator<char> >, std::basic_string<char, std::char_traits<char>, std::allocator<char> > > > >::begin
FUNC 4d10e 22 0 std::_Rb_tree_iterator<std::pair<const std::basic_string<char, std::char_traits<char>, std::allocator<char> >, std::basic_string<char, std::char_traits<char>, std::allocator<char> > > >::operator!=
FUNC 4d130 28 0 std::_Rb_tree_iterator<std::pair<const std::basic_string<char, std::char_traits<char>, std::allocator<char> >, std::basic_string<char, std::char_traits<char>, std::allocator<char> > > >::operator++
FUNC 4d158 15 0 std::_Rb_tree_iterator<std::pair<const std::basic_string<char, std::char_traits<char>, std::allocator<char> >, std::basic_string<char, std::char_traits<char>, std::allocator<char> > > >::operator->
FUNC 4d16e 156 0 std::map<std::basic_string<char, std::char_traits<char>, std::allocator<char> >, Service::Point103, std::less<std::basic_string<char, std::char_traits<char>, std::allocator<char> > >, std::allocator<std::pair<const std::basic_string<char, std::char_traits<char>, std::allocator<char> >, Service::Point103> > >::operator[]
FUNC 4d2c4 73 0 std::vector<char, std::allocator<char> >::vector
FUNC 4d338 19 0 std::vector<char, std::allocator<char> >::operator[]
FUNC 4d352 7d 0 std::vector<Tag, std::allocator<Tag> >::push_back
FUNC 4d3d0 25 0 std::map<std::basic_string<char, std::char_traits<char>, std::allocator<char> >, Service::Point103, std::less<std::basic_string<char, std::char_traits<char>, std::allocator<char> > >, std::allocator<std::pair<const std::basic_string<char, std::char_traits<char>, std::allocator<char> >, Service::Point103> > >::find
FUNC 4d3f6 1c 0 std::_Rb_tree_const_iterator<std::pair<const std::basic_string<char, std::char_traits<char>, std::allocator<char> >, Service::Point103> >::_Rb_tree_const_iterator
FUNC 4d412 1a 0 std::map<std::basic_string<char, std::char_traits<char>, std::allocator<char> >, Service::Point103, std::less<std::basic_string<char, std::char_traits<char>, std::allocator<char> > >, std::allocator<std::pair<const std::basic_string<char, std::char_traits<char>, std::allocator<char> >, Service::Point103> > >::end
FUNC 4d42c 22 0 std::_Rb_tree_const_iterator<std::pair<const std::basic_string<char, std::char_traits<char>, std::allocator<char> >, Service::Point103> >::operator!=
FUNC 4d44e 15 0 std::_Rb_tree_const_iterator<std::pair<const std::basic_string<char, std::char_traits<char>, std::allocator<char> >, Service::Point103> >::operator->
FUNC 4d464 1a 0 std::map<std::basic_string<char, std::char_traits<char>, std::allocator<char> >, Service::Point103, std::less<std::basic_string<char, std::char_traits<char>, std::allocator<char> > >, std::allocator<std::pair<const std::basic_string<char, std::char_traits<char>, std::allocator<char> >, Service::Point103> > >::clear
FUNC 4d47e 37 0 std::make_pair<char*, Service::Point103>
FUNC 4d4b6 ab 0 std::pair<const std::basic_string<char, std::char_traits<char>, std::allocator<char> >, Service::Point103>::pair<char*, Service::Point103>
FUNC 4d562 47 0 std::map<std::basic_string<char, std::char_traits<char>, std::allocator<char> >, Service::Point103, std::less<std::basic_string<char, std::char_traits<char>, std::allocator<char> > >, std::allocator<std::pair<const std::basic_string<char, std::char_traits<char>, std::allocator<char> >, Service::Point103> > >::insert
FUNC 4d5aa 1a 0 std::map<std::basic_string<char, std::char_traits<char>, std::allocator<char> >, Service::Point103, std::less<std::basic_string<char, std::char_traits<char>, std::allocator<char> > >, std::allocator<std::pair<const std::basic_string<char, std::char_traits<char>, std::allocator<char> >, Service::Point103> > >::size
FUNC 4d5c4 1a 0 std::_Vector_base<Tag, std::allocator<Tag> >::_Vector_impl::~_Vector_impl
FUNC 4d5de 1a 0 std::_Vector_base<Tag, std::allocator<Tag> >::_Vector_base
FUNC 4d5f8 81 0 std::_Vector_base<Tag, std::allocator<Tag> >::~_Vector_base
FUNC 4d67a e 0 std::_Vector_base<Tag, std::allocator<Tag> >::_M_get_Tp_allocator
FUNC 4d688 29 0 std::_Destroy<Tag*, Tag>
FUNC 4d6b2 1a 0 std::_Rb_tree<std::basic_string<char, std::char_traits<char>, std::allocator<char> >, std::pair<const std::basic_string<char, std::char_traits<char>, std::allocator<char> >, Service::Point103>, std::_Select1st<std::pair<const std::basic_string<char, std::char_traits<char>, std::allocator<char> >, Service::Point103> >, std::less<std::basic_string<char, std::char_traits<char>, std::allocator<char> > >, std::allocator<std::pair<const std::basic_string<char, std::char_traits<char>, std::allocator<char> >, Service::Point103> > >::_Rb_tree
FUNC 4d6cc 1a 0 std::allocator<std::_Rb_tree_node<std::pair<const std::basic_string<char, std::char_traits<char>, std::allocator<char> >, Service::Point103> > >::~allocator
FUNC 4d6e6 69 0 std::_Rb_tree<std::basic_string<char, std::char_traits<char>, std::allocator<char> >, std::pair<const std::basic_string<char, std::char_traits<char>, std::allocator<char> >, Service::Point103>, std::_Select1st<std::pair<const std::basic_string<char, std::char_traits<char>, std::allocator<char> >, Service::Point103> >, std::less<std::basic_string<char, std::char_traits<char>, std::allocator<char> > >, std::allocator<std::pair<const std::basic_string<char, std::char_traits<char>, std::allocator<char> >, Service::Point103> > >::_M_erase
FUNC 4d750 12 0 std::_Rb_tree<std::basic_string<char, std::char_traits<char>, std::allocator<char> >, std::pair<const std::basic_string<char, std::char_traits<char>, std::allocator<char> >, Service::Point103>, std::_Select1st<std::pair<const std::basic_string<char, std::char_traits<char>, std::allocator<char> >, Service::Point103> >, std::less<std::basic_string<char, std::char_traits<char>, std::allocator<char> > >, std::allocator<std::pair<const std::basic_string<char, std::char_traits<char>, std::allocator<char> >, Service::Point103> > >::_M_begin
FUNC 4d762 25 0 std::map<std::basic_string<char, std::char_traits<char>, std::allocator<char> >, Service::Point103, std::less<std::basic_string<char, std::char_traits<char>, std::allocator<char> > >, std::allocator<std::pair<const std::basic_string<char, std::char_traits<char>, std::allocator<char> >, Service::Point103> > >::lower_bound
FUNC 4d788 1a 0 std::map<std::basic_string<char, std::char_traits<char>, std::allocator<char> >, Service::Point103, std::less<std::basic_string<char, std::char_traits<char>, std::allocator<char> > >, std::allocator<std::pair<const std::basic_string<char, std::char_traits<char>, std::allocator<char> >, Service::Point103> > >::key_comp
FUNC 4d7a2 15 0 std::_Rb_tree_iterator<std::pair<const std::basic_string<char, std::char_traits<char>, std::allocator<char> >, Service::Point103> >::operator*
FUNC 4d7b8 22 0 std::_Rb_tree_iterator<std::pair<const std::basic_string<char, std::char_traits<char>, std::allocator<char> >, Service::Point103> >::operator==
FUNC 4d7da 6b 0 std::pair<const std::basic_string<char, std::char_traits<char>, std::allocator<char> >, Service::Point103>::pair
FUNC 4d846 40 0 std::map<std::basic_string<char, std::char_traits<char>, std::allocator<char> >, Service::Point103, std::less<std::basic_string<char, std::char_traits<char>, std::allocator<char> > >, std::allocator<std::pair<const std::basic_string<char, std::char_traits<char>, std::allocator<char> >, Service::Point103> > >::insert
FUNC 4d886 91 0 std::_Vector_base<char, std::allocator<char> >::_Vector_base
FUNC 4d918 55 0 std::vector<char, std::allocator<char> >::_M_fill_initialize
FUNC 4d96e e2 0 __gnu_cxx::new_allocator<Tag>::construct
FUNC 4da50 42b 0 std::vector<Tag, std::allocator<Tag> >::_M_insert_aux
FUNC 4de7c 29 0 std::vector<Tag, std::allocator<Tag> >::end
FUNC 4dea6 b6 0 std::_Rb_tree<std::basic_string<char, std::char_traits<char>, std::allocator<char> >, std::pair<const std::basic_string<char, std::char_traits<char>, std::allocator<char> >, Service::Point103>, std::_Select1st<std::pair<const std::basic_string<char, std::char_traits<char>, std::allocator<char> >, Service::Point103> >, std::less<std::basic_string<char, std::char_traits<char>, std::allocator<char> > >, std::allocator<std::pair<const std::basic_string<char, std::char_traits<char>, std::allocator<char> >, Service::Point103> > >::find
FUNC 4df5c 2c 0 std::_Rb_tree<std::basic_string<char, std::char_traits<char>, std::allocator<char> >, std::pair<const std::basic_string<char, std::char_traits<char>, std::allocator<char> >, Service::Point103>, std::_Select1st<std::pair<const std::basic_string<char, std::char_traits<char>, std::allocator<char> >, Service::Point103> >, std::less<std::basic_string<char, std::char_traits<char>, std::allocator<char> > >, std::allocator<std::pair<const std::basic_string<char, std::char_traits<char>, std::allocator<char> >, Service::Point103> > >::end
FUNC 4df88 8d 0 std::_Rb_tree<std::basic_string<char, std::char_traits<char>, std::allocator<char> >, std::pair<const std::basic_string<char, std::char_traits<char>, std::allocator<char> >, Service::Point103>, std::_Select1st<std::pair<const std::basic_string<char, std::char_traits<char>, std::allocator<char> >, Service::Point103> >, std::less<std::basic_string<char, std::char_traits<char>, std::allocator<char> > >, std::allocator<std::pair<const std::basic_string<char, std::char_traits<char>, std::allocator<char> >, Service::Point103> > >::clear
FUNC 4e016 3b 0 std::pair<char*, Service::Point103>::pair
FUNC 4e052 271 0 std::_Rb_tree<std::basic_string<char, std::char_traits<char>, std::allocator<char> >, std::pair<const std::basic_string<char, std::char_traits<char>, std::allocator<char> >, Service::Point103>, std::_Select1st<std::pair<const std::basic_string<char, std::char_traits<char>, std::allocator<char> >, Service::Point103> >, std::less<std::basic_string<char, std::char_traits<char>, std::allocator<char> > >, std::allocator<std::pair<const std::basic_string<char, std::char_traits<char>, std::allocator<char> >, Service::Point103> > >::_M_insert_unique
FUNC 4e2c4 12 0 std::_Rb_tree<std::basic_string<char, std::char_traits<char>, std::allocator<char> >, std::pair<const std::basic_string<char, std::char_traits<char>, std::allocator<char> >, Service::Point103>, std::_Select1st<std::pair<const std::basic_string<char, std::char_traits<char>, std::allocator<char> >, Service::Point103> >, std::less<std::basic_string<char, std::char_traits<char>, std::allocator<char> > >, std::allocator<std::pair<const std::basic_string<char, std::char_traits<char>, std::allocator<char> >, Service::Point103> > >::size
FUNC 4e2d6 3d 0 std::_Vector_base<Tag, std::allocator<Tag> >::_Vector_impl::_Vector_impl
FUNC 4e314 1a 0 std::allocator<Tag>::~allocator
FUNC 4e32e 34 0 std::_Vector_base<Tag, std::allocator<Tag> >::_M_deallocate
FUNC 4e362 25 0 std::_Destroy<Tag*>
FUNC 4e388 8c 0 std::_Rb_tree<std::basic_string<char, std::char_traits<char>, std::allocator<char> >, std::pair<const std::basic_string<char, std::char_traits<char>, std::allocator<char> >, Service::Point103>, std::_Select1st<std::pair<const std::basic_string<char, std::char_traits<char>, std::allocator<char> >, Service::Point103> >, std::less<std::basic_string<char, std::char_traits<char>, std::allocator<char> > >, std::allocator<std::pair<const std::basic_string<char, std::char_traits<char>, std::allocator<char> >, Service::Point103> > >::_Rb_tree_impl<std::less<std::basic_string<char, std::char_traits<char>, std::allocator<char> > >, false>::_Rb_tree_impl
FUNC 4e414 a 0 __gnu_cxx::new_allocator<std::_Rb_tree_node<std::pair<const std::basic_string<char, std::char_traits<char>, std::allocator<char> >, Service::Point103> > >::~new_allocator
FUNC 4e41e 12 0 std::_Rb_tree<std::basic_string<char, std::char_traits<char>, std::allocator<char> >, std::pair<const std::basic_string<char, std::char_traits<char>, std::allocator<char> >, Service::Point103>, std::_Select1st<std::pair<const std::basic_string<char, std::char_traits<char>, std::allocator<char> >, Service::Point103> >, std::less<std::basic_string<char, std::char_traits<char>, std::allocator<char> > >, std::allocator<std::pair<const std::basic_string<char, std::char_traits<char>, std::allocator<char> >, Service::Point103> > >::_S_right
FUNC 4e430 12 0 std::_Rb_tree<std::basic_string<char, std::char_traits<char>, std::allocator<char> >, std::pair<const std::basic_string<char, std::char_traits<char>, std::allocator<char> >, Service::Point103>, std::_Select1st<std::pair<const std::basic_string<char, std::char_traits<char>, std::allocator<char> >, Service::Point103> >, std::less<std::basic_string<char, std::char_traits<char>, std::allocator<char> > >, std::allocator<std::pair<const std::basic_string<char, std::char_traits<char>, std::allocator<char> >, Service::Point103> > >::_S_left
FUNC 4e442 86 0 std::_Rb_tree<std::basic_string<char, std::char_traits<char>, std::allocator<char> >, std::pair<const std::basic_string<char, std::char_traits<char>, std::allocator<char> >, Service::Point103>, std::_Select1st<std::pair<const std::basic_string<char, std::char_traits<char>, std::allocator<char> >, Service::Point103> >, std::less<std::basic_string<char, std::char_traits<char>, std::allocator<char> > >, std::allocator<std::pair<const std::basic_string<char, std::char_traits<char>, std::allocator<char> >, Service::Point103> > >::_M_destroy_node
FUNC 4e4c8 53 0 std::_Rb_tree<std::basic_string<char, std::char_traits<char>, std::allocator<char> >, std::pair<const std::basic_string<char, std::char_traits<char>, std::allocator<char> >, Service::Point103>, std::_Select1st<std::pair<const std::basic_string<char, std::char_traits<char>, std::allocator<char> >, Service::Point103> >, std::less<std::basic_string<char, std::char_traits<char>, std::allocator<char> > >, std::allocator<std::pair<const std::basic_string<char, std::char_traits<char>, std::allocator<char> >, Service::Point103> > >::lower_bound
FUNC 4e51c a 0 std::_Rb_tree<std::basic_string<char, std::char_traits<char>, std::allocator<char> >, std::pair<const std::basic_string<char, std::char_traits<char>, std::allocator<char> >, Service::Point103>, std::_Select1st<std::pair<const std::basic_string<char, std::char_traits<char>, std::allocator<char> >, Service::Point103> >, std::less<std::basic_string<char, std::char_traits<char>, std::allocator<char> > >, std::allocator<std::pair<const std::basic_string<char, std::char_traits<char>, std::allocator<char> >, Service::Point103> > >::key_comp
FUNC 4e526 4c0 0 std::_Rb_tree<std::basic_string<char, std::char_traits<char>, std::allocator<char> >, std::pair<const std::basic_string<char, std::char_traits<char>, std::allocator<char> >, Service::Point103>, std::_Select1st<std::pair<const std::basic_string<char, std::char_traits<char>, std::allocator<char> >, Service::Point103> >, std::less<std::basic_string<char, std::char_traits<char>, std::allocator<char> > >, std::allocator<std::pair<const std::basic_string<char, std::char_traits<char>, std::allocator<char> >, Service::Point103> > >::_M_insert_unique_
FUNC 4e9e6 48 0 std::_Vector_base<char, std::allocator<char> >::_Vector_impl::_Vector_impl
FUNC 4ea2e 31 0 std::__uninitialized_fill_n_a<char*, long unsigned int, char, char>
FUNC 4ea60 e 0 __gnu_cxx::__normal_iterator<Tag*, std::vector<Tag, std::allocator<Tag> > >::base
FUNC 4ea6e 46 0 std::copy_backward<Tag*, Tag*>
FUNC 4eab4 11 0 __gnu_cxx::__normal_iterator<Tag*, std::vector<Tag, std::allocator<Tag> > >::operator*
FUNC 4eac6 ca 0 std::vector<Tag, std::allocator<Tag> >::_M_check_len
FUNC 4eb90 25 0 std::vector<Tag, std::allocator<Tag> >::begin
FUNC 4ebb5 4d 0 __gnu_cxx::operator-<Tag*, std::vector<Tag, std::allocator<Tag> > >
FUNC 4ec02 38 0 std::_Vector_base<Tag, std::allocator<Tag> >::_M_allocate
FUNC 4ec3a 3b 0 std::__uninitialized_move_a<Tag*, Tag*, std::allocator<Tag> >
FUNC 4ec76 1e 0 __gnu_cxx::new_allocator<Tag>::destroy
FUNC 4ec94 1c 0 __gnu_cxx::__normal_iterator<Tag*, std::vector<Tag, std::allocator<Tag> > >::__normal_iterator
FUNC 4ecb0 12 0 std::_Rb_tree<std::basic_string<char, std::char_traits<char>, std::allocator<char> >, std::pair<const std::basic_string<char, std::char_traits<char>, std::allocator<char> >, Service::Point103>, std::_Select1st<std::pair<const std::basic_string<char, std::char_traits<char>, std::allocator<char> >, Service::Point103> >, std::less<std::basic_string<char, std::char_traits<char>, std::allocator<char> > >, std::allocator<std::pair<const std::basic_string<char, std::char_traits<char>, std::allocator<char> >, Service::Point103> > >::_M_end
FUNC 4ecc2 92 0 std::_Rb_tree<std::basic_string<char, std::char_traits<char>, std::allocator<char> >, std::pair<const std::basic_string<char, std::char_traits<char>, std::allocator<char> >, Service::Point103>, std::_Select1st<std::pair<const std::basic_string<char, std::char_traits<char>, std::allocator<char> >, Service::Point103> >, std::less<std::basic_string<char, std::char_traits<char>, std::allocator<char> > >, std::allocator<std::pair<const std::basic_string<char, std::char_traits<char>, std::allocator<char> >, Service::Point103> > >::_M_lower_bound
FUNC 4ed54 2c 0 std::_Rb_tree<std::basic_string<char, std::char_traits<char>, std::allocator<char> >, std::pair<const std::basic_string<char, std::char_traits<char>, std::allocator<char> >, Service::Point103>, std::_Select1st<std::pair<const std::basic_string<char, std::char_traits<char>, std::allocator<char> >, Service::Point103> >, std::less<std::basic_string<char, std::char_traits<char>, std::allocator<char> > >, std::allocator<std::pair<const std::basic_string<char, std::char_traits<char>, std::allocator<char> >, Service::Point103> > >::_S_key
FUNC 4ed80 19 0 std::_Rb_tree_iterator<std::pair<const std::basic_string<char, std::char_traits<char>, std::allocator<char> >, Service::Point103> >::_Rb_tree_iterator
FUNC 4ed9a 12 0 std::_Rb_tree<std::basic_string<char, std::char_traits<char>, std::allocator<char> >, std::pair<const std::basic_string<char, std::char_traits<char>, std::allocator<char> >, Service::Point103>, std::_Select1st<std::pair<const std::basic_string<char, std::char_traits<char>, std::allocator<char> >, Service::Point103> >, std::less<std::basic_string<char, std::char_traits<char>, std::allocator<char> > >, std::allocator<std::pair<const std::basic_string<char, std::char_traits<char>, std::allocator<char> >, Service::Point103> > >::_M_leftmost
FUNC 4edac 12 0 std::_Rb_tree<std::basic_string<char, std::char_traits<char>, std::allocator<char> >, std::pair<const std::basic_string<char, std::char_traits<char>, std::allocator<char> >, Service::Point103>, std::_Select1st<std::pair<const std::basic_string<char, std::char_traits<char>, std::allocator<char> >, Service::Point103> >, std::less<std::basic_string<char, std::char_traits<char>, std::allocator<char> > >, std::allocator<std::pair<const std::basic_string<char, std::char_traits<char>, std::allocator<char> >, Service::Point103> > >::_M_root
FUNC 4edbe 12 0 std::_Rb_tree<std::basic_string<char, std::char_traits<char>, std::allocator<char> >, std::pair<const std::basic_string<char, std::char_traits<char>, std::allocator<char> >, Service::Point103>, std::_Select1st<std::pair<const std::basic_string<char, std::char_traits<char>, std::allocator<char> >, Service::Point103> >, std::less<std::basic_string<char, std::char_traits<char>, std::allocator<char> > >, std::allocator<std::pair<const std::basic_string<char, std::char_traits<char>, std::allocator<char> >, Service::Point103> > >::_M_rightmost
FUNC 4edd0 12 0 std::_Select1st<std::pair<const std::basic_string<char, std::char_traits<char>, std::allocator<char> >, Service::Point103> >::operator()
FUNC 4ede2 2c 0 std::_Rb_tree<std::basic_string<char, std::char_traits<char>, std::allocator<char> >, std::pair<const std::basic_string<char, std::char_traits<char>, std::allocator<char> >, Service::Point103>, std::_Select1st<std::pair<const std::basic_string<char, std::char_traits<char>, std::allocator<char> >, Service::Point103> >, std::less<std::basic_string<char, std::char_traits<char>, std::allocator<char> > >, std::allocator<std::pair<const std::basic_string<char, std::char_traits<char>, std::allocator<char> >, Service::Point103> > >::_S_key
FUNC 4ee0e 2c 0 std::_Rb_tree<std::basic_string<char, std::char_traits<char>, std::allocator<char> >, std::pair<const std::basic_string<char, std::char_traits<char>, std::allocator<char> >, Service::Point103>, std::_Select1st<std::pair<const std::basic_string<char, std::char_traits<char>, std::allocator<char> >, Service::Point103> >, std::less<std::basic_string<char, std::char_traits<char>, std::allocator<char> > >, std::allocator<std::pair<const std::basic_string<char, std::char_traits<char>, std::allocator<char> >, Service::Point103> > >::begin
FUNC 4ee3a e3 0 std::_Rb_tree<std::basic_string<char, std::char_traits<char>, std::allocator<char> >, std::pair<const std::basic_string<char, std::char_traits<char>, std::allocator<char> >, Service::Point103>, std::_Select1st<std::pair<const std::basic_string<char, std::char_traits<char>, std::allocator<char> >, Service::Point103> >, std::less<std::basic_string<char, std::char_traits<char>, std::allocator<char> > >, std::allocator<std::pair<const std::basic_string<char, std::char_traits<char>, std::allocator<char> >, Service::Point103> > >::_M_insert_
FUNC 4ef1e 2e 0 std::pair<std::_Rb_tree_iterator<std::pair<const std::basic_string<char, std::char_traits<char>, std::allocator<char> >, Service::Point103> >, bool>::pair
FUNC 4ef4c 28 0 std::_Rb_tree_iterator<std::pair<const std::basic_string<char, std::char_traits<char>, std::allocator<char> >, Service::Point103> >::operator--
FUNC 4ef74 1a 0 std::allocator<Tag>::allocator
FUNC 4ef8e a 0 __gnu_cxx::new_allocator<Tag>::~new_allocator
FUNC 4ef98 22 0 __gnu_cxx::new_allocator<Tag>::deallocate
FUNC 4efba 37 0 std::_Destroy_aux<false>::__destroy<Tag*>
FUNC 4eff2 1a 0 std::allocator<std::_Rb_tree_node<std::pair<const std::basic_string<char, std::char_traits<char>, std::allocator<char> >, Service::Point103> > >::allocator
FUNC 4f00c 41 0 std::_Rb_tree<std::basic_string<char, std::char_traits<char>, std::allocator<char> >, std::pair<const std::basic_string<char, std::char_traits<char>, std::allocator<char> >, Service::Point103>, std::_Select1st<std::pair<const std::basic_string<char, std::char_traits<char>, std::allocator<char> >, Service::Point103> >, std::less<std::basic_string<char, std::char_traits<char>, std::allocator<char> > >, std::allocator<std::pair<const std::basic_string<char, std::char_traits<char>, std::allocator<char> >, Service::Point103> > >::_Rb_tree_impl<std::less<std::basic_string<char, std::char_traits<char>, std::allocator<char> > >, false>::_M_initialize
FUNC 4f04e 3b 0 std::_Rb_tree<std::basic_string<char, std::char_traits<char>, std::allocator<char> >, std::pair<const std::basic_string<char, std::char_traits<char>, std::allocator<char> >, Service::Point103>, std::_Select1st<std::pair<const std::basic_string<char, std::char_traits<char>, std::allocator<char> >, Service::Point103> >, std::less<std::basic_string<char, std::char_traits<char>, std::allocator<char> > >, std::allocator<std::pair<const std::basic_string<char, std::char_traits<char>, std::allocator<char> >, Service::Point103> > >::get_allocator
FUNC 4f08a 1a 0 std::allocator<std::pair<const std::basic_string<char, std::char_traits<char>, std::allocator<char> >, Service::Point103> >::~allocator
FUNC 4f0a4 1e 0 __gnu_cxx::new_allocator<std::pair<const std::basic_string<char, std::char_traits<char>, std::allocator<char> >, Service::Point103> >::destroy
FUNC 4f0c2 2a 0 std::_Rb_tree<std::basic_string<char, std::char_traits<char>, std::allocator<char> >, std::pair<const std::basic_string<char, std::char_traits<char>, std::allocator<char> >, Service::Point103>, std::_Select1st<std::pair<const std::basic_string<char, std::char_traits<char>, std::allocator<char> >, Service::Point103> >, std::less<std::basic_string<char, std::char_traits<char>, std::allocator<char> > >, std::allocator<std::pair<const std::basic_string<char, std::char_traits<char>, std::allocator<char> >, Service::Point103> > >::_M_put_node
FUNC 4f0ec 28 0 std::_Rb_tree_const_iterator<std::pair<const std::basic_string<char, std::char_traits<char>, std::allocator<char> >, Service::Point103> >::operator--
FUNC 4f114 12 0 std::_Rb_tree<std::basic_string<char, std::char_traits<char>, std::allocator<char> >, std::pair<const std::basic_string<char, std::char_traits<char>, std::allocator<char> >, Service::Point103>, std::_Select1st<std::pair<const std::basic_string<char, std::char_traits<char>, std::allocator<char> >, Service::Point103> >, std::less<std::basic_string<char, std::char_traits<char>, std::allocator<char> > >, std::allocator<std::pair<const std::basic_string<char, std::char_traits<char>, std::allocator<char> >, Service::Point103> > >::_S_right
FUNC 4f126 28 0 std::_Rb_tree_const_iterator<std::pair<const std::basic_string<char, std::char_traits<char>, std::allocator<char> >, Service::Point103> >::operator++
FUNC 4f14e 2d 0 std::uninitialized_fill_n<char*, long unsigned int, char>
FUNC 4f17b e 0 std::__miter_base<Tag*, false>::__b
FUNC 4f189 58 0 std::__copy_move_backward_a2<false, Tag*, Tag*>
FUNC 4f1e2 22 0 std::vector<Tag, std::allocator<Tag> >::max_size
FUNC 4f204 63 0 __gnu_cxx::new_allocator<Tag>::allocate
FUNC 4f267 31 0 std::__uninitialized_copy_a<Tag*, Tag*, Tag>
FUNC 4f298 12 0 std::_Rb_tree<std::basic_string<char, std::char_traits<char>, std::allocator<char> >, std::pair<const std::basic_string<char, std::char_traits<char>, std::allocator<char> >, Service::Point103>, std::_Select1st<std::pair<const std::basic_string<char, std::char_traits<char>, std::allocator<char> >, Service::Point103> >, std::less<std::basic_string<char, std::char_traits<char>, std::allocator<char> > >, std::allocator<std::pair<const std::basic_string<char, std::char_traits<char>, std::allocator<char> >, Service::Point103> > >::_S_value
FUNC 4f2aa 12 0 std::_Rb_tree<std::basic_string<char, std::char_traits<char>, std::allocator<char> >, std::pair<const std::basic_string<char, std::char_traits<char>, std::allocator<char> >, Service::Point103>, std::_Select1st<std::pair<const std::basic_string<char, std::char_traits<char>, std::allocator<char> >, Service::Point103> >, std::less<std::basic_string<char, std::char_traits<char>, std::allocator<char> > >, std::allocator<std::pair<const std::basic_string<char, std::char_traits<char>, std::allocator<char> >, Service::Point103> > >::_S_value
FUNC 4f2bc bd 0 std::_Rb_tree<std::basic_string<char, std::char_traits<char>, std::allocator<char> >, std::pair<const std::basic_string<char, std::char_traits<char>, std::allocator<char> >, Service::Point103>, std::_Select1st<std::pair<const std::basic_string<char, std::char_traits<char>, std::allocator<char> >, Service::Point103> >, std::less<std::basic_string<char, std::char_traits<char>, std::allocator<char> > >, std::allocator<std::pair<const std::basic_string<char, std::char_traits<char>, std::allocator<char> >, Service::Point103> > >::_M_create_node
FUNC 4f37a a 0 __gnu_cxx::new_allocator<Tag>::new_allocator
FUNC 4f384 1a 0 std::_Destroy<Tag>
FUNC 4f39e a 0 __gnu_cxx::new_allocator<std::_Rb_tree_node<std::pair<const std::basic_string<char, std::char_traits<char>, std::allocator<char> >, Service::Point103> > >::new_allocator
FUNC 4f3a8 e 0 std::_Rb_tree<std::basic_string<char, std::char_traits<char>, std::allocator<char> >, std::pair<const std::basic_string<char, std::char_traits<char>, std::allocator<char> >, Service::Point103>, std::_Select1st<std::pair<const std::basic_string<char, std::char_traits<char>, std::allocator<char> >, Service::Point103> >, std::less<std::basic_string<char, std::char_traits<char>, std::allocator<char> > >, std::allocator<std::pair<const std::basic_string<char, std::char_traits<char>, std::allocator<char> >, Service::Point103> > >::_M_get_Node_allocator
FUNC 4f3b6 1e 0 std::allocator<std::pair<const std::basic_string<char, std::char_traits<char>, std::allocator<char> >, Service::Point103> >::allocator<std::_Rb_tree_node<std::pair<const std::basic_string<char, std::char_traits<char>, std::allocator<char> >, Service::Point103> > >
FUNC 4f3d4 a 0 __gnu_cxx::new_allocator<std::pair<const std::basic_string<char, std::char_traits<char>, std::allocator<char> >, Service::Point103> >::~new_allocator
FUNC 4f3de 22 0 __gnu_cxx::new_allocator<std::_Rb_tree_node<std::pair<const std::basic_string<char, std::char_traits<char>, std::allocator<char> >, Service::Point103> > >::deallocate
FUNC 4f400 2d 0 std::__uninitialized_fill_n<true>::uninitialized_fill_n<char*, long unsigned int, char>
FUNC 4f42d e 0 std::__niter_base<Tag*, false>::__b
FUNC 4f43b 31 0 std::__copy_move_backward_a<false, Tag*, Tag*>
FUNC 4f46c e 0 std::_Vector_base<Tag, std::allocator<Tag> >::_M_get_Tp_allocator
FUNC 4f47a 14 0 __gnu_cxx::new_allocator<Tag>::max_size
FUNC 4f48e 2d 0 std::uninitialized_copy<Tag*, Tag*>
FUNC 4f4bc 24 0 std::_Rb_tree<std::basic_string<char, std::char_traits<char>, std::allocator<char> >, std::pair<const std::basic_string<char, std::char_traits<char>, std::allocator<char> >, Service::Point103>, std::_Select1st<std::pair<const std::basic_string<char, std::char_traits<char>, std::allocator<char> >, Service::Point103> >, std::less<std::basic_string<char, std::char_traits<char>, std::allocator<char> > >, std::allocator<std::pair<const std::basic_string<char, std::char_traits<char>, std::allocator<char> >, Service::Point103> > >::_M_get_node
FUNC 4f4e0 6b 0 std::pair<const std::basic_string<char, std::char_traits<char>, std::allocator<char> >, Service::Point103>::pair
FUNC 4f54c 77 0 __gnu_cxx::new_allocator<std::pair<const std::basic_string<char, std::char_traits<char>, std::allocator<char> >, Service::Point103> >::construct
FUNC 4f5c4 a 0 __gnu_cxx::new_allocator<std::pair<const std::basic_string<char, std::char_traits<char>, std::allocator<char> >, Service::Point103> >::new_allocator
FUNC 4f5ce 35 0 std::fill_n<char*, long unsigned int, char>
FUNC 4f603 6d 0 std::__copy_move_backward<false, false, std::random_access_iterator_tag>::__copy_move_b<Tag*, Tag*>
FUNC 4f670 98 0 std::__uninitialized_copy<false>::uninitialized_copy<Tag*, Tag*>
FUNC 4f708 5c 0 __gnu_cxx::new_allocator<std::_Rb_tree_node<std::pair<const std::basic_string<char, std::char_traits<char>, std::allocator<char> >, Service::Point103> > >::allocate
FUNC 4f764 41 0 std::__fill_n_a<long unsigned int, char>
FUNC 4f7a5 de 0 std::_Construct<Tag, Tag>
FUNC 4f884 14 0 __gnu_cxx::new_allocator<std::_Rb_tree_node<std::pair<const std::basic_string<char, std::char_traits<char>, std::allocator<char> >, Service::Point103> > >::max_size
FUNC 4f898 49 0 std::__fill_a<char>
FUNC 4f8e4 db 0 TcpNet::TcpNet
FUNC 4f9c0 7c 0 TcpNet::~TcpNet
FUNC 4fa3c 26 0 TcpNet::~TcpNet
FUNC 4fa62 17d 0 TcpNet::Connect
FUNC 4fbe0 15d 0 TcpNet::Read
FUNC 4fd3e e8 0 TcpNet::Write
FUNC 4fe26 2c 0 TcpNet::DisConnect
FUNC 4fe52 48 0 __static_initialization_and_destruction_0
FUNC 4fe9a 15 0 _GLOBAL__I_TcpNet.cpp
FUNC 4feb0 91 0 TcpService::TcpService
FUNC 4ff42 7e 0 TcpService::~TcpService
FUNC 4ffc0 26 0 TcpService::~TcpService
FUNC 4ffe6 18f 0 TcpService::Start
FUNC 50176 622 0 TcpService::Write
FUNC 50798 581 0 TcpService::Read
FUNC 50d1a 20b 0 TcpService::ParseRecvData
FUNC 50f26 11f 0 TcpService::CmdConnection
FUNC 51046 11f 0 TcpService::CmdGetTest1
FUNC 51166 11f 0 TcpService::CmdGetTest2
FUNC 51286 2a7 0 TcpService::CmdGetAll
FUNC 5152e 2e1 0 TcpService::CmdGetGroupData
FUNC 51810 15b 0 TcpService::ParseVariableData
FUNC 5196c 379 0 TcpService::ParseASDU1
FUNC 51ce6 120 0 TcpService::ParseASDU10
FUNC 51e06 82f 0 TcpService::ParseASDU10AllValue
FUNC 52636 2fe 0 TcpService::ParseASDU40
FUNC 52934 3c 0 TcpService::ParseASDU41
FUNC 52970 391 0 TcpService::ParseASDU42
FUNC 52d02 388 0 TcpService::ParseASDU44
FUNC 5308a 465 0 TcpService::ParseASDU50
FUNC 534f0 8e 0 TcpService::InitConfig
FUNC 5357e 14 0 TcpService::GetSendID
FUNC 53592 14 0 TcpService::GetRecvID
FUNC 535a6 1c4 0 __static_initialization_and_destruction_0
FUNC 5376a 15 0 _GLOBAL__I_TcpService.cpp
FUNC 53780 41 0 std::vector<Tag, std::allocator<Tag> >::empty
FUNC 537c2 31 0 std::vector<Tag, std::allocator<Tag> >::end
FUNC 537f4 30 0 std::vector<Tag, std::allocator<Tag> >::begin
FUNC 53824 3c 0 __gnu_cxx::operator==<const Tag*, std::vector<Tag, std::allocator<Tag> > >
FUNC 53860 1c 0 __gnu_cxx::__normal_iterator<const Tag*, std::vector<Tag, std::allocator<Tag> > >::__normal_iterator
FUNC 5387c e 0 __gnu_cxx::__normal_iterator<const Tag*, std::vector<Tag, std::allocator<Tag> > >::base
FUNC 5388c 107 0 UdpNet::UdpNet
FUNC 53994 7c 0 UdpNet::~UdpNet
FUNC 53a10 26 0 UdpNet::~UdpNet
FUNC 53a36 17b 0 UdpNet::Connect
FUNC 53bb2 aa 0 UdpNet::Read
FUNC 53c5c ce 0 UdpNet::Write
FUNC 53d2a 2c 0 UdpNet::DisConnect
FUNC 53d56 48 0 __static_initialization_and_destruction_0
FUNC 53d9e 15 0 _GLOBAL__I_UdpNet.cpp
FUNC 53db4 1c 0 WarningLib::WarningLib
FUNC 53dd0 35 0 WarningLib::~WarningLib
FUNC 53e06 26 0 WarningLib::~WarningLib
FUNC 53e2c 74 0 WarningLib::GetInstance
FUNC 53ea0 2f4 0 WarningLib::Init
FUNC 54194 96 0 WarningLib::GetFunction
FUNC 5422a 2b 0 WarningLib::Start
FUNC 54256 36 0 WarningLib::WriteWarn
FUNC 5428c 63 0 WarningLib::WriteWarn2
FUNC 542f0 2b 0 WarningLib::Stop
FUNC 5431c 1bc 0 WgjFunctionEx::WgjFunctionEx
FUNC 544d8 196 0 WgjFunctionEx::~WgjFunctionEx
FUNC 5466e 26 0 WgjFunctionEx::~WgjFunctionEx
FUNC 54694 80 0 WgjFunctionEx::GetInstance
FUNC 54714 27b 0 WgjFunctionEx::InitParam
FUNC 54990 957 0 WgjFunctionEx::ThreadLogWork
FUNC 552e8 4fe 0 WgjFunctionEx::ThreadRedisWork
FUNC 557e6 134 0 WgjFunctionEx::setHeartBeatTime
FUNC 5591a 1cc 0 WgjFunctionEx::serializeLog
FUNC 55ae6 7ac 0 WgjFunctionEx::LogToFile
FUNC 56292 179 0 WgjFunctionEx::isCreateDir
FUNC 5640c 25 0 WgjFunctionEx::GetCurrentTime
FUNC 56431 1dd 0 __static_initialization_and_destruction_0
FUNC 5660e 15 0 _GLOBAL__I_WgjFunctionEx.cpp
FUNC 56624 2e 0 RealLogResponse::set_channelname
FUNC 56652 2e 0 RealLogResponse::set_devname
FUNC 56680 2e 0 RealLogResponse::set_logdetail
FUNC 566ae 2e 0 HeartBeatMessage::set_channelname
FUNC 566dc 55 0 stWriteValue::~stWriteValue
FUNC 56732 1b 0 WgjFunctionEx::SetLogMode
FUNC 5674e 1a 0 std::list<stWriteValue, std::allocator<stWriteValue> >::~list
FUNC 56768 1a 0 std::list<stLogInfo, std::allocator<stLogInfo> >::~list
FUNC 56782 1a 0 std::list<stWriteValue, std::allocator<stWriteValue> >::list
FUNC 5679c 1a 0 std::_List_base<stWriteValue, std::allocator<stWriteValue> >::_List_impl::~_List_impl
FUNC 567b6 51 0 std::_List_base<stWriteValue, std::allocator<stWriteValue> >::~_List_base
FUNC 56808 1a 0 std::list<stLogInfo, std::allocator<stLogInfo> >::list
FUNC 56822 1a 0 std::_List_base<stLogInfo, std::allocator<stLogInfo> >::_List_impl::~_List_impl
FUNC 5683c 51 0 std::_List_base<stLogInfo, std::allocator<stLogInfo> >::~_List_base
FUNC 5688e 3a 0 std::list<stLogInfo, std::allocator<stLogInfo> >::size
FUNC 568c8 28 0 std::list<stLogInfo, std::allocator<stLogInfo> >::begin
FUNC 568f0 15 0 std::_List_iterator<stLogInfo>::operator->
FUNC 56906 2c 0 std::list<stLogInfo, std::allocator<stLogInfo> >::pop_front
FUNC 56932 26 0 std::list<stLogInfo, std::allocator<stLogInfo> >::clear
FUNC 56958 6e 0 std::operator+<char, std::char_traits<char>, std::allocator<char> >
FUNC 569c6 51 0 std::_List_base<stWriteValue, std::allocator<stWriteValue> >::_List_base
FUNC 56a18 1a 0 std::allocator<std::_List_node<stWriteValue> >::~allocator
FUNC 56a32 b8 0 std::_List_base<stWriteValue, std::allocator<stWriteValue> >::_M_clear
FUNC 56aea 51 0 std::_List_base<stLogInfo, std::allocator<stLogInfo> >::_List_base
FUNC 56b3c 1a 0 std::allocator<std::_List_node<stLogInfo> >::~allocator
FUNC 56b56 b8 0 std::_List_base<stLogInfo, std::allocator<stLogInfo> >::_M_clear
FUNC 56c0e 28 0 std::list<stLogInfo, std::allocator<stLogInfo> >::begin
FUNC 56c36 25 0 std::list<stLogInfo, std::allocator<stLogInfo> >::end
FUNC 56c5b 3d 0 std::distance<std::_List_const_iterator<stLogInfo> >
FUNC 56c98 9a 0 std::list<stLogInfo, std::allocator<stLogInfo> >::_M_erase
FUNC 56d32 21 0 std::_List_base<stLogInfo, std::allocator<stLogInfo> >::_M_init
FUNC 56d54 31 0 std::_List_base<stWriteValue, std::allocator<stWriteValue> >::_List_impl::_List_impl
FUNC 56d86 21 0 std::_List_base<stWriteValue, std::allocator<stWriteValue> >::_M_init
FUNC 56da8 a 0 __gnu_cxx::new_allocator<std::_List_node<stWriteValue> >::~new_allocator
FUNC 56db2 3b 0 std::_List_base<stWriteValue, std::allocator<stWriteValue> >::_M_get_Tp_allocator
FUNC 56dee 1a 0 std::allocator<stWriteValue>::~allocator
FUNC 56e08 1e 0 __gnu_cxx::new_allocator<stWriteValue>::destroy
FUNC 56e26 2a 0 std::_List_base<stWriteValue, std::allocator<stWriteValue> >::_M_put_node
FUNC 56e50 31 0 std::_List_base<stLogInfo, std::allocator<stLogInfo> >::_List_impl::_List_impl
FUNC 56e82 a 0 __gnu_cxx::new_allocator<std::_List_node<stLogInfo> >::~new_allocator
FUNC 56e8c 1e 0 __gnu_cxx::new_allocator<stLogInfo>::destroy
FUNC 56eaa 19 0 std::_List_const_iterator<stLogInfo>::_List_const_iterator
FUNC 56ec3 a 0 std::__iterator_category<std::_List_const_iterator<stLogInfo> >
FUNC 56ecd 48 0 std::__distance<std::_List_const_iterator<stLogInfo> >
FUNC 56f16 1a 0 std::allocator<std::_List_node<stWriteValue> >::allocator
FUNC 56f30 e 0 std::_List_base<stWriteValue, std::allocator<stWriteValue> >::_M_get_Node_allocator
FUNC 56f3e 1e 0 std::allocator<stWriteValue>::allocator<std::_List_node<stWriteValue> >
FUNC 56f5c a 0 __gnu_cxx::new_allocator<stWriteValue>::~new_allocator
FUNC 56f66 22 0 __gnu_cxx::new_allocator<std::_List_node<stWriteValue> >::deallocate
FUNC 56f88 1a 0 std::allocator<std::_List_node<stLogInfo> >::allocator
FUNC 56fa2 22 0 std::_List_const_iterator<stLogInfo>::operator!=
FUNC 56fc4 1f 0 std::_List_const_iterator<stLogInfo>::operator++
FUNC 56fe4 a 0 __gnu_cxx::new_allocator<std::_List_node<stWriteValue> >::new_allocator
FUNC 56fee a 0 __gnu_cxx::new_allocator<stWriteValue>::new_allocator
FUNC 56ff8 a 0 __gnu_cxx::new_allocator<std::_List_node<stLogInfo> >::new_allocator
FUNC 57004 f3 0 Log::Logger::Logger
FUNC 570f8 e2 0 Log::Logger::~Logger
FUNC 571da b9a 0 Log::Logger::trafficLogger
FUNC 57d74 507 0 Log::Logger::configLogger
FUNC 5827b 112 0 __static_initialization_and_destruction_0
FUNC 5838d 15 0 _GLOBAL__I__ZN3Log6LoggerC2Ev
FUNC 583a2 1e 0 boost::shared_ptr<Config::ConfigCenter>::~shared_ptr
FUNC 583c0 3a 0 boost::shared_ptr<Config::ConfigCenter>::operator->
FUNC 583fa 29 0 log4cplus::helpers::SharedObjectPtr<log4cplus::Appender>::SharedObjectPtr
FUNC 58424 41 0 log4cplus::helpers::SharedObjectPtr<log4cplus::Appender>::~SharedObjectPtr
FUNC 58466 19 0 std::auto_ptr<log4cplus::Layout>::auto_ptr
FUNC 58480 37 0 std::auto_ptr<log4cplus::Layout>::~auto_ptr
FUNC 584b8 3a 0 log4cplus::helpers::SharedObjectPtr<log4cplus::Appender>::operator->
FUNC 584f2 25 0 std::auto_ptr<log4cplus::Layout>::auto_ptr
FUNC 58518 2c 0 log4cplus::helpers::SharedObjectPtr<log4cplus::Appender>::SharedObjectPtr
FUNC 58544 41 0 log4cplus::helpers::SharedObjectPtr<log4cplus::Appender>::addref
FUNC 58586 24 0 std::auto_ptr<log4cplus::Layout>::release
FUNC 585ac 279 0 Config::ConfigCenter::instance
FUNC 58826 488 0 Config::ConfigCenter::loadConfig
FUNC 58cae 5c3 0 Config::ConfigCenter::borrowFrom
FUNC 59272 68 0 Config::ConfigCenter::ConfigCenter
FUNC 592da af 0 Config::ConfigCenter::~ConfigCenter
FUNC 5938a 68e 0 Config::ConfigCenter::loadXml
FUNC 59a18 2ea 0 Config::ConfigCenter::saveXml
FUNC 59d02 78 0 Config::ConfigCenter::get
FUNC 59d7a 197 0 Config::ConfigCenter::set
FUNC 59f12 19a 0 Config::ConfigCenter::setInt
FUNC 5a0ac 1a8 0 Config::ConfigCenter::registValueWatcher
FUNC 5a254 19a 0 Config::ConfigCenter::unregistIntValueWatcher
FUNC 5a3ee a1 0 Config::ConfigCenter::get
FUNC 5a490 19a 0 Config::ConfigCenter::set
FUNC 5a62a 1a8 0 Config::ConfigCenter::registValueWatcher
FUNC 5a7d2 19a 0 Config::ConfigCenter::unregistStrValueWatcher
FUNC 5a96c 233 0 __static_initialization_and_destruction_0
FUNC 5ab9f 15 0 _GLOBAL__I__ZN6Config12ConfigCenter16TOP_XMLNODE_NAMEE
FUNC 5abb4 14 0 std::operator&
FUNC 5abc8 2d 0 std::operator&=
FUNC 5abf5 e 0 std::operator~
FUNC 5ac04 2d 0 std::ios_base::unsetf
FUNC 5ac32 f 0 boost::condition_error::what
FUNC 5ac42 25 0 boost::lock_error::lock_error
FUNC 5ac68 15 0 boost::detail::shared_count::shared_count
FUNC 5ac7e 32 0 boost::detail::shared_count::swap
FUNC 5acb0 51 0 boost::pthread::pthread_mutex_scoped_lock::pthread_mutex_scoped_lock
FUNC 5ad02 42 0 boost::pthread::pthread_mutex_scoped_lock::unlock
FUNC 5ad44 26 0 boost::pthread::pthread_mutex_scoped_lock::~pthread_mutex_scoped_lock
FUNC 5ad6a e7 0 boost::condition_variable::condition_variable
FUNC 5ae52 64 0 boost::condition_variable::~condition_variable
FUNC 5aeb6 4a 0 boost::detail::interruption_checker::check_for_interruption
FUNC 5af00 14a 0 boost::detail::interruption_checker::interruption_checker
FUNC 5b04a c0 0 boost::detail::interruption_checker::~interruption_checker
FUNC 5b10a 25 0 boost::condition_error::condition_error
FUNC 5b130 3a 0 boost::condition_error::~condition_error
FUNC 5b16a 26 0 boost::condition_error::~condition_error
FUNC 5b190 113 0 boost::condition_variable::wait
FUNC 5b2a4 5a 0 boost::condition_variable::notify_one
FUNC 5b2fe 5a 0 boost::condition_variable::notify_all
FUNC 5b358 30 0 boost::shared_mutex::release_waiters
FUNC 5b388 d9 0 boost::shared_mutex::shared_mutex
FUNC 5b462 52 0 boost::shared_mutex::~shared_mutex
FUNC 5b4b4 dd 0 boost::shared_mutex::lock_shared
FUNC 5b592 98 0 boost::shared_mutex::unlock_shared
FUNC 5b62a df 0 boost::shared_mutex::lock
FUNC 5b70a 4d 0 boost::shared_mutex::unlock
FUNC 5b758 12 0 Config::IntParameter::_getCheckRange
FUNC 5b76a 11 0 Config::IntParameter::_getMinValue
FUNC 5b77c 11 0 Config::IntParameter::_getMaxValue
FUNC 5b78e 11 0 Config::IntParameter::_getValue
FUNC 5b7a0 12 0 Config::StringParameter::_getValue
FUNC 5b7b2 45 0 rapidxml::parse_error::parse_error
FUNC 5b7f8 12 0 rapidxml::parse_error::what
FUNC 5b80a 140 0 Config::XmlParameter::~XmlParameter
FUNC 5b94a 82 0 Config::XmlGroup::XmlGroup
FUNC 5b9cc 84 0 Config::XmlGroup::~XmlGroup
FUNC 5ba50 3b 0 boost::shared_ptr<Config::ConfigCenter>::shared_ptr
FUNC 5ba8c 1a 0 std::map<std::basic_string<char, std::char_traits<char>, std::allocator<char> >, Config::IntParameter, std::less<std::basic_string<char, std::char_traits<char>, std::allocator<char> > >, std::allocator<std::pair<const std::basic_string<char, std::char_traits<char>, std::allocator<char> >, Config::IntParameter> > >::~map
FUNC 5baa6 1a 0 std::map<std::basic_string<char, std::char_traits<char>, std::allocator<char> >, Config::StringParameter, std::less<std::basic_string<char, std::char_traits<char>, std::allocator<char> > >, std::allocator<std::pair<const std::basic_string<char, std::char_traits<char>, std::allocator<char> >, Config::StringParameter> > >::~map
FUNC 5bac0 5f 0 Config::XmlGroup::operator=
FUNC 5bb20 1a 0 rapidxml::file<char>::~file
FUNC 5bb3a 1e 0 rapidxml::xml_document<char>::~xml_document
FUNC 5bb58 15 0 boost::thread_cv_detail::lock_on_exit<boost::unique_lock<boost::mutex> >::lock_on_exit
FUNC 5bb6e 29 0 boost::thread_cv_detail::lock_on_exit<boost::unique_lock<boost::mutex> >::~lock_on_exit
FUNC 5bb98 29 0 boost::thread_cv_detail::lock_on_exit<boost::unique_lock<boost::mutex> >::activate
FUNC 5bbc2 30 0 boost::condition_error::condition_error
FUNC 5bbf2 80 0 boost::exception_detail::error_info_injector<boost::condition_error>::error_info_injector
FUNC 5bc72 63 0 boost::exception_detail::clone_impl<boost::exception_detail::error_info_injector<boost::condition_error> >::clone_impl
FUNC 5bcd5 a2 0 boost::throw_exception<boost::condition_error>
FUNC 5bd78 31 0 boost::unique_lock<boost::mutex>::unique_lock
FUNC 5bdaa 2d 0 boost::unique_lock<boost::mutex>::~unique_lock
FUNC 5bdd8 31 0 boost::shared_lock<boost::shared_mutex>::shared_lock
FUNC 5be0a 2d 0 boost::shared_lock<boost::shared_mutex>::~shared_lock
FUNC 5be38 79 0 boost::unique_lock<boost::mutex>::unlock
FUNC 5beb2 76 0 boost::unique_lock<boost::mutex>::lock
FUNC 5bf28 1a 0 std::vector<Config::XmlGroup, std::allocator<Config::XmlGroup> >::vector
FUNC 5bf42 6e 0 std::vector<Config::XmlGroup, std::allocator<Config::XmlGroup> >::~vector
FUNC 5bfb0 1a 0 std::vector<Config::XmlParameter, std::allocator<Config::XmlParameter> >::vector
FUNC 5bfca 6e 0 std::vector<Config::XmlParameter, std::allocator<Config::XmlParameter> >::~vector
FUNC 5c038 29 0 boost::shared_ptr<Config::ConfigCenter>::shared_ptr
FUNC 5c062 11 0 boost::shared_ptr<Config::ConfigCenter>::get
FUNC 5c074 31 0 boost::unique_lock<boost::shared_mutex>::unique_lock
FUNC 5c0a6 2d 0 boost::unique_lock<boost::shared_mutex>::~unique_lock
FUNC 5c0d4 9c 0 boost::shared_ptr<Config::ConfigCenter>::reset<Config::ConfigCenter>
FUNC 5c170 50 0 boost::shared_ptr<Config::ConfigCenter>::shared_ptr<Config::ConfigCenter>
FUNC 5c1c0 73 0 boost::shared_ptr<Config::ConfigCenter>::operator=
FUNC 5c234 1a 0 std::map<std::basic_string<char, std::char_traits<char>, std::allocator<char> >, Config::IntParameter, std::less<std::basic_string<char, std::char_traits<char>, std::allocator<char> > >, std::allocator<std::pair<const std::basic_string<char, std::char_traits<char>, std::allocator<char> >, Config::IntParameter> > >::begin
FUNC 5c24e 1a 0 std::map<std::basic_string<char, std::char_traits<char>, std::allocator<char> >, Config::IntParameter, std::less<std::basic_string<char, std::char_traits<char>, std::allocator<char> > >, std::allocator<std::pair<const std::basic_string<char, std::char_traits<char>, std::allocator<char> >, Config::IntParameter> > >::end
FUNC 5c268 1a 0 std::map<std::basic_string<char, std::char_traits<char>, std::allocator<char> >, Config::IntParameter, std::less<std::basic_string<char, std::char_traits<char>, std::allocator<char> > >, std::allocator<std::pair<const std::basic_string<char, std::char_traits<char>, std::allocator<char> >, Config::IntParameter> > >::key_comp
FUNC 5c282 1a 0 std::map<std::basic_string<char, std::char_traits<char>, std::allocator<char> >, Config::IntParameter, std::less<std::basic_string<char, std::char_traits<char>, std::allocator<char> > >, std::allocator<std::pair<const std::basic_string<char, std::char_traits<char>, std::allocator<char> >, Config::IntParameter> > >::map
FUNC 5c29c 1a 0 std::_Rb_tree<std::basic_string<char, std::char_traits<char>, std::allocator<char> >, std::pair<const std::basic_string<char, std::char_traits<char>, std::allocator<char> >, Config::IntParameter>, std::_Select1st<std::pair<const std::basic_string<char, std::char_traits<char>, std::allocator<char> >, Config::IntParameter> >, std::less<std::basic_string<char, std::char_traits<char>, std::allocator<char> > >, std::allocator<std::pair<const std::basic_string<char, std::char_traits<char>, std::allocator<char> >, Config::IntParameter> > >::_Rb_tree_impl<std::less<std::basic_string<char, std::char_traits<char>, std::allocator<char> > >, false>::~_Rb_tree_impl
FUNC 5c2b6 63 0 std::_Rb_tree<std::basic_string<char, std::char_traits<char>, std::allocator<char> >, std::pair<const std::basic_string<char, std::char_traits<char>, std::allocator<char> >, Config::IntParameter>, std::_Select1st<std::pair<const std::basic_string<char, std::char_traits<char>, std::allocator<char> >, Config::IntParameter> >, std::less<std::basic_string<char, std::char_traits<char>, std::allocator<char> > >, std::allocator<std::pair<const std::basic_string<char, std::char_traits<char>, std::allocator<char> >, Config::IntParameter> > >::~_Rb_tree
FUNC 5c31a 22 0 std::_Rb_tree_iterator<std::pair<const std::basic_string<char, std::char_traits<char>, std::allocator<char> >, Config::IntParameter> >::operator!=
FUNC 5c33c 15 0 std::_Rb_tree_iterator<std::pair<const std::basic_string<char, std::char_traits<char>, std::allocator<char> >, Config::IntParameter> >::operator->
FUNC 5c352 28 0 std::_Rb_tree_iterator<std::pair<const std::basic_string<char, std::char_traits<char>, std::allocator<char> >, Config::IntParameter> >::operator++
FUNC 5c37a 15 0 std::_Rb_tree_iterator<std::pair<const std::basic_string<char, std::char_traits<char>, std::allocator<char> >, Config::IntParameter> >::operator*
FUNC 5c390 47 0 std::map<std::basic_string<char, std::char_traits<char>, std::allocator<char> >, Config::IntParameter, std::less<std::basic_string<char, std::char_traits<char>, std::allocator<char> > >, std::allocator<std::pair<const std::basic_string<char, std::char_traits<char>, std::allocator<char> >, Config::IntParameter> > >::insert
FUNC 5c3d8 36 0 std::_Rb_tree_iterator<std::pair<const std::basic_string<char, std::char_traits<char>, std::allocator<char> >, Config::IntParameter> >::operator++
FUNC 5c40e 2d 0 std::map<std::basic_string<char, std::char_traits<char>, std::allocator<char> >, Config::IntParameter, std::less<std::basic_string<char, std::char_traits<char>, std::allocator<char> > >, std::allocator<std::pair<const std::basic_string<char, std::char_traits<char>, std::allocator<char> >, Config::IntParameter> > >::insert<std::_Rb_tree_iterator<std::pair<const std::basic_string<char, std::char_traits<char>, std::allocator<char> >, Config::IntParameter> > >
FUNC 5c43c 1a 0 std::map<std::basic_string<char, std::char_traits<char>, std::allocator<char> >, Config::StringParameter, std::less<std::basic_string<char, std::char_traits<char>, std::allocator<char> > >, std::allocator<std::pair<const std::basic_string<char, std::char_traits<char>, std::allocator<char> >, Config::StringParameter> > >::begin
FUNC 5c456 1a 0 std::map<std::basic_string<char, std::char_traits<char>, std::allocator<char> >, Config::StringParameter, std::less<std::basic_string<char, std::char_traits<char>, std::allocator<char> > >, std::allocator<std::pair<const std::basic_string<char, std::char_traits<char>, std::allocator<char> >, Config::StringParameter> > >::end
FUNC 5c470 1a 0 std::map<std::basic_string<char, std::char_traits<char>, std::allocator<char> >, Config::StringParameter, std::less<std::basic_string<char, std::char_traits<char>, std::allocator<char> > >, std::allocator<std::pair<const std::basic_string<char, std::char_traits<char>, std::allocator<char> >, Config::StringParameter> > >::key_comp
FUNC 5c48a 1a 0 std::map<std::basic_string<char, std::char_traits<char>, std::allocator<char> >, Config::StringParameter, std::less<std::basic_string<char, std::char_traits<char>, std::allocator<char> > >, std::allocator<std::pair<const std::basic_string<char, std::char_traits<char>, std::allocator<char> >, Config::StringParameter> > >::map
FUNC 5c4a4 1a 0 std::_Rb_tree<std::basic_string<char, std::char_traits<char>, std::allocator<char> >, std::pair<const std::basic_string<char, std::char_traits<char>, std::allocator<char> >, Config::StringParameter>, std::_Select1st<std::pair<const std::basic_string<char, std::char_traits<char>, std::allocator<char> >, Config::StringParameter> >, std::less<std::basic_string<char, std::char_traits<char>, std::allocator<char> > >, std::allocator<std::pair<const std::basic_string<char, std::char_traits<char>, std::allocator<char> >, Config::StringParameter> > >::_Rb_tree_impl<std::less<std::basic_string<char, std::char_traits<char>, std::allocator<char> > >, false>::~_Rb_tree_impl
FUNC 5c4be 63 0 std::_Rb_tree<std::basic_string<char, std::char_traits<char>, std::allocator<char> >, std::pair<const std::basic_string<char, std::char_traits<char>, std::allocator<char> >, Config::StringParameter>, std::_Select1st<std::pair<const std::basic_string<char, std::char_traits<char>, std::allocator<char> >, Config::StringParameter> >, std::less<std::basic_string<char, std::char_traits<char>, std::allocator<char> > >, std::allocator<std::pair<const std::basic_string<char, std::char_traits<char>, std::allocator<char> >, Config::StringParameter> > >::~_Rb_tree
FUNC 5c522 22 0 std::_Rb_tree_iterator<std::pair<const std::basic_string<char, std::char_traits<char>, std::allocator<char> >, Config::StringParameter> >::operator!=
FUNC 5c544 15 0 std::_Rb_tree_iterator<std::pair<const std::basic_string<char, std::char_traits<char>, std::allocator<char> >, Config::StringParameter> >::operator->
FUNC 5c55a 28 0 std::_Rb_tree_iterator<std::pair<const std::basic_string<char, std::char_traits<char>, std::allocator<char> >, Config::StringParameter> >::operator++
FUNC 5c582 15 0 std::_Rb_tree_iterator<std::pair<const std::basic_string<char, std::char_traits<char>, std::allocator<char> >, Config::StringParameter> >::operator*
FUNC 5c598 47 0 std::map<std::basic_string<char, std::char_traits<char>, std::allocator<char> >, Config::StringParameter, std::less<std::basic_string<char, std::char_traits<char>, std::allocator<char> > >, std::allocator<std::pair<const std::basic_string<char, std::char_traits<char>, std::allocator<char> >, Config::StringParameter> > >::insert
FUNC 5c5e0 36 0 std::_Rb_tree_iterator<std::pair<const std::basic_string<char, std::char_traits<char>, std::allocator<char> >, Config::StringParameter> >::operator++
FUNC 5c616 2d 0 std::map<std::basic_string<char, std::char_traits<char>, std::allocator<char> >, Config::StringParameter, std::less<std::basic_string<char, std::char_traits<char>, std::allocator<char> > >, std::allocator<std::pair<const std::basic_string<char, std::char_traits<char>, std::allocator<char> >, Config::StringParameter> > >::insert<std::_Rb_tree_iterator<std::pair<const std::basic_string<char, std::char_traits<char>, std::allocator<char> >, Config::StringParameter> > >
FUNC 5c644 295 0 std::vector<Config::XmlGroup, std::allocator<Config::XmlGroup> >::operator=
FUNC 5c8da 295 0 std::vector<Config::XmlParameter, std::allocator<Config::XmlParameter> >::operator=
FUNC 5cb70 32d 0 rapidxml::file<char>::file
FUNC 5ce9e 2f 0 rapidxml::xml_document<char>::xml_document
FUNC 5cece 1a 0 rapidxml::memory_pool<char>::~memory_pool
FUNC 5cee8 1a 0 rapidxml::file<char>::data
FUNC 5cf02 3a 0 rapidxml::parse_error::~parse_error
FUNC 5cf3c 26 0 rapidxml::parse_error::~parse_error
FUNC 5cf62 fd 0 rapidxml::xml_document<char>::parse<0>
FUNC 5d060 cf 0 rapidxml::xml_node<char>::first_node
FUNC 5d130 28 0 rapidxml::xml_base<char>::name
FUNC 5d158 28 0 std::operator!=<char, std::char_traits<char>, std::allocator<char> >
FUNC 5d180 b4 0 rapidxml::memory_pool<char>::allocate_string
FUNC 5d234 119 0 rapidxml::memory_pool<char>::allocate_node
FUNC 5d34e d6 0 rapidxml::xml_node<char>::append_node
FUNC 5d424 2a 0 rapidxml::operator<< <char>
FUNC 5d44e 25 0 std::map<std::basic_string<char, std::char_traits<char>, std::allocator<char> >, Config::IntParameter, std::less<std::basic_string<char, std::char_traits<char>, std::allocator<char> > >, std::allocator<std::pair<const std::basic_string<char, std::char_traits<char>, std::allocator<char> >, Config::IntParameter> > >::find
FUNC 5d474 25 0 std::map<std::basic_string<char, std::char_traits<char>, std::allocator<char> >, Config::StringParameter, std::less<std::basic_string<char, std::char_traits<char>, std::allocator<char> > >, std::allocator<std::pair<const std::basic_string<char, std::char_traits<char>, std::allocator<char> >, Config::StringParameter> > >::find
FUNC 5d499 2f 0 boost::enable_error_info<boost::condition_error>
FUNC 5d4c8 93 0 boost::exception_detail::error_info_injector<boost::condition_error>::~error_info_injector
FUNC 5d56a 26 0 boost::exception_detail::error_info_injector<boost::condition_error>::~error_info_injector
FUNC 5d590 2f 0 boost::enable_current_exception<boost::exception_detail::error_info_injector<boost::condition_error> >
FUNC 5d5c0 7a 0 boost::exception_detail::clone_impl<boost::exception_detail::error_info_injector<boost::condition_error> >::~clone_impl
FUNC 5d658 26 0 boost::exception_detail::clone_impl<boost::exception_detail::error_info_injector<boost::condition_error> >::~clone_impl
FUNC 5d67e 12 0 boost::unique_lock<boost::mutex>::owns_lock
FUNC 5d690 76 0 boost::shared_lock<boost::shared_mutex>::lock
FUNC 5d706 12 0 boost::shared_lock<boost::shared_mutex>::owns_lock
FUNC 5d718 1a 0 std::_Vector_base<Config::XmlGroup, std::allocator<Config::XmlGroup> >::_Vector_impl::~_Vector_impl
FUNC 5d732 1a 0 std::_Vector_base<Config::XmlGroup, std::allocator<Config::XmlGroup> >::_Vector_base
FUNC 5d74c 8e 0 std::_Vector_base<Config::XmlGroup, std::allocator<Config::XmlGroup> >::~_Vector_base
FUNC 5d7da e 0 std::_Vector_base<Config::XmlGroup, std::allocator<Config::XmlGroup> >::_M_get_Tp_allocator
FUNC 5d7e8 29 0 std::_Destroy<Config::XmlGroup*, Config::XmlGroup>
FUNC 5d812 1a 0 std::_Vector_base<Config::XmlParameter, std::allocator<Config::XmlParameter> >::_Vector_impl::~_Vector_impl
FUNC 5d82c 1a 0 std::_Vector_base<Config::XmlParameter, std::allocator<Config::XmlParameter> >::_Vector_base
FUNC 5d846 8e 0 std::_Vector_base<Config::XmlParameter, std::allocator<Config::XmlParameter> >::~_Vector_base
FUNC 5d8d4 e 0 std::_Vector_base<Config::XmlParameter, std::allocator<Config::XmlParameter> >::_M_get_Tp_allocator
FUNC 5d8e2 29 0 std::_Destroy<Config::XmlParameter*, Config::XmlParameter>
FUNC 5d90c 76 0 boost::unique_lock<boost::shared_mutex>::lock
FUNC 5d982 12 0 boost::unique_lock<boost::shared_mutex>::owns_lock
FUNC 5d994 40 0 boost::shared_ptr<Config::ConfigCenter>::swap
FUNC 5d9d4 84 0 boost::detail::shared_count::shared_count<Config::ConfigCenter>
FUNC 5da58 2c 0 std::_Rb_tree<std::basic_string<char, std::char_traits<char>, std::allocator<char> >, std::pair<const std::basic_string<char, std::char_traits<char>, std::allocator<char> >, Config::IntParameter>, std::_Select1st<std::pair<const std::basic_string<char, std::char_traits<char>, std::allocator<char> >, Config::IntParameter> >, std::less<std::basic_string<char, std::char_traits<char>, std::allocator<char> > >, std::allocator<std::pair<const std::basic_string<char, std::char_traits<char>, std::allocator<char> >, Config::IntParameter> > >::begin
FUNC 5da84 2c 0 std::_Rb_tree<std::basic_string<char, std::char_traits<char>, std::allocator<char> >, std::pair<const std::basic_string<char, std::char_traits<char>, std::allocator<char> >, Config::IntParameter>, std::_Select1st<std::pair<const std::basic_string<char, std::char_traits<char>, std::allocator<char> >, Config::IntParameter> >, std::less<std::basic_string<char, std::char_traits<char>, std::allocator<char> > >, std::allocator<std::pair<const std::basic_string<char, std::char_traits<char>, std::allocator<char> >, Config::IntParameter> > >::end
FUNC 5dab0 a 0 std::_Rb_tree<std::basic_string<char, std::char_traits<char>, std::allocator<char> >, std::pair<const std::basic_string<char, std::char_traits<char>, std::allocator<char> >, Config::IntParameter>, std::_Select1st<std::pair<const std::basic_string<char, std::char_traits<char>, std::allocator<char> >, Config::IntParameter> >, std::less<std::basic_string<char, std::char_traits<char>, std::allocator<char> > >, std::allocator<std::pair<const std::basic_string<char, std::char_traits<char>, std::allocator<char> >, Config::IntParameter> > >::key_comp
FUNC 5daba 1a 0 std::_Rb_tree<std::basic_string<char, std::char_traits<char>, std::allocator<char> >, std::pair<const std::basic_string<char, std::char_traits<char>, std::allocator<char> >, Config::IntParameter>, std::_Select1st<std::pair<const std::basic_string<char, std::char_traits<char>, std::allocator<char> >, Config::IntParameter> >, std::less<std::basic_string<char, std::char_traits<char>, std::allocator<char> > >, std::allocator<std::pair<const std::basic_string<char, std::char_traits<char>, std::allocator<char> >, Config::IntParameter> > >::_Rb_tree
FUNC 5dad4 1a 0 std::allocator<std::_Rb_tree_node<std::pair<const std::basic_string<char, std::char_traits<char>, std::allocator<char> >, Config::IntParameter> > >::~allocator
FUNC 5daee 69 0 std::_Rb_tree<std::basic_string<char, std::char_traits<char>, std::allocator<char> >, std::pair<const std::basic_string<char, std::char_traits<char>, std::allocator<char> >, Config::IntParameter>, std::_Select1st<std::pair<const std::basic_string<char, std::char_traits<char>, std::allocator<char> >, Config::IntParameter> >, std::less<std::basic_string<char, std::char_traits<char>, std::allocator<char> > >, std::allocator<std::pair<const std::basic_string<char, std::char_traits<char>, std::allocator<char> >, Config::IntParameter> > >::_M_erase
FUNC 5db58 12 0 std::_Rb_tree<std::basic_string<char, std::char_traits<char>, std::allocator<char> >, std::pair<const std::basic_string<char, std::char_traits<char>, std::allocator<char> >, Config::IntParameter>, std::_Select1st<std::pair<const std::basic_string<char, std::char_traits<char>, std::allocator<char> >, Config::IntParameter> >, std::less<std::basic_string<char, std::char_traits<char>, std::allocator<char> > >, std::allocator<std::pair<const std::basic_string<char, std::char_traits<char>, std::allocator<char> >, Config::IntParameter> > >::_M_begin
FUNC 5db6a 271 0 std::_Rb_tree<std::basic_string<char, std::char_traits<char>, std::allocator<char> >, std::pair<const std::basic_string<char, std::char_traits<char>, std::allocator<char> >, Config::IntParameter>, std::_Select1st<std::pair<const std::basic_string<char, std::char_traits<char>, std::allocator<char> >, Config::IntParameter> >, std::less<std::basic_string<char, std::char_traits<char>, std::allocator<char> > >, std::allocator<std::pair<const std::basic_string<char, std::char_traits<char>, std::allocator<char> >, Config::IntParameter> > >::_M_insert_unique
FUNC 5dddc 89 0 std::_Rb_tree<std::basic_string<char, std::char_traits<char>, std::allocator<char> >, std::pair<const std::basic_string<char, std::char_traits<char>, std::allocator<char> >, Config::IntParameter>, std::_Select1st<std::pair<const std::basic_string<char, std::char_traits<char>, std::allocator<char> >, Config::IntParameter> >, std::less<std::basic_string<char, std::char_traits<char>, std::allocator<char> > >, std::allocator<std::pair<const std::basic_string<char, std::char_traits<char>, std::allocator<char> >, Config::IntParameter> > >::_M_insert_unique<std::_Rb_tree_iterator<std::pair<const std::basic_string<char, std::char_traits<char>, std::allocator<char> >, Config::IntParameter> > >
FUNC 5de66 2c 0 std::_Rb_tree<std::basic_string<char, std::char_traits<char>, std::allocator<char> >, std::pair<const std::basic_string<char, std::char_traits<char>, std::allocator<char> >, Config::StringParameter>, std::_Select1st<std::pair<const std::basic_string<char, std::char_traits<char>, std::allocator<char> >, Config::StringParameter> >, std::less<std::basic_string<char, std::char_traits<char>, std::allocator<char> > >, std::allocator<std::pair<const std::basic_string<char, std::char_traits<char>, std::allocator<char> >, Config::StringParameter> > >::begin
FUNC 5de92 2c 0 std::_Rb_tree<std::basic_string<char, std::char_traits<char>, std::allocator<char> >, std::pair<const std::basic_string<char, std::char_traits<char>, std::allocator<char> >, Config::StringParameter>, std::_Select1st<std::pair<const std::basic_string<char, std::char_traits<char>, std::allocator<char> >, Config::StringParameter> >, std::less<std::basic_string<char, std::char_traits<char>, std::allocator<char> > >, std::allocator<std::pair<const std::basic_string<char, std::char_traits<char>, std::allocator<char> >, Config::StringParameter> > >::end
FUNC 5debe a 0 std::_Rb_tree<std::basic_string<char, std::char_traits<char>, std::allocator<char> >, std::pair<const std::basic_string<char, std::char_traits<char>, std::allocator<char> >, Config::StringParameter>, std::_Select1st<std::pair<const std::basic_string<char, std::char_traits<char>, std::allocator<char> >, Config::StringParameter> >, std::less<std::basic_string<char, std::char_traits<char>, std::allocator<char> > >, std::allocator<std::pair<const std::basic_string<char, std::char_traits<char>, std::allocator<char> >, Config::StringParameter> > >::key_comp
FUNC 5dec8 1a 0 std::_Rb_tree<std::basic_string<char, std::char_traits<char>, std::allocator<char> >, std::pair<const std::basic_string<char, std::char_traits<char>, std::allocator<char> >, Config::StringParameter>, std::_Select1st<std::pair<const std::basic_string<char, std::char_traits<char>, std::allocator<char> >, Config::StringParameter> >, std::less<std::basic_string<char, std::char_traits<char>, std::allocator<char> > >, std::allocator<std::pair<const std::basic_string<char, std::char_traits<char>, std::allocator<char> >, Config::StringParameter> > >::_Rb_tree
FUNC 5dee2 1a 0 std::allocator<std::_Rb_tree_node<std::pair<const std::basic_string<char, std::char_traits<char>, std::allocator<char> >, Config::StringParameter> > >::~allocator
FUNC 5defc 69 0 std::_Rb_tree<std::basic_string<char, std::char_traits<char>, std::allocator<char> >, std::pair<const std::basic_string<char, std::char_traits<char>, std::allocator<char> >, Config::StringParameter>, std::_Select1st<std::pair<const std::basic_string<char, std::char_traits<char>, std::allocator<char> >, Config::StringParameter> >, std::less<std::basic_string<char, std::char_traits<char>, std::allocator<char> > >, std::allocator<std::pair<const std::basic_string<char, std::char_traits<char>, std::allocator<char> >, Config::StringParameter> > >::_M_erase
FUNC 5df66 12 0 std::_Rb_tree<std::basic_string<char, std::char_traits<char>, std::allocator<char> >, std::pair<const std::basic_string<char, std::char_traits<char>, std::allocator<char> >, Config::StringParameter>, std::_Select1st<std::pair<const std::basic_string<char, std::char_traits<char>, std::allocator<char> >, Config::StringParameter> >, std::less<std::basic_string<char, std::char_traits<char>, std::allocator<char> > >, std::allocator<std::pair<const std::basic_string<char, std::char_traits<char>, std::allocator<char> >, Config::StringParameter> > >::_M_begin
FUNC 5df78 271 0 std::_Rb_tree<std::basic_string<char, std::char_traits<char>, std::allocator<char> >, std::pair<const std::basic_string<char, std::char_traits<char>, std::allocator<char> >, Config::StringParameter>, std::_Select1st<std::pair<const std::basic_string<char, std::char_traits<char>, std::allocator<char> >, Config::StringParameter> >, std::less<std::basic_string<char, std::char_traits<char>, std::allocator<char> > >, std::allocator<std::pair<const std::basic_string<char, std::char_traits<char>, std::allocator<char> >, Config::StringParameter> > >::_M_insert_unique
FUNC 5e1ea 89 0 std::_Rb_tree<std::basic_string<char, std::char_traits<char>, std::allocator<char> >, std::pair<const std::basic_string<char, std::char_traits<char>, std::allocator<char> >, Config::StringParameter>, std::_Select1st<std::pair<const std::basic_string<char, std::char_traits<char>, std::allocator<char> >, Config::StringParameter> >, std::less<std::basic_string<char, std::char_traits<char>, std::allocator<char> > >, std::allocator<std::pair<const std::basic_string<char, std::char_traits<char>, std::allocator<char> >, Config::StringParameter> > >::_M_insert_unique<std::_Rb_tree_iterator<std::pair<const std::basic_string<char, std::char_traits<char>, std::allocator<char> >, Config::StringParameter> > >
FUNC 5e274 3a 0 std::vector<Config::XmlGroup, std::allocator<Config::XmlGroup> >::size
FUNC 5e2ae 3a 0 std::vector<Config::XmlGroup, std::allocator<Config::XmlGroup> >::capacity
FUNC 5e2e8 30 0 std::vector<Config::XmlGroup, std::allocator<Config::XmlGroup> >::begin
FUNC 5e318 31 0 std::vector<Config::XmlGroup, std::allocator<Config::XmlGroup> >::end
FUNC 5e34a a1 0 std::vector<Config::XmlGroup, std::allocator<Config::XmlGroup> >::_M_allocate_and_copy<__gnu_cxx::__normal_iterator<const Config::XmlGroup*, std::vector<Config::XmlGroup, std::allocator<Config::XmlGroup> > > >
FUNC 5e3ec 34 0 std::_Vector_base<Config::XmlGroup, std::allocator<Config::XmlGroup> >::_M_deallocate
FUNC 5e420 25 0 std::vector<Config::XmlGroup, std::allocator<Config::XmlGroup> >::begin
FUNC 5e445 46 0 std::copy<__gnu_cxx::__normal_iterator<const Config::XmlGroup*, std::vector<Config::XmlGroup, std::allocator<Config::XmlGroup> > >, __gnu_cxx::__normal_iterator<Config::XmlGroup*, std::vector<Config::XmlGroup, std::allocator<Config::XmlGroup> > > >
FUNC 5e48c 29 0 std::vector<Config::XmlGroup, std::allocator<Config::XmlGroup> >::end
FUNC 5e4b5 29 0 std::_Destroy<__gnu_cxx::__normal_iterator<Config::XmlGroup*, std::vector<Config::XmlGroup, std::allocator<Config::XmlGroup> > >, Config::XmlGroup>
FUNC 5e4de 46 0 std::copy<Config::XmlGroup*, Config::XmlGroup*>
FUNC 5e524 31 0 std::__uninitialized_copy_a<Config::XmlGroup*, Config::XmlGroup*, Config::XmlGroup>
FUNC 5e556 3a 0 std::vector<Config::XmlParameter, std::allocator<Config::XmlParameter> >::size
FUNC 5e590 3a 0 std::vector<Config::XmlParameter, std::allocator<Config::XmlParameter> >::capacity
FUNC 5e5ca 30 0 std::vector<Config::XmlParameter, std::allocator<Config::XmlParameter> >::begin
FUNC 5e5fa 31 0 std::vector<Config::XmlParameter, std::allocator<Config::XmlParameter> >::end
FUNC 5e62c a1 0 std::vector<Config::XmlParameter, std::allocator<Config::XmlParameter> >::_M_allocate_and_copy<__gnu_cxx::__normal_iterator<const Config::XmlParameter*, std::vector<Config::XmlParameter, std::allocator<Config::XmlParameter> > > >
FUNC 5e6ce 34 0 std::_Vector_base<Config::XmlParameter, std::allocator<Config::XmlParameter> >::_M_deallocate
FUNC 5e702 25 0 std::vector<Config::XmlParameter, std::allocator<Config::XmlParameter> >::begin
FUNC 5e727 46 0 std::copy<__gnu_cxx::__normal_iterator<const Config::XmlParameter*, std::vector<Config::XmlParameter, std::allocator<Config::XmlParameter> > >, __gnu_cxx::__normal_iterator<Config::XmlParameter*, std::vector<Config::XmlParameter, std::allocator<Config::XmlParameter> > > >
FUNC 5e76e 29 0 std::vector<Config::XmlParameter, std::allocator<Config::XmlParameter> >::end
FUNC 5e797 29 0 std::_Destroy<__gnu_cxx::__normal_iterator<Config::XmlParameter*, std::vector<Config::XmlParameter, std::allocator<Config::XmlParameter> > >, Config::XmlParameter>
FUNC 5e7c0 46 0 std::copy<Config::XmlParameter*, Config::XmlParameter*>
FUNC 5e806 31 0 std::__uninitialized_copy_a<Config::XmlParameter*, Config::XmlParameter*, Config::XmlParameter>
FUNC 5e838 11 0 std::fpos<__mbstate_t>::operator std::streamoff
FUNC 5e84a 25 0 std::fpos<__mbstate_t>::fpos
FUNC 5e870 95 0 std::vector<char, std::allocator<char> >::resize
FUNC 5e906 2a 0 std::vector<char, std::allocator<char> >::front
FUNC 5e930 3f 0 rapidxml::xml_node<char>::xml_node
FUNC 5e970 38 0 rapidxml::memory_pool<char>::memory_pool
FUNC 5e9a8 a5 0 rapidxml::memory_pool<char>::clear
FUNC 5ea4e 5f 0 rapidxml::xml_node<char>::remove_all_nodes
FUNC 5eaae 5f 0 rapidxml::xml_node<char>::remove_all_attributes
FUNC 5eb0e 52 0 rapidxml::xml_document<char>::parse_bom<0>
FUNC 5eb60 45 0 rapidxml::xml_document<char>::skip<rapidxml::xml_document<char>::whitespace_pred, 0>
FUNC 5eba6 3ae 0 rapidxml::xml_document<char>::parse_node<0>
FUNC 5ef54 3a 0 rapidxml::internal::measure<char>
FUNC 5ef8e e2 0 rapidxml::xml_node<char>::next_sibling
FUNC 5f070 25 0 rapidxml::xml_base<char>::name_size
FUNC 5f095 dd 0 rapidxml::internal::compare<char>
FUNC 5f172 b 0 rapidxml::xml_base<char>::nullstr
FUNC 5f17d 2a 0 std::operator==<char, std::char_traits<char>, std::allocator<char> >
FUNC 5f1a8 113 0 rapidxml::memory_pool<char>::allocate_aligned
FUNC 5f2bc 29 0 rapidxml::xml_base<char>::name
FUNC 5f2e6 34 0 rapidxml::xml_base<char>::name
FUNC 5f31a 2a 0 rapidxml::xml_base<char>::value
FUNC 5f344 34 0 rapidxml::xml_base<char>::value
FUNC 5f378 11 0 rapidxml::xml_node<char>::type
FUNC 5f38a 12 0 rapidxml::xml_base<char>::parent
FUNC 5f39c 4c 0 rapidxml::print<char>
FUNC 5f3e8 b6 0 std::_Rb_tree<std::basic_string<char, std::char_traits<char>, std::allocator<char> >, std::pair<const std::basic_string<char, std::char_traits<char>, std::allocator<char> >, Config::IntParameter>, std::_Select1st<std::pair<const std::basic_string<char, std::char_traits<char>, std::allocator<char> >, Config::IntParameter> >, std::less<std::basic_string<char, std::char_traits<char>, std::allocator<char> > >, std::allocator<std::pair<const std::basic_string<char, std::char_traits<char>, std::allocator<char> >, Config::IntParameter> > >::find
FUNC 5f49e b6 0 std::_Rb_tree<std::basic_string<char, std::char_traits<char>, std::allocator<char> >, std::pair<const std::basic_string<char, std::char_traits<char>, std::allocator<char> >, Config::StringParameter>, std::_Select1st<std::pair<const std::basic_string<char, std::char_traits<char>, std::allocator<char> >, Config::StringParameter> >, std::less<std::basic_string<char, std::char_traits<char>, std::allocator<char> > >, std::allocator<std::pair<const std::basic_string<char, std::char_traits<char>, std::allocator<char> >, Config::StringParameter> > >::find
FUNC 5f554 4c 0 boost::exception_detail::error_info_injector<boost::condition_error>::error_info_injector
FUNC 5f5a0 b9 0 boost::exception_detail::clone_impl<boost::exception_detail::error_info_injector<boost::condition_error> >::clone_impl
FUNC 5f65a 3d 0 std::_Vector_base<Config::XmlGroup, std::allocator<Config::XmlGroup> >::_Vector_impl::_Vector_impl
FUNC 5f698 1a 0 std::allocator<Config::XmlGroup>::~allocator
FUNC 5f6b2 25 0 std::_Destroy<Config::XmlGroup*>
FUNC 5f6d8 3d 0 std::_Vector_base<Config::XmlParameter, std::allocator<Config::XmlParameter> >::_Vector_impl::_Vector_impl
FUNC 5f716 1a 0 std::allocator<Config::XmlParameter>::~allocator
FUNC 5f730 25 0 std::_Destroy<Config::XmlParameter*>
FUNC 5f755 32 0 std::swap<Config::ConfigCenter*>
FUNC 5f788 35 0 boost::detail::sp_counted_impl_p<Config::ConfigCenter>::sp_counted_impl_p
FUNC 5f7bd 2d 0 boost::checked_delete<Config::ConfigCenter>
FUNC 5f7ea 19 0 std::_Rb_tree_iterator<std::pair<const std::basic_string<char, std::char_traits<char>, std::allocator<char> >, Config::IntParameter> >::_Rb_tree_iterator
FUNC 5f804 61 0 std::_Rb_tree<std::basic_string<char, std::char_traits<char>, std::allocator<char> >, std::pair<const std::basic_string<char, std::char_traits<char>, std::allocator<char> >, Config::IntParameter>, std::_Select1st<std::pair<const std::basic_string<char, std::char_traits<char>, std::allocator<char> >, Config::IntParameter> >, std::less<std::basic_string<char, std::char_traits<char>, std::allocator<char> > >, std::allocator<std::pair<const std::basic_string<char, std::char_traits<char>, std::allocator<char> >, Config::IntParameter> > >::_Rb_tree_impl<std::less<std::basic_string<char, std::char_traits<char>, std::allocator<char> > >, false>::_Rb_tree_impl
FUNC 5f866 a 0 __gnu_cxx::new_allocator<std::_Rb_tree_node<std::pair<const std::basic_string<char, std::char_traits<char>, std::allocator<char> >, Config::IntParameter> > >::~new_allocator
FUNC 5f870 12 0 std::_Rb_tree<std::basic_string<char, std::char_traits<char>, std::allocator<char> >, std::pair<const std::basic_string<char, std::char_traits<char>, std::allocator<char> >, Config::IntParameter>, std::_Select1st<std::pair<const std::basic_string<char, std::char_traits<char>, std::allocator<char> >, Config::IntParameter> >, std::less<std::basic_string<char, std::char_traits<char>, std::allocator<char> > >, std::allocator<std::pair<const std::basic_string<char, std::char_traits<char>, std::allocator<char> >, Config::IntParameter> > >::_S_right
FUNC 5f882 12 0 std::_Rb_tree<std::basic_string<char, std::char_traits<char>, std::allocator<char> >, std::pair<const std::basic_string<char, std::char_traits<char>, std::allocator<char> >, Config::IntParameter>, std::_Select1st<std::pair<const std::basic_string<char, std::char_traits<char>, std::allocator<char> >, Config::IntParameter> >, std::less<std::basic_string<char, std::char_traits<char>, std::allocator<char> > >, std::allocator<std::pair<const std::basic_string<char, std::char_traits<char>, std::allocator<char> >, Config::IntParameter> > >::_S_left
FUNC 5f894 86 0 std::_Rb_tree<std::basic_string<char, std::char_traits<char>, std::allocator<char> >, std::pair<const std::basic_string<char, std::char_traits<char>, std::allocator<char> >, Config::IntParameter>, std::_Select1st<std::pair<const std::basic_string<char, std::char_traits<char>, std::allocator<char> >, Config::IntParameter> >, std::less<std::basic_string<char, std::char_traits<char>, std::allocator<char> > >, std::allocator<std::pair<const std::basic_string<char, std::char_traits<char>, std::allocator<char> >, Config::IntParameter> > >::_M_destroy_node
FUNC 5f91a 12 0 std::_Rb_tree<std::basic_string<char, std::char_traits<char>, std::allocator<char> >, std::pair<const std::basic_string<char, std::char_traits<char>, std::allocator<char> >, Config::IntParameter>, std::_Select1st<std::pair<const std::basic_string<char, std::char_traits<char>, std::allocator<char> >, Config::IntParameter> >, std::less<std::basic_string<char, std::char_traits<char>, std::allocator<char> > >, std::allocator<std::pair<const std::basic_string<char, std::char_traits<char>, std::allocator<char> >, Config::IntParameter> > >::_M_end
FUNC 5f92c 12 0 std::_Select1st<std::pair<const std::basic_string<char, std::char_traits<char>, std::allocator<char> >, Config::IntParameter> >::operator()
FUNC 5f93e 2c 0 std::_Rb_tree<std::basic_string<char, std::char_traits<char>, std::allocator<char> >, std::pair<const std::basic_string<char, std::char_traits<char>, std::allocator<char> >, Config::IntParameter>, std::_Select1st<std::pair<const std::basic_string<char, std::char_traits<char>, std::allocator<char> >, Config::IntParameter> >, std::less<std::basic_string<char, std::char_traits<char>, std::allocator<char> > >, std::allocator<std::pair<const std::basic_string<char, std::char_traits<char>, std::allocator<char> >, Config::IntParameter> > >::_S_key
FUNC 5f96a 22 0 std::_Rb_tree_iterator<std::pair<const std::basic_string<char, std::char_traits<char>, std::allocator<char> >, Config::IntParameter> >::operator==
FUNC 5f98c e3 0 std::_Rb_tree<std::basic_string<char, std::char_traits<char>, std::allocator<char> >, std::pair<const std::basic_string<char, std::char_traits<char>, std::allocator<char> >, Config::IntParameter>, std::_Select1st<std::pair<const std::basic_string<char, std::char_traits<char>, std::allocator<char> >, Config::IntParameter> >, std::less<std::basic_string<char, std::char_traits<char>, std::allocator<char> > >, std::allocator<std::pair<const std::basic_string<char, std::char_traits<char>, std::allocator<char> >, Config::IntParameter> > >::_M_insert_
FUNC 5fa70 2e 0 std::pair<std::_Rb_tree_iterator<std::pair<const std::basic_string<char, std::char_traits<char>, std::allocator<char> >, Config::IntParameter> >, bool>::pair
FUNC 5fa9e 28 0 std::_Rb_tree_iterator<std::pair<const std::basic_string<char, std::char_traits<char>, std::allocator<char> >, Config::IntParameter> >::operator--
FUNC 5fac6 2c 0 std::_Rb_tree<std::basic_string<char, std::char_traits<char>, std::allocator<char> >, std::pair<const std::basic_string<char, std::char_traits<char>, std::allocator<char> >, Config::IntParameter>, std::_Select1st<std::pair<const std::basic_string<char, std::char_traits<char>, std::allocator<char> >, Config::IntParameter> >, std::less<std::basic_string<char, std::char_traits<char>, std::allocator<char> > >, std::allocator<std::pair<const std::basic_string<char, std::char_traits<char>, std::allocator<char> >, Config::IntParameter> > >::_S_key
FUNC 5faf2 4c0 0 std::_Rb_tree<std::basic_string<char, std::char_traits<char>, std::allocator<char> >, std::pair<const std::basic_string<char, std::char_traits<char>, std::allocator<char> >, Config::IntParameter>, std::_Select1st<std::pair<const std::basic_string<char, std::char_traits<char>, std::allocator<char> >, Config::IntParameter> >, std::less<std::basic_string<char, std::char_traits<char>, std::allocator<char> > >, std::allocator<std::pair<const std::basic_string<char, std::char_traits<char>, std::allocator<char> >, Config::IntParameter> > >::_M_insert_unique_
FUNC 5ffb2 1c 0 std::_Rb_tree_const_iterator<std::pair<const std::basic_string<char, std::char_traits<char>, std::allocator<char> >, Config::IntParameter> >::_Rb_tree_const_iterator
FUNC 5ffce 19 0 std::_Rb_tree_iterator<std::pair<const std::basic_string<char, std::char_traits<char>, std::allocator<char> >, Config::StringParameter> >::_Rb_tree_iterator
FUNC 5ffe8 61 0 std::_Rb_tree<std::basic_string<char, std::char_traits<char>, std::allocator<char> >, std::pair<const std::basic_string<char, std::char_traits<char>, std::allocator<char> >, Config::StringParameter>, std::_Select1st<std::pair<const std::basic_string<char, std::char_traits<char>, std::allocator<char> >, Config::StringParameter> >, std::less<std::basic_string<char, std::char_traits<char>, std::allocator<char> > >, std::allocator<std::pair<const std::basic_string<char, std::char_traits<char>, std::allocator<char> >, Config::StringParameter> > >::_Rb_tree_impl<std::less<std::basic_string<char, std::char_traits<char>, std::allocator<char> > >, false>::_Rb_tree_impl
FUNC 6004a a 0 __gnu_cxx::new_allocator<std::_Rb_tree_node<std::pair<const std::basic_string<char, std::char_traits<char>, std::allocator<char> >, Config::StringParameter> > >::~new_allocator
FUNC 60054 12 0 std::_Rb_tree<std::basic_string<char, std::char_traits<char>, std::allocator<char> >, std::pair<const std::basic_string<char, std::char_traits<char>, std::allocator<char> >, Config::StringParameter>, std::_Select1st<std::pair<const std::basic_string<char, std::char_traits<char>, std::allocator<char> >, Config::StringParameter> >, std::less<std::basic_string<char, std::char_traits<char>, std::allocator<char> > >, std::allocator<std::pair<const std::basic_string<char, std::char_traits<char>, std::allocator<char> >, Config::StringParameter> > >::_S_right
FUNC 60066 12 0 std::_Rb_tree<std::basic_string<char, std::char_traits<char>, std::allocator<char> >, std::pair<const std::basic_string<char, std::char_traits<char>, std::allocator<char> >, Config::StringParameter>, std::_Select1st<std::pair<const std::basic_string<char, std::char_traits<char>, std::allocator<char> >, Config::StringParameter> >, std::less<std::basic_string<char, std::char_traits<char>, std::allocator<char> > >, std::allocator<std::pair<const std::basic_string<char, std::char_traits<char>, std::allocator<char> >, Config::StringParameter> > >::_S_left
FUNC 60078 86 0 std::_Rb_tree<std::basic_string<char, std::char_traits<char>, std::allocator<char> >, std::pair<const std::basic_string<char, std::char_traits<char>, std::allocator<char> >, Config::StringParameter>, std::_Select1st<std::pair<const std::basic_string<char, std::char_traits<char>, std::allocator<char> >, Config::StringParameter> >, std::less<std::basic_string<char, std::char_traits<char>, std::allocator<char> > >, std::allocator<std::pair<const std::basic_string<char, std::char_traits<char>, std::allocator<char> >, Config::StringParameter> > >::_M_destroy_node
FUNC 600fe 12 0 std::_Rb_tree<std::basic_string<char, std::char_traits<char>, std::allocator<char> >, std::pair<const std::basic_string<char, std::char_traits<char>, std::allocator<char> >, Config::StringParameter>, std::_Select1st<std::pair<const std::basic_string<char, std::char_traits<char>, std::allocator<char> >, Config::StringParameter> >, std::less<std::basic_string<char, std::char_traits<char>, std::allocator<char> > >, std::allocator<std::pair<const std::basic_string<char, std::char_traits<char>, std::allocator<char> >, Config::StringParameter> > >::_M_end
FUNC 60110 12 0 std::_Select1st<std::pair<const std::basic_string<char, std::char_traits<char>, std::allocator<char> >, Config::StringParameter> >::operator()
FUNC 60122 2c 0 std::_Rb_tree<std::basic_string<char, std::char_traits<char>, std::allocator<char> >, std::pair<const std::basic_string<char, std::char_traits<char>, std::allocator<char> >, Config::StringParameter>, std::_Select1st<std::pair<const std::basic_string<char, std::char_traits<char>, std::allocator<char> >, Config::StringParameter> >, std::less<std::basic_string<char, std::char_traits<char>, std::allocator<char> > >, std::allocator<std::pair<const std::basic_string<char, std::char_traits<char>, std::allocator<char> >, Config::StringParameter> > >::_S_key
FUNC 6014e 22 0 std::_Rb_tree_iterator<std::pair<const std::basic_string<char, std::char_traits<char>, std::allocator<char> >, Config::StringParameter> >::operator==
FUNC 60170 e3 0 std::_Rb_tree<std::basic_string<char, std::char_traits<char>, std::allocator<char> >, std::pair<const std::basic_string<char, std::char_traits<char>, std::allocator<char> >, Config::StringParameter>, std::_Select1st<std::pair<const std::basic_string<char, std::char_traits<char>, std::allocator<char> >, Config::StringParameter> >, std::less<std::basic_string<char, std::char_traits<char>, std::allocator<char> > >, std::allocator<std::pair<const std::basic_string<char, std::char_traits<char>, std::allocator<char> >, Config::StringParameter> > >::_M_insert_
FUNC 60254 2e 0 std::pair<std::_Rb_tree_iterator<std::pair<const std::basic_string<char, std::char_traits<char>, std::allocator<char> >, Config::StringParameter> >, bool>::pair
FUNC 60282 28 0 std::_Rb_tree_iterator<std::pair<const std::basic_string<char, std::char_traits<char>, std::allocator<char> >, Config::StringParameter> >::operator--
FUNC 602aa 2c 0 std::_Rb_tree<std::basic_string<char, std::char_traits<char>, std::allocator<char> >, std::pair<const std::basic_string<char, std::char_traits<char>, std::allocator<char> >, Config::StringParameter>, std::_Select1st<std::pair<const std::basic_string<char, std::char_traits<char>, std::allocator<char> >, Config::StringParameter> >, std::less<std::basic_string<char, std::char_traits<char>, std::allocator<char> > >, std::allocator<std::pair<const std::basic_string<char, std::char_traits<char>, std::allocator<char> >, Config::StringParameter> > >::_S_key
FUNC 602d6 4c0 0 std::_Rb_tree<std::basic_string<char, std::char_traits<char>, std::allocator<char> >, std::pair<const std::basic_string<char, std::char_traits<char>, std::allocator<char> >, Config::StringParameter>, std::_Select1st<std::pair<const std::basic_string<char, std::char_traits<char>, std::allocator<char> >, Config::StringParameter> >, std::less<std::basic_string<char, std::char_traits<char>, std::allocator<char> > >, std::allocator<std::pair<const std::basic_string<char, std::char_traits<char>, std::allocator<char> >, Config::StringParameter> > >::_M_insert_unique_
FUNC 60796 1c 0 std::_Rb_tree_const_iterator<std::pair<const std::basic_string<char, std::char_traits<char>, std::allocator<char> >, Config::StringParameter> >::_Rb_tree_const_iterator
FUNC 607b2 1c 0 __gnu_cxx::__normal_iterator<const Config::XmlGroup*, std::vector<Config::XmlGroup, std::allocator<Config::XmlGroup> > >::__normal_iterator
FUNC 607ce 38 0 std::_Vector_base<Config::XmlGroup, std::allocator<Config::XmlGroup> >::_M_allocate
FUNC 60806 31 0 std::__uninitialized_copy_a<__gnu_cxx::__normal_iterator<const Config::XmlGroup*, std::vector<Config::XmlGroup, std::allocator<Config::XmlGroup> > >, Config::XmlGroup*, Config::XmlGroup>
FUNC 60838 22 0 __gnu_cxx::new_allocator<Config::XmlGroup>::deallocate
FUNC 6085a 1c 0 __gnu_cxx::__normal_iterator<Config::XmlGroup*, std::vector<Config::XmlGroup, std::allocator<Config::XmlGroup> > >::__normal_iterator
FUNC 60876 e 0 std::__miter_base<__gnu_cxx::__normal_iterator<const Config::XmlGroup*, std::vector<Config::XmlGroup, std::allocator<Config::XmlGroup> > >, false>::__b
FUNC 60884 73 0 std::__copy_move_a2<false, __gnu_cxx::__normal_iterator<const Config::XmlGroup*, std::vector<Config::XmlGroup, std::allocator<Config::XmlGroup> > >, __gnu_cxx::__normal_iterator<Config::XmlGroup*, std::vector<Config::XmlGroup, std::allocator<Config::XmlGroup> > > >
FUNC 608f7 25 0 std::_Destroy<__gnu_cxx::__normal_iterator<Config::XmlGroup*, std::vector<Config::XmlGroup, std::allocator<Config::XmlGroup> > > >
FUNC 6091c e 0 std::__miter_base<Config::XmlGroup*, false>::__b
FUNC 6092a 58 0 std::__copy_move_a2<false, Config::XmlGroup*, Config::XmlGroup*>
FUNC 60982 2d 0 std::uninitialized_copy<Config::XmlGroup*, Config::XmlGroup*>
FUNC 609b0 1c 0 __gnu_cxx::__normal_iterator<const Config::XmlParameter*, std::vector<Config::XmlParameter, std::allocator<Config::XmlParameter> > >::__normal_iterator
FUNC 609cc 38 0 std::_Vector_base<Config::XmlParameter, std::allocator<Config::XmlParameter> >::_M_allocate
FUNC 60a04 31 0 std::__uninitialized_copy_a<__gnu_cxx::__normal_iterator<const Config::XmlParameter*, std::vector<Config::XmlParameter, std::allocator<Config::XmlParameter> > >, Config::XmlParameter*, Config::XmlParameter>
FUNC 60a36 22 0 __gnu_cxx::new_allocator<Config::XmlParameter>::deallocate
FUNC 60a58 1c 0 __gnu_cxx::__normal_iterator<Config::XmlParameter*, std::vector<Config::XmlParameter, std::allocator<Config::XmlParameter> > >::__normal_iterator
FUNC 60a74 e 0 std::__miter_base<__gnu_cxx::__normal_iterator<const Config::XmlParameter*, std::vector<Config::XmlParameter, std::allocator<Config::XmlParameter> > >, false>::__b
FUNC 60a82 73 0 std::__copy_move_a2<false, __gnu_cxx::__normal_iterator<const Config::XmlParameter*, std::vector<Config::XmlParameter, std::allocator<Config::XmlParameter> > >, __gnu_cxx::__normal_iterator<Config::XmlParameter*, std::vector<Config::XmlParameter, std::allocator<Config::XmlParameter> > > >
FUNC 60af5 25 0 std::_Destroy<__gnu_cxx::__normal_iterator<Config::XmlParameter*, std::vector<Config::XmlParameter, std::allocator<Config::XmlParameter> > > >
FUNC 60b1a e 0 std::__miter_base<Config::XmlParameter*, false>::__b
FUNC 60b28 58 0 std::__copy_move_a2<false, Config::XmlParameter*, Config::XmlParameter*>
FUNC 60b80 2d 0 std::uninitialized_copy<Config::XmlParameter*, Config::XmlParameter*>
FUNC 60bae 44 0 std::vector<char, std::allocator<char> >::_M_erase_at_end
FUNC 60bf2 3b 0 std::vector<char, std::allocator<char> >::insert
FUNC 60c2e 11 0 __gnu_cxx::__normal_iterator<char*, std::vector<char, std::allocator<char> > >::operator*
FUNC 60c40 2d 0 rapidxml::xml_base<char>::xml_base
FUNC 60c6e 52 0 rapidxml::memory_pool<char>::init
FUNC 60cc0 33 0 rapidxml::memory_pool<char>::align
FUNC 60cf4 bc 0 rapidxml::xml_node<char>::first_attribute
FUNC 60db0 1b 0 rapidxml::xml_document<char>::whitespace_pred::test
FUNC 60dcc 201 0 rapidxml::xml_document<char>::parse_element<0>
FUNC 60fce bb 0 rapidxml::xml_document<char>::parse_xml_declaration<0>
FUNC 6108a bb 0 rapidxml::xml_document<char>::parse_pi<0>
FUNC 61146 cd 0 rapidxml::xml_document<char>::parse_comment<0>
FUNC 61214 13d 0 rapidxml::xml_document<char>::parse_cdata<0>
FUNC 61352 156 0 rapidxml::xml_document<char>::parse_doctype<0>
FUNC 614a8 6e 0 rapidxml::memory_pool<char>::allocate_raw
FUNC 61516 a 0 std::iterator<std::output_iterator_tag, void, void, void, void>::iterator
FUNC 61520 35 0 std::ostream_iterator<char, char, std::char_traits<char> >::ostream_iterator
FUNC 61556 3c 0 std::ostream_iterator<char, char, std::char_traits<char> >::ostream_iterator
FUNC 61592 5a 0 rapidxml::print<std::ostream_iterator<char, char, std::char_traits<char> >, char>
FUNC 615ec 92 0 std::_Rb_tree<std::basic_string<char, std::char_traits<char>, std::allocator<char> >, std::pair<const std::basic_string<char, std::char_traits<char>, std::allocator<char> >, Config::IntParameter>, std::_Select1st<std::pair<const std::basic_string<char, std::char_traits<char>, std::allocator<char> >, Config::IntParameter> >, std::less<std::basic_string<char, std::char_traits<char>, std::allocator<char> > >, std::allocator<std::pair<const std::basic_string<char, std::char_traits<char>, std::allocator<char> >, Config::IntParameter> > >::_M_lower_bound
FUNC 6167e 92 0 std::_Rb_tree<std::basic_string<char, std::char_traits<char>, std::allocator<char> >, std::pair<const std::basic_string<char, std::char_traits<char>, std::allocator<char> >, Config::StringParameter>, std::_Select1st<std::pair<const std::basic_string<char, std::char_traits<char>, std::allocator<char> >, Config::StringParameter> >, std::less<std::basic_string<char, std::char_traits<char>, std::allocator<char> > >, std::allocator<std::pair<const std::basic_string<char, std::char_traits<char>, std::allocator<char> >, Config::StringParameter> > >::_M_lower_bound
FUNC 61710 1a 0 std::allocator<Config::XmlGroup>::allocator
FUNC 6172a a 0 __gnu_cxx::new_allocator<Config::XmlGroup>::~new_allocator
FUNC 61734 34 0 std::_Destroy_aux<false>::__destroy<Config::XmlGroup*>
FUNC 61768 1a 0 std::allocator<Config::XmlParameter>::allocator
FUNC 61782 a 0 __gnu_cxx::new_allocator<Config::XmlParameter>::~new_allocator
FUNC 6178c 34 0 std::_Destroy_aux<false>::__destroy<Config::XmlParameter*>
FUNC 617c0 1a 0 std::allocator<std::_Rb_tree_node<std::pair<const std::basic_string<char, std::char_traits<char>, std::allocator<char> >, Config::IntParameter> > >::allocator
FUNC 617da 41 0 std::_Rb_tree<std::basic_string<char, std::char_traits<char>, std::allocator<char> >, std::pair<const std::basic_string<char, std::char_traits<char>, std::allocator<char> >, Config::IntParameter>, std::_Select1st<std::pair<const std::basic_string<char, std::char_traits<char>, std::allocator<char> >, Config::IntParameter> >, std::less<std::basic_string<char, std::char_traits<char>, std::allocator<char> > >, std::allocator<std::pair<const std::basic_string<char, std::char_traits<char>, std::allocator<char> >, Config::IntParameter> > >::_Rb_tree_impl<std::less<std::basic_string<char, std::char_traits<char>, std::allocator<char> > >, false>::_M_initialize
FUNC 6181c 3b 0 std::_Rb_tree<std::basic_string<char, std::char_traits<char>, std::allocator<char> >, std::pair<const std::basic_string<char, std::char_traits<char>, std::allocator<char> >, Config::IntParameter>, std::_Select1st<std::pair<const std::basic_string<char, std::char_traits<char>, std::allocator<char> >, Config::IntParameter> >, std::less<std::basic_string<char, std::char_traits<char>, std::allocator<char> > >, std::allocator<std::pair<const std::basic_string<char, std::char_traits<char>, std::allocator<char> >, Config::IntParameter> > >::get_allocator
FUNC 61858 1a 0 std::allocator<std::pair<const std::basic_string<char, std::char_traits<char>, std::allocator<char> >, Config::IntParameter> >::~allocator
FUNC 61872 55 0 std::pair<const std::basic_string<char, std::char_traits<char>, std::allocator<char> >, Config::IntParameter>::~pair
FUNC 618c8 1e 0 __gnu_cxx::new_allocator<std::pair<const std::basic_string<char, std::char_traits<char>, std::allocator<char> >, Config::IntParameter> >::destroy
FUNC 618e6 2a 0 std::_Rb_tree<std::basic_string<char, std::char_traits<char>, std::allocator<char> >, std::pair<const std::basic_string<char, std::char_traits<char>, std::allocator<char> >, Config::IntParameter>, std::_Select1st<std::pair<const std::basic_string<char, std::char_traits<char>, std::allocator<char> >, Config::IntParameter> >, std::less<std::basic_string<char, std::char_traits<char>, std::allocator<char> > >, std::allocator<std::pair<const std::basic_string<char, std::char_traits<char>, std::allocator<char> >, Config::IntParameter> > >::_M_put_node
FUNC 61910 12 0 std::_Rb_tree<std::basic_string<char, std::char_traits<char>, std::allocator<char> >, std::pair<const std::basic_string<char, std::char_traits<char>, std::allocator<char> >, Config::IntParameter>, std::_Select1st<std::pair<const std::basic_string<char, std::char_traits<char>, std::allocator<char> >, Config::IntParameter> >, std::less<std::basic_string<char, std::char_traits<char>, std::allocator<char> > >, std::allocator<std::pair<const std::basic_string<char, std::char_traits<char>, std::allocator<char> >, Config::IntParameter> > >::_S_value
FUNC 61922 bb 0 std::_Rb_tree<std::basic_string<char, std::char_traits<char>, std::allocator<char> >, std::pair<const std::basic_string<char, std::char_traits<char>, std::allocator<char> >, Config::IntParameter>, std::_Select1st<std::pair<const std::basic_string<char, std::char_traits<char>, std::allocator<char> >, Config::IntParameter> >, std::less<std::basic_string<char, std::char_traits<char>, std::allocator<char> > >, std::allocator<std::pair<const std::basic_string<char, std::char_traits<char>, std::allocator<char> >, Config::IntParameter> > >::_M_create_node
FUNC 619dd 12 0 std::_Rb_tree<std::basic_string<char, std::char_traits<char>, std::allocator<char> >, std::pair<const std::basic_string<char, std::char_traits<char>, std::allocator<char> >, Config::IntParameter>, std::_Select1st<std::pair<const std::basic_string<char, std::char_traits<char>, std::allocator<char> >, Config::IntParameter> >, std::less<std::basic_string<char, std::char_traits<char>, std::allocator<char> > >, std::allocator<std::pair<const std::basic_string<char, std::char_traits<char>, std::allocator<char> >, Config::IntParameter> > >::_S_value
FUNC 619f0 12 0 std::_Rb_tree<std::basic_string<char, std::char_traits<char>, std::allocator<char> >, std::pair<const std::basic_string<char, std::char_traits<char>, std::allocator<char> >, Config::IntParameter>, std::_Select1st<std::pair<const std::basic_string<char, std::char_traits<char>, std::allocator<char> >, Config::IntParameter> >, std::less<std::basic_string<char, std::char_traits<char>, std::allocator<char> > >, std::allocator<std::pair<const std::basic_string<char, std::char_traits<char>, std::allocator<char> >, Config::IntParameter> > >::_M_rightmost
FUNC 61a02 12 0 std::_Rb_tree<std::basic_string<char, std::char_traits<char>, std::allocator<char> >, std::pair<const std::basic_string<char, std::char_traits<char>, std::allocator<char> >, Config::IntParameter>, std::_Select1st<std::pair<const std::basic_string<char, std::char_traits<char>, std::allocator<char> >, Config::IntParameter> >, std::less<std::basic_string<char, std::char_traits<char>, std::allocator<char> > >, std::allocator<std::pair<const std::basic_string<char, std::char_traits<char>, std::allocator<char> >, Config::IntParameter> > >::size
FUNC 61a14 12 0 std::_Rb_tree<std::basic_string<char, std::char_traits<char>, std::allocator<char> >, std::pair<const std::basic_string<char, std::char_traits<char>, std::allocator<char> >, Config::IntParameter>, std::_Select1st<std::pair<const std::basic_string<char, std::char_traits<char>, std::allocator<char> >, Config::IntParameter> >, std::less<std::basic_string<char, std::char_traits<char>, std::allocator<char> > >, std::allocator<std::pair<const std::basic_string<char, std::char_traits<char>, std::allocator<char> >, Config::IntParameter> > >::_M_leftmost
FUNC 61a26 28 0 std::_Rb_tree_const_iterator<std::pair<const std::basic_string<char, std::char_traits<char>, std::allocator<char> >, Config::IntParameter> >::operator--
FUNC 61a4e 12 0 std::_Rb_tree<std::basic_string<char, std::char_traits<char>, std::allocator<char> >, std::pair<const std::basic_string<char, std::char_traits<char>, std::allocator<char> >, Config::IntParameter>, std::_Select1st<std::pair<const std::basic_string<char, std::char_traits<char>, std::allocator<char> >, Config::IntParameter> >, std::less<std::basic_string<char, std::char_traits<char>, std::allocator<char> > >, std::allocator<std::pair<const std::basic_string<char, std::char_traits<char>, std::allocator<char> >, Config::IntParameter> > >::_S_right
FUNC 61a60 28 0 std::_Rb_tree_const_iterator<std::pair<const std::basic_string<char, std::char_traits<char>, std::allocator<char> >, Config::IntParameter> >::operator++
FUNC 61a88 1a 0 std::allocator<std::_Rb_tree_node<std::pair<const std::basic_string<char, std::char_traits<char>, std::allocator<char> >, Config::StringParameter> > >::allocator
FUNC 61aa2 41 0 std::_Rb_tree<std::basic_string<char, std::char_traits<char>, std::allocator<char> >, std::pair<const std::basic_string<char, std::char_traits<char>, std::allocator<char> >, Config::StringParameter>, std::_Select1st<std::pair<const std::basic_string<char, std::char_traits<char>, std::allocator<char> >, Config::StringParameter> >, std::less<std::basic_string<char, std::char_traits<char>, std::allocator<char> > >, std::allocator<std::pair<const std::basic_string<char, std::char_traits<char>, std::allocator<char> >, Config::StringParameter> > >::_Rb_tree_impl<std::less<std::basic_string<char, std::char_traits<char>, std::allocator<char> > >, false>::_M_initialize
FUNC 61ae4 3b 0 std::_Rb_tree<std::basic_string<char, std::char_traits<char>, std::allocator<char> >, std::pair<const std::basic_string<char, std::char_traits<char>, std::allocator<char> >, Config::StringParameter>, std::_Select1st<std::pair<const std::basic_string<char, std::char_traits<char>, std::allocator<char> >, Config::StringParameter> >, std::less<std::basic_string<char, std::char_traits<char>, std::allocator<char> > >, std::allocator<std::pair<const std::basic_string<char, std::char_traits<char>, std::allocator<char> >, Config::StringParameter> > >::get_allocator
FUNC 61b20 1a 0 std::allocator<std::pair<const std::basic_string<char, std::char_traits<char>, std::allocator<char> >, Config::StringParameter> >::~allocator
FUNC 61b3a 55 0 std::pair<const std::basic_string<char, std::char_traits<char>, std::allocator<char> >, Config::StringParameter>::~pair
FUNC 61b90 1e 0 __gnu_cxx::new_allocator<std::pair<const std::basic_string<char, std::char_traits<char>, std::allocator<char> >, Config::StringParameter> >::destroy
FUNC 61bae 2a 0 std::_Rb_tree<std::basic_string<char, std::char_traits<char>, std::allocator<char> >, std::pair<const std::basic_string<char, std::char_traits<char>, std::allocator<char> >, Config::StringParameter>, std::_Select1st<std::pair<const std::basic_string<char, std::char_traits<char>, std::allocator<char> >, Config::StringParameter> >, std::less<std::basic_string<char, std::char_traits<char>, std::allocator<char> > >, std::allocator<std::pair<const std::basic_string<char, std::char_traits<char>, std::allocator<char> >, Config::StringParameter> > >::_M_put_node
FUNC 61bd8 12 0 std::_Rb_tree<std::basic_string<char, std::char_traits<char>, std::allocator<char> >, std::pair<const std::basic_string<char, std::char_traits<char>, std::allocator<char> >, Config::StringParameter>, std::_Select1st<std::pair<const std::basic_string<char, std::char_traits<char>, std::allocator<char> >, Config::StringParameter> >, std::less<std::basic_string<char, std::char_traits<char>, std::allocator<char> > >, std::allocator<std::pair<const std::basic_string<char, std::char_traits<char>, std::allocator<char> >, Config::StringParameter> > >::_S_value
FUNC 61bea bb 0 std::_Rb_tree<std::basic_string<char, std::char_traits<char>, std::allocator<char> >, std::pair<const std::basic_string<char, std::char_traits<char>, std::allocator<char> >, Config::StringParameter>, std::_Select1st<std::pair<const std::basic_string<char, std::char_traits<char>, std::allocator<char> >, Config::StringParameter> >, std::less<std::basic_string<char, std::char_traits<char>, std::allocator<char> > >, std::allocator<std::pair<const std::basic_string<char, std::char_traits<char>, std::allocator<char> >, Config::StringParameter> > >::_M_create_node
FUNC 61ca5 12 0 std::_Rb_tree<std::basic_string<char, std::char_traits<char>, std::allocator<char> >, std::pair<const std::basic_string<char, std::char_traits<char>, std::allocator<char> >, Config::StringParameter>, std::_Select1st<std::pair<const std::basic_string<char, std::char_traits<char>, std::allocator<char> >, Config::StringParameter> >, std::less<std::basic_string<char, std::char_traits<char>, std::allocator<char> > >, std::allocator<std::pair<const std::basic_string<char, std::char_traits<char>, std::allocator<char> >, Config::StringParameter> > >::_S_value
FUNC 61cb8 12 0 std::_Rb_tree<std::basic_string<char, std::char_traits<char>, std::allocator<char> >, std::pair<const std::basic_string<char, std::char_traits<char>, std::allocator<char> >, Config::StringParameter>, std::_Select1st<std::pair<const std::basic_string<char, std::char_traits<char>, std::allocator<char> >, Config::StringParameter> >, std::less<std::basic_string<char, std::char_traits<char>, std::allocator<char> > >, std::allocator<std::pair<const std::basic_string<char, std::char_traits<char>, std::allocator<char> >, Config::StringParameter> > >::_M_rightmost
FUNC 61cca 12 0 std::_Rb_tree<std::basic_string<char, std::char_traits<char>, std::allocator<char> >, std::pair<const std::basic_string<char, std::char_traits<char>, std::allocator<char> >, Config::StringParameter>, std::_Select1st<std::pair<const std::basic_string<char, std::char_traits<char>, std::allocator<char> >, Config::StringParameter> >, std::less<std::basic_string<char, std::char_traits<char>, std::allocator<char> > >, std::allocator<std::pair<const std::basic_string<char, std::char_traits<char>, std::allocator<char> >, Config::StringParameter> > >::size
FUNC 61cdc 12 0 std::_Rb_tree<std::basic_string<char, std::char_traits<char>, std::allocator<char> >, std::pair<const std::basic_string<char, std::char_traits<char>, std::allocator<char> >, Config::StringParameter>, std::_Select1st<std::pair<const std::basic_string<char, std::char_traits<char>, std::allocator<char> >, Config::StringParameter> >, std::less<std::basic_string<char, std::char_traits<char>, std::allocator<char> > >, std::allocator<std::pair<const std::basic_string<char, std::char_traits<char>, std::allocator<char> >, Config::StringParameter> > >::_M_leftmost
FUNC 61cee 28 0 std::_Rb_tree_const_iterator<std::pair<const std::basic_string<char, std::char_traits<char>, std::allocator<char> >, Config::StringParameter> >::operator--
FUNC 61d16 12 0 std::_Rb_tree<std::basic_string<char, std::char_traits<char>, std::allocator<char> >, std::pair<const std::basic_string<char, std::char_traits<char>, std::allocator<char> >, Config::StringParameter>, std::_Select1st<std::pair<const std::basic_string<char, std::char_traits<char>, std::allocator<char> >, Config::StringParameter> >, std::less<std::basic_string<char, std::char_traits<char>, std::allocator<char> > >, std::allocator<std::pair<const std::basic_string<char, std::char_traits<char>, std::allocator<char> >, Config::StringParameter> > >::_S_right
FUNC 61d28 28 0 std::_Rb_tree_const_iterator<std::pair<const std::basic_string<char, std::char_traits<char>, std::allocator<char> >, Config::StringParameter> >::operator++
FUNC 61d50 5c 0 __gnu_cxx::new_allocator<Config::XmlGroup>::allocate
FUNC 61dac 2d 0 std::uninitialized_copy<__gnu_cxx::__normal_iterator<const Config::XmlGroup*, std::vector<Config::XmlGroup, std::allocator<Config::XmlGroup> > >, Config::XmlGroup*>
FUNC 61dd9 1d 0 std::__niter_base<__gnu_cxx::__normal_iterator<const Config::XmlGroup*, std::vector<Config::XmlGroup, std::allocator<Config::XmlGroup> > >, true>::__b
FUNC 61df6 1d 0 std::__niter_base<__gnu_cxx::__normal_iterator<Config::XmlGroup*, std::vector<Config::XmlGroup, std::allocator<Config::XmlGroup> > >, true>::__b
FUNC 61e13 31 0 std::__copy_move_a<false, const Config::XmlGroup*, Config::XmlGroup*>
FUNC 61e44 4b 0 std::_Destroy_aux<false>::__destroy<__gnu_cxx::__normal_iterator<Config::XmlGroup*, std::vector<Config::XmlGroup, std::allocator<Config::XmlGroup> > > >
FUNC 61e8f e 0 std::__niter_base<Config::XmlGroup*, false>::__b
FUNC 61e9d 31 0 std::__copy_move_a<false, Config::XmlGroup*, Config::XmlGroup*>
FUNC 61ece 92 0 std::__uninitialized_copy<false>::uninitialized_copy<Config::XmlGroup*, Config::XmlGroup*>
FUNC 61f60 5c 0 __gnu_cxx::new_allocator<Config::XmlParameter>::allocate
FUNC 61fbc 2d 0 std::uninitialized_copy<__gnu_cxx::__normal_iterator<const Config::XmlParameter*, std::vector<Config::XmlParameter, std::allocator<Config::XmlParameter> > >, Config::XmlParameter*>
FUNC 61fe9 1d 0 std::__niter_base<__gnu_cxx::__normal_iterator<const Config::XmlParameter*, std::vector<Config::XmlParameter, std::allocator<Config::XmlParameter> > >, true>::__b
FUNC 62006 1d 0 std::__niter_base<__gnu_cxx::__normal_iterator<Config::XmlParameter*, std::vector<Config::XmlParameter, std::allocator<Config::XmlParameter> > >, true>::__b
FUNC 62023 31 0 std::__copy_move_a<false, const Config::XmlParameter*, Config::XmlParameter*>
FUNC 62054 4b 0 std::_Destroy_aux<false>::__destroy<__gnu_cxx::__normal_iterator<Config::XmlParameter*, std::vector<Config::XmlParameter, std::allocator<Config::XmlParameter> > > >
FUNC 6209f e 0 std::__niter_base<Config::XmlParameter*, false>::__b
FUNC 620ad 31 0 std::__copy_move_a<false, Config::XmlParameter*, Config::XmlParameter*>
FUNC 620de 92 0 std::__uninitialized_copy<false>::uninitialized_copy<Config::XmlParameter*, Config::XmlParameter*>
FUNC 62170 53d 0 std::vector<char, std::allocator<char> >::_M_fill_insert
FUNC 626ad 45 0 rapidxml::xml_document<char>::skip<rapidxml::xml_document<char>::node_name_pred, 0>
FUNC 626f2 2eb 0 rapidxml::xml_document<char>::parse_node_attributes<0>
FUNC 629de 18e 0 rapidxml::xml_document<char>::parse_node_contents<0>
FUNC 62b6c 2a 0 rapidxml::xml_base<char>::value
FUNC 62b96 26 0 rapidxml::xml_base<char>::value_size
FUNC 62bbc 3ca 0 rapidxml::internal::print_node<std::ostream_iterator<char, char, std::char_traits<char> >, char>
FUNC 62f86 a 0 __gnu_cxx::new_allocator<Config::XmlGroup>::new_allocator
FUNC 62f90 1a 0 std::_Destroy<Config::XmlGroup>
FUNC 62faa a 0 __gnu_cxx::new_allocator<Config::XmlParameter>::new_allocator
FUNC 62fb4 1a 0 std::_Destroy<Config::XmlParameter>
FUNC 62fce a 0 __gnu_cxx::new_allocator<std::_Rb_tree_node<std::pair<const std::basic_string<char, std::char_traits<char>, std::allocator<char> >, Config::IntParameter> > >::new_allocator
FUNC 62fd8 e 0 std::_Rb_tree<std::basic_string<char, std::char_traits<char>, std::allocator<char> >, std::pair<const std::basic_string<char, std::char_traits<char>, std::allocator<char> >, Config::IntParameter>, std::_Select1st<std::pair<const std::basic_string<char, std::char_traits<char>, std::allocator<char> >, Config::IntParameter> >, std::less<std::basic_string<char, std::char_traits<char>, std::allocator<char> > >, std::allocator<std::pair<const std::basic_string<char, std::char_traits<char>, std::allocator<char> >, Config::IntParameter> > >::_M_get_Node_allocator
FUNC 62fe6 1e 0 std::allocator<std::pair<const std::basic_string<char, std::char_traits<char>, std::allocator<char> >, Config::IntParameter> >::allocator<std::_Rb_tree_node<std::pair<const std::basic_string<char, std::char_traits<char>, std::allocator<char> >, Config::IntParameter> > >
FUNC 63004 a 0 __gnu_cxx::new_allocator<std::pair<const std::basic_string<char, std::char_traits<char>, std::allocator<char> >, Config::IntParameter> >::~new_allocator
FUNC 6300e 22 0 __gnu_cxx::new_allocator<std::_Rb_tree_node<std::pair<const std::basic_string<char, std::char_traits<char>, std::allocator<char> >, Config::IntParameter> > >::deallocate
FUNC 63030 24 0 std::_Rb_tree<std::basic_string<char, std::char_traits<char>, std::allocator<char> >, std::pair<const std::basic_string<char, std::char_traits<char>, std::allocator<char> >, Config::IntParameter>, std::_Select1st<std::pair<const std::basic_string<char, std::char_traits<char>, std::allocator<char> >, Config::IntParameter> >, std::less<std::basic_string<char, std::char_traits<char>, std::allocator<char> > >, std::allocator<std::pair<const std::basic_string<char, std::char_traits<char>, std::allocator<char> >, Config::IntParameter> > >::_M_get_node
FUNC 63054 6b 0 std::pair<const std::basic_string<char, std::char_traits<char>, std::allocator<char> >, Config::IntParameter>::pair
FUNC 630c0 77 0 __gnu_cxx::new_allocator<std::pair<const std::basic_string<char, std::char_traits<char>, std::allocator<char> >, Config::IntParameter> >::construct
FUNC 63138 a 0 __gnu_cxx::new_allocator<std::_Rb_tree_node<std::pair<const std::basic_string<char, std::char_traits<char>, std::allocator<char> >, Config::StringParameter> > >::new_allocator
FUNC 63142 e 0 std::_Rb_tree<std::basic_string<char, std::char_traits<char>, std::allocator<char> >, std::pair<const std::basic_string<char, std::char_traits<char>, std::allocator<char> >, Config::StringParameter>, std::_Select1st<std::pair<const std::basic_string<char, std::char_traits<char>, std::allocator<char> >, Config::StringParameter> >, std::less<std::basic_string<char, std::char_traits<char>, std::allocator<char> > >, std::allocator<std::pair<const std::basic_string<char, std::char_traits<char>, std::allocator<char> >, Config::StringParameter> > >::_M_get_Node_allocator
FUNC 63150 1e 0 std::allocator<std::pair<const std::basic_string<char, std::char_traits<char>, std::allocator<char> >, Config::StringParameter> >::allocator<std::_Rb_tree_node<std::pair<const std::basic_string<char, std::char_traits<char>, std::allocator<char> >, Config::StringParameter> > >
FUNC 6316e a 0 __gnu_cxx::new_allocator<std::pair<const std::basic_string<char, std::char_traits<char>, std::allocator<char> >, Config::StringParameter> >::~new_allocator
FUNC 63178 22 0 __gnu_cxx::new_allocator<std::_Rb_tree_node<std::pair<const std::basic_string<char, std::char_traits<char>, std::allocator<char> >, Config::StringParameter> > >::deallocate
FUNC 6319a 24 0 std::_Rb_tree<std::basic_string<char, std::char_traits<char>, std::allocator<char> >, std::pair<const std::basic_string<char, std::char_traits<char>, std::allocator<char> >, Config::StringParameter>, std::_Select1st<std::pair<const std::basic_string<char, std::char_traits<char>, std::allocator<char> >, Config::StringParameter> >, std::less<std::basic_string<char, std::char_traits<char>, std::allocator<char> > >, std::allocator<std::pair<const std::basic_string<char, std::char_traits<char>, std::allocator<char> >, Config::StringParameter> > >::_M_get_node
FUNC 631be 6b 0 std::pair<const std::basic_string<char, std::char_traits<char>, std::allocator<char> >, Config::StringParameter>::pair
FUNC 6322a 77 0 __gnu_cxx::new_allocator<std::pair<const std::basic_string<char, std::char_traits<char>, std::allocator<char> >, Config::StringParameter> >::construct
FUNC 632a2 14 0 __gnu_cxx::new_allocator<Config::XmlGroup>::max_size
FUNC 632b6 ac 0 std::__uninitialized_copy<false>::uninitialized_copy<__gnu_cxx::__normal_iterator<const Config::XmlGroup*, std::vector<Config::XmlGroup, std::allocator<Config::XmlGroup> > >, Config::XmlGroup*>
FUNC 63362 e 0 __gnu_cxx::__normal_iterator<const Config::XmlGroup*, std::vector<Config::XmlGroup, std::allocator<Config::XmlGroup> > >::base
FUNC 63370 e 0 __gnu_cxx::__normal_iterator<Config::XmlGroup*, std::vector<Config::XmlGroup, std::allocator<Config::XmlGroup> > >::base
FUNC 6337e 74 0 std::__copy_move<false, false, std::random_access_iterator_tag>::__copy_m<const Config::XmlGroup*, Config::XmlGroup*>
FUNC 633f2 3c 0 __gnu_cxx::operator!=<Config::XmlGroup*, std::vector<Config::XmlGroup, std::allocator<Config::XmlGroup> > >
FUNC 6342e 20 0 __gnu_cxx::__normal_iterator<Config::XmlGroup*, std::vector<Config::XmlGroup, std::allocator<Config::XmlGroup> > >::operator++
FUNC 6344e 11 0 __gnu_cxx::__normal_iterator<Config::XmlGroup*, std::vector<Config::XmlGroup, std::allocator<Config::XmlGroup> > >::operator*
FUNC 6345f 74 0 std::__copy_move<false, false, std::random_access_iterator_tag>::__copy_m<Config::XmlGroup*, Config::XmlGroup*>
FUNC 634d4 a3 0 Config::XmlGroup::XmlGroup
FUNC 63577 73 0 std::_Construct<Config::XmlGroup, Config::XmlGroup>
FUNC 635ea 14 0 __gnu_cxx::new_allocator<Config::XmlParameter>::max_size
FUNC 635fe ac 0 std::__uninitialized_copy<false>::uninitialized_copy<__gnu_cxx::__normal_iterator<const Config::XmlParameter*, std::vector<Config::XmlParameter, std::allocator<Config::XmlParameter> > >, Config::XmlParameter*>
FUNC 636aa e 0 __gnu_cxx::__normal_iterator<const Config::XmlParameter*, std::vector<Config::XmlParameter, std::allocator<Config::XmlParameter> > >::base
FUNC 636b8 e 0 __gnu_cxx::__normal_iterator<Config::XmlParameter*, std::vector<Config::XmlParameter, std::allocator<Config::XmlParameter> > >::base
FUNC 636c6 cb 0 Config::XmlParameter::operator=
FUNC 63791 74 0 std::__copy_move<false, false, std::random_access_iterator_tag>::__copy_m<const Config::XmlParameter*, Config::XmlParameter*>
FUNC 63805 3c 0 __gnu_cxx::operator!=<Config::XmlParameter*, std::vector<Config::XmlParameter, std::allocator<Config::XmlParameter> > >
FUNC 63842 20 0 __gnu_cxx::__normal_iterator<Config::XmlParameter*, std::vector<Config::XmlParameter, std::allocator<Config::XmlParameter> > >::operator++
FUNC 63862 11 0 __gnu_cxx::__normal_iterator<Config::XmlParameter*, std::vector<Config::XmlParameter, std::allocator<Config::XmlParameter> > >::operator*
FUNC 63873 74 0 std::__copy_move<false, false, std::random_access_iterator_tag>::__copy_m<Config::XmlParameter*, Config::XmlParameter*>
FUNC 638e8 186 0 Config::XmlParameter::XmlParameter
FUNC 63a6e 73 0 std::_Construct<Config::XmlParameter, Config::XmlParameter>
FUNC 63ae1 42 0 __gnu_cxx::operator-<char*, std::vector<char, std::allocator<char> > >
FUNC 63b23 3b 0 std::__uninitialized_move_a<char*, char*, std::allocator<char> >
FUNC 63b5e 46 0 std::copy_backward<char*, char*>
FUNC 63ba4 46 0 std::fill<char*, char>
FUNC 63bea ca 0 std::vector<char, std::allocator<char> >::_M_check_len
FUNC 63cb4 1b 0 rapidxml::xml_document<char>::node_name_pred::test
FUNC 63ccf 1b 0 rapidxml::xml_document<char>::attribute_name_pred::test
FUNC 63cea 45 0 rapidxml::xml_document<char>::skip<rapidxml::xml_document<char>::attribute_name_pred, 0>
FUNC 63d30 e4 0 rapidxml::memory_pool<char>::allocate_attribute
FUNC 63e14 c6 0 rapidxml::xml_node<char>::append_attribute
FUNC 63eda 372 0 rapidxml::xml_document<char>::skip_and_expand_character_refs<rapidxml::xml_document<char>::attribute_value_pred<'\''>, rapidxml::xml_document<char>::attribute_value_pure_pred<'\''>, 0>
FUNC 6424c 372 0 rapidxml::xml_document<char>::skip_and_expand_character_refs<rapidxml::xml_document<char>::attribute_value_pred<'\"'>, rapidxml::xml_document<char>::attribute_value_pure_pred<'\"'>, 0>
FUNC 645be 100 0 rapidxml::xml_document<char>::parse_and_append_data<0>
FUNC 646be c9 0 rapidxml::internal::print_children<std::ostream_iterator<char, char, std::char_traits<char> >, char>
FUNC 64787 680 0 rapidxml::internal::print_element_node<std::ostream_iterator<char, char, std::char_traits<char> >, char>
FUNC 64e07 121 0 rapidxml::internal::print_data_node<std::ostream_iterator<char, char, std::char_traits<char> >, char>
FUNC 64f28 32c 0 rapidxml::internal::print_cdata_node<std::ostream_iterator<char, char, std::char_traits<char> >, char>
FUNC 65254 204 0 rapidxml::internal::print_declaration_node<std::ostream_iterator<char, char, std::char_traits<char> >, char>
FUNC 65458 255 0 rapidxml::internal::print_comment_node<std::ostream_iterator<char, char, std::char_traits<char> >, char>
FUNC 656ad 301 0 rapidxml::internal::print_doctype_node<std::ostream_iterator<char, char, std::char_traits<char> >, char>
FUNC 659ae 2cb 0 rapidxml::internal::print_pi_node<std::ostream_iterator<char, char, std::char_traits<char> >, char>
FUNC 65c7a e 0 std::ostream_iterator<char, char, std::char_traits<char> >::operator++
FUNC 65c88 e 0 std::ostream_iterator<char, char, std::char_traits<char> >::operator*
FUNC 65c96 58 0 std::ostream_iterator<char, char, std::char_traits<char> >::operator=
FUNC 65cee a 0 __gnu_cxx::new_allocator<std::pair<const std::basic_string<char, std::char_traits<char>, std::allocator<char> >, Config::IntParameter> >::new_allocator
FUNC 65cf8 4e 0 __gnu_cxx::new_allocator<std::_Rb_tree_node<std::pair<const std::basic_string<char, std::char_traits<char>, std::allocator<char> >, Config::IntParameter> > >::allocate
FUNC 65d46 a 0 __gnu_cxx::new_allocator<std::pair<const std::basic_string<char, std::char_traits<char>, std::allocator<char> >, Config::StringParameter> >::new_allocator
FUNC 65d50 4e 0 __gnu_cxx::new_allocator<std::_Rb_tree_node<std::pair<const std::basic_string<char, std::char_traits<char>, std::allocator<char> >, Config::StringParameter> > >::allocate
FUNC 65d9e 3c 0 __gnu_cxx::operator!=<const Config::XmlGroup*, std::vector<Config::XmlGroup, std::allocator<Config::XmlGroup> > >
FUNC 65dda 20 0 __gnu_cxx::__normal_iterator<const Config::XmlGroup*, std::vector<Config::XmlGroup, std::allocator<Config::XmlGroup> > >::operator++
FUNC 65dfa 11 0 __gnu_cxx::__normal_iterator<const Config::XmlGroup*, std::vector<Config::XmlGroup, std::allocator<Config::XmlGroup> > >::operator*
FUNC 65e0c b9 0 std::vector<Config::XmlGroup, std::allocator<Config::XmlGroup> >::vector
FUNC 65ec6 b9 0 std::vector<Config::XmlParameter, std::allocator<Config::XmlParameter> >::vector
FUNC 65f7f 3c 0 __gnu_cxx::operator!=<const Config::XmlParameter*, std::vector<Config::XmlParameter, std::allocator<Config::XmlParameter> > >
FUNC 65fbc 20 0 __gnu_cxx::__normal_iterator<const Config::XmlParameter*, std::vector<Config::XmlParameter, std::allocator<Config::XmlParameter> > >::operator++
FUNC 65fdc 11 0 __gnu_cxx::__normal_iterator<const Config::XmlParameter*, std::vector<Config::XmlParameter, std::allocator<Config::XmlParameter> > >::operator*
FUNC 65fed 58 0 std::__copy_move_backward_a2<false, char*, char*>
FUNC 66046 22 0 std::vector<char, std::allocator<char> >::max_size
FUNC 66068 1a 0 rapidxml::xml_attribute<char>::xml_attribute
FUNC 66082 45 0 rapidxml::xml_document<char>::skip<rapidxml::xml_document<char>::attribute_value_pure_pred<'\''>, 0>
FUNC 660c7 1b 0 attribute_value_pred<'\''>::test
FUNC 660e2 1b1 0 rapidxml::xml_document<char>::insert_coded_character<0>
FUNC 66293 45 0 rapidxml::xml_document<char>::skip<rapidxml::xml_document<char>::attribute_value_pure_pred<'\"'>, 0>
FUNC 662d8 1b 0 attribute_value_pred<'\"'>::test
FUNC 662f3 372 0 rapidxml::xml_document<char>::skip_and_expand_character_refs<rapidxml::xml_document<char>::text_pred, rapidxml::xml_document<char>::text_pure_no_ws_pred, 0>
FUNC 66665 79 0 rapidxml::internal::fill_chars<std::ostream_iterator<char, char, std::char_traits<char> >, char>
FUNC 666de 79 0 rapidxml::internal::copy_chars<std::ostream_iterator<char, char, std::char_traits<char> >, char>
FUNC 66757 3ac 0 rapidxml::internal::print_attributes<std::ostream_iterator<char, char, std::char_traits<char> >, char>
FUNC 66b03 53e 0 rapidxml::internal::copy_and_expand_chars<std::ostream_iterator<char, char, std::char_traits<char> >, char>
FUNC 67042 14 0 __gnu_cxx::new_allocator<std::_Rb_tree_node<std::pair<const std::basic_string<char, std::char_traits<char>, std::allocator<char> >, Config::IntParameter> > >::max_size
FUNC 67056 14 0 __gnu_cxx::new_allocator<std::_Rb_tree_node<std::pair<const std::basic_string<char, std::char_traits<char>, std::allocator<char> >, Config::StringParameter> > >::max_size
FUNC 6706a e 0 std::_Vector_base<Config::XmlGroup, std::allocator<Config::XmlGroup> >::_M_get_Tp_allocator
FUNC 67078 a6 0 std::_Vector_base<Config::XmlGroup, std::allocator<Config::XmlGroup> >::_Vector_base
FUNC 6711e e 0 std::_Vector_base<Config::XmlParameter, std::allocator<Config::XmlParameter> >::_M_get_Tp_allocator
FUNC 6712c a6 0 std::_Vector_base<Config::XmlParameter, std::allocator<Config::XmlParameter> >::_Vector_base
FUNC 671d2 31 0 std::__copy_move_backward_a<false, char*, char*>
FUNC 67204 e 0 std::_Vector_base<char, std::allocator<char> >::_M_get_Tp_allocator
FUNC 67212 1b 0 attribute_value_pure_pred<'\''>::test
FUNC 6722d 1b 0 attribute_value_pure_pred<'\"'>::test
FUNC 67248 1b 0 rapidxml::xml_document<char>::text_pred::test
FUNC 67263 45 0 rapidxml::xml_document<char>::skip<rapidxml::xml_document<char>::text_pure_no_ws_pred, 0>
FUNC 672a8 11 0 std::ostream_iterator<char, char, std::char_traits<char> >::operator++
FUNC 672ba d0 0 rapidxml::xml_attribute<char>::next_attribute
FUNC 6738a 40 0 rapidxml::internal::find_char<char, '\"'>
FUNC 673ca 48 0 std::_Vector_base<Config::XmlGroup, std::allocator<Config::XmlGroup> >::_Vector_impl::_Vector_impl
FUNC 67412 48 0 std::_Vector_base<Config::XmlParameter, std::allocator<Config::XmlParameter> >::_Vector_impl::_Vector_impl
FUNC 6745a 54 0 std::__copy_move_backward<false, true, std::random_access_iterator_tag>::__copy_move_b<char>
FUNC 674ae 1b 0 rapidxml::xml_document<char>::text_pure_no_ws_pred::test
FUNC 674ca 25 0 std::allocator<Config::XmlGroup>::allocator
FUNC 674f0 25 0 std::allocator<Config::XmlParameter>::allocator
FUNC 67516 e 0 __gnu_cxx::new_allocator<Config::XmlGroup>::new_allocator
FUNC 67524 e 0 __gnu_cxx::new_allocator<Config::XmlParameter>::new_allocator
FUNC 67532 3a 0 boost::detail::sp_counted_impl_p<Config::ConfigCenter>::~sp_counted_impl_p
FUNC 6756c 26 0 boost::detail::sp_counted_impl_p<Config::ConfigCenter>::~sp_counted_impl_p
FUNC 67592 1e 0 boost::detail::sp_counted_impl_p<Config::ConfigCenter>::dispose
FUNC 675b0 13 0 boost::detail::sp_counted_impl_p<Config::ConfigCenter>::get_deleter
FUNC 675ca 6c 0 boost::exception_detail::clone_impl<boost::exception_detail::error_info_injector<boost::condition_error> >::clone
FUNC 6763c 53 0 boost::exception_detail::clone_impl<boost::exception_detail::error_info_injector<boost::condition_error> >::rethrow
FUNC 67690 e5 0 Config::IntParameter::IntParameter
FUNC 67776 113 0 Config::IntParameter::IntParameter
FUNC 6788a 77 0 Config::IntParameter::~IntParameter
FUNC 67902 40 0 Config::IntParameter::get
FUNC 67942 190 0 Config::IntParameter::set
FUNC 67ad2 48e 0 Config::IntParameter::set
FUNC 67f60 1d9 0 Config::IntParameter::setRange
FUNC 6813a 53 0 Config::IntParameter::setRange
FUNC 6818e 8d 0 Config::IntParameter::registerWatcher
FUNC 6821c 7a 0 Config::IntParameter::unregisterWatcher
FUNC 68296 181 0 __static_initialization_and_destruction_0
FUNC 68417 15 0 _GLOBAL__I__ZN6Config12IntParameterC2ERKSs
FUNC 6842c 15 0 boost::function_base::function_base
FUNC 68442 17 0 boost::function_base::empty
FUNC 6845a 14 0 boost::function_base::has_trivial_copy_and_destroy
FUNC 6846e ab 0 boost::bad_function_call::bad_function_call
FUNC 6851a f1 0 boost::shared_mutex::lock_upgrade
FUNC 6860c 70 0 boost::shared_mutex::unlock_upgrade
FUNC 6867c d7 0 boost::shared_mutex::unlock_upgrade_and_lock
FUNC 68754 64 0 boost::shared_mutex::unlock_and_lock_upgrade
FUNC 687b8 e 0 Config::IntParameter::_getName
FUNC 687c6 1a 0 std::map<void*, boost::function<void(int)>, std::less<void*>, std::allocator<std::pair<void* const, boost::function<void(int)> > > >::~map
FUNC 687e0 76 0 std::runtime_error::runtime_error
FUNC 68856 3a 0 boost::bad_function_call::~bad_function_call
FUNC 68890 26 0 boost::bad_function_call::~bad_function_call
FUNC 688b6 1a 0 std::map<void*, boost::function<void(int)>, std::less<void*>, std::allocator<std::pair<void* const, boost::function<void(int)> > > >::map
FUNC 688d0 1a 0 std::_Rb_tree<void*, std::pair<void* const, boost::function<void(int)> >, std::_Select1st<std::pair<void* const, boost::function<void(int)> > >, std::less<void*>, std::allocator<std::pair<void* const, boost::function<void(int)> > > >::_Rb_tree_impl<std::less<void*>, false>::~_Rb_tree_impl
FUNC 688ea 63 0 std::_Rb_tree<void*, std::pair<void* const, boost::function<void(int)> >, std::_Select1st<std::pair<void* const, boost::function<void(int)> > >, std::less<void*>, std::allocator<std::pair<void* const, boost::function<void(int)> > > >::~_Rb_tree
FUNC 6894e 31 0 boost::upgrade_lock<boost::shared_mutex>::upgrade_lock
FUNC 68980 2d 0 boost::upgrade_lock<boost::shared_mutex>::~upgrade_lock
FUNC 689ae 52 0 boost::upgrade_to_unique_lock<boost::shared_mutex>::upgrade_to_unique_lock
FUNC 68a00 91 0 boost::upgrade_to_unique_lock<boost::shared_mutex>::~upgrade_to_unique_lock
FUNC 68a92 1a 0 std::map<void*, boost::function<void(int)>, std::less<void*>, std::allocator<std::pair<void* const, boost::function<void(int)> > > >::begin
FUNC 68aac 1a 0 std::map<void*, boost::function<void(int)>, std::less<void*>, std::allocator<std::pair<void* const, boost::function<void(int)> > > >::end
FUNC 68ac6 22 0 std::_Rb_tree_iterator<std::pair<void* const, boost::function<void(int)> > >::operator!=
FUNC 68ae8 36 0 std::_Rb_tree_iterator<std::pair<void* const, boost::function<void(int)> > >::operator++
FUNC 68b1e 15 0 std::_Rb_tree_iterator<std::pair<void* const, boost::function<void(int)> > >::operator->
FUNC 68b34 84 0 boost::function1<void, int>::operator()
FUNC 68bb8 1a 0 boost::function<void(int)>::~function
FUNC 68bd2 1e 0 std::pair<void* const, boost::function<void(int)> >::~pair
FUNC 68bf0 161 0 std::map<void*, boost::function<void(int)>, std::less<void*>, std::allocator<std::pair<void* const, boost::function<void(int)> > > >::operator[]
FUNC 68d52 73 0 boost::function<void(int)>::operator=
FUNC 68dc6 25 0 std::map<void*, boost::function<void(int)>, std::less<void*>, std::allocator<std::pair<void* const, boost::function<void(int)> > > >::erase
FUNC 68dec 30 0 boost::bad_function_call::bad_function_call
FUNC 68e1c 80 0 boost::exception_detail::error_info_injector<boost::bad_function_call>::error_info_injector
FUNC 68e9c 63 0 boost::exception_detail::clone_impl<boost::exception_detail::error_info_injector<boost::bad_function_call> >::clone_impl
FUNC 68eff a2 0 boost::throw_exception<boost::bad_function_call>
FUNC 68fa2 1a 0 std::_Rb_tree<void*, std::pair<void* const, boost::function<void(int)> >, std::_Select1st<std::pair<void* const, boost::function<void(int)> > >, std::less<void*>, std::allocator<std::pair<void* const, boost::function<void(int)> > > >::_Rb_tree
FUNC 68fbc 1a 0 std::allocator<std::_Rb_tree_node<std::pair<void* const, boost::function<void(int)> > > >::~allocator
FUNC 68fd6 69 0 std::_Rb_tree<void*, std::pair<void* const, boost::function<void(int)> >, std::_Select1st<std::pair<void* const, boost::function<void(int)> > >, std::less<void*>, std::allocator<std::pair<void* const, boost::function<void(int)> > > >::_M_erase
FUNC 69040 12 0 std::_Rb_tree<void*, std::pair<void* const, boost::function<void(int)> >, std::_Select1st<std::pair<void* const, boost::function<void(int)> > >, std::less<void*>, std::allocator<std::pair<void* const, boost::function<void(int)> > > >::_M_begin
FUNC 69052 76 0 boost::upgrade_lock<boost::shared_mutex>::lock
FUNC 690c8 12 0 boost::upgrade_lock<boost::shared_mutex>::owns_lock
FUNC 690da 19 0 boost::detail::thread_move_t<boost::upgrade_lock<boost::shared_mutex> >::thread_move_t
FUNC 690f3 e 0 boost::move<boost::upgrade_lock<boost::shared_mutex> >
FUNC 69102 6a 0 boost::unique_lock<boost::shared_mutex>::unique_lock
FUNC 6916c 19 0 boost::detail::thread_move_t<boost::unique_lock<boost::shared_mutex> >::thread_move_t
FUNC 69185 e 0 boost::move<boost::unique_lock<boost::shared_mutex> >
FUNC 69194 74 0 boost::upgrade_lock<boost::shared_mutex>::operator=
FUNC 69208 2c 0 std::_Rb_tree<void*, std::pair<void* const, boost::function<void(int)> >, std::_Select1st<std::pair<void* const, boost::function<void(int)> > >, std::less<void*>, std::allocator<std::pair<void* const, boost::function<void(int)> > > >::begin
FUNC 69234 2c 0 std::_Rb_tree<void*, std::pair<void* const, boost::function<void(int)> >, std::_Select1st<std::pair<void* const, boost::function<void(int)> > >, std::less<void*>, std::allocator<std::pair<void* const, boost::function<void(int)> > > >::end
FUNC 69260 15 0 boost::function1<void, int>::get_vtable
FUNC 69276 25 0 std::map<void*, boost::function<void(int)>, std::less<void*>, std::allocator<std::pair<void* const, boost::function<void(int)> > > >::lower_bound
FUNC 6929c 1a 0 std::map<void*, boost::function<void(int)>, std::less<void*>, std::allocator<std::pair<void* const, boost::function<void(int)> > > >::key_comp
FUNC 692b6 15 0 std::_Rb_tree_iterator<std::pair<void* const, boost::function<void(int)> > >::operator*
FUNC 692cc 26 0 std::less<void*>::operator()
FUNC 692f2 22 0 std::_Rb_tree_iterator<std::pair<void* const, boost::function<void(int)> > >::operator==
FUNC 69314 1a 0 boost::function<void(int)>::function
FUNC 6932e 1a 0 boost::function1<void, int>::~function1
FUNC 69348 3b 0 std::pair<void* const, boost::function<void(int)> >::pair
FUNC 69384 40 0 std::map<void*, boost::function<void(int)>, std::less<void*>, std::allocator<std::pair<void* const, boost::function<void(int)> > > >::insert
FUNC 693c4 25 0 boost::function<void(int)>::function
FUNC 693ea 9b 0 boost::function1<void, int>::swap
FUNC 69486 83 0 std::_Rb_tree<void*, std::pair<void* const, boost::function<void(int)> >, std::_Select1st<std::pair<void* const, boost::function<void(int)> > >, std::less<void*>, std::allocator<std::pair<void* const, boost::function<void(int)> > > >::erase
FUNC 69509 2f 0 boost::enable_error_info<boost::bad_function_call>
FUNC 69538 93 0 boost::exception_detail::error_info_injector<boost::bad_function_call>::~error_info_injector
FUNC 695da 26 0 boost::exception_detail::error_info_injector<boost::bad_function_call>::~error_info_injector
FUNC 69600 2f 0 boost::enable_current_exception<boost::exception_detail::error_info_injector<boost::bad_function_call> >
FUNC 69630 7a 0 boost::exception_detail::clone_impl<boost::exception_detail::error_info_injector<boost::bad_function_call> >::~clone_impl
FUNC 696c8 26 0 boost::exception_detail::clone_impl<boost::exception_detail::error_info_injector<boost::bad_function_call> >::~clone_impl
FUNC 696ee 61 0 std::_Rb_tree<void*, std::pair<void* const, boost::function<void(int)> >, std::_Select1st<std::pair<void* const, boost::function<void(int)> > >, std::less<void*>, std::allocator<std::pair<void* const, boost::function<void(int)> > > >::_Rb_tree_impl<std::less<void*>, false>::_Rb_tree_impl
FUNC 69750 a 0 __gnu_cxx::new_allocator<std::_Rb_tree_node<std::pair<void* const, boost::function<void(int)> > > >::~new_allocator
FUNC 6975a 12 0 std::_Rb_tree<void*, std::pair<void* const, boost::function<void(int)> >, std::_Select1st<std::pair<void* const, boost::function<void(int)> > >, std::less<void*>, std::allocator<std::pair<void* const, boost::function<void(int)> > > >::_S_right
FUNC 6976c 12 0 std::_Rb_tree<void*, std::pair<void* const, boost::function<void(int)> >, std::_Select1st<std::pair<void* const, boost::function<void(int)> > >, std::less<void*>, std::allocator<std::pair<void* const, boost::function<void(int)> > > >::_S_left
FUNC 6977e 86 0 std::_Rb_tree<void*, std::pair<void* const, boost::function<void(int)> >, std::_Select1st<std::pair<void* const, boost::function<void(int)> > >, std::less<void*>, std::allocator<std::pair<void* const, boost::function<void(int)> > > >::_M_destroy_node
FUNC 69804 11 0 boost::detail::thread_move_t<boost::upgrade_lock<boost::shared_mutex> >::operator->
FUNC 69816 7d 0 boost::upgrade_lock<boost::shared_mutex>::upgrade_lock
FUNC 69894 40 0 boost::upgrade_lock<boost::shared_mutex>::swap
FUNC 698d4 19 0 std::_Rb_tree_iterator<std::pair<void* const, boost::function<void(int)> > >::_Rb_tree_iterator
FUNC 698ee 53 0 std::_Rb_tree<void*, std::pair<void* const, boost::function<void(int)> >, std::_Select1st<std::pair<void* const, boost::function<void(int)> > >, std::less<void*>, std::allocator<std::pair<void* const, boost::function<void(int)> > > >::lower_bound
FUNC 69942 a 0 std::_Rb_tree<void*, std::pair<void* const, boost::function<void(int)> >, std::_Select1st<std::pair<void* const, boost::function<void(int)> > >, std::less<void*>, std::allocator<std::pair<void* const, boost::function<void(int)> > > >::key_comp
FUNC 6994c a 0 std::unary_function<int, void>::unary_function
FUNC 69956 26 0 boost::function1<void, int>::function1
FUNC 6997c 5d 0 boost::function1<void, int>::clear
FUNC 699da 1c 0 std::_Rb_tree_const_iterator<std::pair<void* const, boost::function<void(int)> > >::_Rb_tree_const_iterator
FUNC 699f6 4c0 0 std::_Rb_tree<void*, std::pair<void* const, boost::function<void(int)> >, std::_Select1st<std::pair<void* const, boost::function<void(int)> > >, std::less<void*>, std::allocator<std::pair<void* const, boost::function<void(int)> > > >::_M_insert_unique_
FUNC 69eb6 3d 0 boost::function1<void, int>::function1
FUNC 69ef4 f5 0 boost::function1<void, int>::move_assign
FUNC 69fea 204 0 std::_Rb_tree<void*, std::pair<void* const, boost::function<void(int)> >, std::_Select1st<std::pair<void* const, boost::function<void(int)> > >, std::less<void*>, std::allocator<std::pair<void* const, boost::function<void(int)> > > >::equal_range
FUNC 6a1ee 12 0 std::_Rb_tree<void*, std::pair<void* const, boost::function<void(int)> >, std::_Select1st<std::pair<void* const, boost::function<void(int)> > >, std::less<void*>, std::allocator<std::pair<void* const, boost::function<void(int)> > > >::size
FUNC 6a200 bc 0 std::_Rb_tree<void*, std::pair<void* const, boost::function<void(int)> >, std::_Select1st<std::pair<void* const, boost::function<void(int)> > >, std::less<void*>, std::allocator<std::pair<void* const, boost::function<void(int)> > > >::erase
FUNC 6a2bc 4c 0 boost::exception_detail::error_info_injector<boost::bad_function_call>::error_info_injector
FUNC 6a308 b9 0 boost::exception_detail::clone_impl<boost::exception_detail::error_info_injector<boost::bad_function_call> >::clone_impl
FUNC 6a3c2 1a 0 std::allocator<std::_Rb_tree_node<std::pair<void* const, boost::function<void(int)> > > >::allocator
FUNC 6a3dc 41 0 std::_Rb_tree<void*, std::pair<void* const, boost::function<void(int)> >, std::_Select1st<std::pair<void* const, boost::function<void(int)> > >, std::less<void*>, std::allocator<std::pair<void* const, boost::function<void(int)> > > >::_Rb_tree_impl<std::less<void*>, false>::_M_initialize
FUNC 6a41e 3b 0 std::_Rb_tree<void*, std::pair<void* const, boost::function<void(int)> >, std::_Select1st<std::pair<void* const, boost::function<void(int)> > >, std::less<void*>, std::allocator<std::pair<void* const, boost::function<void(int)> > > >::get_allocator
FUNC 6a45a 1a 0 std::allocator<std::pair<void* const, boost::function<void(int)> > >::~allocator
FUNC 6a474 1e 0 __gnu_cxx::new_allocator<std::pair<void* const, boost::function<void(int)> > >::destroy
FUNC 6a492 2a 0 std::_Rb_tree<void*, std::pair<void* const, boost::function<void(int)> >, std::_Select1st<std::pair<void* const, boost::function<void(int)> > >, std::less<void*>, std::allocator<std::pair<void* const, boost::function<void(int)> > > >::_M_put_node
FUNC 6a4bc 11 0 boost::detail::thread_move_t<boost::unique_lock<boost::shared_mutex> >::operator->
FUNC 6a4cd 32 0 std::swap<boost::shared_mutex*>
FUNC 6a500 12 0 std::_Rb_tree<void*, std::pair<void* const, boost::function<void(int)> >, std::_Select1st<std::pair<void* const, boost::function<void(int)> > >, std::less<void*>, std::allocator<std::pair<void* const, boost::function<void(int)> > > >::_M_end
FUNC 6a512 92 0 std::_Rb_tree<void*, std::pair<void* const, boost::function<void(int)> >, std::_Select1st<std::pair<void* const, boost::function<void(int)> > >, std::less<void*>, std::allocator<std::pair<void* const, boost::function<void(int)> > > >::_M_lower_bound
FUNC 6a5a4 40 0 boost::detail::function::basic_vtable1<void, int>::clear
FUNC 6a5e4 12 0 std::_Rb_tree<void*, std::pair<void* const, boost::function<void(int)> >, std::_Select1st<std::pair<void* const, boost::function<void(int)> > >, std::less<void*>, std::allocator<std::pair<void* const, boost::function<void(int)> > > >::_M_rightmost
FUNC 6a5f6 2c 0 std::_Rb_tree<void*, std::pair<void* const, boost::function<void(int)> >, std::_Select1st<std::pair<void* const, boost::function<void(int)> > >, std::less<void*>, std::allocator<std::pair<void* const, boost::function<void(int)> > > >::_S_key
FUNC 6a622 12 0 std::_Select1st<std::pair<void* const, boost::function<void(int)> > >::operator()
FUNC 6a634 e3 0 std::_Rb_tree<void*, std::pair<void* const, boost::function<void(int)> >, std::_Select1st<std::pair<void* const, boost::function<void(int)> > >, std::less<void*>, std::allocator<std::pair<void* const, boost::function<void(int)> > > >::_M_insert_
FUNC 6a718 271 0 std::_Rb_tree<void*, std::pair<void* const, boost::function<void(int)> >, std::_Select1st<std::pair<void* const, boost::function<void(int)> > >, std::less<void*>, std::allocator<std::pair<void* const, boost::function<void(int)> > > >::_M_insert_unique
FUNC 6a98a 12 0 std::_Rb_tree<void*, std::pair<void* const, boost::function<void(int)> >, std::_Select1st<std::pair<void* const, boost::function<void(int)> > >, std::less<void*>, std::allocator<std::pair<void* const, boost::function<void(int)> > > >::_M_leftmost
FUNC 6a99c 28 0 std::_Rb_tree_const_iterator<std::pair<void* const, boost::function<void(int)> > >::operator--
FUNC 6a9c4 12 0 std::_Rb_tree<void*, std::pair<void* const, boost::function<void(int)> >, std::_Select1st<std::pair<void* const, boost::function<void(int)> > >, std::less<void*>, std::allocator<std::pair<void* const, boost::function<void(int)> > > >::_S_right
FUNC 6a9d6 28 0 std::_Rb_tree_const_iterator<std::pair<void* const, boost::function<void(int)> > >::operator++
FUNC 6a9fe 97 0 boost::function1<void, int>::assign_to_own
FUNC 6aa95 2c 0 std::_Rb_tree<void*, std::pair<void* const, boost::function<void(int)> >, std::_Select1st<std::pair<void* const, boost::function<void(int)> > >, std::less<void*>, std::allocator<std::pair<void* const, boost::function<void(int)> > > >::_S_key
FUNC 6aac2 8f 0 std::_Rb_tree<void*, std::pair<void* const, boost::function<void(int)> >, std::_Select1st<std::pair<void* const, boost::function<void(int)> > >, std::less<void*>, std::allocator<std::pair<void* const, boost::function<void(int)> > > >::_M_upper_bound
FUNC 6ab52 2f 0 std::pair<std::_Rb_tree_iterator<std::pair<void* const, boost::function<void(int)> > >, std::_Rb_tree_iterator<std::pair<void* const, boost::function<void(int)> > > >::pair
FUNC 6ab82 8d 0 std::_Rb_tree<void*, std::pair<void* const, boost::function<void(int)> >, std::_Select1st<std::pair<void* const, boost::function<void(int)> > >, std::less<void*>, std::allocator<std::pair<void* const, boost::function<void(int)> > > >::clear
FUNC 6ac10 54 0 std::_Rb_tree<void*, std::pair<void* const, boost::function<void(int)> >, std::_Select1st<std::pair<void* const, boost::function<void(int)> > >, std::less<void*>, std::allocator<std::pair<void* const, boost::function<void(int)> > > >::erase
FUNC 6ac64 a 0 __gnu_cxx::new_allocator<std::_Rb_tree_node<std::pair<void* const, boost::function<void(int)> > > >::new_allocator
FUNC 6ac6e e 0 std::_Rb_tree<void*, std::pair<void* const, boost::function<void(int)> >, std::_Select1st<std::pair<void* const, boost::function<void(int)> > >, std::less<void*>, std::allocator<std::pair<void* const, boost::function<void(int)> > > >::_M_get_Node_allocator
FUNC 6ac7c 1e 0 std::allocator<std::pair<void* const, boost::function<void(int)> > >::allocator<std::_Rb_tree_node<std::pair<void* const, boost::function<void(int)> > > >
FUNC 6ac9a a 0 __gnu_cxx::new_allocator<std::pair<void* const, boost::function<void(int)> > >::~new_allocator
FUNC 6aca4 22 0 __gnu_cxx::new_allocator<std::_Rb_tree_node<std::pair<void* const, boost::function<void(int)> > > >::deallocate
FUNC 6acc6 12 0 std::_Rb_tree<void*, std::pair<void* const, boost::function<void(int)> >, std::_Select1st<std::pair<void* const, boost::function<void(int)> > >, std::less<void*>, std::allocator<std::pair<void* const, boost::function<void(int)> > > >::_S_value
FUNC 6acd8 bb 0 std::_Rb_tree<void*, std::pair<void* const, boost::function<void(int)> >, std::_Select1st<std::pair<void* const, boost::function<void(int)> > >, std::less<void*>, std::allocator<std::pair<void* const, boost::function<void(int)> > > >::_M_create_node
FUNC 6ad94 2e 0 std::pair<std::_Rb_tree_iterator<std::pair<void* const, boost::function<void(int)> > >, bool>::pair
FUNC 6adc2 28 0 std::_Rb_tree_iterator<std::pair<void* const, boost::function<void(int)> > >::operator--
FUNC 6adea 12 0 std::_Rb_tree<void*, std::pair<void* const, boost::function<void(int)> >, std::_Select1st<std::pair<void* const, boost::function<void(int)> > >, std::less<void*>, std::allocator<std::pair<void* const, boost::function<void(int)> > > >::_S_value
FUNC 6adfc 12 0 std::_Rb_tree<void*, std::pair<void* const, boost::function<void(int)> >, std::_Select1st<std::pair<void* const, boost::function<void(int)> > >, std::less<void*>, std::allocator<std::pair<void* const, boost::function<void(int)> > > >::_M_root
FUNC 6ae0e a 0 __gnu_cxx::new_allocator<std::pair<void* const, boost::function<void(int)> > >::new_allocator
FUNC 6ae18 24 0 std::_Rb_tree<void*, std::pair<void* const, boost::function<void(int)> >, std::_Select1st<std::pair<void* const, boost::function<void(int)> > >, std::less<void*>, std::allocator<std::pair<void* const, boost::function<void(int)> > > >::_M_get_node
FUNC 6ae3c 3b 0 std::pair<void* const, boost::function<void(int)> >::pair
FUNC 6ae78 77 0 __gnu_cxx::new_allocator<std::pair<void* const, boost::function<void(int)> > >::construct
FUNC 6aef0 55 0 __gnu_cxx::new_allocator<std::_Rb_tree_node<std::pair<void* const, boost::function<void(int)> > > >::allocate
FUNC 6af46 14 0 __gnu_cxx::new_allocator<std::_Rb_tree_node<std::pair<void* const, boost::function<void(int)> > > >::max_size
FUNC 6af60 6c 0 boost::exception_detail::clone_impl<boost::exception_detail::error_info_injector<boost::bad_function_call> >::clone
FUNC 6afd2 53 0 boost::exception_detail::clone_impl<boost::exception_detail::error_info_injector<boost::bad_function_call> >::rethrow
FUNC 6b028 e9 0 Config::StringParameter::StringParameter
FUNC 6b112 103 0 Config::StringParameter::StringParameter
FUNC 6b216 a6 0 Config::StringParameter::~StringParameter
FUNC 6b2bc 7b 0 Config::StringParameter::get
FUNC 6b338 2a1 0 Config::StringParameter::set
FUNC 6b5da 8d 0 Config::StringParameter::registerWatcher
FUNC 6b668 7a 0 Config::StringParameter::unregisterWatcher
FUNC 6b6e2 181 0 __static_initialization_and_destruction_0
FUNC 6b863 15 0 _GLOBAL__I__ZN6Config15StringParameterC2ERKSs
FUNC 6b878 2d 0 std::char_traits<char>::compare
FUNC 6b8a6 e 0 Config::StringParameter::_getName
FUNC 6b8b4 1a 0 std::map<void*, boost::function<void(const std::string&)>, std::less<void*>, std::allocator<std::pair<void* const, boost::function<void(const std::string&)> > > >::~map
FUNC 6b8ce 1a 0 std::map<void*, boost::function<void(const std::string&)>, std::less<void*>, std::allocator<std::pair<void* const, boost::function<void(const std::string&)> > > >::map
FUNC 6b8e8 1a 0 std::_Rb_tree<void*, std::pair<void* const, boost::function<void(const std::string&)> >, std::_Select1st<std::pair<void* const, boost::function<void(const std::string&)> > >, std::less<void*>, std::allocator<std::pair<void* const, boost::function<void(const std::string&)> > > >::_Rb_tree_impl<std::less<void*>, false>::~_Rb_tree_impl
FUNC 6b902 63 0 std::_Rb_tree<void*, std::pair<void* const, boost::function<void(const std::string&)> >, std::_Select1st<std::pair<void* const, boost::function<void(const std::string&)> > >, std::less<void*>, std::allocator<std::pair<void* const, boost::function<void(const std::string&)> > > >::~_Rb_tree
FUNC 6b965 84 0 std::operator==<char>
FUNC 6b9ea 1a 0 std::map<void*, boost::function<void(const std::string&)>, std::less<void*>, std::allocator<std::pair<void* const, boost::function<void(const std::string&)> > > >::begin
FUNC 6ba04 1a 0 std::map<void*, boost::function<void(const std::string&)>, std::less<void*>, std::allocator<std::pair<void* const, boost::function<void(const std::string&)> > > >::end
FUNC 6ba1e 22 0 std::_Rb_tree_iterator<std::pair<void* const, boost::function<void(const std::string&)> > >::operator!=
FUNC 6ba40 36 0 std::_Rb_tree_iterator<std::pair<void* const, boost::function<void(const std::string&)> > >::operator++
FUNC 6ba76 15 0 std::_Rb_tree_iterator<std::pair<void* const, boost::function<void(const std::string&)> > >::operator->
FUNC 6ba8c 87 0 boost::function1<void, const std::string&>::operator()
FUNC 6bb14 1a 0 boost::function<void(const std::string&)>::~function
FUNC 6bb2e 1e 0 std::pair<void* const, boost::function<void(const std::string&)> >::~pair
FUNC 6bb4c 161 0 std::map<void*, boost::function<void(const std::string&)>, std::less<void*>, std::allocator<std::pair<void* const, boost::function<void(const std::string&)> > > >::operator[]
FUNC 6bcae 73 0 boost::function<void(const std::string&)>::operator=
FUNC 6bd22 25 0 std::map<void*, boost::function<void(const std::string&)>, std::less<void*>, std::allocator<std::pair<void* const, boost::function<void(const std::string&)> > > >::erase
FUNC 6bd48 1a 0 std::_Rb_tree<void*, std::pair<void* const, boost::function<void(const std::string&)> >, std::_Select1st<std::pair<void* const, boost::function<void(const std::string&)> > >, std::less<void*>, std::allocator<std::pair<void* const, boost::function<void(const std::string&)> > > >::_Rb_tree
FUNC 6bd62 1a 0 std::allocator<std::_Rb_tree_node<std::pair<void* const, boost::function<void(const std::string&)> > > >::~allocator
FUNC 6bd7c 69 0 std::_Rb_tree<void*, std::pair<void* const, boost::function<void(const std::string&)> >, std::_Select1st<std::pair<void* const, boost::function<void(const std::string&)> > >, std::less<void*>, std::allocator<std::pair<void* const, boost::function<void(const std::string&)> > > >::_M_erase
FUNC 6bde6 12 0 std::_Rb_tree<void*, std::pair<void* const, boost::function<void(const std::string&)> >, std::_Select1st<std::pair<void* const, boost::function<void(const std::string&)> > >, std::less<void*>, std::allocator<std::pair<void* const, boost::function<void(const std::string&)> > > >::_M_begin
FUNC 6bdf8 2c 0 std::_Rb_tree<void*, std::pair<void* const, boost::function<void(const std::string&)> >, std::_Select1st<std::pair<void* const, boost::function<void(const std::string&)> > >, std::less<void*>, std::allocator<std::pair<void* const, boost::function<void(const std::string&)> > > >::begin
FUNC 6be24 2c 0 std::_Rb_tree<void*, std::pair<void* const, boost::function<void(const std::string&)> >, std::_Select1st<std::pair<void* const, boost::function<void(const std::string&)> > >, std::less<void*>, std::allocator<std::pair<void* const, boost::function<void(const std::string&)> > > >::end
FUNC 6be50 15 0 boost::function1<void, const std::string&>::get_vtable
FUNC 6be66 25 0 std::map<void*, boost::function<void(const std::string&)>, std::less<void*>, std::allocator<std::pair<void* const, boost::function<void(const std::string&)> > > >::lower_bound
FUNC 6be8c 1a 0 std::map<void*, boost::function<void(const std::string&)>, std::less<void*>, std::allocator<std::pair<void* const, boost::function<void(const std::string&)> > > >::key_comp
FUNC 6bea6 15 0 std::_Rb_tree_iterator<std::pair<void* const, boost::function<void(const std::string&)> > >::operator*
FUNC 6bebc 22 0 std::_Rb_tree_iterator<std::pair<void* const, boost::function<void(const std::string&)> > >::operator==
FUNC 6bede 1a 0 boost::function<void(const std::string&)>::function
FUNC 6bef8 1a 0 boost::function1<void, const std::string&>::~function1
FUNC 6bf12 3b 0 std::pair<void* const, boost::function<void(const std::string&)> >::pair
FUNC 6bf4e 40 0 std::map<void*, boost::function<void(const std::string&)>, std::less<void*>, std::allocator<std::pair<void* const, boost::function<void(const std::string&)> > > >::insert
FUNC 6bf8e 25 0 boost::function<void(const std::string&)>::function
FUNC 6bfb4 9b 0 boost::function1<void, const std::string&>::swap
FUNC 6c050 83 0 std::_Rb_tree<void*, std::pair<void* const, boost::function<void(const std::string&)> >, std::_Select1st<std::pair<void* const, boost::function<void(const std::string&)> > >, std::less<void*>, std::allocator<std::pair<void* const, boost::function<void(const std::string&)> > > >::erase
FUNC 6c0d4 61 0 std::_Rb_tree<void*, std::pair<void* const, boost::function<void(const std::string&)> >, std::_Select1st<std::pair<void* const, boost::function<void(const std::string&)> > >, std::less<void*>, std::allocator<std::pair<void* const, boost::function<void(const std::string&)> > > >::_Rb_tree_impl<std::less<void*>, false>::_Rb_tree_impl
FUNC 6c136 a 0 __gnu_cxx::new_allocator<std::_Rb_tree_node<std::pair<void* const, boost::function<void(const std::string&)> > > >::~new_allocator
FUNC 6c140 12 0 std::_Rb_tree<void*, std::pair<void* const, boost::function<void(const std::string&)> >, std::_Select1st<std::pair<void* const, boost::function<void(const std::string&)> > >, std::less<void*>, std::allocator<std::pair<void* const, boost::function<void(const std::string&)> > > >::_S_right
FUNC 6c152 12 0 std::_Rb_tree<void*, std::pair<void* const, boost::function<void(const std::string&)> >, std::_Select1st<std::pair<void* const, boost::function<void(const std::string&)> > >, std::less<void*>, std::allocator<std::pair<void* const, boost::function<void(const std::string&)> > > >::_S_left
FUNC 6c164 86 0 std::_Rb_tree<void*, std::pair<void* const, boost::function<void(const std::string&)> >, std::_Select1st<std::pair<void* const, boost::function<void(const std::string&)> > >, std::less<void*>, std::allocator<std::pair<void* const, boost::function<void(const std::string&)> > > >::_M_destroy_node
FUNC 6c1ea 19 0 std::_Rb_tree_iterator<std::pair<void* const, boost::function<void(const std::string&)> > >::_Rb_tree_iterator
FUNC 6c204 53 0 std::_Rb_tree<void*, std::pair<void* const, boost::function<void(const std::string&)> >, std::_Select1st<std::pair<void* const, boost::function<void(const std::string&)> > >, std::less<void*>, std::allocator<std::pair<void* const, boost::function<void(const std::string&)> > > >::lower_bound
FUNC 6c258 a 0 std::_Rb_tree<void*, std::pair<void* const, boost::function<void(const std::string&)> >, std::_Select1st<std::pair<void* const, boost::function<void(const std::string&)> > >, std::less<void*>, std::allocator<std::pair<void* const, boost::function<void(const std::string&)> > > >::key_comp
FUNC 6c262 a 0 std::unary_function<const std::string&, void>::unary_function
FUNC 6c26c 26 0 boost::function1<void, const std::string&>::function1
FUNC 6c292 5d 0 boost::function1<void, const std::string&>::clear
FUNC 6c2f0 1c 0 std::_Rb_tree_const_iterator<std::pair<void* const, boost::function<void(const std::string&)> > >::_Rb_tree_const_iterator
FUNC 6c30c 4c0 0 std::_Rb_tree<void*, std::pair<void* const, boost::function<void(const std::string&)> >, std::_Select1st<std::pair<void* const, boost::function<void(const std::string&)> > >, std::less<void*>, std::allocator<std::pair<void* const, boost::function<void(const std::string&)> > > >::_M_insert_unique_
FUNC 6c7cc 3d 0 boost::function1<void, const std::string&>::function1
FUNC 6c80a f5 0 boost::function1<void, const std::string&>::move_assign
FUNC 6c900 204 0 std::_Rb_tree<void*, std::pair<void* const, boost::function<void(const std::string&)> >, std::_Select1st<std::pair<void* const, boost::function<void(const std::string&)> > >, std::less<void*>, std::allocator<std::pair<void* const, boost::function<void(const std::string&)> > > >::equal_range
FUNC 6cb04 12 0 std::_Rb_tree<void*, std::pair<void* const, boost::function<void(const std::string&)> >, std::_Select1st<std::pair<void* const, boost::function<void(const std::string&)> > >, std::less<void*>, std::allocator<std::pair<void* const, boost::function<void(const std::string&)> > > >::size
FUNC 6cb16 bc 0 std::_Rb_tree<void*, std::pair<void* const, boost::function<void(const std::string&)> >, std::_Select1st<std::pair<void* const, boost::function<void(const std::string&)> > >, std::less<void*>, std::allocator<std::pair<void* const, boost::function<void(const std::string&)> > > >::erase
FUNC 6cbd2 1a 0 std::allocator<std::_Rb_tree_node<std::pair<void* const, boost::function<void(const std::string&)> > > >::allocator
FUNC 6cbec 41 0 std::_Rb_tree<void*, std::pair<void* const, boost::function<void(const std::string&)> >, std::_Select1st<std::pair<void* const, boost::function<void(const std::string&)> > >, std::less<void*>, std::allocator<std::pair<void* const, boost::function<void(const std::string&)> > > >::_Rb_tree_impl<std::less<void*>, false>::_M_initialize
FUNC 6cc2e 3b 0 std::_Rb_tree<void*, std::pair<void* const, boost::function<void(const std::string&)> >, std::_Select1st<std::pair<void* const, boost::function<void(const std::string&)> > >, std::less<void*>, std::allocator<std::pair<void* const, boost::function<void(const std::string&)> > > >::get_allocator
FUNC 6cc6a 1a 0 std::allocator<std::pair<void* const, boost::function<void(const std::string&)> > >::~allocator
FUNC 6cc84 1e 0 __gnu_cxx::new_allocator<std::pair<void* const, boost::function<void(const std::string&)> > >::destroy
FUNC 6cca2 2a 0 std::_Rb_tree<void*, std::pair<void* const, boost::function<void(const std::string&)> >, std::_Select1st<std::pair<void* const, boost::function<void(const std::string&)> > >, std::less<void*>, std::allocator<std::pair<void* const, boost::function<void(const std::string&)> > > >::_M_put_node
FUNC 6cccc 12 0 std::_Rb_tree<void*, std::pair<void* const, boost::function<void(const std::string&)> >, std::_Select1st<std::pair<void* const, boost::function<void(const std::string&)> > >, std::less<void*>, std::allocator<std::pair<void* const, boost::function<void(const std::string&)> > > >::_M_end
FUNC 6ccde 92 0 std::_Rb_tree<void*, std::pair<void* const, boost::function<void(const std::string&)> >, std::_Select1st<std::pair<void* const, boost::function<void(const std::string&)> > >, std::less<void*>, std::allocator<std::pair<void* const, boost::function<void(const std::string&)> > > >::_M_lower_bound
FUNC 6cd70 40 0 boost::detail::function::basic_vtable1<void, const std::string&>::clear
FUNC 6cdb0 12 0 std::_Rb_tree<void*, std::pair<void* const, boost::function<void(const std::string&)> >, std::_Select1st<std::pair<void* const, boost::function<void(const std::string&)> > >, std::less<void*>, std::allocator<std::pair<void* const, boost::function<void(const std::string&)> > > >::_M_rightmost
FUNC 6cdc2 2c 0 std::_Rb_tree<void*, std::pair<void* const, boost::function<void(const std::string&)> >, std::_Select1st<std::pair<void* const, boost::function<void(const std::string&)> > >, std::less<void*>, std::allocator<std::pair<void* const, boost::function<void(const std::string&)> > > >::_S_key
FUNC 6cdee 12 0 std::_Select1st<std::pair<void* const, boost::function<void(const std::string&)> > >::operator()
FUNC 6ce00 e3 0 std::_Rb_tree<void*, std::pair<void* const, boost::function<void(const std::string&)> >, std::_Select1st<std::pair<void* const, boost::function<void(const std::string&)> > >, std::less<void*>, std::allocator<std::pair<void* const, boost::function<void(const std::string&)> > > >::_M_insert_
FUNC 6cee4 271 0 std::_Rb_tree<void*, std::pair<void* const, boost::function<void(const std::string&)> >, std::_Select1st<std::pair<void* const, boost::function<void(const std::string&)> > >, std::less<void*>, std::allocator<std::pair<void* const, boost::function<void(const std::string&)> > > >::_M_insert_unique
FUNC 6d156 12 0 std::_Rb_tree<void*, std::pair<void* const, boost::function<void(const std::string&)> >, std::_Select1st<std::pair<void* const, boost::function<void(const std::string&)> > >, std::less<void*>, std::allocator<std::pair<void* const, boost::function<void(const std::string&)> > > >::_M_leftmost
FUNC 6d168 28 0 std::_Rb_tree_const_iterator<std::pair<void* const, boost::function<void(const std::string&)> > >::operator--
FUNC 6d190 12 0 std::_Rb_tree<void*, std::pair<void* const, boost::function<void(const std::string&)> >, std::_Select1st<std::pair<void* const, boost::function<void(const std::string&)> > >, std::less<void*>, std::allocator<std::pair<void* const, boost::function<void(const std::string&)> > > >::_S_right
FUNC 6d1a2 28 0 std::_Rb_tree_const_iterator<std::pair<void* const, boost::function<void(const std::string&)> > >::operator++
FUNC 6d1ca 97 0 boost::function1<void, const std::string&>::assign_to_own
FUNC 6d261 2c 0 std::_Rb_tree<void*, std::pair<void* const, boost::function<void(const std::string&)> >, std::_Select1st<std::pair<void* const, boost::function<void(const std::string&)> > >, std::less<void*>, std::allocator<std::pair<void* const, boost::function<void(const std::string&)> > > >::_S_key
FUNC 6d28e 8f 0 std::_Rb_tree<void*, std::pair<void* const, boost::function<void(const std::string&)> >, std::_Select1st<std::pair<void* const, boost::function<void(const std::string&)> > >, std::less<void*>, std::allocator<std::pair<void* const, boost::function<void(const std::string&)> > > >::_M_upper_bound
FUNC 6d31e 2f 0 std::pair<std::_Rb_tree_iterator<std::pair<void* const, boost::function<void(const std::string&)> > >, std::_Rb_tree_iterator<std::pair<void* const, boost::function<void(const std::string&)> > > >::pair
FUNC 6d34e 8d 0 std::_Rb_tree<void*, std::pair<void* const, boost::function<void(const std::string&)> >, std::_Select1st<std::pair<void* const, boost::function<void(const std::string&)> > >, std::less<void*>, std::allocator<std::pair<void* const, boost::function<void(const std::string&)> > > >::clear
FUNC 6d3dc 54 0 std::_Rb_tree<void*, std::pair<void* const, boost::function<void(const std::string&)> >, std::_Select1st<std::pair<void* const, boost::function<void(const std::string&)> > >, std::less<void*>, std::allocator<std::pair<void* const, boost::function<void(const std::string&)> > > >::erase
FUNC 6d430 a 0 __gnu_cxx::new_allocator<std::_Rb_tree_node<std::pair<void* const, boost::function<void(const std::string&)> > > >::new_allocator
FUNC 6d43a e 0 std::_Rb_tree<void*, std::pair<void* const, boost::function<void(const std::string&)> >, std::_Select1st<std::pair<void* const, boost::function<void(const std::string&)> > >, std::less<void*>, std::allocator<std::pair<void* const, boost::function<void(const std::string&)> > > >::_M_get_Node_allocator
FUNC 6d448 1e 0 std::allocator<std::pair<void* const, boost::function<void(const std::string&)> > >::allocator<std::_Rb_tree_node<std::pair<void* const, boost::function<void(const std::string&)> > > >
FUNC 6d466 a 0 __gnu_cxx::new_allocator<std::pair<void* const, boost::function<void(const std::string&)> > >::~new_allocator
FUNC 6d470 22 0 __gnu_cxx::new_allocator<std::_Rb_tree_node<std::pair<void* const, boost::function<void(const std::string&)> > > >::deallocate
FUNC 6d492 12 0 std::_Rb_tree<void*, std::pair<void* const, boost::function<void(const std::string&)> >, std::_Select1st<std::pair<void* const, boost::function<void(const std::string&)> > >, std::less<void*>, std::allocator<std::pair<void* const, boost::function<void(const std::string&)> > > >::_S_value
FUNC 6d4a4 bb 0 std::_Rb_tree<void*, std::pair<void* const, boost::function<void(const std::string&)> >, std::_Select1st<std::pair<void* const, boost::function<void(const std::string&)> > >, std::less<void*>, std::allocator<std::pair<void* const, boost::function<void(const std::string&)> > > >::_M_create_node
FUNC 6d560 2e 0 std::pair<std::_Rb_tree_iterator<std::pair<void* const, boost::function<void(const std::string&)> > >, bool>::pair
FUNC 6d58e 28 0 std::_Rb_tree_iterator<std::pair<void* const, boost::function<void(const std::string&)> > >::operator--
FUNC 6d5b6 12 0 std::_Rb_tree<void*, std::pair<void* const, boost::function<void(const std::string&)> >, std::_Select1st<std::pair<void* const, boost::function<void(const std::string&)> > >, std::less<void*>, std::allocator<std::pair<void* const, boost::function<void(const std::string&)> > > >::_S_value
FUNC 6d5c8 12 0 std::_Rb_tree<void*, std::pair<void* const, boost::function<void(const std::string&)> >, std::_Select1st<std::pair<void* const, boost::function<void(const std::string&)> > >, std::less<void*>, std::allocator<std::pair<void* const, boost::function<void(const std::string&)> > > >::_M_root
FUNC 6d5da a 0 __gnu_cxx::new_allocator<std::pair<void* const, boost::function<void(const std::string&)> > >::new_allocator
FUNC 6d5e4 24 0 std::_Rb_tree<void*, std::pair<void* const, boost::function<void(const std::string&)> >, std::_Select1st<std::pair<void* const, boost::function<void(const std::string&)> > >, std::less<void*>, std::allocator<std::pair<void* const, boost::function<void(const std::string&)> > > >::_M_get_node
FUNC 6d608 3b 0 std::pair<void* const, boost::function<void(const std::string&)> >::pair
FUNC 6d644 77 0 __gnu_cxx::new_allocator<std::pair<void* const, boost::function<void(const std::string&)> > >::construct
FUNC 6d6bc 55 0 __gnu_cxx::new_allocator<std::_Rb_tree_node<std::pair<void* const, boost::function<void(const std::string&)> > > >::allocate
FUNC 6d712 14 0 __gnu_cxx::new_allocator<std::_Rb_tree_node<std::pair<void* const, boost::function<void(const std::string&)> > > >::max_size
FUNC 6d728 88e 0 Config::XmlGroup::parse
FUNC 6dfb6 250 0 Config::XmlGroup::genNode
FUNC 6e206 61c 0 Config::XmlGroup::convertToMap
FUNC 6e822 383 0 Config::XmlGroup::refreshFromMap
FUNC 6eba5 257 0 __static_initialization_and_destruction_0
FUNC 6edfc 15 0 _GLOBAL__I__ZN6Config8XmlGroup9GROUP_TAGE
FUNC 6ee12 139 0 Config::XmlParameter::XmlParameter
FUNC 6ef4c e 0 Config::XmlParameter::getName
FUNC 6ef5a 12 0 Config::XmlParameter::getId
FUNC 6ef6c 12 0 Config::XmlParameter::getValueType
FUNC 6ef7e 12 0 Config::XmlParameter::getValueRange
FUNC 6ef90 12 0 Config::XmlParameter::getValue
FUNC 6efa2 29 0 Config::XmlParameter::setValue
FUNC 6efcc 55 0 std::pair<std::basic_string<char, std::char_traits<char>, std::allocator<char> >, Config::IntParameter>::~pair
FUNC 6f022 55 0 std::pair<std::basic_string<char, std::char_traits<char>, std::allocator<char> >, Config::StringParameter>::~pair
FUNC 6f078 7a 0 std::vector<Config::XmlGroup, std::allocator<Config::XmlGroup> >::push_back
FUNC 6f0f2 7a 0 std::vector<Config::XmlParameter, std::allocator<Config::XmlParameter> >::push_back
FUNC 6f16c 3e 0 __gnu_cxx::__normal_iterator<Config::XmlGroup*, std::vector<Config::XmlGroup, std::allocator<Config::XmlGroup> > >::operator++
FUNC 6f1aa 11 0 __gnu_cxx::__normal_iterator<Config::XmlGroup*, std::vector<Config::XmlGroup, std::allocator<Config::XmlGroup> > >::operator->
FUNC 6f1bc 3e 0 __gnu_cxx::__normal_iterator<Config::XmlParameter*, std::vector<Config::XmlParameter, std::allocator<Config::XmlParameter> > >::operator++
FUNC 6f1fa 11 0 __gnu_cxx::__normal_iterator<Config::XmlParameter*, std::vector<Config::XmlParameter, std::allocator<Config::XmlParameter> > >::operator->
FUNC 6f20c 6b 0 std::pair<std::basic_string<char, std::char_traits<char>, std::allocator<char> >, Config::IntParameter>::pair
FUNC 6f278 6b 0 std::pair<const std::basic_string<char, std::char_traits<char>, std::allocator<char> >, Config::IntParameter>::pair<std::basic_string<char, std::char_traits<char>, std::allocator<char> >, Config::IntParameter>
FUNC 6f2e4 6b 0 std::pair<std::basic_string<char, std::char_traits<char>, std::allocator<char> >, Config::StringParameter>::pair
FUNC 6f350 6b 0 std::pair<const std::basic_string<char, std::char_traits<char>, std::allocator<char> >, Config::StringParameter>::pair<std::basic_string<char, std::char_traits<char>, std::allocator<char> >, Config::StringParameter>
FUNC 6f3bc 77 0 __gnu_cxx::new_allocator<Config::XmlGroup>::construct
FUNC 6f434 3e6 0 std::vector<Config::XmlGroup, std::allocator<Config::XmlGroup> >::_M_insert_aux
FUNC 6f81a 77 0 __gnu_cxx::new_allocator<Config::XmlParameter>::construct
FUNC 6f892 3e6 0 std::vector<Config::XmlParameter, std::allocator<Config::XmlParameter> >::_M_insert_aux
FUNC 6fc78 46 0 std::copy_backward<Config::XmlGroup*, Config::XmlGroup*>
FUNC 6fcbe ca 0 std::vector<Config::XmlGroup, std::allocator<Config::XmlGroup> >::_M_check_len
FUNC 6fd88 57 0 __gnu_cxx::operator-<Config::XmlGroup*, std::vector<Config::XmlGroup, std::allocator<Config::XmlGroup> > >
FUNC 6fddf 3b 0 std::__uninitialized_move_a<Config::XmlGroup*, Config::XmlGroup*, std::allocator<Config::XmlGroup> >
FUNC 6fe1a 1e 0 __gnu_cxx::new_allocator<Config::XmlGroup>::destroy
FUNC 6fe38 46 0 std::copy_backward<Config::XmlParameter*, Config::XmlParameter*>
FUNC 6fe7e ca 0 std::vector<Config::XmlParameter, std::allocator<Config::XmlParameter> >::_M_check_len
FUNC 6ff48 57 0 __gnu_cxx::operator-<Config::XmlParameter*, std::vector<Config::XmlParameter, std::allocator<Config::XmlParameter> > >
FUNC 6ff9f 3b 0 std::__uninitialized_move_a<Config::XmlParameter*, Config::XmlParameter*, std::allocator<Config::XmlParameter> >
FUNC 6ffda 1e 0 __gnu_cxx::new_allocator<Config::XmlParameter>::destroy
FUNC 6fff8 58 0 std::__copy_move_backward_a2<false, Config::XmlGroup*, Config::XmlGroup*>
FUNC 70050 22 0 std::vector<Config::XmlGroup, std::allocator<Config::XmlGroup> >::max_size
FUNC 70072 58 0 std::__copy_move_backward_a2<false, Config::XmlParameter*, Config::XmlParameter*>
FUNC 700ca 22 0 std::vector<Config::XmlParameter, std::allocator<Config::XmlParameter> >::max_size
FUNC 700ec 31 0 std::__copy_move_backward_a<false, Config::XmlGroup*, Config::XmlGroup*>
FUNC 7011d 31 0 std::__copy_move_backward_a<false, Config::XmlParameter*, Config::XmlParameter*>
FUNC 7014e 74 0 std::__copy_move_backward<false, false, std::random_access_iterator_tag>::__copy_move_b<Config::XmlGroup*, Config::XmlGroup*>
FUNC 701c2 74 0 std::__copy_move_backward<false, false, std::random_access_iterator_tag>::__copy_move_b<Config::XmlParameter*, Config::XmlParameter*>
FUNC 70238 5ed 0 Config::XmlParameter::parse
FUNC 70826 29f 0 Config::XmlParameter::genNode
FUNC 70ac6 d8 0 Config::XmlParameter::setValue
FUNC 70b9e 587 0 __static_initialization_and_destruction_0
FUNC 71125 15 0 _GLOBAL__I__ZN6Config12XmlParameter13PARAMETER_TAGE
FUNC 7113c 550 0 WgjXml::WgjXml
FUNC 7168c 581 0 WgjXml::~WgjXml
FUNC 71c0e 6c 0 WgjXml::LoadXml
FUNC 71c7a a1 0 WgjXml::Get_Point61850
FUNC 71d1c 1f1 0 WgjXml::GetTransmitChannel
FUNC 71f0e 96 0 WgjXml::Get_61850
FUNC 71fa4 1b8 0 WgjXml::GetRedisConnectionConfig
FUNC 7215c db 0 WgjXml::GetCollectionRedisInfo
FUNC 72238 72 0 WgjXml::GetPcapConfigInfo
FUNC 722aa 6b 0 WgjXml::GetAllChannelName
FUNC 72316 f2 0 WgjXml::GetParseConfigInfo
FUNC 72408 be 0 WgjXml::GetIEC61850ServerPoint
FUNC 724c6 85 0 WgjXml::InitIEC103Xml
FUNC 7254c 36 0 WgjXml::GetIEC103Param
FUNC 72582 36 0 WgjXml::GetIEC103Point
FUNC 725b8 bf 0 WgjXml::GetIEC104WFPoint
FUNC 72678 89 0 WgjXml::GetIEC104WFParam
FUNC 72702 89 0 WgjXml::Get61850IP
FUNC 7278c 732 0 WgjXml::parse_61850
FUNC 72ebe 68e 0 WgjXml::parse_Iec104
FUNC 7354c 55e 0 WgjXml::parse_Iec104Param
FUNC 73aaa 452 0 WgjXml::parse_Iec103
FUNC 73efc 215 0 WgjXml::find_RedisInfo
FUNC 74112 178 0 WgjXml::get_AllChannel
FUNC 7428a 62a 0 WgjXml::getParseConfigInfo
FUNC 748b4 2b0 0 WgjXml::GetDataStorageConfig
FUNC 74b64 487 0 WgjXml::getPcapConfigInfo
FUNC 74fec 35d 0 WgjXml::getIEC61850ServerPoint
FUNC 7534a 314 0 WgjXml::parse_61850IP
FUNC 7565e 40 0 __static_initialization_and_destruction_0
FUNC 7569e 15 0 _GLOBAL__I__ZN6WgjXmlC2Ev
FUNC 756b4 1a 0 TiXmlString::~TiXmlString
FUNC 756ce 15 0 TiXmlString::c_str
FUNC 756e4 38 0 TiXmlString::quit
FUNC 7571c 1e 0 TiXmlNode::Value
FUNC 7573a 1a 0 TiXmlNode::NextSiblingElement
FUNC 75754 1a 0 TiXmlNode::FirstChildElement
FUNC 7576e 18 0 TiXmlNode::NoChildren
FUNC 75786 4a 0 TiXmlDocument::~TiXmlDocument
FUNC 757d0 26 0 TiXmlDocument::~TiXmlDocument
FUNC 757f6 1a 0 TiXmlDocument::RootElement
FUNC 75810 1a 0 std::map<std::basic_string<char, std::char_traits<char>, std::allocator<char> >, IEC61850_STRUCT::IED_61850, std::less<std::basic_string<char, std::char_traits<char>, std::allocator<char> > >, std::allocator<std::pair<const std::basic_string<char, std::char_traits<char>, std::allocator<char> >, IEC61850_STRUCT::IED_61850> > >::~map
FUNC 7582a 139 0 IEC61850_STRUCT::IED_61850::IED_61850
FUNC 75964 140 0 IEC61850_STRUCT::IED_61850::~IED_61850
FUNC 75aa4 1a 0 std::list<std::basic_string<char, std::char_traits<char>, std::allocator<char> >, std::allocator<std::basic_string<char, std::char_traits<char>, std::allocator<char> > > >::~list
FUNC 75abe 1a 0 std::map<std::basic_string<char, std::char_traits<char>, std::allocator<char> >, std::map<int, std::map<int, IEC104WF::stPointTable, std::less<int>, std::allocator<std::pair<const int, IEC104WF::stPointTable> > >, std::less<int>, std::allocator<std::pair<const int, std::map<int, IEC104WF::stPointTable, std::less<int>, std::allocator<std::pair<const int, IEC104WF::stPointTable> > > > > >, std::less<std::basic_string<char, std::char_traits<char>, std::allocator<char> > >, std::allocator<std::pair<const std::basic_string<char, std::char_traits<char>, std::allocator<char> >, std::map<int, std::map<int, IEC104WF::stPointTable, std::less<int>, std::allocator<std::pair<const int, IEC104WF::stPointTable> > >, std::less<int>, std::allocator<std::pair<const int, std::map<int, IEC104WF::stPointTable, std::less<int>, std::allocator<std::pair<const int, IEC104WF::stPointTable> > > > > > > > >::~map
FUNC 75ad8 1a 0 std::map<int, std::map<int, IEC104WF::stPointTable, std::less<int>, std::allocator<std::pair<const int, IEC104WF::stPointTable> > >, std::less<int>, std::allocator<std::pair<const int, std::map<int, IEC104WF::stPointTable, std::less<int>, std::allocator<std::pair<const int, IEC104WF::stPointTable> > > > > >::~map
FUNC 75af2 1a 0 std::map<int, IEC104WF::stPointTable, std::less<int>, std::allocator<std::pair<const int, IEC104WF::stPointTable> > >::~map
FUNC 75b0c 1a 0 IEC104WF::stPointTable::stPointTable
FUNC 75b26 1a 0 IEC104WF::stPointTable::~stPointTable
FUNC 75b40 82 0 IEC103::stConfigParam::stConfigParam
FUNC 75bc2 121 0 IEC61850_STRUCT::IED_61850::operator=
FUNC 75ce4 45 0 IEC104WF::stPointTable::operator=
FUNC 75d2a 7b 0 IEC103::stConfigParam::operator=
FUNC 75da6 1a 0 std::map<std::basic_string<char, std::char_traits<char>, std::allocator<char> >, IEC61850_STRUCT::IED_61850, std::less<std::basic_string<char, std::char_traits<char>, std::allocator<char> > >, std::allocator<std::pair<const std::basic_string<char, std::char_traits<char>, std::allocator<char> >, IEC61850_STRUCT::IED_61850> > >::map
FUNC 75dc0 1a 0 std::_Rb_tree<std::basic_string<char, std::char_traits<char>, std::allocator<char> >, std::pair<const std::basic_string<char, std::char_traits<char>, std::allocator<char> >, IEC61850_STRUCT::IED_61850>, std::_Select1st<std::pair<const std::basic_string<char, std::char_traits<char>, std::allocator<char> >, IEC61850_STRUCT::IED_61850> >, std::less<std::basic_string<char, std::char_traits<char>, std::allocator<char> > >, std::allocator<std::pair<const std::basic_string<char, std::char_traits<char>, std::allocator<char> >, IEC61850_STRUCT::IED_61850> > >::_Rb_tree_impl<std::less<std::basic_string<char, std::char_traits<char>, std::allocator<char> > >, false>::~_Rb_tree_impl
FUNC 75dda 63 0 std::_Rb_tree<std::basic_string<char, std::char_traits<char>, std::allocator<char> >, std::pair<const std::basic_string<char, std::char_traits<char>, std::allocator<char> >, IEC61850_STRUCT::IED_61850>, std::_Select1st<std::pair<const std::basic_string<char, std::char_traits<char>, std::allocator<char> >, IEC61850_STRUCT::IED_61850> >, std::less<std::basic_string<char, std::char_traits<char>, std::allocator<char> > >, std::allocator<std::pair<const std::basic_string<char, std::char_traits<char>, std::allocator<char> >, IEC61850_STRUCT::IED_61850> > >::~_Rb_tree
FUNC 75e3e 1a 0 std::list<std::basic_string<char, std::char_traits<char>, std::allocator<char> >, std::allocator<std::basic_string<char, std::char_traits<char>, std::allocator<char> > > >::list
FUNC 75e58 1a 0 std::_List_base<std::basic_string<char, std::char_traits<char>, std::allocator<char> >, std::allocator<std::basic_string<char, std::char_traits<char>, std::allocator<char> > > >::_List_impl::~_List_impl
FUNC 75e72 51 0 std::_List_base<std::basic_string<char, std::char_traits<char>, std::allocator<char> >, std::allocator<std::basic_string<char, std::char_traits<char>, std::allocator<char> > > >::~_List_base
FUNC 75ec4 1a 0 std::map<std::basic_string<char, std::char_traits<char>, std::allocator<char> >, std::map<int, std::map<int, IEC104WF::stPointTable, std::less<int>, std::allocator<std::pair<const int, IEC104WF::stPointTable> > >, std::less<int>, std::allocator<std::pair<const int, std::map<int, IEC104WF::stPointTable, std::less<int>, std::allocator<std::pair<const int, IEC104WF::stPointTable> > > > > >, std::less<std::basic_string<char, std::char_traits<char>, std::allocator<char> > >, std::allocator<std::pair<const std::basic_string<char, std::char_traits<char>, std::allocator<char> >, std::map<int, std::map<int, IEC104WF::stPointTable, std::less<int>, std::allocator<std::pair<const int, IEC104WF::stPointTable> > >, std::less<int>, std::allocator<std::pair<const int, std::map<int, IEC104WF::stPointTable, std::less<int>, std::allocator<std::pair<const int, IEC104WF::stPointTable> > > > > > > > >::map
FUNC 75ede 1a 0 std::_Rb_tree<std::basic_string<char, std::char_traits<char>, std::allocator<char> >, std::pair<const std::basic_string<char, std::char_traits<char>, std::allocator<char> >, std::map<int, std::map<int, IEC104WF::stPointTable, std::less<int>, std::allocator<std::pair<const int, IEC104WF::stPointTable> > >, std::less<int>, std::allocator<std::pair<const int, std::map<int, IEC104WF::stPointTable, std::less<int>, std::allocator<std::pair<const int, IEC104WF::stPointTable> > > > > > >, std::_Select1st<std::pair<const std::basic_string<char, std::char_traits<char>, std::allocator<char> >, std::map<int, std::map<int, IEC104WF::stPointTable, std::less<int>, std::allocator<std::pair<const int, IEC104WF::stPointTable> > >, std::less<int>, std::allocator<std::pair<const int, std::map<int, IEC104WF::stPointTable, std::less<int>, std::allocator<std::pair<const int, IEC104WF::stPointTable> > > > > > > >, std::less<std::basic_string<char, std::char_traits<char>, std::allocator<char> > >, std::allocator<std::pair<const std::basic_string<char, std::char_traits<char>, std::allocator<char> >, std::map<int, std::map<int, IEC104WF::stPointTable, std::less<int>, std::allocator<std::pair<const int, IEC104WF::stPointTable> > >, std::less<int>, std::allocator<std::pair<const int, std::map<int, IEC104WF::stPointTable, std::less<int>, std::allocator<std::pair<const int, IEC104WF::stPointTable> > > > > > > > >::_Rb_tree_impl<std::less<std::basic_string<char, std::char_traits<char>, std::allocator<char> > >, false>::~_Rb_tree_impl
FUNC 75ef8 63 0 std::_Rb_tree<std::basic_string<char, std::char_traits<char>, std::allocator<char> >, std::pair<const std::basic_string<char, std::char_traits<char>, std::allocator<char> >, std::map<int, std::map<int, IEC104WF::stPointTable, std::less<int>, std::allocator<std::pair<const int, IEC104WF::stPointTable> > >, std::less<int>, std::allocator<std::pair<const int, std::map<int, IEC104WF::stPointTable, std::less<int>, std::allocator<std::pair<const int, IEC104WF::stPointTable> > > > > > >, std::_Select1st<std::pair<const std::basic_string<char, std::char_traits<char>, std::allocator<char> >, std::map<int, std::map<int, IEC104WF::stPointTable, std::less<int>, std::allocator<std::pair<const int, IEC104WF::stPointTable> > >, std::less<int>, std::allocator<std::pair<const int, std::map<int, IEC104WF::stPointTable, std::less<int>, std::allocator<std::pair<const int, IEC104WF::stPointTable> > > > > > > >, std::less<std::basic_string<char, std::char_traits<char>, std::allocator<char> > >, std::allocator<std::pair<const std::basic_string<char, std::char_traits<char>, std::allocator<char> >, std::map<int, std::map<int, IEC104WF::stPointTable, std::less<int>, std::allocator<std::pair<const int, IEC104WF::stPointTable> > >, std::less<int>, std::allocator<std::pair<const int, std::map<int, IEC104WF::stPointTable, std::less<int>, std::allocator<std::pair<const int, IEC104WF::stPointTable> > > > > > > > >::~_Rb_tree
FUNC 75f5c 1a 0 std::map<int, std::map<int, IEC104WF::stPointTable, std::less<int>, std::allocator<std::pair<const int, IEC104WF::stPointTable> > >, std::less<int>, std::allocator<std::pair<const int, std::map<int, IEC104WF::stPointTable, std::less<int>, std::allocator<std::pair<const int, IEC104WF::stPointTable> > > > > >::map
FUNC 75f76 1a 0 std::_Rb_tree<int, std::pair<const int, std::map<int, IEC104WF::stPointTable, std::less<int>, std::allocator<std::pair<const int, IEC104WF::stPointTable> > > >, std::_Select1st<std::pair<const int, std::map<int, IEC104WF::stPointTable, std::less<int>, std::allocator<std::pair<const int, IEC104WF::stPointTable> > > > >, std::less<int>, std::allocator<std::pair<const int, std::map<int, IEC104WF::stPointTable, std::less<int>, std::allocator<std::pair<const int, IEC104WF::stPointTable> > > > > >::_Rb_tree_impl<std::less<int>, false>::~_Rb_tree_impl
FUNC 75f90 63 0 std::_Rb_tree<int, std::pair<const int, std::map<int, IEC104WF::stPointTable, std::less<int>, std::allocator<std::pair<const int, IEC104WF::stPointTable> > > >, std::_Select1st<std::pair<const int, std::map<int, IEC104WF::stPointTable, std::less<int>, std::allocator<std::pair<const int, IEC104WF::stPointTable> > > > >, std::less<int>, std::allocator<std::pair<const int, std::map<int, IEC104WF::stPointTable, std::less<int>, std::allocator<std::pair<const int, IEC104WF::stPointTable> > > > > >::~_Rb_tree
FUNC 75ff4 1a 0 std::map<int, IEC104WF::stPointTable, std::less<int>, std::allocator<std::pair<const int, IEC104WF::stPointTable> > >::map
FUNC 7600e 1a 0 std::_Rb_tree<int, std::pair<const int, IEC104WF::stPointTable>, std::_Select1st<std::pair<const int, IEC104WF::stPointTable> >, std::less<int>, std::allocator<std::pair<const int, IEC104WF::stPointTable> > >::_Rb_tree_impl<std::less<int>, false>::~_Rb_tree_impl
FUNC 76028 63 0 std::_Rb_tree<int, std::pair<const int, IEC104WF::stPointTable>, std::_Select1st<std::pair<const int, IEC104WF::stPointTable> >, std::less<int>, std::allocator<std::pair<const int, IEC104WF::stPointTable> > >::~_Rb_tree
FUNC 7608c 1a 0 std::map<std::basic_string<char, std::char_traits<char>, std::allocator<char> >, IEC103::stConfigParam, std::less<std::basic_string<char, std::char_traits<char>, std::allocator<char> > >, std::allocator<std::pair<const std::basic_string<char, std::char_traits<char>, std::allocator<char> >, IEC103::stConfigParam> > >::map
FUNC 760a6 1a 0 std::map<std::basic_string<char, std::char_traits<char>, std::allocator<char> >, std::map<std::basic_string<char, std::char_traits<char>, std::allocator<char> >, std::basic_string<char, std::char_traits<char>, std::allocator<char> >, std::less<std::basic_string<char, std::char_traits<char>, std::allocator<char> > >, std::allocator<std::pair<const std::basic_string<char, std::char_traits<char>, std::allocator<char> >, std::basic_string<char, std::char_traits<char>, std::allocator<char> > > > >, std::less<std::basic_string<char, std::char_traits<char>, std::allocator<char> > >, std::allocator<std::pair<const std::basic_string<char, std::char_traits<char>, std::allocator<char> >, std::map<std::basic_string<char, std::char_traits<char>, std::allocator<char> >, std::basic_string<char, std::char_traits<char>, std::allocator<char> >, std::less<std::basic_string<char, std::char_traits<char>, std::allocator<char> > >, std::allocator<std::pair<const std::basic_string<char, std::char_traits<char>, std::allocator<char> >, std::basic_string<char, std::char_traits<char>, std::allocator<char> > > > > > > >::map
FUNC 760c0 1a 0 std::map<std::basic_string<char, std::char_traits<char>, std::allocator<char> >, IEC61850_STRUCT::IED_61850, std::less<std::basic_string<char, std::char_traits<char>, std::allocator<char> > >, std::allocator<std::pair<const std::basic_string<char, std::char_traits<char>, std::allocator<char> >, IEC61850_STRUCT::IED_61850> > >::clear
FUNC 760da 25 0 std::map<std::basic_string<char, std::char_traits<char>, std::allocator<char> >, IEC61850_STRUCT::IED_61850, std::less<std::basic_string<char, std::char_traits<char>, std::allocator<char> > >, std::allocator<std::pair<const std::basic_string<char, std::char_traits<char>, std::allocator<char> >, IEC61850_STRUCT::IED_61850> > >::map
FUNC 760ff 2a 0 std::operator==<char, std::char_traits<char>, std::allocator<char> >
FUNC 7612a 1a 0 std::map<std::basic_string<char, std::char_traits<char>, std::allocator<char> >, IEC103::stConfigParam, std::less<std::basic_string<char, std::char_traits<char>, std::allocator<char> > >, std::allocator<std::pair<const std::basic_string<char, std::char_traits<char>, std::allocator<char> >, IEC103::stConfigParam> > >::clear
FUNC 76144 1a 0 std::map<std::basic_string<char, std::char_traits<char>, std::allocator<char> >, std::map<std::basic_string<char, std::char_traits<char>, std::allocator<char> >, std::basic_string<char, std::char_traits<char>, std::allocator<char> >, std::less<std::basic_string<char, std::char_traits<char>, std::allocator<char> > >, std::allocator<std::pair<const std::basic_string<char, std::char_traits<char>, std::allocator<char> >, std::basic_string<char, std::char_traits<char>, std::allocator<char> > > > >, std::less<std::basic_string<char, std::char_traits<char>, std::allocator<char> > >, std::allocator<std::pair<const std::basic_string<char, std::char_traits<char>, std::allocator<char> >, std::map<std::basic_string<char, std::char_traits<char>, std::allocator<char> >, std::basic_string<char, std::char_traits<char>, std::allocator<char> >, std::less<std::basic_string<char, std::char_traits<char>, std::allocator<char> > >, std::allocator<std::pair<const std::basic_string<char, std::char_traits<char>, std::allocator<char> >, std::basic_string<char, std::char_traits<char>, std::allocator<char> > > > > > > >::clear
FUNC 7615e 25 0 std::map<std::basic_string<char, std::char_traits<char>, std::allocator<char> >, IEC103::stConfigParam, std::less<std::basic_string<char, std::char_traits<char>, std::allocator<char> > >, std::allocator<std::pair<const std::basic_string<char, std::char_traits<char>, std::allocator<char> >, IEC103::stConfigParam> > >::map
FUNC 76184 25 0 std::map<std::basic_string<char, std::char_traits<char>, std::allocator<char> >, std::map<std::basic_string<char, std::char_traits<char>, std::allocator<char> >, std::basic_string<char, std::char_traits<char>, std::allocator<char> >, std::less<std::basic_string<char, std::char_traits<char>, std::allocator<char> > >, std::allocator<std::pair<const std::basic_string<char, std::char_traits<char>, std::allocator<char> >, std::basic_string<char, std::char_traits<char>, std::allocator<char> > > > >, std::less<std::basic_string<char, std::char_traits<char>, std::allocator<char> > >, std::allocator<std::pair<const std::basic_string<char, std::char_traits<char>, std::allocator<char> >, std::map<std::basic_string<char, std::char_traits<char>, std::allocator<char> >, std::basic_string<char, std::char_traits<char>, std::allocator<char> >, std::less<std::basic_string<char, std::char_traits<char>, std::allocator<char> > >, std::allocator<std::pair<const std::basic_string<char, std::char_traits<char>, std::allocator<char> >, std::basic_string<char, std::char_traits<char>, std::allocator<char> > > > > > > >::map
FUNC 761aa 1a 0 std::map<std::basic_string<char, std::char_traits<char>, std::allocator<char> >, std::map<int, std::map<int, IEC104WF::stPointTable, std::less<int>, std::allocator<std::pair<const int, IEC104WF::stPointTable> > >, std::less<int>, std::allocator<std::pair<const int, std::map<int, IEC104WF::stPointTable, std::less<int>, std::allocator<std::pair<const int, IEC104WF::stPointTable> > > > > >, std::less<std::basic_string<char, std::char_traits<char>, std::allocator<char> > >, std::allocator<std::pair<const std::basic_string<char, std::char_traits<char>, std::allocator<char> >, std::map<int, std::map<int, IEC104WF::stPointTable, std::less<int>, std::allocator<std::pair<const int, IEC104WF::stPointTable> > >, std::less<int>, std::allocator<std::pair<const int, std::map<int, IEC104WF::stPointTable, std::less<int>, std::allocator<std::pair<const int, IEC104WF::stPointTable> > > > > > > > >::clear
FUNC 761c4 1a 0 std::map<int, std::map<int, IEC104WF::stPointTable, std::less<int>, std::allocator<std::pair<const int, IEC104WF::stPointTable> > >, std::less<int>, std::allocator<std::pair<const int, std::map<int, IEC104WF::stPointTable, std::less<int>, std::allocator<std::pair<const int, IEC104WF::stPointTable> > > > > >::clear
FUNC 761de 1a 0 std::map<int, IEC104WF::stPointTable, std::less<int>, std::allocator<std::pair<const int, IEC104WF::stPointTable> > >::clear
FUNC 761f8 25 0 std::map<std::basic_string<char, std::char_traits<char>, std::allocator<char> >, std::map<int, std::map<int, IEC104WF::stPointTable, std::less<int>, std::allocator<std::pair<const int, IEC104WF::stPointTable> > >, std::less<int>, std::allocator<std::pair<const int, std::map<int, IEC104WF::stPointTable, std::less<int>, std::allocator<std::pair<const int, IEC104WF::stPointTable> > > > > >, std::less<std::basic_string<char, std::char_traits<char>, std::allocator<char> > >, std::allocator<std::pair<const std::basic_string<char, std::char_traits<char>, std::allocator<char> >, std::map<int, std::map<int, IEC104WF::stPointTable, std::less<int>, std::allocator<std::pair<const int, IEC104WF::stPointTable> > >, std::less<int>, std::allocator<std::pair<const int, std::map<int, IEC104WF::stPointTable, std::less<int>, std::allocator<std::pair<const int, IEC104WF::stPointTable> > > > > > > > >::map
FUNC 7621e 26 0 std::list<std::basic_string<char, std::char_traits<char>, std::allocator<char> >, std::allocator<std::basic_string<char, std::char_traits<char>, std::allocator<char> > > >::clear
FUNC 76244 cf 0 std::list<std::basic_string<char, std::char_traits<char>, std::allocator<char> >, std::allocator<std::basic_string<char, std::char_traits<char>, std::allocator<char> > > >::list
FUNC 76314 55 0 std::pair<const std::basic_string<char, std::char_traits<char>, std::allocator<char> >, IEC61850_STRUCT::IED_61850>::~pair
FUNC 7636a 1b7 0 std::map<std::basic_string<char, std::char_traits<char>, std::allocator<char> >, IEC61850_STRUCT::IED_61850, std::less<std::basic_string<char, std::char_traits<char>, std::allocator<char> > >, std::allocator<std::pair<const std::basic_string<char, std::char_traits<char>, std::allocator<char> >, IEC61850_STRUCT::IED_61850> > >::operator[]
FUNC 76522 29 0 std::map<std::basic_string<char, std::char_traits<char>, std::allocator<char> >, std::basic_string<char, std::char_traits<char>, std::allocator<char> >, std::less<std::basic_string<char, std::char_traits<char>, std::allocator<char> > >, std::allocator<std::pair<const std::basic_string<char, std::char_traits<char>, std::allocator<char> >, std::basic_string<char, std::char_traits<char>, std::allocator<char> > > > >::operator=
FUNC 7654c 9e 0 WgjXml::stringToNum<float>
FUNC 765ea 92 0 WgjXml::stringToNum<int>
FUNC 7667c 1e 0 std::pair<const int, IEC104WF::stPointTable>::~pair
FUNC 7669a 15e 0 std::map<int, IEC104WF::stPointTable, std::less<int>, std::allocator<std::pair<const int, IEC104WF::stPointTable> > >::operator[]
FUNC 767f8 1e 0 std::pair<const int, std::map<int, IEC104WF::stPointTable, std::less<int>, std::allocator<std::pair<const int, IEC104WF::stPointTable> > > >::~pair
FUNC 76816 185 0 std::map<int, std::map<int, IEC104WF::stPointTable, std::less<int>, std::allocator<std::pair<const int, IEC104WF::stPointTable> > >, std::less<int>, std::allocator<std::pair<const int, std::map<int, IEC104WF::stPointTable, std::less<int>, std::allocator<std::pair<const int, IEC104WF::stPointTable> > > > > >::operator[]
FUNC 7699c 29 0 std::map<int, IEC104WF::stPointTable, std::less<int>, std::allocator<std::pair<const int, IEC104WF::stPointTable> > >::operator=
FUNC 769c6 55 0 std::pair<const std::basic_string<char, std::char_traits<char>, std::allocator<char> >, std::map<int, std::map<int, IEC104WF::stPointTable, std::less<int>, std::allocator<std::pair<const int, IEC104WF::stPointTable> > >, std::less<int>, std::allocator<std::pair<const int, std::map<int, IEC104WF::stPointTable, std::less<int>, std::allocator<std::pair<const int, IEC104WF::stPointTable> > > > > > >::~pair
FUNC 76a1c 185 0 std::map<std::basic_string<char, std::char_traits<char>, std::allocator<char> >, std::map<int, std::map<int, IEC104WF::stPointTable, std::less<int>, std::allocator<std::pair<const int, IEC104WF::stPointTable> > >, std::less<int>, std::allocator<std::pair<const int, std::map<int, IEC104WF::stPointTable, std::less<int>, std::allocator<std::pair<const int, IEC104WF::stPointTable> > > > > >, std::less<std::basic_string<char, std::char_traits<char>, std::allocator<char> > >, std::allocator<std::pair<const std::basic_string<char, std::char_traits<char>, std::allocator<char> >, std::map<int, std::map<int, IEC104WF::stPointTable, std::less<int>, std::allocator<std::pair<const int, IEC104WF::stPointTable> > >, std::less<int>, std::allocator<std::pair<const int, std::map<int, IEC104WF::stPointTable, std::less<int>, std::allocator<std::pair<const int, IEC104WF::stPointTable> > > > > > > > >::operator[]
FUNC 76ba2 29 0 std::map<int, std::map<int, IEC104WF::stPointTable, std::less<int>, std::allocator<std::pair<const int, IEC104WF::stPointTable> > >, std::less<int>, std::allocator<std::pair<const int, std::map<int, IEC104WF::stPointTable, std::less<int>, std::allocator<std::pair<const int, IEC104WF::stPointTable> > > > > >::operator=
FUNC 76bcb 28 0 std::operator!=<char, std::char_traits<char>, std::allocator<char> >
FUNC 76bf4 187 0 std::map<std::basic_string<char, std::char_traits<char>, std::allocator<char> >, IEC103::stConfigParam, std::less<std::basic_string<char, std::char_traits<char>, std::allocator<char> > >, std::allocator<std::pair<const std::basic_string<char, std::char_traits<char>, std::allocator<char> >, IEC103::stConfigParam> > >::operator[]
FUNC 76d7c 185 0 std::map<std::basic_string<char, std::char_traits<char>, std::allocator<char> >, std::map<std::basic_string<char, std::char_traits<char>, std::allocator<char> >, std::basic_string<char, std::char_traits<char>, std::allocator<char> >, std::less<std::basic_string<char, std::char_traits<char>, std::allocator<char> > >, std::allocator<std::pair<const std::basic_string<char, std::char_traits<char>, std::allocator<char> >, std::basic_string<char, std::char_traits<char>, std::allocator<char> > > > >, std::less<std::basic_string<char, std::char_traits<char>, std::allocator<char> > >, std::allocator<std::pair<const std::basic_string<char, std::char_traits<char>, std::allocator<char> >, std::map<std::basic_string<char, std::char_traits<char>, std::allocator<char> >, std::basic_string<char, std::char_traits<char>, std::allocator<char> >, std::less<std::basic_string<char, std::char_traits<char>, std::allocator<char> > >, std::allocator<std::pair<const std::basic_string<char, std::char_traits<char>, std::allocator<char> >, std::basic_string<char, std::char_traits<char>, std::allocator<char> > > > > > > >::operator[]
FUNC 76f02 34 0 std::list<std::basic_string<char, std::char_traits<char>, std::allocator<char> >, std::allocator<std::basic_string<char, std::char_traits<char>, std::allocator<char> > > >::push_back
FUNC 76f36 1a 0 std::_Rb_tree<std::basic_string<char, std::char_traits<char>, std::allocator<char> >, std::pair<const std::basic_string<char, std::char_traits<char>, std::allocator<char> >, IEC61850_STRUCT::IED_61850>, std::_Select1st<std::pair<const std::basic_string<char, std::char_traits<char>, std::allocator<char> >, IEC61850_STRUCT::IED_61850> >, std::less<std::basic_string<char, std::char_traits<char>, std::allocator<char> > >, std::allocator<std::pair<const std::basic_string<char, std::char_traits<char>, std::allocator<char> >, IEC61850_STRUCT::IED_61850> > >::_Rb_tree
FUNC 76f50 1a 0 std::allocator<std::_Rb_tree_node<std::pair<const std::basic_string<char, std::char_traits<char>, std::allocator<char> >, IEC61850_STRUCT::IED_61850> > >::~allocator
FUNC 76f6a 69 0 std::_Rb_tree<std::basic_string<char, std::char_traits<char>, std::allocator<char> >, std::pair<const std::basic_string<char, std::char_traits<char>, std::allocator<char> >, IEC61850_STRUCT::IED_61850>, std::_Select1st<std::pair<const std::basic_string<char, std::char_traits<char>, std::allocator<char> >, IEC61850_STRUCT::IED_61850> >, std::less<std::basic_string<char, std::char_traits<char>, std::allocator<char> > >, std::allocator<std::pair<const std::basic_string<char, std::char_traits<char>, std::allocator<char> >, IEC61850_STRUCT::IED_61850> > >::_M_erase
FUNC 76fd4 12 0 std::_Rb_tree<std::basic_string<char, std::char_traits<char>, std::allocator<char> >, std::pair<const std::basic_string<char, std::char_traits<char>, std::allocator<char> >, IEC61850_STRUCT::IED_61850>, std::_Select1st<std::pair<const std::basic_string<char, std::char_traits<char>, std::allocator<char> >, IEC61850_STRUCT::IED_61850> >, std::less<std::basic_string<char, std::char_traits<char>, std::allocator<char> > >, std::allocator<std::pair<const std::basic_string<char, std::char_traits<char>, std::allocator<char> >, IEC61850_STRUCT::IED_61850> > >::_M_begin
FUNC 76fe6 26 0 std::_List_base<std::basic_string<char, std::char_traits<char>, std::allocator<char> >, std::allocator<std::basic_string<char, std::char_traits<char>, std::allocator<char> > > >::_List_base
FUNC 7700c 1a 0 std::allocator<std::_List_node<std::basic_string<char, std::char_traits<char>, std::allocator<char> > > >::~allocator
FUNC 77026 b8 0 std::_List_base<std::basic_string<char, std::char_traits<char>, std::allocator<char> >, std::allocator<std::basic_string<char, std::char_traits<char>, std::allocator<char> > > >::_M_clear
FUNC 770de 1a 0 std::_Rb_tree<std::basic_string<char, std::char_traits<char>, std::allocator<char> >, std::pair<const std::basic_string<char, std::char_traits<char>, std::allocator<char> >, std::map<int, std::map<int, IEC104WF::stPointTable, std::less<int>, std::allocator<std::pair<const int, IEC104WF::stPointTable> > >, std::less<int>, std::allocator<std::pair<const int, std::map<int, IEC104WF::stPointTable, std::less<int>, std::allocator<std::pair<const int, IEC104WF::stPointTable> > > > > > >, std::_Select1st<std::pair<const std::basic_string<char, std::char_traits<char>, std::allocator<char> >, std::map<int, std::map<int, IEC104WF::stPointTable, std::less<int>, std::allocator<std::pair<const int, IEC104WF::stPointTable> > >, std::less<int>, std::allocator<std::pair<const int, std::map<int, IEC104WF::stPointTable, std::less<int>, std::allocator<std::pair<const int, IEC104WF::stPointTable> > > > > > > >, std::less<std::basic_string<char, std::char_traits<char>, std::allocator<char> > >, std::allocator<std::pair<const std::basic_string<char, std::char_traits<char>, std::allocator<char> >, std::map<int, std::map<int, IEC104WF::stPointTable, std::less<int>, std::allocator<std::pair<const int, IEC104WF::stPointTable> > >, std::less<int>, std::allocator<std::pair<const int, std::map<int, IEC104WF::stPointTable, std::less<int>, std::allocator<std::pair<const int, IEC104WF::stPointTable> > > > > > > > >::_Rb_tree
FUNC 770f8 1a 0 std::allocator<std::_Rb_tree_node<std::pair<const std::basic_string<char, std::char_traits<char>, std::allocator<char> >, std::map<int, std::map<int, IEC104WF::stPointTable, std::less<int>, std::allocator<std::pair<const int, IEC104WF::stPointTable> > >, std::less<int>, std::allocator<std::pair<const int, std::map<int, IEC104WF::stPointTable, std::less<int>, std::allocator<std::pair<const int, IEC104WF::stPointTable> > > > > > > > >::~allocator
FUNC 77112 69 0 std::_Rb_tree<std::basic_string<char, std::char_traits<char>, std::allocator<char> >, std::pair<const std::basic_string<char, std::char_traits<char>, std::allocator<char> >, std::map<int, std::map<int, IEC104WF::stPointTable, std::less<int>, std::allocator<std::pair<const int, IEC104WF::stPointTable> > >, std::less<int>, std::allocator<std::pair<const int, std::map<int, IEC104WF::stPointTable, std::less<int>, std::allocator<std::pair<const int, IEC104WF::stPointTable> > > > > > >, std::_Select1st<std::pair<const std::basic_string<char, std::char_traits<char>, std::allocator<char> >, std::map<int, std::map<int, IEC104WF::stPointTable, std::less<int>, std::allocator<std::pair<const int, IEC104WF::stPointTable> > >, std::less<int>, std::allocator<std::pair<const int, std::map<int, IEC104WF::stPointTable, std::less<int>, std::allocator<std::pair<const int, IEC104WF::stPointTable> > > > > > > >, std::less<std::basic_string<char, std::char_traits<char>, std::allocator<char> > >, std::allocator<std::pair<const std::basic_string<char, std::char_traits<char>, std::allocator<char> >, std::map<int, std::map<int, IEC104WF::stPointTable, std::less<int>, std::allocator<std::pair<const int, IEC104WF::stPointTable> > >, std::less<int>, std::allocator<std::pair<const int, std::map<int, IEC104WF::stPointTable, std::less<int>, std::allocator<std::pair<const int, IEC104WF::stPointTable> > > > > > > > >::_M_erase
FUNC 7717c 12 0 std::_Rb_tree<std::basic_string<char, std::char_traits<char>, std::allocator<char> >, std::pair<const std::basic_string<char, std::char_traits<char>, std::allocator<char> >, std::map<int, std::map<int, IEC104WF::stPointTable, std::less<int>, std::allocator<std::pair<const int, IEC104WF::stPointTable> > >, std::less<int>, std::allocator<std::pair<const int, std::map<int, IEC104WF::stPointTable, std::less<int>, std::allocator<std::pair<const int, IEC104WF::stPointTable> > > > > > >, std::_Select1st<std::pair<const std::basic_string<char, std::char_traits<char>, std::allocator<char> >, std::map<int, std::map<int, IEC104WF::stPointTable, std::less<int>, std::allocator<std::pair<const int, IEC104WF::stPointTable> > >, std::less<int>, std::allocator<std::pair<const int, std::map<int, IEC104WF::stPointTable, std::less<int>, std::allocator<std::pair<const int, IEC104WF::stPointTable> > > > > > > >, std::less<std::basic_string<char, std::char_traits<char>, std::allocator<char> > >, std::allocator<std::pair<const std::basic_string<char, std::char_traits<char>, std::allocator<char> >, std::map<int, std::map<int, IEC104WF::stPointTable, std::less<int>, std::allocator<std::pair<const int, IEC104WF::stPointTable> > >, std::less<int>, std::allocator<std::pair<const int, std::map<int, IEC104WF::stPointTable, std::less<int>, std::allocator<std::pair<const int, IEC104WF::stPointTable> > > > > > > > >::_M_begin
FUNC 7718e 1a 0 std::_Rb_tree<int, std::pair<const int, std::map<int, IEC104WF::stPointTable, std::less<int>, std::allocator<std::pair<const int, IEC104WF::stPointTable> > > >, std::_Select1st<std::pair<const int, std::map<int, IEC104WF::stPointTable, std::less<int>, std::allocator<std::pair<const int, IEC104WF::stPointTable> > > > >, std::less<int>, std::allocator<std::pair<const int, std::map<int, IEC104WF::stPointTable, std::less<int>, std::allocator<std::pair<const int, IEC104WF::stPointTable> > > > > >::_Rb_tree
FUNC 771a8 1a 0 std::allocator<std::_Rb_tree_node<std::pair<const int, std::map<int, IEC104WF::stPointTable, std::less<int>, std::allocator<std::pair<const int, IEC104WF::stPointTable> > > > > >::~allocator
FUNC 771c2 69 0 std::_Rb_tree<int, std::pair<const int, std::map<int, IEC104WF::stPointTable, std::less<int>, std::allocator<std::pair<const int, IEC104WF::stPointTable> > > >, std::_Select1st<std::pair<const int, std::map<int, IEC104WF::stPointTable, std::less<int>, std::allocator<std::pair<const int, IEC104WF::stPointTable> > > > >, std::less<int>, std::allocator<std::pair<const int, std::map<int, IEC104WF::stPointTable, std::less<int>, std::allocator<std::pair<const int, IEC104WF::stPointTable> > > > > >::_M_erase
FUNC 7722c 12 0 std::_Rb_tree<int, std::pair<const int, std::map<int, IEC104WF::stPointTable, std::less<int>, std::allocator<std::pair<const int, IEC104WF::stPointTable> > > >, std::_Select1st<std::pair<const int, std::map<int, IEC104WF::stPointTable, std::less<int>, std::allocator<std::pair<const int, IEC104WF::stPointTable> > > > >, std::less<int>, std::allocator<std::pair<const int, std::map<int, IEC104WF::stPointTable, std::less<int>, std::allocator<std::pair<const int, IEC104WF::stPointTable> > > > > >::_M_begin
FUNC 7723e 1a 0 std::_Rb_tree<int, std::pair<const int, IEC104WF::stPointTable>, std::_Select1st<std::pair<const int, IEC104WF::stPointTable> >, std::less<int>, std::allocator<std::pair<const int, IEC104WF::stPointTable> > >::_Rb_tree
FUNC 77258 1a 0 std::allocator<std::_Rb_tree_node<std::pair<const int, IEC104WF::stPointTable> > >::~allocator
FUNC 77272 69 0 std::_Rb_tree<int, std::pair<const int, IEC104WF::stPointTable>, std::_Select1st<std::pair<const int, IEC104WF::stPointTable> >, std::less<int>, std::allocator<std::pair<const int, IEC104WF::stPointTable> > >::_M_erase
FUNC 772dc 12 0 std::_Rb_tree<int, std::pair<const int, IEC104WF::stPointTable>, std::_Select1st<std::pair<const int, IEC104WF::stPointTable> >, std::less<int>, std::allocator<std::pair<const int, IEC104WF::stPointTable> > >::_M_begin
FUNC 772ee 1a 0 std::_Rb_tree<std::basic_string<char, std::char_traits<char>, std::allocator<char> >, std::pair<const std::basic_string<char, std::char_traits<char>, std::allocator<char> >, IEC103::stConfigParam>, std::_Select1st<std::pair<const std::basic_string<char, std::char_traits<char>, std::allocator<char> >, IEC103::stConfigParam> >, std::less<std::basic_string<char, std::char_traits<char>, std::allocator<char> > >, std::allocator<std::pair<const std::basic_string<char, std::char_traits<char>, std::allocator<char> >, IEC103::stConfigParam> > >::_Rb_tree
FUNC 77308 1a 0 std::_Rb_tree<std::basic_string<char, std::char_traits<char>, std::allocator<char> >, std::pair<const std::basic_string<char, std::char_traits<char>, std::allocator<char> >, std::map<std::basic_string<char, std::char_traits<char>, std::allocator<char> >, std::basic_string<char, std::char_traits<char>, std::allocator<char> >, std::less<std::basic_string<char, std::char_traits<char>, std::allocator<char> > >, std::allocator<std::pair<const std::basic_string<char, std::char_traits<char>, std::allocator<char> >, std::basic_string<char, std::char_traits<char>, std::allocator<char> > > > > >, std::_Select1st<std::pair<const std::basic_string<char, std::char_traits<char>, std::allocator<char> >, std::map<std::basic_string<char, std::char_traits<char>, std::allocator<char> >, std::basic_string<char, std::char_traits<char>, std::allocator<char> >, std::less<std::basic_string<char, std::char_traits<char>, std::allocator<char> > >, std::allocator<std::pair<const std::basic_string<char, std::char_traits<char>, std::allocator<char> >, std::basic_string<char, std::char_traits<char>, std::allocator<char> > > > > > >, std::less<std::basic_string<char, std::char_traits<char>, std::allocator<char> > >, std::allocator<std::pair<const std::basic_string<char, std::char_traits<char>, std::allocator<char> >, std::map<std::basic_string<char, std::char_traits<char>, std::allocator<char> >, std::basic_string<char, std::char_traits<char>, std::allocator<char> >, std::less<std::basic_string<char, std::char_traits<char>, std::allocator<char> > >, std::allocator<std::pair<const std::basic_string<char, std::char_traits<char>, std::allocator<char> >, std::basic_string<char, std::char_traits<char>, std::allocator<char> > > > > > > >::_Rb_tree
FUNC 77322 8d 0 std::_Rb_tree<std::basic_string<char, std::char_traits<char>, std::allocator<char> >, std::pair<const std::basic_string<char, std::char_traits<char>, std::allocator<char> >, IEC61850_STRUCT::IED_61850>, std::_Select1st<std::pair<const std::basic_string<char, std::char_traits<char>, std::allocator<char> >, IEC61850_STRUCT::IED_61850> >, std::less<std::basic_string<char, std::char_traits<char>, std::allocator<char> > >, std::allocator<std::pair<const std::basic_string<char, std::char_traits<char>, std::allocator<char> >, IEC61850_STRUCT::IED_61850> > >::clear
FUNC 773b0 11d 0 std::_Rb_tree<std::basic_string<char, std::char_traits<char>, std::allocator<char> >, std::pair<const std::basic_string<char, std::char_traits<char>, std::allocator<char> >, IEC61850_STRUCT::IED_61850>, std::_Select1st<std::pair<const std::basic_string<char, std::char_traits<char>, std::allocator<char> >, IEC61850_STRUCT::IED_61850> >, std::less<std::basic_string<char, std::char_traits<char>, std::allocator<char> > >, std::allocator<std::pair<const std::basic_string<char, std::char_traits<char>, std::allocator<char> >, IEC61850_STRUCT::IED_61850> > >::_Rb_tree
FUNC 774ce 8d 0 std::_Rb_tree<std::basic_string<char, std::char_traits<char>, std::allocator<char> >, std::pair<const std::basic_string<char, std::char_traits<char>, std::allocator<char> >, IEC103::stConfigParam>, std::_Select1st<std::pair<const std::basic_string<char, std::char_traits<char>, std::allocator<char> >, IEC103::stConfigParam> >, std::less<std::basic_string<char, std::char_traits<char>, std::allocator<char> > >, std::allocator<std::pair<const std::basic_string<char, std::char_traits<char>, std::allocator<char> >, IEC103::stConfigParam> > >::clear
FUNC 7755c 8d 0 std::_Rb_tree<std::basic_string<char, std::char_traits<char>, std::allocator<char> >, std::pair<const std::basic_string<char, std::char_traits<char>, std::allocator<char> >, std::map<std::basic_string<char, std::char_traits<char>, std::allocator<char> >, std::basic_string<char, std::char_traits<char>, std::allocator<char> >, std::less<std::basic_string<char, std::char_traits<char>, std::allocator<char> > >, std::allocator<std::pair<const std::basic_string<char, std::char_traits<char>, std::allocator<char> >, std::basic_string<char, std::char_traits<char>, std::allocator<char> > > > > >, std::_Select1st<std::pair<const std::basic_string<char, std::char_traits<char>, std::allocator<char> >, std::map<std::basic_string<char, std::char_traits<char>, std::allocator<char> >, std::basic_string<char, std::char_traits<char>, std::allocator<char> >, std::less<std::basic_string<char, std::char_traits<char>, std::allocator<char> > >, std::allocator<std::pair<const std::basic_string<char, std::char_traits<char>, std::allocator<char> >, std::basic_string<char, std::char_traits<char>, std::allocator<char> > > > > > >, std::less<std::basic_string<char, std::char_traits<char>, std::allocator<char> > >, std::allocator<std::pair<const std::basic_string<char, std::char_traits<char>, std::allocator<char> >, std::map<std::basic_string<char, std::char_traits<char>, std::allocator<char> >, std::basic_string<char, std::char_traits<char>, std::allocator<char> >, std::less<std::basic_string<char, std::char_traits<char>, std::allocator<char> > >, std::allocator<std::pair<const std::basic_string<char, std::char_traits<char>, std::allocator<char> >, std::basic_string<char, std::char_traits<char>, std::allocator<char> > > > > > > >::clear
FUNC 775ea 11d 0 std::_Rb_tree<std::basic_string<char, std::char_traits<char>, std::allocator<char> >, std::pair<const std::basic_string<char, std::char_traits<char>, std::allocator<char> >, IEC103::stConfigParam>, std::_Select1st<std::pair<const std::basic_string<char, std::char_traits<char>, std::allocator<char> >, IEC103::stConfigParam> >, std::less<std::basic_string<char, std::char_traits<char>, std::allocator<char> > >, std::allocator<std::pair<const std::basic_string<char, std::char_traits<char>, std::allocator<char> >, IEC103::stConfigParam> > >::_Rb_tree
FUNC 77708 11d 0 std::_Rb_tree<std::basic_string<char, std::char_traits<char>, std::allocator<char> >, std::pair<const std::basic_string<char, std::char_traits<char>, std::allocator<char> >, std::map<std::basic_string<char, std::char_traits<char>, std::allocator<char> >, std::basic_string<char, std::char_traits<char>, std::allocator<char> >, std::less<std::basic_string<char, std::char_traits<char>, std::allocator<char> > >, std::allocator<std::pair<const std::basic_string<char, std::char_traits<char>, std::allocator<char> >, std::basic_string<char, std::char_traits<char>, std::allocator<char> > > > > >, std::_Select1st<std::pair<const std::basic_string<char, std::char_traits<char>, std::allocator<char> >, std::map<std::basic_string<char, std::char_traits<char>, std::allocator<char> >, std::basic_string<char, std::char_traits<char>, std::allocator<char> >, std::less<std::basic_string<char, std::char_traits<char>, std::allocator<char> > >, std::allocator<std::pair<const std::basic_string<char, std::char_traits<char>, std::allocator<char> >, std::basic_string<char, std::char_traits<char>, std::allocator<char> > > > > > >, std::less<std::basic_string<char, std::char_traits<char>, std::allocator<char> > >, std::allocator<std::pair<const std::basic_string<char, std::char_traits<char>, std::allocator<char> >, std::map<std::basic_string<char, std::char_traits<char>, std::allocator<char> >, std::basic_string<char, std::char_traits<char>, std::allocator<char> >, std::less<std::basic_string<char, std::char_traits<char>, std::allocator<char> > >, std::allocator<std::pair<const std::basic_string<char, std::char_traits<char>, std::allocator<char> >, std::basic_string<char, std::char_traits<char>, std::allocator<char> > > > > > > >::_Rb_tree
FUNC 77826 8d 0 std::_Rb_tree<std::basic_string<char, std::char_traits<char>, std::allocator<char> >, std::pair<const std::basic_string<char, std::char_traits<char>, std::allocator<char> >, std::map<int, std::map<int, IEC104WF::stPointTable, std::less<int>, std::allocator<std::pair<const int, IEC104WF::stPointTable> > >, std::less<int>, std::allocator<std::pair<const int, std::map<int, IEC104WF::stPointTable, std::less<int>, std::allocator<std::pair<const int, IEC104WF::stPointTable> > > > > > >, std::_Select1st<std::pair<const std::basic_string<char, std::char_traits<char>, std::allocator<char> >, std::map<int, std::map<int, IEC104WF::stPointTable, std::less<int>, std::allocator<std::pair<const int, IEC104WF::stPointTable> > >, std::less<int>, std::allocator<std::pair<const int, std::map<int, IEC104WF::stPointTable, std::less<int>, std::allocator<std::pair<const int, IEC104WF::stPointTable> > > > > > > >, std::less<std::basic_string<char, std::char_traits<char>, std::allocator<char> > >, std::allocator<std::pair<const std::basic_string<char, std::char_traits<char>, std::allocator<char> >, std::map<int, std::map<int, IEC104WF::stPointTable, std::less<int>, std::allocator<std::pair<const int, IEC104WF::stPointTable> > >, std::less<int>, std::allocator<std::pair<const int, std::map<int, IEC104WF::stPointTable, std::less<int>, std::allocator<std::pair<const int, IEC104WF::stPointTable> > > > > > > > >::clear
FUNC 778b4 8d 0 std::_Rb_tree<int, std::pair<const int, std::map<int, IEC104WF::stPointTable, std::less<int>, std::allocator<std::pair<const int, IEC104WF::stPointTable> > > >, std::_Select1st<std::pair<const int, std::map<int, IEC104WF::stPointTable, std::less<int>, std::allocator<std::pair<const int, IEC104WF::stPointTable> > > > >, std::less<int>, std::allocator<std::pair<const int, std::map<int, IEC104WF::stPointTable, std::less<int>, std::allocator<std::pair<const int, IEC104WF::stPointTable> > > > > >::clear
FUNC 77942 8d 0 std::_Rb_tree<int, std::pair<const int, IEC104WF::stPointTable>, std::_Select1st<std::pair<const int, IEC104WF::stPointTable> >, std::less<int>, std::allocator<std::pair<const int, IEC104WF::stPointTable> > >::clear
FUNC 779d0 11d 0 std::_Rb_tree<std::basic_string<char, std::char_traits<char>, std::allocator<char> >, std::pair<const std::basic_string<char, std::char_traits<char>, std::allocator<char> >, std::map<int, std::map<int, IEC104WF::stPointTable, std::less<int>, std::allocator<std::pair<const int, IEC104WF::stPointTable> > >, std::less<int>, std::allocator<std::pair<const int, std::map<int, IEC104WF::stPointTable, std::less<int>, std::allocator<std::pair<const int, IEC104WF::stPointTable> > > > > > >, std::_Select1st<std::pair<const std::basic_string<char, std::char_traits<char>, std::allocator<char> >, std::map<int, std::map<int, IEC104WF::stPointTable, std::less<int>, std::allocator<std::pair<const int, IEC104WF::stPointTable> > >, std::less<int>, std::allocator<std::pair<const int, std::map<int, IEC104WF::stPointTable, std::less<int>, std::allocator<std::pair<const int, IEC104WF::stPointTable> > > > > > > >, std::less<std::basic_string<char, std::char_traits<char>, std::allocator<char> > >, std::allocator<std::pair<const std::basic_string<char, std::char_traits<char>, std::allocator<char> >, std::map<int, std::map<int, IEC104WF::stPointTable, std::less<int>, std::allocator<std::pair<const int, IEC104WF::stPointTable> > >, std::less<int>, std::allocator<std::pair<const int, std::map<int, IEC104WF::stPointTable, std::less<int>, std::allocator<std::pair<const int, IEC104WF::stPointTable> > > > > > > > >::_Rb_tree
FUNC 77aee 21 0 std::_List_base<std::basic_string<char, std::char_traits<char>, std::allocator<char> >, std::allocator<std::basic_string<char, std::char_traits<char>, std::allocator<char> > > >::_M_init
FUNC 77b10 e 0 std::_List_base<std::basic_string<char, std::char_traits<char>, std::allocator<char> >, std::allocator<std::basic_string<char, std::char_traits<char>, std::allocator<char> > > >::_M_get_Node_allocator
FUNC 77b1e 1e 0 std::allocator<std::basic_string<char, std::char_traits<char>, std::allocator<char> > >::allocator<std::_List_node<std::basic_string<char, std::char_traits<char>, std::allocator<char> > > >
FUNC 77b3c 50 0 std::_List_base<std::basic_string<char, std::char_traits<char>, std::allocator<char> >, std::allocator<std::basic_string<char, std::char_traits<char>, std::allocator<char> > > >::_List_base
FUNC 77b8c 28 0 std::list<std::basic_string<char, std::char_traits<char>, std::allocator<char> >, std::allocator<std::basic_string<char, std::char_traits<char>, std::allocator<char> > > >::begin
FUNC 77bb4 25 0 std::list<std::basic_string<char, std::char_traits<char>, std::allocator<char> >, std::allocator<std::basic_string<char, std::char_traits<char>, std::allocator<char> > > >::end
FUNC 77bda 59 0 std::list<std::basic_string<char, std::char_traits<char>, std::allocator<char> >, std::allocator<std::basic_string<char, std::char_traits<char>, std::allocator<char> > > >::_M_initialize_dispatch<std::_List_const_iterator<std::basic_string<char, std::char_traits<char>, std::allocator<char> > > >
FUNC 77c34 25 0 std::map<std::basic_string<char, std::char_traits<char>, std::allocator<char> >, IEC61850_STRUCT::IED_61850, std::less<std::basic_string<char, std::char_traits<char>, std::allocator<char> > >, std::allocator<std::pair<const std::basic_string<char, std::char_traits<char>, std::allocator<char> >, IEC61850_STRUCT::IED_61850> > >::lower_bound
FUNC 77c5a 1a 0 std::map<std::basic_string<char, std::char_traits<char>, std::allocator<char> >, IEC61850_STRUCT::IED_61850, std::less<std::basic_string<char, std::char_traits<char>, std::allocator<char> > >, std::allocator<std::pair<const std::basic_string<char, std::char_traits<char>, std::allocator<char> >, IEC61850_STRUCT::IED_61850> > >::key_comp
FUNC 77c74 15 0 std::_Rb_tree_iterator<std::pair<const std::basic_string<char, std::char_traits<char>, std::allocator<char> >, IEC61850_STRUCT::IED_61850> >::operator*
FUNC 77c8a 1a 0 std::map<std::basic_string<char, std::char_traits<char>, std::allocator<char> >, IEC61850_STRUCT::IED_61850, std::less<std::basic_string<char, std::char_traits<char>, std::allocator<char> > >, std::allocator<std::pair<const std::basic_string<char, std::char_traits<char>, std::allocator<char> >, IEC61850_STRUCT::IED_61850> > >::end
FUNC 77ca4 22 0 std::_Rb_tree_iterator<std::pair<const std::basic_string<char, std::char_traits<char>, std::allocator<char> >, IEC61850_STRUCT::IED_61850> >::operator==
FUNC 77cc6 1dc 0 IEC61850_STRUCT::IED_61850::IED_61850
FUNC 77ea2 6b 0 std::pair<const std::basic_string<char, std::char_traits<char>, std::allocator<char> >, IEC61850_STRUCT::IED_61850>::pair
FUNC 77f0e 40 0 std::map<std::basic_string<char, std::char_traits<char>, std::allocator<char> >, IEC61850_STRUCT::IED_61850, std::less<std::basic_string<char, std::char_traits<char>, std::allocator<char> > >, std::allocator<std::pair<const std::basic_string<char, std::char_traits<char>, std::allocator<char> >, IEC61850_STRUCT::IED_61850> > >::insert
FUNC 77f4e f8 0 std::_Rb_tree<std::basic_string<char, std::char_traits<char>, std::allocator<char> >, std::pair<const std::basic_string<char, std::char_traits<char>, std::allocator<char> >, std::basic_string<char, std::char_traits<char>, std::allocator<char> > >, std::_Select1st<std::pair<const std::basic_string<char, std::char_traits<char>, std::allocator<char> >, std::basic_string<char, std::char_traits<char>, std::allocator<char> > > >, std::less<std::basic_string<char, std::char_traits<char>, std::allocator<char> > >, std::allocator<std::pair<const std::basic_string<char, std::char_traits<char>, std::allocator<char> >, std::basic_string<char, std::char_traits<char>, std::allocator<char> > > > >::operator=
FUNC 78046 25 0 std::map<int, IEC104WF::stPointTable, std::less<int>, std::allocator<std::pair<const int, IEC104WF::stPointTable> > >::lower_bound
FUNC 7806c 1a 0 std::map<int, IEC104WF::stPointTable, std::less<int>, std::allocator<std::pair<const int, IEC104WF::stPointTable> > >::key_comp
FUNC 78086 15 0 std::_Rb_tree_iterator<std::pair<const int, IEC104WF::stPointTable> >::operator*
FUNC 7809c 23 0 std::less<int>::operator()
FUNC 780c0 1a 0 std::map<int, IEC104WF::stPointTable, std::less<int>, std::allocator<std::pair<const int, IEC104WF::stPointTable> > >::end
FUNC 780da 22 0 std::_Rb_tree_iterator<std::pair<const int, IEC104WF::stPointTable> >::operator==
FUNC 780fc 41 0 IEC104WF::stPointTable::stPointTable
FUNC 7813e 39 0 std::pair<const int, IEC104WF::stPointTable>::pair
FUNC 78178 40 0 std::map<int, IEC104WF::stPointTable, std::less<int>, std::allocator<std::pair<const int, IEC104WF::stPointTable> > >::insert
FUNC 781b8 25 0 std::map<int, std::map<int, IEC104WF::stPointTable, std::less<int>, std::allocator<std::pair<const int, IEC104WF::stPointTable> > >, std::less<int>, std::allocator<std::pair<const int, std::map<int, IEC104WF::stPointTable, std::less<int>, std::allocator<std::pair<const int, IEC104WF::stPointTable> > > > > >::lower_bound
FUNC 781de 1a 0 std::map<int, std::map<int, IEC104WF::stPointTable, std::less<int>, std::allocator<std::pair<const int, IEC104WF::stPointTable> > >, std::less<int>, std::allocator<std::pair<const int, std::map<int, IEC104WF::stPointTable, std::less<int>, std::allocator<std::pair<const int, IEC104WF::stPointTable> > > > > >::key_comp
FUNC 781f8 15 0 std::_Rb_tree_iterator<std::pair<const int, std::map<int, IEC104WF::stPointTable, std::less<int>, std::allocator<std::pair<const int, IEC104WF::stPointTable> > > > >::operator*
FUNC 7820e 1a 0 std::map<int, std::map<int, IEC104WF::stPointTable, std::less<int>, std::allocator<std::pair<const int, IEC104WF::stPointTable> > >, std::less<int>, std::allocator<std::pair<const int, std::map<int, IEC104WF::stPointTable, std::less<int>, std::allocator<std::pair<const int, IEC104WF::stPointTable> > > > > >::end
FUNC 78228 22 0 std::_Rb_tree_iterator<std::pair<const int, std::map<int, IEC104WF::stPointTable, std::less<int>, std::allocator<std::pair<const int, IEC104WF::stPointTable> > > > >::operator==
FUNC 7824a 39 0 std::pair<const int, std::map<int, IEC104WF::stPointTable, std::less<int>, std::allocator<std::pair<const int, IEC104WF::stPointTable> > > >::pair
FUNC 78284 40 0 std::map<int, std::map<int, IEC104WF::stPointTable, std::less<int>, std::allocator<std::pair<const int, IEC104WF::stPointTable> > >, std::less<int>, std::allocator<std::pair<const int, std::map<int, IEC104WF::stPointTable, std::less<int>, std::allocator<std::pair<const int, IEC104WF::stPointTable> > > > > >::insert
FUNC 782c4 f8 0 std::_Rb_tree<int, std::pair<const int, IEC104WF::stPointTable>, std::_Select1st<std::pair<const int, IEC104WF::stPointTable> >, std::less<int>, std::allocator<std::pair<const int, IEC104WF::stPointTable> > >::operator=
FUNC 783bc 25 0 std::map<std::basic_string<char, std::char_traits<char>, std::allocator<char> >, std::map<int, std::map<int, IEC104WF::stPointTable, std::less<int>, std::allocator<std::pair<const int, IEC104WF::stPointTable> > >, std::less<int>, std::allocator<std::pair<const int, std::map<int, IEC104WF::stPointTable, std::less<int>, std::allocator<std::pair<const int, IEC104WF::stPointTable> > > > > >, std::less<std::basic_string<char, std::char_traits<char>, std::allocator<char> > >, std::allocator<std::pair<const std::basic_string<char, std::char_traits<char>, std::allocator<char> >, std::map<int, std::map<int, IEC104WF::stPointTable, std::less<int>, std::allocator<std::pair<const int, IEC104WF::stPointTable> > >, std::less<int>, std::allocator<std::pair<const int, std::map<int, IEC104WF::stPointTable, std::less<int>, std::allocator<std::pair<const int, IEC104WF::stPointTable> > > > > > > > >::lower_bound
FUNC 783e2 1a 0 std::map<std::basic_string<char, std::char_traits<char>, std::allocator<char> >, std::map<int, std::map<int, IEC104WF::stPointTable, std::less<int>, std::allocator<std::pair<const int, IEC104WF::stPointTable> > >, std::less<int>, std::allocator<std::pair<const int, std::map<int, IEC104WF::stPointTable, std::less<int>, std::allocator<std::pair<const int, IEC104WF::stPointTable> > > > > >, std::less<std::basic_string<char, std::char_traits<char>, std::allocator<char> > >, std::allocator<std::pair<const std::basic_string<char, std::char_traits<char>, std::allocator<char> >, std::map<int, std::map<int, IEC104WF::stPointTable, std::less<int>, std::allocator<std::pair<const int, IEC104WF::stPointTable> > >, std::less<int>, std::allocator<std::pair<const int, std::map<int, IEC104WF::stPointTable, std::less<int>, std::allocator<std::pair<const int, IEC104WF::stPointTable> > > > > > > > >::key_comp
FUNC 783fc 15 0 std::_Rb_tree_iterator<std::pair<const std::basic_string<char, std::char_traits<char>, std::allocator<char> >, std::map<int, std::map<int, IEC104WF::stPointTable, std::less<int>, std::allocator<std::pair<const int, IEC104WF::stPointTable> > >, std::less<int>, std::allocator<std::pair<const int, std::map<int, IEC104WF::stPointTable, std::less<int>, std::allocator<std::pair<const int, IEC104WF::stPointTable> > > > > > > >::operator*
FUNC 78412 1a 0 std::map<std::basic_string<char, std::char_traits<char>, std::allocator<char> >, std::map<int, std::map<int, IEC104WF::stPointTable, std::less<int>, std::allocator<std::pair<const int, IEC104WF::stPointTable> > >, std::less<int>, std::allocator<std::pair<const int, std::map<int, IEC104WF::stPointTable, std::less<int>, std::allocator<std::pair<const int, IEC104WF::stPointTable> > > > > >, std::less<std::basic_string<char, std::char_traits<char>, std::allocator<char> > >, std::allocator<std::pair<const std::basic_string<char, std::char_traits<char>, std::allocator<char> >, std::map<int, std::map<int, IEC104WF::stPointTable, std::less<int>, std::allocator<std::pair<const int, IEC104WF::stPointTable> > >, std::less<int>, std::allocator<std::pair<const int, std::map<int, IEC104WF::stPointTable, std::less<int>, std::allocator<std::pair<const int, IEC104WF::stPointTable> > > > > > > > >::end
FUNC 7842c 22 0 std::_Rb_tree_iterator<std::pair<const std::basic_string<char, std::char_traits<char>, std::allocator<char> >, std::map<int, std::map<int, IEC104WF::stPointTable, std::less<int>, std::allocator<std::pair<const int, IEC104WF::stPointTable> > >, std::less<int>, std::allocator<std::pair<const int, std::map<int, IEC104WF::stPointTable, std::less<int>, std::allocator<std::pair<const int, IEC104WF::stPointTable> > > > > > > >::operator==
FUNC 7844e 6b 0 std::pair<const std::basic_string<char, std::char_traits<char>, std::allocator<char> >, std::map<int, std::map<int, IEC104WF::stPointTable, std::less<int>, std::allocator<std::pair<const int, IEC104WF::stPointTable> > >, std::less<int>, std::allocator<std::pair<const int, std::map<int, IEC104WF::stPointTable, std::less<int>, std::allocator<std::pair<const int, IEC104WF::stPointTable> > > > > > >::pair
FUNC 784ba 40 0 std::map<std::basic_string<char, std::char_traits<char>, std::allocator<char> >, std::map<int, std::map<int, IEC104WF::stPointTable, std::less<int>, std::allocator<std::pair<const int, IEC104WF::stPointTable> > >, std::less<int>, std::allocator<std::pair<const int, std::map<int, IEC104WF::stPointTable, std::less<int>, std::allocator<std::pair<const int, IEC104WF::stPointTable> > > > > >, std::less<std::basic_string<char, std::char_traits<char>, std::allocator<char> > >, std::allocator<std::pair<const std::basic_string<char, std::char_traits<char>, std::allocator<char> >, std::map<int, std::map<int, IEC104WF::stPointTable, std::less<int>, std::allocator<std::pair<const int, IEC104WF::stPointTable> > >, std::less<int>, std::allocator<std::pair<const int, std::map<int, IEC104WF::stPointTable, std::less<int>, std::allocator<std::pair<const int, IEC104WF::stPointTable> > > > > > > > >::insert
FUNC 784fa f8 0 std::_Rb_tree<int, std::pair<const int, std::map<int, IEC104WF::stPointTable, std::less<int>, std::allocator<std::pair<const int, IEC104WF::stPointTable> > > >, std::_Select1st<std::pair<const int, std::map<int, IEC104WF::stPointTable, std::less<int>, std::allocator<std::pair<const int, IEC104WF::stPointTable> > > > >, std::less<int>, std::allocator<std::pair<const int, std::map<int, IEC104WF::stPointTable, std::less<int>, std::allocator<std::pair<const int, IEC104WF::stPointTable> > > > > >::operator=
FUNC 785f2 25 0 std::map<std::basic_string<char, std::char_traits<char>, std::allocator<char> >, IEC103::stConfigParam, std::less<std::basic_string<char, std::char_traits<char>, std::allocator<char> > >, std::allocator<std::pair<const std::basic_string<char, std::char_traits<char>, std::allocator<char> >, IEC103::stConfigParam> > >::lower_bound
FUNC 78618 1a 0 std::map<std::basic_string<char, std::char_traits<char>, std::allocator<char> >, IEC103::stConfigParam, std::less<std::basic_string<char, std::char_traits<char>, std::allocator<char> > >, std::allocator<std::pair<const std::basic_string<char, std::char_traits<char>, std::allocator<char> >, IEC103::stConfigParam> > >::key_comp
FUNC 78632 15 0 std::_Rb_tree_iterator<std::pair<const std::basic_string<char, std::char_traits<char>, std::allocator<char> >, IEC103::stConfigParam> >::operator*
FUNC 78648 1a 0 std::map<std::basic_string<char, std::char_traits<char>, std::allocator<char> >, IEC103::stConfigParam, std::less<std::basic_string<char, std::char_traits<char>, std::allocator<char> > >, std::allocator<std::pair<const std::basic_string<char, std::char_traits<char>, std::allocator<char> >, IEC103::stConfigParam> > >::end
FUNC 78662 22 0 std::_Rb_tree_iterator<std::pair<const std::basic_string<char, std::char_traits<char>, std::allocator<char> >, IEC103::stConfigParam> >::operator==
FUNC 78684 bf 0 IEC103::stConfigParam::stConfigParam
FUNC 78744 6b 0 std::pair<const std::basic_string<char, std::char_traits<char>, std::allocator<char> >, IEC103::stConfigParam>::pair
FUNC 787b0 40 0 std::map<std::basic_string<char, std::char_traits<char>, std::allocator<char> >, IEC103::stConfigParam, std::less<std::basic_string<char, std::char_traits<char>, std::allocator<char> > >, std::allocator<std::pair<const std::basic_string<char, std::char_traits<char>, std::allocator<char> >, IEC103::stConfigParam> > >::insert
FUNC 787f0 25 0 std::map<std::basic_string<char, std::char_traits<char>, std::allocator<char> >, std::map<std::basic_string<char, std::char_traits<char>, std::allocator<char> >, std::basic_string<char, std::char_traits<char>, std::allocator<char> >, std::less<std::basic_string<char, std::char_traits<char>, std::allocator<char> > >, std::allocator<std::pair<const std::basic_string<char, std::char_traits<char>, std::allocator<char> >, std::basic_string<char, std::char_traits<char>, std::allocator<char> > > > >, std::less<std::basic_string<char, std::char_traits<char>, std::allocator<char> > >, std::allocator<std::pair<const std::basic_string<char, std::char_traits<char>, std::allocator<char> >, std::map<std::basic_string<char, std::char_traits<char>, std::allocator<char> >, std::basic_string<char, std::char_traits<char>, std::allocator<char> >, std::less<std::basic_string<char, std::char_traits<char>, std::allocator<char> > >, std::allocator<std::pair<const std::basic_string<char, std::char_traits<char>, std::allocator<char> >, std::basic_string<char, std::char_traits<char>, std::allocator<char> > > > > > > >::lower_bound
FUNC 78816 1a 0 std::map<std::basic_string<char, std::char_traits<char>, std::allocator<char> >, std::map<std::basic_string<char, std::char_traits<char>, std::allocator<char> >, std::basic_string<char, std::char_traits<char>, std::allocator<char> >, std::less<std::basic_string<char, std::char_traits<char>, std::allocator<char> > >, std::allocator<std::pair<const std::basic_string<char, std::char_traits<char>, std::allocator<char> >, std::basic_string<char, std::char_traits<char>, std::allocator<char> > > > >, std::less<std::basic_string<char, std::char_traits<char>, std::allocator<char> > >, std::allocator<std::pair<const std::basic_string<char, std::char_traits<char>, std::allocator<char> >, std::map<std::basic_string<char, std::char_traits<char>, std::allocator<char> >, std::basic_string<char, std::char_traits<char>, std::allocator<char> >, std::less<std::basic_string<char, std::char_traits<char>, std::allocator<char> > >, std::allocator<std::pair<const std::basic_string<char, std::char_traits<char>, std::allocator<char> >, std::basic_string<char, std::char_traits<char>, std::allocator<char> > > > > > > >::key_comp
FUNC 78830 15 0 std::_Rb_tree_iterator<std::pair<const std::basic_string<char, std::char_traits<char>, std::allocator<char> >, std::map<std::basic_string<char, std::char_traits<char>, std::allocator<char> >, std::basic_string<char, std::char_traits<char>, std::allocator<char> >, std::less<std::basic_string<char, std::char_traits<char>, std::allocator<char> > >, std::allocator<std::pair<const std::basic_string<char, std::char_traits<char>, std::allocator<char> >, std::basic_string<char, std::char_traits<char>, std::allocator<char> > > > > > >::operator*
FUNC 78846 1a 0 std::map<std::basic_string<char, std::char_traits<char>, std::allocator<char> >, std::map<std::basic_string<char, std::char_traits<char>, std::allocator<char> >, std::basic_string<char, std::char_traits<char>, std::allocator<char> >, std::less<std::basic_string<char, std::char_traits<char>, std::allocator<char> > >, std::allocator<std::pair<const std::basic_string<char, std::char_traits<char>, std::allocator<char> >, std::basic_string<char, std::char_traits<char>, std::allocator<char> > > > >, std::less<std::basic_string<char, std::char_traits<char>, std::allocator<char> > >, std::allocator<std::pair<const std::basic_string<char, std::char_traits<char>, std::allocator<char> >, std::map<std::basic_string<char, std::char_traits<char>, std::allocator<char> >, std::basic_string<char, std::char_traits<char>, std::allocator<char> >, std::less<std::basic_string<char, std::char_traits<char>, std::allocator<char> > >, std::allocator<std::pair<const std::basic_string<char, std::char_traits<char>, std::allocator<char> >, std::basic_string<char, std::char_traits<char>, std::allocator<char> > > > > > > >::end
FUNC 78860 22 0 std::_Rb_tree_iterator<std::pair<const std::basic_string<char, std::char_traits<char>, std::allocator<char> >, std::map<std::basic_string<char, std::char_traits<char>, std::allocator<char> >, std::basic_string<char, std::char_traits<char>, std::allocator<char> >, std::less<std::basic_string<char, std::char_traits<char>, std::allocator<char> > >, std::allocator<std::pair<const std::basic_string<char, std::char_traits<char>, std::allocator<char> >, std::basic_string<char, std::char_traits<char>, std::allocator<char> > > > > > >::operator==
FUNC 78882 6b 0 std::pair<const std::basic_string<char, std::char_traits<char>, std::allocator<char> >, std::map<std::basic_string<char, std::char_traits<char>, std::allocator<char> >, std::basic_string<char, std::char_traits<char>, std::allocator<char> >, std::less<std::basic_string<char, std::char_traits<char>, std::allocator<char> > >, std::allocator<std::pair<const std::basic_string<char, std::char_traits<char>, std::allocator<char> >, std::basic_string<char, std::char_traits<char>, std::allocator<char> > > > > >::pair
FUNC 788ee 40 0 std::map<std::basic_string<char, std::char_traits<char>, std::allocator<char> >, std::map<std::basic_string<char, std::char_traits<char>, std::allocator<char> >, std::basic_string<char, std::char_traits<char>, std::allocator<char> >, std::less<std::basic_string<char, std::char_traits<char>, std::allocator<char> > >, std::allocator<std::pair<const std::basic_string<char, std::char_traits<char>, std::allocator<char> >, std::basic_string<char, std::char_traits<char>, std::allocator<char> > > > >, std::less<std::basic_string<char, std::char_traits<char>, std::allocator<char> > >, std::allocator<std::pair<const std::basic_string<char, std::char_traits<char>, std::allocator<char> >, std::map<std::basic_string<char, std::char_traits<char>, std::allocator<char> >, std::basic_string<char, std::char_traits<char>, std::allocator<char> >, std::less<std::basic_string<char, std::char_traits<char>, std::allocator<char> > >, std::allocator<std::pair<const std::basic_string<char, std::char_traits<char>, std::allocator<char> >, std::basic_string<char, std::char_traits<char>, std::allocator<char> > > > > > > >::insert
FUNC 7892e 25 0 std::list<std::basic_string<char, std::char_traits<char>, std::allocator<char> >, std::allocator<std::basic_string<char, std::char_traits<char>, std::allocator<char> > > >::end
FUNC 78954 40 0 std::list<std::basic_string<char, std::char_traits<char>, std::allocator<char> >, std::allocator<std::basic_string<char, std::char_traits<char>, std::allocator<char> > > >::_M_insert
FUNC 78994 61 0 std::_Rb_tree<std::basic_string<char, std::char_traits<char>, std::allocator<char> >, std::pair<const std::basic_string<char, std::char_traits<char>, std::allocator<char> >, IEC61850_STRUCT::IED_61850>, std::_Select1st<std::pair<const std::basic_string<char, std::char_traits<char>, std::allocator<char> >, IEC61850_STRUCT::IED_61850> >, std::less<std::basic_string<char, std::char_traits<char>, std::allocator<char> > >, std::allocator<std::pair<const std::basic_string<char, std::char_traits<char>, std::allocator<char> >, IEC61850_STRUCT::IED_61850> > >::_Rb_tree_impl<std::less<std::basic_string<char, std::char_traits<char>, std::allocator<char> > >, false>::_Rb_tree_impl
FUNC 789f6 a 0 __gnu_cxx::new_allocator<std::_Rb_tree_node<std::pair<const std::basic_string<char, std::char_traits<char>, std::allocator<char> >, IEC61850_STRUCT::IED_61850> > >::~new_allocator
FUNC 78a00 12 0 std::_Rb_tree<std::basic_string<char, std::char_traits<char>, std::allocator<char> >, std::pair<const std::basic_string<char, std::char_traits<char>, std::allocator<char> >, IEC61850_STRUCT::IED_61850>, std::_Select1st<std::pair<const std::basic_string<char, std::char_traits<char>, std::allocator<char> >, IEC61850_STRUCT::IED_61850> >, std::less<std::basic_string<char, std::char_traits<char>, std::allocator<char> > >, std::allocator<std::pair<const std::basic_string<char, std::char_traits<char>, std::allocator<char> >, IEC61850_STRUCT::IED_61850> > >::_S_right
FUNC 78a12 12 0 std::_Rb_tree<std::basic_string<char, std::char_traits<char>, std::allocator<char> >, std::pair<const std::basic_string<char, std::char_traits<char>, std::allocator<char> >, IEC61850_STRUCT::IED_61850>, std::_Select1st<std::pair<const std::basic_string<char, std::char_traits<char>, std::allocator<char> >, IEC61850_STRUCT::IED_61850> >, std::less<std::basic_string<char, std::char_traits<char>, std::allocator<char> > >, std::allocator<std::pair<const std::basic_string<char, std::char_traits<char>, std::allocator<char> >, IEC61850_STRUCT::IED_61850> > >::_S_left
FUNC 78a24 86 0 std::_Rb_tree<std::basic_string<char, std::char_traits<char>, std::allocator<char> >, std::pair<const std::basic_string<char, std::char_traits<char>, std::allocator<char> >, IEC61850_STRUCT::IED_61850>, std::_Select1st<std::pair<const std::basic_string<char, std::char_traits<char>, std::allocator<char> >, IEC61850_STRUCT::IED_61850> >, std::less<std::basic_string<char, std::char_traits<char>, std::allocator<char> > >, std::allocator<std::pair<const std::basic_string<char, std::char_traits<char>, std::allocator<char> >, IEC61850_STRUCT::IED_61850> > >::_M_destroy_node
FUNC 78aaa 31 0 std::_List_base<std::basic_string<char, std::char_traits<char>, std::allocator<char> >, std::allocator<std::basic_string<char, std::char_traits<char>, std::allocator<char> > > >::_List_impl::_List_impl
FUNC 78adc a 0 __gnu_cxx::new_allocator<std::_List_node<std::basic_string<char, std::char_traits<char>, std::allocator<char> > > >::~new_allocator
FUNC 78ae6 3b 0 std::_List_base<std::basic_string<char, std::char_traits<char>, std::allocator<char> >, std::allocator<std::basic_string<char, std::char_traits<char>, std::allocator<char> > > >::_M_get_Tp_allocator
FUNC 78b22 2a 0 std::_List_base<std::basic_string<char, std::char_traits<char>, std::allocator<char> >, std::allocator<std::basic_string<char, std::char_traits<char>, std::allocator<char> > > >::_M_put_node
FUNC 78b4c 61 0 std::_Rb_tree<std::basic_string<char, std::char_traits<char>, std::allocator<char> >, std::pair<const std::basic_string<char, std::char_traits<char>, std::allocator<char> >, std::map<int, std::map<int, IEC104WF::stPointTable, std::less<int>, std::allocator<std::pair<const int, IEC104WF::stPointTable> > >, std::less<int>, std::allocator<std::pair<const int, std::map<int, IEC104WF::stPointTable, std::less<int>, std::allocator<std::pair<const int, IEC104WF::stPointTable> > > > > > >, std::_Select1st<std::pair<const std::basic_string<char, std::char_traits<char>, std::allocator<char> >, std::map<int, std::map<int, IEC104WF::stPointTable, std::less<int>, std::allocator<std::pair<const int, IEC104WF::stPointTable> > >, std::less<int>, std::allocator<std::pair<const int, std::map<int, IEC104WF::stPointTable, std::less<int>, std::allocator<std::pair<const int, IEC104WF::stPointTable> > > > > > > >, std::less<std::basic_string<char, std::char_traits<char>, std::allocator<char> > >, std::allocator<std::pair<const std::basic_string<char, std::char_traits<char>, std::allocator<char> >, std::map<int, std::map<int, IEC104WF::stPointTable, std::less<int>, std::allocator<std::pair<const int, IEC104WF::stPointTable> > >, std::less<int>, std::allocator<std::pair<const int, std::map<int, IEC104WF::stPointTable, std::less<int>, std::allocator<std::pair<const int, IEC104WF::stPointTable> > > > > > > > >::_Rb_tree_impl<std::less<std::basic_string<char, std::char_traits<char>, std::allocator<char> > >, false>::_Rb_tree_impl
FUNC 78bae a 0 __gnu_cxx::new_allocator<std::_Rb_tree_node<std::pair<const std::basic_string<char, std::char_traits<char>, std::allocator<char> >, std::map<int, std::map<int, IEC104WF::stPointTable, std::less<int>, std::allocator<std::pair<const int, IEC104WF::stPointTable> > >, std::less<int>, std::allocator<std::pair<const int, std::map<int, IEC104WF::stPointTable, std::less<int>, std::allocator<std::pair<const int, IEC104WF::stPointTable> > > > > > > > >::~new_allocator
FUNC 78bb8 12 0 std::_Rb_tree<std::basic_string<char, std::char_traits<char>, std::allocator<char> >, std::pair<const std::basic_string<char, std::char_traits<char>, std::allocator<char> >, std::map<int, std::map<int, IEC104WF::stPointTable, std::less<int>, std::allocator<std::pair<const int, IEC104WF::stPointTable> > >, std::less<int>, std::allocator<std::pair<const int, std::map<int, IEC104WF::stPointTable, std::less<int>, std::allocator<std::pair<const int, IEC104WF::stPointTable> > > > > > >, std::_Select1st<std::pair<const std::basic_string<char, std::char_traits<char>, std::allocator<char> >, std::map<int, std::map<int, IEC104WF::stPointTable, std::less<int>, std::allocator<std::pair<const int, IEC104WF::stPointTable> > >, std::less<int>, std::allocator<std::pair<const int, std::map<int, IEC104WF::stPointTable, std::less<int>, std::allocator<std::pair<const int, IEC104WF::stPointTable> > > > > > > >, std::less<std::basic_string<char, std::char_traits<char>, std::allocator<char> > >, std::allocator<std::pair<const std::basic_string<char, std::char_traits<char>, std::allocator<char> >, std::map<int, std::map<int, IEC104WF::stPointTable, std::less<int>, std::allocator<std::pair<const int, IEC104WF::stPointTable> > >, std::less<int>, std::allocator<std::pair<const int, std::map<int, IEC104WF::stPointTable, std::less<int>, std::allocator<std::pair<const int, IEC104WF::stPointTable> > > > > > > > >::_S_right
FUNC 78bca 12 0 std::_Rb_tree<std::basic_string<char, std::char_traits<char>, std::allocator<char> >, std::pair<const std::basic_string<char, std::char_traits<char>, std::allocator<char> >, std::map<int, std::map<int, IEC104WF::stPointTable, std::less<int>, std::allocator<std::pair<const int, IEC104WF::stPointTable> > >, std::less<int>, std::allocator<std::pair<const int, std::map<int, IEC104WF::stPointTable, std::less<int>, std::allocator<std::pair<const int, IEC104WF::stPointTable> > > > > > >, std::_Select1st<std::pair<const std::basic_string<char, std::char_traits<char>, std::allocator<char> >, std::map<int, std::map<int, IEC104WF::stPointTable, std::less<int>, std::allocator<std::pair<const int, IEC104WF::stPointTable> > >, std::less<int>, std::allocator<std::pair<const int, std::map<int, IEC104WF::stPointTable, std::less<int>, std::allocator<std::pair<const int, IEC104WF::stPointTable> > > > > > > >, std::less<std::basic_string<char, std::char_traits<char>, std::allocator<char> > >, std::allocator<std::pair<const std::basic_string<char, std::char_traits<char>, std::allocator<char> >, std::map<int, std::map<int, IEC104WF::stPointTable, std::less<int>, std::allocator<std::pair<const int, IEC104WF::stPointTable> > >, std::less<int>, std::allocator<std::pair<const int, std::map<int, IEC104WF::stPointTable, std::less<int>, std::allocator<std::pair<const int, IEC104WF::stPointTable> > > > > > > > >::_S_left
FUNC 78bdc 86 0 std::_Rb_tree<std::basic_string<char, std::char_traits<char>, std::allocator<char> >, std::pair<const std::basic_string<char, std::char_traits<char>, std::allocator<char> >, std::map<int, std::map<int, IEC104WF::stPointTable, std::less<int>, std::allocator<std::pair<const int, IEC104WF::stPointTable> > >, std::less<int>, std::allocator<std::pair<const int, std::map<int, IEC104WF::stPointTable, std::less<int>, std::allocator<std::pair<const int, IEC104WF::stPointTable> > > > > > >, std::_Select1st<std::pair<const std::basic_string<char, std::char_traits<char>, std::allocator<char> >, std::map<int, std::map<int, IEC104WF::stPointTable, std::less<int>, std::allocator<std::pair<const int, IEC104WF::stPointTable> > >, std::less<int>, std::allocator<std::pair<const int, std::map<int, IEC104WF::stPointTable, std::less<int>, std::allocator<std::pair<const int, IEC104WF::stPointTable> > > > > > > >, std::less<std::basic_string<char, std::char_traits<char>, std::allocator<char> > >, std::allocator<std::pair<const std::basic_string<char, std::char_traits<char>, std::allocator<char> >, std::map<int, std::map<int, IEC104WF::stPointTable, std::less<int>, std::allocator<std::pair<const int, IEC104WF::stPointTable> > >, std::less<int>, std::allocator<std::pair<const int, std::map<int, IEC104WF::stPointTable, std::less<int>, std::allocator<std::pair<const int, IEC104WF::stPointTable> > > > > > > > >::_M_destroy_node
FUNC 78c62 61 0 std::_Rb_tree<int, std::pair<const int, std::map<int, IEC104WF::stPointTable, std::less<int>, std::allocator<std::pair<const int, IEC104WF::stPointTable> > > >, std::_Select1st<std::pair<const int, std::map<int, IEC104WF::stPointTable, std::less<int>, std::allocator<std::pair<const int, IEC104WF::stPointTable> > > > >, std::less<int>, std::allocator<std::pair<const int, std::map<int, IEC104WF::stPointTable, std::less<int>, std::allocator<std::pair<const int, IEC104WF::stPointTable> > > > > >::_Rb_tree_impl<std::less<int>, false>::_Rb_tree_impl
FUNC 78cc4 a 0 __gnu_cxx::new_allocator<std::_Rb_tree_node<std::pair<const int, std::map<int, IEC104WF::stPointTable, std::less<int>, std::allocator<std::pair<const int, IEC104WF::stPointTable> > > > > >::~new_allocator
FUNC 78cce 12 0 std::_Rb_tree<int, std::pair<const int, std::map<int, IEC104WF::stPointTable, std::less<int>, std::allocator<std::pair<const int, IEC104WF::stPointTable> > > >, std::_Select1st<std::pair<const int, std::map<int, IEC104WF::stPointTable, std::less<int>, std::allocator<std::pair<const int, IEC104WF::stPointTable> > > > >, std::less<int>, std::allocator<std::pair<const int, std::map<int, IEC104WF::stPointTable, std::less<int>, std::allocator<std::pair<const int, IEC104WF::stPointTable> > > > > >::_S_right
FUNC 78ce0 12 0 std::_Rb_tree<int, std::pair<const int, std::map<int, IEC104WF::stPointTable, std::less<int>, std::allocator<std::pair<const int, IEC104WF::stPointTable> > > >, std::_Select1st<std::pair<const int, std::map<int, IEC104WF::stPointTable, std::less<int>, std::allocator<std::pair<const int, IEC104WF::stPointTable> > > > >, std::less<int>, std::allocator<std::pair<const int, std::map<int, IEC104WF::stPointTable, std::less<int>, std::allocator<std::pair<const int, IEC104WF::stPointTable> > > > > >::_S_left
FUNC 78cf2 86 0 std::_Rb_tree<int, std::pair<const int, std::map<int, IEC104WF::stPointTable, std::less<int>, std::allocator<std::pair<const int, IEC104WF::stPointTable> > > >, std::_Select1st<std::pair<const int, std::map<int, IEC104WF::stPointTable, std::less<int>, std::allocator<std::pair<const int, IEC104WF::stPointTable> > > > >, std::less<int>, std::allocator<std::pair<const int, std::map<int, IEC104WF::stPointTable, std::less<int>, std::allocator<std::pair<const int, IEC104WF::stPointTable> > > > > >::_M_destroy_node
FUNC 78d78 61 0 std::_Rb_tree<int, std::pair<const int, IEC104WF::stPointTable>, std::_Select1st<std::pair<const int, IEC104WF::stPointTable> >, std::less<int>, std::allocator<std::pair<const int, IEC104WF::stPointTable> > >::_Rb_tree_impl<std::less<int>, false>::_Rb_tree_impl
FUNC 78dda a 0 __gnu_cxx::new_allocator<std::_Rb_tree_node<std::pair<const int, IEC104WF::stPointTable> > >::~new_allocator
FUNC 78de4 12 0 std::_Rb_tree<int, std::pair<const int, IEC104WF::stPointTable>, std::_Select1st<std::pair<const int, IEC104WF::stPointTable> >, std::less<int>, std::allocator<std::pair<const int, IEC104WF::stPointTable> > >::_S_right
FUNC 78df6 12 0 std::_Rb_tree<int, std::pair<const int, IEC104WF::stPointTable>, std::_Select1st<std::pair<const int, IEC104WF::stPointTable> >, std::less<int>, std::allocator<std::pair<const int, IEC104WF::stPointTable> > >::_S_left
FUNC 78e08 86 0 std::_Rb_tree<int, std::pair<const int, IEC104WF::stPointTable>, std::_Select1st<std::pair<const int, IEC104WF::stPointTable> >, std::less<int>, std::allocator<std::pair<const int, IEC104WF::stPointTable> > >::_M_destroy_node
FUNC 78e8e 61 0 std::_Rb_tree<std::basic_string<char, std::char_traits<char>, std::allocator<char> >, std::pair<const std::basic_string<char, std::char_traits<char>, std::allocator<char> >, IEC103::stConfigParam>, std::_Select1st<std::pair<const std::basic_string<char, std::char_traits<char>, std::allocator<char> >, IEC103::stConfigParam> >, std::less<std::basic_string<char, std::char_traits<char>, std::allocator<char> > >, std::allocator<std::pair<const std::basic_string<char, std::char_traits<char>, std::allocator<char> >, IEC103::stConfigParam> > >::_Rb_tree_impl<std::less<std::basic_string<char, std::char_traits<char>, std::allocator<char> > >, false>::_Rb_tree_impl
FUNC 78ef0 61 0 std::_Rb_tree<std::basic_string<char, std::char_traits<char>, std::allocator<char> >, std::pair<const std::basic_string<char, std::char_traits<char>, std::allocator<char> >, std::map<std::basic_string<char, std::char_traits<char>, std::allocator<char> >, std::basic_string<char, std::char_traits<char>, std::allocator<char> >, std::less<std::basic_string<char, std::char_traits<char>, std::allocator<char> > >, std::allocator<std::pair<const std::basic_string<char, std::char_traits<char>, std::allocator<char> >, std::basic_string<char, std::char_traits<char>, std::allocator<char> > > > > >, std::_Select1st<std::pair<const std::basic_string<char, std::char_traits<char>, std::allocator<char> >, std::map<std::basic_string<char, std::char_traits<char>, std::allocator<char> >, std::basic_string<char, std::char_traits<char>, std::allocator<char> >, std::less<std::basic_string<char, std::char_traits<char>, std::allocator<char> > >, std::allocator<std::pair<const std::basic_string<char, std::char_traits<char>, std::allocator<char> >, std::basic_string<char, std::char_traits<char>, std::allocator<char> > > > > > >, std::less<std::basic_string<char, std::char_traits<char>, std::allocator<char> > >, std::allocator<std::pair<const std::basic_string<char, std::char_traits<char>, std::allocator<char> >, std::map<std::basic_string<char, std::char_traits<char>, std::allocator<char> >, std::basic_string<char, std::char_traits<char>, std::allocator<char> >, std::less<std::basic_string<char, std::char_traits<char>, std::allocator<char> > >, std::allocator<std::pair<const std::basic_string<char, std::char_traits<char>, std::allocator<char> >, std::basic_string<char, std::char_traits<char>, std::allocator<char> > > > > > > >::_Rb_tree_impl<std::less<std::basic_string<char, std::char_traits<char>, std::allocator<char> > >, false>::_Rb_tree_impl
FUNC 78f52 12 0 std::_Rb_tree<std::basic_string<char, std::char_traits<char>, std::allocator<char> >, std::pair<const std::basic_string<char, std::char_traits<char>, std::allocator<char> >, IEC61850_STRUCT::IED_61850>, std::_Select1st<std::pair<const std::basic_string<char, std::char_traits<char>, std::allocator<char> >, IEC61850_STRUCT::IED_61850> >, std::less<std::basic_string<char, std::char_traits<char>, std::allocator<char> > >, std::allocator<std::pair<const std::basic_string<char, std::char_traits<char>, std::allocator<char> >, IEC61850_STRUCT::IED_61850> > >::_M_end
FUNC 78f64 12 0 std::_Rb_tree<std::basic_string<char, std::char_traits<char>, std::allocator<char> >, std::pair<const std::basic_string<char, std::char_traits<char>, std::allocator<char> >, IEC61850_STRUCT::IED_61850>, std::_Select1st<std::pair<const std::basic_string<char, std::char_traits<char>, std::allocator<char> >, IEC61850_STRUCT::IED_61850> >, std::less<std::basic_string<char, std::char_traits<char>, std::allocator<char> > >, std::allocator<std::pair<const std::basic_string<char, std::char_traits<char>, std::allocator<char> >, IEC61850_STRUCT::IED_61850> > >::_M_leftmost
FUNC 78f76 12 0 std::_Rb_tree<std::basic_string<char, std::char_traits<char>, std::allocator<char> >, std::pair<const std::basic_string<char, std::char_traits<char>, std::allocator<char> >, IEC61850_STRUCT::IED_61850>, std::_Select1st<std::pair<const std::basic_string<char, std::char_traits<char>, std::allocator<char> >, IEC61850_STRUCT::IED_61850> >, std::less<std::basic_string<char, std::char_traits<char>, std::allocator<char> > >, std::allocator<std::pair<const std::basic_string<char, std::char_traits<char>, std::allocator<char> >, IEC61850_STRUCT::IED_61850> > >::_M_root
FUNC 78f88 12 0 std::_Rb_tree<std::basic_string<char, std::char_traits<char>, std::allocator<char> >, std::pair<const std::basic_string<char, std::char_traits<char>, std::allocator<char> >, IEC61850_STRUCT::IED_61850>, std::_Select1st<std::pair<const std::basic_string<char, std::char_traits<char>, std::allocator<char> >, IEC61850_STRUCT::IED_61850> >, std::less<std::basic_string<char, std::char_traits<char>, std::allocator<char> > >, std::allocator<std::pair<const std::basic_string<char, std::char_traits<char>, std::allocator<char> >, IEC61850_STRUCT::IED_61850> > >::_M_rightmost
FUNC 78f9a e 0 std::_Rb_tree<std::basic_string<char, std::char_traits<char>, std::allocator<char> >, std::pair<const std::basic_string<char, std::char_traits<char>, std::allocator<char> >, IEC61850_STRUCT::IED_61850>, std::_Select1st<std::pair<const std::basic_string<char, std::char_traits<char>, std::allocator<char> >, IEC61850_STRUCT::IED_61850> >, std::less<std::basic_string<char, std::char_traits<char>, std::allocator<char> > >, std::allocator<std::pair<const std::basic_string<char, std::char_traits<char>, std::allocator<char> >, IEC61850_STRUCT::IED_61850> > >::_M_get_Node_allocator
FUNC 78fa8 70 0 std::_Rb_tree<std::basic_string<char, std::char_traits<char>, std::allocator<char> >, std::pair<const std::basic_string<char, std::char_traits<char>, std::allocator<char> >, IEC61850_STRUCT::IED_61850>, std::_Select1st<std::pair<const std::basic_string<char, std::char_traits<char>, std::allocator<char> >, IEC61850_STRUCT::IED_61850> >, std::less<std::basic_string<char, std::char_traits<char>, std::allocator<char> > >, std::allocator<std::pair<const std::basic_string<char, std::char_traits<char>, std::allocator<char> >, IEC61850_STRUCT::IED_61850> > >::_Rb_tree_impl<std::less<std::basic_string<char, std::char_traits<char>, std::allocator<char> > >, false>::_Rb_tree_impl
FUNC 79018 12 0 std::_Rb_tree<std::basic_string<char, std::char_traits<char>, std::allocator<char> >, std::pair<const std::basic_string<char, std::char_traits<char>, std::allocator<char> >, IEC61850_STRUCT::IED_61850>, std::_Select1st<std::pair<const std::basic_string<char, std::char_traits<char>, std::allocator<char> >, IEC61850_STRUCT::IED_61850> >, std::less<std::basic_string<char, std::char_traits<char>, std::allocator<char> > >, std::allocator<std::pair<const std::basic_string<char, std::char_traits<char>, std::allocator<char> >, IEC61850_STRUCT::IED_61850> > >::_M_root
FUNC 7902a 169 0 std::_Rb_tree<std::basic_string<char, std::char_traits<char>, std::allocator<char> >, std::pair<const std::basic_string<char, std::char_traits<char>, std::allocator<char> >, IEC61850_STRUCT::IED_61850>, std::_Select1st<std::pair<const std::basic_string<char, std::char_traits<char>, std::allocator<char> >, IEC61850_STRUCT::IED_61850> >, std::less<std::basic_string<char, std::char_traits<char>, std::allocator<char> > >, std::allocator<std::pair<const std::basic_string<char, std::char_traits<char>, std::allocator<char> >, IEC61850_STRUCT::IED_61850> > >::_M_copy
FUNC 79194 12 0 std::_Rb_tree<std::basic_string<char, std::char_traits<char>, std::allocator<char> >, std::pair<const std::basic_string<char, std::char_traits<char>, std::allocator<char> >, IEC61850_STRUCT::IED_61850>, std::_Select1st<std::pair<const std::basic_string<char, std::char_traits<char>, std::allocator<char> >, IEC61850_STRUCT::IED_61850> >, std::less<std::basic_string<char, std::char_traits<char>, std::allocator<char> > >, std::allocator<std::pair<const std::basic_string<char, std::char_traits<char>, std::allocator<char> >, IEC61850_STRUCT::IED_61850> > >::_M_begin
FUNC 791a6 1a 0 std::_Rb_tree<std::basic_string<char, std::char_traits<char>, std::allocator<char> >, std::pair<const std::basic_string<char, std::char_traits<char>, std::allocator<char> >, IEC61850_STRUCT::IED_61850>, std::_Select1st<std::pair<const std::basic_string<char, std::char_traits<char>, std::allocator<char> >, IEC61850_STRUCT::IED_61850> >, std::less<std::basic_string<char, std::char_traits<char>, std::allocator<char> > >, std::allocator<std::pair<const std::basic_string<char, std::char_traits<char>, std::allocator<char> >, IEC61850_STRUCT::IED_61850> > >::_S_minimum
FUNC 791c0 1a 0 std::_Rb_tree<std::basic_string<char, std::char_traits<char>, std::allocator<char> >, std::pair<const std::basic_string<char, std::char_traits<char>, std::allocator<char> >, IEC61850_STRUCT::IED_61850>, std::_Select1st<std::pair<const std::basic_string<char, std::char_traits<char>, std::allocator<char> >, IEC61850_STRUCT::IED_61850> >, std::less<std::basic_string<char, std::char_traits<char>, std::allocator<char> > >, std::allocator<std::pair<const std::basic_string<char, std::char_traits<char>, std::allocator<char> >, IEC61850_STRUCT::IED_61850> > >::_S_maximum
FUNC 791da 12 0 std::_Rb_tree<std::basic_string<char, std::char_traits<char>, std::allocator<char> >, std::pair<const std::basic_string<char, std::char_traits<char>, std::allocator<char> >, IEC103::stConfigParam>, std::_Select1st<std::pair<const std::basic_string<char, std::char_traits<char>, std::allocator<char> >, IEC103::stConfigParam> >, std::less<std::basic_string<char, std::char_traits<char>, std::allocator<char> > >, std::allocator<std::pair<const std::basic_string<char, std::char_traits<char>, std::allocator<char> >, IEC103::stConfigParam> > >::_M_end
FUNC 791ec 12 0 std::_Rb_tree<std::basic_string<char, std::char_traits<char>, std::allocator<char> >, std::pair<const std::basic_string<char, std::char_traits<char>, std::allocator<char> >, IEC103::stConfigParam>, std::_Select1st<std::pair<const std::basic_string<char, std::char_traits<char>, std::allocator<char> >, IEC103::stConfigParam> >, std::less<std::basic_string<char, std::char_traits<char>, std::allocator<char> > >, std::allocator<std::pair<const std::basic_string<char, std::char_traits<char>, std::allocator<char> >, IEC103::stConfigParam> > >::_M_leftmost
FUNC 791fe 12 0 std::_Rb_tree<std::basic_string<char, std::char_traits<char>, std::allocator<char> >, std::pair<const std::basic_string<char, std::char_traits<char>, std::allocator<char> >, IEC103::stConfigParam>, std::_Select1st<std::pair<const std::basic_string<char, std::char_traits<char>, std::allocator<char> >, IEC103::stConfigParam> >, std::less<std::basic_string<char, std::char_traits<char>, std::allocator<char> > >, std::allocator<std::pair<const std::basic_string<char, std::char_traits<char>, std::allocator<char> >, IEC103::stConfigParam> > >::_M_root
FUNC 79210 12 0 std::_Rb_tree<std::basic_string<char, std::char_traits<char>, std::allocator<char> >, std::pair<const std::basic_string<char, std::char_traits<char>, std::allocator<char> >, IEC103::stConfigParam>, std::_Select1st<std::pair<const std::basic_string<char, std::char_traits<char>, std::allocator<char> >, IEC103::stConfigParam> >, std::less<std::basic_string<char, std::char_traits<char>, std::allocator<char> > >, std::allocator<std::pair<const std::basic_string<char, std::char_traits<char>, std::allocator<char> >, IEC103::stConfigParam> > >::_M_rightmost
FUNC 79222 12 0 std::_Rb_tree<std::basic_string<char, std::char_traits<char>, std::allocator<char> >, std::pair<const std::basic_string<char, std::char_traits<char>, std::allocator<char> >, std::map<std::basic_string<char, std::char_traits<char>, std::allocator<char> >, std::basic_string<char, std::char_traits<char>, std::allocator<char> >, std::less<std::basic_string<char, std::char_traits<char>, std::allocator<char> > >, std::allocator<std::pair<const std::basic_string<char, std::char_traits<char>, std::allocator<char> >, std::basic_string<char, std::char_traits<char>, std::allocator<char> > > > > >, std::_Select1st<std::pair<const std::basic_string<char, std::char_traits<char>, std::allocator<char> >, std::map<std::basic_string<char, std::char_traits<char>, std::allocator<char> >, std::basic_string<char, std::char_traits<char>, std::allocator<char> >, std::less<std::basic_string<char, std::char_traits<char>, std::allocator<char> > >, std::allocator<std::pair<const std::basic_string<char, std::char_traits<char>, std::allocator<char> >, std::basic_string<char, std::char_traits<char>, std::allocator<char> > > > > > >, std::less<std::basic_string<char, std::char_traits<char>, std::allocator<char> > >, std::allocator<std::pair<const std::basic_string<char, std::char_traits<char>, std::allocator<char> >, std::map<std::basic_string<char, std::char_traits<char>, std::allocator<char> >, std::basic_string<char, std::char_traits<char>, std::allocator<char> >, std::less<std::basic_string<char, std::char_traits<char>, std::allocator<char> > >, std::allocator<std::pair<const std::basic_string<char, std::char_traits<char>, std::allocator<char> >, std::basic_string<char, std::char_traits<char>, std::allocator<char> > > > > > > >::_M_end
FUNC 79234 12 0 std::_Rb_tree<std::basic_string<char, std::char_traits<char>, std::allocator<char> >, std::pair<const std::basic_string<char, std::char_traits<char>, std::allocator<char> >, std::map<std::basic_string<char, std::char_traits<char>, std::allocator<char> >, std::basic_string<char, std::char_traits<char>, std::allocator<char> >, std::less<std::basic_string<char, std::char_traits<char>, std::allocator<char> > >, std::allocator<std::pair<const std::basic_string<char, std::char_traits<char>, std::allocator<char> >, std::basic_string<char, std::char_traits<char>, std::allocator<char> > > > > >, std::_Select1st<std::pair<const std::basic_string<char, std::char_traits<char>, std::allocator<char> >, std::map<std::basic_string<char, std::char_traits<char>, std::allocator<char> >, std::basic_string<char, std::char_traits<char>, std::allocator<char> >, std::less<std::basic_string<char, std::char_traits<char>, std::allocator<char> > >, std::allocator<std::pair<const std::basic_string<char, std::char_traits<char>, std::allocator<char> >, std::basic_string<char, std::char_traits<char>, std::allocator<char> > > > > > >, std::less<std::basic_string<char, std::char_traits<char>, std::allocator<char> > >, std::allocator<std::pair<const std::basic_string<char, std::char_traits<char>, std::allocator<char> >, std::map<std::basic_string<char, std::char_traits<char>, std::allocator<char> >, std::basic_string<char, std::char_traits<char>, std::allocator<char> >, std::less<std::basic_string<char, std::char_traits<char>, std::allocator<char> > >, std::allocator<std::pair<const std::basic_string<char, std::char_traits<char>, std::allocator<char> >, std::basic_string<char, std::char_traits<char>, std::allocator<char> > > > > > > >::_M_leftmost
FUNC 79246 12 0 std::_Rb_tree<std::basic_string<char, std::char_traits<char>, std::allocator<char> >, std::pair<const std::basic_string<char, std::char_traits<char>, std::allocator<char> >, std::map<std::basic_string<char, std::char_traits<char>, std::allocator<char> >, std::basic_string<char, std::char_traits<char>, std::allocator<char> >, std::less<std::basic_string<char, std::char_traits<char>, std::allocator<char> > >, std::allocator<std::pair<const std::basic_string<char, std::char_traits<char>, std::allocator<char> >, std::basic_string<char, std::char_traits<char>, std::allocator<char> > > > > >, std::_Select1st<std::pair<const std::basic_string<char, std::char_traits<char>, std::allocator<char> >, std::map<std::basic_string<char, std::char_traits<char>, std::allocator<char> >, std::basic_string<char, std::char_traits<char>, std::allocator<char> >, std::less<std::basic_string<char, std::char_traits<char>, std::allocator<char> > >, std::allocator<std::pair<const std::basic_string<char, std::char_traits<char>, std::allocator<char> >, std::basic_string<char, std::char_traits<char>, std::allocator<char> > > > > > >, std::less<std::basic_string<char, std::char_traits<char>, std::allocator<char> > >, std::allocator<std::pair<const std::basic_string<char, std::char_traits<char>, std::allocator<char> >, std::map<std::basic_string<char, std::char_traits<char>, std::allocator<char> >, std::basic_string<char, std::char_traits<char>, std::allocator<char> >, std::less<std::basic_string<char, std::char_traits<char>, std::allocator<char> > >, std::allocator<std::pair<const std::basic_string<char, std::char_traits<char>, std::allocator<char> >, std::basic_string<char, std::char_traits<char>, std::allocator<char> > > > > > > >::_M_root
FUNC 79258 12 0 std::_Rb_tree<std::basic_string<char, std::char_traits<char>, std::allocator<char> >, std::pair<const std::basic_string<char, std::char_traits<char>, std::allocator<char> >, std::map<std::basic_string<char, std::char_traits<char>, std::allocator<char> >, std::basic_string<char, std::char_traits<char>, std::allocator<char> >, std::less<std::basic_string<char, std::char_traits<char>, std::allocator<char> > >, std::allocator<std::pair<const std::basic_string<char, std::char_traits<char>, std::allocator<char> >, std::basic_string<char, std::char_traits<char>, std::allocator<char> > > > > >, std::_Select1st<std::pair<const std::basic_string<char, std::char_traits<char>, std::allocator<char> >, std::map<std::basic_string<char, std::char_traits<char>, std::allocator<char> >, std::basic_string<char, std::char_traits<char>, std::allocator<char> >, std::less<std::basic_string<char, std::char_traits<char>, std::allocator<char> > >, std::allocator<std::pair<const std::basic_string<char, std::char_traits<char>, std::allocator<char> >, std::basic_string<char, std::char_traits<char>, std::allocator<char> > > > > > >, std::less<std::basic_string<char, std::char_traits<char>, std::allocator<char> > >, std::allocator<std::pair<const std::basic_string<char, std::char_traits<char>, std::allocator<char> >, std::map<std::basic_string<char, std::char_traits<char>, std::allocator<char> >, std::basic_string<char, std::char_traits<char>, std::allocator<char> >, std::less<std::basic_string<char, std::char_traits<char>, std::allocator<char> > >, std::allocator<std::pair<const std::basic_string<char, std::char_traits<char>, std::allocator<char> >, std::basic_string<char, std::char_traits<char>, std::allocator<char> > > > > > > >::_M_rightmost
FUNC 7926a 70 0 std::_Rb_tree<std::basic_string<char, std::char_traits<char>, std::allocator<char> >, std::pair<const std::basic_string<char, std::char_traits<char>, std::allocator<char> >, IEC103::stConfigParam>, std::_Select1st<std::pair<const std::basic_string<char, std::char_traits<char>, std::allocator<char> >, IEC103::stConfigParam> >, std::less<std::basic_string<char, std::char_traits<char>, std::allocator<char> > >, std::allocator<std::pair<const std::basic_string<char, std::char_traits<char>, std::allocator<char> >, IEC103::stConfigParam> > >::_Rb_tree_impl<std::less<std::basic_string<char, std::char_traits<char>, std::allocator<char> > >, false>::_Rb_tree_impl
FUNC 792da 12 0 std::_Rb_tree<std::basic_string<char, std::char_traits<char>, std::allocator<char> >, std::pair<const std::basic_string<char, std::char_traits<char>, std::allocator<char> >, IEC103::stConfigParam>, std::_Select1st<std::pair<const std::basic_string<char, std::char_traits<char>, std::allocator<char> >, IEC103::stConfigParam> >, std::less<std::basic_string<char, std::char_traits<char>, std::allocator<char> > >, std::allocator<std::pair<const std::basic_string<char, std::char_traits<char>, std::allocator<char> >, IEC103::stConfigParam> > >::_M_root
FUNC 792ec 169 0 std::_Rb_tree<std::basic_string<char, std::char_traits<char>, std::allocator<char> >, std::pair<const std::basic_string<char, std::char_traits<char>, std::allocator<char> >, IEC103::stConfigParam>, std::_Select1st<std::pair<const std::basic_string<char, std::char_traits<char>, std::allocator<char> >, IEC103::stConfigParam> >, std::less<std::basic_string<char, std::char_traits<char>, std::allocator<char> > >, std::allocator<std::pair<const std::basic_string<char, std::char_traits<char>, std::allocator<char> >, IEC103::stConfigParam> > >::_M_copy
FUNC 79456 12 0 std::_Rb_tree<std::basic_string<char, std::char_traits<char>, std::allocator<char> >, std::pair<const std::basic_string<char, std::char_traits<char>, std::allocator<char> >, IEC103::stConfigParam>, std::_Select1st<std::pair<const std::basic_string<char, std::char_traits<char>, std::allocator<char> >, IEC103::stConfigParam> >, std::less<std::basic_string<char, std::char_traits<char>, std::allocator<char> > >, std::allocator<std::pair<const std::basic_string<char, std::char_traits<char>, std::allocator<char> >, IEC103::stConfigParam> > >::_M_begin
FUNC 79468 1a 0 std::_Rb_tree<std::basic_string<char, std::char_traits<char>, std::allocator<char> >, std::pair<const std::basic_string<char, std::char_traits<char>, std::allocator<char> >, IEC103::stConfigParam>, std::_Select1st<std::pair<const std::basic_string<char, std::char_traits<char>, std::allocator<char> >, IEC103::stConfigParam> >, std::less<std::basic_string<char, std::char_traits<char>, std::allocator<char> > >, std::allocator<std::pair<const std::basic_string<char, std::char_traits<char>, std::allocator<char> >, IEC103::stConfigParam> > >::_S_minimum
FUNC 79482 1a 0 std::_Rb_tree<std::basic_string<char, std::char_traits<char>, std::allocator<char> >, std::pair<const std::basic_string<char, std::char_traits<char>, std::allocator<char> >, IEC103::stConfigParam>, std::_Select1st<std::pair<const std::basic_string<char, std::char_traits<char>, std::allocator<char> >, IEC103::stConfigParam> >, std::less<std::basic_string<char, std::char_traits<char>, std::allocator<char> > >, std::allocator<std::pair<const std::basic_string<char, std::char_traits<char>, std::allocator<char> >, IEC103::stConfigParam> > >::_S_maximum
FUNC 7949c 70 0 std::_Rb_tree<std::basic_string<char, std::char_traits<char>, std::allocator<char> >, std::pair<const std::basic_string<char, std::char_traits<char>, std::allocator<char> >, std::map<std::basic_string<char, std::char_traits<char>, std::allocator<char> >, std::basic_string<char, std::char_traits<char>, std::allocator<char> >, std::less<std::basic_string<char, std::char_traits<char>, std::allocator<char> > >, std::allocator<std::pair<const std::basic_string<char, std::char_traits<char>, std::allocator<char> >, std::basic_string<char, std::char_traits<char>, std::allocator<char> > > > > >, std::_Select1st<std::pair<const std::basic_string<char, std::char_traits<char>, std::allocator<char> >, std::map<std::basic_string<char, std::char_traits<char>, std::allocator<char> >, std::basic_string<char, std::char_traits<char>, std::allocator<char> >, std::less<std::basic_string<char, std::char_traits<char>, std::allocator<char> > >, std::allocator<std::pair<const std::basic_string<char, std::char_traits<char>, std::allocator<char> >, std::basic_string<char, std::char_traits<char>, std::allocator<char> > > > > > >, std::less<std::basic_string<char, std::char_traits<char>, std::allocator<char> > >, std::allocator<std::pair<const std::basic_string<char, std::char_traits<char>, std::allocator<char> >, std::map<std::basic_string<char, std::char_traits<char>, std::allocator<char> >, std::basic_string<char, std::char_traits<char>, std::allocator<char> >, std::less<std::basic_string<char, std::char_traits<char>, std::allocator<char> > >, std::allocator<std::pair<const std::basic_string<char, std::char_traits<char>, std::allocator<char> >, std::basic_string<char, std::char_traits<char>, std::allocator<char> > > > > > > >::_Rb_tree_impl<std::less<std::basic_string<char, std::char_traits<char>, std::allocator<char> > >, false>::_Rb_tree_impl
FUNC 7950c 12 0 std::_Rb_tree<std::basic_string<char, std::char_traits<char>, std::allocator<char> >, std::pair<const std::basic_string<char, std::char_traits<char>, std::allocator<char> >, std::map<std::basic_string<char, std::char_traits<char>, std::allocator<char> >, std::basic_string<char, std::char_traits<char>, std::allocator<char> >, std::less<std::basic_string<char, std::char_traits<char>, std::allocator<char> > >, std::allocator<std::pair<const std::basic_string<char, std::char_traits<char>, std::allocator<char> >, std::basic_string<char, std::char_traits<char>, std::allocator<char> > > > > >, std::_Select1st<std::pair<const std::basic_string<char, std::char_traits<char>, std::allocator<char> >, std::map<std::basic_string<char, std::char_traits<char>, std::allocator<char> >, std::basic_string<char, std::char_traits<char>, std::allocator<char> >, std::less<std::basic_string<char, std::char_traits<char>, std::allocator<char> > >, std::allocator<std::pair<const std::basic_string<char, std::char_traits<char>, std::allocator<char> >, std::basic_string<char, std::char_traits<char>, std::allocator<char> > > > > > >, std::less<std::basic_string<char, std::char_traits<char>, std::allocator<char> > >, std::allocator<std::pair<const std::basic_string<char, std::char_traits<char>, std::allocator<char> >, std::map<std::basic_string<char, std::char_traits<char>, std::allocator<char> >, std::basic_string<char, std::char_traits<char>, std::allocator<char> >, std::less<std::basic_string<char, std::char_traits<char>, std::allocator<char> > >, std::allocator<std::pair<const std::basic_string<char, std::char_traits<char>, std::allocator<char> >, std::basic_string<char, std::char_traits<char>, std::allocator<char> > > > > > > >::_M_root
FUNC 7951e 169 0 std::_Rb_tree<std::basic_string<char, std::char_traits<char>, std::allocator<char> >, std::pair<const std::basic_string<char, std::char_traits<char>, std::allocator<char> >, std::map<std::basic_string<char, std::char_traits<char>, std::allocator<char> >, std::basic_string<char, std::char_traits<char>, std::allocator<char> >, std::less<std::basic_string<char, std::char_traits<char>, std::allocator<char> > >, std::allocator<std::pair<const std::basic_string<char, std::char_traits<char>, std::allocator<char> >, std::basic_string<char, std::char_traits<char>, std::allocator<char> > > > > >, std::_Select1st<std::pair<const std::basic_string<char, std::char_traits<char>, std::allocator<char> >, std::map<std::basic_string<char, std::char_traits<char>, std::allocator<char> >, std::basic_string<char, std::char_traits<char>, std::allocator<char> >, std::less<std::basic_string<char, std::char_traits<char>, std::allocator<char> > >, std::allocator<std::pair<const std::basic_string<char, std::char_traits<char>, std::allocator<char> >, std::basic_string<char, std::char_traits<char>, std::allocator<char> > > > > > >, std::less<std::basic_string<char, std::char_traits<char>, std::allocator<char> > >, std::allocator<std::pair<const std::basic_string<char, std::char_traits<char>, std::allocator<char> >, std::map<std::basic_string<char, std::char_traits<char>, std::allocator<char> >, std::basic_string<char, std::char_traits<char>, std::allocator<char> >, std::less<std::basic_string<char, std::char_traits<char>, std::allocator<char> > >, std::allocator<std::pair<const std::basic_string<char, std::char_traits<char>, std::allocator<char> >, std::basic_string<char, std::char_traits<char>, std::allocator<char> > > > > > > >::_M_copy
FUNC 79688 12 0 std::_Rb_tree<std::basic_string<char, std::char_traits<char>, std::allocator<char> >, std::pair<const std::basic_string<char, std::char_traits<char>, std::allocator<char> >, std::map<std::basic_string<char, std::char_traits<char>, std::allocator<char> >, std::basic_string<char, std::char_traits<char>, std::allocator<char> >, std::less<std::basic_string<char, std::char_traits<char>, std::allocator<char> > >, std::allocator<std::pair<const std::basic_string<char, std::char_traits<char>, std::allocator<char> >, std::basic_string<char, std::char_traits<char>, std::allocator<char> > > > > >, std::_Select1st<std::pair<const std::basic_string<char, std::char_traits<char>, std::allocator<char> >, std::map<std::basic_string<char, std::char_traits<char>, std::allocator<char> >, std::basic_string<char, std::char_traits<char>, std::allocator<char> >, std::less<std::basic_string<char, std::char_traits<char>, std::allocator<char> > >, std::allocator<std::pair<const std::basic_string<char, std::char_traits<char>, std::allocator<char> >, std::basic_string<char, std::char_traits<char>, std::allocator<char> > > > > > >, std::less<std::basic_string<char, std::char_traits<char>, std::allocator<char> > >, std::allocator<std::pair<const std::basic_string<char, std::char_traits<char>, std::allocator<char> >, std::map<std::basic_string<char, std::char_traits<char>, std::allocator<char> >, std::basic_string<char, std::char_traits<char>, std::allocator<char> >, std::less<std::basic_string<char, std::char_traits<char>, std::allocator<char> > >, std::allocator<std::pair<const std::basic_string<char, std::char_traits<char>, std::allocator<char> >, std::basic_string<char, std::char_traits<char>, std::allocator<char> > > > > > > >::_M_begin
FUNC 7969a 1a 0 std::_Rb_tree<std::basic_string<char, std::char_traits<char>, std::allocator<char> >, std::pair<const std::basic_string<char, std::char_traits<char>, std::allocator<char> >, std::map<std::basic_string<char, std::char_traits<char>, std::allocator<char> >, std::basic_string<char, std::char_traits<char>, std::allocator<char> >, std::less<std::basic_string<char, std::char_traits<char>, std::allocator<char> > >, std::allocator<std::pair<const std::basic_string<char, std::char_traits<char>, std::allocator<char> >, std::basic_string<char, std::char_traits<char>, std::allocator<char> > > > > >, std::_Select1st<std::pair<const std::basic_string<char, std::char_traits<char>, std::allocator<char> >, std::map<std::basic_string<char, std::char_traits<char>, std::allocator<char> >, std::basic_string<char, std::char_traits<char>, std::allocator<char> >, std::less<std::basic_string<char, std::char_traits<char>, std::allocator<char> > >, std::allocator<std::pair<const std::basic_string<char, std::char_traits<char>, std::allocator<char> >, std::basic_string<char, std::char_traits<char>, std::allocator<char> > > > > > >, std::less<std::basic_string<char, std::char_traits<char>, std::allocator<char> > >, std::allocator<std::pair<const std::basic_string<char, std::char_traits<char>, std::allocator<char> >, std::map<std::basic_string<char, std::char_traits<char>, std::allocator<char> >, std::basic_string<char, std::char_traits<char>, std::allocator<char> >, std::less<std::basic_string<char, std::char_traits<char>, std::allocator<char> > >, std::allocator<std::pair<const std::basic_string<char, std::char_traits<char>, std::allocator<char> >, std::basic_string<char, std::char_traits<char>, std::allocator<char> > > > > > > >::_S_minimum
FUNC 796b4 1a 0 std::_Rb_tree<std::basic_string<char, std::char_traits<char>, std::allocator<char> >, std::pair<const std::basic_string<char, std::char_traits<char>, std::allocator<char> >, std::map<std::basic_string<char, std::char_traits<char>, std::allocator<char> >, std::basic_string<char, std::char_traits<char>, std::allocator<char> >, std::less<std::basic_string<char, std::char_traits<char>, std::allocator<char> > >, std::allocator<std::pair<const std::basic_string<char, std::char_traits<char>, std::allocator<char> >, std::basic_string<char, std::char_traits<char>, std::allocator<char> > > > > >, std::_Select1st<std::pair<const std::basic_string<char, std::char_traits<char>, std::allocator<char> >, std::map<std::basic_string<char, std::char_traits<char>, std::allocator<char> >, std::basic_string<char, std::char_traits<char>, std::allocator<char> >, std::less<std::basic_string<char, std::char_traits<char>, std::allocator<char> > >, std::allocator<std::pair<const std::basic_string<char, std::char_traits<char>, std::allocator<char> >, std::basic_string<char, std::char_traits<char>, std::allocator<char> > > > > > >, std::less<std::basic_string<char, std::char_traits<char>, std::allocator<char> > >, std::allocator<std::pair<const std::basic_string<char, std::char_traits<char>, std::allocator<char> >, std::map<std::basic_string<char, std::char_traits<char>, std::allocator<char> >, std::basic_string<char, std::char_traits<char>, std::allocator<char> >, std::less<std::basic_string<char, std::char_traits<char>, std::allocator<char> > >, std::allocator<std::pair<const std::basic_string<char, std::char_traits<char>, std::allocator<char> >, std::basic_string<char, std::char_traits<char>, std::allocator<char> > > > > > > >::_S_maximum
FUNC 796ce 12 0 std::_Rb_tree<std::basic_string<char, std::char_traits<char>, std::allocator<char> >, std::pair<const std::basic_string<char, std::char_traits<char>, std::allocator<char> >, std::map<int, std::map<int, IEC104WF::stPointTable, std::less<int>, std::allocator<std::pair<const int, IEC104WF::stPointTable> > >, std::less<int>, std::allocator<std::pair<const int, std::map<int, IEC104WF::stPointTable, std::less<int>, std::allocator<std::pair<const int, IEC104WF::stPointTable> > > > > > >, std::_Select1st<std::pair<const std::basic_string<char, std::char_traits<char>, std::allocator<char> >, std::map<int, std::map<int, IEC104WF::stPointTable, std::less<int>, std::allocator<std::pair<const int, IEC104WF::stPointTable> > >, std::less<int>, std::allocator<std::pair<const int, std::map<int, IEC104WF::stPointTable, std::less<int>, std::allocator<std::pair<const int, IEC104WF::stPointTable> > > > > > > >, std::less<std::basic_string<char, std::char_traits<char>, std::allocator<char> > >, std::allocator<std::pair<const std::basic_string<char, std::char_traits<char>, std::allocator<char> >, std::map<int, std::map<int, IEC104WF::stPointTable, std::less<int>, std::allocator<std::pair<const int, IEC104WF::stPointTable> > >, std::less<int>, std::allocator<std::pair<const int, std::map<int, IEC104WF::stPointTable, std::less<int>, std::allocator<std::pair<const int, IEC104WF::stPointTable> > > > > > > > >::_M_end
