MODULE Linux x86_64 C93C3151E79F03A6B4F847F1628793880 IEC103_SFIEC103
FUNC 133f4 1b0 0 main
FUNC 135a4 1c4 0 __static_initialization_and_destruction_0
FUNC 13768 15 0 _GLOBAL__I_IEC103.cpp
FUNC 1377e 1c 0 std::exception::exception
FUNC 1379a 2c 0 std::bad_exception::bad_exception
FUNC 137c6 2c 0 std::bad_alloc::bad_alloc
FUNC 137f2 29 0 Config::setChannelName
FUNC 1381c 19 0 boost::error_info<boost::throw_function_, const char*>::error_info
FUNC 13836 19 0 boost::error_info<boost::throw_file_, const char*>::error_info
FUNC 13850 16 0 boost::error_info<boost::throw_line_, int>::error_info
FUNC 13866 53 0 boost::exception::exception
FUNC 138ba 5d 0 boost::exception::~exception
FUNC 13918 26 0 boost::exception::~exception
FUNC 1393e 35 0 boost::exception_detail::clone_base::~clone_base
FUNC 13974 26 0 boost::exception_detail::clone_base::~clone_base
FUNC 1399a 10d 0 boost::exception_detail::copy_boost_exception
FUNC 13aa7 22 0 boost::detail::atomic_exchange_and_add
FUNC 13ac9 15 0 boost::detail::atomic_increment
FUNC 13ade 32 0 boost::detail::sp_counted_base::sp_counted_base
FUNC 13b10 35 0 boost::detail::sp_counted_base::~sp_counted_base
FUNC 13b46 26 0 boost::detail::sp_counted_base::~sp_counted_base
FUNC 13b6c 2c 0 boost::detail::sp_counted_base::destroy
FUNC 13b98 1e 0 boost::detail::sp_counted_base::add_ref_copy
FUNC 13bb6 50 0 boost::detail::sp_counted_base::release
FUNC 13c06 44 0 boost::detail::sp_counted_base::weak_release
FUNC 13c4a 29 0 boost::detail::shared_count::~shared_count
FUNC 13c74 3b 0 boost::detail::shared_count::shared_count
FUNC 13caf 6 0 boost::detail::sp_enable_shared_from_this
FUNC 13cb6 1e 0 boost::shared_ptr<const boost::exception_detail::clone_base>::~shared_ptr
FUNC 13cd4 3b 0 boost::shared_ptr<const boost::exception_detail::clone_base>::shared_ptr
FUNC 13d10 25 0 boost::exception_ptr::exception_ptr
FUNC 13d36 7c 0 boost::exception_detail::bad_alloc_::~bad_alloc_
FUNC 13dc2 26 0 boost::exception_detail::bad_alloc_::~bad_alloc_
FUNC 13de8 7c 0 boost::exception_detail::bad_exception_::~bad_exception_
FUNC 13e74 26 0 boost::exception_detail::bad_exception_::~bad_exception_
FUNC 13e9a 6d 0 boost::exception::exception
FUNC 13f08 1a 0 boost::exception_ptr::~exception_ptr
FUNC 13f22 25 0 boost::exception_ptr::exception_ptr
FUNC 13f48 15 0 boost::exception_detail::refcount_ptr<boost::exception_detail::error_info_container>::refcount_ptr
FUNC 13f5e 1a 0 boost::exception_detail::refcount_ptr<boost::exception_detail::error_info_container>::~refcount_ptr
FUNC 13f78 11 0 boost::exception_detail::refcount_ptr<boost::exception_detail::error_info_container>::get
FUNC 13f8a 2c 0 boost::exception_detail::refcount_ptr<boost::exception_detail::error_info_container>::operator=
FUNC 13fb6 20 0 std::exception::exception
FUNC 13fd6 20 0 boost::exception_detail::clone_base::clone_base
FUNC 13ff6 a 0 boost::arg<1>::arg
FUNC 14000 a 0 boost::arg<2>::arg
FUNC 1400a a 0 boost::arg<3>::arg
FUNC 14014 a 0 boost::arg<4>::arg
FUNC 1401e a 0 boost::arg<5>::arg
FUNC 14028 a 0 boost::arg<6>::arg
FUNC 14032 a 0 boost::arg<7>::arg
FUNC 1403c a 0 boost::arg<8>::arg
FUNC 14046 a 0 boost::arg<9>::arg
FUNC 14050 35 0 boost::exception_detail::refcount_ptr<boost::exception_detail::error_info_container>::adopt
FUNC 14086 2c 0 boost::exception_detail::refcount_ptr<boost::exception_detail::error_info_container>::refcount_ptr
FUNC 140b2 4f 0 boost::exception_detail::bad_alloc_::bad_alloc_
FUNC 14102 37 0 std::bad_alloc::bad_alloc
FUNC 1413a 65 0 boost::exception_detail::bad_alloc_::bad_alloc_
FUNC 141a0 78 0 boost::exception_detail::clone_impl<boost::exception_detail::bad_alloc_>::clone_impl
FUNC 14218 228 0 boost::exception_detail::get_static_exception_object<boost::exception_detail::bad_alloc_>
FUNC 14440 4f 0 boost::exception_detail::bad_exception_::bad_exception_
FUNC 14490 37 0 std::bad_exception::bad_exception
FUNC 144c8 65 0 boost::exception_detail::bad_exception_::bad_exception_
FUNC 1452e 78 0 boost::exception_detail::clone_impl<boost::exception_detail::bad_exception_>::clone_impl
FUNC 145a6 228 0 boost::exception_detail::get_static_exception_object<boost::exception_detail::bad_exception_>
FUNC 147ce 56 0 boost::exception_detail::refcount_ptr<boost::exception_detail::error_info_container>::release
FUNC 14824 37 0 boost::exception_detail::refcount_ptr<boost::exception_detail::error_info_container>::add_ref
FUNC 1485c 1c 0 boost::exception_detail::clone_base::clone_base
FUNC 14878 c6 0 boost::exception_detail::clone_impl<boost::exception_detail::bad_alloc_>::clone_impl
FUNC 1493e 8f 0 boost::exception_detail::clone_impl<boost::exception_detail::bad_alloc_>::~clone_impl
FUNC 149ec 26 0 boost::exception_detail::clone_impl<boost::exception_detail::bad_alloc_>::~clone_impl
FUNC 14a12 25 0 boost::operator<< <boost::exception_detail::clone_impl<boost::exception_detail::bad_alloc_>, boost::throw_function_, const char*>
FUNC 14a37 25 0 boost::operator<< <boost::exception_detail::clone_impl<boost::exception_detail::bad_alloc_>, boost::throw_file_, const char*>
FUNC 14a5c 25 0 boost::operator<< <boost::exception_detail::clone_impl<boost::exception_detail::bad_alloc_>, boost::throw_line_, int>
FUNC 14a82 62 0 boost::shared_ptr<const boost::exception_detail::clone_base>::shared_ptr<boost::exception_detail::clone_impl<boost::exception_detail::bad_alloc_> >
FUNC 14ae4 c6 0 boost::exception_detail::clone_impl<boost::exception_detail::bad_exception_>::clone_impl
FUNC 14baa 8f 0 boost::exception_detail::clone_impl<boost::exception_detail::bad_exception_>::~clone_impl
FUNC 14c58 26 0 boost::exception_detail::clone_impl<boost::exception_detail::bad_exception_>::~clone_impl
FUNC 14c7e 25 0 boost::operator<< <boost::exception_detail::clone_impl<boost::exception_detail::bad_exception_>, boost::throw_function_, const char*>
FUNC 14ca3 25 0 boost::operator<< <boost::exception_detail::clone_impl<boost::exception_detail::bad_exception_>, boost::throw_file_, const char*>
FUNC 14cc8 25 0 boost::operator<< <boost::exception_detail::clone_impl<boost::exception_detail::bad_exception_>, boost::throw_line_, int>
FUNC 14cee 62 0 boost::shared_ptr<const boost::exception_detail::clone_base>::shared_ptr<boost::exception_detail::clone_impl<boost::exception_detail::bad_exception_> >
FUNC 14d50 21 0 boost::exception_detail::set_info<boost::exception_detail::clone_impl<boost::exception_detail::bad_alloc_> >
FUNC 14d71 21 0 boost::exception_detail::set_info<boost::exception_detail::clone_impl<boost::exception_detail::bad_alloc_> >
FUNC 14d92 1f 0 boost::exception_detail::set_info<boost::exception_detail::clone_impl<boost::exception_detail::bad_alloc_> >
FUNC 14db2 a0 0 boost::detail::shared_count::shared_count<boost::exception_detail::clone_impl<boost::exception_detail::bad_alloc_> >
FUNC 14e52 21 0 boost::exception_detail::set_info<boost::exception_detail::clone_impl<boost::exception_detail::bad_exception_> >
FUNC 14e73 21 0 boost::exception_detail::set_info<boost::exception_detail::clone_impl<boost::exception_detail::bad_exception_> >
FUNC 14e94 1f 0 boost::exception_detail::set_info<boost::exception_detail::clone_impl<boost::exception_detail::bad_exception_> >
FUNC 14eb4 a0 0 boost::detail::shared_count::shared_count<boost::exception_detail::clone_impl<boost::exception_detail::bad_exception_> >
FUNC 14f54 3c 0 boost::detail::sp_counted_impl_p<boost::exception_detail::clone_impl<boost::exception_detail::bad_alloc_> >::sp_counted_impl_p
FUNC 14f90 2c 0 boost::checked_delete<boost::exception_detail::clone_impl<boost::exception_detail::bad_alloc_> >
FUNC 14fbc 3c 0 boost::detail::sp_counted_impl_p<boost::exception_detail::clone_impl<boost::exception_detail::bad_exception_> >::sp_counted_impl_p
FUNC 14ff8 2c 0 boost::checked_delete<boost::exception_detail::clone_impl<boost::exception_detail::bad_exception_> >
FUNC 15024 41 0 boost::detail::sp_counted_impl_p<boost::exception_detail::clone_impl<boost::exception_detail::bad_exception_> >::~sp_counted_impl_p
FUNC 15066 26 0 boost::detail::sp_counted_impl_p<boost::exception_detail::clone_impl<boost::exception_detail::bad_exception_> >::~sp_counted_impl_p
FUNC 1508c 41 0 boost::detail::sp_counted_impl_p<boost::exception_detail::clone_impl<boost::exception_detail::bad_alloc_> >::~sp_counted_impl_p
FUNC 150ce 26 0 boost::detail::sp_counted_impl_p<boost::exception_detail::clone_impl<boost::exception_detail::bad_alloc_> >::~sp_counted_impl_p
FUNC 150f4 1e 0 boost::detail::sp_counted_impl_p<boost::exception_detail::clone_impl<boost::exception_detail::bad_exception_> >::dispose
FUNC 15112 13 0 boost::detail::sp_counted_impl_p<boost::exception_detail::clone_impl<boost::exception_detail::bad_exception_> >::get_deleter
FUNC 15126 1e 0 boost::detail::sp_counted_impl_p<boost::exception_detail::clone_impl<boost::exception_detail::bad_alloc_> >::dispose
FUNC 15144 13 0 boost::detail::sp_counted_impl_p<boost::exception_detail::clone_impl<boost::exception_detail::bad_alloc_> >::get_deleter
FUNC 1515e 6c 0 boost::exception_detail::clone_impl<boost::exception_detail::bad_exception_>::clone
FUNC 151d0 5d 0 boost::exception_detail::clone_impl<boost::exception_detail::bad_exception_>::rethrow
FUNC 15234 6c 0 boost::exception_detail::clone_impl<boost::exception_detail::bad_alloc_>::clone
FUNC 152a6 5d 0 boost::exception_detail::clone_impl<boost::exception_detail::bad_alloc_>::rethrow
FUNC 15304 570 0 Config::Config
FUNC 15874 74 0 Config::GetInstance
FUNC 158e8 2a3 0 Config::~Config
FUNC 15b8c 26 0 Config::~Config
FUNC 15bb2 cbf 0 Config::Init
FUNC 16872 27 0 Config::IsSpace
FUNC 1689a 24 0 Config::IsCommentChar
FUNC 168be 173 0 Config::Trim
FUNC 16a32 21d 0 Config::AnalyseLine
FUNC 16c50 238 0 Config::ReadConfig
FUNC 16e88 ad 0 Config::GetStrValueByKey
FUNC 16f36 d03 0 Config::InitMysqlParams
FUNC 17c3a 134 0 Config::Split
FUNC 17d6e 48 0 __static_initialization_and_destruction_0
FUNC 17db6 15 0 _GLOBAL__I_Config.cpp
FUNC 17dcb 12 0 operator new
FUNC 17ddd e 0 operator delete
FUNC 17deb 14 0 std::operator|
FUNC 17e00 1a 0 std::map<std::basic_string<char, std::char_traits<char>, std::allocator<char> >, std::basic_string<char, std::char_traits<char>, std::allocator<char> >, std::less<std::basic_string<char, std::char_traits<char>, std::allocator<char> > >, std::allocator<std::pair<const std::basic_string<char, std::char_traits<char>, std::allocator<char> >, std::basic_string<char, std::char_traits<char>, std::allocator<char> > > > >::~map
FUNC 17e1a 1a 0 std::map<std::basic_string<char, std::char_traits<char>, std::allocator<char> >, std::basic_string<char, std::char_traits<char>, std::allocator<char> >, std::less<std::basic_string<char, std::char_traits<char>, std::allocator<char> > >, std::allocator<std::pair<const std::basic_string<char, std::char_traits<char>, std::allocator<char> >, std::basic_string<char, std::char_traits<char>, std::allocator<char> > > > >::map
FUNC 17e34 1a 0 std::_Rb_tree<std::basic_string<char, std::char_traits<char>, std::allocator<char> >, std::pair<const std::basic_string<char, std::char_traits<char>, std::allocator<char> >, std::basic_string<char, std::char_traits<char>, std::allocator<char> > >, std::_Select1st<std::pair<const std::basic_string<char, std::char_traits<char>, std::allocator<char> >, std::basic_string<char, std::char_traits<char>, std::allocator<char> > > >, std::less<std::basic_string<char, std::char_traits<char>, std::allocator<char> > >, std::allocator<std::pair<const std::basic_string<char, std::char_traits<char>, std::allocator<char> >, std::basic_string<char, std::char_traits<char>, std::allocator<char> > > > >::_Rb_tree_impl<std::less<std::basic_string<char, std::char_traits<char>, std::allocator<char> > >, false>::~_Rb_tree_impl
FUNC 17e4e 63 0 std::_Rb_tree<std::basic_string<char, std::char_traits<char>, std::allocator<char> >, std::pair<const std::basic_string<char, std::char_traits<char>, std::allocator<char> >, std::basic_string<char, std::char_traits<char>, std::allocator<char> > >, std::_Select1st<std::pair<const std::basic_string<char, std::char_traits<char>, std::allocator<char> >, std::basic_string<char, std::char_traits<char>, std::allocator<char> > > >, std::less<std::basic_string<char, std::char_traits<char>, std::allocator<char> > >, std::allocator<std::pair<const std::basic_string<char, std::char_traits<char>, std::allocator<char> >, std::basic_string<char, std::char_traits<char>, std::allocator<char> > > > >::~_Rb_tree
FUNC 17eb2 1a 0 std::vector<short unsigned int, std::allocator<short unsigned int> >::vector
FUNC 17ecc 6e 0 std::vector<short unsigned int, std::allocator<short unsigned int> >::~vector
FUNC 17f3a 1a 0 std::vector<std::basic_string<char, std::char_traits<char>, std::allocator<char> >, std::allocator<std::basic_string<char, std::char_traits<char>, std::allocator<char> > > >::vector
FUNC 17f54 6e 0 std::vector<std::basic_string<char, std::char_traits<char>, std::allocator<char> >, std::allocator<std::basic_string<char, std::char_traits<char>, std::allocator<char> > > >::~vector
FUNC 17fc2 24 0 std::vector<short unsigned int, std::allocator<short unsigned int> >::clear
FUNC 17fe6 24 0 std::vector<std::basic_string<char, std::char_traits<char>, std::allocator<char> >, std::allocator<std::basic_string<char, std::char_traits<char>, std::allocator<char> > > >::clear
FUNC 1800a 16d 0 Config::GetValueByKey<int32_t>
FUNC 18178 16d 0 Config::GetValueByKey<uint16_t>
FUNC 182e6 1a 0 std::map<std::basic_string<char, std::char_traits<char>, std::allocator<char> >, std::basic_string<char, std::char_traits<char>, std::allocator<char> >, std::less<std::basic_string<char, std::char_traits<char>, std::allocator<char> > >, std::allocator<std::pair<const std::basic_string<char, std::char_traits<char>, std::allocator<char> >, std::basic_string<char, std::char_traits<char>, std::allocator<char> > > > >::clear
FUNC 18300 55 0 std::pair<const std::basic_string<char, std::char_traits<char>, std::allocator<char> >, std::basic_string<char, std::char_traits<char>, std::allocator<char> > >::~pair
FUNC 18356 146 0 std::map<std::basic_string<char, std::char_traits<char>, std::allocator<char> >, std::basic_string<char, std::char_traits<char>, std::allocator<char> >, std::less<std::basic_string<char, std::char_traits<char>, std::allocator<char> > >, std::allocator<std::pair<const std::basic_string<char, std::char_traits<char>, std::allocator<char> >, std::basic_string<char, std::char_traits<char>, std::allocator<char> > > > >::operator[]
FUNC 1849c 25 0 std::map<std::basic_string<char, std::char_traits<char>, std::allocator<char> >, std::basic_string<char, std::char_traits<char>, std::allocator<char> >, std::less<std::basic_string<char, std::char_traits<char>, std::allocator<char> > >, std::allocator<std::pair<const std::basic_string<char, std::char_traits<char>, std::allocator<char> >, std::basic_string<char, std::char_traits<char>, std::allocator<char> > > > >::find
FUNC 184c2 1c 0 std::_Rb_tree_const_iterator<std::pair<const std::basic_string<char, std::char_traits<char>, std::allocator<char> >, std::basic_string<char, std::char_traits<char>, std::allocator<char> > > >::_Rb_tree_const_iterator
FUNC 184de 1a 0 std::map<std::basic_string<char, std::char_traits<char>, std::allocator<char> >, std::basic_string<char, std::char_traits<char>, std::allocator<char> >, std::less<std::basic_string<char, std::char_traits<char>, std::allocator<char> > >, std::allocator<std::pair<const std::basic_string<char, std::char_traits<char>, std::allocator<char> >, std::basic_string<char, std::char_traits<char>, std::allocator<char> > > > >::end
FUNC 184f8 22 0 std::_Rb_tree_const_iterator<std::pair<const std::basic_string<char, std::char_traits<char>, std::allocator<char> >, std::basic_string<char, std::char_traits<char>, std::allocator<char> > > >::operator!=
FUNC 1851a 15 0 std::_Rb_tree_const_iterator<std::pair<const std::basic_string<char, std::char_traits<char>, std::allocator<char> >, std::basic_string<char, std::char_traits<char>, std::allocator<char> > > >::operator->
FUNC 18530 20 0 std::vector<std::basic_string<char, std::char_traits<char>, std::allocator<char> >, std::allocator<std::basic_string<char, std::char_traits<char>, std::allocator<char> > > >::operator[]
FUNC 18550 f3 0 Config::String2Int<uint16_t>
FUNC 18644 25 0 std::vector<std::basic_string<char, std::char_traits<char>, std::allocator<char> >, std::allocator<std::basic_string<char, std::char_traits<char>, std::allocator<char> > > >::begin
FUNC 1866a 28 0 __gnu_cxx::__normal_iterator<const std::basic_string<char, std::char_traits<char>, std::allocator<char> >*, std::vector<std::basic_string<char, std::char_traits<char>, std::allocator<char> >, std::allocator<std::basic_string<char, std::char_traits<char>, std::allocator<char> > > > >::__normal_iterator<std::basic_string<char, std::char_traits<char>, std::allocator<char> >*>
FUNC 18692 29 0 std::vector<std::basic_string<char, std::char_traits<char>, std::allocator<char> >, std::allocator<std::basic_string<char, std::char_traits<char>, std::allocator<char> > > >::end
FUNC 186bb 3c 0 __gnu_cxx::operator!=<const std::basic_string<char, std::char_traits<char>, std::allocator<char> >*, std::basic_string<char, std::char_traits<char>, std::allocator<char> >*, std::vector<std::basic_string<char, std::char_traits<char>, std::allocator<char> >, std::allocator<std::basic_string<char, std::char_traits<char>, std::allocator<char> > > > >
FUNC 186f8 20 0 __gnu_cxx::__normal_iterator<const std::basic_string<char, std::char_traits<char>, std::allocator<char> >*, std::vector<std::basic_string<char, std::char_traits<char>, std::allocator<char> >, std::allocator<std::basic_string<char, std::char_traits<char>, std::allocator<char> > > > >::operator++
FUNC 18718 11 0 __gnu_cxx::__normal_iterator<const std::basic_string<char, std::char_traits<char>, std::allocator<char> >*, std::vector<std::basic_string<char, std::char_traits<char>, std::allocator<char> >, std::allocator<std::basic_string<char, std::char_traits<char>, std::allocator<char> > > > >::operator*
FUNC 1872a 7a 0 std::vector<short unsigned int, std::allocator<short unsigned int> >::push_back
FUNC 187a4 41 0 std::vector<short unsigned int, std::allocator<short unsigned int> >::empty
FUNC 187e6 1f 0 std::vector<short unsigned int, std::allocator<short unsigned int> >::operator[]
FUNC 18806 f3 0 Config::String2Int<int32_t>
FUNC 188fa 242 0 std::vector<std::basic_string<char, std::char_traits<char>, std::allocator<char> >, std::allocator<std::basic_string<char, std::char_traits<char>, std::allocator<char> > > >::operator=
FUNC 18b3c 29 0 std::vector<std::basic_string<char, std::char_traits<char>, std::allocator<char> >, std::allocator<std::basic_string<char, std::char_traits<char>, std::allocator<char> > > >::size
FUNC 18b66 7a 0 std::vector<std::basic_string<char, std::char_traits<char>, std::allocator<char> >, std::allocator<std::basic_string<char, std::char_traits<char>, std::allocator<char> > > >::push_back
FUNC 18be0 1a 0 std::_Rb_tree<std::basic_string<char, std::char_traits<char>, std::allocator<char> >, std::pair<const std::basic_string<char, std::char_traits<char>, std::allocator<char> >, std::basic_string<char, std::char_traits<char>, std::allocator<char> > >, std::_Select1st<std::pair<const std::basic_string<char, std::char_traits<char>, std::allocator<char> >, std::basic_string<char, std::char_traits<char>, std::allocator<char> > > >, std::less<std::basic_string<char, std::char_traits<char>, std::allocator<char> > >, std::allocator<std::pair<const std::basic_string<char, std::char_traits<char>, std::allocator<char> >, std::basic_string<char, std::char_traits<char>, std::allocator<char> > > > >::_Rb_tree
FUNC 18bfa 1a 0 std::allocator<std::_Rb_tree_node<std::pair<const std::basic_string<char, std::char_traits<char>, std::allocator<char> >, std::basic_string<char, std::char_traits<char>, std::allocator<char> > > > >::~allocator
FUNC 18c14 69 0 std::_Rb_tree<std::basic_string<char, std::char_traits<char>, std::allocator<char> >, std::pair<const std::basic_string<char, std::char_traits<char>, std::allocator<char> >, std::basic_string<char, std::char_traits<char>, std::allocator<char> > >, std::_Select1st<std::pair<const std::basic_string<char, std::char_traits<char>, std::allocator<char> >, std::basic_string<char, std::char_traits<char>, std::allocator<char> > > >, std::less<std::basic_string<char, std::char_traits<char>, std::allocator<char> > >, std::allocator<std::pair<const std::basic_string<char, std::char_traits<char>, std::allocator<char> >, std::basic_string<char, std::char_traits<char>, std::allocator<char> > > > >::_M_erase
FUNC 18c7e 12 0 std::_Rb_tree<std::basic_string<char, std::char_traits<char>, std::allocator<char> >, std::pair<const std::basic_string<char, std::char_traits<char>, std::allocator<char> >, std::basic_string<char, std::char_traits<char>, std::allocator<char> > >, std::_Select1st<std::pair<const std::basic_string<char, std::char_traits<char>, std::allocator<char> >, std::basic_string<char, std::char_traits<char>, std::allocator<char> > > >, std::less<std::basic_string<char, std::char_traits<char>, std::allocator<char> > >, std::allocator<std::pair<const std::basic_string<char, std::char_traits<char>, std::allocator<char> >, std::basic_string<char, std::char_traits<char>, std::allocator<char> > > > >::_M_begin
FUNC 18c90 1a 0 std::_Vector_base<short unsigned int, std::allocator<short unsigned int> >::_Vector_impl::~_Vector_impl
FUNC 18caa 1a 0 std::_Vector_base<short unsigned int, std::allocator<short unsigned int> >::_Vector_base
FUNC 18cc4 7c 0 std::_Vector_base<short unsigned int, std::allocator<short unsigned int> >::~_Vector_base
FUNC 18d40 e 0 std::_Vector_base<short unsigned int, std::allocator<short unsigned int> >::_M_get_Tp_allocator
FUNC 18d4e 29 0 std::_Destroy<short unsigned int*, short unsigned int>
FUNC 18d78 1a 0 std::_Vector_base<std::basic_string<char, std::char_traits<char>, std::allocator<char> >, std::allocator<std::basic_string<char, std::char_traits<char>, std::allocator<char> > > >::_Vector_impl::~_Vector_impl
FUNC 18d92 1a 0 std::_Vector_base<std::basic_string<char, std::char_traits<char>, std::allocator<char> >, std::allocator<std::basic_string<char, std::char_traits<char>, std::allocator<char> > > >::_Vector_base
FUNC 18dac 7d 0 std::_Vector_base<std::basic_string<char, std::char_traits<char>, std::allocator<char> >, std::allocator<std::basic_string<char, std::char_traits<char>, std::allocator<char> > > >::~_Vector_base
FUNC 18e2a e 0 std::_Vector_base<std::basic_string<char, std::char_traits<char>, std::allocator<char> >, std::allocator<std::basic_string<char, std::char_traits<char>, std::allocator<char> > > >::_M_get_Tp_allocator
FUNC 18e38 29 0 std::_Destroy<std::basic_string<char, std::char_traits<char>, std::allocator<char> >*, std::basic_string<char, std::char_traits<char>, std::allocator<char> > >
FUNC 18e62 44 0 std::vector<short unsigned int, std::allocator<short unsigned int> >::_M_erase_at_end
FUNC 18ea6 44 0 std::vector<std::basic_string<char, std::char_traits<char>, std::allocator<char> >, std::allocator<std::basic_string<char, std::char_traits<char>, std::allocator<char> > > >::_M_erase_at_end
FUNC 18eea 8d 0 std::_Rb_tree<std::basic_string<char, std::char_traits<char>, std::allocator<char> >, std::pair<const std::basic_string<char, std::char_traits<char>, std::allocator<char> >, std::basic_string<char, std::char_traits<char>, std::allocator<char> > >, std::_Select1st<std::pair<const std::basic_string<char, std::char_traits<char>, std::allocator<char> >, std::basic_string<char, std::char_traits<char>, std::allocator<char> > > >, std::less<std::basic_string<char, std::char_traits<char>, std::allocator<char> > >, std::allocator<std::pair<const std::basic_string<char, std::char_traits<char>, std::allocator<char> >, std::basic_string<char, std::char_traits<char>, std::allocator<char> > > > >::clear
FUNC 18f78 25 0 std::map<std::basic_string<char, std::char_traits<char>, std::allocator<char> >, std::basic_string<char, std::char_traits<char>, std::allocator<char> >, std::less<std::basic_string<char, std::char_traits<char>, std::allocator<char> > >, std::allocator<std::pair<const std::basic_string<char, std::char_traits<char>, std::allocator<char> >, std::basic_string<char, std::char_traits<char>, std::allocator<char> > > > >::lower_bound
FUNC 18f9e 1a 0 std::map<std::basic_string<char, std::char_traits<char>, std::allocator<char> >, std::basic_string<char, std::char_traits<char>, std::allocator<char> >, std::less<std::basic_string<char, std::char_traits<char>, std::allocator<char> > >, std::allocator<std::pair<const std::basic_string<char, std::char_traits<char>, std::allocator<char> >, std::basic_string<char, std::char_traits<char>, std::allocator<char> > > > >::key_comp
FUNC 18fb8 15 0 std::_Rb_tree_iterator<std::pair<const std::basic_string<char, std::char_traits<char>, std::allocator<char> >, std::basic_string<char, std::char_traits<char>, std::allocator<char> > > >::operator*
FUNC 18fce 29 0 std::less<std::basic_string<char, std::char_traits<char>, std::allocator<char> > >::operator()
FUNC 18ff8 22 0 std::_Rb_tree_iterator<std::pair<const std::basic_string<char, std::char_traits<char>, std::allocator<char> >, std::basic_string<char, std::char_traits<char>, std::allocator<char> > > >::operator==
FUNC 1901a 6b 0 std::pair<const std::basic_string<char, std::char_traits<char>, std::allocator<char> >, std::basic_string<char, std::char_traits<char>, std::allocator<char> > >::pair
FUNC 19086 40 0 std::map<std::basic_string<char, std::char_traits<char>, std::allocator<char> >, std::basic_string<char, std::char_traits<char>, std::allocator<char> >, std::less<std::basic_string<char, std::char_traits<char>, std::allocator<char> > >, std::allocator<std::pair<const std::basic_string<char, std::char_traits<char>, std::allocator<char> >, std::basic_string<char, std::char_traits<char>, std::allocator<char> > > > >::insert
FUNC 190c6 b6 0 std::_Rb_tree<std::basic_string<char, std::char_traits<char>, std::allocator<char> >, std::pair<const std::basic_string<char, std::char_traits<char>, std::allocator<char> >, std::basic_string<char, std::char_traits<char>, std::allocator<char> > >, std::_Select1st<std::pair<const std::basic_string<char, std::char_traits<char>, std::allocator<char> >, std::basic_string<char, std::char_traits<char>, std::allocator<char> > > >, std::less<std::basic_string<char, std::char_traits<char>, std::allocator<char> > >, std::allocator<std::pair<const std::basic_string<char, std::char_traits<char>, std::allocator<char> >, std::basic_string<char, std::char_traits<char>, std::allocator<char> > > > >::find
FUNC 1917c 2c 0 std::_Rb_tree<std::basic_string<char, std::char_traits<char>, std::allocator<char> >, std::pair<const std::basic_string<char, std::char_traits<char>, std::allocator<char> >, std::basic_string<char, std::char_traits<char>, std::allocator<char> > >, std::_Select1st<std::pair<const std::basic_string<char, std::char_traits<char>, std::allocator<char> >, std::basic_string<char, std::char_traits<char>, std::allocator<char> > > >, std::less<std::basic_string<char, std::char_traits<char>, std::allocator<char> > >, std::allocator<std::pair<const std::basic_string<char, std::char_traits<char>, std::allocator<char> >, std::basic_string<char, std::char_traits<char>, std::allocator<char> > > > >::end
FUNC 191a8 1c 0 __gnu_cxx::__normal_iterator<std::basic_string<char, std::char_traits<char>, std::allocator<char> >*, std::vector<std::basic_string<char, std::char_traits<char>, std::allocator<char> >, std::allocator<std::basic_string<char, std::char_traits<char>, std::allocator<char> > > > >::__normal_iterator
FUNC 191c4 e 0 __gnu_cxx::__normal_iterator<std::basic_string<char, std::char_traits<char>, std::allocator<char> >*, std::vector<std::basic_string<char, std::char_traits<char>, std::allocator<char> >, std::allocator<std::basic_string<char, std::char_traits<char>, std::allocator<char> > > > >::base
FUNC 191d2 e 0 __gnu_cxx::__normal_iterator<const std::basic_string<char, std::char_traits<char>, std::allocator<char> >*, std::vector<std::basic_string<char, std::char_traits<char>, std::allocator<char> >, std::allocator<std::basic_string<char, std::char_traits<char>, std::allocator<char> > > > >::base
FUNC 191e0 39 0 __gnu_cxx::new_allocator<short unsigned int>::construct
FUNC 1921a 2e5 0 std::vector<short unsigned int, std::allocator<short unsigned int> >::_M_insert_aux
FUNC 19500 29 0 std::vector<short unsigned int, std::allocator<short unsigned int> >::end
FUNC 1952a 31 0 std::vector<short unsigned int, std::allocator<short unsigned int> >::end
FUNC 1955c 30 0 std::vector<short unsigned int, std::allocator<short unsigned int> >::begin
FUNC 1958c 3c 0 __gnu_cxx::operator==<const short unsigned int*, std::vector<short unsigned int, std::allocator<short unsigned int> > >
FUNC 195c8 29 0 std::vector<std::basic_string<char, std::char_traits<char>, std::allocator<char> >, std::allocator<std::basic_string<char, std::char_traits<char>, std::allocator<char> > > >::capacity
FUNC 195f2 30 0 std::vector<std::basic_string<char, std::char_traits<char>, std::allocator<char> >, std::allocator<std::basic_string<char, std::char_traits<char>, std::allocator<char> > > >::begin
FUNC 19622 31 0 std::vector<std::basic_string<char, std::char_traits<char>, std::allocator<char> >, std::allocator<std::basic_string<char, std::char_traits<char>, std::allocator<char> > > >::end
FUNC 19654 a1 0 std::vector<std::basic_string<char, std::char_traits<char>, std::allocator<char> >, std::allocator<std::basic_string<char, std::char_traits<char>, std::allocator<char> > > >::_M_allocate_and_copy<__gnu_cxx::__normal_iterator<const std::basic_string<char, std::char_traits<char>, std::allocator<char> >*, std::vector<std::basic_string<char, std::char_traits<char>, std::allocator<char> >, std::allocator<std::basic_string<char, std::char_traits<char>, std::allocator<char> > > > > >
FUNC 196f6 34 0 std::_Vector_base<std::basic_string<char, std::char_traits<char>, std::allocator<char> >, std::allocator<std::basic_string<char, std::char_traits<char>, std::allocator<char> > > >::_M_deallocate
FUNC 1972a 46 0 std::copy<__gnu_cxx::__normal_iterator<const std::basic_string<char, std::char_traits<char>, std::allocator<char> >*, std::vector<std::basic_string<char, std::char_traits<char>, std::allocator<char> >, std::allocator<std::basic_string<char, std::char_traits<char>, std::allocator<char> > > > >, __gnu_cxx::__normal_iterator<std::basic_string<char, std::char_traits<char>, std::allocator<char> >*, std::vector<std::basic_string<char, std::char_traits<char>, std::allocator<char> >, std::allocator<std::basic_string<char, std::char_traits<char>, std::allocator<char> > > > > >
FUNC 19770 29 0 std::_Destroy<__gnu_cxx::__normal_iterator<std::basic_string<char, std::char_traits<char>, std::allocator<char> >*, std::vector<std::basic_string<char, std::char_traits<char>, std::allocator<char> >, std::allocator<std::basic_string<char, std::char_traits<char>, std::allocator<char> > > > >, std::basic_string<char, std::char_traits<char>, std::allocator<char> > >
FUNC 19799 46 0 std::copy<std::basic_string<char, std::char_traits<char>, std::allocator<char> >*, std::basic_string<char, std::char_traits<char>, std::allocator<char> >*>
FUNC 197df 31 0 std::__uninitialized_copy_a<std::basic_string<char, std::char_traits<char>, std::allocator<char> >*, std::basic_string<char, std::char_traits<char>, std::allocator<char> >*, std::basic_string<char, std::char_traits<char>, std::allocator<char> > >
FUNC 19810 77 0 __gnu_cxx::new_allocator<std::basic_string<char, std::char_traits<char>, std::allocator<char> > >::construct
FUNC 19888 326 0 std::vector<std::basic_string<char, std::char_traits<char>, std::allocator<char> >, std::allocator<std::basic_string<char, std::char_traits<char>, std::allocator<char> > > >::_M_insert_aux
FUNC 19bae e 0 std::_Vector_base<std::basic_string<char, std::char_traits<char>, std::allocator<char> >, std::allocator<std::basic_string<char, std::char_traits<char>, std::allocator<char> > > >::_M_get_Tp_allocator
FUNC 19bbc 31 0 std::__uninitialized_copy_a<__gnu_cxx::__normal_iterator<const std::basic_string<char, std::char_traits<char>, std::allocator<char> >*, std::vector<std::basic_string<char, std::char_traits<char>, std::allocator<char> >, std::allocator<std::basic_string<char, std::char_traits<char>, std::allocator<char> > > > >, std::basic_string<char, std::char_traits<char>, std::allocator<char> >*, std::basic_string<char, std::char_traits<char>, std::allocator<char> > >
FUNC 19bee 12 0 std::_Rb_tree<std::basic_string<char, std::char_traits<char>, std::allocator<char> >, std::pair<const std::basic_string<char, std::char_traits<char>, std::allocator<char> >, std::basic_string<char, std::char_traits<char>, std::allocator<char> > >, std::_Select1st<std::pair<const std::basic_string<char, std::char_traits<char>, std::allocator<char> >, std::basic_string<char, std::char_traits<char>, std::allocator<char> > > >, std::less<std::basic_string<char, std::char_traits<char>, std::allocator<char> > >, std::allocator<std::pair<const std::basic_string<char, std::char_traits<char>, std::allocator<char> >, std::basic_string<char, std::char_traits<char>, std::allocator<char> > > > >::_M_end
FUNC 19c00 12 0 std::_Rb_tree<std::basic_string<char, std::char_traits<char>, std::allocator<char> >, std::pair<const std::basic_string<char, std::char_traits<char>, std::allocator<char> >, std::basic_string<char, std::char_traits<char>, std::allocator<char> > >, std::_Select1st<std::pair<const std::basic_string<char, std::char_traits<char>, std::allocator<char> >, std::basic_string<char, std::char_traits<char>, std::allocator<char> > > >, std::less<std::basic_string<char, std::char_traits<char>, std::allocator<char> > >, std::allocator<std::pair<const std::basic_string<char, std::char_traits<char>, std::allocator<char> >, std::basic_string<char, std::char_traits<char>, std::allocator<char> > > > >::_M_root
FUNC 19c12 12 0 std::_Rb_tree<std::basic_string<char, std::char_traits<char>, std::allocator<char> >, std::pair<const std::basic_string<char, std::char_traits<char>, std::allocator<char> >, std::basic_string<char, std::char_traits<char>, std::allocator<char> > >, std::_Select1st<std::pair<const std::basic_string<char, std::char_traits<char>, std::allocator<char> >, std::basic_string<char, std::char_traits<char>, std::allocator<char> > > >, std::less<std::basic_string<char, std::char_traits<char>, std::allocator<char> > >, std::allocator<std::pair<const std::basic_string<char, std::char_traits<char>, std::allocator<char> >, std::basic_string<char, std::char_traits<char>, std::allocator<char> > > > >::_M_leftmost
FUNC 19c24 12 0 std::_Rb_tree<std::basic_string<char, std::char_traits<char>, std::allocator<char> >, std::pair<const std::basic_string<char, std::char_traits<char>, std::allocator<char> >, std::basic_string<char, std::char_traits<char>, std::allocator<char> > >, std::_Select1st<std::pair<const std::basic_string<char, std::char_traits<char>, std::allocator<char> >, std::basic_string<char, std::char_traits<char>, std::allocator<char> > > >, std::less<std::basic_string<char, std::char_traits<char>, std::allocator<char> > >, std::allocator<std::pair<const std::basic_string<char, std::char_traits<char>, std::allocator<char> >, std::basic_string<char, std::char_traits<char>, std::allocator<char> > > > >::_M_rightmost
FUNC 19c36 8c 0 std::_Rb_tree<std::basic_string<char, std::char_traits<char>, std::allocator<char> >, std::pair<const std::basic_string<char, std::char_traits<char>, std::allocator<char> >, std::basic_string<char, std::char_traits<char>, std::allocator<char> > >, std::_Select1st<std::pair<const std::basic_string<char, std::char_traits<char>, std::allocator<char> >, std::basic_string<char, std::char_traits<char>, std::allocator<char> > > >, std::less<std::basic_string<char, std::char_traits<char>, std::allocator<char> > >, std::allocator<std::pair<const std::basic_string<char, std::char_traits<char>, std::allocator<char> >, std::basic_string<char, std::char_traits<char>, std::allocator<char> > > > >::_Rb_tree_impl<std::less<std::basic_string<char, std::char_traits<char>, std::allocator<char> > >, false>::_Rb_tree_impl
FUNC 19cc2 a 0 __gnu_cxx::new_allocator<std::_Rb_tree_node<std::pair<const std::basic_string<char, std::char_traits<char>, std::allocator<char> >, std::basic_string<char, std::char_traits<char>, std::allocator<char> > > > >::~new_allocator
FUNC 19ccc 12 0 std::_Rb_tree<std::basic_string<char, std::char_traits<char>, std::allocator<char> >, std::pair<const std::basic_string<char, std::char_traits<char>, std::allocator<char> >, std::basic_string<char, std::char_traits<char>, std::allocator<char> > >, std::_Select1st<std::pair<const std::basic_string<char, std::char_traits<char>, std::allocator<char> >, std::basic_string<char, std::char_traits<char>, std::allocator<char> > > >, std::less<std::basic_string<char, std::char_traits<char>, std::allocator<char> > >, std::allocator<std::pair<const std::basic_string<char, std::char_traits<char>, std::allocator<char> >, std::basic_string<char, std::char_traits<char>, std::allocator<char> > > > >::_S_right
FUNC 19cde 12 0 std::_Rb_tree<std::basic_string<char, std::char_traits<char>, std::allocator<char> >, std::pair<const std::basic_string<char, std::char_traits<char>, std::allocator<char> >, std::basic_string<char, std::char_traits<char>, std::allocator<char> > >, std::_Select1st<std::pair<const std::basic_string<char, std::char_traits<char>, std::allocator<char> >, std::basic_string<char, std::char_traits<char>, std::allocator<char> > > >, std::less<std::basic_string<char, std::char_traits<char>, std::allocator<char> > >, std::allocator<std::pair<const std::basic_string<char, std::char_traits<char>, std::allocator<char> >, std::basic_string<char, std::char_traits<char>, std::allocator<char> > > > >::_S_left
FUNC 19cf0 86 0 std::_Rb_tree<std::basic_string<char, std::char_traits<char>, std::allocator<char> >, std::pair<const std::basic_string<char, std::char_traits<char>, std::allocator<char> >, std::basic_string<char, std::char_traits<char>, std::allocator<char> > >, std::_Select1st<std::pair<const std::basic_string<char, std::char_traits<char>, std::allocator<char> >, std::basic_string<char, std::char_traits<char>, std::allocator<char> > > >, std::less<std::basic_string<char, std::char_traits<char>, std::allocator<char> > >, std::allocator<std::pair<const std::basic_string<char, std::char_traits<char>, std::allocator<char> >, std::basic_string<char, std::char_traits<char>, std::allocator<char> > > > >::_M_destroy_node
FUNC 19d76 3d 0 std::_Vector_base<short unsigned int, std::allocator<short unsigned int> >::_Vector_impl::_Vector_impl
FUNC 19db4 1a 0 std::allocator<short unsigned int>::~allocator
FUNC 19dce 34 0 std::_Vector_base<short unsigned int, std::allocator<short unsigned int> >::_M_deallocate
FUNC 19e02 25 0 std::_Destroy<short unsigned int*>
FUNC 19e28 3d 0 std::_Vector_base<std::basic_string<char, std::char_traits<char>, std::allocator<char> >, std::allocator<std::basic_string<char, std::char_traits<char>, std::allocator<char> > > >::_Vector_impl::_Vector_impl
FUNC 19e66 1a 0 std::allocator<std::basic_string<char, std::char_traits<char>, std::allocator<char> > >::~allocator
FUNC 19e80 25 0 std::_Destroy<std::basic_string<char, std::char_traits<char>, std::allocator<char> >*>
FUNC 19ea6 53 0 std::_Rb_tree<std::basic_string<char, std::char_traits<char>, std::allocator<char> >, std::pair<const std::basic_string<char, std::char_traits<char>, std::allocator<char> >, std::basic_string<char, std::char_traits<char>, std::allocator<char> > >, std::_Select1st<std::pair<const std::basic_string<char, std::char_traits<char>, std::allocator<char> >, std::basic_string<char, std::char_traits<char>, std::allocator<char> > > >, std::less<std::basic_string<char, std::char_traits<char>, std::allocator<char> > >, std::allocator<std::pair<const std::basic_string<char, std::char_traits<char>, std::allocator<char> >, std::basic_string<char, std::char_traits<char>, std::allocator<char> > > > >::lower_bound
FUNC 19efa a 0 std::_Rb_tree<std::basic_string<char, std::char_traits<char>, std::allocator<char> >, std::pair<const std::basic_string<char, std::char_traits<char>, std::allocator<char> >, std::basic_string<char, std::char_traits<char>, std::allocator<char> > >, std::_Select1st<std::pair<const std::basic_string<char, std::char_traits<char>, std::allocator<char> >, std::basic_string<char, std::char_traits<char>, std::allocator<char> > > >, std::less<std::basic_string<char, std::char_traits<char>, std::allocator<char> > >, std::allocator<std::pair<const std::basic_string<char, std::char_traits<char>, std::allocator<char> >, std::basic_string<char, std::char_traits<char>, std::allocator<char> > > > >::key_comp
FUNC 19f04 28 0 std::operator< <char, std::char_traits<char>, std::allocator<char> >
FUNC 19f2c 4c0 0 std::_Rb_tree<std::basic_string<char, std::char_traits<char>, std::allocator<char> >, std::pair<const std::basic_string<char, std::char_traits<char>, std::allocator<char> >, std::basic_string<char, std::char_traits<char>, std::allocator<char> > >, std::_Select1st<std::pair<const std::basic_string<char, std::char_traits<char>, std::allocator<char> >, std::basic_string<char, std::char_traits<char>, std::allocator<char> > > >, std::less<std::basic_string<char, std::char_traits<char>, std::allocator<char> > >, std::allocator<std::pair<const std::basic_string<char, std::char_traits<char>, std::allocator<char> >, std::basic_string<char, std::char_traits<char>, std::allocator<char> > > > >::_M_insert_unique_
FUNC 1a3ec 92 0 std::_Rb_tree<std::basic_string<char, std::char_traits<char>, std::allocator<char> >, std::pair<const std::basic_string<char, std::char_traits<char>, std::allocator<char> >, std::basic_string<char, std::char_traits<char>, std::allocator<char> > >, std::_Select1st<std::pair<const std::basic_string<char, std::char_traits<char>, std::allocator<char> >, std::basic_string<char, std::char_traits<char>, std::allocator<char> > > >, std::less<std::basic_string<char, std::char_traits<char>, std::allocator<char> > >, std::allocator<std::pair<const std::basic_string<char, std::char_traits<char>, std::allocator<char> >, std::basic_string<char, std::char_traits<char>, std::allocator<char> > > > >::_M_lower_bound
FUNC 1a47e 2c 0 std::_Rb_tree<std::basic_string<char, std::char_traits<char>, std::allocator<char> >, std::pair<const std::basic_string<char, std::char_traits<char>, std::allocator<char> >, std::basic_string<char, std::char_traits<char>, std::allocator<char> > >, std::_Select1st<std::pair<const std::basic_string<char, std::char_traits<char>, std::allocator<char> >, std::basic_string<char, std::char_traits<char>, std::allocator<char> > > >, std::less<std::basic_string<char, std::char_traits<char>, std::allocator<char> > >, std::allocator<std::pair<const std::basic_string<char, std::char_traits<char>, std::allocator<char> >, std::basic_string<char, std::char_traits<char>, std::allocator<char> > > > >::_S_key
FUNC 1a4aa 19 0 std::_Rb_tree_iterator<std::pair<const std::basic_string<char, std::char_traits<char>, std::allocator<char> >, std::basic_string<char, std::char_traits<char>, std::allocator<char> > > >::_Rb_tree_iterator
FUNC 1a4c4 e 0 __gnu_cxx::__normal_iterator<short unsigned int*, std::vector<short unsigned int, std::allocator<short unsigned int> > >::base
FUNC 1a4d2 46 0 std::copy_backward<short unsigned int*, short unsigned int*>
FUNC 1a518 11 0 __gnu_cxx::__normal_iterator<short unsigned int*, std::vector<short unsigned int, std::allocator<short unsigned int> > >::operator*
FUNC 1a52a ca 0 std::vector<short unsigned int, std::allocator<short unsigned int> >::_M_check_len
FUNC 1a5f4 25 0 std::vector<short unsigned int, std::allocator<short unsigned int> >::begin
FUNC 1a619 45 0 __gnu_cxx::operator-<short unsigned int*, std::vector<short unsigned int, std::allocator<short unsigned int> > >
FUNC 1a65e 38 0 std::_Vector_base<short unsigned int, std::allocator<short unsigned int> >::_M_allocate
FUNC 1a696 3b 0 std::__uninitialized_move_a<short unsigned int*, short unsigned int*, std::allocator<short unsigned int> >
FUNC 1a6d2 e 0 __gnu_cxx::new_allocator<short unsigned int>::destroy
FUNC 1a6e0 1c 0 __gnu_cxx::__normal_iterator<short unsigned int*, std::vector<short unsigned int, std::allocator<short unsigned int> > >::__normal_iterator
FUNC 1a6fc 1c 0 __gnu_cxx::__normal_iterator<const short unsigned int*, std::vector<short unsigned int, std::allocator<short unsigned int> > >::__normal_iterator
FUNC 1a718 e 0 __gnu_cxx::__normal_iterator<const short unsigned int*, std::vector<short unsigned int, std::allocator<short unsigned int> > >::base
FUNC 1a726 1c 0 __gnu_cxx::__normal_iterator<const std::basic_string<char, std::char_traits<char>, std::allocator<char> >*, std::vector<std::basic_string<char, std::char_traits<char>, std::allocator<char> >, std::allocator<std::basic_string<char, std::char_traits<char>, std::allocator<char> > > > >::__normal_iterator
FUNC 1a742 38 0 std::_Vector_base<std::basic_string<char, std::char_traits<char>, std::allocator<char> >, std::allocator<std::basic_string<char, std::char_traits<char>, std::allocator<char> > > >::_M_allocate
FUNC 1a77a 22 0 __gnu_cxx::new_allocator<std::basic_string<char, std::char_traits<char>, std::allocator<char> > >::deallocate
FUNC 1a79c e 0 std::__miter_base<__gnu_cxx::__normal_iterator<const std::basic_string<char, std::char_traits<char>, std::allocator<char> >*, std::vector<std::basic_string<char, std::char_traits<char>, std::allocator<char> >, std::allocator<std::basic_string<char, std::char_traits<char>, std::allocator<char> > > > >, false>::__b
FUNC 1a7aa 73 0 std::__copy_move_a2<false, __gnu_cxx::__normal_iterator<const std::basic_string<char, std::char_traits<char>, std::allocator<char> >*, std::vector<std::basic_string<char, std::char_traits<char>, std::allocator<char> >, std::allocator<std::basic_string<char, std::char_traits<char>, std::allocator<char> > > > >, __gnu_cxx::__normal_iterator<std::basic_string<char, std::char_traits<char>, std::allocator<char> >*, std::vector<std::basic_string<char, std::char_traits<char>, std::allocator<char> >, std::allocator<std::basic_string<char, std::char_traits<char>, std::allocator<char> > > > > >
FUNC 1a81d 25 0 std::_Destroy<__gnu_cxx::__normal_iterator<std::basic_string<char, std::char_traits<char>, std::allocator<char> >*, std::vector<std::basic_string<char, std::char_traits<char>, std::allocator<char> >, std::allocator<std::basic_string<char, std::char_traits<char>, std::allocator<char> > > > > >
FUNC 1a842 e 0 std::__miter_base<std::basic_string<char, std::char_traits<char>, std::allocator<char> >*, false>::__b
FUNC 1a850 58 0 std::__copy_move_a2<false, std::basic_string<char, std::char_traits<char>, std::allocator<char> >*, std::basic_string<char, std::char_traits<char>, std::allocator<char> >*>
FUNC 1a8a8 2d 0 std::uninitialized_copy<std::basic_string<char, std::char_traits<char>, std::allocator<char> >*, std::basic_string<char, std::char_traits<char>, std::allocator<char> >*>
FUNC 1a8d5 46 0 std::copy_backward<std::basic_string<char, std::char_traits<char>, std::allocator<char> >*, std::basic_string<char, std::char_traits<char>, std::allocator<char> >*>
FUNC 1a91c 11 0 __gnu_cxx::__normal_iterator<std::basic_string<char, std::char_traits<char>, std::allocator<char> >*, std::vector<std::basic_string<char, std::char_traits<char>, std::allocator<char> >, std::allocator<std::basic_string<char, std::char_traits<char>, std::allocator<char> > > > >::operator*
FUNC 1a92e ca 0 std::vector<std::basic_string<char, std::char_traits<char>, std::allocator<char> >, std::allocator<std::basic_string<char, std::char_traits<char>, std::allocator<char> > > >::_M_check_len
FUNC 1a9f8 46 0 __gnu_cxx::operator-<std::basic_string<char, std::char_traits<char>, std::allocator<char> >*, std::vector<std::basic_string<char, std::char_traits<char>, std::allocator<char> >, std::allocator<std::basic_string<char, std::char_traits<char>, std::allocator<char> > > > >
FUNC 1aa3e 3b 0 std::__uninitialized_move_a<std::basic_string<char, std::char_traits<char>, std::allocator<char> >*, std::basic_string<char, std::char_traits<char>, std::allocator<char> >*, std::allocator<std::basic_string<char, std::char_traits<char>, std::allocator<char> > > >
FUNC 1aa7a 1e 0 __gnu_cxx::new_allocator<std::basic_string<char, std::char_traits<char>, std::allocator<char> > >::destroy
FUNC 1aa98 2d 0 std::uninitialized_copy<__gnu_cxx::__normal_iterator<const std::basic_string<char, std::char_traits<char>, std::allocator<char> >*, std::vector<std::basic_string<char, std::char_traits<char>, std::allocator<char> >, std::allocator<std::basic_string<char, std::char_traits<char>, std::allocator<char> > > > >, std::basic_string<char, std::char_traits<char>, std::allocator<char> >*>
FUNC 1aac5 12 0 std::_Rb_tree<std::basic_string<char, std::char_traits<char>, std::allocator<char> >, std::pair<const std::basic_string<char, std::char_traits<char>, std::allocator<char> >, std::basic_string<char, std::char_traits<char>, std::allocator<char> > >, std::_Select1st<std::pair<const std::basic_string<char, std::char_traits<char>, std::allocator<char> >, std::basic_string<char, std::char_traits<char>, std::allocator<char> > > >, std::less<std::basic_string<char, std::char_traits<char>, std::allocator<char> > >, std::allocator<std::pair<const std::basic_string<char, std::char_traits<char>, std::allocator<char> >, std::basic_string<char, std::char_traits<char>, std::allocator<char> > > > >::_S_right
FUNC 1aad8 1a 0 std::allocator<std::_Rb_tree_node<std::pair<const std::basic_string<char, std::char_traits<char>, std::allocator<char> >, std::basic_string<char, std::char_traits<char>, std::allocator<char> > > > >::allocator
FUNC 1aaf2 41 0 std::_Rb_tree<std::basic_string<char, std::char_traits<char>, std::allocator<char> >, std::pair<const std::basic_string<char, std::char_traits<char>, std::allocator<char> >, std::basic_string<char, std::char_traits<char>, std::allocator<char> > >, std::_Select1st<std::pair<const std::basic_string<char, std::char_traits<char>, std::allocator<char> >, std::basic_string<char, std::char_traits<char>, std::allocator<char> > > >, std::less<std::basic_string<char, std::char_traits<char>, std::allocator<char> > >, std::allocator<std::pair<const std::basic_string<char, std::char_traits<char>, std::allocator<char> >, std::basic_string<char, std::char_traits<char>, std::allocator<char> > > > >::_Rb_tree_impl<std::less<std::basic_string<char, std::char_traits<char>, std::allocator<char> > >, false>::_M_initialize
FUNC 1ab34 3b 0 std::_Rb_tree<std::basic_string<char, std::char_traits<char>, std::allocator<char> >, std::pair<const std::basic_string<char, std::char_traits<char>, std::allocator<char> >, std::basic_string<char, std::char_traits<char>, std::allocator<char> > >, std::_Select1st<std::pair<const std::basic_string<char, std::char_traits<char>, std::allocator<char> >, std::basic_string<char, std::char_traits<char>, std::allocator<char> > > >, std::less<std::basic_string<char, std::char_traits<char>, std::allocator<char> > >, std::allocator<std::pair<const std::basic_string<char, std::char_traits<char>, std::allocator<char> >, std::basic_string<char, std::char_traits<char>, std::allocator<char> > > > >::get_allocator
FUNC 1ab70 1a 0 std::allocator<std::pair<const std::basic_string<char, std::char_traits<char>, std::allocator<char> >, std::basic_string<char, std::char_traits<char>, std::allocator<char> > > >::~allocator
FUNC 1ab8a 1e 0 __gnu_cxx::new_allocator<std::pair<const std::basic_string<char, std::char_traits<char>, std::allocator<char> >, std::basic_string<char, std::char_traits<char>, std::allocator<char> > > >::destroy
FUNC 1aba8 2a 0 std::_Rb_tree<std::basic_string<char, std::char_traits<char>, std::allocator<char> >, std::pair<const std::basic_string<char, std::char_traits<char>, std::allocator<char> >, std::basic_string<char, std::char_traits<char>, std::allocator<char> > >, std::_Select1st<std::pair<const std::basic_string<char, std::char_traits<char>, std::allocator<char> >, std::basic_string<char, std::char_traits<char>, std::allocator<char> > > >, std::less<std::basic_string<char, std::char_traits<char>, std::allocator<char> > >, std::allocator<std::pair<const std::basic_string<char, std::char_traits<char>, std::allocator<char> >, std::basic_string<char, std::char_traits<char>, std::allocator<char> > > > >::_M_put_node
FUNC 1abd2 1a 0 std::allocator<short unsigned int>::allocator
FUNC 1abec a 0 __gnu_cxx::new_allocator<short unsigned int>::~new_allocator
FUNC 1abf6 22 0 __gnu_cxx::new_allocator<short unsigned int>::deallocate
FUNC 1ac18 e 0 std::_Destroy_aux<true>::__destroy<short unsigned int*>
FUNC 1ac26 1a 0 std::allocator<std::basic_string<char, std::char_traits<char>, std::allocator<char> > >::allocator
FUNC 1ac40 a 0 __gnu_cxx::new_allocator<std::basic_string<char, std::char_traits<char>, std::allocator<char> > >::~new_allocator
FUNC 1ac4a 34 0 std::_Destroy_aux<false>::__destroy<std::basic_string<char, std::char_traits<char>, std::allocator<char> >*>
FUNC 1ac7e 12 0 std::_Select1st<std::pair<const std::basic_string<char, std::char_traits<char>, std::allocator<char> >, std::basic_string<char, std::char_traits<char>, std::allocator<char> > > >::operator()
FUNC 1ac90 12 0 std::_Rb_tree<std::basic_string<char, std::char_traits<char>, std::allocator<char> >, std::pair<const std::basic_string<char, std::char_traits<char>, std::allocator<char> >, std::basic_string<char, std::char_traits<char>, std::allocator<char> > >, std::_Select1st<std::pair<const std::basic_string<char, std::char_traits<char>, std::allocator<char> >, std::basic_string<char, std::char_traits<char>, std::allocator<char> > > >, std::less<std::basic_string<char, std::char_traits<char>, std::allocator<char> > >, std::allocator<std::pair<const std::basic_string<char, std::char_traits<char>, std::allocator<char> >, std::basic_string<char, std::char_traits<char>, std::allocator<char> > > > >::size
FUNC 1aca2 e3 0 std::_Rb_tree<std::basic_string<char, std::char_traits<char>, std::allocator<char> >, std::pair<const std::basic_string<char, std::char_traits<char>, std::allocator<char> >, std::basic_string<char, std::char_traits<char>, std::allocator<char> > >, std::_Select1st<std::pair<const std::basic_string<char, std::char_traits<char>, std::allocator<char> >, std::basic_string<char, std::char_traits<char>, std::allocator<char> > > >, std::less<std::basic_string<char, std::char_traits<char>, std::allocator<char> > >, std::allocator<std::pair<const std::basic_string<char, std::char_traits<char>, std::allocator<char> >, std::basic_string<char, std::char_traits<char>, std::allocator<char> > > > >::_M_insert_
FUNC 1ad86 271 0 std::_Rb_tree<std::basic_string<char, std::char_traits<char>, std::allocator<char> >, std::pair<const std::basic_string<char, std::char_traits<char>, std::allocator<char> >, std::basic_string<char, std::char_traits<char>, std::allocator<char> > >, std::_Select1st<std::pair<const std::basic_string<char, std::char_traits<char>, std::allocator<char> >, std::basic_string<char, std::char_traits<char>, std::allocator<char> > > >, std::less<std::basic_string<char, std::char_traits<char>, std::allocator<char> > >, std::allocator<std::pair<const std::basic_string<char, std::char_traits<char>, std::allocator<char> >, std::basic_string<char, std::char_traits<char>, std::allocator<char> > > > >::_M_insert_unique
FUNC 1aff8 28 0 std::_Rb_tree_const_iterator<std::pair<const std::basic_string<char, std::char_traits<char>, std::allocator<char> >, std::basic_string<char, std::char_traits<char>, std::allocator<char> > > >::operator--
FUNC 1b020 28 0 std::_Rb_tree_const_iterator<std::pair<const std::basic_string<char, std::char_traits<char>, std::allocator<char> >, std::basic_string<char, std::char_traits<char>, std::allocator<char> > > >::operator++
FUNC 1b048 2c 0 std::_Rb_tree<std::basic_string<char, std::char_traits<char>, std::allocator<char> >, std::pair<const std::basic_string<char, std::char_traits<char>, std::allocator<char> >, std::basic_string<char, std::char_traits<char>, std::allocator<char> > >, std::_Select1st<std::pair<const std::basic_string<char, std::char_traits<char>, std::allocator<char> >, std::basic_string<char, std::char_traits<char>, std::allocator<char> > > >, std::less<std::basic_string<char, std::char_traits<char>, std::allocator<char> > >, std::allocator<std::pair<const std::basic_string<char, std::char_traits<char>, std::allocator<char> >, std::basic_string<char, std::char_traits<char>, std::allocator<char> > > > >::_S_key
FUNC 1b074 12 0 std::_Rb_tree<std::basic_string<char, std::char_traits<char>, std::allocator<char> >, std::pair<const std::basic_string<char, std::char_traits<char>, std::allocator<char> >, std::basic_string<char, std::char_traits<char>, std::allocator<char> > >, std::_Select1st<std::pair<const std::basic_string<char, std::char_traits<char>, std::allocator<char> >, std::basic_string<char, std::char_traits<char>, std::allocator<char> > > >, std::less<std::basic_string<char, std::char_traits<char>, std::allocator<char> > >, std::allocator<std::pair<const std::basic_string<char, std::char_traits<char>, std::allocator<char> >, std::basic_string<char, std::char_traits<char>, std::allocator<char> > > > >::_S_value
FUNC 1b086 e 0 std::__miter_base<short unsigned int*, false>::__b
FUNC 1b094 58 0 std::__copy_move_backward_a2<false, short unsigned int*, short unsigned int*>
FUNC 1b0ec 28 0 std::vector<short unsigned int, std::allocator<short unsigned int> >::size
FUNC 1b114 22 0 std::vector<short unsigned int, std::allocator<short unsigned int> >::max_size
FUNC 1b136 2b 0 std::max<size_t>
FUNC 1b162 4a 0 __gnu_cxx::new_allocator<short unsigned int>::allocate
FUNC 1b1ac 31 0 std::__uninitialized_copy_a<short unsigned int*, short unsigned int*, short unsigned int>
FUNC 1b1de 4b 0 __gnu_cxx::new_allocator<std::basic_string<char, std::char_traits<char>, std::allocator<char> > >::allocate
FUNC 1b229 1d 0 std::__niter_base<__gnu_cxx::__normal_iterator<const std::basic_string<char, std::char_traits<char>, std::allocator<char> >*, std::vector<std::basic_string<char, std::char_traits<char>, std::allocator<char> >, std::allocator<std::basic_string<char, std::char_traits<char>, std::allocator<char> > > > >, true>::__b
FUNC 1b246 1d 0 std::__niter_base<__gnu_cxx::__normal_iterator<std::basic_string<char, std::char_traits<char>, std::allocator<char> >*, std::vector<std::basic_string<char, std::char_traits<char>, std::allocator<char> >, std::allocator<std::basic_string<char, std::char_traits<char>, std::allocator<char> > > > >, true>::__b
FUNC 1b263 31 0 std::__copy_move_a<false, const std::basic_string<char, std::char_traits<char>, std::allocator<char> >*, std::basic_string<char, std::char_traits<char>, std::allocator<char> >*>
FUNC 1b294 4b 0 std::_Destroy_aux<false>::__destroy<__gnu_cxx::__normal_iterator<std::basic_string<char, std::char_traits<char>, std::allocator<char> >*, std::vector<std::basic_string<char, std::char_traits<char>, std::allocator<char> >, std::allocator<std::basic_string<char, std::char_traits<char>, std::allocator<char> > > > > >
FUNC 1b2df e 0 std::__niter_base<std::basic_string<char, std::char_traits<char>, std::allocator<char> >*, false>::__b
FUNC 1b2ed 31 0 std::__copy_move_a<false, std::basic_string<char, std::char_traits<char>, std::allocator<char> >*, std::basic_string<char, std::char_traits<char>, std::allocator<char> >*>
FUNC 1b31e 92 0 std::__uninitialized_copy<false>::uninitialized_copy<std::basic_string<char, std::char_traits<char>, std::allocator<char> >*, std::basic_string<char, std::char_traits<char>, std::allocator<char> >*>
FUNC 1b3b0 58 0 std::__copy_move_backward_a2<false, std::basic_string<char, std::char_traits<char>, std::allocator<char> >*, std::basic_string<char, std::char_traits<char>, std::allocator<char> >*>
FUNC 1b408 22 0 std::vector<std::basic_string<char, std::char_traits<char>, std::allocator<char> >, std::allocator<std::basic_string<char, std::char_traits<char>, std::allocator<char> > > >::max_size
FUNC 1b42a ac 0 std::__uninitialized_copy<false>::uninitialized_copy<__gnu_cxx::__normal_iterator<const std::basic_string<char, std::char_traits<char>, std::allocator<char> >*, std::vector<std::basic_string<char, std::char_traits<char>, std::allocator<char> >, std::allocator<std::basic_string<char, std::char_traits<char>, std::allocator<char> > > > >, std::basic_string<char, std::char_traits<char>, std::allocator<char> >*>
FUNC 1b4d6 bd 0 std::_Rb_tree<std::basic_string<char, std::char_traits<char>, std::allocator<char> >, std::pair<const std::basic_string<char, std::char_traits<char>, std::allocator<char> >, std::basic_string<char, std::char_traits<char>, std::allocator<char> > >, std::_Select1st<std::pair<const std::basic_string<char, std::char_traits<char>, std::allocator<char> >, std::basic_string<char, std::char_traits<char>, std::allocator<char> > > >, std::less<std::basic_string<char, std::char_traits<char>, std::allocator<char> > >, std::allocator<std::pair<const std::basic_string<char, std::char_traits<char>, std::allocator<char> >, std::basic_string<char, std::char_traits<char>, std::allocator<char> > > > >::_M_create_node
FUNC 1b594 a 0 __gnu_cxx::new_allocator<std::_Rb_tree_node<std::pair<const std::basic_string<char, std::char_traits<char>, std::allocator<char> >, std::basic_string<char, std::char_traits<char>, std::allocator<char> > > > >::new_allocator
FUNC 1b59e e 0 std::_Rb_tree<std::basic_string<char, std::char_traits<char>, std::allocator<char> >, std::pair<const std::basic_string<char, std::char_traits<char>, std::allocator<char> >, std::basic_string<char, std::char_traits<char>, std::allocator<char> > >, std::_Select1st<std::pair<const std::basic_string<char, std::char_traits<char>, std::allocator<char> >, std::basic_string<char, std::char_traits<char>, std::allocator<char> > > >, std::less<std::basic_string<char, std::char_traits<char>, std::allocator<char> > >, std::allocator<std::pair<const std::basic_string<char, std::char_traits<char>, std::allocator<char> >, std::basic_string<char, std::char_traits<char>, std::allocator<char> > > > >::_M_get_Node_allocator
FUNC 1b5ac 1e 0 std::allocator<std::pair<const std::basic_string<char, std::char_traits<char>, std::allocator<char> >, std::basic_string<char, std::char_traits<char>, std::allocator<char> > > >::allocator<std::_Rb_tree_node<std::pair<const std::basic_string<char, std::char_traits<char>, std::allocator<char> >, std::basic_string<char, std::char_traits<char>, std::allocator<char> > > > >
FUNC 1b5ca a 0 __gnu_cxx::new_allocator<std::pair<const std::basic_string<char, std::char_traits<char>, std::allocator<char> >, std::basic_string<char, std::char_traits<char>, std::allocator<char> > > >::~new_allocator
FUNC 1b5d4 22 0 __gnu_cxx::new_allocator<std::_Rb_tree_node<std::pair<const std::basic_string<char, std::char_traits<char>, std::allocator<char> >, std::basic_string<char, std::char_traits<char>, std::allocator<char> > > > >::deallocate
FUNC 1b5f6 a 0 __gnu_cxx::new_allocator<short unsigned int>::new_allocator
FUNC 1b600 a 0 __gnu_cxx::new_allocator<std::basic_string<char, std::char_traits<char>, std::allocator<char> > >::new_allocator
FUNC 1b60a 1a 0 std::_Destroy<std::basic_string<char, std::char_traits<char>, std::allocator<char> > >
FUNC 1b624 2c 0 std::_Rb_tree<std::basic_string<char, std::char_traits<char>, std::allocator<char> >, std::pair<const std::basic_string<char, std::char_traits<char>, std::allocator<char> >, std::basic_string<char, std::char_traits<char>, std::allocator<char> > >, std::_Select1st<std::pair<const std::basic_string<char, std::char_traits<char>, std::allocator<char> >, std::basic_string<char, std::char_traits<char>, std::allocator<char> > > >, std::less<std::basic_string<char, std::char_traits<char>, std::allocator<char> > >, std::allocator<std::pair<const std::basic_string<char, std::char_traits<char>, std::allocator<char> >, std::basic_string<char, std::char_traits<char>, std::allocator<char> > > > >::begin
FUNC 1b650 2e 0 std::pair<std::_Rb_tree_iterator<std::pair<const std::basic_string<char, std::char_traits<char>, std::allocator<char> >, std::basic_string<char, std::char_traits<char>, std::allocator<char> > > >, bool>::pair
FUNC 1b67e 28 0 std::_Rb_tree_iterator<std::pair<const std::basic_string<char, std::char_traits<char>, std::allocator<char> >, std::basic_string<char, std::char_traits<char>, std::allocator<char> > > >::operator--
FUNC 1b6a6 12 0 std::_Rb_tree<std::basic_string<char, std::char_traits<char>, std::allocator<char> >, std::pair<const std::basic_string<char, std::char_traits<char>, std::allocator<char> >, std::basic_string<char, std::char_traits<char>, std::allocator<char> > >, std::_Select1st<std::pair<const std::basic_string<char, std::char_traits<char>, std::allocator<char> >, std::basic_string<char, std::char_traits<char>, std::allocator<char> > > >, std::less<std::basic_string<char, std::char_traits<char>, std::allocator<char> > >, std::allocator<std::pair<const std::basic_string<char, std::char_traits<char>, std::allocator<char> >, std::basic_string<char, std::char_traits<char>, std::allocator<char> > > > >::_S_value
FUNC 1b6b8 e 0 std::__niter_base<short unsigned int*, false>::__b
FUNC 1b6c6 31 0 std::__copy_move_backward_a<false, short unsigned int*, short unsigned int*>
FUNC 1b6f8 e 0 std::_Vector_base<short unsigned int, std::allocator<short unsigned int> >::_M_get_Tp_allocator
FUNC 1b706 14 0 __gnu_cxx::new_allocator<short unsigned int>::max_size
FUNC 1b71a 2d 0 std::uninitialized_copy<short unsigned int*, short unsigned int*>
FUNC 1b748 14 0 __gnu_cxx::new_allocator<std::basic_string<char, std::char_traits<char>, std::allocator<char> > >::max_size
FUNC 1b75c 63 0 std::__copy_move<false, false, std::random_access_iterator_tag>::__copy_m<const std::basic_string<char, std::char_traits<char>, std::allocator<char> >*, std::basic_string<char, std::char_traits<char>, std::allocator<char> >*>
FUNC 1b7bf 3c 0 __gnu_cxx::operator!=<std::basic_string<char, std::char_traits<char>, std::allocator<char> >*, std::vector<std::basic_string<char, std::char_traits<char>, std::allocator<char> >, std::allocator<std::basic_string<char, std::char_traits<char>, std::allocator<char> > > > >
FUNC 1b7fc 20 0 __gnu_cxx::__normal_iterator<std::basic_string<char, std::char_traits<char>, std::allocator<char> >*, std::vector<std::basic_string<char, std::char_traits<char>, std::allocator<char> >, std::allocator<std::basic_string<char, std::char_traits<char>, std::allocator<char> > > > >::operator++
FUNC 1b81c 63 0 std::__copy_move<false, false, std::random_access_iterator_tag>::__copy_m<std::basic_string<char, std::char_traits<char>, std::allocator<char> >*, std::basic_string<char, std::char_traits<char>, std::allocator<char> >*>
FUNC 1b87f 73 0 std::_Construct<std::basic_string<char, std::char_traits<char>, std::allocator<char> >, std::basic_string<char, std::char_traits<char>, std::allocator<char> > >
FUNC 1b8f2 31 0 std::__copy_move_backward_a<false, std::basic_string<char, std::char_traits<char>, std::allocator<char> >*, std::basic_string<char, std::char_traits<char>, std::allocator<char> >*>
FUNC 1b923 3c 0 __gnu_cxx::operator!=<const std::basic_string<char, std::char_traits<char>, std::allocator<char> >*, std::vector<std::basic_string<char, std::char_traits<char>, std::allocator<char> >, std::allocator<std::basic_string<char, std::char_traits<char>, std::allocator<char> > > > >
FUNC 1b960 24 0 std::_Rb_tree<std::basic_string<char, std::char_traits<char>, std::allocator<char> >, std::pair<const std::basic_string<char, std::char_traits<char>, std::allocator<char> >, std::basic_string<char, std::char_traits<char>, std::allocator<char> > >, std::_Select1st<std::pair<const std::basic_string<char, std::char_traits<char>, std::allocator<char> >, std::basic_string<char, std::char_traits<char>, std::allocator<char> > > >, std::less<std::basic_string<char, std::char_traits<char>, std::allocator<char> > >, std::allocator<std::pair<const std::basic_string<char, std::char_traits<char>, std::allocator<char> >, std::basic_string<char, std::char_traits<char>, std::allocator<char> > > > >::_M_get_node
FUNC 1b984 6b 0 std::pair<const std::basic_string<char, std::char_traits<char>, std::allocator<char> >, std::basic_string<char, std::char_traits<char>, std::allocator<char> > >::pair
FUNC 1b9f0 77 0 __gnu_cxx::new_allocator<std::pair<const std::basic_string<char, std::char_traits<char>, std::allocator<char> >, std::basic_string<char, std::char_traits<char>, std::allocator<char> > > >::construct
FUNC 1ba68 a 0 __gnu_cxx::new_allocator<std::pair<const std::basic_string<char, std::char_traits<char>, std::allocator<char> >, std::basic_string<char, std::char_traits<char>, std::allocator<char> > > >::new_allocator
FUNC 1ba72 61 0 std::__copy_move_backward<false, true, std::random_access_iterator_tag>::__copy_move_b<short unsigned int>
FUNC 1bad3 2d 0 std::__uninitialized_copy<true>::uninitialized_copy<short unsigned int*, short unsigned int*>
FUNC 1bb00 63 0 std::__copy_move_backward<false, false, std::random_access_iterator_tag>::__copy_move_b<std::basic_string<char, std::char_traits<char>, std::allocator<char> >*, std::basic_string<char, std::char_traits<char>, std::allocator<char> >*>
FUNC 1bb64 54 0 __gnu_cxx::new_allocator<std::_Rb_tree_node<std::pair<const std::basic_string<char, std::char_traits<char>, std::allocator<char> >, std::basic_string<char, std::char_traits<char>, std::allocator<char> > > > >::allocate
FUNC 1bbb8 46 0 std::copy<short unsigned int*, short unsigned int*>
FUNC 1bbfe 14 0 __gnu_cxx::new_allocator<std::_Rb_tree_node<std::pair<const std::basic_string<char, std::char_traits<char>, std::allocator<char> >, std::basic_string<char, std::char_traits<char>, std::allocator<char> > > > >::max_size
FUNC 1bc12 58 0 std::__copy_move_a2<false, short unsigned int*, short unsigned int*>
FUNC 1bc6a 31 0 std::__copy_move_a<false, short unsigned int*, short unsigned int*>
FUNC 1bc9b 5c 0 std::__copy_move<false, true, std::random_access_iterator_tag>::__copy_m<short unsigned int>
FUNC 1bcf8 119 0 EncapMysql::EncapMysql
FUNC 1be12 102 0 EncapMysql::~EncapMysql
FUNC 1bf14 74 0 EncapMysql::GetInstance
FUNC 1bf88 112 0 EncapMysql::Connect
FUNC 1c09a 31 0 EncapMysql::CloseConnect
FUNC 1c0cc 402 0 EncapMysql::SelectQuery
FUNC 1c4ce 1e3 0 EncapMysql::ModifyQuery
FUNC 1c6b2 4e 0 EncapMysql::FetchRow
FUNC 1c700 c3 0 EncapMysql::GetField
FUNC 1c7c4 3b 0 EncapMysql::GetField
FUNC 1c800 40 0 EncapMysql::FreePreResult
FUNC 1c840 12 0 EncapMysql::GetErrMsg
FUNC 1c852 12 0 EncapMysql::IsConnected
FUNC 1c864 1a 0 EncapMysql::SetConnected
FUNC 1c87e 68 0 EncapMysql::SaveParam
FUNC 1c8e6 107 0 EncapMysql::ReConnect
FUNC 1c9ee 11 0 EncapMysql::SetUsed
FUNC 1ca00 11 0 EncapMysql::SetIdle
FUNC 1ca12 14 0 EncapMysql::IsIdle
FUNC 1ca26 77 0 __static_initialization_and_destruction_0
FUNC 1ca9d 15 0 _GLOBAL__I_EncapMysql.cpp
FUNC 1cab2 1a 0 Mutex::WriterLock
FUNC 1cacc 1a 0 Mutex::WriterUnlock
FUNC 1cae6 12 0 Mutex::SetIsSafe
FUNC 1caf8 50 0 Mutex::Mutex
FUNC 1cb48 3f 0 Mutex::~Mutex
FUNC 1cb88 3f 0 Mutex::Lock
FUNC 1cbc8 3f 0 Mutex::Unlock
FUNC 1cc08 2c 0 WriterMutexLock::WriterMutexLock
FUNC 1cc34 1d 0 WriterMutexLock::~WriterMutexLock
FUNC 1cc52 1a 0 std::map<std::basic_string<char, std::char_traits<char>, std::allocator<char> >, int, std::less<std::basic_string<char, std::char_traits<char>, std::allocator<char> > >, std::allocator<std::pair<const std::basic_string<char, std::char_traits<char>, std::allocator<char> >, int> > >::~map
FUNC 1cc6c 1a 0 std::map<std::basic_string<char, std::char_traits<char>, std::allocator<char> >, int, std::less<std::basic_string<char, std::char_traits<char>, std::allocator<char> > >, std::allocator<std::pair<const std::basic_string<char, std::char_traits<char>, std::allocator<char> >, int> > >::map
FUNC 1cc86 1a 0 std::_Rb_tree<std::basic_string<char, std::char_traits<char>, std::allocator<char> >, std::pair<const std::basic_string<char, std::char_traits<char>, std::allocator<char> >, int>, std::_Select1st<std::pair<const std::basic_string<char, std::char_traits<char>, std::allocator<char> >, int> >, std::less<std::basic_string<char, std::char_traits<char>, std::allocator<char> > >, std::allocator<std::pair<const std::basic_string<char, std::char_traits<char>, std::allocator<char> >, int> > >::_Rb_tree_impl<std::less<std::basic_string<char, std::char_traits<char>, std::allocator<char> > >, false>::~_Rb_tree_impl
FUNC 1cca0 63 0 std::_Rb_tree<std::basic_string<char, std::char_traits<char>, std::allocator<char> >, std::pair<const std::basic_string<char, std::char_traits<char>, std::allocator<char> >, int>, std::_Select1st<std::pair<const std::basic_string<char, std::char_traits<char>, std::allocator<char> >, int> >, std::less<std::basic_string<char, std::char_traits<char>, std::allocator<char> > >, std::allocator<std::pair<const std::basic_string<char, std::char_traits<char>, std::allocator<char> >, int> > >::~_Rb_tree
FUNC 1cd04 1a 0 std::map<std::basic_string<char, std::char_traits<char>, std::allocator<char> >, int, std::less<std::basic_string<char, std::char_traits<char>, std::allocator<char> > >, std::allocator<std::pair<const std::basic_string<char, std::char_traits<char>, std::allocator<char> >, int> > >::clear
FUNC 1cd1e 1a 0 std::pair<const std::basic_string<char, std::char_traits<char>, std::allocator<char> >, int>::~pair
FUNC 1cd38 118 0 std::map<std::basic_string<char, std::char_traits<char>, std::allocator<char> >, int, std::less<std::basic_string<char, std::char_traits<char>, std::allocator<char> > >, std::allocator<std::pair<const std::basic_string<char, std::char_traits<char>, std::allocator<char> >, int> > >::operator[]
FUNC 1ce50 1a 0 std::_Rb_tree<std::basic_string<char, std::char_traits<char>, std::allocator<char> >, std::pair<const std::basic_string<char, std::char_traits<char>, std::allocator<char> >, int>, std::_Select1st<std::pair<const std::basic_string<char, std::char_traits<char>, std::allocator<char> >, int> >, std::less<std::basic_string<char, std::char_traits<char>, std::allocator<char> > >, std::allocator<std::pair<const std::basic_string<char, std::char_traits<char>, std::allocator<char> >, int> > >::_Rb_tree
FUNC 1ce6a 1a 0 std::allocator<std::_Rb_tree_node<std::pair<const std::basic_string<char, std::char_traits<char>, std::allocator<char> >, int> > >::~allocator
FUNC 1ce84 69 0 std::_Rb_tree<std::basic_string<char, std::char_traits<char>, std::allocator<char> >, std::pair<const std::basic_string<char, std::char_traits<char>, std::allocator<char> >, int>, std::_Select1st<std::pair<const std::basic_string<char, std::char_traits<char>, std::allocator<char> >, int> >, std::less<std::basic_string<char, std::char_traits<char>, std::allocator<char> > >, std::allocator<std::pair<const std::basic_string<char, std::char_traits<char>, std::allocator<char> >, int> > >::_M_erase
FUNC 1ceee 12 0 std::_Rb_tree<std::basic_string<char, std::char_traits<char>, std::allocator<char> >, std::pair<const std::basic_string<char, std::char_traits<char>, std::allocator<char> >, int>, std::_Select1st<std::pair<const std::basic_string<char, std::char_traits<char>, std::allocator<char> >, int> >, std::less<std::basic_string<char, std::char_traits<char>, std::allocator<char> > >, std::allocator<std::pair<const std::basic_string<char, std::char_traits<char>, std::allocator<char> >, int> > >::_M_begin
FUNC 1cf00 8d 0 std::_Rb_tree<std::basic_string<char, std::char_traits<char>, std::allocator<char> >, std::pair<const std::basic_string<char, std::char_traits<char>, std::allocator<char> >, int>, std::_Select1st<std::pair<const std::basic_string<char, std::char_traits<char>, std::allocator<char> >, int> >, std::less<std::basic_string<char, std::char_traits<char>, std::allocator<char> > >, std::allocator<std::pair<const std::basic_string<char, std::char_traits<char>, std::allocator<char> >, int> > >::clear
FUNC 1cf8e 25 0 std::map<std::basic_string<char, std::char_traits<char>, std::allocator<char> >, int, std::less<std::basic_string<char, std::char_traits<char>, std::allocator<char> > >, std::allocator<std::pair<const std::basic_string<char, std::char_traits<char>, std::allocator<char> >, int> > >::lower_bound
FUNC 1cfb4 1a 0 std::map<std::basic_string<char, std::char_traits<char>, std::allocator<char> >, int, std::less<std::basic_string<char, std::char_traits<char>, std::allocator<char> > >, std::allocator<std::pair<const std::basic_string<char, std::char_traits<char>, std::allocator<char> >, int> > >::key_comp
FUNC 1cfce 15 0 std::_Rb_tree_iterator<std::pair<const std::basic_string<char, std::char_traits<char>, std::allocator<char> >, int> >::operator*
FUNC 1cfe4 1a 0 std::map<std::basic_string<char, std::char_traits<char>, std::allocator<char> >, int, std::less<std::basic_string<char, std::char_traits<char>, std::allocator<char> > >, std::allocator<std::pair<const std::basic_string<char, std::char_traits<char>, std::allocator<char> >, int> > >::end
FUNC 1cffe 22 0 std::_Rb_tree_iterator<std::pair<const std::basic_string<char, std::char_traits<char>, std::allocator<char> >, int> >::operator==
FUNC 1d020 36 0 std::pair<const std::basic_string<char, std::char_traits<char>, std::allocator<char> >, int>::pair
FUNC 1d056 40 0 std::map<std::basic_string<char, std::char_traits<char>, std::allocator<char> >, int, std::less<std::basic_string<char, std::char_traits<char>, std::allocator<char> > >, std::allocator<std::pair<const std::basic_string<char, std::char_traits<char>, std::allocator<char> >, int> > >::insert
FUNC 1d096 8c 0 std::_Rb_tree<std::basic_string<char, std::char_traits<char>, std::allocator<char> >, std::pair<const std::basic_string<char, std::char_traits<char>, std::allocator<char> >, int>, std::_Select1st<std::pair<const std::basic_string<char, std::char_traits<char>, std::allocator<char> >, int> >, std::less<std::basic_string<char, std::char_traits<char>, std::allocator<char> > >, std::allocator<std::pair<const std::basic_string<char, std::char_traits<char>, std::allocator<char> >, int> > >::_Rb_tree_impl<std::less<std::basic_string<char, std::char_traits<char>, std::allocator<char> > >, false>::_Rb_tree_impl
FUNC 1d122 a 0 __gnu_cxx::new_allocator<std::_Rb_tree_node<std::pair<const std::basic_string<char, std::char_traits<char>, std::allocator<char> >, int> > >::~new_allocator
FUNC 1d12c 12 0 std::_Rb_tree<std::basic_string<char, std::char_traits<char>, std::allocator<char> >, std::pair<const std::basic_string<char, std::char_traits<char>, std::allocator<char> >, int>, std::_Select1st<std::pair<const std::basic_string<char, std::char_traits<char>, std::allocator<char> >, int> >, std::less<std::basic_string<char, std::char_traits<char>, std::allocator<char> > >, std::allocator<std::pair<const std::basic_string<char, std::char_traits<char>, std::allocator<char> >, int> > >::_S_right
FUNC 1d13e 12 0 std::_Rb_tree<std::basic_string<char, std::char_traits<char>, std::allocator<char> >, std::pair<const std::basic_string<char, std::char_traits<char>, std::allocator<char> >, int>, std::_Select1st<std::pair<const std::basic_string<char, std::char_traits<char>, std::allocator<char> >, int> >, std::less<std::basic_string<char, std::char_traits<char>, std::allocator<char> > >, std::allocator<std::pair<const std::basic_string<char, std::char_traits<char>, std::allocator<char> >, int> > >::_S_left
FUNC 1d150 86 0 std::_Rb_tree<std::basic_string<char, std::char_traits<char>, std::allocator<char> >, std::pair<const std::basic_string<char, std::char_traits<char>, std::allocator<char> >, int>, std::_Select1st<std::pair<const std::basic_string<char, std::char_traits<char>, std::allocator<char> >, int> >, std::less<std::basic_string<char, std::char_traits<char>, std::allocator<char> > >, std::allocator<std::pair<const std::basic_string<char, std::char_traits<char>, std::allocator<char> >, int> > >::_M_destroy_node
FUNC 1d1d6 12 0 std::_Rb_tree<std::basic_string<char, std::char_traits<char>, std::allocator<char> >, std::pair<const std::basic_string<char, std::char_traits<char>, std::allocator<char> >, int>, std::_Select1st<std::pair<const std::basic_string<char, std::char_traits<char>, std::allocator<char> >, int> >, std::less<std::basic_string<char, std::char_traits<char>, std::allocator<char> > >, std::allocator<std::pair<const std::basic_string<char, std::char_traits<char>, std::allocator<char> >, int> > >::_M_end
FUNC 1d1e8 12 0 std::_Rb_tree<std::basic_string<char, std::char_traits<char>, std::allocator<char> >, std::pair<const std::basic_string<char, std::char_traits<char>, std::allocator<char> >, int>, std::_Select1st<std::pair<const std::basic_string<char, std::char_traits<char>, std::allocator<char> >, int> >, std::less<std::basic_string<char, std::char_traits<char>, std::allocator<char> > >, std::allocator<std::pair<const std::basic_string<char, std::char_traits<char>, std::allocator<char> >, int> > >::_M_leftmost
FUNC 1d1fa 12 0 std::_Rb_tree<std::basic_string<char, std::char_traits<char>, std::allocator<char> >, std::pair<const std::basic_string<char, std::char_traits<char>, std::allocator<char> >, int>, std::_Select1st<std::pair<const std::basic_string<char, std::char_traits<char>, std::allocator<char> >, int> >, std::less<std::basic_string<char, std::char_traits<char>, std::allocator<char> > >, std::allocator<std::pair<const std::basic_string<char, std::char_traits<char>, std::allocator<char> >, int> > >::_M_root
FUNC 1d20c 12 0 std::_Rb_tree<std::basic_string<char, std::char_traits<char>, std::allocator<char> >, std::pair<const std::basic_string<char, std::char_traits<char>, std::allocator<char> >, int>, std::_Select1st<std::pair<const std::basic_string<char, std::char_traits<char>, std::allocator<char> >, int> >, std::less<std::basic_string<char, std::char_traits<char>, std::allocator<char> > >, std::allocator<std::pair<const std::basic_string<char, std::char_traits<char>, std::allocator<char> >, int> > >::_M_rightmost
FUNC 1d21e 53 0 std::_Rb_tree<std::basic_string<char, std::char_traits<char>, std::allocator<char> >, std::pair<const std::basic_string<char, std::char_traits<char>, std::allocator<char> >, int>, std::_Select1st<std::pair<const std::basic_string<char, std::char_traits<char>, std::allocator<char> >, int> >, std::less<std::basic_string<char, std::char_traits<char>, std::allocator<char> > >, std::allocator<std::pair<const std::basic_string<char, std::char_traits<char>, std::allocator<char> >, int> > >::lower_bound
FUNC 1d272 a 0 std::_Rb_tree<std::basic_string<char, std::char_traits<char>, std::allocator<char> >, std::pair<const std::basic_string<char, std::char_traits<char>, std::allocator<char> >, int>, std::_Select1st<std::pair<const std::basic_string<char, std::char_traits<char>, std::allocator<char> >, int> >, std::less<std::basic_string<char, std::char_traits<char>, std::allocator<char> > >, std::allocator<std::pair<const std::basic_string<char, std::char_traits<char>, std::allocator<char> >, int> > >::key_comp
FUNC 1d27c 2c 0 std::_Rb_tree<std::basic_string<char, std::char_traits<char>, std::allocator<char> >, std::pair<const std::basic_string<char, std::char_traits<char>, std::allocator<char> >, int>, std::_Select1st<std::pair<const std::basic_string<char, std::char_traits<char>, std::allocator<char> >, int> >, std::less<std::basic_string<char, std::char_traits<char>, std::allocator<char> > >, std::allocator<std::pair<const std::basic_string<char, std::char_traits<char>, std::allocator<char> >, int> > >::end
FUNC 1d2a8 1c 0 std::_Rb_tree_const_iterator<std::pair<const std::basic_string<char, std::char_traits<char>, std::allocator<char> >, int> >::_Rb_tree_const_iterator
FUNC 1d2c4 4c0 0 std::_Rb_tree<std::basic_string<char, std::char_traits<char>, std::allocator<char> >, std::pair<const std::basic_string<char, std::char_traits<char>, std::allocator<char> >, int>, std::_Select1st<std::pair<const std::basic_string<char, std::char_traits<char>, std::allocator<char> >, int> >, std::less<std::basic_string<char, std::char_traits<char>, std::allocator<char> > >, std::allocator<std::pair<const std::basic_string<char, std::char_traits<char>, std::allocator<char> >, int> > >::_M_insert_unique_
FUNC 1d784 1a 0 std::allocator<std::_Rb_tree_node<std::pair<const std::basic_string<char, std::char_traits<char>, std::allocator<char> >, int> > >::allocator
FUNC 1d79e 41 0 std::_Rb_tree<std::basic_string<char, std::char_traits<char>, std::allocator<char> >, std::pair<const std::basic_string<char, std::char_traits<char>, std::allocator<char> >, int>, std::_Select1st<std::pair<const std::basic_string<char, std::char_traits<char>, std::allocator<char> >, int> >, std::less<std::basic_string<char, std::char_traits<char>, std::allocator<char> > >, std::allocator<std::pair<const std::basic_string<char, std::char_traits<char>, std::allocator<char> >, int> > >::_Rb_tree_impl<std::less<std::basic_string<char, std::char_traits<char>, std::allocator<char> > >, false>::_M_initialize
FUNC 1d7e0 3b 0 std::_Rb_tree<std::basic_string<char, std::char_traits<char>, std::allocator<char> >, std::pair<const std::basic_string<char, std::char_traits<char>, std::allocator<char> >, int>, std::_Select1st<std::pair<const std::basic_string<char, std::char_traits<char>, std::allocator<char> >, int> >, std::less<std::basic_string<char, std::char_traits<char>, std::allocator<char> > >, std::allocator<std::pair<const std::basic_string<char, std::char_traits<char>, std::allocator<char> >, int> > >::get_allocator
FUNC 1d81c 1a 0 std::allocator<std::pair<const std::basic_string<char, std::char_traits<char>, std::allocator<char> >, int> >::~allocator
FUNC 1d836 1e 0 __gnu_cxx::new_allocator<std::pair<const std::basic_string<char, std::char_traits<char>, std::allocator<char> >, int> >::destroy
FUNC 1d854 2a 0 std::_Rb_tree<std::basic_string<char, std::char_traits<char>, std::allocator<char> >, std::pair<const std::basic_string<char, std::char_traits<char>, std::allocator<char> >, int>, std::_Select1st<std::pair<const std::basic_string<char, std::char_traits<char>, std::allocator<char> >, int> >, std::less<std::basic_string<char, std::char_traits<char>, std::allocator<char> > >, std::allocator<std::pair<const std::basic_string<char, std::char_traits<char>, std::allocator<char> >, int> > >::_M_put_node
FUNC 1d87e 92 0 std::_Rb_tree<std::basic_string<char, std::char_traits<char>, std::allocator<char> >, std::pair<const std::basic_string<char, std::char_traits<char>, std::allocator<char> >, int>, std::_Select1st<std::pair<const std::basic_string<char, std::char_traits<char>, std::allocator<char> >, int> >, std::less<std::basic_string<char, std::char_traits<char>, std::allocator<char> > >, std::allocator<std::pair<const std::basic_string<char, std::char_traits<char>, std::allocator<char> >, int> > >::_M_lower_bound
FUNC 1d910 19 0 std::_Rb_tree_iterator<std::pair<const std::basic_string<char, std::char_traits<char>, std::allocator<char> >, int> >::_Rb_tree_iterator
FUNC 1d929 2c 0 std::_Rb_tree<std::basic_string<char, std::char_traits<char>, std::allocator<char> >, std::pair<const std::basic_string<char, std::char_traits<char>, std::allocator<char> >, int>, std::_Select1st<std::pair<const std::basic_string<char, std::char_traits<char>, std::allocator<char> >, int> >, std::less<std::basic_string<char, std::char_traits<char>, std::allocator<char> > >, std::allocator<std::pair<const std::basic_string<char, std::char_traits<char>, std::allocator<char> >, int> > >::_S_key
FUNC 1d956 12 0 std::_Select1st<std::pair<const std::basic_string<char, std::char_traits<char>, std::allocator<char> >, int> >::operator()
FUNC 1d968 12 0 std::_Rb_tree<std::basic_string<char, std::char_traits<char>, std::allocator<char> >, std::pair<const std::basic_string<char, std::char_traits<char>, std::allocator<char> >, int>, std::_Select1st<std::pair<const std::basic_string<char, std::char_traits<char>, std::allocator<char> >, int> >, std::less<std::basic_string<char, std::char_traits<char>, std::allocator<char> > >, std::allocator<std::pair<const std::basic_string<char, std::char_traits<char>, std::allocator<char> >, int> > >::size
FUNC 1d97a e3 0 std::_Rb_tree<std::basic_string<char, std::char_traits<char>, std::allocator<char> >, std::pair<const std::basic_string<char, std::char_traits<char>, std::allocator<char> >, int>, std::_Select1st<std::pair<const std::basic_string<char, std::char_traits<char>, std::allocator<char> >, int> >, std::less<std::basic_string<char, std::char_traits<char>, std::allocator<char> > >, std::allocator<std::pair<const std::basic_string<char, std::char_traits<char>, std::allocator<char> >, int> > >::_M_insert_
FUNC 1da5e 271 0 std::_Rb_tree<std::basic_string<char, std::char_traits<char>, std::allocator<char> >, std::pair<const std::basic_string<char, std::char_traits<char>, std::allocator<char> >, int>, std::_Select1st<std::pair<const std::basic_string<char, std::char_traits<char>, std::allocator<char> >, int> >, std::less<std::basic_string<char, std::char_traits<char>, std::allocator<char> > >, std::allocator<std::pair<const std::basic_string<char, std::char_traits<char>, std::allocator<char> >, int> > >::_M_insert_unique
FUNC 1dcd0 28 0 std::_Rb_tree_const_iterator<std::pair<const std::basic_string<char, std::char_traits<char>, std::allocator<char> >, int> >::operator--
FUNC 1dcf8 12 0 std::_Rb_tree<std::basic_string<char, std::char_traits<char>, std::allocator<char> >, std::pair<const std::basic_string<char, std::char_traits<char>, std::allocator<char> >, int>, std::_Select1st<std::pair<const std::basic_string<char, std::char_traits<char>, std::allocator<char> >, int> >, std::less<std::basic_string<char, std::char_traits<char>, std::allocator<char> > >, std::allocator<std::pair<const std::basic_string<char, std::char_traits<char>, std::allocator<char> >, int> > >::_S_right
FUNC 1dd0a 28 0 std::_Rb_tree_const_iterator<std::pair<const std::basic_string<char, std::char_traits<char>, std::allocator<char> >, int> >::operator++
FUNC 1dd32 a 0 __gnu_cxx::new_allocator<std::_Rb_tree_node<std::pair<const std::basic_string<char, std::char_traits<char>, std::allocator<char> >, int> > >::new_allocator
FUNC 1dd3c e 0 std::_Rb_tree<std::basic_string<char, std::char_traits<char>, std::allocator<char> >, std::pair<const std::basic_string<char, std::char_traits<char>, std::allocator<char> >, int>, std::_Select1st<std::pair<const std::basic_string<char, std::char_traits<char>, std::allocator<char> >, int> >, std::less<std::basic_string<char, std::char_traits<char>, std::allocator<char> > >, std::allocator<std::pair<const std::basic_string<char, std::char_traits<char>, std::allocator<char> >, int> > >::_M_get_Node_allocator
FUNC 1dd4a 1e 0 std::allocator<std::pair<const std::basic_string<char, std::char_traits<char>, std::allocator<char> >, int> >::allocator<std::_Rb_tree_node<std::pair<const std::basic_string<char, std::char_traits<char>, std::allocator<char> >, int> > >
FUNC 1dd68 a 0 __gnu_cxx::new_allocator<std::pair<const std::basic_string<char, std::char_traits<char>, std::allocator<char> >, int> >::~new_allocator
FUNC 1dd72 22 0 __gnu_cxx::new_allocator<std::_Rb_tree_node<std::pair<const std::basic_string<char, std::char_traits<char>, std::allocator<char> >, int> > >::deallocate
FUNC 1dd94 2c 0 std::_Rb_tree<std::basic_string<char, std::char_traits<char>, std::allocator<char> >, std::pair<const std::basic_string<char, std::char_traits<char>, std::allocator<char> >, int>, std::_Select1st<std::pair<const std::basic_string<char, std::char_traits<char>, std::allocator<char> >, int> >, std::less<std::basic_string<char, std::char_traits<char>, std::allocator<char> > >, std::allocator<std::pair<const std::basic_string<char, std::char_traits<char>, std::allocator<char> >, int> > >::_S_key
FUNC 1ddc0 12 0 std::_Rb_tree<std::basic_string<char, std::char_traits<char>, std::allocator<char> >, std::pair<const std::basic_string<char, std::char_traits<char>, std::allocator<char> >, int>, std::_Select1st<std::pair<const std::basic_string<char, std::char_traits<char>, std::allocator<char> >, int> >, std::less<std::basic_string<char, std::char_traits<char>, std::allocator<char> > >, std::allocator<std::pair<const std::basic_string<char, std::char_traits<char>, std::allocator<char> >, int> > >::_S_value
FUNC 1ddd2 bd 0 std::_Rb_tree<std::basic_string<char, std::char_traits<char>, std::allocator<char> >, std::pair<const std::basic_string<char, std::char_traits<char>, std::allocator<char> >, int>, std::_Select1st<std::pair<const std::basic_string<char, std::char_traits<char>, std::allocator<char> >, int> >, std::less<std::basic_string<char, std::char_traits<char>, std::allocator<char> > >, std::allocator<std::pair<const std::basic_string<char, std::char_traits<char>, std::allocator<char> >, int> > >::_M_create_node
FUNC 1de90 2c 0 std::_Rb_tree<std::basic_string<char, std::char_traits<char>, std::allocator<char> >, std::pair<const std::basic_string<char, std::char_traits<char>, std::allocator<char> >, int>, std::_Select1st<std::pair<const std::basic_string<char, std::char_traits<char>, std::allocator<char> >, int> >, std::less<std::basic_string<char, std::char_traits<char>, std::allocator<char> > >, std::allocator<std::pair<const std::basic_string<char, std::char_traits<char>, std::allocator<char> >, int> > >::begin
FUNC 1debc 2e 0 std::pair<std::_Rb_tree_iterator<std::pair<const std::basic_string<char, std::char_traits<char>, std::allocator<char> >, int> >, bool>::pair
FUNC 1deea 28 0 std::_Rb_tree_iterator<std::pair<const std::basic_string<char, std::char_traits<char>, std::allocator<char> >, int> >::operator--
FUNC 1df12 a 0 __gnu_cxx::new_allocator<std::pair<const std::basic_string<char, std::char_traits<char>, std::allocator<char> >, int> >::new_allocator
FUNC 1df1c 12 0 std::_Rb_tree<std::basic_string<char, std::char_traits<char>, std::allocator<char> >, std::pair<const std::basic_string<char, std::char_traits<char>, std::allocator<char> >, int>, std::_Select1st<std::pair<const std::basic_string<char, std::char_traits<char>, std::allocator<char> >, int> >, std::less<std::basic_string<char, std::char_traits<char>, std::allocator<char> > >, std::allocator<std::pair<const std::basic_string<char, std::char_traits<char>, std::allocator<char> >, int> > >::_S_value
FUNC 1df2e 24 0 std::_Rb_tree<std::basic_string<char, std::char_traits<char>, std::allocator<char> >, std::pair<const std::basic_string<char, std::char_traits<char>, std::allocator<char> >, int>, std::_Select1st<std::pair<const std::basic_string<char, std::char_traits<char>, std::allocator<char> >, int> >, std::less<std::basic_string<char, std::char_traits<char>, std::allocator<char> > >, std::allocator<std::pair<const std::basic_string<char, std::char_traits<char>, std::allocator<char> >, int> > >::_M_get_node
FUNC 1df52 33 0 std::pair<const std::basic_string<char, std::char_traits<char>, std::allocator<char> >, int>::pair
FUNC 1df86 77 0 __gnu_cxx::new_allocator<std::pair<const std::basic_string<char, std::char_traits<char>, std::allocator<char> >, int> >::construct
FUNC 1dffe 54 0 __gnu_cxx::new_allocator<std::_Rb_tree_node<std::pair<const std::basic_string<char, std::char_traits<char>, std::allocator<char> >, int> > >::allocate
FUNC 1e052 14 0 __gnu_cxx::new_allocator<std::_Rb_tree_node<std::pair<const std::basic_string<char, std::char_traits<char>, std::allocator<char> >, int> > >::max_size
FUNC 1e068 28 0 IEC103Manager::IEC103Manager
FUNC 1e090 61 0 IEC103Manager::~IEC103Manager
FUNC 1e0f2 26 0 IEC103Manager::~IEC103Manager
FUNC 1e118 b3f 0 IEC103Manager::Init
FUNC 1ec58 2d 0 IEC103Manager::Start
FUNC 1ec86 1b 0 IEC103Manager::Stop
FUNC 1eca2 62 0 IEC103Manager::SignalHandle
FUNC 1ed04 257 0 __static_initialization_and_destruction_0
FUNC 1ef5b 15 0 _GLOBAL__I_IEC103Manager.cpp
FUNC 1ef70 1a 0 std::char_traits<char>::length
FUNC 1ef8a 2e 0 std::_Rb_tree_node_base::_S_minimum
FUNC 1efb8 2e 0 std::_Rb_tree_node_base::_S_maximum
FUNC 1efe6 33 0 Config::GetChannelName
FUNC 1f01a 12 0 Config::GetNetType
FUNC 1f02c 29 0 Config::SetIp
FUNC 1f056 1a 0 Config::SetUdpPort
FUNC 1f070 14 0 Config::GetIec103RunType
FUNC 1f084 37 0 boost::thread_exception::thread_exception
FUNC 1f0bc 39 0 boost::thread_exception::thread_exception
FUNC 1f0f6 41 0 boost::thread_exception::~thread_exception
FUNC 1f138 26 0 boost::thread_exception::~thread_exception
FUNC 1f15e 34 0 boost::lock_error::lock_error
FUNC 1f192 41 0 boost::lock_error::~lock_error
FUNC 1f1d4 26 0 boost::lock_error::~lock_error
FUNC 1f1fa 11 0 boost::lock_error::what
FUNC 1f20c 2c 0 boost::thread_resource_error::thread_resource_error
FUNC 1f238 41 0 boost::thread_resource_error::~thread_resource_error
FUNC 1f27a 26 0 boost::thread_resource_error::~thread_resource_error
FUNC 1f2a0 11 0 boost::thread_resource_error::what
FUNC 1f2b1 a 0 boost::throw_exception_assert_compatibility
FUNC 1f2bc 69 0 boost::mutex::mutex
FUNC 1f326 3d 0 boost::mutex::~mutex
FUNC 1f364 69 0 boost::mutex::lock
FUNC 1f3ce 3d 0 boost::mutex::unlock
FUNC 1f40c 2c 0 Log::Logger::setlogPath
FUNC 1f438 bd 0 stLogInfo::stLogInfo
FUNC 1f4f6 5d 0 stLogInfo::~stLogInfo
FUNC 1f554 d1 0 WgjFunctionEx::LogSend
FUNC 1f626 1a 0 std::map<std::basic_string<char, std::char_traits<char>, std::allocator<char> >, IEC103::stConfigParam, std::less<std::basic_string<char, std::char_traits<char>, std::allocator<char> > >, std::allocator<std::pair<const std::basic_string<char, std::char_traits<char>, std::allocator<char> >, IEC103::stConfigParam> > >::~map
FUNC 1f640 1a 0 std::map<std::basic_string<char, std::char_traits<char>, std::allocator<char> >, std::map<std::basic_string<char, std::char_traits<char>, std::allocator<char> >, std::basic_string<char, std::char_traits<char>, std::allocator<char> >, std::less<std::basic_string<char, std::char_traits<char>, std::allocator<char> > >, std::allocator<std::pair<const std::basic_string<char, std::char_traits<char>, std::allocator<char> >, std::basic_string<char, std::char_traits<char>, std::allocator<char> > > > >, std::less<std::basic_string<char, std::char_traits<char>, std::allocator<char> > >, std::allocator<std::pair<const std::basic_string<char, std::char_traits<char>, std::allocator<char> >, std::map<std::basic_string<char, std::char_traits<char>, std::allocator<char> >, std::basic_string<char, std::char_traits<char>, std::allocator<char> >, std::less<std::basic_string<char, std::char_traits<char>, std::allocator<char> > >, std::allocator<std::pair<const std::basic_string<char, std::char_traits<char>, std::allocator<char> >, std::basic_string<char, std::char_traits<char>, std::allocator<char> > > > > > > >::~map
FUNC 1f65a 45 0 boost::thread_exception::thread_exception
FUNC 1f6a0 37 0 boost::thread_resource_error::thread_resource_error
FUNC 1f6d8 8e 0 boost::exception_detail::error_info_injector<boost::thread_resource_error>::error_info_injector
FUNC 1f766 78 0 boost::exception_detail::clone_impl<boost::exception_detail::error_info_injector<boost::thread_resource_error> >::clone_impl
FUNC 1f7de ac 0 boost::throw_exception<boost::thread_resource_error>
FUNC 1f88a 37 0 boost::lock_error::lock_error
FUNC 1f8c2 8e 0 boost::exception_detail::error_info_injector<boost::lock_error>::error_info_injector
FUNC 1f950 78 0 boost::exception_detail::clone_impl<boost::exception_detail::error_info_injector<boost::lock_error> >::clone_impl
FUNC 1f9c8 ac 0 boost::throw_exception<boost::lock_error>
FUNC 1fa74 2c 0 boost::lock_guard<boost::mutex>::lock_guard
FUNC 1faa0 1d 0 boost::lock_guard<boost::mutex>::~lock_guard
FUNC 1fabd ae 0 std::operator+<char, std::char_traits<char>, std::allocator<char> >
FUNC 1fb6c 34 0 std::list<stLogInfo, std::allocator<stLogInfo> >::push_back
FUNC 1fba0 e5 0 DesignPattern::Singleton<Log::Logger, 0>::instance
FUNC 1fc85 6e 0 std::operator+<char, std::char_traits<char>, std::allocator<char> >
FUNC 1fcf4 1a 0 std::_Rb_tree<std::basic_string<char, std::char_traits<char>, std::allocator<char> >, std::pair<const std::basic_string<char, std::char_traits<char>, std::allocator<char> >, IEC103::stConfigParam>, std::_Select1st<std::pair<const std::basic_string<char, std::char_traits<char>, std::allocator<char> >, IEC103::stConfigParam> >, std::less<std::basic_string<char, std::char_traits<char>, std::allocator<char> > >, std::allocator<std::pair<const std::basic_string<char, std::char_traits<char>, std::allocator<char> >, IEC103::stConfigParam> > >::_Rb_tree_impl<std::less<std::basic_string<char, std::char_traits<char>, std::allocator<char> > >, false>::~_Rb_tree_impl
FUNC 1fd0e 63 0 std::_Rb_tree<std::basic_string<char, std::char_traits<char>, std::allocator<char> >, std::pair<const std::basic_string<char, std::char_traits<char>, std::allocator<char> >, IEC103::stConfigParam>, std::_Select1st<std::pair<const std::basic_string<char, std::char_traits<char>, std::allocator<char> >, IEC103::stConfigParam> >, std::less<std::basic_string<char, std::char_traits<char>, std::allocator<char> > >, std::allocator<std::pair<const std::basic_string<char, std::char_traits<char>, std::allocator<char> >, IEC103::stConfigParam> > >::~_Rb_tree
FUNC 1fd72 1a 0 std::map<std::basic_string<char, std::char_traits<char>, std::allocator<char> >, IEC103::stConfigParam, std::less<std::basic_string<char, std::char_traits<char>, std::allocator<char> > >, std::allocator<std::pair<const std::basic_string<char, std::char_traits<char>, std::allocator<char> >, IEC103::stConfigParam> > >::size
FUNC 1fd8c 1a 0 std::map<std::basic_string<char, std::char_traits<char>, std::allocator<char> >, IEC103::stConfigParam, std::less<std::basic_string<char, std::char_traits<char>, std::allocator<char> > >, std::allocator<std::pair<const std::basic_string<char, std::char_traits<char>, std::allocator<char> >, IEC103::stConfigParam> > >::begin
FUNC 1fda6 15 0 std::_Rb_tree_iterator<std::pair<const std::basic_string<char, std::char_traits<char>, std::allocator<char> >, IEC103::stConfigParam> >::operator->
FUNC 1fdbc 1a 0 std::_Rb_tree<std::basic_string<char, std::char_traits<char>, std::allocator<char> >, std::pair<const std::basic_string<char, std::char_traits<char>, std::allocator<char> >, std::map<std::basic_string<char, std::char_traits<char>, std::allocator<char> >, std::basic_string<char, std::char_traits<char>, std::allocator<char> >, std::less<std::basic_string<char, std::char_traits<char>, std::allocator<char> > >, std::allocator<std::pair<const std::basic_string<char, std::char_traits<char>, std::allocator<char> >, std::basic_string<char, std::char_traits<char>, std::allocator<char> > > > > >, std::_Select1st<std::pair<const std::basic_string<char, std::char_traits<char>, std::allocator<char> >, std::map<std::basic_string<char, std::char_traits<char>, std::allocator<char> >, std::basic_string<char, std::char_traits<char>, std::allocator<char> >, std::less<std::basic_string<char, std::char_traits<char>, std::allocator<char> > >, std::allocator<std::pair<const std::basic_string<char, std::char_traits<char>, std::allocator<char> >, std::basic_string<char, std::char_traits<char>, std::allocator<char> > > > > > >, std::less<std::basic_string<char, std::char_traits<char>, std::allocator<char> > >, std::allocator<std::pair<const std::basic_string<char, std::char_traits<char>, std::allocator<char> >, std::map<std::basic_string<char, std::char_traits<char>, std::allocator<char> >, std::basic_string<char, std::char_traits<char>, std::allocator<char> >, std::less<std::basic_string<char, std::char_traits<char>, std::allocator<char> > >, std::allocator<std::pair<const std::basic_string<char, std::char_traits<char>, std::allocator<char> >, std::basic_string<char, std::char_traits<char>, std::allocator<char> > > > > > > >::_Rb_tree_impl<std::less<std::basic_string<char, std::char_traits<char>, std::allocator<char> > >, false>::~_Rb_tree_impl
FUNC 1fdd6 63 0 std::_Rb_tree<std::basic_string<char, std::char_traits<char>, std::allocator<char> >, std::pair<const std::basic_string<char, std::char_traits<char>, std::allocator<char> >, std::map<std::basic_string<char, std::char_traits<char>, std::allocator<char> >, std::basic_string<char, std::char_traits<char>, std::allocator<char> >, std::less<std::basic_string<char, std::char_traits<char>, std::allocator<char> > >, std::allocator<std::pair<const std::basic_string<char, std::char_traits<char>, std::allocator<char> >, std::basic_string<char, std::char_traits<char>, std::allocator<char> > > > > >, std::_Select1st<std::pair<const std::basic_string<char, std::char_traits<char>, std::allocator<char> >, std::map<std::basic_string<char, std::char_traits<char>, std::allocator<char> >, std::basic_string<char, std::char_traits<char>, std::allocator<char> >, std::less<std::basic_string<char, std::char_traits<char>, std::allocator<char> > >, std::allocator<std::pair<const std::basic_string<char, std::char_traits<char>, std::allocator<char> >, std::basic_string<char, std::char_traits<char>, std::allocator<char> > > > > > >, std::less<std::basic_string<char, std::char_traits<char>, std::allocator<char> > >, std::allocator<std::pair<const std::basic_string<char, std::char_traits<char>, std::allocator<char> >, std::map<std::basic_string<char, std::char_traits<char>, std::allocator<char> >, std::basic_string<char, std::char_traits<char>, std::allocator<char> >, std::less<std::basic_string<char, std::char_traits<char>, std::allocator<char> > >, std::allocator<std::pair<const std::basic_string<char, std::char_traits<char>, std::allocator<char> >, std::basic_string<char, std::char_traits<char>, std::allocator<char> > > > > > > >::~_Rb_tree
FUNC 1fe3a 1a 0 std::map<std::basic_string<char, std::char_traits<char>, std::allocator<char> >, std::map<std::basic_string<char, std::char_traits<char>, std::allocator<char> >, std::basic_string<char, std::char_traits<char>, std::allocator<char> >, std::less<std::basic_string<char, std::char_traits<char>, std::allocator<char> > >, std::allocator<std::pair<const std::basic_string<char, std::char_traits<char>, std::allocator<char> >, std::basic_string<char, std::char_traits<char>, std::allocator<char> > > > >, std::less<std::basic_string<char, std::char_traits<char>, std::allocator<char> > >, std::allocator<std::pair<const std::basic_string<char, std::char_traits<char>, std::allocator<char> >, std::map<std::basic_string<char, std::char_traits<char>, std::allocator<char> >, std::basic_string<char, std::char_traits<char>, std::allocator<char> >, std::less<std::basic_string<char, std::char_traits<char>, std::allocator<char> > >, std::allocator<std::pair<const std::basic_string<char, std::char_traits<char>, std::allocator<char> >, std::basic_string<char, std::char_traits<char>, std::allocator<char> > > > > > > >::begin
FUNC 1fe54 15 0 std::_Rb_tree_iterator<std::pair<const std::basic_string<char, std::char_traits<char>, std::allocator<char> >, std::map<std::basic_string<char, std::char_traits<char>, std::allocator<char> >, std::basic_string<char, std::char_traits<char>, std::allocator<char> >, std::less<std::basic_string<char, std::char_traits<char>, std::allocator<char> > >, std::allocator<std::pair<const std::basic_string<char, std::char_traits<char>, std::allocator<char> >, std::basic_string<char, std::char_traits<char>, std::allocator<char> > > > > > >::operator->
FUNC 1fe6a 25 0 std::map<std::basic_string<char, std::char_traits<char>, std::allocator<char> >, std::basic_string<char, std::char_traits<char>, std::allocator<char> >, std::less<std::basic_string<char, std::char_traits<char>, std::allocator<char> > >, std::allocator<std::pair<const std::basic_string<char, std::char_traits<char>, std::allocator<char> >, std::basic_string<char, std::char_traits<char>, std::allocator<char> > > > >::map
FUNC 1fe8f 2f 0 boost::enable_error_info<boost::thread_resource_error>
FUNC 1febe a1 0 boost::exception_detail::error_info_injector<boost::thread_resource_error>::~error_info_injector
FUNC 1ff6e 26 0 boost::exception_detail::error_info_injector<boost::thread_resource_error>::~error_info_injector
FUNC 1ff94 2f 0 boost::enable_current_exception<boost::exception_detail::error_info_injector<boost::thread_resource_error> >
FUNC 1ffc4 8f 0 boost::exception_detail::clone_impl<boost::exception_detail::error_info_injector<boost::thread_resource_error> >::~clone_impl
FUNC 20072 26 0 boost::exception_detail::clone_impl<boost::exception_detail::error_info_injector<boost::thread_resource_error> >::~clone_impl
FUNC 20098 2f 0 boost::enable_error_info<boost::lock_error>
FUNC 200c8 a1 0 boost::exception_detail::error_info_injector<boost::lock_error>::~error_info_injector
FUNC 20178 26 0 boost::exception_detail::error_info_injector<boost::lock_error>::~error_info_injector
FUNC 2019e 2f 0 boost::enable_current_exception<boost::exception_detail::error_info_injector<boost::lock_error> >
FUNC 201ce 8f 0 boost::exception_detail::clone_impl<boost::exception_detail::error_info_injector<boost::lock_error> >::~clone_impl
FUNC 2027c 26 0 boost::exception_detail::clone_impl<boost::exception_detail::error_info_injector<boost::lock_error> >::~clone_impl
FUNC 202a2 25 0 std::list<stLogInfo, std::allocator<stLogInfo> >::end
FUNC 202c8 40 0 std::list<stLogInfo, std::allocator<stLogInfo> >::_M_insert
FUNC 20308 19 0 std::auto_ptr<Log::Logger>::auto_ptr
FUNC 20322 11 0 std::auto_ptr<Log::Logger>::get
FUNC 20334 64 0 std::auto_ptr<Log::Logger>::reset
FUNC 20398 1a 0 std::allocator<std::_Rb_tree_node<std::pair<const std::basic_string<char, std::char_traits<char>, std::allocator<char> >, IEC103::stConfigParam> > >::~allocator
FUNC 203b2 69 0 std::_Rb_tree<std::basic_string<char, std::char_traits<char>, std::allocator<char> >, std::pair<const std::basic_string<char, std::char_traits<char>, std::allocator<char> >, IEC103::stConfigParam>, std::_Select1st<std::pair<const std::basic_string<char, std::char_traits<char>, std::allocator<char> >, IEC103::stConfigParam> >, std::less<std::basic_string<char, std::char_traits<char>, std::allocator<char> > >, std::allocator<std::pair<const std::basic_string<char, std::char_traits<char>, std::allocator<char> >, IEC103::stConfigParam> > >::_M_erase
FUNC 2041c 12 0 std::_Rb_tree<std::basic_string<char, std::char_traits<char>, std::allocator<char> >, std::pair<const std::basic_string<char, std::char_traits<char>, std::allocator<char> >, IEC103::stConfigParam>, std::_Select1st<std::pair<const std::basic_string<char, std::char_traits<char>, std::allocator<char> >, IEC103::stConfigParam> >, std::less<std::basic_string<char, std::char_traits<char>, std::allocator<char> > >, std::allocator<std::pair<const std::basic_string<char, std::char_traits<char>, std::allocator<char> >, IEC103::stConfigParam> > >::_M_begin
FUNC 2042e 12 0 std::_Rb_tree<std::basic_string<char, std::char_traits<char>, std::allocator<char> >, std::pair<const std::basic_string<char, std::char_traits<char>, std::allocator<char> >, IEC103::stConfigParam>, std::_Select1st<std::pair<const std::basic_string<char, std::char_traits<char>, std::allocator<char> >, IEC103::stConfigParam> >, std::less<std::basic_string<char, std::char_traits<char>, std::allocator<char> > >, std::allocator<std::pair<const std::basic_string<char, std::char_traits<char>, std::allocator<char> >, IEC103::stConfigParam> > >::size
FUNC 20440 2c 0 std::_Rb_tree<std::basic_string<char, std::char_traits<char>, std::allocator<char> >, std::pair<const std::basic_string<char, std::char_traits<char>, std::allocator<char> >, IEC103::stConfigParam>, std::_Select1st<std::pair<const std::basic_string<char, std::char_traits<char>, std::allocator<char> >, IEC103::stConfigParam> >, std::less<std::basic_string<char, std::char_traits<char>, std::allocator<char> > >, std::allocator<std::pair<const std::basic_string<char, std::char_traits<char>, std::allocator<char> >, IEC103::stConfigParam> > >::begin
FUNC 2046c 1a 0 std::allocator<std::_Rb_tree_node<std::pair<const std::basic_string<char, std::char_traits<char>, std::allocator<char> >, std::map<std::basic_string<char, std::char_traits<char>, std::allocator<char> >, std::basic_string<char, std::char_traits<char>, std::allocator<char> >, std::less<std::basic_string<char, std::char_traits<char>, std::allocator<char> > >, std::allocator<std::pair<const std::basic_string<char, std::char_traits<char>, std::allocator<char> >, std::basic_string<char, std::char_traits<char>, std::allocator<char> > > > > > > >::~allocator
FUNC 20486 69 0 std::_Rb_tree<std::basic_string<char, std::char_traits<char>, std::allocator<char> >, std::pair<const std::basic_string<char, std::char_traits<char>, std::allocator<char> >, std::map<std::basic_string<char, std::char_traits<char>, std::allocator<char> >, std::basic_string<char, std::char_traits<char>, std::allocator<char> >, std::less<std::basic_string<char, std::char_traits<char>, std::allocator<char> > >, std::allocator<std::pair<const std::basic_string<char, std::char_traits<char>, std::allocator<char> >, std::basic_string<char, std::char_traits<char>, std::allocator<char> > > > > >, std::_Select1st<std::pair<const std::basic_string<char, std::char_traits<char>, std::allocator<char> >, std::map<std::basic_string<char, std::char_traits<char>, std::allocator<char> >, std::basic_string<char, std::char_traits<char>, std::allocator<char> >, std::less<std::basic_string<char, std::char_traits<char>, std::allocator<char> > >, std::allocator<std::pair<const std::basic_string<char, std::char_traits<char>, std::allocator<char> >, std::basic_string<char, std::char_traits<char>, std::allocator<char> > > > > > >, std::less<std::basic_string<char, std::char_traits<char>, std::allocator<char> > >, std::allocator<std::pair<const std::basic_string<char, std::char_traits<char>, std::allocator<char> >, std::map<std::basic_string<char, std::char_traits<char>, std::allocator<char> >, std::basic_string<char, std::char_traits<char>, std::allocator<char> >, std::less<std::basic_string<char, std::char_traits<char>, std::allocator<char> > >, std::allocator<std::pair<const std::basic_string<char, std::char_traits<char>, std::allocator<char> >, std::basic_string<char, std::char_traits<char>, std::allocator<char> > > > > > > >::_M_erase
FUNC 204f0 12 0 std::_Rb_tree<std::basic_string<char, std::char_traits<char>, std::allocator<char> >, std::pair<const std::basic_string<char, std::char_traits<char>, std::allocator<char> >, std::map<std::basic_string<char, std::char_traits<char>, std::allocator<char> >, std::basic_string<char, std::char_traits<char>, std::allocator<char> >, std::less<std::basic_string<char, std::char_traits<char>, std::allocator<char> > >, std::allocator<std::pair<const std::basic_string<char, std::char_traits<char>, std::allocator<char> >, std::basic_string<char, std::char_traits<char>, std::allocator<char> > > > > >, std::_Select1st<std::pair<const std::basic_string<char, std::char_traits<char>, std::allocator<char> >, std::map<std::basic_string<char, std::char_traits<char>, std::allocator<char> >, std::basic_string<char, std::char_traits<char>, std::allocator<char> >, std::less<std::basic_string<char, std::char_traits<char>, std::allocator<char> > >, std::allocator<std::pair<const std::basic_string<char, std::char_traits<char>, std::allocator<char> >, std::basic_string<char, std::char_traits<char>, std::allocator<char> > > > > > >, std::less<std::basic_string<char, std::char_traits<char>, std::allocator<char> > >, std::allocator<std::pair<const std::basic_string<char, std::char_traits<char>, std::allocator<char> >, std::map<std::basic_string<char, std::char_traits<char>, std::allocator<char> >, std::basic_string<char, std::char_traits<char>, std::allocator<char> >, std::less<std::basic_string<char, std::char_traits<char>, std::allocator<char> > >, std::allocator<std::pair<const std::basic_string<char, std::char_traits<char>, std::allocator<char> >, std::basic_string<char, std::char_traits<char>, std::allocator<char> > > > > > > >::_M_begin
FUNC 20502 2c 0 std::_Rb_tree<std::basic_string<char, std::char_traits<char>, std::allocator<char> >, std::pair<const std::basic_string<char, std::char_traits<char>, std::allocator<char> >, std::map<std::basic_string<char, std::char_traits<char>, std::allocator<char> >, std::basic_string<char, std::char_traits<char>, std::allocator<char> >, std::less<std::basic_string<char, std::char_traits<char>, std::allocator<char> > >, std::allocator<std::pair<const std::basic_string<char, std::char_traits<char>, std::allocator<char> >, std::basic_string<char, std::char_traits<char>, std::allocator<char> > > > > >, std::_Select1st<std::pair<const std::basic_string<char, std::char_traits<char>, std::allocator<char> >, std::map<std::basic_string<char, std::char_traits<char>, std::allocator<char> >, std::basic_string<char, std::char_traits<char>, std::allocator<char> >, std::less<std::basic_string<char, std::char_traits<char>, std::allocator<char> > >, std::allocator<std::pair<const std::basic_string<char, std::char_traits<char>, std::allocator<char> >, std::basic_string<char, std::char_traits<char>, std::allocator<char> > > > > > >, std::less<std::basic_string<char, std::char_traits<char>, std::allocator<char> > >, std::allocator<std::pair<const std::basic_string<char, std::char_traits<char>, std::allocator<char> >, std::map<std::basic_string<char, std::char_traits<char>, std::allocator<char> >, std::basic_string<char, std::char_traits<char>, std::allocator<char> >, std::less<std::basic_string<char, std::char_traits<char>, std::allocator<char> > >, std::allocator<std::pair<const std::basic_string<char, std::char_traits<char>, std::allocator<char> >, std::basic_string<char, std::char_traits<char>, std::allocator<char> > > > > > > >::begin
FUNC 2052e 11d 0 std::_Rb_tree<std::basic_string<char, std::char_traits<char>, std::allocator<char> >, std::pair<const std::basic_string<char, std::char_traits<char>, std::allocator<char> >, std::basic_string<char, std::char_traits<char>, std::allocator<char> > >, std::_Select1st<std::pair<const std::basic_string<char, std::char_traits<char>, std::allocator<char> >, std::basic_string<char, std::char_traits<char>, std::allocator<char> > > >, std::less<std::basic_string<char, std::char_traits<char>, std::allocator<char> > >, std::allocator<std::pair<const std::basic_string<char, std::char_traits<char>, std::allocator<char> >, std::basic_string<char, std::char_traits<char>, std::allocator<char> > > > >::_Rb_tree
FUNC 2064c 12 0 std::_Rb_tree<std::basic_string<char, std::char_traits<char>, std::allocator<char> >, std::pair<const std::basic_string<char, std::char_traits<char>, std::allocator<char> >, std::basic_string<char, std::char_traits<char>, std::allocator<char> > >, std::_Select1st<std::pair<const std::basic_string<char, std::char_traits<char>, std::allocator<char> >, std::basic_string<char, std::char_traits<char>, std::allocator<char> > > >, std::less<std::basic_string<char, std::char_traits<char>, std::allocator<char> > >, std::allocator<std::pair<const std::basic_string<char, std::char_traits<char>, std::allocator<char> >, std::basic_string<char, std::char_traits<char>, std::allocator<char> > > > >::_M_root
FUNC 2065e 169 0 std::_Rb_tree<std::basic_string<char, std::char_traits<char>, std::allocator<char> >, std::pair<const std::basic_string<char, std::char_traits<char>, std::allocator<char> >, std::basic_string<char, std::char_traits<char>, std::allocator<char> > >, std::_Select1st<std::pair<const std::basic_string<char, std::char_traits<char>, std::allocator<char> >, std::basic_string<char, std::char_traits<char>, std::allocator<char> > > >, std::less<std::basic_string<char, std::char_traits<char>, std::allocator<char> > >, std::allocator<std::pair<const std::basic_string<char, std::char_traits<char>, std::allocator<char> >, std::basic_string<char, std::char_traits<char>, std::allocator<char> > > > >::_M_copy
FUNC 207c8 12 0 std::_Rb_tree<std::basic_string<char, std::char_traits<char>, std::allocator<char> >, std::pair<const std::basic_string<char, std::char_traits<char>, std::allocator<char> >, std::basic_string<char, std::char_traits<char>, std::allocator<char> > >, std::_Select1st<std::pair<const std::basic_string<char, std::char_traits<char>, std::allocator<char> >, std::basic_string<char, std::char_traits<char>, std::allocator<char> > > >, std::less<std::basic_string<char, std::char_traits<char>, std::allocator<char> > >, std::allocator<std::pair<const std::basic_string<char, std::char_traits<char>, std::allocator<char> >, std::basic_string<char, std::char_traits<char>, std::allocator<char> > > > >::_M_begin
FUNC 207da 1a 0 std::_Rb_tree<std::basic_string<char, std::char_traits<char>, std::allocator<char> >, std::pair<const std::basic_string<char, std::char_traits<char>, std::allocator<char> >, std::basic_string<char, std::char_traits<char>, std::allocator<char> > >, std::_Select1st<std::pair<const std::basic_string<char, std::char_traits<char>, std::allocator<char> >, std::basic_string<char, std::char_traits<char>, std::allocator<char> > > >, std::less<std::basic_string<char, std::char_traits<char>, std::allocator<char> > >, std::allocator<std::pair<const std::basic_string<char, std::char_traits<char>, std::allocator<char> >, std::basic_string<char, std::char_traits<char>, std::allocator<char> > > > >::_S_minimum
FUNC 207f4 1a 0 std::_Rb_tree<std::basic_string<char, std::char_traits<char>, std::allocator<char> >, std::pair<const std::basic_string<char, std::char_traits<char>, std::allocator<char> >, std::basic_string<char, std::char_traits<char>, std::allocator<char> > >, std::_Select1st<std::pair<const std::basic_string<char, std::char_traits<char>, std::allocator<char> >, std::basic_string<char, std::char_traits<char>, std::allocator<char> > > >, std::less<std::basic_string<char, std::char_traits<char>, std::allocator<char> > >, std::allocator<std::pair<const std::basic_string<char, std::char_traits<char>, std::allocator<char> >, std::basic_string<char, std::char_traits<char>, std::allocator<char> > > > >::_S_maximum
FUNC 2080e 83 0 boost::exception_detail::error_info_injector<boost::thread_resource_error>::error_info_injector
FUNC 20892 ce 0 boost::exception_detail::clone_impl<boost::exception_detail::error_info_injector<boost::thread_resource_error> >::clone_impl
FUNC 20960 83 0 boost::exception_detail::error_info_injector<boost::lock_error>::error_info_injector
FUNC 209e4 ce 0 boost::exception_detail::clone_impl<boost::exception_detail::error_info_injector<boost::lock_error> >::clone_impl
FUNC 20ab2 19 0 std::_List_iterator<stLogInfo>::_List_iterator
FUNC 20acc bd 0 std::list<stLogInfo, std::allocator<stLogInfo> >::_M_create_node
FUNC 20b8a a 0 __gnu_cxx::new_allocator<std::_Rb_tree_node<std::pair<const std::basic_string<char, std::char_traits<char>, std::allocator<char> >, IEC103::stConfigParam> > >::~new_allocator
FUNC 20b94 12 0 std::_Rb_tree<std::basic_string<char, std::char_traits<char>, std::allocator<char> >, std::pair<const std::basic_string<char, std::char_traits<char>, std::allocator<char> >, IEC103::stConfigParam>, std::_Select1st<std::pair<const std::basic_string<char, std::char_traits<char>, std::allocator<char> >, IEC103::stConfigParam> >, std::less<std::basic_string<char, std::char_traits<char>, std::allocator<char> > >, std::allocator<std::pair<const std::basic_string<char, std::char_traits<char>, std::allocator<char> >, IEC103::stConfigParam> > >::_S_right
FUNC 20ba6 12 0 std::_Rb_tree<std::basic_string<char, std::char_traits<char>, std::allocator<char> >, std::pair<const std::basic_string<char, std::char_traits<char>, std::allocator<char> >, IEC103::stConfigParam>, std::_Select1st<std::pair<const std::basic_string<char, std::char_traits<char>, std::allocator<char> >, IEC103::stConfigParam> >, std::less<std::basic_string<char, std::char_traits<char>, std::allocator<char> > >, std::allocator<std::pair<const std::basic_string<char, std::char_traits<char>, std::allocator<char> >, IEC103::stConfigParam> > >::_S_left
FUNC 20bb8 86 0 std::_Rb_tree<std::basic_string<char, std::char_traits<char>, std::allocator<char> >, std::pair<const std::basic_string<char, std::char_traits<char>, std::allocator<char> >, IEC103::stConfigParam>, std::_Select1st<std::pair<const std::basic_string<char, std::char_traits<char>, std::allocator<char> >, IEC103::stConfigParam> >, std::less<std::basic_string<char, std::char_traits<char>, std::allocator<char> > >, std::allocator<std::pair<const std::basic_string<char, std::char_traits<char>, std::allocator<char> >, IEC103::stConfigParam> > >::_M_destroy_node
FUNC 20c3e e 0 std::_Rb_tree<std::basic_string<char, std::char_traits<char>, std::allocator<char> >, std::pair<const std::basic_string<char, std::char_traits<char>, std::allocator<char> >, IEC103::stConfigParam>, std::_Select1st<std::pair<const std::basic_string<char, std::char_traits<char>, std::allocator<char> >, IEC103::stConfigParam> >, std::less<std::basic_string<char, std::char_traits<char>, std::allocator<char> > >, std::allocator<std::pair<const std::basic_string<char, std::char_traits<char>, std::allocator<char> >, IEC103::stConfigParam> > >::_M_get_Node_allocator
FUNC 20c4c 19 0 std::_Rb_tree_iterator<std::pair<const std::basic_string<char, std::char_traits<char>, std::allocator<char> >, IEC103::stConfigParam> >::_Rb_tree_iterator
FUNC 20c66 a 0 __gnu_cxx::new_allocator<std::_Rb_tree_node<std::pair<const std::basic_string<char, std::char_traits<char>, std::allocator<char> >, std::map<std::basic_string<char, std::char_traits<char>, std::allocator<char> >, std::basic_string<char, std::char_traits<char>, std::allocator<char> >, std::less<std::basic_string<char, std::char_traits<char>, std::allocator<char> > >, std::allocator<std::pair<const std::basic_string<char, std::char_traits<char>, std::allocator<char> >, std::basic_string<char, std::char_traits<char>, std::allocator<char> > > > > > > >::~new_allocator
FUNC 20c70 12 0 std::_Rb_tree<std::basic_string<char, std::char_traits<char>, std::allocator<char> >, std::pair<const std::basic_string<char, std::char_traits<char>, std::allocator<char> >, std::map<std::basic_string<char, std::char_traits<char>, std::allocator<char> >, std::basic_string<char, std::char_traits<char>, std::allocator<char> >, std::less<std::basic_string<char, std::char_traits<char>, std::allocator<char> > >, std::allocator<std::pair<const std::basic_string<char, std::char_traits<char>, std::allocator<char> >, std::basic_string<char, std::char_traits<char>, std::allocator<char> > > > > >, std::_Select1st<std::pair<const std::basic_string<char, std::char_traits<char>, std::allocator<char> >, std::map<std::basic_string<char, std::char_traits<char>, std::allocator<char> >, std::basic_string<char, std::char_traits<char>, std::allocator<char> >, std::less<std::basic_string<char, std::char_traits<char>, std::allocator<char> > >, std::allocator<std::pair<const std::basic_string<char, std::char_traits<char>, std::allocator<char> >, std::basic_string<char, std::char_traits<char>, std::allocator<char> > > > > > >, std::less<std::basic_string<char, std::char_traits<char>, std::allocator<char> > >, std::allocator<std::pair<const std::basic_string<char, std::char_traits<char>, std::allocator<char> >, std::map<std::basic_string<char, std::char_traits<char>, std::allocator<char> >, std::basic_string<char, std::char_traits<char>, std::allocator<char> >, std::less<std::basic_string<char, std::char_traits<char>, std::allocator<char> > >, std::allocator<std::pair<const std::basic_string<char, std::char_traits<char>, std::allocator<char> >, std::basic_string<char, std::char_traits<char>, std::allocator<char> > > > > > > >::_S_right
FUNC 20c82 12 0 std::_Rb_tree<std::basic_string<char, std::char_traits<char>, std::allocator<char> >, std::pair<const std::basic_string<char, std::char_traits<char>, std::allocator<char> >, std::map<std::basic_string<char, std::char_traits<char>, std::allocator<char> >, std::basic_string<char, std::char_traits<char>, std::allocator<char> >, std::less<std::basic_string<char, std::char_traits<char>, std::allocator<char> > >, std::allocator<std::pair<const std::basic_string<char, std::char_traits<char>, std::allocator<char> >, std::basic_string<char, std::char_traits<char>, std::allocator<char> > > > > >, std::_Select1st<std::pair<const std::basic_string<char, std::char_traits<char>, std::allocator<char> >, std::map<std::basic_string<char, std::char_traits<char>, std::allocator<char> >, std::basic_string<char, std::char_traits<char>, std::allocator<char> >, std::less<std::basic_string<char, std::char_traits<char>, std::allocator<char> > >, std::allocator<std::pair<const std::basic_string<char, std::char_traits<char>, std::allocator<char> >, std::basic_string<char, std::char_traits<char>, std::allocator<char> > > > > > >, std::less<std::basic_string<char, std::char_traits<char>, std::allocator<char> > >, std::allocator<std::pair<const std::basic_string<char, std::char_traits<char>, std::allocator<char> >, std::map<std::basic_string<char, std::char_traits<char>, std::allocator<char> >, std::basic_string<char, std::char_traits<char>, std::allocator<char> >, std::less<std::basic_string<char, std::char_traits<char>, std::allocator<char> > >, std::allocator<std::pair<const std::basic_string<char, std::char_traits<char>, std::allocator<char> >, std::basic_string<char, std::char_traits<char>, std::allocator<char> > > > > > > >::_S_left
FUNC 20c94 86 0 std::_Rb_tree<std::basic_string<char, std::char_traits<char>, std::allocator<char> >, std::pair<const std::basic_string<char, std::char_traits<char>, std::allocator<char> >, std::map<std::basic_string<char, std::char_traits<char>, std::allocator<char> >, std::basic_string<char, std::char_traits<char>, std::allocator<char> >, std::less<std::basic_string<char, std::char_traits<char>, std::allocator<char> > >, std::allocator<std::pair<const std::basic_string<char, std::char_traits<char>, std::allocator<char> >, std::basic_string<char, std::char_traits<char>, std::allocator<char> > > > > >, std::_Select1st<std::pair<const std::basic_string<char, std::char_traits<char>, std::allocator<char> >, std::map<std::basic_string<char, std::char_traits<char>, std::allocator<char> >, std::basic_string<char, std::char_traits<char>, std::allocator<char> >, std::less<std::basic_string<char, std::char_traits<char>, std::allocator<char> > >, std::allocator<std::pair<const std::basic_string<char, std::char_traits<char>, std::allocator<char> >, std::basic_string<char, std::char_traits<char>, std::allocator<char> > > > > > >, std::less<std::basic_string<char, std::char_traits<char>, std::allocator<char> > >, std::allocator<std::pair<const std::basic_string<char, std::char_traits<char>, std::allocator<char> >, std::map<std::basic_string<char, std::char_traits<char>, std::allocator<char> >, std::basic_string<char, std::char_traits<char>, std::allocator<char> >, std::less<std::basic_string<char, std::char_traits<char>, std::allocator<char> > >, std::allocator<std::pair<const std::basic_string<char, std::char_traits<char>, std::allocator<char> >, std::basic_string<char, std::char_traits<char>, std::allocator<char> > > > > > > >::_M_destroy_node
FUNC 20d1a e 0 std::_Rb_tree<std::basic_string<char, std::char_traits<char>, std::allocator<char> >, std::pair<const std::basic_string<char, std::char_traits<char>, std::allocator<char> >, std::map<std::basic_string<char, std::char_traits<char>, std::allocator<char> >, std::basic_string<char, std::char_traits<char>, std::allocator<char> >, std::less<std::basic_string<char, std::char_traits<char>, std::allocator<char> > >, std::allocator<std::pair<const std::basic_string<char, std::char_traits<char>, std::allocator<char> >, std::basic_string<char, std::char_traits<char>, std::allocator<char> > > > > >, std::_Select1st<std::pair<const std::basic_string<char, std::char_traits<char>, std::allocator<char> >, std::map<std::basic_string<char, std::char_traits<char>, std::allocator<char> >, std::basic_string<char, std::char_traits<char>, std::allocator<char> >, std::less<std::basic_string<char, std::char_traits<char>, std::allocator<char> > >, std::allocator<std::pair<const std::basic_string<char, std::char_traits<char>, std::allocator<char> >, std::basic_string<char, std::char_traits<char>, std::allocator<char> > > > > > >, std::less<std::basic_string<char, std::char_traits<char>, std::allocator<char> > >, std::allocator<std::pair<const std::basic_string<char, std::char_traits<char>, std::allocator<char> >, std::map<std::basic_string<char, std::char_traits<char>, std::allocator<char> >, std::basic_string<char, std::char_traits<char>, std::allocator<char> >, std::less<std::basic_string<char, std::char_traits<char>, std::allocator<char> > >, std::allocator<std::pair<const std::basic_string<char, std::char_traits<char>, std::allocator<char> >, std::basic_string<char, std::char_traits<char>, std::allocator<char> > > > > > > >::_M_get_Node_allocator
FUNC 20d28 19 0 std::_Rb_tree_iterator<std::pair<const std::basic_string<char, std::char_traits<char>, std::allocator<char> >, std::map<std::basic_string<char, std::char_traits<char>, std::allocator<char> >, std::basic_string<char, std::char_traits<char>, std::allocator<char> >, std::less<std::basic_string<char, std::char_traits<char>, std::allocator<char> > >, std::allocator<std::pair<const std::basic_string<char, std::char_traits<char>, std::allocator<char> >, std::basic_string<char, std::char_traits<char>, std::allocator<char> > > > > > >::_Rb_tree_iterator
FUNC 20d42 9b 0 std::_Rb_tree<std::basic_string<char, std::char_traits<char>, std::allocator<char> >, std::pair<const std::basic_string<char, std::char_traits<char>, std::allocator<char> >, std::basic_string<char, std::char_traits<char>, std::allocator<char> > >, std::_Select1st<std::pair<const std::basic_string<char, std::char_traits<char>, std::allocator<char> >, std::basic_string<char, std::char_traits<char>, std::allocator<char> > > >, std::less<std::basic_string<char, std::char_traits<char>, std::allocator<char> > >, std::allocator<std::pair<const std::basic_string<char, std::char_traits<char>, std::allocator<char> >, std::basic_string<char, std::char_traits<char>, std::allocator<char> > > > >::_Rb_tree_impl<std::less<std::basic_string<char, std::char_traits<char>, std::allocator<char> > >, false>::_Rb_tree_impl
FUNC 20dde 55 0 std::_Rb_tree<std::basic_string<char, std::char_traits<char>, std::allocator<char> >, std::pair<const std::basic_string<char, std::char_traits<char>, std::allocator<char> >, std::basic_string<char, std::char_traits<char>, std::allocator<char> > >, std::_Select1st<std::pair<const std::basic_string<char, std::char_traits<char>, std::allocator<char> >, std::basic_string<char, std::char_traits<char>, std::allocator<char> > > >, std::less<std::basic_string<char, std::char_traits<char>, std::allocator<char> > >, std::allocator<std::pair<const std::basic_string<char, std::char_traits<char>, std::allocator<char> >, std::basic_string<char, std::char_traits<char>, std::allocator<char> > > > >::_M_clone_node
FUNC 20e33 12 0 std::_Rb_tree<std::basic_string<char, std::char_traits<char>, std::allocator<char> >, std::pair<const std::basic_string<char, std::char_traits<char>, std::allocator<char> >, std::basic_string<char, std::char_traits<char>, std::allocator<char> > >, std::_Select1st<std::pair<const std::basic_string<char, std::char_traits<char>, std::allocator<char> >, std::basic_string<char, std::char_traits<char>, std::allocator<char> > > >, std::less<std::basic_string<char, std::char_traits<char>, std::allocator<char> > >, std::allocator<std::pair<const std::basic_string<char, std::char_traits<char>, std::allocator<char> >, std::basic_string<char, std::char_traits<char>, std::allocator<char> > > > >::_S_left
FUNC 20e46 24 0 std::_List_base<stLogInfo, std::allocator<stLogInfo> >::_M_get_node
FUNC 20e6a 3b 0 std::_List_base<stLogInfo, std::allocator<stLogInfo> >::_M_get_Tp_allocator
FUNC 20ea6 1a 0 std::allocator<stLogInfo>::~allocator
FUNC 20ec0 91 0 stLogInfo::stLogInfo
FUNC 20f52 77 0 __gnu_cxx::new_allocator<stLogInfo>::construct
FUNC 20fca 2a 0 std::_List_base<stLogInfo, std::allocator<stLogInfo> >::_M_put_node
FUNC 20ff4 3b 0 std::_Rb_tree<std::basic_string<char, std::char_traits<char>, std::allocator<char> >, std::pair<const std::basic_string<char, std::char_traits<char>, std::allocator<char> >, IEC103::stConfigParam>, std::_Select1st<std::pair<const std::basic_string<char, std::char_traits<char>, std::allocator<char> >, IEC103::stConfigParam> >, std::less<std::basic_string<char, std::char_traits<char>, std::allocator<char> > >, std::allocator<std::pair<const std::basic_string<char, std::char_traits<char>, std::allocator<char> >, IEC103::stConfigParam> > >::get_allocator
FUNC 21030 1a 0 std::allocator<std::pair<const std::basic_string<char, std::char_traits<char>, std::allocator<char> >, IEC103::stConfigParam> >::~allocator
FUNC 2104a 84 0 IEC103::stConfigParam::~stConfigParam
FUNC 210ce 55 0 std::pair<const std::basic_string<char, std::char_traits<char>, std::allocator<char> >, IEC103::stConfigParam>::~pair
FUNC 21124 1e 0 __gnu_cxx::new_allocator<std::pair<const std::basic_string<char, std::char_traits<char>, std::allocator<char> >, IEC103::stConfigParam> >::destroy
FUNC 21142 2a 0 std::_Rb_tree<std::basic_string<char, std::char_traits<char>, std::allocator<char> >, std::pair<const std::basic_string<char, std::char_traits<char>, std::allocator<char> >, IEC103::stConfigParam>, std::_Select1st<std::pair<const std::basic_string<char, std::char_traits<char>, std::allocator<char> >, IEC103::stConfigParam> >, std::less<std::basic_string<char, std::char_traits<char>, std::allocator<char> > >, std::allocator<std::pair<const std::basic_string<char, std::char_traits<char>, std::allocator<char> >, IEC103::stConfigParam> > >::_M_put_node
FUNC 2116c 3b 0 std::_Rb_tree<std::basic_string<char, std::char_traits<char>, std::allocator<char> >, std::pair<const std::basic_string<char, std::char_traits<char>, std::allocator<char> >, std::map<std::basic_string<char, std::char_traits<char>, std::allocator<char> >, std::basic_string<char, std::char_traits<char>, std::allocator<char> >, std::less<std::basic_string<char, std::char_traits<char>, std::allocator<char> > >, std::allocator<std::pair<const std::basic_string<char, std::char_traits<char>, std::allocator<char> >, std::basic_string<char, std::char_traits<char>, std::allocator<char> > > > > >, std::_Select1st<std::pair<const std::basic_string<char, std::char_traits<char>, std::allocator<char> >, std::map<std::basic_string<char, std::char_traits<char>, std::allocator<char> >, std::basic_string<char, std::char_traits<char>, std::allocator<char> >, std::less<std::basic_string<char, std::char_traits<char>, std::allocator<char> > >, std::allocator<std::pair<const std::basic_string<char, std::char_traits<char>, std::allocator<char> >, std::basic_string<char, std::char_traits<char>, std::allocator<char> > > > > > >, std::less<std::basic_string<char, std::char_traits<char>, std::allocator<char> > >, std::allocator<std::pair<const std::basic_string<char, std::char_traits<char>, std::allocator<char> >, std::map<std::basic_string<char, std::char_traits<char>, std::allocator<char> >, std::basic_string<char, std::char_traits<char>, std::allocator<char> >, std::less<std::basic_string<char, std::char_traits<char>, std::allocator<char> > >, std::allocator<std::pair<const std::basic_string<char, std::char_traits<char>, std::allocator<char> >, std::basic_string<char, std::char_traits<char>, std::allocator<char> > > > > > > >::get_allocator
FUNC 211a8 1a 0 std::allocator<std::pair<const std::basic_string<char, std::char_traits<char>, std::allocator<char> >, std::map<std::basic_string<char, std::char_traits<char>, std::allocator<char> >, std::basic_string<char, std::char_traits<char>, std::allocator<char> >, std::less<std::basic_string<char, std::char_traits<char>, std::allocator<char> > >, std::allocator<std::pair<const std::basic_string<char, std::char_traits<char>, std::allocator<char> >, std::basic_string<char, std::char_traits<char>, std::allocator<char> > > > > > >::~allocator
FUNC 211c2 55 0 std::pair<const std::basic_string<char, std::char_traits<char>, std::allocator<char> >, std::map<std::basic_string<char, std::char_traits<char>, std::allocator<char> >, std::basic_string<char, std::char_traits<char>, std::allocator<char> >, std::less<std::basic_string<char, std::char_traits<char>, std::allocator<char> > >, std::allocator<std::pair<const std::basic_string<char, std::char_traits<char>, std::allocator<char> >, std::basic_string<char, std::char_traits<char>, std::allocator<char> > > > > >::~pair
FUNC 21218 1e 0 __gnu_cxx::new_allocator<std::pair<const std::basic_string<char, std::char_traits<char>, std::allocator<char> >, std::map<std::basic_string<char, std::char_traits<char>, std::allocator<char> >, std::basic_string<char, std::char_traits<char>, std::allocator<char> >, std::less<std::basic_string<char, std::char_traits<char>, std::allocator<char> > >, std::allocator<std::pair<const std::basic_string<char, std::char_traits<char>, std::allocator<char> >, std::basic_string<char, std::char_traits<char>, std::allocator<char> > > > > > >::destroy
FUNC 21236 2a 0 std::_Rb_tree<std::basic_string<char, std::char_traits<char>, std::allocator<char> >, std::pair<const std::basic_string<char, std::char_traits<char>, std::allocator<char> >, std::map<std::basic_string<char, std::char_traits<char>, std::allocator<char> >, std::basic_string<char, std::char_traits<char>, std::allocator<char> >, std::less<std::basic_string<char, std::char_traits<char>, std::allocator<char> > >, std::allocator<std::pair<const std::basic_string<char, std::char_traits<char>, std::allocator<char> >, std::basic_string<char, std::char_traits<char>, std::allocator<char> > > > > >, std::_Select1st<std::pair<const std::basic_string<char, std::char_traits<char>, std::allocator<char> >, std::map<std::basic_string<char, std::char_traits<char>, std::allocator<char> >, std::basic_string<char, std::char_traits<char>, std::allocator<char> >, std::less<std::basic_string<char, std::char_traits<char>, std::allocator<char> > >, std::allocator<std::pair<const std::basic_string<char, std::char_traits<char>, std::allocator<char> >, std::basic_string<char, std::char_traits<char>, std::allocator<char> > > > > > >, std::less<std::basic_string<char, std::char_traits<char>, std::allocator<char> > >, std::allocator<std::pair<const std::basic_string<char, std::char_traits<char>, std::allocator<char> >, std::map<std::basic_string<char, std::char_traits<char>, std::allocator<char> >, std::basic_string<char, std::char_traits<char>, std::allocator<char> >, std::less<std::basic_string<char, std::char_traits<char>, std::allocator<char> > >, std::allocator<std::pair<const std::basic_string<char, std::char_traits<char>, std::allocator<char> >, std::basic_string<char, std::char_traits<char>, std::allocator<char> > > > > > > >::_M_put_node
FUNC 21260 25 0 std::allocator<std::_Rb_tree_node<std::pair<const std::basic_string<char, std::char_traits<char>, std::allocator<char> >, std::basic_string<char, std::char_traits<char>, std::allocator<char> > > > >::allocator
FUNC 21286 55 0 __gnu_cxx::new_allocator<std::_List_node<stLogInfo> >::allocate
FUNC 212dc e 0 std::_List_base<stLogInfo, std::allocator<stLogInfo> >::_M_get_Node_allocator
FUNC 212ea 1e 0 std::allocator<stLogInfo>::allocator<std::_List_node<stLogInfo> >
FUNC 21308 a 0 __gnu_cxx::new_allocator<stLogInfo>::~new_allocator
FUNC 21312 22 0 __gnu_cxx::new_allocator<std::_List_node<stLogInfo> >::deallocate
FUNC 21334 1e 0 std::allocator<std::pair<const std::basic_string<char, std::char_traits<char>, std::allocator<char> >, IEC103::stConfigParam> >::allocator<std::_Rb_tree_node<std::pair<const std::basic_string<char, std::char_traits<char>, std::allocator<char> >, IEC103::stConfigParam> > >
FUNC 21352 a 0 __gnu_cxx::new_allocator<std::pair<const std::basic_string<char, std::char_traits<char>, std::allocator<char> >, IEC103::stConfigParam> >::~new_allocator
FUNC 2135c 22 0 __gnu_cxx::new_allocator<std::_Rb_tree_node<std::pair<const std::basic_string<char, std::char_traits<char>, std::allocator<char> >, IEC103::stConfigParam> > >::deallocate
FUNC 2137e 1e 0 std::allocator<std::pair<const std::basic_string<char, std::char_traits<char>, std::allocator<char> >, std::map<std::basic_string<char, std::char_traits<char>, std::allocator<char> >, std::basic_string<char, std::char_traits<char>, std::allocator<char> >, std::less<std::basic_string<char, std::char_traits<char>, std::allocator<char> > >, std::allocator<std::pair<const std::basic_string<char, std::char_traits<char>, std::allocator<char> >, std::basic_string<char, std::char_traits<char>, std::allocator<char> > > > > > >::allocator<std::_Rb_tree_node<std::pair<const std::basic_string<char, std::char_traits<char>, std::allocator<char> >, std::map<std::basic_string<char, std::char_traits<char>, std::allocator<char> >, std::basic_string<char, std::char_traits<char>, std::allocator<char> >, std::less<std::basic_string<char, std::char_traits<char>, std::allocator<char> > >, std::allocator<std::pair<const std::basic_string<char, std::char_traits<char>, std::allocator<char> >, std::basic_string<char, std::char_traits<char>, std::allocator<char> > > > > > > >
FUNC 2139c a 0 __gnu_cxx::new_allocator<std::pair<const std::basic_string<char, std::char_traits<char>, std::allocator<char> >, std::map<std::basic_string<char, std::char_traits<char>, std::allocator<char> >, std::basic_string<char, std::char_traits<char>, std::allocator<char> >, std::less<std::basic_string<char, std::char_traits<char>, std::allocator<char> > >, std::allocator<std::pair<const std::basic_string<char, std::char_traits<char>, std::allocator<char> >, std::basic_string<char, std::char_traits<char>, std::allocator<char> > > > > > >::~new_allocator
FUNC 213a6 22 0 __gnu_cxx::new_allocator<std::_Rb_tree_node<std::pair<const std::basic_string<char, std::char_traits<char>, std::allocator<char> >, std::map<std::basic_string<char, std::char_traits<char>, std::allocator<char> >, std::basic_string<char, std::char_traits<char>, std::allocator<char> >, std::less<std::basic_string<char, std::char_traits<char>, std::allocator<char> > >, std::allocator<std::pair<const std::basic_string<char, std::char_traits<char>, std::allocator<char> >, std::basic_string<char, std::char_traits<char>, std::allocator<char> > > > > > > >::deallocate
FUNC 213c8 e 0 __gnu_cxx::new_allocator<std::_Rb_tree_node<std::pair<const std::basic_string<char, std::char_traits<char>, std::allocator<char> >, std::basic_string<char, std::char_traits<char>, std::allocator<char> > > > >::new_allocator
FUNC 213d6 14 0 __gnu_cxx::new_allocator<std::_List_node<stLogInfo> >::max_size
FUNC 213ea a 0 __gnu_cxx::new_allocator<stLogInfo>::new_allocator
FUNC 213f4 a 0 __gnu_cxx::new_allocator<std::pair<const std::basic_string<char, std::char_traits<char>, std::allocator<char> >, IEC103::stConfigParam> >::new_allocator
FUNC 213fe a 0 __gnu_cxx::new_allocator<std::pair<const std::basic_string<char, std::char_traits<char>, std::allocator<char> >, std::map<std::basic_string<char, std::char_traits<char>, std::allocator<char> >, std::basic_string<char, std::char_traits<char>, std::allocator<char> >, std::less<std::basic_string<char, std::char_traits<char>, std::allocator<char> > >, std::allocator<std::pair<const std::basic_string<char, std::char_traits<char>, std::allocator<char> >, std::basic_string<char, std::char_traits<char>, std::allocator<char> > > > > > >::new_allocator
FUNC 2140e 6c 0 boost::exception_detail::clone_impl<boost::exception_detail::error_info_injector<boost::lock_error> >::clone
FUNC 21480 5d 0 boost::exception_detail::clone_impl<boost::exception_detail::error_info_injector<boost::lock_error> >::rethrow
FUNC 214e4 6c 0 boost::exception_detail::clone_impl<boost::exception_detail::error_info_injector<boost::thread_resource_error> >::clone
FUNC 21556 5d 0 boost::exception_detail::clone_impl<boost::exception_detail::error_info_injector<boost::thread_resource_error> >::rethrow
FUNC 215b4 30 0 std::auto_ptr<Log::Logger>::~auto_ptr
FUNC 215e4 27 0 Inet::Inet
FUNC 2160c 35 0 Inet::~Inet
FUNC 21642 26 0 Inet::~Inet
FUNC 21668 13d 0 combine_folder
FUNC 217a5 23e 0 InitPaths
FUNC 219e3 31 0 InitLogging
FUNC 21a14 c8 0 GetLocalDate
FUNC 21adc c8 0 GetCurTime
FUNC 21ba4 2a1 0 Logger::Logger
FUNC 21e46 138 0 Logger::~Logger
FUNC 21f7e 26 0 Logger::~Logger
FUNC 21fa4 124 0 Logger::Debug
FUNC 220c8 20c 0 Logger::Debug
FUNC 222d4 125 0 Logger::Info
FUNC 223fa 20d 0 Logger::Info
FUNC 22608 125 0 Logger::Warn
FUNC 2272e 20d 0 Logger::Warn
FUNC 2293c 125 0 Logger::Error
FUNC 22a62 20d 0 Logger::Error
FUNC 22c70 125 0 Logger::Fatal
FUNC 22d96 20d 0 Logger::Fatal
FUNC 22fa4 bc 0 Logger::GetInstance
FUNC 23060 164 0 Logger::Log
FUNC 231c4 24a 0 Logger::Log
FUNC 2340e 266 0 Logger::Log
FUNC 23674 b 0 Logger::GetInstancePtr
FUNC 23680 354 0 Logger::Log
FUNC 239d4 85 0 LogMessage::LogMessage
FUNC 23a5a 86 0 LogMessage::~LogMessage
FUNC 23ae0 26 0 LogMessage::~LogMessage
FUNC 23b06 4e 0 __static_initialization_and_destruction_0
FUNC 23b54 15 0 _GLOBAL__I_Logger.cpp
FUNC 23b6a 35 0 ILogger::~ILogger
FUNC 23ba0 26 0 ILogger::~ILogger
FUNC 23bc6 12 0 Logger::stream
FUNC 23bd8 12c 0 FileHelper::CreateDir
FUNC 23d04 1c 0 ILogger::ILogger
FUNC 23d20 eb 0 MemCache::MemCache
FUNC 23e0c 80 0 MemCache::~MemCache
FUNC 23e8c 26 0 MemCache::~MemCache
FUNC 23eb2 74 0 MemCache::GetInstance
FUNC 23f26 4bc 0 MemCache::Init
FUNC 243e2 af 0 MemCache::GetFunction
FUNC 24492 1a2 0 MemCache::WritePointsValue_V
FUNC 24634 2b 0 MemCache::Post
FUNC 24660 3c 0 MemCache::Free
FUNC 2469c ca 0 __static_initialization_and_destruction_0
FUNC 24766 15 0 _GLOBAL__I_MemCache.cpp
FUNC 2477c 14 0 Config::GetRedisPostName
FUNC 24790 15 0 Config::GetRedisPostSize
FUNC 247a6 39 0 std::vector<Tag, std::allocator<Tag> >::operator[]
FUNC 247e0 2d 0 std::vector<Tag, std::allocator<Tag> >::size
FUNC 24810 123 0 protobuf_RtdbMessage_2eproto::TableStruct::Shutdown
FUNC 24934 2a7 0 protobuf_RtdbMessage_2eproto::TableStruct::InitDefaultsImpl
FUNC 24bdb 1c 0 protobuf_RtdbMessage_2eproto::InitDefaults
FUNC 24bf7 1a 0 protobuf_RtdbMessage_2eproto::AddDescriptorsImpl
FUNC 24c11 1c 0 protobuf_RtdbMessage_2eproto::AddDescriptors
FUNC 24c2d 20 0 PointValueType_IsValid
FUNC 24c4d 20 0 RtdbMessageType_IsValid
FUNC 24c6d 20 0 ObjectType_IsValid
FUNC 24c8e b3 0 RawMessage::RawMessage
FUNC 24d42 1f8 0 RawMessage::RawMessage
FUNC 24f3a 63 0 RawMessage::SharedCtor
FUNC 24f9e a7 0 RawMessage::~RawMessage
FUNC 25046 26 0 RawMessage::~RawMessage
FUNC 2506c 3e 0 RawMessage::SharedDtor
FUNC 250aa 17 0 RawMessage::SetCachedSize
FUNC 250c2 10 0 RawMessage::default_instance
FUNC 250d2 78 0 RawMessage::New
FUNC 2514a 58 0 RawMessage::Clear
FUNC 251a2 40f 0 RawMessage::MergePartialFromCodedStream
FUNC 255b2 177 0 RawMessage::SerializeWithCachedSizes
FUNC 2572a 117 0 RawMessage::ByteSizeLong
FUNC 25842 30 0 RawMessage::CheckTypeAndMergeFrom
FUNC 25872 25d 0 RawMessage::MergeFrom
FUNC 25ad0 49 0 RawMessage::CopyFrom
FUNC 25b1a f 0 RawMessage::IsInitialized
FUNC 25b2a 32 0 RawMessage::Swap
FUNC 25b5c b9 0 RawMessage::InternalSwap
FUNC 25c16 73 0 RawMessage::GetTypeName
FUNC 25c8a b3 0 AlarmMessage::AlarmMessage
FUNC 25d3e 2a4 0 AlarmMessage::AlarmMessage
FUNC 25fe2 93 0 AlarmMessage::SharedCtor
FUNC 26076 a7 0 AlarmMessage::~AlarmMessage
FUNC 2611e 26 0 AlarmMessage::~AlarmMessage
FUNC 26144 6e 0 AlarmMessage::SharedDtor
FUNC 261b2 17 0 AlarmMessage::SetCachedSize
FUNC 261ca 10 0 AlarmMessage::default_instance
FUNC 261da 78 0 AlarmMessage::New
FUNC 26252 88 0 AlarmMessage::Clear
FUNC 262da 5a9 0 AlarmMessage::MergePartialFromCodedStream
FUNC 26884 2cf 0 AlarmMessage::SerializeWithCachedSizes
FUNC 26b54 1fb 0 AlarmMessage::ByteSizeLong
FUNC 26d50 30 0 AlarmMessage::CheckTypeAndMergeFrom
FUNC 26d80 35f 0 AlarmMessage::MergeFrom
FUNC 270e0 49 0 AlarmMessage::CopyFrom
FUNC 2712a f 0 AlarmMessage::IsInitialized
FUNC 2713a 32 0 AlarmMessage::Swap
FUNC 2716c 145 0 AlarmMessage::InternalSwap
FUNC 272b2 73 0 AlarmMessage::GetTypeName
FUNC 27326 b3 0 DebugRequest::DebugRequest
FUNC 273da 1a2 0 DebugRequest::DebugRequest
FUNC 2757c 4b 0 DebugRequest::SharedCtor
FUNC 275c8 a7 0 DebugRequest::~DebugRequest
FUNC 27670 26 0 DebugRequest::~DebugRequest
FUNC 27696 26 0 DebugRequest::SharedDtor
FUNC 276bc 17 0 DebugRequest::SetCachedSize
FUNC 276d4 10 0 DebugRequest::default_instance
FUNC 276e4 78 0 DebugRequest::New
FUNC 2775c 40 0 DebugRequest::Clear
FUNC 2779c 365 0 DebugRequest::MergePartialFromCodedStream
FUNC 27b02 fc 0 DebugRequest::SerializeWithCachedSizes
FUNC 27bfe d9 0 DebugRequest::ByteSizeLong
FUNC 27cd8 30 0 DebugRequest::CheckTypeAndMergeFrom
FUNC 27d08 216 0 DebugRequest::MergeFrom
FUNC 27f1e 49 0 DebugRequest::CopyFrom
FUNC 27f68 f 0 DebugRequest::IsInitialized
FUNC 27f78 32 0 DebugRequest::Swap
FUNC 27faa 8e 0 DebugRequest::InternalSwap
FUNC 28038 73 0 DebugRequest::GetTypeName
FUNC 280ac b3 0 SOEMessage::SOEMessage
FUNC 28160 1a2 0 SOEMessage::SOEMessage
FUNC 28302 4b 0 SOEMessage::SharedCtor
FUNC 2834e a7 0 SOEMessage::~SOEMessage
FUNC 283f6 26 0 SOEMessage::~SOEMessage
FUNC 2841c 26 0 SOEMessage::SharedDtor
FUNC 28442 17 0 SOEMessage::SetCachedSize
FUNC 2845a 10 0 SOEMessage::default_instance
FUNC 2846a 78 0 SOEMessage::New
FUNC 284e2 40 0 SOEMessage::Clear
FUNC 28522 365 0 SOEMessage::MergePartialFromCodedStream
FUNC 28888 fc 0 SOEMessage::SerializeWithCachedSizes
FUNC 28984 d9 0 SOEMessage::ByteSizeLong
FUNC 28a5e 30 0 SOEMessage::CheckTypeAndMergeFrom
FUNC 28a8e 216 0 SOEMessage::MergeFrom
FUNC 28ca4 49 0 SOEMessage::CopyFrom
FUNC 28cee f 0 SOEMessage::IsInitialized
FUNC 28cfe 32 0 SOEMessage::Swap
FUNC 28d30 8e 0 SOEMessage::InternalSwap
FUNC 28dbe 73 0 SOEMessage::GetTypeName
FUNC 28e32 b3 0 ControlRequet::ControlRequet
FUNC 28ee6 1e7 0 ControlRequet::ControlRequet
FUNC 290ce 51 0 ControlRequet::SharedCtor
FUNC 29120 a7 0 ControlRequet::~ControlRequet
FUNC 291c8 26 0 ControlRequet::~ControlRequet
FUNC 291ee 3e 0 ControlRequet::SharedDtor
FUNC 2922c 17 0 ControlRequet::SetCachedSize
FUNC 29244 10 0 ControlRequet::default_instance
FUNC 29254 78 0 ControlRequet::New
FUNC 292cc 46 0 ControlRequet::Clear
FUNC 29312 3c1 0 ControlRequet::MergePartialFromCodedStream
FUNC 296d4 144 0 ControlRequet::SerializeWithCachedSizes
FUNC 29818 c4 0 ControlRequet::ByteSizeLong
FUNC 298dc 30 0 ControlRequet::CheckTypeAndMergeFrom
FUNC 2990c 21f 0 ControlRequet::MergeFrom
FUNC 29b2c 49 0 ControlRequet::CopyFrom
FUNC 29b76 f 0 ControlRequet::IsInitialized
FUNC 29b86 32 0 ControlRequet::Swap
FUNC 29bb8 9e 0 ControlRequet::InternalSwap
FUNC 29c56 73 0 ControlRequet::GetTypeName
FUNC 29cca b3 0 LogRequest::LogRequest
FUNC 29d7e 190 0 LogRequest::LogRequest
FUNC 29f0e 3c 0 LogRequest::SharedCtor
FUNC 29f4a a7 0 LogRequest::~LogRequest
FUNC 29ff2 26 0 LogRequest::~LogRequest
FUNC 2a018 26 0 LogRequest::SharedDtor
FUNC 2a03e 17 0 LogRequest::SetCachedSize
FUNC 2a056 10 0 LogRequest::default_instance
FUNC 2a066 78 0 LogRequest::New
FUNC 2a0de 31 0 LogRequest::Clear
FUNC 2a110 326 0 LogRequest::MergePartialFromCodedStream
FUNC 2a436 cb 0 LogRequest::SerializeWithCachedSizes
FUNC 2a502 a5 0 LogRequest::ByteSizeLong
FUNC 2a5a8 30 0 LogRequest::CheckTypeAndMergeFrom
FUNC 2a5d8 1dc 0 LogRequest::MergeFrom
FUNC 2a7b4 49 0 LogRequest::CopyFrom
FUNC 2a7fe f 0 LogRequest::IsInitialized
FUNC 2a80e 32 0 LogRequest::Swap
FUNC 2a840 73 0 LogRequest::InternalSwap
FUNC 2a8b4 73 0 LogRequest::GetTypeName
FUNC 2a928 b3 0 RealLogResponse::RealLogResponse
FUNC 2a9dc 24e 0 RealLogResponse::RealLogResponse
FUNC 2ac2a 7b 0 RealLogResponse::SharedCtor
FUNC 2aca6 a7 0 RealLogResponse::~RealLogResponse
FUNC 2ad4e 26 0 RealLogResponse::~RealLogResponse
FUNC 2ad74 56 0 RealLogResponse::SharedDtor
FUNC 2adca 17 0 RealLogResponse::SetCachedSize
FUNC 2ade2 10 0 RealLogResponse::default_instance
FUNC 2adf2 78 0 RealLogResponse::New
FUNC 2ae6a 70 0 RealLogResponse::Clear
FUNC 2aeda 4e3 0 RealLogResponse::MergePartialFromCodedStream
FUNC 2b3be 225 0 RealLogResponse::SerializeWithCachedSizes
FUNC 2b5e4 18b 0 RealLogResponse::ByteSizeLong
FUNC 2b770 30 0 RealLogResponse::CheckTypeAndMergeFrom
FUNC 2b7a0 2e1 0 RealLogResponse::MergeFrom
FUNC 2ba82 49 0 RealLogResponse::CopyFrom
FUNC 2bacc f 0 RealLogResponse::IsInitialized
FUNC 2badc 32 0 RealLogResponse::Swap
FUNC 2bb0e ff 0 RealLogResponse::InternalSwap
FUNC 2bc0e 73 0 RealLogResponse::GetTypeName
FUNC 2bc82 b3 0 LogQuery::LogQuery
FUNC 2bd36 1f8 0 LogQuery::LogQuery
FUNC 2bf2e 63 0 LogQuery::SharedCtor
FUNC 2bf92 a7 0 LogQuery::~LogQuery
FUNC 2c03a 26 0 LogQuery::~LogQuery
FUNC 2c060 3e 0 LogQuery::SharedDtor
FUNC 2c09e 17 0 LogQuery::SetCachedSize
FUNC 2c0b6 10 0 LogQuery::default_instance
FUNC 2c0c6 78 0 LogQuery::New
FUNC 2c13e 58 0 LogQuery::Clear
FUNC 2c196 4c2 0 LogQuery::MergePartialFromCodedStream
FUNC 2c658 20e 0 LogQuery::SerializeWithCachedSizes
FUNC 2c866 1b7 0 LogQuery::ByteSizeLong
FUNC 2ca1e 30 0 LogQuery::CheckTypeAndMergeFrom
FUNC 2ca4e 311 0 LogQuery::MergeFrom
FUNC 2cd60 49 0 LogQuery::CopyFrom
FUNC 2cdaa f 0 LogQuery::IsInitialized
FUNC 2cdba 32 0 LogQuery::Swap
FUNC 2cdec 10a 0 LogQuery::InternalSwap
FUNC 2cef6 73 0 LogQuery::GetTypeName
FUNC 2cf6a b3 0 HisLogResponse::HisLogResponse
FUNC 2d01e 24e 0 HisLogResponse::HisLogResponse
FUNC 2d26c 7b 0 HisLogResponse::SharedCtor
FUNC 2d2e8 a7 0 HisLogResponse::~HisLogResponse
FUNC 2d390 26 0 HisLogResponse::~HisLogResponse
FUNC 2d3b6 56 0 HisLogResponse::SharedDtor
FUNC 2d40c 17 0 HisLogResponse::SetCachedSize
FUNC 2d424 10 0 HisLogResponse::default_instance
FUNC 2d434 78 0 HisLogResponse::New
FUNC 2d4ac 70 0 HisLogResponse::Clear
FUNC 2d51c 51a 0 HisLogResponse::MergePartialFromCodedStream
FUNC 2da36 256 0 HisLogResponse::SerializeWithCachedSizes
FUNC 2dc8c 1bf 0 HisLogResponse::ByteSizeLong
FUNC 2de4c 30 0 HisLogResponse::CheckTypeAndMergeFrom
FUNC 2de7c 31b 0 HisLogResponse::MergeFrom
FUNC 2e198 49 0 HisLogResponse::CopyFrom
FUNC 2e1e2 f 0 HisLogResponse::IsInitialized
FUNC 2e1f2 32 0 HisLogResponse::Swap
FUNC 2e224 11a 0 HisLogResponse::InternalSwap
FUNC 2e33e 73 0 HisLogResponse::GetTypeName
FUNC 2e3b2 b3 0 NetcardInfoRequest::NetcardInfoRequest
FUNC 2e466 184 0 NetcardInfoRequest::NetcardInfoRequest
FUNC 2e5ea 31 0 NetcardInfoRequest::SharedCtor
FUNC 2e61c a7 0 NetcardInfoRequest::~NetcardInfoRequest
FUNC 2e6c4 26 0 NetcardInfoRequest::~NetcardInfoRequest
FUNC 2e6ea 26 0 NetcardInfoRequest::SharedDtor
FUNC 2e710 17 0 NetcardInfoRequest::SetCachedSize
FUNC 2e728 10 0 NetcardInfoRequest::default_instance
FUNC 2e738 78 0 NetcardInfoRequest::New
FUNC 2e7b0 26 0 NetcardInfoRequest::Clear
FUNC 2e7d6 2e7 0 NetcardInfoRequest::MergePartialFromCodedStream
FUNC 2eabe 9a 0 NetcardInfoRequest::SerializeWithCachedSizes
FUNC 2eb58 71 0 NetcardInfoRequest::ByteSizeLong
FUNC 2ebca 30 0 NetcardInfoRequest::CheckTypeAndMergeFrom
FUNC 2ebfa 1a2 0 NetcardInfoRequest::MergeFrom
FUNC 2ed9c 49 0 NetcardInfoRequest::CopyFrom
FUNC 2ede6 f 0 NetcardInfoRequest::IsInitialized
FUNC 2edf6 32 0 NetcardInfoRequest::Swap
FUNC 2ee28 58 0 NetcardInfoRequest::InternalSwap
FUNC 2ee80 73 0 NetcardInfoRequest::GetTypeName
FUNC 2eef4 b3 0 NetcardInfo::NetcardInfo
FUNC 2efa8 286 0 NetcardInfo::NetcardInfo
FUNC 2f22e 79 0 NetcardInfo::SharedCtor
FUNC 2f2a8 a7 0 NetcardInfo::~NetcardInfo
FUNC 2f350 26 0 NetcardInfo::~NetcardInfo
FUNC 2f376 6e 0 NetcardInfo::SharedDtor
FUNC 2f3e4 17 0 NetcardInfo::SetCachedSize
FUNC 2f3fc 10 0 NetcardInfo::default_instance
FUNC 2f40c 78 0 NetcardInfo::New
FUNC 2f484 6e 0 NetcardInfo::Clear
FUNC 2f4f2 4c7 0 NetcardInfo::MergePartialFromCodedStream
FUNC 2f9ba 20b 0 NetcardInfo::SerializeWithCachedSizes
FUNC 2fbc6 12b 0 NetcardInfo::ByteSizeLong
FUNC 2fcf2 30 0 NetcardInfo::CheckTypeAndMergeFrom
FUNC 2fd22 277 0 NetcardInfo::MergeFrom
FUNC 2ff9a 49 0 NetcardInfo::CopyFrom
FUNC 2ffe4 f 0 NetcardInfo::IsInitialized
FUNC 2fff4 32 0 NetcardInfo::Swap
FUNC 30026 d9 0 NetcardInfo::InternalSwap
FUNC 30100 73 0 NetcardInfo::GetTypeName
FUNC 30174 e0 0 NetcardInfoResponse::NetcardInfoResponse
FUNC 30254 16a 0 NetcardInfoResponse::NetcardInfoResponse
FUNC 303be 15 0 NetcardInfoResponse::SharedCtor
FUNC 303d4 d6 0 NetcardInfoResponse::~NetcardInfoResponse
FUNC 304aa 26 0 NetcardInfoResponse::~NetcardInfoResponse
FUNC 304d0 a 0 NetcardInfoResponse::SharedDtor
FUNC 304da 17 0 NetcardInfoResponse::SetCachedSize
FUNC 304f2 10 0 NetcardInfoResponse::default_instance
FUNC 30502 78 0 NetcardInfoResponse::New
FUNC 3057a 1e 0 NetcardInfoResponse::Clear
FUNC 30598 284 0 NetcardInfoResponse::MergePartialFromCodedStream
FUNC 3081c 64 0 NetcardInfoResponse::SerializeWithCachedSizes
FUNC 30880 80 0 NetcardInfoResponse::ByteSizeLong
FUNC 30900 30 0 NetcardInfoResponse::CheckTypeAndMergeFrom
FUNC 30930 17c 0 NetcardInfoResponse::MergeFrom
FUNC 30aac 49 0 NetcardInfoResponse::CopyFrom
FUNC 30af6 f 0 NetcardInfoResponse::IsInitialized
FUNC 30b06 32 0 NetcardInfoResponse::Swap
FUNC 30b38 48 0 NetcardInfoResponse::InternalSwap
FUNC 30b80 73 0 NetcardInfoResponse::GetTypeName
FUNC 30bf4 b3 0 ProcessData::ProcessData
FUNC 30ca8 24e 0 ProcessData::ProcessData
FUNC 30ef6 7b 0 ProcessData::SharedCtor
FUNC 30f72 a7 0 ProcessData::~ProcessData
FUNC 3101a 26 0 ProcessData::~ProcessData
FUNC 31040 56 0 ProcessData::SharedDtor
FUNC 31096 17 0 ProcessData::SetCachedSize
FUNC 310ae 10 0 ProcessData::default_instance
FUNC 310be 78 0 ProcessData::New
FUNC 31136 70 0 ProcessData::Clear
FUNC 311a6 5c7 0 ProcessData::MergePartialFromCodedStream
FUNC 3176e 2fb 0 ProcessData::SerializeWithCachedSizes
FUNC 31a6a 237 0 ProcessData::ByteSizeLong
FUNC 31ca2 30 0 ProcessData::CheckTypeAndMergeFrom
FUNC 31cd2 3d0 0 ProcessData::MergeFrom
FUNC 320a2 49 0 ProcessData::CopyFrom
FUNC 320ec f 0 ProcessData::IsInitialized
FUNC 320fc 32 0 ProcessData::Swap
FUNC 3212e 16b 0 ProcessData::InternalSwap
FUNC 3229a 73 0 ProcessData::GetTypeName
FUNC 3230e b3 0 ProcessCtrl::ProcessCtrl
FUNC 323c2 190 0 ProcessCtrl::ProcessCtrl
FUNC 32552 3c 0 ProcessCtrl::SharedCtor
FUNC 3258e a7 0 ProcessCtrl::~ProcessCtrl
FUNC 32636 26 0 ProcessCtrl::~ProcessCtrl
FUNC 3265c 26 0 ProcessCtrl::SharedDtor
FUNC 32682 17 0 ProcessCtrl::SetCachedSize
FUNC 3269a 10 0 ProcessCtrl::default_instance
FUNC 326aa 78 0 ProcessCtrl::New
FUNC 32722 31 0 ProcessCtrl::Clear
FUNC 32754 326 0 ProcessCtrl::MergePartialFromCodedStream
FUNC 32a7a cb 0 ProcessCtrl::SerializeWithCachedSizes
FUNC 32b46 a5 0 ProcessCtrl::ByteSizeLong
FUNC 32bec 30 0 ProcessCtrl::CheckTypeAndMergeFrom
FUNC 32c1c 1dc 0 ProcessCtrl::MergeFrom
FUNC 32df8 49 0 ProcessCtrl::CopyFrom
FUNC 32e42 f 0 ProcessCtrl::IsInitialized
FUNC 32e52 32 0 ProcessCtrl::Swap
FUNC 32e84 73 0 ProcessCtrl::InternalSwap
FUNC 32ef8 73 0 ProcessCtrl::GetTypeName
FUNC 32f6c b3 0 RealPointValue::RealPointValue
FUNC 33020 2a4 0 RealPointValue::RealPointValue
FUNC 332c4 93 0 RealPointValue::SharedCtor
FUNC 33358 a7 0 RealPointValue::~RealPointValue
FUNC 33400 26 0 RealPointValue::~RealPointValue
FUNC 33426 6e 0 RealPointValue::SharedDtor
FUNC 33494 17 0 RealPointValue::SetCachedSize
FUNC 334ac 10 0 RealPointValue::default_instance
FUNC 334bc 78 0 RealPointValue::New
FUNC 33534 88 0 RealPointValue::Clear
FUNC 335bc 540 0 RealPointValue::MergePartialFromCodedStream
FUNC 33afc 26d 0 RealPointValue::SerializeWithCachedSizes
FUNC 33d6a 193 0 RealPointValue::ByteSizeLong
FUNC 33efe 30 0 RealPointValue::CheckTypeAndMergeFrom
FUNC 33f2e 2eb 0 RealPointValue::MergeFrom
FUNC 3421a 49 0 RealPointValue::CopyFrom
FUNC 34264 f 0 RealPointValue::IsInitialized
FUNC 34274 32 0 RealPointValue::Swap
FUNC 342a6 10f 0 RealPointValue::InternalSwap
FUNC 343b6 73 0 RealPointValue::GetTypeName
FUNC 3442a b3 0 HeartBeatMessage::HeartBeatMessage
FUNC 344de 190 0 HeartBeatMessage::HeartBeatMessage
FUNC 3466e 3c 0 HeartBeatMessage::SharedCtor
FUNC 346aa a7 0 HeartBeatMessage::~HeartBeatMessage
FUNC 34752 26 0 HeartBeatMessage::~HeartBeatMessage
FUNC 34778 26 0 HeartBeatMessage::SharedDtor
FUNC 3479e 17 0 HeartBeatMessage::SetCachedSize
FUNC 347b6 10 0 HeartBeatMessage::default_instance
FUNC 347c6 78 0 HeartBeatMessage::New
FUNC 3483e 31 0 HeartBeatMessage::Clear
FUNC 34870 326 0 HeartBeatMessage::MergePartialFromCodedStream
FUNC 34b96 cb 0 HeartBeatMessage::SerializeWithCachedSizes
FUNC 34c62 a5 0 HeartBeatMessage::ByteSizeLong
FUNC 34d08 30 0 HeartBeatMessage::CheckTypeAndMergeFrom
FUNC 34d38 1dc 0 HeartBeatMessage::MergeFrom
FUNC 34f14 49 0 HeartBeatMessage::CopyFrom
FUNC 34f5e f 0 HeartBeatMessage::IsInitialized
FUNC 34f6e 32 0 HeartBeatMessage::Swap
FUNC 34fa0 73 0 HeartBeatMessage::InternalSwap
FUNC 35014 73 0 HeartBeatMessage::GetTypeName
FUNC 35088 b3 0 CommunicationPair::CommunicationPair
FUNC 3513c 4fe 0 CommunicationPair::CommunicationPair
FUNC 3563a 13b 0 CommunicationPair::SharedCtor
FUNC 35776 a7 0 CommunicationPair::~CommunicationPair
FUNC 3581e 26 0 CommunicationPair::~CommunicationPair
FUNC 35844 116 0 CommunicationPair::SharedDtor
FUNC 3595a 17 0 CommunicationPair::SetCachedSize
FUNC 35972 10 0 CommunicationPair::default_instance
FUNC 35982 78 0 CommunicationPair::New
FUNC 359fa 130 0 CommunicationPair::Clear
FUNC 35b2a 97f 0 CommunicationPair::MergePartialFromCodedStream
FUNC 364aa 5fb 0 CommunicationPair::SerializeWithCachedSizes
FUNC 36aa6 379 0 CommunicationPair::ByteSizeLong
FUNC 36e20 30 0 CommunicationPair::CheckTypeAndMergeFrom
FUNC 36e50 516 0 CommunicationPair::MergeFrom
FUNC 37366 49 0 CommunicationPair::CopyFrom
FUNC 373b0 f 0 CommunicationPair::IsInitialized
FUNC 373c0 32 0 CommunicationPair::Swap
FUNC 373f2 2de 0 CommunicationPair::InternalSwap
FUNC 376d0 73 0 CommunicationPair::GetTypeName
FUNC 37744 b3 0 FlowThreshold::FlowThreshold
FUNC 377f8 286 0 FlowThreshold::FlowThreshold
FUNC 37a7e 79 0 FlowThreshold::SharedCtor
FUNC 37af8 a7 0 FlowThreshold::~FlowThreshold
FUNC 37ba0 26 0 FlowThreshold::~FlowThreshold
FUNC 37bc6 6e 0 FlowThreshold::SharedDtor
FUNC 37c34 17 0 FlowThreshold::SetCachedSize
FUNC 37c4c 10 0 FlowThreshold::default_instance
FUNC 37c5c 78 0 FlowThreshold::New
FUNC 37cd4 6e 0 FlowThreshold::Clear
FUNC 37d42 4c7 0 FlowThreshold::MergePartialFromCodedStream
FUNC 3820a 20b 0 FlowThreshold::SerializeWithCachedSizes
FUNC 38416 12b 0 FlowThreshold::ByteSizeLong
FUNC 38542 30 0 FlowThreshold::CheckTypeAndMergeFrom
FUNC 38572 277 0 FlowThreshold::MergeFrom
FUNC 387ea 49 0 FlowThreshold::CopyFrom
FUNC 38834 f 0 FlowThreshold::IsInitialized
FUNC 38844 32 0 FlowThreshold::Swap
FUNC 38876 d9 0 FlowThreshold::InternalSwap
FUNC 38950 73 0 FlowThreshold::GetTypeName
FUNC 389c4 b3 0 RtdbMessage::RtdbMessage
FUNC 38a78 68b 0 RtdbMessage::RtdbMessage
FUNC 39104 36 0 RtdbMessage::SharedCtor
FUNC 3913a a7 0 RtdbMessage::~RtdbMessage
FUNC 391e2 26 0 RtdbMessage::~RtdbMessage
FUNC 39208 31a 0 RtdbMessage::SharedDtor
FUNC 39522 1a 0 RtdbMessage::SetCachedSize
FUNC 3953c 10 0 RtdbMessage::default_instance
FUNC 3954c 78 0 RtdbMessage::New
FUNC 395c4 556 0 RtdbMessage::Clear
FUNC 39b1a 75c 0 RtdbMessage::MergePartialFromCodedStream
FUNC 3a276 354 0 RtdbMessage::SerializeWithCachedSizes
FUNC 3a5ca 3aa 0 RtdbMessage::ByteSizeLong
FUNC 3a974 30 0 RtdbMessage::CheckTypeAndMergeFrom
FUNC 3a9a4 5ea 0 RtdbMessage::MergeFrom
FUNC 3af8e 49 0 RtdbMessage::CopyFrom
FUNC 3afd8 f 0 RtdbMessage::IsInitialized
FUNC 3afe8 32 0 RtdbMessage::Swap
FUNC 3b01a 245 0 RtdbMessage::InternalSwap
FUNC 3b260 73 0 RtdbMessage::GetTypeName
FUNC 3b2d3 2e 0 __static_initialization_and_destruction_0
FUNC 3b301 15 0 _GLOBAL__I_RtdbMessage.pb.cpp
FUNC 3b316 13 0 google::protobuf::Bits::Log2FloorNonZero
FUNC 3b329 16 0 google::protobuf::Bits::Log2FloorNonZero64
FUNC 3b340 1c 0 google::protobuf::Closure::Closure
FUNC 3b35c 4c 0 google::protobuf::internal::FunctionClosure0::FunctionClosure0
FUNC 3b3a8 19 0 google::protobuf::internal::Acquire_Load
FUNC 3b3c2 99 0 google::protobuf::io::CodedInputStream::ReadVarint32
FUNC 3b45c 9f 0 google::protobuf::io::CodedInputStream::ReadVarint64
FUNC 3b4fc 83 0 google::protobuf::io::CodedInputStream::ReadVarintSizeAsInt
FUNC 3b580 32 0 google::protobuf::io::CodedInputStream::ReadLittleEndian32FromArray
FUNC 3b5b2 68 0 google::protobuf::io::CodedInputStream::ReadLittleEndian32
FUNC 3b61a 2f 0 google::protobuf::io::CodedOutputStream::VarintSize32
FUNC 3b64a 33 0 google::protobuf::io::CodedOutputStream::VarintSize64
FUNC 3b67e 24 0 google::protobuf::io::CodedOutputStream::VarintSize32SignExtended
FUNC 3b6a2 23 0 google::protobuf::io::CodedInputStream::Advance
FUNC 3b6c6 21 0 google::protobuf::io::CodedInputStream::BufferSize
FUNC 3b6e8 19 0 google::protobuf::internal::ArenaStringPtr::UnsafeSetDefault
FUNC 3b702 4e 0 google::protobuf::internal::ArenaStringPtr::SetNoArena
FUNC 3b750 11 0 google::protobuf::internal::ArenaStringPtr::GetNoArena
FUNC 3b762 39 0 google::protobuf::internal::ArenaStringPtr::MutableNoArena
FUNC 3b79c 41 0 google::protobuf::internal::ArenaStringPtr::DestroyNoArena
FUNC 3b7de 2e 0 google::protobuf::internal::ArenaStringPtr::ClearToEmptyNoArena
FUNC 3b80c e 0 google::protobuf::internal::ArenaStringPtr::UnsafeRawStringPointer
FUNC 3b81a f0 0 google::protobuf::internal::ArenaStringPtr::CreateInstanceNoArena
FUNC 3b90a 68 0 google::protobuf::internal::ArenaStringPtr::AssignWithDefault
FUNC 3b972 8b 0 google::protobuf::GoogleOnceInit
FUNC 3b9fd 15 0 google::protobuf::internal::GetEmptyStringAlreadyInited
FUNC 3ba12 e 0 google::protobuf::internal::ToCachedSize
FUNC 3ba20 1c 0 google::protobuf::MessageLite::MessageLite
FUNC 3ba3c 35 0 google::protobuf::MessageLite::~MessageLite
FUNC 3ba72 26 0 google::protobuf::MessageLite::~MessageLite
FUNC 3ba98 f 0 google::protobuf::MessageLite::GetArena
FUNC 3baa8 25 0 google::protobuf::MessageLite::GetMaybeArenaPointer
FUNC 3bace a 0 google::protobuf::internal::AuxillaryParseTableField::AuxillaryParseTableField
FUNC 3bad8 25 0 google::protobuf::internal::InternalMetadataWithArenaLite::InternalMetadataWithArenaLite
FUNC 3bafe 70 0 google::protobuf::internal::InternalMetadataWithArenaLite::DoMergeFrom
FUNC 3bb6e b 0 google::protobuf::internal::InternalMetadataWithArenaLite::default_instance
FUNC 3bb7a a 0 google::protobuf::internal::RepeatedPtrFieldBase::~RepeatedPtrFieldBase
FUNC 3bb84 11 0 google::protobuf::internal::RepeatedPtrFieldBase::GetArenaNoVirtual
FUNC 3bb96 37 0 google::protobuf::internal::RepeatedPtrFieldBase::RepeatedPtrFieldBase
FUNC 3bbce 11 0 google::protobuf::internal::RepeatedPtrFieldBase::size
FUNC 3bbe0 f1 0 google::protobuf::internal::RepeatedPtrFieldBase::MergeFromInternal
FUNC 3bcd2 1c3 0 google::protobuf::internal::RepeatedPtrFieldBase::InternalSwap
FUNC 3be95 d 0 RawMessage::internal_default_instance
FUNC 3bea2 2a 0 RawMessage::New
FUNC 3becc 11 0 RawMessage::GetCachedSize
FUNC 3bedd d 0 AlarmMessage::internal_default_instance
FUNC 3beea 2a 0 AlarmMessage::New
FUNC 3bf14 11 0 AlarmMessage::GetCachedSize
FUNC 3bf25 d 0 DebugRequest::internal_default_instance
FUNC 3bf32 2a 0 DebugRequest::New
FUNC 3bf5c 11 0 DebugRequest::GetCachedSize
FUNC 3bf6d d 0 SOEMessage::internal_default_instance
FUNC 3bf7a 2a 0 SOEMessage::New
FUNC 3bfa4 11 0 SOEMessage::GetCachedSize
FUNC 3bfb5 d 0 ControlRequet::internal_default_instance
FUNC 3bfc2 2a 0 ControlRequet::New
FUNC 3bfec 11 0 ControlRequet::GetCachedSize
FUNC 3bffd d 0 LogRequest::internal_default_instance
FUNC 3c00a 2a 0 LogRequest::New
FUNC 3c034 11 0 LogRequest::GetCachedSize
FUNC 3c045 d 0 RealLogResponse::internal_default_instance
FUNC 3c052 2a 0 RealLogResponse::New
FUNC 3c07c 11 0 RealLogResponse::GetCachedSize
FUNC 3c08d d 0 LogQuery::internal_default_instance
FUNC 3c09a 2a 0 LogQuery::New
FUNC 3c0c4 11 0 LogQuery::GetCachedSize
FUNC 3c0d5 d 0 HisLogResponse::internal_default_instance
FUNC 3c0e2 2a 0 HisLogResponse::New
FUNC 3c10c 11 0 HisLogResponse::GetCachedSize
FUNC 3c11d d 0 NetcardInfoRequest::internal_default_instance
FUNC 3c12a 2a 0 NetcardInfoRequest::New
FUNC 3c154 11 0 NetcardInfoRequest::GetCachedSize
FUNC 3c165 d 0 NetcardInfo::internal_default_instance
FUNC 3c172 2a 0 NetcardInfo::New
FUNC 3c19c 11 0 NetcardInfo::GetCachedSize
FUNC 3c1ad d 0 NetcardInfoResponse::internal_default_instance
FUNC 3c1ba 2a 0 NetcardInfoResponse::New
FUNC 3c1e4 11 0 NetcardInfoResponse::GetCachedSize
FUNC 3c1f5 d 0 ProcessData::internal_default_instance
FUNC 3c202 2a 0 ProcessData::New
FUNC 3c22c 11 0 ProcessData::GetCachedSize
FUNC 3c23d d 0 ProcessCtrl::internal_default_instance
FUNC 3c24a 2a 0 ProcessCtrl::New
FUNC 3c274 11 0 ProcessCtrl::GetCachedSize
FUNC 3c285 d 0 RealPointValue::internal_default_instance
FUNC 3c292 2a 0 RealPointValue::New
FUNC 3c2bc 11 0 RealPointValue::GetCachedSize
FUNC 3c2cd d 0 HeartBeatMessage::internal_default_instance
FUNC 3c2da 2a 0 HeartBeatMessage::New
FUNC 3c304 11 0 HeartBeatMessage::GetCachedSize
FUNC 3c315 d 0 CommunicationPair::internal_default_instance
FUNC 3c322 2a 0 CommunicationPair::New
FUNC 3c34c 11 0 CommunicationPair::GetCachedSize
FUNC 3c35d d 0 FlowThreshold::internal_default_instance
FUNC 3c36a 2a 0 FlowThreshold::New
FUNC 3c394 11 0 FlowThreshold::GetCachedSize
FUNC 3c3a5 d 0 RtdbMessage::internal_default_instance
FUNC 3c3b2 2a 0 RtdbMessage::New
FUNC 3c3dc 14 0 RtdbMessage::GetCachedSize
FUNC 3c3f0 f 0 RtdbMessage::GetArenaNoVirtual
FUNC 3c400 1e 0 RawMessage::data
FUNC 3c41e 26 0 RawMessage::mutable_data
FUNC 3c444 1e 0 RawMessage::filename
FUNC 3c462 26 0 RawMessage::mutable_filename
FUNC 3c488 11 0 RawMessage::startoffset
FUNC 3c49a 17 0 RawMessage::set_startoffset
FUNC 3c4b2 11 0 RawMessage::messagenumber
FUNC 3c4c4 17 0 RawMessage::set_messagenumber
FUNC 3c4dc 1e 0 AlarmMessage::type
FUNC 3c4fa 26 0 AlarmMessage::mutable_type
FUNC 3c520 1e 0 AlarmMessage::ethname
FUNC 3c53e 26 0 AlarmMessage::mutable_ethname
FUNC 3c564 1e 0 AlarmMessage::mac
FUNC 3c582 26 0 AlarmMessage::mutable_mac
FUNC 3c5a8 1e 0 AlarmMessage::ip
FUNC 3c5c6 26 0 AlarmMessage::mutable_ip
FUNC 3c5ec 11 0 AlarmMessage::time
FUNC 3c5fe 17 0 AlarmMessage::set_time
FUNC 3c616 11 0 AlarmMessage::port
FUNC 3c628 17 0 AlarmMessage::set_port
FUNC 3c640 11 0 AlarmMessage::alarmid
FUNC 3c652 17 0 AlarmMessage::set_alarmid
FUNC 3c66a 11 0 AlarmMessage::alarmstatus
FUNC 3c67c 17 0 AlarmMessage::set_alarmstatus
FUNC 3c694 1e 0 DebugRequest::address
FUNC 3c6b2 26 0 DebugRequest::mutable_address
FUNC 3c6d8 11 0 DebugRequest::time
FUNC 3c6ea 17 0 DebugRequest::set_time
FUNC 3c702 11 0 DebugRequest::quality
FUNC 3c714 17 0 DebugRequest::set_quality
FUNC 3c72c 1e 0 SOEMessage::address
FUNC 3c74a 26 0 SOEMessage::mutable_address
FUNC 3c770 11 0 SOEMessage::time
FUNC 3c782 17 0 SOEMessage::set_time
FUNC 3c79a 11 0 SOEMessage::quality
FUNC 3c7ac 17 0 SOEMessage::set_quality
FUNC 3c7c4 1e 0 ControlRequet::address
FUNC 3c7e2 26 0 ControlRequet::mutable_address
FUNC 3c808 1e 0 ControlRequet::errorinfo
FUNC 3c826 26 0 ControlRequet::mutable_errorinfo
FUNC 3c84c 12 0 ControlRequet::status
FUNC 3c85e 1a 0 ControlRequet::set_status
FUNC 3c878 1e 0 LogRequest::channelname
FUNC 3c896 26 0 LogRequest::mutable_channelname
FUNC 3c8bc 11 0 LogRequest::command
FUNC 3c8ce 17 0 LogRequest::set_command
FUNC 3c8e6 11 0 RealLogResponse::type
FUNC 3c8f8 17 0 RealLogResponse::set_type
FUNC 3c910 11 0 RealLogResponse::level
FUNC 3c922 17 0 RealLogResponse::set_level
FUNC 3c93a 1e 0 RealLogResponse::channelname
FUNC 3c958 26 0 RealLogResponse::mutable_channelname
FUNC 3c97e 1e 0 RealLogResponse::devname
FUNC 3c99c 26 0 RealLogResponse::mutable_devname
FUNC 3c9c2 12 0 RealLogResponse::logtime
FUNC 3c9d4 1a 0 RealLogResponse::set_logtime
FUNC 3c9ee 1e 0 RealLogResponse::logdetail
FUNC 3ca0c 26 0 RealLogResponse::mutable_logdetail
FUNC 3ca32 11 0 LogQuery::level
FUNC 3ca44 17 0 LogQuery::set_level
FUNC 3ca5c 11 0 LogQuery::type
FUNC 3ca6e 17 0 LogQuery::set_type
FUNC 3ca86 12 0 LogQuery::starttime
FUNC 3ca98 1a 0 LogQuery::set_starttime
FUNC 3cab2 12 0 LogQuery::endtime
FUNC 3cac4 1a 0 LogQuery::set_endtime
FUNC 3cade 1e 0 LogQuery::channelname
FUNC 3cafc 26 0 LogQuery::mutable_channelname
FUNC 3cb22 1e 0 LogQuery::devname
FUNC 3cb40 26 0 LogQuery::mutable_devname
FUNC 3cb66 11 0 LogQuery::stopquery
FUNC 3cb78 17 0 LogQuery::set_stopquery
FUNC 3cb90 11 0 HisLogResponse::type
FUNC 3cba2 17 0 HisLogResponse::set_type
FUNC 3cbba 11 0 HisLogResponse::level
FUNC 3cbcc 17 0 HisLogResponse::set_level
FUNC 3cbe4 1e 0 HisLogResponse::channelname
FUNC 3cc02 26 0 HisLogResponse::mutable_channelname
FUNC 3cc28 1e 0 HisLogResponse::devname
FUNC 3cc46 26 0 HisLogResponse::mutable_devname
FUNC 3cc6c 12 0 HisLogResponse::logtime
FUNC 3cc7e 1a 0 HisLogResponse::set_logtime
FUNC 3cc98 1e 0 HisLogResponse::logdetail
FUNC 3ccb6 26 0 HisLogResponse::mutable_logdetail
FUNC 3ccdc 11 0 HisLogResponse::isend
FUNC 3ccee 17 0 HisLogResponse::set_isend
FUNC 3cd06 1e 0 NetcardInfoRequest::value
FUNC 3cd24 26 0 NetcardInfoRequest::mutable_value
FUNC 3cd4a 1e 0 NetcardInfo::name
FUNC 3cd68 26 0 NetcardInfo::mutable_name
FUNC 3cd8e 1e 0 NetcardInfo::ip
FUNC 3cdac 26 0 NetcardInfo::mutable_ip
FUNC 3cdd2 1e 0 NetcardInfo::mac
FUNC 3cdf0 26 0 NetcardInfo::mutable_mac
FUNC 3ce16 1e 0 NetcardInfo::networktype
FUNC 3ce34 26 0 NetcardInfo::mutable_networktype
FUNC 3ce5a 1e 0 NetcardInfoResponse::netcardinfo_size
FUNC 3ce78 26 0 NetcardInfoResponse::netcardinfo
FUNC 3ce9e 1e 0 NetcardInfoResponse::add_netcardinfo
FUNC 3cebc 1e 0 ProcessData::process_id
FUNC 3ceda 26 0 ProcessData::mutable_process_id
FUNC 3cf00 1e 0 ProcessData::process_path
FUNC 3cf1e 26 0 ProcessData::mutable_process_path
FUNC 3cf44 1e 0 ProcessData::process_name
FUNC 3cf62 26 0 ProcessData::mutable_process_name
FUNC 3cf88 11 0 ProcessData::start_time
FUNC 3cf9a 17 0 ProcessData::set_start_time
FUNC 3cfb2 11 0 ProcessData::process_pid
FUNC 3cfc4 17 0 ProcessData::set_process_pid
FUNC 3cfdc 11 0 ProcessData::process_status
FUNC 3cfee 17 0 ProcessData::set_process_status
FUNC 3d006 11 0 ProcessData::heart_beat_time
FUNC 3d018 17 0 ProcessData::set_heart_beat_time
FUNC 3d030 19 0 ProcessData::cpu_use
FUNC 3d04a 19 0 ProcessData::set_cpu_use
FUNC 3d064 19 0 ProcessData::ram_use
FUNC 3d07e 19 0 ProcessData::set_ram_use
FUNC 3d098 11 0 ProcessData::restart_num
FUNC 3d0aa 17 0 ProcessData::set_restart_num
FUNC 3d0c2 1e 0 ProcessCtrl::process_id
FUNC 3d0e0 26 0 ProcessCtrl::mutable_process_id
FUNC 3d106 11 0 ProcessCtrl::command
FUNC 3d118 17 0 ProcessCtrl::set_command
FUNC 3d130 1e 0 RealPointValue::channelname
FUNC 3d14e 26 0 RealPointValue::mutable_channelname
FUNC 3d174 1e 0 RealPointValue::devicename
FUNC 3d192 26 0 RealPointValue::mutable_devicename
FUNC 3d1b8 1e 0 RealPointValue::pointvalue
FUNC 3d1d6 26 0 RealPointValue::mutable_pointvalue
FUNC 3d1fc 1e 0 RealPointValue::pointaddr
FUNC 3d21a 26 0 RealPointValue::mutable_pointaddr
FUNC 3d240 11 0 RealPointValue::valuetype
FUNC 3d252 17 0 RealPointValue::set_valuetype
FUNC 3d26a 11 0 RealPointValue::channeltype
FUNC 3d27c 17 0 RealPointValue::set_channeltype
FUNC 3d294 1e 0 HeartBeatMessage::channelname
FUNC 3d2b2 26 0 HeartBeatMessage::mutable_channelname
FUNC 3d2d8 11 0 HeartBeatMessage::time
FUNC 3d2ea 17 0 HeartBeatMessage::set_time
FUNC 3d302 1e 0 CommunicationPair::type
FUNC 3d320 26 0 CommunicationPair::mutable_type
FUNC 3d346 1e 0 CommunicationPair::source_ip
FUNC 3d364 26 0 CommunicationPair::mutable_source_ip
FUNC 3d38a 1e 0 CommunicationPair::source_mac
FUNC 3d3a8 26 0 CommunicationPair::mutable_source_mac
FUNC 3d3ce 11 0 CommunicationPair::soure_port
FUNC 3d3e0 17 0 CommunicationPair::set_soure_port
FUNC 3d3f8 1e 0 CommunicationPair::dest_ip
FUNC 3d416 26 0 CommunicationPair::mutable_dest_ip
FUNC 3d43c 1e 0 CommunicationPair::dest_mac
FUNC 3d45a 26 0 CommunicationPair::mutable_dest_mac
FUNC 3d480 11 0 CommunicationPair::dest_port
FUNC 3d492 17 0 CommunicationPair::set_dest_port
FUNC 3d4aa 11 0 CommunicationPair::netstatus
FUNC 3d4bc 17 0 CommunicationPair::set_netstatus
FUNC 3d4d4 1e 0 CommunicationPair::lasttime
FUNC 3d4f2 26 0 CommunicationPair::mutable_lasttime
FUNC 3d518 1e 0 CommunicationPair::eth_name
FUNC 3d536 26 0 CommunicationPair::mutable_eth_name
FUNC 3d55c 1e 0 CommunicationPair::conn_start_time
FUNC 3d57a 26 0 CommunicationPair::mutable_conn_start_time
FUNC 3d5a0 1e 0 CommunicationPair::conn_end_time
FUNC 3d5be 26 0 CommunicationPair::mutable_conn_end_time
FUNC 3d5e4 1e 0 CommunicationPair::packagename
FUNC 3d602 26 0 CommunicationPair::mutable_packagename
FUNC 3d628 1e 0 CommunicationPair::packageline
FUNC 3d646 26 0 CommunicationPair::mutable_packageline
FUNC 3d66c 1e 0 FlowThreshold::messagecount
FUNC 3d68a 26 0 FlowThreshold::mutable_messagecount
FUNC 3d6b0 1e 0 FlowThreshold::flowmax
FUNC 3d6ce 26 0 FlowThreshold::mutable_flowmax
FUNC 3d6f4 1e 0 FlowThreshold::noflowtime
FUNC 3d712 26 0 FlowThreshold::mutable_noflowtime
FUNC 3d738 1e 0 FlowThreshold::linkmax
FUNC 3d756 26 0 FlowThreshold::mutable_linkmax
FUNC 3d77c 11 0 RtdbMessage::fromobject
FUNC 3d78e 17 0 RtdbMessage::set_fromobject
FUNC 3d7a6 11 0 RtdbMessage::toobject
FUNC 3d7b8 17 0 RtdbMessage::set_toobject
FUNC 3d7d0 14 0 RtdbMessage::fromobjecttype
FUNC 3d7e4 1a 0 RtdbMessage::set_fromobjecttype
FUNC 3d7fe 14 0 RtdbMessage::toobjecttype
FUNC 3d812 1a 0 RtdbMessage::set_toobjecttype
FUNC 3d82c 14 0 RtdbMessage::messagetype
FUNC 3d840 1a 0 RtdbMessage::set_messagetype
FUNC 3d85a 14 0 RtdbMessage::transactionid
FUNC 3d86e 1a 0 RtdbMessage::set_transactionid
FUNC 3d888 32 0 RtdbMessage::has_logrequest
FUNC 3d8ba 2a 0 RtdbMessage::logrequest
FUNC 3d8e4 72 0 RtdbMessage::mutable_logrequest
FUNC 3d956 32 0 RtdbMessage::has_reallogresponse
FUNC 3d988 2a 0 RtdbMessage::reallogresponse
FUNC 3d9b2 72 0 RtdbMessage::mutable_reallogresponse
FUNC 3da24 32 0 RtdbMessage::has_hislogquery
FUNC 3da56 2a 0 RtdbMessage::hislogquery
FUNC 3da80 72 0 RtdbMessage::mutable_hislogquery
FUNC 3daf2 32 0 RtdbMessage::has_hislogresponse
FUNC 3db24 2a 0 RtdbMessage::hislogresponse
FUNC 3db4e 72 0 RtdbMessage::mutable_hislogresponse
FUNC 3dbc0 32 0 RtdbMessage::has_netcardinforequest
FUNC 3dbf2 2a 0 RtdbMessage::netcardinforequest
FUNC 3dc1c 72 0 RtdbMessage::mutable_netcardinforequest
FUNC 3dc8e 32 0 RtdbMessage::has_netcardinforesponse
FUNC 3dcc0 2a 0 RtdbMessage::netcardinforesponse
FUNC 3dcea 72 0 RtdbMessage::mutable_netcardinforesponse
FUNC 3dd5c 32 0 RtdbMessage::has_processdata
FUNC 3dd8e 2a 0 RtdbMessage::processdata
FUNC 3ddb8 72 0 RtdbMessage::mutable_processdata
FUNC 3de2a 32 0 RtdbMessage::has_processctrl
FUNC 3de5c 2a 0 RtdbMessage::processctrl
FUNC 3de86 72 0 RtdbMessage::mutable_processctrl
FUNC 3def8 32 0 RtdbMessage::has_realpointvalue
FUNC 3df2a 2a 0 RtdbMessage::realpointvalue
FUNC 3df54 72 0 RtdbMessage::mutable_realpointvalue
FUNC 3dfc6 32 0 RtdbMessage::has_heartbeatmessage
FUNC 3dff8 2a 0 RtdbMessage::heartbeatmessage
FUNC 3e022 72 0 RtdbMessage::mutable_heartbeatmessage
FUNC 3e094 32 0 RtdbMessage::has_alarmmessage
FUNC 3e0c6 2a 0 RtdbMessage::alarmmessage
FUNC 3e0f0 72 0 RtdbMessage::mutable_alarmmessage
FUNC 3e162 32 0 RtdbMessage::has_communicationpair
FUNC 3e194 2a 0 RtdbMessage::communicationpair
FUNC 3e1be 72 0 RtdbMessage::mutable_communicationpair
FUNC 3e230 32 0 RtdbMessage::has_flowthreshold
FUNC 3e262 2a 0 RtdbMessage::flowthreshold
FUNC 3e28c 72 0 RtdbMessage::mutable_flowthreshold
FUNC 3e2fe f 0 google::protobuf::internal::WireFormatLite::GetTagWireType
FUNC 3e30e f 0 google::protobuf::internal::WireFormatLite::GetTagFieldNumber
FUNC 3e31e 1a 0 google::protobuf::internal::WireFormatLite::DecodeFloat
FUNC 3e338 25 0 google::protobuf::internal::WireFormatLite::ReadString
FUNC 3e35e 43 0 google::protobuf::internal::WireFormatLite::ReadPrimitive<int, (google::protobuf::internal::WireFormatLite::FieldType)5u>
FUNC 3e3a2 25 0 google::protobuf::internal::WireFormatLite::ReadPrimitive<long unsigned int, (google::protobuf::internal::WireFormatLite::FieldType)4u>
FUNC 3e3c8 4a 0 google::protobuf::internal::WireFormatLite::ReadPrimitive<float, (google::protobuf::internal::WireFormatLite::FieldType)2u>
FUNC 3e412 48 0 google::protobuf::internal::WireFormatLite::ReadPrimitive<bool, (google::protobuf::internal::WireFormatLite::FieldType)8u>
FUNC 3e45a 43 0 google::protobuf::internal::WireFormatLite::ReadPrimitive<int, (google::protobuf::internal::WireFormatLite::FieldType)14u>
FUNC 3e49e 17 0 google::protobuf::internal::WireFormatLite::Int32Size
FUNC 3e4b6 1a 0 google::protobuf::internal::WireFormatLite::UInt64Size
FUNC 3e4d0 17 0 google::protobuf::internal::WireFormatLite::EnumSize
FUNC 3e4e8 22 0 google::protobuf::internal::WireFormatLite::StringSize
FUNC 3e50a 1d 0 google::protobuf::internal::WireFormatLite::LengthDelimitedSize
FUNC 3e528 1a 0 google::protobuf::internal::InternalMetadataWithArenaLite::~InternalMetadataWithArenaLite
FUNC 3e542 32 0 std::swap<std::string*>
FUNC 3e574 e 0 google::protobuf::internal::ExplicitlyConstructed<std::basic_string<char, std::char_traits<char>, std::allocator<char> > >::get
FUNC 3e582 1a 0 google::protobuf::internal::InternalMetadataWithArenaBase<std::basic_string<char, std::char_traits<char>, std::allocator<char> >, google::protobuf::internal::InternalMetadataWithArenaLite>::Container::~Container
FUNC 3e59c cf 0 google::protobuf::internal::InternalMetadataWithArenaBase<std::basic_string<char, std::char_traits<char>, std::allocator<char> >, google::protobuf::internal::InternalMetadataWithArenaLite>::~InternalMetadataWithArenaBase
FUNC 3e66c 19 0 google::protobuf::internal::InternalMetadataWithArenaBase<std::basic_string<char, std::char_traits<char>, std::allocator<char> >, google::protobuf::internal::InternalMetadataWithArenaLite>::InternalMetadataWithArenaBase
FUNC 3e685 32 0 std::swap<google::protobuf::internal::RepeatedPtrFieldBase::Rep*>
FUNC 3e6b7 2c 0 std::swap<int>
FUNC 3e6e4 1a 0 google::protobuf::RepeatedPtrField<NetcardInfo>::size
FUNC 3e6fe 1a 0 google::protobuf::RepeatedPtrField<NetcardInfo>::Clear
FUNC 3e718 22 0 google::protobuf::RepeatedPtrField<NetcardInfo>::Get
FUNC 3e73a 1f 0 google::protobuf::RepeatedPtrField<NetcardInfo>::Add
FUNC 3e75a 39 0 google::protobuf::internal::ExplicitlyConstructed<RawMessage>::Shutdown
FUNC 3e794 39 0 google::protobuf::internal::ExplicitlyConstructed<AlarmMessage>::Shutdown
FUNC 3e7ce 39 0 google::protobuf::internal::ExplicitlyConstructed<DebugRequest>::Shutdown
FUNC 3e808 39 0 google::protobuf::internal::ExplicitlyConstructed<SOEMessage>::Shutdown
FUNC 3e842 39 0 google::protobuf::internal::ExplicitlyConstructed<ControlRequet>::Shutdown
FUNC 3e87c 39 0 google::protobuf::internal::ExplicitlyConstructed<LogRequest>::Shutdown
FUNC 3e8b6 39 0 google::protobuf::internal::ExplicitlyConstructed<RealLogResponse>::Shutdown
FUNC 3e8f0 39 0 google::protobuf::internal::ExplicitlyConstructed<LogQuery>::Shutdown
FUNC 3e92a 39 0 google::protobuf::internal::ExplicitlyConstructed<HisLogResponse>::Shutdown
FUNC 3e964 39 0 google::protobuf::internal::ExplicitlyConstructed<NetcardInfoRequest>::Shutdown
FUNC 3e99e 39 0 google::protobuf::internal::ExplicitlyConstructed<NetcardInfo>::Shutdown
FUNC 3e9d8 39 0 google::protobuf::internal::ExplicitlyConstructed<NetcardInfoResponse>::Shutdown
FUNC 3ea12 39 0 google::protobuf::internal::ExplicitlyConstructed<ProcessData>::Shutdown
FUNC 3ea4c 39 0 google::protobuf::internal::ExplicitlyConstructed<ProcessCtrl>::Shutdown
FUNC 3ea86 39 0 google::protobuf::internal::ExplicitlyConstructed<RealPointValue>::Shutdown
FUNC 3eac0 39 0 google::protobuf::internal::ExplicitlyConstructed<HeartBeatMessage>::Shutdown
FUNC 3eafa 39 0 google::protobuf::internal::ExplicitlyConstructed<CommunicationPair>::Shutdown
FUNC 3eb34 39 0 google::protobuf::internal::ExplicitlyConstructed<FlowThreshold>::Shutdown
FUNC 3eb6e 3f 0 google::protobuf::internal::ExplicitlyConstructed<RtdbMessage>::Shutdown
FUNC 3ebae 70 0 google::protobuf::internal::ExplicitlyConstructed<RawMessage>::DefaultConstruct
FUNC 3ec1e 70 0 google::protobuf::internal::ExplicitlyConstructed<AlarmMessage>::DefaultConstruct
FUNC 3ec8e 70 0 google::protobuf::internal::ExplicitlyConstructed<DebugRequest>::DefaultConstruct
FUNC 3ecfe 70 0 google::protobuf::internal::ExplicitlyConstructed<SOEMessage>::DefaultConstruct
FUNC 3ed6e 70 0 google::protobuf::internal::ExplicitlyConstructed<ControlRequet>::DefaultConstruct
FUNC 3edde 70 0 google::protobuf::internal::ExplicitlyConstructed<LogRequest>::DefaultConstruct
FUNC 3ee4e 70 0 google::protobuf::internal::ExplicitlyConstructed<RealLogResponse>::DefaultConstruct
FUNC 3eebe 70 0 google::protobuf::internal::ExplicitlyConstructed<LogQuery>::DefaultConstruct
FUNC 3ef2e 70 0 google::protobuf::internal::ExplicitlyConstructed<HisLogResponse>::DefaultConstruct
FUNC 3ef9e 70 0 google::protobuf::internal::ExplicitlyConstructed<NetcardInfoRequest>::DefaultConstruct
FUNC 3f00e 70 0 google::protobuf::internal::ExplicitlyConstructed<NetcardInfo>::DefaultConstruct
FUNC 3f07e 70 0 google::protobuf::internal::ExplicitlyConstructed<NetcardInfoResponse>::DefaultConstruct
FUNC 3f0ee 70 0 google::protobuf::internal::ExplicitlyConstructed<ProcessData>::DefaultConstruct
FUNC 3f15e 70 0 google::protobuf::internal::ExplicitlyConstructed<ProcessCtrl>::DefaultConstruct
FUNC 3f1ce 70 0 google::protobuf::internal::ExplicitlyConstructed<RealPointValue>::DefaultConstruct
FUNC 3f23e 70 0 google::protobuf::internal::ExplicitlyConstructed<HeartBeatMessage>::DefaultConstruct
FUNC 3f2ae 70 0 google::protobuf::internal::ExplicitlyConstructed<CommunicationPair>::DefaultConstruct
FUNC 3f31e 70 0 google::protobuf::internal::ExplicitlyConstructed<FlowThreshold>::DefaultConstruct
FUNC 3f38e 73 0 google::protobuf::internal::ExplicitlyConstructed<RtdbMessage>::DefaultConstruct
FUNC 3f402 e 0 google::protobuf::internal::ExplicitlyConstructed<RtdbMessage>::get_mutable
FUNC 3f410 43 0 google::protobuf::Arena::Own<RawMessage>
FUNC 3f453 6a 0 google::protobuf::internal::down_cast<const RawMessage*, const google::protobuf::MessageLite>
FUNC 3f4be 43 0 google::protobuf::Arena::Own<AlarmMessage>
FUNC 3f501 6a 0 google::protobuf::internal::down_cast<const AlarmMessage*, const google::protobuf::MessageLite>
FUNC 3f56c 43 0 google::protobuf::Arena::Own<DebugRequest>
FUNC 3f5af 6a 0 google::protobuf::internal::down_cast<const DebugRequest*, const google::protobuf::MessageLite>
FUNC 3f61a 43 0 google::protobuf::Arena::Own<SOEMessage>
FUNC 3f65d 6a 0 google::protobuf::internal::down_cast<const SOEMessage*, const google::protobuf::MessageLite>
FUNC 3f6c8 43 0 google::protobuf::Arena::Own<ControlRequet>
FUNC 3f70b 6a 0 google::protobuf::internal::down_cast<const ControlRequet*, const google::protobuf::MessageLite>
FUNC 3f775 2f 0 std::swap<bool>
FUNC 3f7a4 43 0 google::protobuf::Arena::Own<LogRequest>
FUNC 3f7e7 6a 0 google::protobuf::internal::down_cast<const LogRequest*, const google::protobuf::MessageLite>
FUNC 3f852 43 0 google::protobuf::Arena::Own<RealLogResponse>
FUNC 3f895 6a 0 google::protobuf::internal::down_cast<const RealLogResponse*, const google::protobuf::MessageLite>
FUNC 3f8ff 32 0 std::swap<google::protobuf::uint64>
FUNC 3f932 43 0 google::protobuf::Arena::Own<LogQuery>
FUNC 3f975 6a 0 google::protobuf::internal::down_cast<const LogQuery*, const google::protobuf::MessageLite>
FUNC 3f9e0 43 0 google::protobuf::Arena::Own<HisLogResponse>
FUNC 3fa23 6a 0 google::protobuf::internal::down_cast<const HisLogResponse*, const google::protobuf::MessageLite>
FUNC 3fa8e 43 0 google::protobuf::Arena::Own<NetcardInfoRequest>
FUNC 3fad1 6a 0 google::protobuf::internal::down_cast<const NetcardInfoRequest*, const google::protobuf::MessageLite>
FUNC 3fb3c 43 0 google::protobuf::Arena::Own<NetcardInfo>
FUNC 3fb7f 6a 0 google::protobuf::internal::down_cast<const NetcardInfo*, const google::protobuf::MessageLite>
FUNC 3fbea 1a 0 google::protobuf::RepeatedPtrField<NetcardInfo>::RepeatedPtrField
FUNC 3fc04 51 0 google::protobuf::RepeatedPtrField<NetcardInfo>::~RepeatedPtrField
FUNC 3fc56 5c 0 google::protobuf::RepeatedPtrField<NetcardInfo>::RepeatedPtrField
FUNC 3fcb2 43 0 google::protobuf::Arena::Own<NetcardInfoResponse>
FUNC 3fcf6 91 0 google::protobuf::internal::WireFormatLite::ReadMessageNoVirtual<NetcardInfo>
FUNC 3fd88 22 0 google::protobuf::internal::WireFormatLite::MessageSizeNoVirtual<NetcardInfo>
FUNC 3fdaa 6a 0 google::protobuf::internal::down_cast<const NetcardInfoResponse*, const google::protobuf::MessageLite>
FUNC 3fe14 25 0 google::protobuf::RepeatedPtrField<NetcardInfo>::MergeFrom
FUNC 3fe3a 43 0 google::protobuf::Arena::Own<ProcessData>
FUNC 3fe7d 6a 0 google::protobuf::internal::down_cast<const ProcessData*, const google::protobuf::MessageLite>
FUNC 3fee7 2c 0 std::swap<float>
FUNC 3ff14 43 0 google::protobuf::Arena::Own<ProcessCtrl>
FUNC 3ff57 6a 0 google::protobuf::internal::down_cast<const ProcessCtrl*, const google::protobuf::MessageLite>
FUNC 3ffc2 43 0 google::protobuf::Arena::Own<RealPointValue>
FUNC 40005 6a 0 google::protobuf::internal::down_cast<const RealPointValue*, const google::protobuf::MessageLite>
FUNC 40070 43 0 google::protobuf::Arena::Own<HeartBeatMessage>
FUNC 400b3 6a 0 google::protobuf::internal::down_cast<const HeartBeatMessage*, const google::protobuf::MessageLite>
FUNC 4011e 43 0 google::protobuf::Arena::Own<CommunicationPair>
FUNC 40161 6a 0 google::protobuf::internal::down_cast<const CommunicationPair*, const google::protobuf::MessageLite>
FUNC 401cc 43 0 google::protobuf::Arena::Own<FlowThreshold>
FUNC 4020f 6a 0 google::protobuf::internal::down_cast<const FlowThreshold*, const google::protobuf::MessageLite>
FUNC 4027a 43 0 google::protobuf::Arena::Own<RtdbMessage>
FUNC 402be 91 0 google::protobuf::internal::WireFormatLite::ReadMessageNoVirtual<LogRequest>
FUNC 40350 91 0 google::protobuf::internal::WireFormatLite::ReadMessageNoVirtual<RealLogResponse>
FUNC 403e2 91 0 google::protobuf::internal::WireFormatLite::ReadMessageNoVirtual<LogQuery>
FUNC 40474 91 0 google::protobuf::internal::WireFormatLite::ReadMessageNoVirtual<HisLogResponse>
FUNC 40506 91 0 google::protobuf::internal::WireFormatLite::ReadMessageNoVirtual<NetcardInfoRequest>
FUNC 40598 91 0 google::protobuf::internal::WireFormatLite::ReadMessageNoVirtual<NetcardInfoResponse>
FUNC 4062a 91 0 google::protobuf::internal::WireFormatLite::ReadMessageNoVirtual<ProcessData>
FUNC 406bc 91 0 google::protobuf::internal::WireFormatLite::ReadMessageNoVirtual<ProcessCtrl>
FUNC 4074e 91 0 google::protobuf::internal::WireFormatLite::ReadMessageNoVirtual<RealPointValue>
FUNC 407e0 91 0 google::protobuf::internal::WireFormatLite::ReadMessageNoVirtual<HeartBeatMessage>
FUNC 40872 91 0 google::protobuf::internal::WireFormatLite::ReadMessageNoVirtual<AlarmMessage>
FUNC 40904 91 0 google::protobuf::internal::WireFormatLite::ReadMessageNoVirtual<CommunicationPair>
FUNC 40996 91 0 google::protobuf::internal::WireFormatLite::ReadMessageNoVirtual<FlowThreshold>
FUNC 40a28 22 0 google::protobuf::internal::WireFormatLite::MessageSizeNoVirtual<LogRequest>
FUNC 40a4a 22 0 google::protobuf::internal::WireFormatLite::MessageSizeNoVirtual<RealLogResponse>
FUNC 40a6c 22 0 google::protobuf::internal::WireFormatLite::MessageSizeNoVirtual<LogQuery>
FUNC 40a8e 22 0 google::protobuf::internal::WireFormatLite::MessageSizeNoVirtual<HisLogResponse>
FUNC 40ab0 22 0 google::protobuf::internal::WireFormatLite::MessageSizeNoVirtual<NetcardInfoRequest>
FUNC 40ad2 22 0 google::protobuf::internal::WireFormatLite::MessageSizeNoVirtual<NetcardInfoResponse>
FUNC 40af4 22 0 google::protobuf::internal::WireFormatLite::MessageSizeNoVirtual<ProcessData>
FUNC 40b16 22 0 google::protobuf::internal::WireFormatLite::MessageSizeNoVirtual<ProcessCtrl>
FUNC 40b38 22 0 google::protobuf::internal::WireFormatLite::MessageSizeNoVirtual<RealPointValue>
FUNC 40b5a 22 0 google::protobuf::internal::WireFormatLite::MessageSizeNoVirtual<HeartBeatMessage>
FUNC 40b7c 22 0 google::protobuf::internal::WireFormatLite::MessageSizeNoVirtual<AlarmMessage>
FUNC 40b9e 22 0 google::protobuf::internal::WireFormatLite::MessageSizeNoVirtual<CommunicationPair>
FUNC 40bc0 22 0 google::protobuf::internal::WireFormatLite::MessageSizeNoVirtual<FlowThreshold>
FUNC 40be2 6a 0 google::protobuf::internal::down_cast<const RtdbMessage*, const google::protobuf::MessageLite>
FUNC 40c4c 32 0 std::swap<LogRequest*>
FUNC 40c7e 32 0 std::swap<RealLogResponse*>
FUNC 40cb0 32 0 std::swap<LogQuery*>
FUNC 40ce2 32 0 std::swap<HisLogResponse*>
FUNC 40d14 32 0 std::swap<NetcardInfoRequest*>
FUNC 40d46 32 0 std::swap<NetcardInfoResponse*>
FUNC 40d78 32 0 std::swap<ProcessData*>
FUNC 40daa 32 0 std::swap<ProcessCtrl*>
FUNC 40ddc 32 0 std::swap<RealPointValue*>
FUNC 40e0e 32 0 std::swap<HeartBeatMessage*>
FUNC 40e40 32 0 std::swap<AlarmMessage*>
FUNC 40e72 32 0 std::swap<CommunicationPair*>
FUNC 40ea4 32 0 std::swap<FlowThreshold*>
FUNC 40ed6 2d 0 std::make_pair<unsigned int, bool>
FUNC 40f04 15 0 google::protobuf::internal::InternalMetadataWithArenaBase<std::basic_string<char, std::char_traits<char>, std::allocator<char> >, google::protobuf::internal::InternalMetadataWithArenaLite>::PtrValue<google::protobuf::internal::InternalMetadataWithArenaBase<std::basic_string<char, std::char_traits<char>, std::allocator<char> >, google::protobuf::internal::InternalMetadataWithArenaLite>::Container>
FUNC 40f1a 1ae 0 google::protobuf::internal::InternalMetadataWithArenaBase<std::basic_string<char, std::char_traits<char>, std::allocator<char> >, google::protobuf::internal::InternalMetadataWithArenaLite>::mutable_unknown_fields_slow
FUNC 410c8 107 0 google::protobuf::internal::RepeatedPtrFieldBase::Clear<google::protobuf::RepeatedPtrField<NetcardInfo>::TypeHandler>
FUNC 411d0 165 0 google::protobuf::internal::RepeatedPtrFieldBase::Get<google::protobuf::RepeatedPtrField<NetcardInfo>::TypeHandler>
FUNC 41336 f4 0 google::protobuf::internal::RepeatedPtrFieldBase::Add<google::protobuf::RepeatedPtrField<NetcardInfo>::TypeHandler>
FUNC 4142a e 0 google::protobuf::internal::ExplicitlyConstructed<RawMessage>::get_mutable
FUNC 41438 e 0 google::protobuf::internal::ExplicitlyConstructed<AlarmMessage>::get_mutable
FUNC 41446 e 0 google::protobuf::internal::ExplicitlyConstructed<DebugRequest>::get_mutable
FUNC 41454 e 0 google::protobuf::internal::ExplicitlyConstructed<SOEMessage>::get_mutable
FUNC 41462 e 0 google::protobuf::internal::ExplicitlyConstructed<ControlRequet>::get_mutable
FUNC 41470 e 0 google::protobuf::internal::ExplicitlyConstructed<LogRequest>::get_mutable
FUNC 4147e e 0 google::protobuf::internal::ExplicitlyConstructed<RealLogResponse>::get_mutable
FUNC 4148c e 0 google::protobuf::internal::ExplicitlyConstructed<LogQuery>::get_mutable
FUNC 4149a e 0 google::protobuf::internal::ExplicitlyConstructed<HisLogResponse>::get_mutable
FUNC 414a8 e 0 google::protobuf::internal::ExplicitlyConstructed<NetcardInfoRequest>::get_mutable
FUNC 414b6 e 0 google::protobuf::internal::ExplicitlyConstructed<NetcardInfo>::get_mutable
FUNC 414c4 e 0 google::protobuf::internal::ExplicitlyConstructed<NetcardInfoResponse>::get_mutable
FUNC 414d2 e 0 google::protobuf::internal::ExplicitlyConstructed<ProcessData>::get_mutable
FUNC 414e0 e 0 google::protobuf::internal::ExplicitlyConstructed<ProcessCtrl>::get_mutable
FUNC 414ee e 0 google::protobuf::internal::ExplicitlyConstructed<RealPointValue>::get_mutable
FUNC 414fc e 0 google::protobuf::internal::ExplicitlyConstructed<HeartBeatMessage>::get_mutable
FUNC 4150a e 0 google::protobuf::internal::ExplicitlyConstructed<CommunicationPair>::get_mutable
FUNC 41518 e 0 google::protobuf::internal::ExplicitlyConstructed<FlowThreshold>::get_mutable
FUNC 41526 9f 0 google::protobuf::internal::RepeatedPtrFieldBase::Destroy<google::protobuf::RepeatedPtrField<NetcardInfo>::TypeHandler>
FUNC 415c6 e8 0 google::protobuf::internal::RepeatedPtrFieldBase::MergeFrom<google::protobuf::RepeatedPtrField<NetcardInfo>::TypeHandler>
FUNC 416ae 2c 0 std::pair<unsigned int, bool>::pair
FUNC 416da 15 0 google::protobuf::internal::InternalMetadataWithArenaBase<std::basic_string<char, std::char_traits<char>, std::allocator<char> >, google::protobuf::internal::InternalMetadataWithArenaLite>::PtrValue<google::protobuf::Arena>
FUNC 416f0 1a 0 google::protobuf::internal::InternalMetadataWithArenaBase<std::basic_string<char, std::char_traits<char>, std::allocator<char> >, google::protobuf::internal::InternalMetadataWithArenaLite>::Container::Container
FUNC 4170a 25 0 google::protobuf::internal::GenericTypeHandler<NetcardInfo>::Clear
FUNC 4172f e 0 google::protobuf::internal::RepeatedPtrFieldBase::cast<google::protobuf::RepeatedPtrField<NetcardInfo>::TypeHandler>
FUNC 4173e 1e 0 google::protobuf::internal::GenericTypeHandler<NetcardInfo>::NewFromPrototype
FUNC 4175c 2e 0 google::protobuf::internal::arena_delete_object<RawMessage>
FUNC 4178a 2e 0 google::protobuf::internal::arena_delete_object<AlarmMessage>
FUNC 417b8 2e 0 google::protobuf::internal::arena_delete_object<DebugRequest>
FUNC 417e6 2e 0 google::protobuf::internal::arena_delete_object<SOEMessage>
FUNC 41814 2e 0 google::protobuf::internal::arena_delete_object<ControlRequet>
FUNC 41842 2e 0 google::protobuf::internal::arena_delete_object<LogRequest>
FUNC 41870 2e 0 google::protobuf::internal::arena_delete_object<RealLogResponse>
FUNC 4189e 2e 0 google::protobuf::internal::arena_delete_object<LogQuery>
FUNC 418cc 2e 0 google::protobuf::internal::arena_delete_object<HisLogResponse>
FUNC 418fa 2e 0 google::protobuf::internal::arena_delete_object<NetcardInfoRequest>
FUNC 41928 2e 0 google::protobuf::internal::arena_delete_object<NetcardInfo>
FUNC 41956 37 0 google::protobuf::internal::GenericTypeHandler<NetcardInfo>::Delete
FUNC 4198d 2e 0 google::protobuf::internal::arena_delete_object<NetcardInfoResponse>
FUNC 419bc 100 0 google::protobuf::internal::RepeatedPtrFieldBase::MergeFromInnerLoop<google::protobuf::RepeatedPtrField<NetcardInfo>::TypeHandler>
FUNC 41abc 2e 0 google::protobuf::internal::arena_delete_object<ProcessData>
FUNC 41aea 2e 0 google::protobuf::internal::arena_delete_object<ProcessCtrl>
FUNC 41b18 2e 0 google::protobuf::internal::arena_delete_object<RealPointValue>
FUNC 41b46 2e 0 google::protobuf::internal::arena_delete_object<HeartBeatMessage>
FUNC 41b74 2e 0 google::protobuf::internal::arena_delete_object<CommunicationPair>
FUNC 41ba2 2e 0 google::protobuf::internal::arena_delete_object<FlowThreshold>
FUNC 41bd0 2e 0 google::protobuf::internal::arena_delete_object<RtdbMessage>
FUNC 41bfe 11b 0 google::protobuf::internal::GenericTypeHandler<NetcardInfo>::New
FUNC 41d1a 25 0 google::protobuf::internal::GenericTypeHandler<NetcardInfo>::Merge
FUNC 41d3f 1a 0 google::protobuf::internal::arena_destruct_object<google::protobuf::internal::InternalMetadataWithArenaBase<std::basic_string<char, std::char_traits<char>, std::allocator<char> >, google::protobuf::internal::InternalMetadataWithArenaLite>::Container>
FUNC 41d59 21 0 google::protobuf::internal::arena_destruct_object<NetcardInfo>
FUNC 41d7c 2c 0 Serial485ClientService::Serial485ClientService
FUNC 41da8 41 0 Serial485ClientService::~Serial485ClientService
FUNC 41dea 26 0 Serial485ClientService::~Serial485ClientService
FUNC 41e10 141 0 Serial485ClientService::Start
FUNC 41f52 385 0 Serial485ClientService::Read
FUNC 422d7 1c4 0 __static_initialization_and_destruction_0
FUNC 4249b 15 0 _GLOBAL__I_Serial485ClientService.cpp
FUNC 424b0 109 0 SerialNet::SerialNet
FUNC 425ba e3 0 SerialNet::~SerialNet
FUNC 4269e 26 0 SerialNet::~SerialNet
FUNC 426c4 485 0 SerialNet::Connect
FUNC 42b4a af 0 SerialNet::GetFunction
FUNC 42bfa 312 0 SerialNet::Read
FUNC 42f0c b3 0 SerialNet::Write
FUNC 42fc0 2c 0 SerialNet::DisConnect
FUNC 42fec 2b2 0 SerialNet::SetSpeed
FUNC 4329e 35a 0 SerialNet::SetParity
FUNC 435f8 42 0 SerialNet::SumCheck
FUNC 4363a 112 0 SerialNet::ToHexString
FUNC 4374c 48 0 __static_initialization_and_destruction_0
FUNC 43794 15 0 _GLOBAL__I_SerialNet.cpp
FUNC 437ac cd 0 SerialService::SerialService
FUNC 4387a b1 0 SerialService::~SerialService
FUNC 4392c 26 0 SerialService::~SerialService
FUNC 43952 221 0 SerialService::Start
FUNC 43b74 67e 0 SerialService::Write
FUNC 441f2 57d 0 SerialService::Read
FUNC 44770 9c 0 SerialService::ParseRecvData
FUNC 4480c b0 0 SerialService::ParseFixedData
FUNC 448bc 213 0 SerialService::ParseVariableData
FUNC 44ad0 189 0 SerialService::InitConfig
FUNC 44c59 1c4 0 __static_initialization_and_destruction_0
FUNC 44e1d 15 0 _GLOBAL__I_SerialService.cpp
FUNC 44e32 33 0 Config::GetSerialPortPath
FUNC 44e66 11 0 Config::GetSpeed
FUNC 44e78 11 0 Config::GetDatabits
FUNC 44e8a 11 0 Config::GetStopbits
FUNC 44e9c 12 0 Config::GetParity
FUNC 44eae 12 0 Config::GetClientAddr
FUNC 44ec0 33 0 Config::GetIp
FUNC 44ef4 12 0 Config::GetTcpPort
FUNC 44f06 15 0 Config::GetOutTime
FUNC 44f1c 1a 0 std::vector<char, std::allocator<char> >::vector
FUNC 44f36 6e 0 std::vector<char, std::allocator<char> >::~vector
FUNC 44fa4 229 0 std::vector<char, std::allocator<char> >::operator=
FUNC 451ce 11 0 std::vector<char, std::allocator<char> >::data
FUNC 451e0 25 0 std::vector<char, std::allocator<char> >::size
FUNC 45206 1f 0 std::vector<short unsigned int, std::allocator<short unsigned int> >::operator[]
FUNC 45226 1a 0 std::_Vector_base<char, std::allocator<char> >::_Vector_impl::~_Vector_impl
FUNC 45240 1a 0 std::_Vector_base<char, std::allocator<char> >::_Vector_base
FUNC 4525a 79 0 std::_Vector_base<char, std::allocator<char> >::~_Vector_base
FUNC 452d4 e 0 std::_Vector_base<char, std::allocator<char> >::_M_get_Tp_allocator
FUNC 452e2 29 0 std::_Destroy<char*, char>
FUNC 4530c 25 0 std::vector<char, std::allocator<char> >::capacity
FUNC 45332 30 0 std::vector<char, std::allocator<char> >::begin
FUNC 45362 31 0 std::vector<char, std::allocator<char> >::end
FUNC 45394 a1 0 std::vector<char, std::allocator<char> >::_M_allocate_and_copy<__gnu_cxx::__normal_iterator<const char*, std::vector<char, std::allocator<char> > > >
FUNC 45436 34 0 std::_Vector_base<char, std::allocator<char> >::_M_deallocate
FUNC 4546a 25 0 std::vector<char, std::allocator<char> >::begin
FUNC 4548f 46 0 std::copy<__gnu_cxx::__normal_iterator<const char*, std::vector<char, std::allocator<char> > >, __gnu_cxx::__normal_iterator<char*, std::vector<char, std::allocator<char> > > >
FUNC 454d6 29 0 std::vector<char, std::allocator<char> >::end
FUNC 454ff 29 0 std::_Destroy<__gnu_cxx::__normal_iterator<char*, std::vector<char, std::allocator<char> > >, char>
FUNC 45528 46 0 std::copy<char*, char*>
FUNC 4556e 31 0 std::__uninitialized_copy_a<char*, char*, char>
FUNC 455a0 3d 0 std::_Vector_base<char, std::allocator<char> >::_Vector_impl::_Vector_impl
FUNC 455dd 25 0 std::_Destroy<char*>
FUNC 45602 1c 0 __gnu_cxx::__normal_iterator<const char*, std::vector<char, std::allocator<char> > >::__normal_iterator
FUNC 4561e 38 0 std::_Vector_base<char, std::allocator<char> >::_M_allocate
FUNC 45656 31 0 std::__uninitialized_copy_a<__gnu_cxx::__normal_iterator<const char*, std::vector<char, std::allocator<char> > >, char*, char>
FUNC 45688 22 0 __gnu_cxx::new_allocator<char>::deallocate
FUNC 456aa 1c 0 __gnu_cxx::__normal_iterator<char*, std::vector<char, std::allocator<char> > >::__normal_iterator
FUNC 456c6 e 0 std::__miter_base<__gnu_cxx::__normal_iterator<const char*, std::vector<char, std::allocator<char> > >, false>::__b
FUNC 456d4 73 0 std::__copy_move_a2<false, __gnu_cxx::__normal_iterator<const char*, std::vector<char, std::allocator<char> > >, __gnu_cxx::__normal_iterator<char*, std::vector<char, std::allocator<char> > > >
FUNC 45747 25 0 std::_Destroy<__gnu_cxx::__normal_iterator<char*, std::vector<char, std::allocator<char> > > >
FUNC 4576c e 0 std::__miter_base<char*, false>::__b
FUNC 4577a 58 0 std::__copy_move_a2<false, char*, char*>
FUNC 457d2 2d 0 std::uninitialized_copy<char*, char*>
FUNC 457ff e 0 std::_Destroy_aux<true>::__destroy<char*>
FUNC 4580e 47 0 __gnu_cxx::new_allocator<char>::allocate
FUNC 45855 2d 0 std::uninitialized_copy<__gnu_cxx::__normal_iterator<const char*, std::vector<char, std::allocator<char> > >, char*>
FUNC 45882 1d 0 std::__niter_base<__gnu_cxx::__normal_iterator<const char*, std::vector<char, std::allocator<char> > >, true>::__b
FUNC 4589f 1d 0 std::__niter_base<__gnu_cxx::__normal_iterator<char*, std::vector<char, std::allocator<char> > >, true>::__b
FUNC 458bc 31 0 std::__copy_move_a<false, const char*, char*>
FUNC 458ed e 0 std::_Destroy_aux<true>::__destroy<__gnu_cxx::__normal_iterator<char*, std::vector<char, std::allocator<char> > > >
FUNC 458fb e 0 std::__niter_base<char*, false>::__b
FUNC 45909 31 0 std::__copy_move_a<false, char*, char*>
FUNC 4593a 2d 0 std::__uninitialized_copy<true>::uninitialized_copy<char*, char*>
FUNC 45968 11 0 __gnu_cxx::new_allocator<char>::max_size
FUNC 45979 2d 0 std::__uninitialized_copy<true>::uninitialized_copy<__gnu_cxx::__normal_iterator<const char*, std::vector<char, std::allocator<char> > >, char*>
FUNC 459a6 e 0 __gnu_cxx::__normal_iterator<const char*, std::vector<char, std::allocator<char> > >::base
FUNC 459b4 e 0 __gnu_cxx::__normal_iterator<char*, std::vector<char, std::allocator<char> > >::base
FUNC 459c2 52 0 std::__copy_move<false, true, std::random_access_iterator_tag>::__copy_m<char>
FUNC 45a14 46 0 std::copy<__gnu_cxx::__normal_iterator<const char*, std::vector<char, std::allocator<char> > >, char*>
FUNC 45a5a 58 0 std::__copy_move_a2<false, __gnu_cxx::__normal_iterator<const char*, std::vector<char, std::allocator<char> > >, char*>
FUNC 45ab4 106 0 Service::Service
FUNC 45bba e0 0 Service::~Service
FUNC 45c9a 26 0 Service::~Service
FUNC 45cc0 a 0 Service::InitConfig
FUNC 45cca 2a 0 Service::Init
FUNC 45cf4 f2 0 Service::setPointAddrMap
FUNC 45de6 1af 0 Service::connectRedis
FUNC 45f96 578 0 Service::writePointsValue
FUNC 4650e 40b 0 Service::Start
FUNC 4691a 94c 0 Service::Write
FUNC 47266 6f5 0 Service::Read
FUNC 4795c 15e 0 Service::ParseRecvData
FUNC 47aba 6d 0 Service::ParseFixedData
FUNC 47b28 181 0 Service::ParseVariableData
FUNC 47caa 47 0 Service::CmdResetCon
FUNC 47cf2 47 0 Service::CmdResetNum
FUNC 47d3a 4b 0 Service::CmdGetDataLv1
FUNC 47d86 4b 0 Service::CmdGetDataLv2
FUNC 47dd2 13a 0 Service::CmdFixedData
FUNC 47f0c 3ad 0 Service::CmdSetTimeStamp
FUNC 482ba 22c 0 Service::CmdResetEventAlarm
FUNC 484e6 347 0 Service::CmdSettingDownload
FUNC 4882e 347 0 Service::CmdSettingModify
FUNC 48b76 23f 0 Service::CmdGetAll
FUNC 48db6 26d 0 Service::CmdGetGroupValue
FUNC 49024 273 0 Service::CmdGetEntryValue
FUNC 49298 42 0 Service::SumCheck
FUNC 492da 356 0 Service::ParseASDU44
FUNC 49630 2d0 0 Service::ParseASDU40
FUNC 49900 3c 0 Service::ParseASDU41
FUNC 4993c 60c 0 Service::ParseASDU42
FUNC 49f48 437 0 Service::ParseASDU50
FUNC 4a380 3f3 0 Service::ParseASDU1
FUNC 4a774 469 0 Service::ParseASDU2
FUNC 4abde 124 0 Service::GetGlobalAddrByPrivateAddr
FUNC 4ad02 a3 0 Service::GetRateByPrivateAddr
FUNC 4ada6 112 0 Service::ToHexString
FUNC 4aeb8 4c3 0 Service::InitPointAddrMap
FUNC 4b37c 8b 0 Service::StartBreakHeart
FUNC 4b408 db 0 Service::ThreadFunc
FUNC 4b4e4 18e 0 Service::ParseASDU10
FUNC 4b672 53d 0 Service::ParseASDU10AllValue
FUNC 4bbaf 257 0 __static_initialization_and_destruction_0
FUNC 4be06 15 0 _GLOBAL__I_Service.cpp
FUNC 4be1c 12 0 Config::GetUdpPort
FUNC 4be2e 15 0 Config::GetId
FUNC 4be44 14 0 Config::GetIedName
FUNC 4be58 ac 0 google::protobuf::internal::ToIntSize
FUNC 4bf04 2d 0 google::protobuf::MessageLite::ByteSize
FUNC 4bf32 66 0 Tag::Tag
FUNC 4bf98 50 0 Tag::~Tag
FUNC 4bfe8 63 0 Tag::operator=
FUNC 4c04c 8b 0 Tag::ZeroTag
FUNC 4c0d8 1a 0 std::map<std::basic_string<char, std::char_traits<char>, std::allocator<char> >, Service::Point103, std::less<std::basic_string<char, std::char_traits<char>, std::allocator<char> > >, std::allocator<std::pair<const std::basic_string<char, std::char_traits<char>, std::allocator<char> >, Service::Point103> > >::~map
FUNC 4c0f2 1e 0 Service::Point103::Point103
FUNC 4c110 1e 0 Service::Point103::~Point103
FUNC 4c12e 3d 0 Service::Point103::operator=
FUNC 4c16c 39 0 Service::Point103::Point103
FUNC 4c1a6 1e 0 std::pair<char*, Service::Point103>::~pair
FUNC 4c1c4 55 0 std::pair<const std::basic_string<char, std::char_traits<char>, std::allocator<char> >, Service::Point103>::~pair
FUNC 4c21a 1a 0 std::vector<Tag, std::allocator<Tag> >::vector
FUNC 4c234 6e 0 std::vector<Tag, std::allocator<Tag> >::~vector
FUNC 4c2a2 1a 0 std::map<std::basic_string<char, std::char_traits<char>, std::allocator<char> >, Service::Point103, std::less<std::basic_string<char, std::char_traits<char>, std::allocator<char> > >, std::allocator<std::pair<const std::basic_string<char, std::char_traits<char>, std::allocator<char> >, Service::Point103> > >::map
FUNC 4c2bc 1a 0 std::_Rb_tree<std::basic_string<char, std::char_traits<char>, std::allocator<char> >, std::pair<const std::basic_string<char, std::char_traits<char>, std::allocator<char> >, Service::Point103>, std::_Select1st<std::pair<const std::basic_string<char, std::char_traits<char>, std::allocator<char> >, Service::Point103> >, std::less<std::basic_string<char, std::char_traits<char>, std::allocator<char> > >, std::allocator<std::pair<const std::basic_string<char, std::char_traits<char>, std::allocator<char> >, Service::Point103> > >::_Rb_tree_impl<std::less<std::basic_string<char, std::char_traits<char>, std::allocator<char> > >, false>::~_Rb_tree_impl
FUNC 4c2d6 63 0 std::_Rb_tree<std::basic_string<char, std::char_traits<char>, std::allocator<char> >, std::pair<const std::basic_string<char, std::char_traits<char>, std::allocator<char> >, Service::Point103>, std::_Select1st<std::pair<const std::basic_string<char, std::char_traits<char>, std::allocator<char> >, Service::Point103> >, std::less<std::basic_string<char, std::char_traits<char>, std::allocator<char> > >, std::allocator<std::pair<const std::basic_string<char, std::char_traits<char>, std::allocator<char> >, Service::Point103> > >::~_Rb_tree
FUNC 4c33a 1a 0 std::map<std::basic_string<char, std::char_traits<char>, std::allocator<char> >, std::basic_string<char, std::char_traits<char>, std::allocator<char> >, std::less<std::basic_string<char, std::char_traits<char>, std::allocator<char> > >, std::allocator<std::pair<const std::basic_string<char, std::char_traits<char>, std::allocator<char> >, std::basic_string<char, std::char_traits<char>, std::allocator<char> > > > >::begin
FUNC 4c354 22 0 std::_Rb_tree_iterator<std::pair<const std::basic_string<char, std::char_traits<char>, std::allocator<char> >, std::basic_string<char, std::char_traits<char>, std::allocator<char> > > >::operator!=
FUNC 4c376 28 0 std::_Rb_tree_iterator<std::pair<const std::basic_string<char, std::char_traits<char>, std::allocator<char> >, std::basic_string<char, std::char_traits<char>, std::allocator<char> > > >::operator++
FUNC 4c39e 15 0 std::_Rb_tree_iterator<std::pair<const std::basic_string<char, std::char_traits<char>, std::allocator<char> >, std::basic_string<char, std::char_traits<char>, std::allocator<char> > > >::operator->
FUNC 4c3b4 156 0 std::map<std::basic_string<char, std::char_traits<char>, std::allocator<char> >, Service::Point103, std::less<std::basic_string<char, std::char_traits<char>, std::allocator<char> > >, std::allocator<std::pair<const std::basic_string<char, std::char_traits<char>, std::allocator<char> >, Service::Point103> > >::operator[]
FUNC 4c50a b9 0 std::vector<std::basic_string<char, std::char_traits<char>, std::allocator<char> >, std::allocator<std::basic_string<char, std::char_traits<char>, std::allocator<char> > > >::vector
FUNC 4c5c4 73 0 std::vector<char, std::allocator<char> >::vector
FUNC 4c638 19 0 std::vector<char, std::allocator<char> >::operator[]
FUNC 4c652 7d 0 std::vector<Tag, std::allocator<Tag> >::push_back
FUNC 4c6d0 25 0 std::map<std::basic_string<char, std::char_traits<char>, std::allocator<char> >, Service::Point103, std::less<std::basic_string<char, std::char_traits<char>, std::allocator<char> > >, std::allocator<std::pair<const std::basic_string<char, std::char_traits<char>, std::allocator<char> >, Service::Point103> > >::find
FUNC 4c6f6 1c 0 std::_Rb_tree_const_iterator<std::pair<const std::basic_string<char, std::char_traits<char>, std::allocator<char> >, Service::Point103> >::_Rb_tree_const_iterator
FUNC 4c712 1a 0 std::map<std::basic_string<char, std::char_traits<char>, std::allocator<char> >, Service::Point103, std::less<std::basic_string<char, std::char_traits<char>, std::allocator<char> > >, std::allocator<std::pair<const std::basic_string<char, std::char_traits<char>, std::allocator<char> >, Service::Point103> > >::end
FUNC 4c72c 22 0 std::_Rb_tree_const_iterator<std::pair<const std::basic_string<char, std::char_traits<char>, std::allocator<char> >, Service::Point103> >::operator!=
FUNC 4c74e 15 0 std::_Rb_tree_const_iterator<std::pair<const std::basic_string<char, std::char_traits<char>, std::allocator<char> >, Service::Point103> >::operator->
FUNC 4c764 1a 0 std::map<std::basic_string<char, std::char_traits<char>, std::allocator<char> >, Service::Point103, std::less<std::basic_string<char, std::char_traits<char>, std::allocator<char> > >, std::allocator<std::pair<const std::basic_string<char, std::char_traits<char>, std::allocator<char> >, Service::Point103> > >::clear
FUNC 4c77e 37 0 std::make_pair<char*, Service::Point103>
FUNC 4c7b6 ab 0 std::pair<const std::basic_string<char, std::char_traits<char>, std::allocator<char> >, Service::Point103>::pair<char*, Service::Point103>
FUNC 4c862 47 0 std::map<std::basic_string<char, std::char_traits<char>, std::allocator<char> >, Service::Point103, std::less<std::basic_string<char, std::char_traits<char>, std::allocator<char> > >, std::allocator<std::pair<const std::basic_string<char, std::char_traits<char>, std::allocator<char> >, Service::Point103> > >::insert
FUNC 4c8aa 1a 0 std::map<std::basic_string<char, std::char_traits<char>, std::allocator<char> >, Service::Point103, std::less<std::basic_string<char, std::char_traits<char>, std::allocator<char> > >, std::allocator<std::pair<const std::basic_string<char, std::char_traits<char>, std::allocator<char> >, Service::Point103> > >::size
FUNC 4c8c4 1a 0 std::_Vector_base<Tag, std::allocator<Tag> >::_Vector_impl::~_Vector_impl
FUNC 4c8de 1a 0 std::_Vector_base<Tag, std::allocator<Tag> >::_Vector_base
FUNC 4c8f8 81 0 std::_Vector_base<Tag, std::allocator<Tag> >::~_Vector_base
FUNC 4c97a e 0 std::_Vector_base<Tag, std::allocator<Tag> >::_M_get_Tp_allocator
FUNC 4c988 29 0 std::_Destroy<Tag*, Tag>
FUNC 4c9b2 1a 0 std::_Rb_tree<std::basic_string<char, std::char_traits<char>, std::allocator<char> >, std::pair<const std::basic_string<char, std::char_traits<char>, std::allocator<char> >, Service::Point103>, std::_Select1st<std::pair<const std::basic_string<char, std::char_traits<char>, std::allocator<char> >, Service::Point103> >, std::less<std::basic_string<char, std::char_traits<char>, std::allocator<char> > >, std::allocator<std::pair<const std::basic_string<char, std::char_traits<char>, std::allocator<char> >, Service::Point103> > >::_Rb_tree
FUNC 4c9cc 1a 0 std::allocator<std::_Rb_tree_node<std::pair<const std::basic_string<char, std::char_traits<char>, std::allocator<char> >, Service::Point103> > >::~allocator
FUNC 4c9e6 69 0 std::_Rb_tree<std::basic_string<char, std::char_traits<char>, std::allocator<char> >, std::pair<const std::basic_string<char, std::char_traits<char>, std::allocator<char> >, Service::Point103>, std::_Select1st<std::pair<const std::basic_string<char, std::char_traits<char>, std::allocator<char> >, Service::Point103> >, std::less<std::basic_string<char, std::char_traits<char>, std::allocator<char> > >, std::allocator<std::pair<const std::basic_string<char, std::char_traits<char>, std::allocator<char> >, Service::Point103> > >::_M_erase
FUNC 4ca50 12 0 std::_Rb_tree<std::basic_string<char, std::char_traits<char>, std::allocator<char> >, std::pair<const std::basic_string<char, std::char_traits<char>, std::allocator<char> >, Service::Point103>, std::_Select1st<std::pair<const std::basic_string<char, std::char_traits<char>, std::allocator<char> >, Service::Point103> >, std::less<std::basic_string<char, std::char_traits<char>, std::allocator<char> > >, std::allocator<std::pair<const std::basic_string<char, std::char_traits<char>, std::allocator<char> >, Service::Point103> > >::_M_begin
FUNC 4ca62 25 0 std::map<std::basic_string<char, std::char_traits<char>, std::allocator<char> >, Service::Point103, std::less<std::basic_string<char, std::char_traits<char>, std::allocator<char> > >, std::allocator<std::pair<const std::basic_string<char, std::char_traits<char>, std::allocator<char> >, Service::Point103> > >::lower_bound
FUNC 4ca88 1a 0 std::map<std::basic_string<char, std::char_traits<char>, std::allocator<char> >, Service::Point103, std::less<std::basic_string<char, std::char_traits<char>, std::allocator<char> > >, std::allocator<std::pair<const std::basic_string<char, std::char_traits<char>, std::allocator<char> >, Service::Point103> > >::key_comp
FUNC 4caa2 15 0 std::_Rb_tree_iterator<std::pair<const std::basic_string<char, std::char_traits<char>, std::allocator<char> >, Service::Point103> >::operator*
FUNC 4cab8 22 0 std::_Rb_tree_iterator<std::pair<const std::basic_string<char, std::char_traits<char>, std::allocator<char> >, Service::Point103> >::operator==
FUNC 4cada 6b 0 std::pair<const std::basic_string<char, std::char_traits<char>, std::allocator<char> >, Service::Point103>::pair
FUNC 4cb46 40 0 std::map<std::basic_string<char, std::char_traits<char>, std::allocator<char> >, Service::Point103, std::less<std::basic_string<char, std::char_traits<char>, std::allocator<char> > >, std::allocator<std::pair<const std::basic_string<char, std::char_traits<char>, std::allocator<char> >, Service::Point103> > >::insert
FUNC 4cb86 96 0 std::_Vector_base<std::basic_string<char, std::char_traits<char>, std::allocator<char> >, std::allocator<std::basic_string<char, std::char_traits<char>, std::allocator<char> > > >::_Vector_base
FUNC 4cc1c 91 0 std::_Vector_base<char, std::allocator<char> >::_Vector_base
FUNC 4ccae 55 0 std::vector<char, std::allocator<char> >::_M_fill_initialize
FUNC 4cd04 e2 0 __gnu_cxx::new_allocator<Tag>::construct
FUNC 4cde6 42b 0 std::vector<Tag, std::allocator<Tag> >::_M_insert_aux
FUNC 4d212 29 0 std::vector<Tag, std::allocator<Tag> >::end
FUNC 4d23c b6 0 std::_Rb_tree<std::basic_string<char, std::char_traits<char>, std::allocator<char> >, std::pair<const std::basic_string<char, std::char_traits<char>, std::allocator<char> >, Service::Point103>, std::_Select1st<std::pair<const std::basic_string<char, std::char_traits<char>, std::allocator<char> >, Service::Point103> >, std::less<std::basic_string<char, std::char_traits<char>, std::allocator<char> > >, std::allocator<std::pair<const std::basic_string<char, std::char_traits<char>, std::allocator<char> >, Service::Point103> > >::find
FUNC 4d2f2 2c 0 std::_Rb_tree<std::basic_string<char, std::char_traits<char>, std::allocator<char> >, std::pair<const std::basic_string<char, std::char_traits<char>, std::allocator<char> >, Service::Point103>, std::_Select1st<std::pair<const std::basic_string<char, std::char_traits<char>, std::allocator<char> >, Service::Point103> >, std::less<std::basic_string<char, std::char_traits<char>, std::allocator<char> > >, std::allocator<std::pair<const std::basic_string<char, std::char_traits<char>, std::allocator<char> >, Service::Point103> > >::end
FUNC 4d31e 8d 0 std::_Rb_tree<std::basic_string<char, std::char_traits<char>, std::allocator<char> >, std::pair<const std::basic_string<char, std::char_traits<char>, std::allocator<char> >, Service::Point103>, std::_Select1st<std::pair<const std::basic_string<char, std::char_traits<char>, std::allocator<char> >, Service::Point103> >, std::less<std::basic_string<char, std::char_traits<char>, std::allocator<char> > >, std::allocator<std::pair<const std::basic_string<char, std::char_traits<char>, std::allocator<char> >, Service::Point103> > >::clear
FUNC 4d3ac 3b 0 std::pair<char*, Service::Point103>::pair
FUNC 4d3e8 271 0 std::_Rb_tree<std::basic_string<char, std::char_traits<char>, std::allocator<char> >, std::pair<const std::basic_string<char, std::char_traits<char>, std::allocator<char> >, Service::Point103>, std::_Select1st<std::pair<const std::basic_string<char, std::char_traits<char>, std::allocator<char> >, Service::Point103> >, std::less<std::basic_string<char, std::char_traits<char>, std::allocator<char> > >, std::allocator<std::pair<const std::basic_string<char, std::char_traits<char>, std::allocator<char> >, Service::Point103> > >::_M_insert_unique
FUNC 4d65a 12 0 std::_Rb_tree<std::basic_string<char, std::char_traits<char>, std::allocator<char> >, std::pair<const std::basic_string<char, std::char_traits<char>, std::allocator<char> >, Service::Point103>, std::_Select1st<std::pair<const std::basic_string<char, std::char_traits<char>, std::allocator<char> >, Service::Point103> >, std::less<std::basic_string<char, std::char_traits<char>, std::allocator<char> > >, std::allocator<std::pair<const std::basic_string<char, std::char_traits<char>, std::allocator<char> >, Service::Point103> > >::size
FUNC 4d66c 3d 0 std::_Vector_base<Tag, std::allocator<Tag> >::_Vector_impl::_Vector_impl
FUNC 4d6aa 1a 0 std::allocator<Tag>::~allocator
FUNC 4d6c4 34 0 std::_Vector_base<Tag, std::allocator<Tag> >::_M_deallocate
FUNC 4d6f8 25 0 std::_Destroy<Tag*>
FUNC 4d71e 8c 0 std::_Rb_tree<std::basic_string<char, std::char_traits<char>, std::allocator<char> >, std::pair<const std::basic_string<char, std::char_traits<char>, std::allocator<char> >, Service::Point103>, std::_Select1st<std::pair<const std::basic_string<char, std::char_traits<char>, std::allocator<char> >, Service::Point103> >, std::less<std::basic_string<char, std::char_traits<char>, std::allocator<char> > >, std::allocator<std::pair<const std::basic_string<char, std::char_traits<char>, std::allocator<char> >, Service::Point103> > >::_Rb_tree_impl<std::less<std::basic_string<char, std::char_traits<char>, std::allocator<char> > >, false>::_Rb_tree_impl
FUNC 4d7aa a 0 __gnu_cxx::new_allocator<std::_Rb_tree_node<std::pair<const std::basic_string<char, std::char_traits<char>, std::allocator<char> >, Service::Point103> > >::~new_allocator
FUNC 4d7b4 12 0 std::_Rb_tree<std::basic_string<char, std::char_traits<char>, std::allocator<char> >, std::pair<const std::basic_string<char, std::char_traits<char>, std::allocator<char> >, Service::Point103>, std::_Select1st<std::pair<const std::basic_string<char, std::char_traits<char>, std::allocator<char> >, Service::Point103> >, std::less<std::basic_string<char, std::char_traits<char>, std::allocator<char> > >, std::allocator<std::pair<const std::basic_string<char, std::char_traits<char>, std::allocator<char> >, Service::Point103> > >::_S_right
FUNC 4d7c6 12 0 std::_Rb_tree<std::basic_string<char, std::char_traits<char>, std::allocator<char> >, std::pair<const std::basic_string<char, std::char_traits<char>, std::allocator<char> >, Service::Point103>, std::_Select1st<std::pair<const std::basic_string<char, std::char_traits<char>, std::allocator<char> >, Service::Point103> >, std::less<std::basic_string<char, std::char_traits<char>, std::allocator<char> > >, std::allocator<std::pair<const std::basic_string<char, std::char_traits<char>, std::allocator<char> >, Service::Point103> > >::_S_left
FUNC 4d7d8 86 0 std::_Rb_tree<std::basic_string<char, std::char_traits<char>, std::allocator<char> >, std::pair<const std::basic_string<char, std::char_traits<char>, std::allocator<char> >, Service::Point103>, std::_Select1st<std::pair<const std::basic_string<char, std::char_traits<char>, std::allocator<char> >, Service::Point103> >, std::less<std::basic_string<char, std::char_traits<char>, std::allocator<char> > >, std::allocator<std::pair<const std::basic_string<char, std::char_traits<char>, std::allocator<char> >, Service::Point103> > >::_M_destroy_node
FUNC 4d85e 53 0 std::_Rb_tree<std::basic_string<char, std::char_traits<char>, std::allocator<char> >, std::pair<const std::basic_string<char, std::char_traits<char>, std::allocator<char> >, Service::Point103>, std::_Select1st<std::pair<const std::basic_string<char, std::char_traits<char>, std::allocator<char> >, Service::Point103> >, std::less<std::basic_string<char, std::char_traits<char>, std::allocator<char> > >, std::allocator<std::pair<const std::basic_string<char, std::char_traits<char>, std::allocator<char> >, Service::Point103> > >::lower_bound
FUNC 4d8b2 a 0 std::_Rb_tree<std::basic_string<char, std::char_traits<char>, std::allocator<char> >, std::pair<const std::basic_string<char, std::char_traits<char>, std::allocator<char> >, Service::Point103>, std::_Select1st<std::pair<const std::basic_string<char, std::char_traits<char>, std::allocator<char> >, Service::Point103> >, std::less<std::basic_string<char, std::char_traits<char>, std::allocator<char> > >, std::allocator<std::pair<const std::basic_string<char, std::char_traits<char>, std::allocator<char> >, Service::Point103> > >::key_comp
FUNC 4d8bc 4c0 0 std::_Rb_tree<std::basic_string<char, std::char_traits<char>, std::allocator<char> >, std::pair<const std::basic_string<char, std::char_traits<char>, std::allocator<char> >, Service::Point103>, std::_Select1st<std::pair<const std::basic_string<char, std::char_traits<char>, std::allocator<char> >, Service::Point103> >, std::less<std::basic_string<char, std::char_traits<char>, std::allocator<char> > >, std::allocator<std::pair<const std::basic_string<char, std::char_traits<char>, std::allocator<char> >, Service::Point103> > >::_M_insert_unique_
FUNC 4dd7c 48 0 std::_Vector_base<std::basic_string<char, std::char_traits<char>, std::allocator<char> >, std::allocator<std::basic_string<char, std::char_traits<char>, std::allocator<char> > > >::_Vector_impl::_Vector_impl
FUNC 4ddc4 48 0 std::_Vector_base<char, std::allocator<char> >::_Vector_impl::_Vector_impl
FUNC 4de0c 31 0 std::__uninitialized_fill_n_a<char*, long unsigned int, char, char>
FUNC 4de3e e 0 __gnu_cxx::__normal_iterator<Tag*, std::vector<Tag, std::allocator<Tag> > >::base
FUNC 4de4c 46 0 std::copy_backward<Tag*, Tag*>
FUNC 4de92 11 0 __gnu_cxx::__normal_iterator<Tag*, std::vector<Tag, std::allocator<Tag> > >::operator*
FUNC 4dea4 ca 0 std::vector<Tag, std::allocator<Tag> >::_M_check_len
FUNC 4df6e 25 0 std::vector<Tag, std::allocator<Tag> >::begin
FUNC 4df93 4d 0 __gnu_cxx::operator-<Tag*, std::vector<Tag, std::allocator<Tag> > >
FUNC 4dfe0 38 0 std::_Vector_base<Tag, std::allocator<Tag> >::_M_allocate
FUNC 4e018 3b 0 std::__uninitialized_move_a<Tag*, Tag*, std::allocator<Tag> >
FUNC 4e054 1e 0 __gnu_cxx::new_allocator<Tag>::destroy
FUNC 4e072 1c 0 __gnu_cxx::__normal_iterator<Tag*, std::vector<Tag, std::allocator<Tag> > >::__normal_iterator
FUNC 4e08e 12 0 std::_Rb_tree<std::basic_string<char, std::char_traits<char>, std::allocator<char> >, std::pair<const std::basic_string<char, std::char_traits<char>, std::allocator<char> >, Service::Point103>, std::_Select1st<std::pair<const std::basic_string<char, std::char_traits<char>, std::allocator<char> >, Service::Point103> >, std::less<std::basic_string<char, std::char_traits<char>, std::allocator<char> > >, std::allocator<std::pair<const std::basic_string<char, std::char_traits<char>, std::allocator<char> >, Service::Point103> > >::_M_end
FUNC 4e0a0 92 0 std::_Rb_tree<std::basic_string<char, std::char_traits<char>, std::allocator<char> >, std::pair<const std::basic_string<char, std::char_traits<char>, std::allocator<char> >, Service::Point103>, std::_Select1st<std::pair<const std::basic_string<char, std::char_traits<char>, std::allocator<char> >, Service::Point103> >, std::less<std::basic_string<char, std::char_traits<char>, std::allocator<char> > >, std::allocator<std::pair<const std::basic_string<char, std::char_traits<char>, std::allocator<char> >, Service::Point103> > >::_M_lower_bound
FUNC 4e132 2c 0 std::_Rb_tree<std::basic_string<char, std::char_traits<char>, std::allocator<char> >, std::pair<const std::basic_string<char, std::char_traits<char>, std::allocator<char> >, Service::Point103>, std::_Select1st<std::pair<const std::basic_string<char, std::char_traits<char>, std::allocator<char> >, Service::Point103> >, std::less<std::basic_string<char, std::char_traits<char>, std::allocator<char> > >, std::allocator<std::pair<const std::basic_string<char, std::char_traits<char>, std::allocator<char> >, Service::Point103> > >::_S_key
FUNC 4e15e 19 0 std::_Rb_tree_iterator<std::pair<const std::basic_string<char, std::char_traits<char>, std::allocator<char> >, Service::Point103> >::_Rb_tree_iterator
FUNC 4e178 12 0 std::_Rb_tree<std::basic_string<char, std::char_traits<char>, std::allocator<char> >, std::pair<const std::basic_string<char, std::char_traits<char>, std::allocator<char> >, Service::Point103>, std::_Select1st<std::pair<const std::basic_string<char, std::char_traits<char>, std::allocator<char> >, Service::Point103> >, std::less<std::basic_string<char, std::char_traits<char>, std::allocator<char> > >, std::allocator<std::pair<const std::basic_string<char, std::char_traits<char>, std::allocator<char> >, Service::Point103> > >::_M_leftmost
FUNC 4e18a 12 0 std::_Rb_tree<std::basic_string<char, std::char_traits<char>, std::allocator<char> >, std::pair<const std::basic_string<char, std::char_traits<char>, std::allocator<char> >, Service::Point103>, std::_Select1st<std::pair<const std::basic_string<char, std::char_traits<char>, std::allocator<char> >, Service::Point103> >, std::less<std::basic_string<char, std::char_traits<char>, std::allocator<char> > >, std::allocator<std::pair<const std::basic_string<char, std::char_traits<char>, std::allocator<char> >, Service::Point103> > >::_M_root
FUNC 4e19c 12 0 std::_Rb_tree<std::basic_string<char, std::char_traits<char>, std::allocator<char> >, std::pair<const std::basic_string<char, std::char_traits<char>, std::allocator<char> >, Service::Point103>, std::_Select1st<std::pair<const std::basic_string<char, std::char_traits<char>, std::allocator<char> >, Service::Point103> >, std::less<std::basic_string<char, std::char_traits<char>, std::allocator<char> > >, std::allocator<std::pair<const std::basic_string<char, std::char_traits<char>, std::allocator<char> >, Service::Point103> > >::_M_rightmost
FUNC 4e1ae 12 0 std::_Select1st<std::pair<const std::basic_string<char, std::char_traits<char>, std::allocator<char> >, Service::Point103> >::operator()
FUNC 4e1c0 2c 0 std::_Rb_tree<std::basic_string<char, std::char_traits<char>, std::allocator<char> >, std::pair<const std::basic_string<char, std::char_traits<char>, std::allocator<char> >, Service::Point103>, std::_Select1st<std::pair<const std::basic_string<char, std::char_traits<char>, std::allocator<char> >, Service::Point103> >, std::less<std::basic_string<char, std::char_traits<char>, std::allocator<char> > >, std::allocator<std::pair<const std::basic_string<char, std::char_traits<char>, std::allocator<char> >, Service::Point103> > >::_S_key
FUNC 4e1ec 2c 0 std::_Rb_tree<std::basic_string<char, std::char_traits<char>, std::allocator<char> >, std::pair<const std::basic_string<char, std::char_traits<char>, std::allocator<char> >, Service::Point103>, std::_Select1st<std::pair<const std::basic_string<char, std::char_traits<char>, std::allocator<char> >, Service::Point103> >, std::less<std::basic_string<char, std::char_traits<char>, std::allocator<char> > >, std::allocator<std::pair<const std::basic_string<char, std::char_traits<char>, std::allocator<char> >, Service::Point103> > >::begin
FUNC 4e218 e3 0 std::_Rb_tree<std::basic_string<char, std::char_traits<char>, std::allocator<char> >, std::pair<const std::basic_string<char, std::char_traits<char>, std::allocator<char> >, Service::Point103>, std::_Select1st<std::pair<const std::basic_string<char, std::char_traits<char>, std::allocator<char> >, Service::Point103> >, std::less<std::basic_string<char, std::char_traits<char>, std::allocator<char> > >, std::allocator<std::pair<const std::basic_string<char, std::char_traits<char>, std::allocator<char> >, Service::Point103> > >::_M_insert_
FUNC 4e2fc 2e 0 std::pair<std::_Rb_tree_iterator<std::pair<const std::basic_string<char, std::char_traits<char>, std::allocator<char> >, Service::Point103> >, bool>::pair
FUNC 4e32a 28 0 std::_Rb_tree_iterator<std::pair<const std::basic_string<char, std::char_traits<char>, std::allocator<char> >, Service::Point103> >::operator--
FUNC 4e352 1a 0 std::allocator<Tag>::allocator
FUNC 4e36c a 0 __gnu_cxx::new_allocator<Tag>::~new_allocator
FUNC 4e376 22 0 __gnu_cxx::new_allocator<Tag>::deallocate
FUNC 4e398 37 0 std::_Destroy_aux<false>::__destroy<Tag*>
FUNC 4e3d0 1a 0 std::allocator<std::_Rb_tree_node<std::pair<const std::basic_string<char, std::char_traits<char>, std::allocator<char> >, Service::Point103> > >::allocator
FUNC 4e3ea 41 0 std::_Rb_tree<std::basic_string<char, std::char_traits<char>, std::allocator<char> >, std::pair<const std::basic_string<char, std::char_traits<char>, std::allocator<char> >, Service::Point103>, std::_Select1st<std::pair<const std::basic_string<char, std::char_traits<char>, std::allocator<char> >, Service::Point103> >, std::less<std::basic_string<char, std::char_traits<char>, std::allocator<char> > >, std::allocator<std::pair<const std::basic_string<char, std::char_traits<char>, std::allocator<char> >, Service::Point103> > >::_Rb_tree_impl<std::less<std::basic_string<char, std::char_traits<char>, std::allocator<char> > >, false>::_M_initialize
FUNC 4e42c 3b 0 std::_Rb_tree<std::basic_string<char, std::char_traits<char>, std::allocator<char> >, std::pair<const std::basic_string<char, std::char_traits<char>, std::allocator<char> >, Service::Point103>, std::_Select1st<std::pair<const std::basic_string<char, std::char_traits<char>, std::allocator<char> >, Service::Point103> >, std::less<std::basic_string<char, std::char_traits<char>, std::allocator<char> > >, std::allocator<std::pair<const std::basic_string<char, std::char_traits<char>, std::allocator<char> >, Service::Point103> > >::get_allocator
FUNC 4e468 1a 0 std::allocator<std::pair<const std::basic_string<char, std::char_traits<char>, std::allocator<char> >, Service::Point103> >::~allocator
FUNC 4e482 1e 0 __gnu_cxx::new_allocator<std::pair<const std::basic_string<char, std::char_traits<char>, std::allocator<char> >, Service::Point103> >::destroy
FUNC 4e4a0 2a 0 std::_Rb_tree<std::basic_string<char, std::char_traits<char>, std::allocator<char> >, std::pair<const std::basic_string<char, std::char_traits<char>, std::allocator<char> >, Service::Point103>, std::_Select1st<std::pair<const std::basic_string<char, std::char_traits<char>, std::allocator<char> >, Service::Point103> >, std::less<std::basic_string<char, std::char_traits<char>, std::allocator<char> > >, std::allocator<std::pair<const std::basic_string<char, std::char_traits<char>, std::allocator<char> >, Service::Point103> > >::_M_put_node
FUNC 4e4ca 28 0 std::_Rb_tree_const_iterator<std::pair<const std::basic_string<char, std::char_traits<char>, std::allocator<char> >, Service::Point103> >::operator--
FUNC 4e4f2 12 0 std::_Rb_tree<std::basic_string<char, std::char_traits<char>, std::allocator<char> >, std::pair<const std::basic_string<char, std::char_traits<char>, std::allocator<char> >, Service::Point103>, std::_Select1st<std::pair<const std::basic_string<char, std::char_traits<char>, std::allocator<char> >, Service::Point103> >, std::less<std::basic_string<char, std::char_traits<char>, std::allocator<char> > >, std::allocator<std::pair<const std::basic_string<char, std::char_traits<char>, std::allocator<char> >, Service::Point103> > >::_S_right
FUNC 4e504 28 0 std::_Rb_tree_const_iterator<std::pair<const std::basic_string<char, std::char_traits<char>, std::allocator<char> >, Service::Point103> >::operator++
FUNC 4e52c 25 0 std::allocator<std::basic_string<char, std::char_traits<char>, std::allocator<char> > >::allocator
FUNC 4e551 2d 0 std::uninitialized_fill_n<char*, long unsigned int, char>
FUNC 4e57e e 0 std::__miter_base<Tag*, false>::__b
FUNC 4e58c 58 0 std::__copy_move_backward_a2<false, Tag*, Tag*>
FUNC 4e5e4 22 0 std::vector<Tag, std::allocator<Tag> >::max_size
FUNC 4e606 63 0 __gnu_cxx::new_allocator<Tag>::allocate
FUNC 4e669 31 0 std::__uninitialized_copy_a<Tag*, Tag*, Tag>
FUNC 4e69a 12 0 std::_Rb_tree<std::basic_string<char, std::char_traits<char>, std::allocator<char> >, std::pair<const std::basic_string<char, std::char_traits<char>, std::allocator<char> >, Service::Point103>, std::_Select1st<std::pair<const std::basic_string<char, std::char_traits<char>, std::allocator<char> >, Service::Point103> >, std::less<std::basic_string<char, std::char_traits<char>, std::allocator<char> > >, std::allocator<std::pair<const std::basic_string<char, std::char_traits<char>, std::allocator<char> >, Service::Point103> > >::_S_value
FUNC 4e6ac 12 0 std::_Rb_tree<std::basic_string<char, std::char_traits<char>, std::allocator<char> >, std::pair<const std::basic_string<char, std::char_traits<char>, std::allocator<char> >, Service::Point103>, std::_Select1st<std::pair<const std::basic_string<char, std::char_traits<char>, std::allocator<char> >, Service::Point103> >, std::less<std::basic_string<char, std::char_traits<char>, std::allocator<char> > >, std::allocator<std::pair<const std::basic_string<char, std::char_traits<char>, std::allocator<char> >, Service::Point103> > >::_S_value
FUNC 4e6be bd 0 std::_Rb_tree<std::basic_string<char, std::char_traits<char>, std::allocator<char> >, std::pair<const std::basic_string<char, std::char_traits<char>, std::allocator<char> >, Service::Point103>, std::_Select1st<std::pair<const std::basic_string<char, std::char_traits<char>, std::allocator<char> >, Service::Point103> >, std::less<std::basic_string<char, std::char_traits<char>, std::allocator<char> > >, std::allocator<std::pair<const std::basic_string<char, std::char_traits<char>, std::allocator<char> >, Service::Point103> > >::_M_create_node
FUNC 4e77c a 0 __gnu_cxx::new_allocator<Tag>::new_allocator
FUNC 4e786 1a 0 std::_Destroy<Tag>
FUNC 4e7a0 a 0 __gnu_cxx::new_allocator<std::_Rb_tree_node<std::pair<const std::basic_string<char, std::char_traits<char>, std::allocator<char> >, Service::Point103> > >::new_allocator
FUNC 4e7aa e 0 std::_Rb_tree<std::basic_string<char, std::char_traits<char>, std::allocator<char> >, std::pair<const std::basic_string<char, std::char_traits<char>, std::allocator<char> >, Service::Point103>, std::_Select1st<std::pair<const std::basic_string<char, std::char_traits<char>, std::allocator<char> >, Service::Point103> >, std::less<std::basic_string<char, std::char_traits<char>, std::allocator<char> > >, std::allocator<std::pair<const std::basic_string<char, std::char_traits<char>, std::allocator<char> >, Service::Point103> > >::_M_get_Node_allocator
FUNC 4e7b8 1e 0 std::allocator<std::pair<const std::basic_string<char, std::char_traits<char>, std::allocator<char> >, Service::Point103> >::allocator<std::_Rb_tree_node<std::pair<const std::basic_string<char, std::char_traits<char>, std::allocator<char> >, Service::Point103> > >
FUNC 4e7d6 a 0 __gnu_cxx::new_allocator<std::pair<const std::basic_string<char, std::char_traits<char>, std::allocator<char> >, Service::Point103> >::~new_allocator
FUNC 4e7e0 22 0 __gnu_cxx::new_allocator<std::_Rb_tree_node<std::pair<const std::basic_string<char, std::char_traits<char>, std::allocator<char> >, Service::Point103> > >::deallocate
FUNC 4e802 e 0 __gnu_cxx::new_allocator<std::basic_string<char, std::char_traits<char>, std::allocator<char> > >::new_allocator
FUNC 4e810 2d 0 std::__uninitialized_fill_n<true>::uninitialized_fill_n<char*, long unsigned int, char>
FUNC 4e83d e 0 std::__niter_base<Tag*, false>::__b
FUNC 4e84b 31 0 std::__copy_move_backward_a<false, Tag*, Tag*>
FUNC 4e87c e 0 std::_Vector_base<Tag, std::allocator<Tag> >::_M_get_Tp_allocator
FUNC 4e88a 14 0 __gnu_cxx::new_allocator<Tag>::max_size
FUNC 4e89e 2d 0 std::uninitialized_copy<Tag*, Tag*>
FUNC 4e8cc 24 0 std::_Rb_tree<std::basic_string<char, std::char_traits<char>, std::allocator<char> >, std::pair<const std::basic_string<char, std::char_traits<char>, std::allocator<char> >, Service::Point103>, std::_Select1st<std::pair<const std::basic_string<char, std::char_traits<char>, std::allocator<char> >, Service::Point103> >, std::less<std::basic_string<char, std::char_traits<char>, std::allocator<char> > >, std::allocator<std::pair<const std::basic_string<char, std::char_traits<char>, std::allocator<char> >, Service::Point103> > >::_M_get_node
FUNC 4e8f0 6b 0 std::pair<const std::basic_string<char, std::char_traits<char>, std::allocator<char> >, Service::Point103>::pair
FUNC 4e95c 77 0 __gnu_cxx::new_allocator<std::pair<const std::basic_string<char, std::char_traits<char>, std::allocator<char> >, Service::Point103> >::construct
FUNC 4e9d4 a 0 __gnu_cxx::new_allocator<std::pair<const std::basic_string<char, std::char_traits<char>, std::allocator<char> >, Service::Point103> >::new_allocator
FUNC 4e9de 35 0 std::fill_n<char*, long unsigned int, char>
FUNC 4ea13 6d 0 std::__copy_move_backward<false, false, std::random_access_iterator_tag>::__copy_move_b<Tag*, Tag*>
FUNC 4ea80 98 0 std::__uninitialized_copy<false>::uninitialized_copy<Tag*, Tag*>
FUNC 4eb18 5c 0 __gnu_cxx::new_allocator<std::_Rb_tree_node<std::pair<const std::basic_string<char, std::char_traits<char>, std::allocator<char> >, Service::Point103> > >::allocate
FUNC 4eb74 41 0 std::__fill_n_a<long unsigned int, char>
FUNC 4ebb5 de 0 std::_Construct<Tag, Tag>
FUNC 4ec94 14 0 __gnu_cxx::new_allocator<std::_Rb_tree_node<std::pair<const std::basic_string<char, std::char_traits<char>, std::allocator<char> >, Service::Point103> > >::max_size
FUNC 4eca8 49 0 std::__fill_a<char>
FUNC 4ecf4 db 0 TcpNet::TcpNet
FUNC 4edd0 7c 0 TcpNet::~TcpNet
FUNC 4ee4c 26 0 TcpNet::~TcpNet
FUNC 4ee72 17d 0 TcpNet::Connect
FUNC 4eff0 15d 0 TcpNet::Read
FUNC 4f14e e8 0 TcpNet::Write
FUNC 4f236 2c 0 TcpNet::DisConnect
FUNC 4f262 48 0 __static_initialization_and_destruction_0
FUNC 4f2aa 15 0 _GLOBAL__I_TcpNet.cpp
FUNC 4f2c0 91 0 TcpService::TcpService
FUNC 4f352 7e 0 TcpService::~TcpService
FUNC 4f3d0 26 0 TcpService::~TcpService
FUNC 4f3f6 18f 0 TcpService::Start
FUNC 4f586 622 0 TcpService::Write
FUNC 4fba8 581 0 TcpService::Read
FUNC 5012a 20b 0 TcpService::ParseRecvData
FUNC 50336 11f 0 TcpService::CmdConnection
FUNC 50456 11f 0 TcpService::CmdGetTest1
FUNC 50576 11f 0 TcpService::CmdGetTest2
FUNC 50696 2a7 0 TcpService::CmdGetAll
FUNC 5093e 2e1 0 TcpService::CmdGetGroupData
FUNC 50c20 15b 0 TcpService::ParseVariableData
FUNC 50d7c 379 0 TcpService::ParseASDU1
FUNC 510f6 120 0 TcpService::ParseASDU10
FUNC 51216 82f 0 TcpService::ParseASDU10AllValue
FUNC 51a46 2fe 0 TcpService::ParseASDU40
FUNC 51d44 3c 0 TcpService::ParseASDU41
FUNC 51d80 391 0 TcpService::ParseASDU42
FUNC 52112 388 0 TcpService::ParseASDU44
FUNC 5249a 465 0 TcpService::ParseASDU50
FUNC 52900 8e 0 TcpService::InitConfig
FUNC 5298e 14 0 TcpService::GetSendID
FUNC 529a2 14 0 TcpService::GetRecvID
FUNC 529b6 1c4 0 __static_initialization_and_destruction_0
FUNC 52b7a 15 0 _GLOBAL__I_TcpService.cpp
FUNC 52b90 41 0 std::vector<Tag, std::allocator<Tag> >::empty
FUNC 52bd2 31 0 std::vector<Tag, std::allocator<Tag> >::end
FUNC 52c04 30 0 std::vector<Tag, std::allocator<Tag> >::begin
FUNC 52c34 3c 0 __gnu_cxx::operator==<const Tag*, std::vector<Tag, std::allocator<Tag> > >
FUNC 52c70 1c 0 __gnu_cxx::__normal_iterator<const Tag*, std::vector<Tag, std::allocator<Tag> > >::__normal_iterator
FUNC 52c8c e 0 __gnu_cxx::__normal_iterator<const Tag*, std::vector<Tag, std::allocator<Tag> > >::base
FUNC 52c9c 107 0 UdpNet::UdpNet
FUNC 52da4 7c 0 UdpNet::~UdpNet
FUNC 52e20 26 0 UdpNet::~UdpNet
FUNC 52e46 17b 0 UdpNet::Connect
FUNC 52fc2 aa 0 UdpNet::Read
FUNC 5306c ce 0 UdpNet::Write
FUNC 5313a 2c 0 UdpNet::DisConnect
FUNC 53166 48 0 __static_initialization_and_destruction_0
FUNC 531ae 15 0 _GLOBAL__I_UdpNet.cpp
FUNC 531c4 1c 0 WarningLib::WarningLib
FUNC 531e0 35 0 WarningLib::~WarningLib
FUNC 53216 26 0 WarningLib::~WarningLib
FUNC 5323c 74 0 WarningLib::GetInstance
FUNC 532b0 2f4 0 WarningLib::Init
FUNC 535a4 96 0 WarningLib::GetFunction
FUNC 5363a 2b 0 WarningLib::Start
FUNC 53666 36 0 WarningLib::WriteWarn
FUNC 5369c 63 0 WarningLib::WriteWarn2
FUNC 53700 2b 0 WarningLib::Stop
FUNC 5372c 1bc 0 WgjFunctionEx::WgjFunctionEx
FUNC 538e8 196 0 WgjFunctionEx::~WgjFunctionEx
FUNC 53a7e 26 0 WgjFunctionEx::~WgjFunctionEx
FUNC 53aa4 80 0 WgjFunctionEx::GetInstance
FUNC 53b24 27b 0 WgjFunctionEx::InitParam
FUNC 53da0 957 0 WgjFunctionEx::ThreadLogWork
FUNC 546f8 4fe 0 WgjFunctionEx::ThreadRedisWork
FUNC 54bf6 134 0 WgjFunctionEx::setHeartBeatTime
FUNC 54d2a 1cc 0 WgjFunctionEx::serializeLog
FUNC 54ef6 7ac 0 WgjFunctionEx::LogToFile
FUNC 556a2 179 0 WgjFunctionEx::isCreateDir
FUNC 5581c 25 0 WgjFunctionEx::GetCurrentTime
FUNC 55841 1dd 0 __static_initialization_and_destruction_0
FUNC 55a1e 15 0 _GLOBAL__I_WgjFunctionEx.cpp
FUNC 55a34 2e 0 RealLogResponse::set_channelname
FUNC 55a62 2e 0 RealLogResponse::set_devname
FUNC 55a90 2e 0 RealLogResponse::set_logdetail
FUNC 55abe 2e 0 HeartBeatMessage::set_channelname
FUNC 55aec 55 0 stWriteValue::~stWriteValue
FUNC 55b42 1b 0 WgjFunctionEx::SetLogMode
FUNC 55b5e 1a 0 std::list<stWriteValue, std::allocator<stWriteValue> >::~list
FUNC 55b78 1a 0 std::list<stLogInfo, std::allocator<stLogInfo> >::~list
FUNC 55b92 1a 0 std::list<stWriteValue, std::allocator<stWriteValue> >::list
FUNC 55bac 1a 0 std::_List_base<stWriteValue, std::allocator<stWriteValue> >::_List_impl::~_List_impl
FUNC 55bc6 51 0 std::_List_base<stWriteValue, std::allocator<stWriteValue> >::~_List_base
FUNC 55c18 1a 0 std::list<stLogInfo, std::allocator<stLogInfo> >::list
FUNC 55c32 1a 0 std::_List_base<stLogInfo, std::allocator<stLogInfo> >::_List_impl::~_List_impl
FUNC 55c4c 51 0 std::_List_base<stLogInfo, std::allocator<stLogInfo> >::~_List_base
FUNC 55c9e 3a 0 std::list<stLogInfo, std::allocator<stLogInfo> >::size
FUNC 55cd8 28 0 std::list<stLogInfo, std::allocator<stLogInfo> >::begin
FUNC 55d00 15 0 std::_List_iterator<stLogInfo>::operator->
FUNC 55d16 2c 0 std::list<stLogInfo, std::allocator<stLogInfo> >::pop_front
FUNC 55d42 26 0 std::list<stLogInfo, std::allocator<stLogInfo> >::clear
FUNC 55d68 6e 0 std::operator+<char, std::char_traits<char>, std::allocator<char> >
FUNC 55dd6 51 0 std::_List_base<stWriteValue, std::allocator<stWriteValue> >::_List_base
FUNC 55e28 1a 0 std::allocator<std::_List_node<stWriteValue> >::~allocator
FUNC 55e42 b8 0 std::_List_base<stWriteValue, std::allocator<stWriteValue> >::_M_clear
FUNC 55efa 51 0 std::_List_base<stLogInfo, std::allocator<stLogInfo> >::_List_base
FUNC 55f4c 1a 0 std::allocator<std::_List_node<stLogInfo> >::~allocator
FUNC 55f66 b8 0 std::_List_base<stLogInfo, std::allocator<stLogInfo> >::_M_clear
FUNC 5601e 28 0 std::list<stLogInfo, std::allocator<stLogInfo> >::begin
FUNC 56046 25 0 std::list<stLogInfo, std::allocator<stLogInfo> >::end
FUNC 5606b 3d 0 std::distance<std::_List_const_iterator<stLogInfo> >
FUNC 560a8 9a 0 std::list<stLogInfo, std::allocator<stLogInfo> >::_M_erase
FUNC 56142 21 0 std::_List_base<stLogInfo, std::allocator<stLogInfo> >::_M_init
FUNC 56164 31 0 std::_List_base<stWriteValue, std::allocator<stWriteValue> >::_List_impl::_List_impl
FUNC 56196 21 0 std::_List_base<stWriteValue, std::allocator<stWriteValue> >::_M_init
FUNC 561b8 a 0 __gnu_cxx::new_allocator<std::_List_node<stWriteValue> >::~new_allocator
FUNC 561c2 3b 0 std::_List_base<stWriteValue, std::allocator<stWriteValue> >::_M_get_Tp_allocator
FUNC 561fe 1a 0 std::allocator<stWriteValue>::~allocator
FUNC 56218 1e 0 __gnu_cxx::new_allocator<stWriteValue>::destroy
FUNC 56236 2a 0 std::_List_base<stWriteValue, std::allocator<stWriteValue> >::_M_put_node
FUNC 56260 31 0 std::_List_base<stLogInfo, std::allocator<stLogInfo> >::_List_impl::_List_impl
FUNC 56292 a 0 __gnu_cxx::new_allocator<std::_List_node<stLogInfo> >::~new_allocator
FUNC 5629c 1e 0 __gnu_cxx::new_allocator<stLogInfo>::destroy
FUNC 562ba 19 0 std::_List_const_iterator<stLogInfo>::_List_const_iterator
FUNC 562d3 a 0 std::__iterator_category<std::_List_const_iterator<stLogInfo> >
FUNC 562dd 48 0 std::__distance<std::_List_const_iterator<stLogInfo> >
FUNC 56326 1a 0 std::allocator<std::_List_node<stWriteValue> >::allocator
FUNC 56340 e 0 std::_List_base<stWriteValue, std::allocator<stWriteValue> >::_M_get_Node_allocator
FUNC 5634e 1e 0 std::allocator<stWriteValue>::allocator<std::_List_node<stWriteValue> >
FUNC 5636c a 0 __gnu_cxx::new_allocator<stWriteValue>::~new_allocator
FUNC 56376 22 0 __gnu_cxx::new_allocator<std::_List_node<stWriteValue> >::deallocate
FUNC 56398 1a 0 std::allocator<std::_List_node<stLogInfo> >::allocator
FUNC 563b2 22 0 std::_List_const_iterator<stLogInfo>::operator!=
FUNC 563d4 1f 0 std::_List_const_iterator<stLogInfo>::operator++
FUNC 563f4 a 0 __gnu_cxx::new_allocator<std::_List_node<stWriteValue> >::new_allocator
FUNC 563fe a 0 __gnu_cxx::new_allocator<stWriteValue>::new_allocator
FUNC 56408 a 0 __gnu_cxx::new_allocator<std::_List_node<stLogInfo> >::new_allocator
FUNC 56414 f3 0 Log::Logger::Logger
FUNC 56508 e2 0 Log::Logger::~Logger
FUNC 565ea b9a 0 Log::Logger::trafficLogger
FUNC 57184 507 0 Log::Logger::configLogger
FUNC 5768b 112 0 __static_initialization_and_destruction_0
FUNC 5779d 15 0 _GLOBAL__I__ZN3Log6LoggerC2Ev
FUNC 577b2 1e 0 boost::shared_ptr<Config::ConfigCenter>::~shared_ptr
FUNC 577d0 3a 0 boost::shared_ptr<Config::ConfigCenter>::operator->
FUNC 5780a 29 0 log4cplus::helpers::SharedObjectPtr<log4cplus::Appender>::SharedObjectPtr
FUNC 57834 41 0 log4cplus::helpers::SharedObjectPtr<log4cplus::Appender>::~SharedObjectPtr
FUNC 57876 19 0 std::auto_ptr<log4cplus::Layout>::auto_ptr
FUNC 57890 37 0 std::auto_ptr<log4cplus::Layout>::~auto_ptr
FUNC 578c8 3a 0 log4cplus::helpers::SharedObjectPtr<log4cplus::Appender>::operator->
FUNC 57902 25 0 std::auto_ptr<log4cplus::Layout>::auto_ptr
FUNC 57928 2c 0 log4cplus::helpers::SharedObjectPtr<log4cplus::Appender>::SharedObjectPtr
FUNC 57954 41 0 log4cplus::helpers::SharedObjectPtr<log4cplus::Appender>::addref
FUNC 57996 24 0 std::auto_ptr<log4cplus::Layout>::release
FUNC 579bc 279 0 Config::ConfigCenter::instance
FUNC 57c36 488 0 Config::ConfigCenter::loadConfig
FUNC 580be 5c3 0 Config::ConfigCenter::borrowFrom
FUNC 58682 68 0 Config::ConfigCenter::ConfigCenter
FUNC 586ea af 0 Config::ConfigCenter::~ConfigCenter
FUNC 5879a 68e 0 Config::ConfigCenter::loadXml
FUNC 58e28 2ea 0 Config::ConfigCenter::saveXml
FUNC 59112 78 0 Config::ConfigCenter::get
FUNC 5918a 197 0 Config::ConfigCenter::set
FUNC 59322 19a 0 Config::ConfigCenter::setInt
FUNC 594bc 1a8 0 Config::ConfigCenter::registValueWatcher
FUNC 59664 19a 0 Config::ConfigCenter::unregistIntValueWatcher
FUNC 597fe a1 0 Config::ConfigCenter::get
FUNC 598a0 19a 0 Config::ConfigCenter::set
FUNC 59a3a 1a8 0 Config::ConfigCenter::registValueWatcher
FUNC 59be2 19a 0 Config::ConfigCenter::unregistStrValueWatcher
FUNC 59d7c 233 0 __static_initialization_and_destruction_0
FUNC 59faf 15 0 _GLOBAL__I__ZN6Config12ConfigCenter16TOP_XMLNODE_NAMEE
FUNC 59fc4 14 0 std::operator&
FUNC 59fd8 2d 0 std::operator&=
FUNC 5a005 e 0 std::operator~
FUNC 5a014 2d 0 std::ios_base::unsetf
FUNC 5a042 f 0 boost::condition_error::what
FUNC 5a052 25 0 boost::lock_error::lock_error
FUNC 5a078 15 0 boost::detail::shared_count::shared_count
FUNC 5a08e 32 0 boost::detail::shared_count::swap
FUNC 5a0c0 51 0 boost::pthread::pthread_mutex_scoped_lock::pthread_mutex_scoped_lock
FUNC 5a112 42 0 boost::pthread::pthread_mutex_scoped_lock::unlock
FUNC 5a154 26 0 boost::pthread::pthread_mutex_scoped_lock::~pthread_mutex_scoped_lock
FUNC 5a17a e7 0 boost::condition_variable::condition_variable
FUNC 5a262 64 0 boost::condition_variable::~condition_variable
FUNC 5a2c6 4a 0 boost::detail::interruption_checker::check_for_interruption
FUNC 5a310 14a 0 boost::detail::interruption_checker::interruption_checker
FUNC 5a45a c0 0 boost::detail::interruption_checker::~interruption_checker
FUNC 5a51a 25 0 boost::condition_error::condition_error
FUNC 5a540 3a 0 boost::condition_error::~condition_error
FUNC 5a57a 26 0 boost::condition_error::~condition_error
FUNC 5a5a0 113 0 boost::condition_variable::wait
FUNC 5a6b4 5a 0 boost::condition_variable::notify_one
FUNC 5a70e 5a 0 boost::condition_variable::notify_all
FUNC 5a768 30 0 boost::shared_mutex::release_waiters
FUNC 5a798 d9 0 boost::shared_mutex::shared_mutex
FUNC 5a872 52 0 boost::shared_mutex::~shared_mutex
FUNC 5a8c4 dd 0 boost::shared_mutex::lock_shared
FUNC 5a9a2 98 0 boost::shared_mutex::unlock_shared
FUNC 5aa3a df 0 boost::shared_mutex::lock
FUNC 5ab1a 4d 0 boost::shared_mutex::unlock
FUNC 5ab68 12 0 Config::IntParameter::_getCheckRange
FUNC 5ab7a 11 0 Config::IntParameter::_getMinValue
FUNC 5ab8c 11 0 Config::IntParameter::_getMaxValue
FUNC 5ab9e 11 0 Config::IntParameter::_getValue
FUNC 5abb0 12 0 Config::StringParameter::_getValue
FUNC 5abc2 45 0 rapidxml::parse_error::parse_error
FUNC 5ac08 12 0 rapidxml::parse_error::what
FUNC 5ac1a 140 0 Config::XmlParameter::~XmlParameter
FUNC 5ad5a 82 0 Config::XmlGroup::XmlGroup
FUNC 5addc 84 0 Config::XmlGroup::~XmlGroup
FUNC 5ae60 3b 0 boost::shared_ptr<Config::ConfigCenter>::shared_ptr
FUNC 5ae9c 1a 0 std::map<std::basic_string<char, std::char_traits<char>, std::allocator<char> >, Config::IntParameter, std::less<std::basic_string<char, std::char_traits<char>, std::allocator<char> > >, std::allocator<std::pair<const std::basic_string<char, std::char_traits<char>, std::allocator<char> >, Config::IntParameter> > >::~map
FUNC 5aeb6 1a 0 std::map<std::basic_string<char, std::char_traits<char>, std::allocator<char> >, Config::StringParameter, std::less<std::basic_string<char, std::char_traits<char>, std::allocator<char> > >, std::allocator<std::pair<const std::basic_string<char, std::char_traits<char>, std::allocator<char> >, Config::StringParameter> > >::~map
FUNC 5aed0 5f 0 Config::XmlGroup::operator=
FUNC 5af30 1a 0 rapidxml::file<char>::~file
FUNC 5af4a 1e 0 rapidxml::xml_document<char>::~xml_document
FUNC 5af68 15 0 boost::thread_cv_detail::lock_on_exit<boost::unique_lock<boost::mutex> >::lock_on_exit
FUNC 5af7e 29 0 boost::thread_cv_detail::lock_on_exit<boost::unique_lock<boost::mutex> >::~lock_on_exit
FUNC 5afa8 29 0 boost::thread_cv_detail::lock_on_exit<boost::unique_lock<boost::mutex> >::activate
FUNC 5afd2 30 0 boost::condition_error::condition_error
FUNC 5b002 80 0 boost::exception_detail::error_info_injector<boost::condition_error>::error_info_injector
FUNC 5b082 63 0 boost::exception_detail::clone_impl<boost::exception_detail::error_info_injector<boost::condition_error> >::clone_impl
FUNC 5b0e5 a2 0 boost::throw_exception<boost::condition_error>
FUNC 5b188 31 0 boost::unique_lock<boost::mutex>::unique_lock
FUNC 5b1ba 2d 0 boost::unique_lock<boost::mutex>::~unique_lock
FUNC 5b1e8 31 0 boost::shared_lock<boost::shared_mutex>::shared_lock
FUNC 5b21a 2d 0 boost::shared_lock<boost::shared_mutex>::~shared_lock
FUNC 5b248 79 0 boost::unique_lock<boost::mutex>::unlock
FUNC 5b2c2 76 0 boost::unique_lock<boost::mutex>::lock
FUNC 5b338 1a 0 std::vector<Config::XmlGroup, std::allocator<Config::XmlGroup> >::vector
FUNC 5b352 6e 0 std::vector<Config::XmlGroup, std::allocator<Config::XmlGroup> >::~vector
FUNC 5b3c0 1a 0 std::vector<Config::XmlParameter, std::allocator<Config::XmlParameter> >::vector
FUNC 5b3da 6e 0 std::vector<Config::XmlParameter, std::allocator<Config::XmlParameter> >::~vector
FUNC 5b448 29 0 boost::shared_ptr<Config::ConfigCenter>::shared_ptr
FUNC 5b472 11 0 boost::shared_ptr<Config::ConfigCenter>::get
FUNC 5b484 31 0 boost::unique_lock<boost::shared_mutex>::unique_lock
FUNC 5b4b6 2d 0 boost::unique_lock<boost::shared_mutex>::~unique_lock
FUNC 5b4e4 9c 0 boost::shared_ptr<Config::ConfigCenter>::reset<Config::ConfigCenter>
FUNC 5b580 50 0 boost::shared_ptr<Config::ConfigCenter>::shared_ptr<Config::ConfigCenter>
FUNC 5b5d0 73 0 boost::shared_ptr<Config::ConfigCenter>::operator=
FUNC 5b644 1a 0 std::map<std::basic_string<char, std::char_traits<char>, std::allocator<char> >, Config::IntParameter, std::less<std::basic_string<char, std::char_traits<char>, std::allocator<char> > >, std::allocator<std::pair<const std::basic_string<char, std::char_traits<char>, std::allocator<char> >, Config::IntParameter> > >::begin
FUNC 5b65e 1a 0 std::map<std::basic_string<char, std::char_traits<char>, std::allocator<char> >, Config::IntParameter, std::less<std::basic_string<char, std::char_traits<char>, std::allocator<char> > >, std::allocator<std::pair<const std::basic_string<char, std::char_traits<char>, std::allocator<char> >, Config::IntParameter> > >::end
FUNC 5b678 1a 0 std::map<std::basic_string<char, std::char_traits<char>, std::allocator<char> >, Config::IntParameter, std::less<std::basic_string<char, std::char_traits<char>, std::allocator<char> > >, std::allocator<std::pair<const std::basic_string<char, std::char_traits<char>, std::allocator<char> >, Config::IntParameter> > >::key_comp
FUNC 5b692 1a 0 std::map<std::basic_string<char, std::char_traits<char>, std::allocator<char> >, Config::IntParameter, std::less<std::basic_string<char, std::char_traits<char>, std::allocator<char> > >, std::allocator<std::pair<const std::basic_string<char, std::char_traits<char>, std::allocator<char> >, Config::IntParameter> > >::map
FUNC 5b6ac 1a 0 std::_Rb_tree<std::basic_string<char, std::char_traits<char>, std::allocator<char> >, std::pair<const std::basic_string<char, std::char_traits<char>, std::allocator<char> >, Config::IntParameter>, std::_Select1st<std::pair<const std::basic_string<char, std::char_traits<char>, std::allocator<char> >, Config::IntParameter> >, std::less<std::basic_string<char, std::char_traits<char>, std::allocator<char> > >, std::allocator<std::pair<const std::basic_string<char, std::char_traits<char>, std::allocator<char> >, Config::IntParameter> > >::_Rb_tree_impl<std::less<std::basic_string<char, std::char_traits<char>, std::allocator<char> > >, false>::~_Rb_tree_impl
FUNC 5b6c6 63 0 std::_Rb_tree<std::basic_string<char, std::char_traits<char>, std::allocator<char> >, std::pair<const std::basic_string<char, std::char_traits<char>, std::allocator<char> >, Config::IntParameter>, std::_Select1st<std::pair<const std::basic_string<char, std::char_traits<char>, std::allocator<char> >, Config::IntParameter> >, std::less<std::basic_string<char, std::char_traits<char>, std::allocator<char> > >, std::allocator<std::pair<const std::basic_string<char, std::char_traits<char>, std::allocator<char> >, Config::IntParameter> > >::~_Rb_tree
FUNC 5b72a 22 0 std::_Rb_tree_iterator<std::pair<const std::basic_string<char, std::char_traits<char>, std::allocator<char> >, Config::IntParameter> >::operator!=
FUNC 5b74c 15 0 std::_Rb_tree_iterator<std::pair<const std::basic_string<char, std::char_traits<char>, std::allocator<char> >, Config::IntParameter> >::operator->
FUNC 5b762 28 0 std::_Rb_tree_iterator<std::pair<const std::basic_string<char, std::char_traits<char>, std::allocator<char> >, Config::IntParameter> >::operator++
FUNC 5b78a 15 0 std::_Rb_tree_iterator<std::pair<const std::basic_string<char, std::char_traits<char>, std::allocator<char> >, Config::IntParameter> >::operator*
FUNC 5b7a0 47 0 std::map<std::basic_string<char, std::char_traits<char>, std::allocator<char> >, Config::IntParameter, std::less<std::basic_string<char, std::char_traits<char>, std::allocator<char> > >, std::allocator<std::pair<const std::basic_string<char, std::char_traits<char>, std::allocator<char> >, Config::IntParameter> > >::insert
FUNC 5b7e8 36 0 std::_Rb_tree_iterator<std::pair<const std::basic_string<char, std::char_traits<char>, std::allocator<char> >, Config::IntParameter> >::operator++
FUNC 5b81e 2d 0 std::map<std::basic_string<char, std::char_traits<char>, std::allocator<char> >, Config::IntParameter, std::less<std::basic_string<char, std::char_traits<char>, std::allocator<char> > >, std::allocator<std::pair<const std::basic_string<char, std::char_traits<char>, std::allocator<char> >, Config::IntParameter> > >::insert<std::_Rb_tree_iterator<std::pair<const std::basic_string<char, std::char_traits<char>, std::allocator<char> >, Config::IntParameter> > >
FUNC 5b84c 1a 0 std::map<std::basic_string<char, std::char_traits<char>, std::allocator<char> >, Config::StringParameter, std::less<std::basic_string<char, std::char_traits<char>, std::allocator<char> > >, std::allocator<std::pair<const std::basic_string<char, std::char_traits<char>, std::allocator<char> >, Config::StringParameter> > >::begin
FUNC 5b866 1a 0 std::map<std::basic_string<char, std::char_traits<char>, std::allocator<char> >, Config::StringParameter, std::less<std::basic_string<char, std::char_traits<char>, std::allocator<char> > >, std::allocator<std::pair<const std::basic_string<char, std::char_traits<char>, std::allocator<char> >, Config::StringParameter> > >::end
FUNC 5b880 1a 0 std::map<std::basic_string<char, std::char_traits<char>, std::allocator<char> >, Config::StringParameter, std::less<std::basic_string<char, std::char_traits<char>, std::allocator<char> > >, std::allocator<std::pair<const std::basic_string<char, std::char_traits<char>, std::allocator<char> >, Config::StringParameter> > >::key_comp
FUNC 5b89a 1a 0 std::map<std::basic_string<char, std::char_traits<char>, std::allocator<char> >, Config::StringParameter, std::less<std::basic_string<char, std::char_traits<char>, std::allocator<char> > >, std::allocator<std::pair<const std::basic_string<char, std::char_traits<char>, std::allocator<char> >, Config::StringParameter> > >::map
FUNC 5b8b4 1a 0 std::_Rb_tree<std::basic_string<char, std::char_traits<char>, std::allocator<char> >, std::pair<const std::basic_string<char, std::char_traits<char>, std::allocator<char> >, Config::StringParameter>, std::_Select1st<std::pair<const std::basic_string<char, std::char_traits<char>, std::allocator<char> >, Config::StringParameter> >, std::less<std::basic_string<char, std::char_traits<char>, std::allocator<char> > >, std::allocator<std::pair<const std::basic_string<char, std::char_traits<char>, std::allocator<char> >, Config::StringParameter> > >::_Rb_tree_impl<std::less<std::basic_string<char, std::char_traits<char>, std::allocator<char> > >, false>::~_Rb_tree_impl
FUNC 5b8ce 63 0 std::_Rb_tree<std::basic_string<char, std::char_traits<char>, std::allocator<char> >, std::pair<const std::basic_string<char, std::char_traits<char>, std::allocator<char> >, Config::StringParameter>, std::_Select1st<std::pair<const std::basic_string<char, std::char_traits<char>, std::allocator<char> >, Config::StringParameter> >, std::less<std::basic_string<char, std::char_traits<char>, std::allocator<char> > >, std::allocator<std::pair<const std::basic_string<char, std::char_traits<char>, std::allocator<char> >, Config::StringParameter> > >::~_Rb_tree
FUNC 5b932 22 0 std::_Rb_tree_iterator<std::pair<const std::basic_string<char, std::char_traits<char>, std::allocator<char> >, Config::StringParameter> >::operator!=
FUNC 5b954 15 0 std::_Rb_tree_iterator<std::pair<const std::basic_string<char, std::char_traits<char>, std::allocator<char> >, Config::StringParameter> >::operator->
FUNC 5b96a 28 0 std::_Rb_tree_iterator<std::pair<const std::basic_string<char, std::char_traits<char>, std::allocator<char> >, Config::StringParameter> >::operator++
FUNC 5b992 15 0 std::_Rb_tree_iterator<std::pair<const std::basic_string<char, std::char_traits<char>, std::allocator<char> >, Config::StringParameter> >::operator*
FUNC 5b9a8 47 0 std::map<std::basic_string<char, std::char_traits<char>, std::allocator<char> >, Config::StringParameter, std::less<std::basic_string<char, std::char_traits<char>, std::allocator<char> > >, std::allocator<std::pair<const std::basic_string<char, std::char_traits<char>, std::allocator<char> >, Config::StringParameter> > >::insert
FUNC 5b9f0 36 0 std::_Rb_tree_iterator<std::pair<const std::basic_string<char, std::char_traits<char>, std::allocator<char> >, Config::StringParameter> >::operator++
FUNC 5ba26 2d 0 std::map<std::basic_string<char, std::char_traits<char>, std::allocator<char> >, Config::StringParameter, std::less<std::basic_string<char, std::char_traits<char>, std::allocator<char> > >, std::allocator<std::pair<const std::basic_string<char, std::char_traits<char>, std::allocator<char> >, Config::StringParameter> > >::insert<std::_Rb_tree_iterator<std::pair<const std::basic_string<char, std::char_traits<char>, std::allocator<char> >, Config::StringParameter> > >
FUNC 5ba54 295 0 std::vector<Config::XmlGroup, std::allocator<Config::XmlGroup> >::operator=
FUNC 5bcea 295 0 std::vector<Config::XmlParameter, std::allocator<Config::XmlParameter> >::operator=
FUNC 5bf80 32d 0 rapidxml::file<char>::file
FUNC 5c2ae 2f 0 rapidxml::xml_document<char>::xml_document
FUNC 5c2de 1a 0 rapidxml::memory_pool<char>::~memory_pool
FUNC 5c2f8 1a 0 rapidxml::file<char>::data
FUNC 5c312 3a 0 rapidxml::parse_error::~parse_error
FUNC 5c34c 26 0 rapidxml::parse_error::~parse_error
FUNC 5c372 fd 0 rapidxml::xml_document<char>::parse<0>
FUNC 5c470 cf 0 rapidxml::xml_node<char>::first_node
FUNC 5c540 28 0 rapidxml::xml_base<char>::name
FUNC 5c568 28 0 std::operator!=<char, std::char_traits<char>, std::allocator<char> >
FUNC 5c590 b4 0 rapidxml::memory_pool<char>::allocate_string
FUNC 5c644 119 0 rapidxml::memory_pool<char>::allocate_node
FUNC 5c75e d6 0 rapidxml::xml_node<char>::append_node
FUNC 5c834 2a 0 rapidxml::operator<< <char>
FUNC 5c85e 25 0 std::map<std::basic_string<char, std::char_traits<char>, std::allocator<char> >, Config::IntParameter, std::less<std::basic_string<char, std::char_traits<char>, std::allocator<char> > >, std::allocator<std::pair<const std::basic_string<char, std::char_traits<char>, std::allocator<char> >, Config::IntParameter> > >::find
FUNC 5c884 25 0 std::map<std::basic_string<char, std::char_traits<char>, std::allocator<char> >, Config::StringParameter, std::less<std::basic_string<char, std::char_traits<char>, std::allocator<char> > >, std::allocator<std::pair<const std::basic_string<char, std::char_traits<char>, std::allocator<char> >, Config::StringParameter> > >::find
FUNC 5c8a9 2f 0 boost::enable_error_info<boost::condition_error>
FUNC 5c8d8 93 0 boost::exception_detail::error_info_injector<boost::condition_error>::~error_info_injector
FUNC 5c97a 26 0 boost::exception_detail::error_info_injector<boost::condition_error>::~error_info_injector
FUNC 5c9a0 2f 0 boost::enable_current_exception<boost::exception_detail::error_info_injector<boost::condition_error> >
FUNC 5c9d0 7a 0 boost::exception_detail::clone_impl<boost::exception_detail::error_info_injector<boost::condition_error> >::~clone_impl
FUNC 5ca68 26 0 boost::exception_detail::clone_impl<boost::exception_detail::error_info_injector<boost::condition_error> >::~clone_impl
FUNC 5ca8e 12 0 boost::unique_lock<boost::mutex>::owns_lock
FUNC 5caa0 76 0 boost::shared_lock<boost::shared_mutex>::lock
FUNC 5cb16 12 0 boost::shared_lock<boost::shared_mutex>::owns_lock
FUNC 5cb28 1a 0 std::_Vector_base<Config::XmlGroup, std::allocator<Config::XmlGroup> >::_Vector_impl::~_Vector_impl
FUNC 5cb42 1a 0 std::_Vector_base<Config::XmlGroup, std::allocator<Config::XmlGroup> >::_Vector_base
FUNC 5cb5c 8e 0 std::_Vector_base<Config::XmlGroup, std::allocator<Config::XmlGroup> >::~_Vector_base
FUNC 5cbea e 0 std::_Vector_base<Config::XmlGroup, std::allocator<Config::XmlGroup> >::_M_get_Tp_allocator
FUNC 5cbf8 29 0 std::_Destroy<Config::XmlGroup*, Config::XmlGroup>
FUNC 5cc22 1a 0 std::_Vector_base<Config::XmlParameter, std::allocator<Config::XmlParameter> >::_Vector_impl::~_Vector_impl
FUNC 5cc3c 1a 0 std::_Vector_base<Config::XmlParameter, std::allocator<Config::XmlParameter> >::_Vector_base
FUNC 5cc56 8e 0 std::_Vector_base<Config::XmlParameter, std::allocator<Config::XmlParameter> >::~_Vector_base
FUNC 5cce4 e 0 std::_Vector_base<Config::XmlParameter, std::allocator<Config::XmlParameter> >::_M_get_Tp_allocator
FUNC 5ccf2 29 0 std::_Destroy<Config::XmlParameter*, Config::XmlParameter>
FUNC 5cd1c 76 0 boost::unique_lock<boost::shared_mutex>::lock
FUNC 5cd92 12 0 boost::unique_lock<boost::shared_mutex>::owns_lock
FUNC 5cda4 40 0 boost::shared_ptr<Config::ConfigCenter>::swap
FUNC 5cde4 84 0 boost::detail::shared_count::shared_count<Config::ConfigCenter>
FUNC 5ce68 2c 0 std::_Rb_tree<std::basic_string<char, std::char_traits<char>, std::allocator<char> >, std::pair<const std::basic_string<char, std::char_traits<char>, std::allocator<char> >, Config::IntParameter>, std::_Select1st<std::pair<const std::basic_string<char, std::char_traits<char>, std::allocator<char> >, Config::IntParameter> >, std::less<std::basic_string<char, std::char_traits<char>, std::allocator<char> > >, std::allocator<std::pair<const std::basic_string<char, std::char_traits<char>, std::allocator<char> >, Config::IntParameter> > >::begin
FUNC 5ce94 2c 0 std::_Rb_tree<std::basic_string<char, std::char_traits<char>, std::allocator<char> >, std::pair<const std::basic_string<char, std::char_traits<char>, std::allocator<char> >, Config::IntParameter>, std::_Select1st<std::pair<const std::basic_string<char, std::char_traits<char>, std::allocator<char> >, Config::IntParameter> >, std::less<std::basic_string<char, std::char_traits<char>, std::allocator<char> > >, std::allocator<std::pair<const std::basic_string<char, std::char_traits<char>, std::allocator<char> >, Config::IntParameter> > >::end
FUNC 5cec0 a 0 std::_Rb_tree<std::basic_string<char, std::char_traits<char>, std::allocator<char> >, std::pair<const std::basic_string<char, std::char_traits<char>, std::allocator<char> >, Config::IntParameter>, std::_Select1st<std::pair<const std::basic_string<char, std::char_traits<char>, std::allocator<char> >, Config::IntParameter> >, std::less<std::basic_string<char, std::char_traits<char>, std::allocator<char> > >, std::allocator<std::pair<const std::basic_string<char, std::char_traits<char>, std::allocator<char> >, Config::IntParameter> > >::key_comp
FUNC 5ceca 1a 0 std::_Rb_tree<std::basic_string<char, std::char_traits<char>, std::allocator<char> >, std::pair<const std::basic_string<char, std::char_traits<char>, std::allocator<char> >, Config::IntParameter>, std::_Select1st<std::pair<const std::basic_string<char, std::char_traits<char>, std::allocator<char> >, Config::IntParameter> >, std::less<std::basic_string<char, std::char_traits<char>, std::allocator<char> > >, std::allocator<std::pair<const std::basic_string<char, std::char_traits<char>, std::allocator<char> >, Config::IntParameter> > >::_Rb_tree
FUNC 5cee4 1a 0 std::allocator<std::_Rb_tree_node<std::pair<const std::basic_string<char, std::char_traits<char>, std::allocator<char> >, Config::IntParameter> > >::~allocator
FUNC 5cefe 69 0 std::_Rb_tree<std::basic_string<char, std::char_traits<char>, std::allocator<char> >, std::pair<const std::basic_string<char, std::char_traits<char>, std::allocator<char> >, Config::IntParameter>, std::_Select1st<std::pair<const std::basic_string<char, std::char_traits<char>, std::allocator<char> >, Config::IntParameter> >, std::less<std::basic_string<char, std::char_traits<char>, std::allocator<char> > >, std::allocator<std::pair<const std::basic_string<char, std::char_traits<char>, std::allocator<char> >, Config::IntParameter> > >::_M_erase
FUNC 5cf68 12 0 std::_Rb_tree<std::basic_string<char, std::char_traits<char>, std::allocator<char> >, std::pair<const std::basic_string<char, std::char_traits<char>, std::allocator<char> >, Config::IntParameter>, std::_Select1st<std::pair<const std::basic_string<char, std::char_traits<char>, std::allocator<char> >, Config::IntParameter> >, std::less<std::basic_string<char, std::char_traits<char>, std::allocator<char> > >, std::allocator<std::pair<const std::basic_string<char, std::char_traits<char>, std::allocator<char> >, Config::IntParameter> > >::_M_begin
FUNC 5cf7a 271 0 std::_Rb_tree<std::basic_string<char, std::char_traits<char>, std::allocator<char> >, std::pair<const std::basic_string<char, std::char_traits<char>, std::allocator<char> >, Config::IntParameter>, std::_Select1st<std::pair<const std::basic_string<char, std::char_traits<char>, std::allocator<char> >, Config::IntParameter> >, std::less<std::basic_string<char, std::char_traits<char>, std::allocator<char> > >, std::allocator<std::pair<const std::basic_string<char, std::char_traits<char>, std::allocator<char> >, Config::IntParameter> > >::_M_insert_unique
FUNC 5d1ec 89 0 std::_Rb_tree<std::basic_string<char, std::char_traits<char>, std::allocator<char> >, std::pair<const std::basic_string<char, std::char_traits<char>, std::allocator<char> >, Config::IntParameter>, std::_Select1st<std::pair<const std::basic_string<char, std::char_traits<char>, std::allocator<char> >, Config::IntParameter> >, std::less<std::basic_string<char, std::char_traits<char>, std::allocator<char> > >, std::allocator<std::pair<const std::basic_string<char, std::char_traits<char>, std::allocator<char> >, Config::IntParameter> > >::_M_insert_unique<std::_Rb_tree_iterator<std::pair<const std::basic_string<char, std::char_traits<char>, std::allocator<char> >, Config::IntParameter> > >
FUNC 5d276 2c 0 std::_Rb_tree<std::basic_string<char, std::char_traits<char>, std::allocator<char> >, std::pair<const std::basic_string<char, std::char_traits<char>, std::allocator<char> >, Config::StringParameter>, std::_Select1st<std::pair<const std::basic_string<char, std::char_traits<char>, std::allocator<char> >, Config::StringParameter> >, std::less<std::basic_string<char, std::char_traits<char>, std::allocator<char> > >, std::allocator<std::pair<const std::basic_string<char, std::char_traits<char>, std::allocator<char> >, Config::StringParameter> > >::begin
FUNC 5d2a2 2c 0 std::_Rb_tree<std::basic_string<char, std::char_traits<char>, std::allocator<char> >, std::pair<const std::basic_string<char, std::char_traits<char>, std::allocator<char> >, Config::StringParameter>, std::_Select1st<std::pair<const std::basic_string<char, std::char_traits<char>, std::allocator<char> >, Config::StringParameter> >, std::less<std::basic_string<char, std::char_traits<char>, std::allocator<char> > >, std::allocator<std::pair<const std::basic_string<char, std::char_traits<char>, std::allocator<char> >, Config::StringParameter> > >::end
FUNC 5d2ce a 0 std::_Rb_tree<std::basic_string<char, std::char_traits<char>, std::allocator<char> >, std::pair<const std::basic_string<char, std::char_traits<char>, std::allocator<char> >, Config::StringParameter>, std::_Select1st<std::pair<const std::basic_string<char, std::char_traits<char>, std::allocator<char> >, Config::StringParameter> >, std::less<std::basic_string<char, std::char_traits<char>, std::allocator<char> > >, std::allocator<std::pair<const std::basic_string<char, std::char_traits<char>, std::allocator<char> >, Config::StringParameter> > >::key_comp
FUNC 5d2d8 1a 0 std::_Rb_tree<std::basic_string<char, std::char_traits<char>, std::allocator<char> >, std::pair<const std::basic_string<char, std::char_traits<char>, std::allocator<char> >, Config::StringParameter>, std::_Select1st<std::pair<const std::basic_string<char, std::char_traits<char>, std::allocator<char> >, Config::StringParameter> >, std::less<std::basic_string<char, std::char_traits<char>, std::allocator<char> > >, std::allocator<std::pair<const std::basic_string<char, std::char_traits<char>, std::allocator<char> >, Config::StringParameter> > >::_Rb_tree
FUNC 5d2f2 1a 0 std::allocator<std::_Rb_tree_node<std::pair<const std::basic_string<char, std::char_traits<char>, std::allocator<char> >, Config::StringParameter> > >::~allocator
FUNC 5d30c 69 0 std::_Rb_tree<std::basic_string<char, std::char_traits<char>, std::allocator<char> >, std::pair<const std::basic_string<char, std::char_traits<char>, std::allocator<char> >, Config::StringParameter>, std::_Select1st<std::pair<const std::basic_string<char, std::char_traits<char>, std::allocator<char> >, Config::StringParameter> >, std::less<std::basic_string<char, std::char_traits<char>, std::allocator<char> > >, std::allocator<std::pair<const std::basic_string<char, std::char_traits<char>, std::allocator<char> >, Config::StringParameter> > >::_M_erase
FUNC 5d376 12 0 std::_Rb_tree<std::basic_string<char, std::char_traits<char>, std::allocator<char> >, std::pair<const std::basic_string<char, std::char_traits<char>, std::allocator<char> >, Config::StringParameter>, std::_Select1st<std::pair<const std::basic_string<char, std::char_traits<char>, std::allocator<char> >, Config::StringParameter> >, std::less<std::basic_string<char, std::char_traits<char>, std::allocator<char> > >, std::allocator<std::pair<const std::basic_string<char, std::char_traits<char>, std::allocator<char> >, Config::StringParameter> > >::_M_begin
FUNC 5d388 271 0 std::_Rb_tree<std::basic_string<char, std::char_traits<char>, std::allocator<char> >, std::pair<const std::basic_string<char, std::char_traits<char>, std::allocator<char> >, Config::StringParameter>, std::_Select1st<std::pair<const std::basic_string<char, std::char_traits<char>, std::allocator<char> >, Config::StringParameter> >, std::less<std::basic_string<char, std::char_traits<char>, std::allocator<char> > >, std::allocator<std::pair<const std::basic_string<char, std::char_traits<char>, std::allocator<char> >, Config::StringParameter> > >::_M_insert_unique
FUNC 5d5fa 89 0 std::_Rb_tree<std::basic_string<char, std::char_traits<char>, std::allocator<char> >, std::pair<const std::basic_string<char, std::char_traits<char>, std::allocator<char> >, Config::StringParameter>, std::_Select1st<std::pair<const std::basic_string<char, std::char_traits<char>, std::allocator<char> >, Config::StringParameter> >, std::less<std::basic_string<char, std::char_traits<char>, std::allocator<char> > >, std::allocator<std::pair<const std::basic_string<char, std::char_traits<char>, std::allocator<char> >, Config::StringParameter> > >::_M_insert_unique<std::_Rb_tree_iterator<std::pair<const std::basic_string<char, std::char_traits<char>, std::allocator<char> >, Config::StringParameter> > >
FUNC 5d684 3a 0 std::vector<Config::XmlGroup, std::allocator<Config::XmlGroup> >::size
FUNC 5d6be 3a 0 std::vector<Config::XmlGroup, std::allocator<Config::XmlGroup> >::capacity
FUNC 5d6f8 30 0 std::vector<Config::XmlGroup, std::allocator<Config::XmlGroup> >::begin
FUNC 5d728 31 0 std::vector<Config::XmlGroup, std::allocator<Config::XmlGroup> >::end
FUNC 5d75a a1 0 std::vector<Config::XmlGroup, std::allocator<Config::XmlGroup> >::_M_allocate_and_copy<__gnu_cxx::__normal_iterator<const Config::XmlGroup*, std::vector<Config::XmlGroup, std::allocator<Config::XmlGroup> > > >
FUNC 5d7fc 34 0 std::_Vector_base<Config::XmlGroup, std::allocator<Config::XmlGroup> >::_M_deallocate
FUNC 5d830 25 0 std::vector<Config::XmlGroup, std::allocator<Config::XmlGroup> >::begin
FUNC 5d855 46 0 std::copy<__gnu_cxx::__normal_iterator<const Config::XmlGroup*, std::vector<Config::XmlGroup, std::allocator<Config::XmlGroup> > >, __gnu_cxx::__normal_iterator<Config::XmlGroup*, std::vector<Config::XmlGroup, std::allocator<Config::XmlGroup> > > >
FUNC 5d89c 29 0 std::vector<Config::XmlGroup, std::allocator<Config::XmlGroup> >::end
FUNC 5d8c5 29 0 std::_Destroy<__gnu_cxx::__normal_iterator<Config::XmlGroup*, std::vector<Config::XmlGroup, std::allocator<Config::XmlGroup> > >, Config::XmlGroup>
FUNC 5d8ee 46 0 std::copy<Config::XmlGroup*, Config::XmlGroup*>
FUNC 5d934 31 0 std::__uninitialized_copy_a<Config::XmlGroup*, Config::XmlGroup*, Config::XmlGroup>
FUNC 5d966 3a 0 std::vector<Config::XmlParameter, std::allocator<Config::XmlParameter> >::size
FUNC 5d9a0 3a 0 std::vector<Config::XmlParameter, std::allocator<Config::XmlParameter> >::capacity
FUNC 5d9da 30 0 std::vector<Config::XmlParameter, std::allocator<Config::XmlParameter> >::begin
FUNC 5da0a 31 0 std::vector<Config::XmlParameter, std::allocator<Config::XmlParameter> >::end
FUNC 5da3c a1 0 std::vector<Config::XmlParameter, std::allocator<Config::XmlParameter> >::_M_allocate_and_copy<__gnu_cxx::__normal_iterator<const Config::XmlParameter*, std::vector<Config::XmlParameter, std::allocator<Config::XmlParameter> > > >
FUNC 5dade 34 0 std::_Vector_base<Config::XmlParameter, std::allocator<Config::XmlParameter> >::_M_deallocate
FUNC 5db12 25 0 std::vector<Config::XmlParameter, std::allocator<Config::XmlParameter> >::begin
FUNC 5db37 46 0 std::copy<__gnu_cxx::__normal_iterator<const Config::XmlParameter*, std::vector<Config::XmlParameter, std::allocator<Config::XmlParameter> > >, __gnu_cxx::__normal_iterator<Config::XmlParameter*, std::vector<Config::XmlParameter, std::allocator<Config::XmlParameter> > > >
FUNC 5db7e 29 0 std::vector<Config::XmlParameter, std::allocator<Config::XmlParameter> >::end
FUNC 5dba7 29 0 std::_Destroy<__gnu_cxx::__normal_iterator<Config::XmlParameter*, std::vector<Config::XmlParameter, std::allocator<Config::XmlParameter> > >, Config::XmlParameter>
FUNC 5dbd0 46 0 std::copy<Config::XmlParameter*, Config::XmlParameter*>
FUNC 5dc16 31 0 std::__uninitialized_copy_a<Config::XmlParameter*, Config::XmlParameter*, Config::XmlParameter>
FUNC 5dc48 11 0 std::fpos<__mbstate_t>::operator std::streamoff
FUNC 5dc5a 25 0 std::fpos<__mbstate_t>::fpos
FUNC 5dc80 95 0 std::vector<char, std::allocator<char> >::resize
FUNC 5dd16 2a 0 std::vector<char, std::allocator<char> >::front
FUNC 5dd40 3f 0 rapidxml::xml_node<char>::xml_node
FUNC 5dd80 38 0 rapidxml::memory_pool<char>::memory_pool
FUNC 5ddb8 a5 0 rapidxml::memory_pool<char>::clear
FUNC 5de5e 5f 0 rapidxml::xml_node<char>::remove_all_nodes
FUNC 5debe 5f 0 rapidxml::xml_node<char>::remove_all_attributes
FUNC 5df1e 52 0 rapidxml::xml_document<char>::parse_bom<0>
FUNC 5df70 45 0 rapidxml::xml_document<char>::skip<rapidxml::xml_document<char>::whitespace_pred, 0>
FUNC 5dfb6 3ae 0 rapidxml::xml_document<char>::parse_node<0>
FUNC 5e364 3a 0 rapidxml::internal::measure<char>
FUNC 5e39e e2 0 rapidxml::xml_node<char>::next_sibling
FUNC 5e480 25 0 rapidxml::xml_base<char>::name_size
FUNC 5e4a5 dd 0 rapidxml::internal::compare<char>
FUNC 5e582 b 0 rapidxml::xml_base<char>::nullstr
FUNC 5e58d 2a 0 std::operator==<char, std::char_traits<char>, std::allocator<char> >
FUNC 5e5b8 113 0 rapidxml::memory_pool<char>::allocate_aligned
FUNC 5e6cc 29 0 rapidxml::xml_base<char>::name
FUNC 5e6f6 34 0 rapidxml::xml_base<char>::name
FUNC 5e72a 2a 0 rapidxml::xml_base<char>::value
FUNC 5e754 34 0 rapidxml::xml_base<char>::value
FUNC 5e788 11 0 rapidxml::xml_node<char>::type
FUNC 5e79a 12 0 rapidxml::xml_base<char>::parent
FUNC 5e7ac 4c 0 rapidxml::print<char>
FUNC 5e7f8 b6 0 std::_Rb_tree<std::basic_string<char, std::char_traits<char>, std::allocator<char> >, std::pair<const std::basic_string<char, std::char_traits<char>, std::allocator<char> >, Config::IntParameter>, std::_Select1st<std::pair<const std::basic_string<char, std::char_traits<char>, std::allocator<char> >, Config::IntParameter> >, std::less<std::basic_string<char, std::char_traits<char>, std::allocator<char> > >, std::allocator<std::pair<const std::basic_string<char, std::char_traits<char>, std::allocator<char> >, Config::IntParameter> > >::find
FUNC 5e8ae b6 0 std::_Rb_tree<std::basic_string<char, std::char_traits<char>, std::allocator<char> >, std::pair<const std::basic_string<char, std::char_traits<char>, std::allocator<char> >, Config::StringParameter>, std::_Select1st<std::pair<const std::basic_string<char, std::char_traits<char>, std::allocator<char> >, Config::StringParameter> >, std::less<std::basic_string<char, std::char_traits<char>, std::allocator<char> > >, std::allocator<std::pair<const std::basic_string<char, std::char_traits<char>, std::allocator<char> >, Config::StringParameter> > >::find
FUNC 5e964 4c 0 boost::exception_detail::error_info_injector<boost::condition_error>::error_info_injector
FUNC 5e9b0 b9 0 boost::exception_detail::clone_impl<boost::exception_detail::error_info_injector<boost::condition_error> >::clone_impl
FUNC 5ea6a 3d 0 std::_Vector_base<Config::XmlGroup, std::allocator<Config::XmlGroup> >::_Vector_impl::_Vector_impl
FUNC 5eaa8 1a 0 std::allocator<Config::XmlGroup>::~allocator
FUNC 5eac2 25 0 std::_Destroy<Config::XmlGroup*>
FUNC 5eae8 3d 0 std::_Vector_base<Config::XmlParameter, std::allocator<Config::XmlParameter> >::_Vector_impl::_Vector_impl
FUNC 5eb26 1a 0 std::allocator<Config::XmlParameter>::~allocator
FUNC 5eb40 25 0 std::_Destroy<Config::XmlParameter*>
FUNC 5eb65 32 0 std::swap<Config::ConfigCenter*>
FUNC 5eb98 35 0 boost::detail::sp_counted_impl_p<Config::ConfigCenter>::sp_counted_impl_p
FUNC 5ebcd 2d 0 boost::checked_delete<Config::ConfigCenter>
FUNC 5ebfa 19 0 std::_Rb_tree_iterator<std::pair<const std::basic_string<char, std::char_traits<char>, std::allocator<char> >, Config::IntParameter> >::_Rb_tree_iterator
FUNC 5ec14 61 0 std::_Rb_tree<std::basic_string<char, std::char_traits<char>, std::allocator<char> >, std::pair<const std::basic_string<char, std::char_traits<char>, std::allocator<char> >, Config::IntParameter>, std::_Select1st<std::pair<const std::basic_string<char, std::char_traits<char>, std::allocator<char> >, Config::IntParameter> >, std::less<std::basic_string<char, std::char_traits<char>, std::allocator<char> > >, std::allocator<std::pair<const std::basic_string<char, std::char_traits<char>, std::allocator<char> >, Config::IntParameter> > >::_Rb_tree_impl<std::less<std::basic_string<char, std::char_traits<char>, std::allocator<char> > >, false>::_Rb_tree_impl
FUNC 5ec76 a 0 __gnu_cxx::new_allocator<std::_Rb_tree_node<std::pair<const std::basic_string<char, std::char_traits<char>, std::allocator<char> >, Config::IntParameter> > >::~new_allocator
FUNC 5ec80 12 0 std::_Rb_tree<std::basic_string<char, std::char_traits<char>, std::allocator<char> >, std::pair<const std::basic_string<char, std::char_traits<char>, std::allocator<char> >, Config::IntParameter>, std::_Select1st<std::pair<const std::basic_string<char, std::char_traits<char>, std::allocator<char> >, Config::IntParameter> >, std::less<std::basic_string<char, std::char_traits<char>, std::allocator<char> > >, std::allocator<std::pair<const std::basic_string<char, std::char_traits<char>, std::allocator<char> >, Config::IntParameter> > >::_S_right
FUNC 5ec92 12 0 std::_Rb_tree<std::basic_string<char, std::char_traits<char>, std::allocator<char> >, std::pair<const std::basic_string<char, std::char_traits<char>, std::allocator<char> >, Config::IntParameter>, std::_Select1st<std::pair<const std::basic_string<char, std::char_traits<char>, std::allocator<char> >, Config::IntParameter> >, std::less<std::basic_string<char, std::char_traits<char>, std::allocator<char> > >, std::allocator<std::pair<const std::basic_string<char, std::char_traits<char>, std::allocator<char> >, Config::IntParameter> > >::_S_left
FUNC 5eca4 86 0 std::_Rb_tree<std::basic_string<char, std::char_traits<char>, std::allocator<char> >, std::pair<const std::basic_string<char, std::char_traits<char>, std::allocator<char> >, Config::IntParameter>, std::_Select1st<std::pair<const std::basic_string<char, std::char_traits<char>, std::allocator<char> >, Config::IntParameter> >, std::less<std::basic_string<char, std::char_traits<char>, std::allocator<char> > >, std::allocator<std::pair<const std::basic_string<char, std::char_traits<char>, std::allocator<char> >, Config::IntParameter> > >::_M_destroy_node
FUNC 5ed2a 12 0 std::_Rb_tree<std::basic_string<char, std::char_traits<char>, std::allocator<char> >, std::pair<const std::basic_string<char, std::char_traits<char>, std::allocator<char> >, Config::IntParameter>, std::_Select1st<std::pair<const std::basic_string<char, std::char_traits<char>, std::allocator<char> >, Config::IntParameter> >, std::less<std::basic_string<char, std::char_traits<char>, std::allocator<char> > >, std::allocator<std::pair<const std::basic_string<char, std::char_traits<char>, std::allocator<char> >, Config::IntParameter> > >::_M_end
FUNC 5ed3c 12 0 std::_Select1st<std::pair<const std::basic_string<char, std::char_traits<char>, std::allocator<char> >, Config::IntParameter> >::operator()
FUNC 5ed4e 2c 0 std::_Rb_tree<std::basic_string<char, std::char_traits<char>, std::allocator<char> >, std::pair<const std::basic_string<char, std::char_traits<char>, std::allocator<char> >, Config::IntParameter>, std::_Select1st<std::pair<const std::basic_string<char, std::char_traits<char>, std::allocator<char> >, Config::IntParameter> >, std::less<std::basic_string<char, std::char_traits<char>, std::allocator<char> > >, std::allocator<std::pair<const std::basic_string<char, std::char_traits<char>, std::allocator<char> >, Config::IntParameter> > >::_S_key
FUNC 5ed7a 22 0 std::_Rb_tree_iterator<std::pair<const std::basic_string<char, std::char_traits<char>, std::allocator<char> >, Config::IntParameter> >::operator==
FUNC 5ed9c e3 0 std::_Rb_tree<std::basic_string<char, std::char_traits<char>, std::allocator<char> >, std::pair<const std::basic_string<char, std::char_traits<char>, std::allocator<char> >, Config::IntParameter>, std::_Select1st<std::pair<const std::basic_string<char, std::char_traits<char>, std::allocator<char> >, Config::IntParameter> >, std::less<std::basic_string<char, std::char_traits<char>, std::allocator<char> > >, std::allocator<std::pair<const std::basic_string<char, std::char_traits<char>, std::allocator<char> >, Config::IntParameter> > >::_M_insert_
FUNC 5ee80 2e 0 std::pair<std::_Rb_tree_iterator<std::pair<const std::basic_string<char, std::char_traits<char>, std::allocator<char> >, Config::IntParameter> >, bool>::pair
FUNC 5eeae 28 0 std::_Rb_tree_iterator<std::pair<const std::basic_string<char, std::char_traits<char>, std::allocator<char> >, Config::IntParameter> >::operator--
FUNC 5eed6 2c 0 std::_Rb_tree<std::basic_string<char, std::char_traits<char>, std::allocator<char> >, std::pair<const std::basic_string<char, std::char_traits<char>, std::allocator<char> >, Config::IntParameter>, std::_Select1st<std::pair<const std::basic_string<char, std::char_traits<char>, std::allocator<char> >, Config::IntParameter> >, std::less<std::basic_string<char, std::char_traits<char>, std::allocator<char> > >, std::allocator<std::pair<const std::basic_string<char, std::char_traits<char>, std::allocator<char> >, Config::IntParameter> > >::_S_key
FUNC 5ef02 4c0 0 std::_Rb_tree<std::basic_string<char, std::char_traits<char>, std::allocator<char> >, std::pair<const std::basic_string<char, std::char_traits<char>, std::allocator<char> >, Config::IntParameter>, std::_Select1st<std::pair<const std::basic_string<char, std::char_traits<char>, std::allocator<char> >, Config::IntParameter> >, std::less<std::basic_string<char, std::char_traits<char>, std::allocator<char> > >, std::allocator<std::pair<const std::basic_string<char, std::char_traits<char>, std::allocator<char> >, Config::IntParameter> > >::_M_insert_unique_
FUNC 5f3c2 1c 0 std::_Rb_tree_const_iterator<std::pair<const std::basic_string<char, std::char_traits<char>, std::allocator<char> >, Config::IntParameter> >::_Rb_tree_const_iterator
FUNC 5f3de 19 0 std::_Rb_tree_iterator<std::pair<const std::basic_string<char, std::char_traits<char>, std::allocator<char> >, Config::StringParameter> >::_Rb_tree_iterator
FUNC 5f3f8 61 0 std::_Rb_tree<std::basic_string<char, std::char_traits<char>, std::allocator<char> >, std::pair<const std::basic_string<char, std::char_traits<char>, std::allocator<char> >, Config::StringParameter>, std::_Select1st<std::pair<const std::basic_string<char, std::char_traits<char>, std::allocator<char> >, Config::StringParameter> >, std::less<std::basic_string<char, std::char_traits<char>, std::allocator<char> > >, std::allocator<std::pair<const std::basic_string<char, std::char_traits<char>, std::allocator<char> >, Config::StringParameter> > >::_Rb_tree_impl<std::less<std::basic_string<char, std::char_traits<char>, std::allocator<char> > >, false>::_Rb_tree_impl
FUNC 5f45a a 0 __gnu_cxx::new_allocator<std::_Rb_tree_node<std::pair<const std::basic_string<char, std::char_traits<char>, std::allocator<char> >, Config::StringParameter> > >::~new_allocator
FUNC 5f464 12 0 std::_Rb_tree<std::basic_string<char, std::char_traits<char>, std::allocator<char> >, std::pair<const std::basic_string<char, std::char_traits<char>, std::allocator<char> >, Config::StringParameter>, std::_Select1st<std::pair<const std::basic_string<char, std::char_traits<char>, std::allocator<char> >, Config::StringParameter> >, std::less<std::basic_string<char, std::char_traits<char>, std::allocator<char> > >, std::allocator<std::pair<const std::basic_string<char, std::char_traits<char>, std::allocator<char> >, Config::StringParameter> > >::_S_right
FUNC 5f476 12 0 std::_Rb_tree<std::basic_string<char, std::char_traits<char>, std::allocator<char> >, std::pair<const std::basic_string<char, std::char_traits<char>, std::allocator<char> >, Config::StringParameter>, std::_Select1st<std::pair<const std::basic_string<char, std::char_traits<char>, std::allocator<char> >, Config::StringParameter> >, std::less<std::basic_string<char, std::char_traits<char>, std::allocator<char> > >, std::allocator<std::pair<const std::basic_string<char, std::char_traits<char>, std::allocator<char> >, Config::StringParameter> > >::_S_left
FUNC 5f488 86 0 std::_Rb_tree<std::basic_string<char, std::char_traits<char>, std::allocator<char> >, std::pair<const std::basic_string<char, std::char_traits<char>, std::allocator<char> >, Config::StringParameter>, std::_Select1st<std::pair<const std::basic_string<char, std::char_traits<char>, std::allocator<char> >, Config::StringParameter> >, std::less<std::basic_string<char, std::char_traits<char>, std::allocator<char> > >, std::allocator<std::pair<const std::basic_string<char, std::char_traits<char>, std::allocator<char> >, Config::StringParameter> > >::_M_destroy_node
FUNC 5f50e 12 0 std::_Rb_tree<std::basic_string<char, std::char_traits<char>, std::allocator<char> >, std::pair<const std::basic_string<char, std::char_traits<char>, std::allocator<char> >, Config::StringParameter>, std::_Select1st<std::pair<const std::basic_string<char, std::char_traits<char>, std::allocator<char> >, Config::StringParameter> >, std::less<std::basic_string<char, std::char_traits<char>, std::allocator<char> > >, std::allocator<std::pair<const std::basic_string<char, std::char_traits<char>, std::allocator<char> >, Config::StringParameter> > >::_M_end
FUNC 5f520 12 0 std::_Select1st<std::pair<const std::basic_string<char, std::char_traits<char>, std::allocator<char> >, Config::StringParameter> >::operator()
FUNC 5f532 2c 0 std::_Rb_tree<std::basic_string<char, std::char_traits<char>, std::allocator<char> >, std::pair<const std::basic_string<char, std::char_traits<char>, std::allocator<char> >, Config::StringParameter>, std::_Select1st<std::pair<const std::basic_string<char, std::char_traits<char>, std::allocator<char> >, Config::StringParameter> >, std::less<std::basic_string<char, std::char_traits<char>, std::allocator<char> > >, std::allocator<std::pair<const std::basic_string<char, std::char_traits<char>, std::allocator<char> >, Config::StringParameter> > >::_S_key
FUNC 5f55e 22 0 std::_Rb_tree_iterator<std::pair<const std::basic_string<char, std::char_traits<char>, std::allocator<char> >, Config::StringParameter> >::operator==
FUNC 5f580 e3 0 std::_Rb_tree<std::basic_string<char, std::char_traits<char>, std::allocator<char> >, std::pair<const std::basic_string<char, std::char_traits<char>, std::allocator<char> >, Config::StringParameter>, std::_Select1st<std::pair<const std::basic_string<char, std::char_traits<char>, std::allocator<char> >, Config::StringParameter> >, std::less<std::basic_string<char, std::char_traits<char>, std::allocator<char> > >, std::allocator<std::pair<const std::basic_string<char, std::char_traits<char>, std::allocator<char> >, Config::StringParameter> > >::_M_insert_
FUNC 5f664 2e 0 std::pair<std::_Rb_tree_iterator<std::pair<const std::basic_string<char, std::char_traits<char>, std::allocator<char> >, Config::StringParameter> >, bool>::pair
FUNC 5f692 28 0 std::_Rb_tree_iterator<std::pair<const std::basic_string<char, std::char_traits<char>, std::allocator<char> >, Config::StringParameter> >::operator--
FUNC 5f6ba 2c 0 std::_Rb_tree<std::basic_string<char, std::char_traits<char>, std::allocator<char> >, std::pair<const std::basic_string<char, std::char_traits<char>, std::allocator<char> >, Config::StringParameter>, std::_Select1st<std::pair<const std::basic_string<char, std::char_traits<char>, std::allocator<char> >, Config::StringParameter> >, std::less<std::basic_string<char, std::char_traits<char>, std::allocator<char> > >, std::allocator<std::pair<const std::basic_string<char, std::char_traits<char>, std::allocator<char> >, Config::StringParameter> > >::_S_key
FUNC 5f6e6 4c0 0 std::_Rb_tree<std::basic_string<char, std::char_traits<char>, std::allocator<char> >, std::pair<const std::basic_string<char, std::char_traits<char>, std::allocator<char> >, Config::StringParameter>, std::_Select1st<std::pair<const std::basic_string<char, std::char_traits<char>, std::allocator<char> >, Config::StringParameter> >, std::less<std::basic_string<char, std::char_traits<char>, std::allocator<char> > >, std::allocator<std::pair<const std::basic_string<char, std::char_traits<char>, std::allocator<char> >, Config::StringParameter> > >::_M_insert_unique_
FUNC 5fba6 1c 0 std::_Rb_tree_const_iterator<std::pair<const std::basic_string<char, std::char_traits<char>, std::allocator<char> >, Config::StringParameter> >::_Rb_tree_const_iterator
FUNC 5fbc2 1c 0 __gnu_cxx::__normal_iterator<const Config::XmlGroup*, std::vector<Config::XmlGroup, std::allocator<Config::XmlGroup> > >::__normal_iterator
FUNC 5fbde 38 0 std::_Vector_base<Config::XmlGroup, std::allocator<Config::XmlGroup> >::_M_allocate
FUNC 5fc16 31 0 std::__uninitialized_copy_a<__gnu_cxx::__normal_iterator<const Config::XmlGroup*, std::vector<Config::XmlGroup, std::allocator<Config::XmlGroup> > >, Config::XmlGroup*, Config::XmlGroup>
FUNC 5fc48 22 0 __gnu_cxx::new_allocator<Config::XmlGroup>::deallocate
FUNC 5fc6a 1c 0 __gnu_cxx::__normal_iterator<Config::XmlGroup*, std::vector<Config::XmlGroup, std::allocator<Config::XmlGroup> > >::__normal_iterator
FUNC 5fc86 e 0 std::__miter_base<__gnu_cxx::__normal_iterator<const Config::XmlGroup*, std::vector<Config::XmlGroup, std::allocator<Config::XmlGroup> > >, false>::__b
FUNC 5fc94 73 0 std::__copy_move_a2<false, __gnu_cxx::__normal_iterator<const Config::XmlGroup*, std::vector<Config::XmlGroup, std::allocator<Config::XmlGroup> > >, __gnu_cxx::__normal_iterator<Config::XmlGroup*, std::vector<Config::XmlGroup, std::allocator<Config::XmlGroup> > > >
FUNC 5fd07 25 0 std::_Destroy<__gnu_cxx::__normal_iterator<Config::XmlGroup*, std::vector<Config::XmlGroup, std::allocator<Config::XmlGroup> > > >
FUNC 5fd2c e 0 std::__miter_base<Config::XmlGroup*, false>::__b
FUNC 5fd3a 58 0 std::__copy_move_a2<false, Config::XmlGroup*, Config::XmlGroup*>
FUNC 5fd92 2d 0 std::uninitialized_copy<Config::XmlGroup*, Config::XmlGroup*>
FUNC 5fdc0 1c 0 __gnu_cxx::__normal_iterator<const Config::XmlParameter*, std::vector<Config::XmlParameter, std::allocator<Config::XmlParameter> > >::__normal_iterator
FUNC 5fddc 38 0 std::_Vector_base<Config::XmlParameter, std::allocator<Config::XmlParameter> >::_M_allocate
FUNC 5fe14 31 0 std::__uninitialized_copy_a<__gnu_cxx::__normal_iterator<const Config::XmlParameter*, std::vector<Config::XmlParameter, std::allocator<Config::XmlParameter> > >, Config::XmlParameter*, Config::XmlParameter>
FUNC 5fe46 22 0 __gnu_cxx::new_allocator<Config::XmlParameter>::deallocate
FUNC 5fe68 1c 0 __gnu_cxx::__normal_iterator<Config::XmlParameter*, std::vector<Config::XmlParameter, std::allocator<Config::XmlParameter> > >::__normal_iterator
FUNC 5fe84 e 0 std::__miter_base<__gnu_cxx::__normal_iterator<const Config::XmlParameter*, std::vector<Config::XmlParameter, std::allocator<Config::XmlParameter> > >, false>::__b
FUNC 5fe92 73 0 std::__copy_move_a2<false, __gnu_cxx::__normal_iterator<const Config::XmlParameter*, std::vector<Config::XmlParameter, std::allocator<Config::XmlParameter> > >, __gnu_cxx::__normal_iterator<Config::XmlParameter*, std::vector<Config::XmlParameter, std::allocator<Config::XmlParameter> > > >
FUNC 5ff05 25 0 std::_Destroy<__gnu_cxx::__normal_iterator<Config::XmlParameter*, std::vector<Config::XmlParameter, std::allocator<Config::XmlParameter> > > >
FUNC 5ff2a e 0 std::__miter_base<Config::XmlParameter*, false>::__b
FUNC 5ff38 58 0 std::__copy_move_a2<false, Config::XmlParameter*, Config::XmlParameter*>
FUNC 5ff90 2d 0 std::uninitialized_copy<Config::XmlParameter*, Config::XmlParameter*>
FUNC 5ffbe 44 0 std::vector<char, std::allocator<char> >::_M_erase_at_end
FUNC 60002 3b 0 std::vector<char, std::allocator<char> >::insert
FUNC 6003e 11 0 __gnu_cxx::__normal_iterator<char*, std::vector<char, std::allocator<char> > >::operator*
FUNC 60050 2d 0 rapidxml::xml_base<char>::xml_base
FUNC 6007e 52 0 rapidxml::memory_pool<char>::init
FUNC 600d0 33 0 rapidxml::memory_pool<char>::align
FUNC 60104 bc 0 rapidxml::xml_node<char>::first_attribute
FUNC 601c0 1b 0 rapidxml::xml_document<char>::whitespace_pred::test
FUNC 601dc 201 0 rapidxml::xml_document<char>::parse_element<0>
FUNC 603de bb 0 rapidxml::xml_document<char>::parse_xml_declaration<0>
FUNC 6049a bb 0 rapidxml::xml_document<char>::parse_pi<0>
FUNC 60556 cd 0 rapidxml::xml_document<char>::parse_comment<0>
FUNC 60624 13d 0 rapidxml::xml_document<char>::parse_cdata<0>
FUNC 60762 156 0 rapidxml::xml_document<char>::parse_doctype<0>
FUNC 608b8 6e 0 rapidxml::memory_pool<char>::allocate_raw
FUNC 60926 a 0 std::iterator<std::output_iterator_tag, void, void, void, void>::iterator
FUNC 60930 35 0 std::ostream_iterator<char, char, std::char_traits<char> >::ostream_iterator
FUNC 60966 3c 0 std::ostream_iterator<char, char, std::char_traits<char> >::ostream_iterator
FUNC 609a2 5a 0 rapidxml::print<std::ostream_iterator<char, char, std::char_traits<char> >, char>
FUNC 609fc 92 0 std::_Rb_tree<std::basic_string<char, std::char_traits<char>, std::allocator<char> >, std::pair<const std::basic_string<char, std::char_traits<char>, std::allocator<char> >, Config::IntParameter>, std::_Select1st<std::pair<const std::basic_string<char, std::char_traits<char>, std::allocator<char> >, Config::IntParameter> >, std::less<std::basic_string<char, std::char_traits<char>, std::allocator<char> > >, std::allocator<std::pair<const std::basic_string<char, std::char_traits<char>, std::allocator<char> >, Config::IntParameter> > >::_M_lower_bound
FUNC 60a8e 92 0 std::_Rb_tree<std::basic_string<char, std::char_traits<char>, std::allocator<char> >, std::pair<const std::basic_string<char, std::char_traits<char>, std::allocator<char> >, Config::StringParameter>, std::_Select1st<std::pair<const std::basic_string<char, std::char_traits<char>, std::allocator<char> >, Config::StringParameter> >, std::less<std::basic_string<char, std::char_traits<char>, std::allocator<char> > >, std::allocator<std::pair<const std::basic_string<char, std::char_traits<char>, std::allocator<char> >, Config::StringParameter> > >::_M_lower_bound
FUNC 60b20 1a 0 std::allocator<Config::XmlGroup>::allocator
FUNC 60b3a a 0 __gnu_cxx::new_allocator<Config::XmlGroup>::~new_allocator
FUNC 60b44 34 0 std::_Destroy_aux<false>::__destroy<Config::XmlGroup*>
FUNC 60b78 1a 0 std::allocator<Config::XmlParameter>::allocator
FUNC 60b92 a 0 __gnu_cxx::new_allocator<Config::XmlParameter>::~new_allocator
FUNC 60b9c 34 0 std::_Destroy_aux<false>::__destroy<Config::XmlParameter*>
FUNC 60bd0 1a 0 std::allocator<std::_Rb_tree_node<std::pair<const std::basic_string<char, std::char_traits<char>, std::allocator<char> >, Config::IntParameter> > >::allocator
FUNC 60bea 41 0 std::_Rb_tree<std::basic_string<char, std::char_traits<char>, std::allocator<char> >, std::pair<const std::basic_string<char, std::char_traits<char>, std::allocator<char> >, Config::IntParameter>, std::_Select1st<std::pair<const std::basic_string<char, std::char_traits<char>, std::allocator<char> >, Config::IntParameter> >, std::less<std::basic_string<char, std::char_traits<char>, std::allocator<char> > >, std::allocator<std::pair<const std::basic_string<char, std::char_traits<char>, std::allocator<char> >, Config::IntParameter> > >::_Rb_tree_impl<std::less<std::basic_string<char, std::char_traits<char>, std::allocator<char> > >, false>::_M_initialize
FUNC 60c2c 3b 0 std::_Rb_tree<std::basic_string<char, std::char_traits<char>, std::allocator<char> >, std::pair<const std::basic_string<char, std::char_traits<char>, std::allocator<char> >, Config::IntParameter>, std::_Select1st<std::pair<const std::basic_string<char, std::char_traits<char>, std::allocator<char> >, Config::IntParameter> >, std::less<std::basic_string<char, std::char_traits<char>, std::allocator<char> > >, std::allocator<std::pair<const std::basic_string<char, std::char_traits<char>, std::allocator<char> >, Config::IntParameter> > >::get_allocator
FUNC 60c68 1a 0 std::allocator<std::pair<const std::basic_string<char, std::char_traits<char>, std::allocator<char> >, Config::IntParameter> >::~allocator
FUNC 60c82 55 0 std::pair<const std::basic_string<char, std::char_traits<char>, std::allocator<char> >, Config::IntParameter>::~pair
FUNC 60cd8 1e 0 __gnu_cxx::new_allocator<std::pair<const std::basic_string<char, std::char_traits<char>, std::allocator<char> >, Config::IntParameter> >::destroy
FUNC 60cf6 2a 0 std::_Rb_tree<std::basic_string<char, std::char_traits<char>, std::allocator<char> >, std::pair<const std::basic_string<char, std::char_traits<char>, std::allocator<char> >, Config::IntParameter>, std::_Select1st<std::pair<const std::basic_string<char, std::char_traits<char>, std::allocator<char> >, Config::IntParameter> >, std::less<std::basic_string<char, std::char_traits<char>, std::allocator<char> > >, std::allocator<std::pair<const std::basic_string<char, std::char_traits<char>, std::allocator<char> >, Config::IntParameter> > >::_M_put_node
FUNC 60d20 12 0 std::_Rb_tree<std::basic_string<char, std::char_traits<char>, std::allocator<char> >, std::pair<const std::basic_string<char, std::char_traits<char>, std::allocator<char> >, Config::IntParameter>, std::_Select1st<std::pair<const std::basic_string<char, std::char_traits<char>, std::allocator<char> >, Config::IntParameter> >, std::less<std::basic_string<char, std::char_traits<char>, std::allocator<char> > >, std::allocator<std::pair<const std::basic_string<char, std::char_traits<char>, std::allocator<char> >, Config::IntParameter> > >::_S_value
FUNC 60d32 bb 0 std::_Rb_tree<std::basic_string<char, std::char_traits<char>, std::allocator<char> >, std::pair<const std::basic_string<char, std::char_traits<char>, std::allocator<char> >, Config::IntParameter>, std::_Select1st<std::pair<const std::basic_string<char, std::char_traits<char>, std::allocator<char> >, Config::IntParameter> >, std::less<std::basic_string<char, std::char_traits<char>, std::allocator<char> > >, std::allocator<std::pair<const std::basic_string<char, std::char_traits<char>, std::allocator<char> >, Config::IntParameter> > >::_M_create_node
FUNC 60ded 12 0 std::_Rb_tree<std::basic_string<char, std::char_traits<char>, std::allocator<char> >, std::pair<const std::basic_string<char, std::char_traits<char>, std::allocator<char> >, Config::IntParameter>, std::_Select1st<std::pair<const std::basic_string<char, std::char_traits<char>, std::allocator<char> >, Config::IntParameter> >, std::less<std::basic_string<char, std::char_traits<char>, std::allocator<char> > >, std::allocator<std::pair<const std::basic_string<char, std::char_traits<char>, std::allocator<char> >, Config::IntParameter> > >::_S_value
FUNC 60e00 12 0 std::_Rb_tree<std::basic_string<char, std::char_traits<char>, std::allocator<char> >, std::pair<const std::basic_string<char, std::char_traits<char>, std::allocator<char> >, Config::IntParameter>, std::_Select1st<std::pair<const std::basic_string<char, std::char_traits<char>, std::allocator<char> >, Config::IntParameter> >, std::less<std::basic_string<char, std::char_traits<char>, std::allocator<char> > >, std::allocator<std::pair<const std::basic_string<char, std::char_traits<char>, std::allocator<char> >, Config::IntParameter> > >::_M_rightmost
FUNC 60e12 12 0 std::_Rb_tree<std::basic_string<char, std::char_traits<char>, std::allocator<char> >, std::pair<const std::basic_string<char, std::char_traits<char>, std::allocator<char> >, Config::IntParameter>, std::_Select1st<std::pair<const std::basic_string<char, std::char_traits<char>, std::allocator<char> >, Config::IntParameter> >, std::less<std::basic_string<char, std::char_traits<char>, std::allocator<char> > >, std::allocator<std::pair<const std::basic_string<char, std::char_traits<char>, std::allocator<char> >, Config::IntParameter> > >::size
FUNC 60e24 12 0 std::_Rb_tree<std::basic_string<char, std::char_traits<char>, std::allocator<char> >, std::pair<const std::basic_string<char, std::char_traits<char>, std::allocator<char> >, Config::IntParameter>, std::_Select1st<std::pair<const std::basic_string<char, std::char_traits<char>, std::allocator<char> >, Config::IntParameter> >, std::less<std::basic_string<char, std::char_traits<char>, std::allocator<char> > >, std::allocator<std::pair<const std::basic_string<char, std::char_traits<char>, std::allocator<char> >, Config::IntParameter> > >::_M_leftmost
FUNC 60e36 28 0 std::_Rb_tree_const_iterator<std::pair<const std::basic_string<char, std::char_traits<char>, std::allocator<char> >, Config::IntParameter> >::operator--
FUNC 60e5e 12 0 std::_Rb_tree<std::basic_string<char, std::char_traits<char>, std::allocator<char> >, std::pair<const std::basic_string<char, std::char_traits<char>, std::allocator<char> >, Config::IntParameter>, std::_Select1st<std::pair<const std::basic_string<char, std::char_traits<char>, std::allocator<char> >, Config::IntParameter> >, std::less<std::basic_string<char, std::char_traits<char>, std::allocator<char> > >, std::allocator<std::pair<const std::basic_string<char, std::char_traits<char>, std::allocator<char> >, Config::IntParameter> > >::_S_right
FUNC 60e70 28 0 std::_Rb_tree_const_iterator<std::pair<const std::basic_string<char, std::char_traits<char>, std::allocator<char> >, Config::IntParameter> >::operator++
FUNC 60e98 1a 0 std::allocator<std::_Rb_tree_node<std::pair<const std::basic_string<char, std::char_traits<char>, std::allocator<char> >, Config::StringParameter> > >::allocator
FUNC 60eb2 41 0 std::_Rb_tree<std::basic_string<char, std::char_traits<char>, std::allocator<char> >, std::pair<const std::basic_string<char, std::char_traits<char>, std::allocator<char> >, Config::StringParameter>, std::_Select1st<std::pair<const std::basic_string<char, std::char_traits<char>, std::allocator<char> >, Config::StringParameter> >, std::less<std::basic_string<char, std::char_traits<char>, std::allocator<char> > >, std::allocator<std::pair<const std::basic_string<char, std::char_traits<char>, std::allocator<char> >, Config::StringParameter> > >::_Rb_tree_impl<std::less<std::basic_string<char, std::char_traits<char>, std::allocator<char> > >, false>::_M_initialize
FUNC 60ef4 3b 0 std::_Rb_tree<std::basic_string<char, std::char_traits<char>, std::allocator<char> >, std::pair<const std::basic_string<char, std::char_traits<char>, std::allocator<char> >, Config::StringParameter>, std::_Select1st<std::pair<const std::basic_string<char, std::char_traits<char>, std::allocator<char> >, Config::StringParameter> >, std::less<std::basic_string<char, std::char_traits<char>, std::allocator<char> > >, std::allocator<std::pair<const std::basic_string<char, std::char_traits<char>, std::allocator<char> >, Config::StringParameter> > >::get_allocator
FUNC 60f30 1a 0 std::allocator<std::pair<const std::basic_string<char, std::char_traits<char>, std::allocator<char> >, Config::StringParameter> >::~allocator
FUNC 60f4a 55 0 std::pair<const std::basic_string<char, std::char_traits<char>, std::allocator<char> >, Config::StringParameter>::~pair
FUNC 60fa0 1e 0 __gnu_cxx::new_allocator<std::pair<const std::basic_string<char, std::char_traits<char>, std::allocator<char> >, Config::StringParameter> >::destroy
FUNC 60fbe 2a 0 std::_Rb_tree<std::basic_string<char, std::char_traits<char>, std::allocator<char> >, std::pair<const std::basic_string<char, std::char_traits<char>, std::allocator<char> >, Config::StringParameter>, std::_Select1st<std::pair<const std::basic_string<char, std::char_traits<char>, std::allocator<char> >, Config::StringParameter> >, std::less<std::basic_string<char, std::char_traits<char>, std::allocator<char> > >, std::allocator<std::pair<const std::basic_string<char, std::char_traits<char>, std::allocator<char> >, Config::StringParameter> > >::_M_put_node
FUNC 60fe8 12 0 std::_Rb_tree<std::basic_string<char, std::char_traits<char>, std::allocator<char> >, std::pair<const std::basic_string<char, std::char_traits<char>, std::allocator<char> >, Config::StringParameter>, std::_Select1st<std::pair<const std::basic_string<char, std::char_traits<char>, std::allocator<char> >, Config::StringParameter> >, std::less<std::basic_string<char, std::char_traits<char>, std::allocator<char> > >, std::allocator<std::pair<const std::basic_string<char, std::char_traits<char>, std::allocator<char> >, Config::StringParameter> > >::_S_value
FUNC 60ffa bb 0 std::_Rb_tree<std::basic_string<char, std::char_traits<char>, std::allocator<char> >, std::pair<const std::basic_string<char, std::char_traits<char>, std::allocator<char> >, Config::StringParameter>, std::_Select1st<std::pair<const std::basic_string<char, std::char_traits<char>, std::allocator<char> >, Config::StringParameter> >, std::less<std::basic_string<char, std::char_traits<char>, std::allocator<char> > >, std::allocator<std::pair<const std::basic_string<char, std::char_traits<char>, std::allocator<char> >, Config::StringParameter> > >::_M_create_node
FUNC 610b5 12 0 std::_Rb_tree<std::basic_string<char, std::char_traits<char>, std::allocator<char> >, std::pair<const std::basic_string<char, std::char_traits<char>, std::allocator<char> >, Config::StringParameter>, std::_Select1st<std::pair<const std::basic_string<char, std::char_traits<char>, std::allocator<char> >, Config::StringParameter> >, std::less<std::basic_string<char, std::char_traits<char>, std::allocator<char> > >, std::allocator<std::pair<const std::basic_string<char, std::char_traits<char>, std::allocator<char> >, Config::StringParameter> > >::_S_value
FUNC 610c8 12 0 std::_Rb_tree<std::basic_string<char, std::char_traits<char>, std::allocator<char> >, std::pair<const std::basic_string<char, std::char_traits<char>, std::allocator<char> >, Config::StringParameter>, std::_Select1st<std::pair<const std::basic_string<char, std::char_traits<char>, std::allocator<char> >, Config::StringParameter> >, std::less<std::basic_string<char, std::char_traits<char>, std::allocator<char> > >, std::allocator<std::pair<const std::basic_string<char, std::char_traits<char>, std::allocator<char> >, Config::StringParameter> > >::_M_rightmost
FUNC 610da 12 0 std::_Rb_tree<std::basic_string<char, std::char_traits<char>, std::allocator<char> >, std::pair<const std::basic_string<char, std::char_traits<char>, std::allocator<char> >, Config::StringParameter>, std::_Select1st<std::pair<const std::basic_string<char, std::char_traits<char>, std::allocator<char> >, Config::StringParameter> >, std::less<std::basic_string<char, std::char_traits<char>, std::allocator<char> > >, std::allocator<std::pair<const std::basic_string<char, std::char_traits<char>, std::allocator<char> >, Config::StringParameter> > >::size
FUNC 610ec 12 0 std::_Rb_tree<std::basic_string<char, std::char_traits<char>, std::allocator<char> >, std::pair<const std::basic_string<char, std::char_traits<char>, std::allocator<char> >, Config::StringParameter>, std::_Select1st<std::pair<const std::basic_string<char, std::char_traits<char>, std::allocator<char> >, Config::StringParameter> >, std::less<std::basic_string<char, std::char_traits<char>, std::allocator<char> > >, std::allocator<std::pair<const std::basic_string<char, std::char_traits<char>, std::allocator<char> >, Config::StringParameter> > >::_M_leftmost
FUNC 610fe 28 0 std::_Rb_tree_const_iterator<std::pair<const std::basic_string<char, std::char_traits<char>, std::allocator<char> >, Config::StringParameter> >::operator--
FUNC 61126 12 0 std::_Rb_tree<std::basic_string<char, std::char_traits<char>, std::allocator<char> >, std::pair<const std::basic_string<char, std::char_traits<char>, std::allocator<char> >, Config::StringParameter>, std::_Select1st<std::pair<const std::basic_string<char, std::char_traits<char>, std::allocator<char> >, Config::StringParameter> >, std::less<std::basic_string<char, std::char_traits<char>, std::allocator<char> > >, std::allocator<std::pair<const std::basic_string<char, std::char_traits<char>, std::allocator<char> >, Config::StringParameter> > >::_S_right
FUNC 61138 28 0 std::_Rb_tree_const_iterator<std::pair<const std::basic_string<char, std::char_traits<char>, std::allocator<char> >, Config::StringParameter> >::operator++
FUNC 61160 5c 0 __gnu_cxx::new_allocator<Config::XmlGroup>::allocate
FUNC 611bc 2d 0 std::uninitialized_copy<__gnu_cxx::__normal_iterator<const Config::XmlGroup*, std::vector<Config::XmlGroup, std::allocator<Config::XmlGroup> > >, Config::XmlGroup*>
FUNC 611e9 1d 0 std::__niter_base<__gnu_cxx::__normal_iterator<const Config::XmlGroup*, std::vector<Config::XmlGroup, std::allocator<Config::XmlGroup> > >, true>::__b
FUNC 61206 1d 0 std::__niter_base<__gnu_cxx::__normal_iterator<Config::XmlGroup*, std::vector<Config::XmlGroup, std::allocator<Config::XmlGroup> > >, true>::__b
FUNC 61223 31 0 std::__copy_move_a<false, const Config::XmlGroup*, Config::XmlGroup*>
FUNC 61254 4b 0 std::_Destroy_aux<false>::__destroy<__gnu_cxx::__normal_iterator<Config::XmlGroup*, std::vector<Config::XmlGroup, std::allocator<Config::XmlGroup> > > >
FUNC 6129f e 0 std::__niter_base<Config::XmlGroup*, false>::__b
FUNC 612ad 31 0 std::__copy_move_a<false, Config::XmlGroup*, Config::XmlGroup*>
FUNC 612de 92 0 std::__uninitialized_copy<false>::uninitialized_copy<Config::XmlGroup*, Config::XmlGroup*>
FUNC 61370 5c 0 __gnu_cxx::new_allocator<Config::XmlParameter>::allocate
FUNC 613cc 2d 0 std::uninitialized_copy<__gnu_cxx::__normal_iterator<const Config::XmlParameter*, std::vector<Config::XmlParameter, std::allocator<Config::XmlParameter> > >, Config::XmlParameter*>
FUNC 613f9 1d 0 std::__niter_base<__gnu_cxx::__normal_iterator<const Config::XmlParameter*, std::vector<Config::XmlParameter, std::allocator<Config::XmlParameter> > >, true>::__b
FUNC 61416 1d 0 std::__niter_base<__gnu_cxx::__normal_iterator<Config::XmlParameter*, std::vector<Config::XmlParameter, std::allocator<Config::XmlParameter> > >, true>::__b
FUNC 61433 31 0 std::__copy_move_a<false, const Config::XmlParameter*, Config::XmlParameter*>
FUNC 61464 4b 0 std::_Destroy_aux<false>::__destroy<__gnu_cxx::__normal_iterator<Config::XmlParameter*, std::vector<Config::XmlParameter, std::allocator<Config::XmlParameter> > > >
FUNC 614af e 0 std::__niter_base<Config::XmlParameter*, false>::__b
FUNC 614bd 31 0 std::__copy_move_a<false, Config::XmlParameter*, Config::XmlParameter*>
FUNC 614ee 92 0 std::__uninitialized_copy<false>::uninitialized_copy<Config::XmlParameter*, Config::XmlParameter*>
FUNC 61580 53d 0 std::vector<char, std::allocator<char> >::_M_fill_insert
FUNC 61abd 45 0 rapidxml::xml_document<char>::skip<rapidxml::xml_document<char>::node_name_pred, 0>
FUNC 61b02 2eb 0 rapidxml::xml_document<char>::parse_node_attributes<0>
FUNC 61dee 18e 0 rapidxml::xml_document<char>::parse_node_contents<0>
FUNC 61f7c 2a 0 rapidxml::xml_base<char>::value
FUNC 61fa6 26 0 rapidxml::xml_base<char>::value_size
FUNC 61fcc 3ca 0 rapidxml::internal::print_node<std::ostream_iterator<char, char, std::char_traits<char> >, char>
FUNC 62396 a 0 __gnu_cxx::new_allocator<Config::XmlGroup>::new_allocator
FUNC 623a0 1a 0 std::_Destroy<Config::XmlGroup>
FUNC 623ba a 0 __gnu_cxx::new_allocator<Config::XmlParameter>::new_allocator
FUNC 623c4 1a 0 std::_Destroy<Config::XmlParameter>
FUNC 623de a 0 __gnu_cxx::new_allocator<std::_Rb_tree_node<std::pair<const std::basic_string<char, std::char_traits<char>, std::allocator<char> >, Config::IntParameter> > >::new_allocator
FUNC 623e8 e 0 std::_Rb_tree<std::basic_string<char, std::char_traits<char>, std::allocator<char> >, std::pair<const std::basic_string<char, std::char_traits<char>, std::allocator<char> >, Config::IntParameter>, std::_Select1st<std::pair<const std::basic_string<char, std::char_traits<char>, std::allocator<char> >, Config::IntParameter> >, std::less<std::basic_string<char, std::char_traits<char>, std::allocator<char> > >, std::allocator<std::pair<const std::basic_string<char, std::char_traits<char>, std::allocator<char> >, Config::IntParameter> > >::_M_get_Node_allocator
FUNC 623f6 1e 0 std::allocator<std::pair<const std::basic_string<char, std::char_traits<char>, std::allocator<char> >, Config::IntParameter> >::allocator<std::_Rb_tree_node<std::pair<const std::basic_string<char, std::char_traits<char>, std::allocator<char> >, Config::IntParameter> > >
FUNC 62414 a 0 __gnu_cxx::new_allocator<std::pair<const std::basic_string<char, std::char_traits<char>, std::allocator<char> >, Config::IntParameter> >::~new_allocator
FUNC 6241e 22 0 __gnu_cxx::new_allocator<std::_Rb_tree_node<std::pair<const std::basic_string<char, std::char_traits<char>, std::allocator<char> >, Config::IntParameter> > >::deallocate
FUNC 62440 24 0 std::_Rb_tree<std::basic_string<char, std::char_traits<char>, std::allocator<char> >, std::pair<const std::basic_string<char, std::char_traits<char>, std::allocator<char> >, Config::IntParameter>, std::_Select1st<std::pair<const std::basic_string<char, std::char_traits<char>, std::allocator<char> >, Config::IntParameter> >, std::less<std::basic_string<char, std::char_traits<char>, std::allocator<char> > >, std::allocator<std::pair<const std::basic_string<char, std::char_traits<char>, std::allocator<char> >, Config::IntParameter> > >::_M_get_node
FUNC 62464 6b 0 std::pair<const std::basic_string<char, std::char_traits<char>, std::allocator<char> >, Config::IntParameter>::pair
FUNC 624d0 77 0 __gnu_cxx::new_allocator<std::pair<const std::basic_string<char, std::char_traits<char>, std::allocator<char> >, Config::IntParameter> >::construct
FUNC 62548 a 0 __gnu_cxx::new_allocator<std::_Rb_tree_node<std::pair<const std::basic_string<char, std::char_traits<char>, std::allocator<char> >, Config::StringParameter> > >::new_allocator
FUNC 62552 e 0 std::_Rb_tree<std::basic_string<char, std::char_traits<char>, std::allocator<char> >, std::pair<const std::basic_string<char, std::char_traits<char>, std::allocator<char> >, Config::StringParameter>, std::_Select1st<std::pair<const std::basic_string<char, std::char_traits<char>, std::allocator<char> >, Config::StringParameter> >, std::less<std::basic_string<char, std::char_traits<char>, std::allocator<char> > >, std::allocator<std::pair<const std::basic_string<char, std::char_traits<char>, std::allocator<char> >, Config::StringParameter> > >::_M_get_Node_allocator
FUNC 62560 1e 0 std::allocator<std::pair<const std::basic_string<char, std::char_traits<char>, std::allocator<char> >, Config::StringParameter> >::allocator<std::_Rb_tree_node<std::pair<const std::basic_string<char, std::char_traits<char>, std::allocator<char> >, Config::StringParameter> > >
FUNC 6257e a 0 __gnu_cxx::new_allocator<std::pair<const std::basic_string<char, std::char_traits<char>, std::allocator<char> >, Config::StringParameter> >::~new_allocator
FUNC 62588 22 0 __gnu_cxx::new_allocator<std::_Rb_tree_node<std::pair<const std::basic_string<char, std::char_traits<char>, std::allocator<char> >, Config::StringParameter> > >::deallocate
FUNC 625aa 24 0 std::_Rb_tree<std::basic_string<char, std::char_traits<char>, std::allocator<char> >, std::pair<const std::basic_string<char, std::char_traits<char>, std::allocator<char> >, Config::StringParameter>, std::_Select1st<std::pair<const std::basic_string<char, std::char_traits<char>, std::allocator<char> >, Config::StringParameter> >, std::less<std::basic_string<char, std::char_traits<char>, std::allocator<char> > >, std::allocator<std::pair<const std::basic_string<char, std::char_traits<char>, std::allocator<char> >, Config::StringParameter> > >::_M_get_node
FUNC 625ce 6b 0 std::pair<const std::basic_string<char, std::char_traits<char>, std::allocator<char> >, Config::StringParameter>::pair
FUNC 6263a 77 0 __gnu_cxx::new_allocator<std::pair<const std::basic_string<char, std::char_traits<char>, std::allocator<char> >, Config::StringParameter> >::construct
FUNC 626b2 14 0 __gnu_cxx::new_allocator<Config::XmlGroup>::max_size
FUNC 626c6 ac 0 std::__uninitialized_copy<false>::uninitialized_copy<__gnu_cxx::__normal_iterator<const Config::XmlGroup*, std::vector<Config::XmlGroup, std::allocator<Config::XmlGroup> > >, Config::XmlGroup*>
FUNC 62772 e 0 __gnu_cxx::__normal_iterator<const Config::XmlGroup*, std::vector<Config::XmlGroup, std::allocator<Config::XmlGroup> > >::base
FUNC 62780 e 0 __gnu_cxx::__normal_iterator<Config::XmlGroup*, std::vector<Config::XmlGroup, std::allocator<Config::XmlGroup> > >::base
FUNC 6278e 74 0 std::__copy_move<false, false, std::random_access_iterator_tag>::__copy_m<const Config::XmlGroup*, Config::XmlGroup*>
FUNC 62802 3c 0 __gnu_cxx::operator!=<Config::XmlGroup*, std::vector<Config::XmlGroup, std::allocator<Config::XmlGroup> > >
FUNC 6283e 20 0 __gnu_cxx::__normal_iterator<Config::XmlGroup*, std::vector<Config::XmlGroup, std::allocator<Config::XmlGroup> > >::operator++
FUNC 6285e 11 0 __gnu_cxx::__normal_iterator<Config::XmlGroup*, std::vector<Config::XmlGroup, std::allocator<Config::XmlGroup> > >::operator*
FUNC 6286f 74 0 std::__copy_move<false, false, std::random_access_iterator_tag>::__copy_m<Config::XmlGroup*, Config::XmlGroup*>
FUNC 628e4 a3 0 Config::XmlGroup::XmlGroup
FUNC 62987 73 0 std::_Construct<Config::XmlGroup, Config::XmlGroup>
FUNC 629fa 14 0 __gnu_cxx::new_allocator<Config::XmlParameter>::max_size
FUNC 62a0e ac 0 std::__uninitialized_copy<false>::uninitialized_copy<__gnu_cxx::__normal_iterator<const Config::XmlParameter*, std::vector<Config::XmlParameter, std::allocator<Config::XmlParameter> > >, Config::XmlParameter*>
FUNC 62aba e 0 __gnu_cxx::__normal_iterator<const Config::XmlParameter*, std::vector<Config::XmlParameter, std::allocator<Config::XmlParameter> > >::base
FUNC 62ac8 e 0 __gnu_cxx::__normal_iterator<Config::XmlParameter*, std::vector<Config::XmlParameter, std::allocator<Config::XmlParameter> > >::base
FUNC 62ad6 cb 0 Config::XmlParameter::operator=
FUNC 62ba1 74 0 std::__copy_move<false, false, std::random_access_iterator_tag>::__copy_m<const Config::XmlParameter*, Config::XmlParameter*>
FUNC 62c15 3c 0 __gnu_cxx::operator!=<Config::XmlParameter*, std::vector<Config::XmlParameter, std::allocator<Config::XmlParameter> > >
FUNC 62c52 20 0 __gnu_cxx::__normal_iterator<Config::XmlParameter*, std::vector<Config::XmlParameter, std::allocator<Config::XmlParameter> > >::operator++
FUNC 62c72 11 0 __gnu_cxx::__normal_iterator<Config::XmlParameter*, std::vector<Config::XmlParameter, std::allocator<Config::XmlParameter> > >::operator*
FUNC 62c83 74 0 std::__copy_move<false, false, std::random_access_iterator_tag>::__copy_m<Config::XmlParameter*, Config::XmlParameter*>
FUNC 62cf8 186 0 Config::XmlParameter::XmlParameter
FUNC 62e7e 73 0 std::_Construct<Config::XmlParameter, Config::XmlParameter>
FUNC 62ef1 42 0 __gnu_cxx::operator-<char*, std::vector<char, std::allocator<char> > >
FUNC 62f33 3b 0 std::__uninitialized_move_a<char*, char*, std::allocator<char> >
FUNC 62f6e 46 0 std::copy_backward<char*, char*>
FUNC 62fb4 46 0 std::fill<char*, char>
FUNC 62ffa ca 0 std::vector<char, std::allocator<char> >::_M_check_len
FUNC 630c4 1b 0 rapidxml::xml_document<char>::node_name_pred::test
FUNC 630df 1b 0 rapidxml::xml_document<char>::attribute_name_pred::test
FUNC 630fa 45 0 rapidxml::xml_document<char>::skip<rapidxml::xml_document<char>::attribute_name_pred, 0>
FUNC 63140 e4 0 rapidxml::memory_pool<char>::allocate_attribute
FUNC 63224 c6 0 rapidxml::xml_node<char>::append_attribute
FUNC 632ea 372 0 rapidxml::xml_document<char>::skip_and_expand_character_refs<rapidxml::xml_document<char>::attribute_value_pred<'\''>, rapidxml::xml_document<char>::attribute_value_pure_pred<'\''>, 0>
FUNC 6365c 372 0 rapidxml::xml_document<char>::skip_and_expand_character_refs<rapidxml::xml_document<char>::attribute_value_pred<'\"'>, rapidxml::xml_document<char>::attribute_value_pure_pred<'\"'>, 0>
FUNC 639ce 100 0 rapidxml::xml_document<char>::parse_and_append_data<0>
FUNC 63ace c9 0 rapidxml::internal::print_children<std::ostream_iterator<char, char, std::char_traits<char> >, char>
FUNC 63b97 680 0 rapidxml::internal::print_element_node<std::ostream_iterator<char, char, std::char_traits<char> >, char>
FUNC 64217 121 0 rapidxml::internal::print_data_node<std::ostream_iterator<char, char, std::char_traits<char> >, char>
FUNC 64338 32c 0 rapidxml::internal::print_cdata_node<std::ostream_iterator<char, char, std::char_traits<char> >, char>
FUNC 64664 204 0 rapidxml::internal::print_declaration_node<std::ostream_iterator<char, char, std::char_traits<char> >, char>
FUNC 64868 255 0 rapidxml::internal::print_comment_node<std::ostream_iterator<char, char, std::char_traits<char> >, char>
FUNC 64abd 301 0 rapidxml::internal::print_doctype_node<std::ostream_iterator<char, char, std::char_traits<char> >, char>
FUNC 64dbe 2cb 0 rapidxml::internal::print_pi_node<std::ostream_iterator<char, char, std::char_traits<char> >, char>
FUNC 6508a e 0 std::ostream_iterator<char, char, std::char_traits<char> >::operator++
FUNC 65098 e 0 std::ostream_iterator<char, char, std::char_traits<char> >::operator*
FUNC 650a6 58 0 std::ostream_iterator<char, char, std::char_traits<char> >::operator=
FUNC 650fe a 0 __gnu_cxx::new_allocator<std::pair<const std::basic_string<char, std::char_traits<char>, std::allocator<char> >, Config::IntParameter> >::new_allocator
FUNC 65108 4e 0 __gnu_cxx::new_allocator<std::_Rb_tree_node<std::pair<const std::basic_string<char, std::char_traits<char>, std::allocator<char> >, Config::IntParameter> > >::allocate
FUNC 65156 a 0 __gnu_cxx::new_allocator<std::pair<const std::basic_string<char, std::char_traits<char>, std::allocator<char> >, Config::StringParameter> >::new_allocator
FUNC 65160 4e 0 __gnu_cxx::new_allocator<std::_Rb_tree_node<std::pair<const std::basic_string<char, std::char_traits<char>, std::allocator<char> >, Config::StringParameter> > >::allocate
FUNC 651ae 3c 0 __gnu_cxx::operator!=<const Config::XmlGroup*, std::vector<Config::XmlGroup, std::allocator<Config::XmlGroup> > >
FUNC 651ea 20 0 __gnu_cxx::__normal_iterator<const Config::XmlGroup*, std::vector<Config::XmlGroup, std::allocator<Config::XmlGroup> > >::operator++
FUNC 6520a 11 0 __gnu_cxx::__normal_iterator<const Config::XmlGroup*, std::vector<Config::XmlGroup, std::allocator<Config::XmlGroup> > >::operator*
FUNC 6521c b9 0 std::vector<Config::XmlGroup, std::allocator<Config::XmlGroup> >::vector
FUNC 652d6 b9 0 std::vector<Config::XmlParameter, std::allocator<Config::XmlParameter> >::vector
FUNC 6538f 3c 0 __gnu_cxx::operator!=<const Config::XmlParameter*, std::vector<Config::XmlParameter, std::allocator<Config::XmlParameter> > >
FUNC 653cc 20 0 __gnu_cxx::__normal_iterator<const Config::XmlParameter*, std::vector<Config::XmlParameter, std::allocator<Config::XmlParameter> > >::operator++
FUNC 653ec 11 0 __gnu_cxx::__normal_iterator<const Config::XmlParameter*, std::vector<Config::XmlParameter, std::allocator<Config::XmlParameter> > >::operator*
FUNC 653fd 58 0 std::__copy_move_backward_a2<false, char*, char*>
FUNC 65456 22 0 std::vector<char, std::allocator<char> >::max_size
FUNC 65478 1a 0 rapidxml::xml_attribute<char>::xml_attribute
FUNC 65492 45 0 rapidxml::xml_document<char>::skip<rapidxml::xml_document<char>::attribute_value_pure_pred<'\''>, 0>
FUNC 654d7 1b 0 attribute_value_pred<'\''>::test
FUNC 654f2 1b1 0 rapidxml::xml_document<char>::insert_coded_character<0>
FUNC 656a3 45 0 rapidxml::xml_document<char>::skip<rapidxml::xml_document<char>::attribute_value_pure_pred<'\"'>, 0>
FUNC 656e8 1b 0 attribute_value_pred<'\"'>::test
FUNC 65703 372 0 rapidxml::xml_document<char>::skip_and_expand_character_refs<rapidxml::xml_document<char>::text_pred, rapidxml::xml_document<char>::text_pure_no_ws_pred, 0>
FUNC 65a75 79 0 rapidxml::internal::fill_chars<std::ostream_iterator<char, char, std::char_traits<char> >, char>
FUNC 65aee 79 0 rapidxml::internal::copy_chars<std::ostream_iterator<char, char, std::char_traits<char> >, char>
FUNC 65b67 3ac 0 rapidxml::internal::print_attributes<std::ostream_iterator<char, char, std::char_traits<char> >, char>
FUNC 65f13 53e 0 rapidxml::internal::copy_and_expand_chars<std::ostream_iterator<char, char, std::char_traits<char> >, char>
FUNC 66452 14 0 __gnu_cxx::new_allocator<std::_Rb_tree_node<std::pair<const std::basic_string<char, std::char_traits<char>, std::allocator<char> >, Config::IntParameter> > >::max_size
FUNC 66466 14 0 __gnu_cxx::new_allocator<std::_Rb_tree_node<std::pair<const std::basic_string<char, std::char_traits<char>, std::allocator<char> >, Config::StringParameter> > >::max_size
FUNC 6647a e 0 std::_Vector_base<Config::XmlGroup, std::allocator<Config::XmlGroup> >::_M_get_Tp_allocator
FUNC 66488 a6 0 std::_Vector_base<Config::XmlGroup, std::allocator<Config::XmlGroup> >::_Vector_base
FUNC 6652e e 0 std::_Vector_base<Config::XmlParameter, std::allocator<Config::XmlParameter> >::_M_get_Tp_allocator
FUNC 6653c a6 0 std::_Vector_base<Config::XmlParameter, std::allocator<Config::XmlParameter> >::_Vector_base
FUNC 665e2 31 0 std::__copy_move_backward_a<false, char*, char*>
FUNC 66614 e 0 std::_Vector_base<char, std::allocator<char> >::_M_get_Tp_allocator
FUNC 66622 1b 0 attribute_value_pure_pred<'\''>::test
FUNC 6663d 1b 0 attribute_value_pure_pred<'\"'>::test
FUNC 66658 1b 0 rapidxml::xml_document<char>::text_pred::test
FUNC 66673 45 0 rapidxml::xml_document<char>::skip<rapidxml::xml_document<char>::text_pure_no_ws_pred, 0>
FUNC 666b8 11 0 std::ostream_iterator<char, char, std::char_traits<char> >::operator++
FUNC 666ca d0 0 rapidxml::xml_attribute<char>::next_attribute
FUNC 6679a 40 0 rapidxml::internal::find_char<char, '\"'>
FUNC 667da 48 0 std::_Vector_base<Config::XmlGroup, std::allocator<Config::XmlGroup> >::_Vector_impl::_Vector_impl
FUNC 66822 48 0 std::_Vector_base<Config::XmlParameter, std::allocator<Config::XmlParameter> >::_Vector_impl::_Vector_impl
FUNC 6686a 54 0 std::__copy_move_backward<false, true, std::random_access_iterator_tag>::__copy_move_b<char>
FUNC 668be 1b 0 rapidxml::xml_document<char>::text_pure_no_ws_pred::test
FUNC 668da 25 0 std::allocator<Config::XmlGroup>::allocator
FUNC 66900 25 0 std::allocator<Config::XmlParameter>::allocator
FUNC 66926 e 0 __gnu_cxx::new_allocator<Config::XmlGroup>::new_allocator
FUNC 66934 e 0 __gnu_cxx::new_allocator<Config::XmlParameter>::new_allocator
FUNC 66942 3a 0 boost::detail::sp_counted_impl_p<Config::ConfigCenter>::~sp_counted_impl_p
FUNC 6697c 26 0 boost::detail::sp_counted_impl_p<Config::ConfigCenter>::~sp_counted_impl_p
FUNC 669a2 1e 0 boost::detail::sp_counted_impl_p<Config::ConfigCenter>::dispose
FUNC 669c0 13 0 boost::detail::sp_counted_impl_p<Config::ConfigCenter>::get_deleter
FUNC 669da 6c 0 boost::exception_detail::clone_impl<boost::exception_detail::error_info_injector<boost::condition_error> >::clone
FUNC 66a4c 53 0 boost::exception_detail::clone_impl<boost::exception_detail::error_info_injector<boost::condition_error> >::rethrow
FUNC 66aa0 e5 0 Config::IntParameter::IntParameter
FUNC 66b86 113 0 Config::IntParameter::IntParameter
FUNC 66c9a 77 0 Config::IntParameter::~IntParameter
FUNC 66d12 40 0 Config::IntParameter::get
FUNC 66d52 190 0 Config::IntParameter::set
FUNC 66ee2 48e 0 Config::IntParameter::set
FUNC 67370 1d9 0 Config::IntParameter::setRange
FUNC 6754a 53 0 Config::IntParameter::setRange
FUNC 6759e 8d 0 Config::IntParameter::registerWatcher
FUNC 6762c 7a 0 Config::IntParameter::unregisterWatcher
FUNC 676a6 181 0 __static_initialization_and_destruction_0
FUNC 67827 15 0 _GLOBAL__I__ZN6Config12IntParameterC2ERKSs
FUNC 6783c 15 0 boost::function_base::function_base
FUNC 67852 17 0 boost::function_base::empty
FUNC 6786a 14 0 boost::function_base::has_trivial_copy_and_destroy
FUNC 6787e ab 0 boost::bad_function_call::bad_function_call
FUNC 6792a f1 0 boost::shared_mutex::lock_upgrade
FUNC 67a1c 70 0 boost::shared_mutex::unlock_upgrade
FUNC 67a8c d7 0 boost::shared_mutex::unlock_upgrade_and_lock
FUNC 67b64 64 0 boost::shared_mutex::unlock_and_lock_upgrade
FUNC 67bc8 e 0 Config::IntParameter::_getName
FUNC 67bd6 1a 0 std::map<void*, boost::function<void(int)>, std::less<void*>, std::allocator<std::pair<void* const, boost::function<void(int)> > > >::~map
FUNC 67bf0 76 0 std::runtime_error::runtime_error
FUNC 67c66 3a 0 boost::bad_function_call::~bad_function_call
FUNC 67ca0 26 0 boost::bad_function_call::~bad_function_call
FUNC 67cc6 1a 0 std::map<void*, boost::function<void(int)>, std::less<void*>, std::allocator<std::pair<void* const, boost::function<void(int)> > > >::map
FUNC 67ce0 1a 0 std::_Rb_tree<void*, std::pair<void* const, boost::function<void(int)> >, std::_Select1st<std::pair<void* const, boost::function<void(int)> > >, std::less<void*>, std::allocator<std::pair<void* const, boost::function<void(int)> > > >::_Rb_tree_impl<std::less<void*>, false>::~_Rb_tree_impl
FUNC 67cfa 63 0 std::_Rb_tree<void*, std::pair<void* const, boost::function<void(int)> >, std::_Select1st<std::pair<void* const, boost::function<void(int)> > >, std::less<void*>, std::allocator<std::pair<void* const, boost::function<void(int)> > > >::~_Rb_tree
FUNC 67d5e 31 0 boost::upgrade_lock<boost::shared_mutex>::upgrade_lock
FUNC 67d90 2d 0 boost::upgrade_lock<boost::shared_mutex>::~upgrade_lock
FUNC 67dbe 52 0 boost::upgrade_to_unique_lock<boost::shared_mutex>::upgrade_to_unique_lock
FUNC 67e10 91 0 boost::upgrade_to_unique_lock<boost::shared_mutex>::~upgrade_to_unique_lock
FUNC 67ea2 1a 0 std::map<void*, boost::function<void(int)>, std::less<void*>, std::allocator<std::pair<void* const, boost::function<void(int)> > > >::begin
FUNC 67ebc 1a 0 std::map<void*, boost::function<void(int)>, std::less<void*>, std::allocator<std::pair<void* const, boost::function<void(int)> > > >::end
FUNC 67ed6 22 0 std::_Rb_tree_iterator<std::pair<void* const, boost::function<void(int)> > >::operator!=
FUNC 67ef8 36 0 std::_Rb_tree_iterator<std::pair<void* const, boost::function<void(int)> > >::operator++
FUNC 67f2e 15 0 std::_Rb_tree_iterator<std::pair<void* const, boost::function<void(int)> > >::operator->
FUNC 67f44 84 0 boost::function1<void, int>::operator()
FUNC 67fc8 1a 0 boost::function<void(int)>::~function
FUNC 67fe2 1e 0 std::pair<void* const, boost::function<void(int)> >::~pair
FUNC 68000 161 0 std::map<void*, boost::function<void(int)>, std::less<void*>, std::allocator<std::pair<void* const, boost::function<void(int)> > > >::operator[]
FUNC 68162 73 0 boost::function<void(int)>::operator=
FUNC 681d6 25 0 std::map<void*, boost::function<void(int)>, std::less<void*>, std::allocator<std::pair<void* const, boost::function<void(int)> > > >::erase
FUNC 681fc 30 0 boost::bad_function_call::bad_function_call
FUNC 6822c 80 0 boost::exception_detail::error_info_injector<boost::bad_function_call>::error_info_injector
FUNC 682ac 63 0 boost::exception_detail::clone_impl<boost::exception_detail::error_info_injector<boost::bad_function_call> >::clone_impl
FUNC 6830f a2 0 boost::throw_exception<boost::bad_function_call>
FUNC 683b2 1a 0 std::_Rb_tree<void*, std::pair<void* const, boost::function<void(int)> >, std::_Select1st<std::pair<void* const, boost::function<void(int)> > >, std::less<void*>, std::allocator<std::pair<void* const, boost::function<void(int)> > > >::_Rb_tree
FUNC 683cc 1a 0 std::allocator<std::_Rb_tree_node<std::pair<void* const, boost::function<void(int)> > > >::~allocator
FUNC 683e6 69 0 std::_Rb_tree<void*, std::pair<void* const, boost::function<void(int)> >, std::_Select1st<std::pair<void* const, boost::function<void(int)> > >, std::less<void*>, std::allocator<std::pair<void* const, boost::function<void(int)> > > >::_M_erase
FUNC 68450 12 0 std::_Rb_tree<void*, std::pair<void* const, boost::function<void(int)> >, std::_Select1st<std::pair<void* const, boost::function<void(int)> > >, std::less<void*>, std::allocator<std::pair<void* const, boost::function<void(int)> > > >::_M_begin
FUNC 68462 76 0 boost::upgrade_lock<boost::shared_mutex>::lock
FUNC 684d8 12 0 boost::upgrade_lock<boost::shared_mutex>::owns_lock
FUNC 684ea 19 0 boost::detail::thread_move_t<boost::upgrade_lock<boost::shared_mutex> >::thread_move_t
FUNC 68503 e 0 boost::move<boost::upgrade_lock<boost::shared_mutex> >
FUNC 68512 6a 0 boost::unique_lock<boost::shared_mutex>::unique_lock
FUNC 6857c 19 0 boost::detail::thread_move_t<boost::unique_lock<boost::shared_mutex> >::thread_move_t
FUNC 68595 e 0 boost::move<boost::unique_lock<boost::shared_mutex> >
FUNC 685a4 74 0 boost::upgrade_lock<boost::shared_mutex>::operator=
FUNC 68618 2c 0 std::_Rb_tree<void*, std::pair<void* const, boost::function<void(int)> >, std::_Select1st<std::pair<void* const, boost::function<void(int)> > >, std::less<void*>, std::allocator<std::pair<void* const, boost::function<void(int)> > > >::begin
FUNC 68644 2c 0 std::_Rb_tree<void*, std::pair<void* const, boost::function<void(int)> >, std::_Select1st<std::pair<void* const, boost::function<void(int)> > >, std::less<void*>, std::allocator<std::pair<void* const, boost::function<void(int)> > > >::end
FUNC 68670 15 0 boost::function1<void, int>::get_vtable
FUNC 68686 25 0 std::map<void*, boost::function<void(int)>, std::less<void*>, std::allocator<std::pair<void* const, boost::function<void(int)> > > >::lower_bound
FUNC 686ac 1a 0 std::map<void*, boost::function<void(int)>, std::less<void*>, std::allocator<std::pair<void* const, boost::function<void(int)> > > >::key_comp
FUNC 686c6 15 0 std::_Rb_tree_iterator<std::pair<void* const, boost::function<void(int)> > >::operator*
FUNC 686dc 26 0 std::less<void*>::operator()
FUNC 68702 22 0 std::_Rb_tree_iterator<std::pair<void* const, boost::function<void(int)> > >::operator==
FUNC 68724 1a 0 boost::function<void(int)>::function
FUNC 6873e 1a 0 boost::function1<void, int>::~function1
FUNC 68758 3b 0 std::pair<void* const, boost::function<void(int)> >::pair
FUNC 68794 40 0 std::map<void*, boost::function<void(int)>, std::less<void*>, std::allocator<std::pair<void* const, boost::function<void(int)> > > >::insert
FUNC 687d4 25 0 boost::function<void(int)>::function
FUNC 687fa 9b 0 boost::function1<void, int>::swap
FUNC 68896 83 0 std::_Rb_tree<void*, std::pair<void* const, boost::function<void(int)> >, std::_Select1st<std::pair<void* const, boost::function<void(int)> > >, std::less<void*>, std::allocator<std::pair<void* const, boost::function<void(int)> > > >::erase
FUNC 68919 2f 0 boost::enable_error_info<boost::bad_function_call>
FUNC 68948 93 0 boost::exception_detail::error_info_injector<boost::bad_function_call>::~error_info_injector
FUNC 689ea 26 0 boost::exception_detail::error_info_injector<boost::bad_function_call>::~error_info_injector
FUNC 68a10 2f 0 boost::enable_current_exception<boost::exception_detail::error_info_injector<boost::bad_function_call> >
FUNC 68a40 7a 0 boost::exception_detail::clone_impl<boost::exception_detail::error_info_injector<boost::bad_function_call> >::~clone_impl
FUNC 68ad8 26 0 boost::exception_detail::clone_impl<boost::exception_detail::error_info_injector<boost::bad_function_call> >::~clone_impl
FUNC 68afe 61 0 std::_Rb_tree<void*, std::pair<void* const, boost::function<void(int)> >, std::_Select1st<std::pair<void* const, boost::function<void(int)> > >, std::less<void*>, std::allocator<std::pair<void* const, boost::function<void(int)> > > >::_Rb_tree_impl<std::less<void*>, false>::_Rb_tree_impl
FUNC 68b60 a 0 __gnu_cxx::new_allocator<std::_Rb_tree_node<std::pair<void* const, boost::function<void(int)> > > >::~new_allocator
FUNC 68b6a 12 0 std::_Rb_tree<void*, std::pair<void* const, boost::function<void(int)> >, std::_Select1st<std::pair<void* const, boost::function<void(int)> > >, std::less<void*>, std::allocator<std::pair<void* const, boost::function<void(int)> > > >::_S_right
FUNC 68b7c 12 0 std::_Rb_tree<void*, std::pair<void* const, boost::function<void(int)> >, std::_Select1st<std::pair<void* const, boost::function<void(int)> > >, std::less<void*>, std::allocator<std::pair<void* const, boost::function<void(int)> > > >::_S_left
FUNC 68b8e 86 0 std::_Rb_tree<void*, std::pair<void* const, boost::function<void(int)> >, std::_Select1st<std::pair<void* const, boost::function<void(int)> > >, std::less<void*>, std::allocator<std::pair<void* const, boost::function<void(int)> > > >::_M_destroy_node
FUNC 68c14 11 0 boost::detail::thread_move_t<boost::upgrade_lock<boost::shared_mutex> >::operator->
FUNC 68c26 7d 0 boost::upgrade_lock<boost::shared_mutex>::upgrade_lock
FUNC 68ca4 40 0 boost::upgrade_lock<boost::shared_mutex>::swap
FUNC 68ce4 19 0 std::_Rb_tree_iterator<std::pair<void* const, boost::function<void(int)> > >::_Rb_tree_iterator
FUNC 68cfe 53 0 std::_Rb_tree<void*, std::pair<void* const, boost::function<void(int)> >, std::_Select1st<std::pair<void* const, boost::function<void(int)> > >, std::less<void*>, std::allocator<std::pair<void* const, boost::function<void(int)> > > >::lower_bound
FUNC 68d52 a 0 std::_Rb_tree<void*, std::pair<void* const, boost::function<void(int)> >, std::_Select1st<std::pair<void* const, boost::function<void(int)> > >, std::less<void*>, std::allocator<std::pair<void* const, boost::function<void(int)> > > >::key_comp
FUNC 68d5c a 0 std::unary_function<int, void>::unary_function
FUNC 68d66 26 0 boost::function1<void, int>::function1
FUNC 68d8c 5d 0 boost::function1<void, int>::clear
FUNC 68dea 1c 0 std::_Rb_tree_const_iterator<std::pair<void* const, boost::function<void(int)> > >::_Rb_tree_const_iterator
FUNC 68e06 4c0 0 std::_Rb_tree<void*, std::pair<void* const, boost::function<void(int)> >, std::_Select1st<std::pair<void* const, boost::function<void(int)> > >, std::less<void*>, std::allocator<std::pair<void* const, boost::function<void(int)> > > >::_M_insert_unique_
FUNC 692c6 3d 0 boost::function1<void, int>::function1
FUNC 69304 f5 0 boost::function1<void, int>::move_assign
FUNC 693fa 204 0 std::_Rb_tree<void*, std::pair<void* const, boost::function<void(int)> >, std::_Select1st<std::pair<void* const, boost::function<void(int)> > >, std::less<void*>, std::allocator<std::pair<void* const, boost::function<void(int)> > > >::equal_range
FUNC 695fe 12 0 std::_Rb_tree<void*, std::pair<void* const, boost::function<void(int)> >, std::_Select1st<std::pair<void* const, boost::function<void(int)> > >, std::less<void*>, std::allocator<std::pair<void* const, boost::function<void(int)> > > >::size
FUNC 69610 bc 0 std::_Rb_tree<void*, std::pair<void* const, boost::function<void(int)> >, std::_Select1st<std::pair<void* const, boost::function<void(int)> > >, std::less<void*>, std::allocator<std::pair<void* const, boost::function<void(int)> > > >::erase
FUNC 696cc 4c 0 boost::exception_detail::error_info_injector<boost::bad_function_call>::error_info_injector
FUNC 69718 b9 0 boost::exception_detail::clone_impl<boost::exception_detail::error_info_injector<boost::bad_function_call> >::clone_impl
FUNC 697d2 1a 0 std::allocator<std::_Rb_tree_node<std::pair<void* const, boost::function<void(int)> > > >::allocator
FUNC 697ec 41 0 std::_Rb_tree<void*, std::pair<void* const, boost::function<void(int)> >, std::_Select1st<std::pair<void* const, boost::function<void(int)> > >, std::less<void*>, std::allocator<std::pair<void* const, boost::function<void(int)> > > >::_Rb_tree_impl<std::less<void*>, false>::_M_initialize
FUNC 6982e 3b 0 std::_Rb_tree<void*, std::pair<void* const, boost::function<void(int)> >, std::_Select1st<std::pair<void* const, boost::function<void(int)> > >, std::less<void*>, std::allocator<std::pair<void* const, boost::function<void(int)> > > >::get_allocator
FUNC 6986a 1a 0 std::allocator<std::pair<void* const, boost::function<void(int)> > >::~allocator
FUNC 69884 1e 0 __gnu_cxx::new_allocator<std::pair<void* const, boost::function<void(int)> > >::destroy
FUNC 698a2 2a 0 std::_Rb_tree<void*, std::pair<void* const, boost::function<void(int)> >, std::_Select1st<std::pair<void* const, boost::function<void(int)> > >, std::less<void*>, std::allocator<std::pair<void* const, boost::function<void(int)> > > >::_M_put_node
FUNC 698cc 11 0 boost::detail::thread_move_t<boost::unique_lock<boost::shared_mutex> >::operator->
FUNC 698dd 32 0 std::swap<boost::shared_mutex*>
FUNC 69910 12 0 std::_Rb_tree<void*, std::pair<void* const, boost::function<void(int)> >, std::_Select1st<std::pair<void* const, boost::function<void(int)> > >, std::less<void*>, std::allocator<std::pair<void* const, boost::function<void(int)> > > >::_M_end
FUNC 69922 92 0 std::_Rb_tree<void*, std::pair<void* const, boost::function<void(int)> >, std::_Select1st<std::pair<void* const, boost::function<void(int)> > >, std::less<void*>, std::allocator<std::pair<void* const, boost::function<void(int)> > > >::_M_lower_bound
FUNC 699b4 40 0 boost::detail::function::basic_vtable1<void, int>::clear
FUNC 699f4 12 0 std::_Rb_tree<void*, std::pair<void* const, boost::function<void(int)> >, std::_Select1st<std::pair<void* const, boost::function<void(int)> > >, std::less<void*>, std::allocator<std::pair<void* const, boost::function<void(int)> > > >::_M_rightmost
FUNC 69a06 2c 0 std::_Rb_tree<void*, std::pair<void* const, boost::function<void(int)> >, std::_Select1st<std::pair<void* const, boost::function<void(int)> > >, std::less<void*>, std::allocator<std::pair<void* const, boost::function<void(int)> > > >::_S_key
FUNC 69a32 12 0 std::_Select1st<std::pair<void* const, boost::function<void(int)> > >::operator()
FUNC 69a44 e3 0 std::_Rb_tree<void*, std::pair<void* const, boost::function<void(int)> >, std::_Select1st<std::pair<void* const, boost::function<void(int)> > >, std::less<void*>, std::allocator<std::pair<void* const, boost::function<void(int)> > > >::_M_insert_
FUNC 69b28 271 0 std::_Rb_tree<void*, std::pair<void* const, boost::function<void(int)> >, std::_Select1st<std::pair<void* const, boost::function<void(int)> > >, std::less<void*>, std::allocator<std::pair<void* const, boost::function<void(int)> > > >::_M_insert_unique
FUNC 69d9a 12 0 std::_Rb_tree<void*, std::pair<void* const, boost::function<void(int)> >, std::_Select1st<std::pair<void* const, boost::function<void(int)> > >, std::less<void*>, std::allocator<std::pair<void* const, boost::function<void(int)> > > >::_M_leftmost
FUNC 69dac 28 0 std::_Rb_tree_const_iterator<std::pair<void* const, boost::function<void(int)> > >::operator--
FUNC 69dd4 12 0 std::_Rb_tree<void*, std::pair<void* const, boost::function<void(int)> >, std::_Select1st<std::pair<void* const, boost::function<void(int)> > >, std::less<void*>, std::allocator<std::pair<void* const, boost::function<void(int)> > > >::_S_right
FUNC 69de6 28 0 std::_Rb_tree_const_iterator<std::pair<void* const, boost::function<void(int)> > >::operator++
FUNC 69e0e 97 0 boost::function1<void, int>::assign_to_own
FUNC 69ea5 2c 0 std::_Rb_tree<void*, std::pair<void* const, boost::function<void(int)> >, std::_Select1st<std::pair<void* const, boost::function<void(int)> > >, std::less<void*>, std::allocator<std::pair<void* const, boost::function<void(int)> > > >::_S_key
FUNC 69ed2 8f 0 std::_Rb_tree<void*, std::pair<void* const, boost::function<void(int)> >, std::_Select1st<std::pair<void* const, boost::function<void(int)> > >, std::less<void*>, std::allocator<std::pair<void* const, boost::function<void(int)> > > >::_M_upper_bound
FUNC 69f62 2f 0 std::pair<std::_Rb_tree_iterator<std::pair<void* const, boost::function<void(int)> > >, std::_Rb_tree_iterator<std::pair<void* const, boost::function<void(int)> > > >::pair
FUNC 69f92 8d 0 std::_Rb_tree<void*, std::pair<void* const, boost::function<void(int)> >, std::_Select1st<std::pair<void* const, boost::function<void(int)> > >, std::less<void*>, std::allocator<std::pair<void* const, boost::function<void(int)> > > >::clear
FUNC 6a020 54 0 std::_Rb_tree<void*, std::pair<void* const, boost::function<void(int)> >, std::_Select1st<std::pair<void* const, boost::function<void(int)> > >, std::less<void*>, std::allocator<std::pair<void* const, boost::function<void(int)> > > >::erase
FUNC 6a074 a 0 __gnu_cxx::new_allocator<std::_Rb_tree_node<std::pair<void* const, boost::function<void(int)> > > >::new_allocator
FUNC 6a07e e 0 std::_Rb_tree<void*, std::pair<void* const, boost::function<void(int)> >, std::_Select1st<std::pair<void* const, boost::function<void(int)> > >, std::less<void*>, std::allocator<std::pair<void* const, boost::function<void(int)> > > >::_M_get_Node_allocator
FUNC 6a08c 1e 0 std::allocator<std::pair<void* const, boost::function<void(int)> > >::allocator<std::_Rb_tree_node<std::pair<void* const, boost::function<void(int)> > > >
FUNC 6a0aa a 0 __gnu_cxx::new_allocator<std::pair<void* const, boost::function<void(int)> > >::~new_allocator
FUNC 6a0b4 22 0 __gnu_cxx::new_allocator<std::_Rb_tree_node<std::pair<void* const, boost::function<void(int)> > > >::deallocate
FUNC 6a0d6 12 0 std::_Rb_tree<void*, std::pair<void* const, boost::function<void(int)> >, std::_Select1st<std::pair<void* const, boost::function<void(int)> > >, std::less<void*>, std::allocator<std::pair<void* const, boost::function<void(int)> > > >::_S_value
FUNC 6a0e8 bb 0 std::_Rb_tree<void*, std::pair<void* const, boost::function<void(int)> >, std::_Select1st<std::pair<void* const, boost::function<void(int)> > >, std::less<void*>, std::allocator<std::pair<void* const, boost::function<void(int)> > > >::_M_create_node
FUNC 6a1a4 2e 0 std::pair<std::_Rb_tree_iterator<std::pair<void* const, boost::function<void(int)> > >, bool>::pair
FUNC 6a1d2 28 0 std::_Rb_tree_iterator<std::pair<void* const, boost::function<void(int)> > >::operator--
FUNC 6a1fa 12 0 std::_Rb_tree<void*, std::pair<void* const, boost::function<void(int)> >, std::_Select1st<std::pair<void* const, boost::function<void(int)> > >, std::less<void*>, std::allocator<std::pair<void* const, boost::function<void(int)> > > >::_S_value
FUNC 6a20c 12 0 std::_Rb_tree<void*, std::pair<void* const, boost::function<void(int)> >, std::_Select1st<std::pair<void* const, boost::function<void(int)> > >, std::less<void*>, std::allocator<std::pair<void* const, boost::function<void(int)> > > >::_M_root
FUNC 6a21e a 0 __gnu_cxx::new_allocator<std::pair<void* const, boost::function<void(int)> > >::new_allocator
FUNC 6a228 24 0 std::_Rb_tree<void*, std::pair<void* const, boost::function<void(int)> >, std::_Select1st<std::pair<void* const, boost::function<void(int)> > >, std::less<void*>, std::allocator<std::pair<void* const, boost::function<void(int)> > > >::_M_get_node
FUNC 6a24c 3b 0 std::pair<void* const, boost::function<void(int)> >::pair
FUNC 6a288 77 0 __gnu_cxx::new_allocator<std::pair<void* const, boost::function<void(int)> > >::construct
FUNC 6a300 55 0 __gnu_cxx::new_allocator<std::_Rb_tree_node<std::pair<void* const, boost::function<void(int)> > > >::allocate
FUNC 6a356 14 0 __gnu_cxx::new_allocator<std::_Rb_tree_node<std::pair<void* const, boost::function<void(int)> > > >::max_size
FUNC 6a370 6c 0 boost::exception_detail::clone_impl<boost::exception_detail::error_info_injector<boost::bad_function_call> >::clone
FUNC 6a3e2 53 0 boost::exception_detail::clone_impl<boost::exception_detail::error_info_injector<boost::bad_function_call> >::rethrow
FUNC 6a438 e9 0 Config::StringParameter::StringParameter
FUNC 6a522 103 0 Config::StringParameter::StringParameter
FUNC 6a626 a6 0 Config::StringParameter::~StringParameter
FUNC 6a6cc 7b 0 Config::StringParameter::get
FUNC 6a748 2a1 0 Config::StringParameter::set
FUNC 6a9ea 8d 0 Config::StringParameter::registerWatcher
FUNC 6aa78 7a 0 Config::StringParameter::unregisterWatcher
FUNC 6aaf2 181 0 __static_initialization_and_destruction_0
FUNC 6ac73 15 0 _GLOBAL__I__ZN6Config15StringParameterC2ERKSs
FUNC 6ac88 2d 0 std::char_traits<char>::compare
FUNC 6acb6 e 0 Config::StringParameter::_getName
FUNC 6acc4 1a 0 std::map<void*, boost::function<void(const std::string&)>, std::less<void*>, std::allocator<std::pair<void* const, boost::function<void(const std::string&)> > > >::~map
FUNC 6acde 1a 0 std::map<void*, boost::function<void(const std::string&)>, std::less<void*>, std::allocator<std::pair<void* const, boost::function<void(const std::string&)> > > >::map
FUNC 6acf8 1a 0 std::_Rb_tree<void*, std::pair<void* const, boost::function<void(const std::string&)> >, std::_Select1st<std::pair<void* const, boost::function<void(const std::string&)> > >, std::less<void*>, std::allocator<std::pair<void* const, boost::function<void(const std::string&)> > > >::_Rb_tree_impl<std::less<void*>, false>::~_Rb_tree_impl
FUNC 6ad12 63 0 std::_Rb_tree<void*, std::pair<void* const, boost::function<void(const std::string&)> >, std::_Select1st<std::pair<void* const, boost::function<void(const std::string&)> > >, std::less<void*>, std::allocator<std::pair<void* const, boost::function<void(const std::string&)> > > >::~_Rb_tree
FUNC 6ad75 84 0 std::operator==<char>
FUNC 6adfa 1a 0 std::map<void*, boost::function<void(const std::string&)>, std::less<void*>, std::allocator<std::pair<void* const, boost::function<void(const std::string&)> > > >::begin
FUNC 6ae14 1a 0 std::map<void*, boost::function<void(const std::string&)>, std::less<void*>, std::allocator<std::pair<void* const, boost::function<void(const std::string&)> > > >::end
FUNC 6ae2e 22 0 std::_Rb_tree_iterator<std::pair<void* const, boost::function<void(const std::string&)> > >::operator!=
FUNC 6ae50 36 0 std::_Rb_tree_iterator<std::pair<void* const, boost::function<void(const std::string&)> > >::operator++
FUNC 6ae86 15 0 std::_Rb_tree_iterator<std::pair<void* const, boost::function<void(const std::string&)> > >::operator->
FUNC 6ae9c 87 0 boost::function1<void, const std::string&>::operator()
FUNC 6af24 1a 0 boost::function<void(const std::string&)>::~function
FUNC 6af3e 1e 0 std::pair<void* const, boost::function<void(const std::string&)> >::~pair
FUNC 6af5c 161 0 std::map<void*, boost::function<void(const std::string&)>, std::less<void*>, std::allocator<std::pair<void* const, boost::function<void(const std::string&)> > > >::operator[]
FUNC 6b0be 73 0 boost::function<void(const std::string&)>::operator=
FUNC 6b132 25 0 std::map<void*, boost::function<void(const std::string&)>, std::less<void*>, std::allocator<std::pair<void* const, boost::function<void(const std::string&)> > > >::erase
FUNC 6b158 1a 0 std::_Rb_tree<void*, std::pair<void* const, boost::function<void(const std::string&)> >, std::_Select1st<std::pair<void* const, boost::function<void(const std::string&)> > >, std::less<void*>, std::allocator<std::pair<void* const, boost::function<void(const std::string&)> > > >::_Rb_tree
FUNC 6b172 1a 0 std::allocator<std::_Rb_tree_node<std::pair<void* const, boost::function<void(const std::string&)> > > >::~allocator
FUNC 6b18c 69 0 std::_Rb_tree<void*, std::pair<void* const, boost::function<void(const std::string&)> >, std::_Select1st<std::pair<void* const, boost::function<void(const std::string&)> > >, std::less<void*>, std::allocator<std::pair<void* const, boost::function<void(const std::string&)> > > >::_M_erase
FUNC 6b1f6 12 0 std::_Rb_tree<void*, std::pair<void* const, boost::function<void(const std::string&)> >, std::_Select1st<std::pair<void* const, boost::function<void(const std::string&)> > >, std::less<void*>, std::allocator<std::pair<void* const, boost::function<void(const std::string&)> > > >::_M_begin
FUNC 6b208 2c 0 std::_Rb_tree<void*, std::pair<void* const, boost::function<void(const std::string&)> >, std::_Select1st<std::pair<void* const, boost::function<void(const std::string&)> > >, std::less<void*>, std::allocator<std::pair<void* const, boost::function<void(const std::string&)> > > >::begin
FUNC 6b234 2c 0 std::_Rb_tree<void*, std::pair<void* const, boost::function<void(const std::string&)> >, std::_Select1st<std::pair<void* const, boost::function<void(const std::string&)> > >, std::less<void*>, std::allocator<std::pair<void* const, boost::function<void(const std::string&)> > > >::end
FUNC 6b260 15 0 boost::function1<void, const std::string&>::get_vtable
FUNC 6b276 25 0 std::map<void*, boost::function<void(const std::string&)>, std::less<void*>, std::allocator<std::pair<void* const, boost::function<void(const std::string&)> > > >::lower_bound
FUNC 6b29c 1a 0 std::map<void*, boost::function<void(const std::string&)>, std::less<void*>, std::allocator<std::pair<void* const, boost::function<void(const std::string&)> > > >::key_comp
FUNC 6b2b6 15 0 std::_Rb_tree_iterator<std::pair<void* const, boost::function<void(const std::string&)> > >::operator*
FUNC 6b2cc 22 0 std::_Rb_tree_iterator<std::pair<void* const, boost::function<void(const std::string&)> > >::operator==
FUNC 6b2ee 1a 0 boost::function<void(const std::string&)>::function
FUNC 6b308 1a 0 boost::function1<void, const std::string&>::~function1
FUNC 6b322 3b 0 std::pair<void* const, boost::function<void(const std::string&)> >::pair
FUNC 6b35e 40 0 std::map<void*, boost::function<void(const std::string&)>, std::less<void*>, std::allocator<std::pair<void* const, boost::function<void(const std::string&)> > > >::insert
FUNC 6b39e 25 0 boost::function<void(const std::string&)>::function
FUNC 6b3c4 9b 0 boost::function1<void, const std::string&>::swap
FUNC 6b460 83 0 std::_Rb_tree<void*, std::pair<void* const, boost::function<void(const std::string&)> >, std::_Select1st<std::pair<void* const, boost::function<void(const std::string&)> > >, std::less<void*>, std::allocator<std::pair<void* const, boost::function<void(const std::string&)> > > >::erase
FUNC 6b4e4 61 0 std::_Rb_tree<void*, std::pair<void* const, boost::function<void(const std::string&)> >, std::_Select1st<std::pair<void* const, boost::function<void(const std::string&)> > >, std::less<void*>, std::allocator<std::pair<void* const, boost::function<void(const std::string&)> > > >::_Rb_tree_impl<std::less<void*>, false>::_Rb_tree_impl
FUNC 6b546 a 0 __gnu_cxx::new_allocator<std::_Rb_tree_node<std::pair<void* const, boost::function<void(const std::string&)> > > >::~new_allocator
FUNC 6b550 12 0 std::_Rb_tree<void*, std::pair<void* const, boost::function<void(const std::string&)> >, std::_Select1st<std::pair<void* const, boost::function<void(const std::string&)> > >, std::less<void*>, std::allocator<std::pair<void* const, boost::function<void(const std::string&)> > > >::_S_right
FUNC 6b562 12 0 std::_Rb_tree<void*, std::pair<void* const, boost::function<void(const std::string&)> >, std::_Select1st<std::pair<void* const, boost::function<void(const std::string&)> > >, std::less<void*>, std::allocator<std::pair<void* const, boost::function<void(const std::string&)> > > >::_S_left
FUNC 6b574 86 0 std::_Rb_tree<void*, std::pair<void* const, boost::function<void(const std::string&)> >, std::_Select1st<std::pair<void* const, boost::function<void(const std::string&)> > >, std::less<void*>, std::allocator<std::pair<void* const, boost::function<void(const std::string&)> > > >::_M_destroy_node
FUNC 6b5fa 19 0 std::_Rb_tree_iterator<std::pair<void* const, boost::function<void(const std::string&)> > >::_Rb_tree_iterator
FUNC 6b614 53 0 std::_Rb_tree<void*, std::pair<void* const, boost::function<void(const std::string&)> >, std::_Select1st<std::pair<void* const, boost::function<void(const std::string&)> > >, std::less<void*>, std::allocator<std::pair<void* const, boost::function<void(const std::string&)> > > >::lower_bound
FUNC 6b668 a 0 std::_Rb_tree<void*, std::pair<void* const, boost::function<void(const std::string&)> >, std::_Select1st<std::pair<void* const, boost::function<void(const std::string&)> > >, std::less<void*>, std::allocator<std::pair<void* const, boost::function<void(const std::string&)> > > >::key_comp
FUNC 6b672 a 0 std::unary_function<const std::string&, void>::unary_function
FUNC 6b67c 26 0 boost::function1<void, const std::string&>::function1
FUNC 6b6a2 5d 0 boost::function1<void, const std::string&>::clear
FUNC 6b700 1c 0 std::_Rb_tree_const_iterator<std::pair<void* const, boost::function<void(const std::string&)> > >::_Rb_tree_const_iterator
FUNC 6b71c 4c0 0 std::_Rb_tree<void*, std::pair<void* const, boost::function<void(const std::string&)> >, std::_Select1st<std::pair<void* const, boost::function<void(const std::string&)> > >, std::less<void*>, std::allocator<std::pair<void* const, boost::function<void(const std::string&)> > > >::_M_insert_unique_
FUNC 6bbdc 3d 0 boost::function1<void, const std::string&>::function1
FUNC 6bc1a f5 0 boost::function1<void, const std::string&>::move_assign
FUNC 6bd10 204 0 std::_Rb_tree<void*, std::pair<void* const, boost::function<void(const std::string&)> >, std::_Select1st<std::pair<void* const, boost::function<void(const std::string&)> > >, std::less<void*>, std::allocator<std::pair<void* const, boost::function<void(const std::string&)> > > >::equal_range
FUNC 6bf14 12 0 std::_Rb_tree<void*, std::pair<void* const, boost::function<void(const std::string&)> >, std::_Select1st<std::pair<void* const, boost::function<void(const std::string&)> > >, std::less<void*>, std::allocator<std::pair<void* const, boost::function<void(const std::string&)> > > >::size
FUNC 6bf26 bc 0 std::_Rb_tree<void*, std::pair<void* const, boost::function<void(const std::string&)> >, std::_Select1st<std::pair<void* const, boost::function<void(const std::string&)> > >, std::less<void*>, std::allocator<std::pair<void* const, boost::function<void(const std::string&)> > > >::erase
FUNC 6bfe2 1a 0 std::allocator<std::_Rb_tree_node<std::pair<void* const, boost::function<void(const std::string&)> > > >::allocator
FUNC 6bffc 41 0 std::_Rb_tree<void*, std::pair<void* const, boost::function<void(const std::string&)> >, std::_Select1st<std::pair<void* const, boost::function<void(const std::string&)> > >, std::less<void*>, std::allocator<std::pair<void* const, boost::function<void(const std::string&)> > > >::_Rb_tree_impl<std::less<void*>, false>::_M_initialize
FUNC 6c03e 3b 0 std::_Rb_tree<void*, std::pair<void* const, boost::function<void(const std::string&)> >, std::_Select1st<std::pair<void* const, boost::function<void(const std::string&)> > >, std::less<void*>, std::allocator<std::pair<void* const, boost::function<void(const std::string&)> > > >::get_allocator
FUNC 6c07a 1a 0 std::allocator<std::pair<void* const, boost::function<void(const std::string&)> > >::~allocator
FUNC 6c094 1e 0 __gnu_cxx::new_allocator<std::pair<void* const, boost::function<void(const std::string&)> > >::destroy
FUNC 6c0b2 2a 0 std::_Rb_tree<void*, std::pair<void* const, boost::function<void(const std::string&)> >, std::_Select1st<std::pair<void* const, boost::function<void(const std::string&)> > >, std::less<void*>, std::allocator<std::pair<void* const, boost::function<void(const std::string&)> > > >::_M_put_node
FUNC 6c0dc 12 0 std::_Rb_tree<void*, std::pair<void* const, boost::function<void(const std::string&)> >, std::_Select1st<std::pair<void* const, boost::function<void(const std::string&)> > >, std::less<void*>, std::allocator<std::pair<void* const, boost::function<void(const std::string&)> > > >::_M_end
FUNC 6c0ee 92 0 std::_Rb_tree<void*, std::pair<void* const, boost::function<void(const std::string&)> >, std::_Select1st<std::pair<void* const, boost::function<void(const std::string&)> > >, std::less<void*>, std::allocator<std::pair<void* const, boost::function<void(const std::string&)> > > >::_M_lower_bound
FUNC 6c180 40 0 boost::detail::function::basic_vtable1<void, const std::string&>::clear
FUNC 6c1c0 12 0 std::_Rb_tree<void*, std::pair<void* const, boost::function<void(const std::string&)> >, std::_Select1st<std::pair<void* const, boost::function<void(const std::string&)> > >, std::less<void*>, std::allocator<std::pair<void* const, boost::function<void(const std::string&)> > > >::_M_rightmost
FUNC 6c1d2 2c 0 std::_Rb_tree<void*, std::pair<void* const, boost::function<void(const std::string&)> >, std::_Select1st<std::pair<void* const, boost::function<void(const std::string&)> > >, std::less<void*>, std::allocator<std::pair<void* const, boost::function<void(const std::string&)> > > >::_S_key
FUNC 6c1fe 12 0 std::_Select1st<std::pair<void* const, boost::function<void(const std::string&)> > >::operator()
FUNC 6c210 e3 0 std::_Rb_tree<void*, std::pair<void* const, boost::function<void(const std::string&)> >, std::_Select1st<std::pair<void* const, boost::function<void(const std::string&)> > >, std::less<void*>, std::allocator<std::pair<void* const, boost::function<void(const std::string&)> > > >::_M_insert_
FUNC 6c2f4 271 0 std::_Rb_tree<void*, std::pair<void* const, boost::function<void(const std::string&)> >, std::_Select1st<std::pair<void* const, boost::function<void(const std::string&)> > >, std::less<void*>, std::allocator<std::pair<void* const, boost::function<void(const std::string&)> > > >::_M_insert_unique
FUNC 6c566 12 0 std::_Rb_tree<void*, std::pair<void* const, boost::function<void(const std::string&)> >, std::_Select1st<std::pair<void* const, boost::function<void(const std::string&)> > >, std::less<void*>, std::allocator<std::pair<void* const, boost::function<void(const std::string&)> > > >::_M_leftmost
FUNC 6c578 28 0 std::_Rb_tree_const_iterator<std::pair<void* const, boost::function<void(const std::string&)> > >::operator--
FUNC 6c5a0 12 0 std::_Rb_tree<void*, std::pair<void* const, boost::function<void(const std::string&)> >, std::_Select1st<std::pair<void* const, boost::function<void(const std::string&)> > >, std::less<void*>, std::allocator<std::pair<void* const, boost::function<void(const std::string&)> > > >::_S_right
FUNC 6c5b2 28 0 std::_Rb_tree_const_iterator<std::pair<void* const, boost::function<void(const std::string&)> > >::operator++
FUNC 6c5da 97 0 boost::function1<void, const std::string&>::assign_to_own
FUNC 6c671 2c 0 std::_Rb_tree<void*, std::pair<void* const, boost::function<void(const std::string&)> >, std::_Select1st<std::pair<void* const, boost::function<void(const std::string&)> > >, std::less<void*>, std::allocator<std::pair<void* const, boost::function<void(const std::string&)> > > >::_S_key
FUNC 6c69e 8f 0 std::_Rb_tree<void*, std::pair<void* const, boost::function<void(const std::string&)> >, std::_Select1st<std::pair<void* const, boost::function<void(const std::string&)> > >, std::less<void*>, std::allocator<std::pair<void* const, boost::function<void(const std::string&)> > > >::_M_upper_bound
FUNC 6c72e 2f 0 std::pair<std::_Rb_tree_iterator<std::pair<void* const, boost::function<void(const std::string&)> > >, std::_Rb_tree_iterator<std::pair<void* const, boost::function<void(const std::string&)> > > >::pair
FUNC 6c75e 8d 0 std::_Rb_tree<void*, std::pair<void* const, boost::function<void(const std::string&)> >, std::_Select1st<std::pair<void* const, boost::function<void(const std::string&)> > >, std::less<void*>, std::allocator<std::pair<void* const, boost::function<void(const std::string&)> > > >::clear
FUNC 6c7ec 54 0 std::_Rb_tree<void*, std::pair<void* const, boost::function<void(const std::string&)> >, std::_Select1st<std::pair<void* const, boost::function<void(const std::string&)> > >, std::less<void*>, std::allocator<std::pair<void* const, boost::function<void(const std::string&)> > > >::erase
FUNC 6c840 a 0 __gnu_cxx::new_allocator<std::_Rb_tree_node<std::pair<void* const, boost::function<void(const std::string&)> > > >::new_allocator
FUNC 6c84a e 0 std::_Rb_tree<void*, std::pair<void* const, boost::function<void(const std::string&)> >, std::_Select1st<std::pair<void* const, boost::function<void(const std::string&)> > >, std::less<void*>, std::allocator<std::pair<void* const, boost::function<void(const std::string&)> > > >::_M_get_Node_allocator
FUNC 6c858 1e 0 std::allocator<std::pair<void* const, boost::function<void(const std::string&)> > >::allocator<std::_Rb_tree_node<std::pair<void* const, boost::function<void(const std::string&)> > > >
FUNC 6c876 a 0 __gnu_cxx::new_allocator<std::pair<void* const, boost::function<void(const std::string&)> > >::~new_allocator
FUNC 6c880 22 0 __gnu_cxx::new_allocator<std::_Rb_tree_node<std::pair<void* const, boost::function<void(const std::string&)> > > >::deallocate
FUNC 6c8a2 12 0 std::_Rb_tree<void*, std::pair<void* const, boost::function<void(const std::string&)> >, std::_Select1st<std::pair<void* const, boost::function<void(const std::string&)> > >, std::less<void*>, std::allocator<std::pair<void* const, boost::function<void(const std::string&)> > > >::_S_value
FUNC 6c8b4 bb 0 std::_Rb_tree<void*, std::pair<void* const, boost::function<void(const std::string&)> >, std::_Select1st<std::pair<void* const, boost::function<void(const std::string&)> > >, std::less<void*>, std::allocator<std::pair<void* const, boost::function<void(const std::string&)> > > >::_M_create_node
FUNC 6c970 2e 0 std::pair<std::_Rb_tree_iterator<std::pair<void* const, boost::function<void(const std::string&)> > >, bool>::pair
FUNC 6c99e 28 0 std::_Rb_tree_iterator<std::pair<void* const, boost::function<void(const std::string&)> > >::operator--
FUNC 6c9c6 12 0 std::_Rb_tree<void*, std::pair<void* const, boost::function<void(const std::string&)> >, std::_Select1st<std::pair<void* const, boost::function<void(const std::string&)> > >, std::less<void*>, std::allocator<std::pair<void* const, boost::function<void(const std::string&)> > > >::_S_value
FUNC 6c9d8 12 0 std::_Rb_tree<void*, std::pair<void* const, boost::function<void(const std::string&)> >, std::_Select1st<std::pair<void* const, boost::function<void(const std::string&)> > >, std::less<void*>, std::allocator<std::pair<void* const, boost::function<void(const std::string&)> > > >::_M_root
FUNC 6c9ea a 0 __gnu_cxx::new_allocator<std::pair<void* const, boost::function<void(const std::string&)> > >::new_allocator
FUNC 6c9f4 24 0 std::_Rb_tree<void*, std::pair<void* const, boost::function<void(const std::string&)> >, std::_Select1st<std::pair<void* const, boost::function<void(const std::string&)> > >, std::less<void*>, std::allocator<std::pair<void* const, boost::function<void(const std::string&)> > > >::_M_get_node
FUNC 6ca18 3b 0 std::pair<void* const, boost::function<void(const std::string&)> >::pair
FUNC 6ca54 77 0 __gnu_cxx::new_allocator<std::pair<void* const, boost::function<void(const std::string&)> > >::construct
FUNC 6cacc 55 0 __gnu_cxx::new_allocator<std::_Rb_tree_node<std::pair<void* const, boost::function<void(const std::string&)> > > >::allocate
FUNC 6cb22 14 0 __gnu_cxx::new_allocator<std::_Rb_tree_node<std::pair<void* const, boost::function<void(const std::string&)> > > >::max_size
FUNC 6cb38 88e 0 Config::XmlGroup::parse
FUNC 6d3c6 250 0 Config::XmlGroup::genNode
FUNC 6d616 61c 0 Config::XmlGroup::convertToMap
FUNC 6dc32 383 0 Config::XmlGroup::refreshFromMap
FUNC 6dfb5 257 0 __static_initialization_and_destruction_0
FUNC 6e20c 15 0 _GLOBAL__I__ZN6Config8XmlGroup9GROUP_TAGE
FUNC 6e222 139 0 Config::XmlParameter::XmlParameter
FUNC 6e35c e 0 Config::XmlParameter::getName
FUNC 6e36a 12 0 Config::XmlParameter::getId
FUNC 6e37c 12 0 Config::XmlParameter::getValueType
FUNC 6e38e 12 0 Config::XmlParameter::getValueRange
FUNC 6e3a0 12 0 Config::XmlParameter::getValue
FUNC 6e3b2 29 0 Config::XmlParameter::setValue
FUNC 6e3dc 55 0 std::pair<std::basic_string<char, std::char_traits<char>, std::allocator<char> >, Config::IntParameter>::~pair
FUNC 6e432 55 0 std::pair<std::basic_string<char, std::char_traits<char>, std::allocator<char> >, Config::StringParameter>::~pair
FUNC 6e488 7a 0 std::vector<Config::XmlGroup, std::allocator<Config::XmlGroup> >::push_back
FUNC 6e502 7a 0 std::vector<Config::XmlParameter, std::allocator<Config::XmlParameter> >::push_back
FUNC 6e57c 3e 0 __gnu_cxx::__normal_iterator<Config::XmlGroup*, std::vector<Config::XmlGroup, std::allocator<Config::XmlGroup> > >::operator++
FUNC 6e5ba 11 0 __gnu_cxx::__normal_iterator<Config::XmlGroup*, std::vector<Config::XmlGroup, std::allocator<Config::XmlGroup> > >::operator->
FUNC 6e5cc 3e 0 __gnu_cxx::__normal_iterator<Config::XmlParameter*, std::vector<Config::XmlParameter, std::allocator<Config::XmlParameter> > >::operator++
FUNC 6e60a 11 0 __gnu_cxx::__normal_iterator<Config::XmlParameter*, std::vector<Config::XmlParameter, std::allocator<Config::XmlParameter> > >::operator->
FUNC 6e61c 6b 0 std::pair<std::basic_string<char, std::char_traits<char>, std::allocator<char> >, Config::IntParameter>::pair
FUNC 6e688 6b 0 std::pair<const std::basic_string<char, std::char_traits<char>, std::allocator<char> >, Config::IntParameter>::pair<std::basic_string<char, std::char_traits<char>, std::allocator<char> >, Config::IntParameter>
FUNC 6e6f4 6b 0 std::pair<std::basic_string<char, std::char_traits<char>, std::allocator<char> >, Config::StringParameter>::pair
FUNC 6e760 6b 0 std::pair<const std::basic_string<char, std::char_traits<char>, std::allocator<char> >, Config::StringParameter>::pair<std::basic_string<char, std::char_traits<char>, std::allocator<char> >, Config::StringParameter>
FUNC 6e7cc 77 0 __gnu_cxx::new_allocator<Config::XmlGroup>::construct
FUNC 6e844 3e6 0 std::vector<Config::XmlGroup, std::allocator<Config::XmlGroup> >::_M_insert_aux
FUNC 6ec2a 77 0 __gnu_cxx::new_allocator<Config::XmlParameter>::construct
FUNC 6eca2 3e6 0 std::vector<Config::XmlParameter, std::allocator<Config::XmlParameter> >::_M_insert_aux
FUNC 6f088 46 0 std::copy_backward<Config::XmlGroup*, Config::XmlGroup*>
FUNC 6f0ce ca 0 std::vector<Config::XmlGroup, std::allocator<Config::XmlGroup> >::_M_check_len
FUNC 6f198 57 0 __gnu_cxx::operator-<Config::XmlGroup*, std::vector<Config::XmlGroup, std::allocator<Config::XmlGroup> > >
FUNC 6f1ef 3b 0 std::__uninitialized_move_a<Config::XmlGroup*, Config::XmlGroup*, std::allocator<Config::XmlGroup> >
FUNC 6f22a 1e 0 __gnu_cxx::new_allocator<Config::XmlGroup>::destroy
FUNC 6f248 46 0 std::copy_backward<Config::XmlParameter*, Config::XmlParameter*>
FUNC 6f28e ca 0 std::vector<Config::XmlParameter, std::allocator<Config::XmlParameter> >::_M_check_len
FUNC 6f358 57 0 __gnu_cxx::operator-<Config::XmlParameter*, std::vector<Config::XmlParameter, std::allocator<Config::XmlParameter> > >
FUNC 6f3af 3b 0 std::__uninitialized_move_a<Config::XmlParameter*, Config::XmlParameter*, std::allocator<Config::XmlParameter> >
FUNC 6f3ea 1e 0 __gnu_cxx::new_allocator<Config::XmlParameter>::destroy
FUNC 6f408 58 0 std::__copy_move_backward_a2<false, Config::XmlGroup*, Config::XmlGroup*>
FUNC 6f460 22 0 std::vector<Config::XmlGroup, std::allocator<Config::XmlGroup> >::max_size
FUNC 6f482 58 0 std::__copy_move_backward_a2<false, Config::XmlParameter*, Config::XmlParameter*>
FUNC 6f4da 22 0 std::vector<Config::XmlParameter, std::allocator<Config::XmlParameter> >::max_size
FUNC 6f4fc 31 0 std::__copy_move_backward_a<false, Config::XmlGroup*, Config::XmlGroup*>
FUNC 6f52d 31 0 std::__copy_move_backward_a<false, Config::XmlParameter*, Config::XmlParameter*>
FUNC 6f55e 74 0 std::__copy_move_backward<false, false, std::random_access_iterator_tag>::__copy_move_b<Config::XmlGroup*, Config::XmlGroup*>
FUNC 6f5d2 74 0 std::__copy_move_backward<false, false, std::random_access_iterator_tag>::__copy_move_b<Config::XmlParameter*, Config::XmlParameter*>
FUNC 6f648 5ed 0 Config::XmlParameter::parse
FUNC 6fc36 29f 0 Config::XmlParameter::genNode
FUNC 6fed6 d8 0 Config::XmlParameter::setValue
FUNC 6ffae 587 0 __static_initialization_and_destruction_0
FUNC 70535 15 0 _GLOBAL__I__ZN6Config12XmlParameter13PARAMETER_TAGE
FUNC 7054c 550 0 WgjXml::WgjXml
FUNC 70a9c 581 0 WgjXml::~WgjXml
FUNC 7101e 6c 0 WgjXml::LoadXml
FUNC 7108a a1 0 WgjXml::Get_Point61850
FUNC 7112c 1f1 0 WgjXml::GetTransmitChannel
FUNC 7131e 96 0 WgjXml::Get_61850
FUNC 713b4 1b8 0 WgjXml::GetRedisConnectionConfig
FUNC 7156c db 0 WgjXml::GetCollectionRedisInfo
FUNC 71648 72 0 WgjXml::GetPcapConfigInfo
FUNC 716ba 6b 0 WgjXml::GetAllChannelName
FUNC 71726 f2 0 WgjXml::GetParseConfigInfo
FUNC 71818 be 0 WgjXml::GetIEC61850ServerPoint
FUNC 718d6 85 0 WgjXml::InitIEC103Xml
FUNC 7195c 36 0 WgjXml::GetIEC103Param
FUNC 71992 36 0 WgjXml::GetIEC103Point
FUNC 719c8 bf 0 WgjXml::GetIEC104WFPoint
FUNC 71a88 89 0 WgjXml::GetIEC104WFParam
FUNC 71b12 89 0 WgjXml::Get61850IP
FUNC 71b9c 732 0 WgjXml::parse_61850
FUNC 722ce 68e 0 WgjXml::parse_Iec104
FUNC 7295c 55e 0 WgjXml::parse_Iec104Param
FUNC 72eba 452 0 WgjXml::parse_Iec103
FUNC 7330c 215 0 WgjXml::find_RedisInfo
FUNC 73522 178 0 WgjXml::get_AllChannel
FUNC 7369a 62a 0 WgjXml::getParseConfigInfo
FUNC 73cc4 2b0 0 WgjXml::GetDataStorageConfig
FUNC 73f74 487 0 WgjXml::getPcapConfigInfo
FUNC 743fc 35d 0 WgjXml::getIEC61850ServerPoint
FUNC 7475a 314 0 WgjXml::parse_61850IP
FUNC 74a6e 40 0 __static_initialization_and_destruction_0
FUNC 74aae 15 0 _GLOBAL__I__ZN6WgjXmlC2Ev
FUNC 74ac4 1a 0 TiXmlString::~TiXmlString
FUNC 74ade 15 0 TiXmlString::c_str
FUNC 74af4 38 0 TiXmlString::quit
FUNC 74b2c 1e 0 TiXmlNode::Value
FUNC 74b4a 1a 0 TiXmlNode::NextSiblingElement
FUNC 74b64 1a 0 TiXmlNode::FirstChildElement
FUNC 74b7e 18 0 TiXmlNode::NoChildren
FUNC 74b96 4a 0 TiXmlDocument::~TiXmlDocument
FUNC 74be0 26 0 TiXmlDocument::~TiXmlDocument
FUNC 74c06 1a 0 TiXmlDocument::RootElement
FUNC 74c20 1a 0 std::map<std::basic_string<char, std::char_traits<char>, std::allocator<char> >, IEC61850_STRUCT::IED_61850, std::less<std::basic_string<char, std::char_traits<char>, std::allocator<char> > >, std::allocator<std::pair<const std::basic_string<char, std::char_traits<char>, std::allocator<char> >, IEC61850_STRUCT::IED_61850> > >::~map
FUNC 74c3a 139 0 IEC61850_STRUCT::IED_61850::IED_61850
FUNC 74d74 140 0 IEC61850_STRUCT::IED_61850::~IED_61850
FUNC 74eb4 1a 0 std::list<std::basic_string<char, std::char_traits<char>, std::allocator<char> >, std::allocator<std::basic_string<char, std::char_traits<char>, std::allocator<char> > > >::~list
FUNC 74ece 1a 0 std::map<std::basic_string<char, std::char_traits<char>, std::allocator<char> >, std::map<int, std::map<int, IEC104WF::stPointTable, std::less<int>, std::allocator<std::pair<const int, IEC104WF::stPointTable> > >, std::less<int>, std::allocator<std::pair<const int, std::map<int, IEC104WF::stPointTable, std::less<int>, std::allocator<std::pair<const int, IEC104WF::stPointTable> > > > > >, std::less<std::basic_string<char, std::char_traits<char>, std::allocator<char> > >, std::allocator<std::pair<const std::basic_string<char, std::char_traits<char>, std::allocator<char> >, std::map<int, std::map<int, IEC104WF::stPointTable, std::less<int>, std::allocator<std::pair<const int, IEC104WF::stPointTable> > >, std::less<int>, std::allocator<std::pair<const int, std::map<int, IEC104WF::stPointTable, std::less<int>, std::allocator<std::pair<const int, IEC104WF::stPointTable> > > > > > > > >::~map
FUNC 74ee8 1a 0 std::map<int, std::map<int, IEC104WF::stPointTable, std::less<int>, std::allocator<std::pair<const int, IEC104WF::stPointTable> > >, std::less<int>, std::allocator<std::pair<const int, std::map<int, IEC104WF::stPointTable, std::less<int>, std::allocator<std::pair<const int, IEC104WF::stPointTable> > > > > >::~map
FUNC 74f02 1a 0 std::map<int, IEC104WF::stPointTable, std::less<int>, std::allocator<std::pair<const int, IEC104WF::stPointTable> > >::~map
FUNC 74f1c 1a 0 IEC104WF::stPointTable::stPointTable
FUNC 74f36 1a 0 IEC104WF::stPointTable::~stPointTable
FUNC 74f50 82 0 IEC103::stConfigParam::stConfigParam
FUNC 74fd2 121 0 IEC61850_STRUCT::IED_61850::operator=
FUNC 750f4 45 0 IEC104WF::stPointTable::operator=
FUNC 7513a 7b 0 IEC103::stConfigParam::operator=
FUNC 751b6 1a 0 std::map<std::basic_string<char, std::char_traits<char>, std::allocator<char> >, IEC61850_STRUCT::IED_61850, std::less<std::basic_string<char, std::char_traits<char>, std::allocator<char> > >, std::allocator<std::pair<const std::basic_string<char, std::char_traits<char>, std::allocator<char> >, IEC61850_STRUCT::IED_61850> > >::map
FUNC 751d0 1a 0 std::_Rb_tree<std::basic_string<char, std::char_traits<char>, std::allocator<char> >, std::pair<const std::basic_string<char, std::char_traits<char>, std::allocator<char> >, IEC61850_STRUCT::IED_61850>, std::_Select1st<std::pair<const std::basic_string<char, std::char_traits<char>, std::allocator<char> >, IEC61850_STRUCT::IED_61850> >, std::less<std::basic_string<char, std::char_traits<char>, std::allocator<char> > >, std::allocator<std::pair<const std::basic_string<char, std::char_traits<char>, std::allocator<char> >, IEC61850_STRUCT::IED_61850> > >::_Rb_tree_impl<std::less<std::basic_string<char, std::char_traits<char>, std::allocator<char> > >, false>::~_Rb_tree_impl
FUNC 751ea 63 0 std::_Rb_tree<std::basic_string<char, std::char_traits<char>, std::allocator<char> >, std::pair<const std::basic_string<char, std::char_traits<char>, std::allocator<char> >, IEC61850_STRUCT::IED_61850>, std::_Select1st<std::pair<const std::basic_string<char, std::char_traits<char>, std::allocator<char> >, IEC61850_STRUCT::IED_61850> >, std::less<std::basic_string<char, std::char_traits<char>, std::allocator<char> > >, std::allocator<std::pair<const std::basic_string<char, std::char_traits<char>, std::allocator<char> >, IEC61850_STRUCT::IED_61850> > >::~_Rb_tree
FUNC 7524e 1a 0 std::list<std::basic_string<char, std::char_traits<char>, std::allocator<char> >, std::allocator<std::basic_string<char, std::char_traits<char>, std::allocator<char> > > >::list
FUNC 75268 1a 0 std::_List_base<std::basic_string<char, std::char_traits<char>, std::allocator<char> >, std::allocator<std::basic_string<char, std::char_traits<char>, std::allocator<char> > > >::_List_impl::~_List_impl
FUNC 75282 51 0 std::_List_base<std::basic_string<char, std::char_traits<char>, std::allocator<char> >, std::allocator<std::basic_string<char, std::char_traits<char>, std::allocator<char> > > >::~_List_base
FUNC 752d4 1a 0 std::map<std::basic_string<char, std::char_traits<char>, std::allocator<char> >, std::map<int, std::map<int, IEC104WF::stPointTable, std::less<int>, std::allocator<std::pair<const int, IEC104WF::stPointTable> > >, std::less<int>, std::allocator<std::pair<const int, std::map<int, IEC104WF::stPointTable, std::less<int>, std::allocator<std::pair<const int, IEC104WF::stPointTable> > > > > >, std::less<std::basic_string<char, std::char_traits<char>, std::allocator<char> > >, std::allocator<std::pair<const std::basic_string<char, std::char_traits<char>, std::allocator<char> >, std::map<int, std::map<int, IEC104WF::stPointTable, std::less<int>, std::allocator<std::pair<const int, IEC104WF::stPointTable> > >, std::less<int>, std::allocator<std::pair<const int, std::map<int, IEC104WF::stPointTable, std::less<int>, std::allocator<std::pair<const int, IEC104WF::stPointTable> > > > > > > > >::map
FUNC 752ee 1a 0 std::_Rb_tree<std::basic_string<char, std::char_traits<char>, std::allocator<char> >, std::pair<const std::basic_string<char, std::char_traits<char>, std::allocator<char> >, std::map<int, std::map<int, IEC104WF::stPointTable, std::less<int>, std::allocator<std::pair<const int, IEC104WF::stPointTable> > >, std::less<int>, std::allocator<std::pair<const int, std::map<int, IEC104WF::stPointTable, std::less<int>, std::allocator<std::pair<const int, IEC104WF::stPointTable> > > > > > >, std::_Select1st<std::pair<const std::basic_string<char, std::char_traits<char>, std::allocator<char> >, std::map<int, std::map<int, IEC104WF::stPointTable, std::less<int>, std::allocator<std::pair<const int, IEC104WF::stPointTable> > >, std::less<int>, std::allocator<std::pair<const int, std::map<int, IEC104WF::stPointTable, std::less<int>, std::allocator<std::pair<const int, IEC104WF::stPointTable> > > > > > > >, std::less<std::basic_string<char, std::char_traits<char>, std::allocator<char> > >, std::allocator<std::pair<const std::basic_string<char, std::char_traits<char>, std::allocator<char> >, std::map<int, std::map<int, IEC104WF::stPointTable, std::less<int>, std::allocator<std::pair<const int, IEC104WF::stPointTable> > >, std::less<int>, std::allocator<std::pair<const int, std::map<int, IEC104WF::stPointTable, std::less<int>, std::allocator<std::pair<const int, IEC104WF::stPointTable> > > > > > > > >::_Rb_tree_impl<std::less<std::basic_string<char, std::char_traits<char>, std::allocator<char> > >, false>::~_Rb_tree_impl
FUNC 75308 63 0 std::_Rb_tree<std::basic_string<char, std::char_traits<char>, std::allocator<char> >, std::pair<const std::basic_string<char, std::char_traits<char>, std::allocator<char> >, std::map<int, std::map<int, IEC104WF::stPointTable, std::less<int>, std::allocator<std::pair<const int, IEC104WF::stPointTable> > >, std::less<int>, std::allocator<std::pair<const int, std::map<int, IEC104WF::stPointTable, std::less<int>, std::allocator<std::pair<const int, IEC104WF::stPointTable> > > > > > >, std::_Select1st<std::pair<const std::basic_string<char, std::char_traits<char>, std::allocator<char> >, std::map<int, std::map<int, IEC104WF::stPointTable, std::less<int>, std::allocator<std::pair<const int, IEC104WF::stPointTable> > >, std::less<int>, std::allocator<std::pair<const int, std::map<int, IEC104WF::stPointTable, std::less<int>, std::allocator<std::pair<const int, IEC104WF::stPointTable> > > > > > > >, std::less<std::basic_string<char, std::char_traits<char>, std::allocator<char> > >, std::allocator<std::pair<const std::basic_string<char, std::char_traits<char>, std::allocator<char> >, std::map<int, std::map<int, IEC104WF::stPointTable, std::less<int>, std::allocator<std::pair<const int, IEC104WF::stPointTable> > >, std::less<int>, std::allocator<std::pair<const int, std::map<int, IEC104WF::stPointTable, std::less<int>, std::allocator<std::pair<const int, IEC104WF::stPointTable> > > > > > > > >::~_Rb_tree
FUNC 7536c 1a 0 std::map<int, std::map<int, IEC104WF::stPointTable, std::less<int>, std::allocator<std::pair<const int, IEC104WF::stPointTable> > >, std::less<int>, std::allocator<std::pair<const int, std::map<int, IEC104WF::stPointTable, std::less<int>, std::allocator<std::pair<const int, IEC104WF::stPointTable> > > > > >::map
FUNC 75386 1a 0 std::_Rb_tree<int, std::pair<const int, std::map<int, IEC104WF::stPointTable, std::less<int>, std::allocator<std::pair<const int, IEC104WF::stPointTable> > > >, std::_Select1st<std::pair<const int, std::map<int, IEC104WF::stPointTable, std::less<int>, std::allocator<std::pair<const int, IEC104WF::stPointTable> > > > >, std::less<int>, std::allocator<std::pair<const int, std::map<int, IEC104WF::stPointTable, std::less<int>, std::allocator<std::pair<const int, IEC104WF::stPointTable> > > > > >::_Rb_tree_impl<std::less<int>, false>::~_Rb_tree_impl
FUNC 753a0 63 0 std::_Rb_tree<int, std::pair<const int, std::map<int, IEC104WF::stPointTable, std::less<int>, std::allocator<std::pair<const int, IEC104WF::stPointTable> > > >, std::_Select1st<std::pair<const int, std::map<int, IEC104WF::stPointTable, std::less<int>, std::allocator<std::pair<const int, IEC104WF::stPointTable> > > > >, std::less<int>, std::allocator<std::pair<const int, std::map<int, IEC104WF::stPointTable, std::less<int>, std::allocator<std::pair<const int, IEC104WF::stPointTable> > > > > >::~_Rb_tree
FUNC 75404 1a 0 std::map<int, IEC104WF::stPointTable, std::less<int>, std::allocator<std::pair<const int, IEC104WF::stPointTable> > >::map
FUNC 7541e 1a 0 std::_Rb_tree<int, std::pair<const int, IEC104WF::stPointTable>, std::_Select1st<std::pair<const int, IEC104WF::stPointTable> >, std::less<int>, std::allocator<std::pair<const int, IEC104WF::stPointTable> > >::_Rb_tree_impl<std::less<int>, false>::~_Rb_tree_impl
FUNC 75438 63 0 std::_Rb_tree<int, std::pair<const int, IEC104WF::stPointTable>, std::_Select1st<std::pair<const int, IEC104WF::stPointTable> >, std::less<int>, std::allocator<std::pair<const int, IEC104WF::stPointTable> > >::~_Rb_tree
FUNC 7549c 1a 0 std::map<std::basic_string<char, std::char_traits<char>, std::allocator<char> >, IEC103::stConfigParam, std::less<std::basic_string<char, std::char_traits<char>, std::allocator<char> > >, std::allocator<std::pair<const std::basic_string<char, std::char_traits<char>, std::allocator<char> >, IEC103::stConfigParam> > >::map
FUNC 754b6 1a 0 std::map<std::basic_string<char, std::char_traits<char>, std::allocator<char> >, std::map<std::basic_string<char, std::char_traits<char>, std::allocator<char> >, std::basic_string<char, std::char_traits<char>, std::allocator<char> >, std::less<std::basic_string<char, std::char_traits<char>, std::allocator<char> > >, std::allocator<std::pair<const std::basic_string<char, std::char_traits<char>, std::allocator<char> >, std::basic_string<char, std::char_traits<char>, std::allocator<char> > > > >, std::less<std::basic_string<char, std::char_traits<char>, std::allocator<char> > >, std::allocator<std::pair<const std::basic_string<char, std::char_traits<char>, std::allocator<char> >, std::map<std::basic_string<char, std::char_traits<char>, std::allocator<char> >, std::basic_string<char, std::char_traits<char>, std::allocator<char> >, std::less<std::basic_string<char, std::char_traits<char>, std::allocator<char> > >, std::allocator<std::pair<const std::basic_string<char, std::char_traits<char>, std::allocator<char> >, std::basic_string<char, std::char_traits<char>, std::allocator<char> > > > > > > >::map
FUNC 754d0 1a 0 std::map<std::basic_string<char, std::char_traits<char>, std::allocator<char> >, IEC61850_STRUCT::IED_61850, std::less<std::basic_string<char, std::char_traits<char>, std::allocator<char> > >, std::allocator<std::pair<const std::basic_string<char, std::char_traits<char>, std::allocator<char> >, IEC61850_STRUCT::IED_61850> > >::clear
FUNC 754ea 25 0 std::map<std::basic_string<char, std::char_traits<char>, std::allocator<char> >, IEC61850_STRUCT::IED_61850, std::less<std::basic_string<char, std::char_traits<char>, std::allocator<char> > >, std::allocator<std::pair<const std::basic_string<char, std::char_traits<char>, std::allocator<char> >, IEC61850_STRUCT::IED_61850> > >::map
FUNC 7550f 2a 0 std::operator==<char, std::char_traits<char>, std::allocator<char> >
FUNC 7553a 1a 0 std::map<std::basic_string<char, std::char_traits<char>, std::allocator<char> >, IEC103::stConfigParam, std::less<std::basic_string<char, std::char_traits<char>, std::allocator<char> > >, std::allocator<std::pair<const std::basic_string<char, std::char_traits<char>, std::allocator<char> >, IEC103::stConfigParam> > >::clear
FUNC 75554 1a 0 std::map<std::basic_string<char, std::char_traits<char>, std::allocator<char> >, std::map<std::basic_string<char, std::char_traits<char>, std::allocator<char> >, std::basic_string<char, std::char_traits<char>, std::allocator<char> >, std::less<std::basic_string<char, std::char_traits<char>, std::allocator<char> > >, std::allocator<std::pair<const std::basic_string<char, std::char_traits<char>, std::allocator<char> >, std::basic_string<char, std::char_traits<char>, std::allocator<char> > > > >, std::less<std::basic_string<char, std::char_traits<char>, std::allocator<char> > >, std::allocator<std::pair<const std::basic_string<char, std::char_traits<char>, std::allocator<char> >, std::map<std::basic_string<char, std::char_traits<char>, std::allocator<char> >, std::basic_string<char, std::char_traits<char>, std::allocator<char> >, std::less<std::basic_string<char, std::char_traits<char>, std::allocator<char> > >, std::allocator<std::pair<const std::basic_string<char, std::char_traits<char>, std::allocator<char> >, std::basic_string<char, std::char_traits<char>, std::allocator<char> > > > > > > >::clear
FUNC 7556e 25 0 std::map<std::basic_string<char, std::char_traits<char>, std::allocator<char> >, IEC103::stConfigParam, std::less<std::basic_string<char, std::char_traits<char>, std::allocator<char> > >, std::allocator<std::pair<const std::basic_string<char, std::char_traits<char>, std::allocator<char> >, IEC103::stConfigParam> > >::map
FUNC 75594 25 0 std::map<std::basic_string<char, std::char_traits<char>, std::allocator<char> >, std::map<std::basic_string<char, std::char_traits<char>, std::allocator<char> >, std::basic_string<char, std::char_traits<char>, std::allocator<char> >, std::less<std::basic_string<char, std::char_traits<char>, std::allocator<char> > >, std::allocator<std::pair<const std::basic_string<char, std::char_traits<char>, std::allocator<char> >, std::basic_string<char, std::char_traits<char>, std::allocator<char> > > > >, std::less<std::basic_string<char, std::char_traits<char>, std::allocator<char> > >, std::allocator<std::pair<const std::basic_string<char, std::char_traits<char>, std::allocator<char> >, std::map<std::basic_string<char, std::char_traits<char>, std::allocator<char> >, std::basic_string<char, std::char_traits<char>, std::allocator<char> >, std::less<std::basic_string<char, std::char_traits<char>, std::allocator<char> > >, std::allocator<std::pair<const std::basic_string<char, std::char_traits<char>, std::allocator<char> >, std::basic_string<char, std::char_traits<char>, std::allocator<char> > > > > > > >::map
FUNC 755ba 1a 0 std::map<std::basic_string<char, std::char_traits<char>, std::allocator<char> >, std::map<int, std::map<int, IEC104WF::stPointTable, std::less<int>, std::allocator<std::pair<const int, IEC104WF::stPointTable> > >, std::less<int>, std::allocator<std::pair<const int, std::map<int, IEC104WF::stPointTable, std::less<int>, std::allocator<std::pair<const int, IEC104WF::stPointTable> > > > > >, std::less<std::basic_string<char, std::char_traits<char>, std::allocator<char> > >, std::allocator<std::pair<const std::basic_string<char, std::char_traits<char>, std::allocator<char> >, std::map<int, std::map<int, IEC104WF::stPointTable, std::less<int>, std::allocator<std::pair<const int, IEC104WF::stPointTable> > >, std::less<int>, std::allocator<std::pair<const int, std::map<int, IEC104WF::stPointTable, std::less<int>, std::allocator<std::pair<const int, IEC104WF::stPointTable> > > > > > > > >::clear
FUNC 755d4 1a 0 std::map<int, std::map<int, IEC104WF::stPointTable, std::less<int>, std::allocator<std::pair<const int, IEC104WF::stPointTable> > >, std::less<int>, std::allocator<std::pair<const int, std::map<int, IEC104WF::stPointTable, std::less<int>, std::allocator<std::pair<const int, IEC104WF::stPointTable> > > > > >::clear
FUNC 755ee 1a 0 std::map<int, IEC104WF::stPointTable, std::less<int>, std::allocator<std::pair<const int, IEC104WF::stPointTable> > >::clear
FUNC 75608 25 0 std::map<std::basic_string<char, std::char_traits<char>, std::allocator<char> >, std::map<int, std::map<int, IEC104WF::stPointTable, std::less<int>, std::allocator<std::pair<const int, IEC104WF::stPointTable> > >, std::less<int>, std::allocator<std::pair<const int, std::map<int, IEC104WF::stPointTable, std::less<int>, std::allocator<std::pair<const int, IEC104WF::stPointTable> > > > > >, std::less<std::basic_string<char, std::char_traits<char>, std::allocator<char> > >, std::allocator<std::pair<const std::basic_string<char, std::char_traits<char>, std::allocator<char> >, std::map<int, std::map<int, IEC104WF::stPointTable, std::less<int>, std::allocator<std::pair<const int, IEC104WF::stPointTable> > >, std::less<int>, std::allocator<std::pair<const int, std::map<int, IEC104WF::stPointTable, std::less<int>, std::allocator<std::pair<const int, IEC104WF::stPointTable> > > > > > > > >::map
FUNC 7562e 26 0 std::list<std::basic_string<char, std::char_traits<char>, std::allocator<char> >, std::allocator<std::basic_string<char, std::char_traits<char>, std::allocator<char> > > >::clear
FUNC 75654 cf 0 std::list<std::basic_string<char, std::char_traits<char>, std::allocator<char> >, std::allocator<std::basic_string<char, std::char_traits<char>, std::allocator<char> > > >::list
FUNC 75724 55 0 std::pair<const std::basic_string<char, std::char_traits<char>, std::allocator<char> >, IEC61850_STRUCT::IED_61850>::~pair
FUNC 7577a 1b7 0 std::map<std::basic_string<char, std::char_traits<char>, std::allocator<char> >, IEC61850_STRUCT::IED_61850, std::less<std::basic_string<char, std::char_traits<char>, std::allocator<char> > >, std::allocator<std::pair<const std::basic_string<char, std::char_traits<char>, std::allocator<char> >, IEC61850_STRUCT::IED_61850> > >::operator[]
FUNC 75932 29 0 std::map<std::basic_string<char, std::char_traits<char>, std::allocator<char> >, std::basic_string<char, std::char_traits<char>, std::allocator<char> >, std::less<std::basic_string<char, std::char_traits<char>, std::allocator<char> > >, std::allocator<std::pair<const std::basic_string<char, std::char_traits<char>, std::allocator<char> >, std::basic_string<char, std::char_traits<char>, std::allocator<char> > > > >::operator=
FUNC 7595c 9e 0 WgjXml::stringToNum<float>
FUNC 759fa 92 0 WgjXml::stringToNum<int>
FUNC 75a8c 1e 0 std::pair<const int, IEC104WF::stPointTable>::~pair
FUNC 75aaa 15e 0 std::map<int, IEC104WF::stPointTable, std::less<int>, std::allocator<std::pair<const int, IEC104WF::stPointTable> > >::operator[]
FUNC 75c08 1e 0 std::pair<const int, std::map<int, IEC104WF::stPointTable, std::less<int>, std::allocator<std::pair<const int, IEC104WF::stPointTable> > > >::~pair
FUNC 75c26 185 0 std::map<int, std::map<int, IEC104WF::stPointTable, std::less<int>, std::allocator<std::pair<const int, IEC104WF::stPointTable> > >, std::less<int>, std::allocator<std::pair<const int, std::map<int, IEC104WF::stPointTable, std::less<int>, std::allocator<std::pair<const int, IEC104WF::stPointTable> > > > > >::operator[]
FUNC 75dac 29 0 std::map<int, IEC104WF::stPointTable, std::less<int>, std::allocator<std::pair<const int, IEC104WF::stPointTable> > >::operator=
FUNC 75dd6 55 0 std::pair<const std::basic_string<char, std::char_traits<char>, std::allocator<char> >, std::map<int, std::map<int, IEC104WF::stPointTable, std::less<int>, std::allocator<std::pair<const int, IEC104WF::stPointTable> > >, std::less<int>, std::allocator<std::pair<const int, std::map<int, IEC104WF::stPointTable, std::less<int>, std::allocator<std::pair<const int, IEC104WF::stPointTable> > > > > > >::~pair
FUNC 75e2c 185 0 std::map<std::basic_string<char, std::char_traits<char>, std::allocator<char> >, std::map<int, std::map<int, IEC104WF::stPointTable, std::less<int>, std::allocator<std::pair<const int, IEC104WF::stPointTable> > >, std::less<int>, std::allocator<std::pair<const int, std::map<int, IEC104WF::stPointTable, std::less<int>, std::allocator<std::pair<const int, IEC104WF::stPointTable> > > > > >, std::less<std::basic_string<char, std::char_traits<char>, std::allocator<char> > >, std::allocator<std::pair<const std::basic_string<char, std::char_traits<char>, std::allocator<char> >, std::map<int, std::map<int, IEC104WF::stPointTable, std::less<int>, std::allocator<std::pair<const int, IEC104WF::stPointTable> > >, std::less<int>, std::allocator<std::pair<const int, std::map<int, IEC104WF::stPointTable, std::less<int>, std::allocator<std::pair<const int, IEC104WF::stPointTable> > > > > > > > >::operator[]
FUNC 75fb2 29 0 std::map<int, std::map<int, IEC104WF::stPointTable, std::less<int>, std::allocator<std::pair<const int, IEC104WF::stPointTable> > >, std::less<int>, std::allocator<std::pair<const int, std::map<int, IEC104WF::stPointTable, std::less<int>, std::allocator<std::pair<const int, IEC104WF::stPointTable> > > > > >::operator=
FUNC 75fdb 28 0 std::operator!=<char, std::char_traits<char>, std::allocator<char> >
FUNC 76004 187 0 std::map<std::basic_string<char, std::char_traits<char>, std::allocator<char> >, IEC103::stConfigParam, std::less<std::basic_string<char, std::char_traits<char>, std::allocator<char> > >, std::allocator<std::pair<const std::basic_string<char, std::char_traits<char>, std::allocator<char> >, IEC103::stConfigParam> > >::operator[]
FUNC 7618c 185 0 std::map<std::basic_string<char, std::char_traits<char>, std::allocator<char> >, std::map<std::basic_string<char, std::char_traits<char>, std::allocator<char> >, std::basic_string<char, std::char_traits<char>, std::allocator<char> >, std::less<std::basic_string<char, std::char_traits<char>, std::allocator<char> > >, std::allocator<std::pair<const std::basic_string<char, std::char_traits<char>, std::allocator<char> >, std::basic_string<char, std::char_traits<char>, std::allocator<char> > > > >, std::less<std::basic_string<char, std::char_traits<char>, std::allocator<char> > >, std::allocator<std::pair<const std::basic_string<char, std::char_traits<char>, std::allocator<char> >, std::map<std::basic_string<char, std::char_traits<char>, std::allocator<char> >, std::basic_string<char, std::char_traits<char>, std::allocator<char> >, std::less<std::basic_string<char, std::char_traits<char>, std::allocator<char> > >, std::allocator<std::pair<const std::basic_string<char, std::char_traits<char>, std::allocator<char> >, std::basic_string<char, std::char_traits<char>, std::allocator<char> > > > > > > >::operator[]
FUNC 76312 34 0 std::list<std::basic_string<char, std::char_traits<char>, std::allocator<char> >, std::allocator<std::basic_string<char, std::char_traits<char>, std::allocator<char> > > >::push_back
FUNC 76346 1a 0 std::_Rb_tree<std::basic_string<char, std::char_traits<char>, std::allocator<char> >, std::pair<const std::basic_string<char, std::char_traits<char>, std::allocator<char> >, IEC61850_STRUCT::IED_61850>, std::_Select1st<std::pair<const std::basic_string<char, std::char_traits<char>, std::allocator<char> >, IEC61850_STRUCT::IED_61850> >, std::less<std::basic_string<char, std::char_traits<char>, std::allocator<char> > >, std::allocator<std::pair<const std::basic_string<char, std::char_traits<char>, std::allocator<char> >, IEC61850_STRUCT::IED_61850> > >::_Rb_tree
FUNC 76360 1a 0 std::allocator<std::_Rb_tree_node<std::pair<const std::basic_string<char, std::char_traits<char>, std::allocator<char> >, IEC61850_STRUCT::IED_61850> > >::~allocator
FUNC 7637a 69 0 std::_Rb_tree<std::basic_string<char, std::char_traits<char>, std::allocator<char> >, std::pair<const std::basic_string<char, std::char_traits<char>, std::allocator<char> >, IEC61850_STRUCT::IED_61850>, std::_Select1st<std::pair<const std::basic_string<char, std::char_traits<char>, std::allocator<char> >, IEC61850_STRUCT::IED_61850> >, std::less<std::basic_string<char, std::char_traits<char>, std::allocator<char> > >, std::allocator<std::pair<const std::basic_string<char, std::char_traits<char>, std::allocator<char> >, IEC61850_STRUCT::IED_61850> > >::_M_erase
FUNC 763e4 12 0 std::_Rb_tree<std::basic_string<char, std::char_traits<char>, std::allocator<char> >, std::pair<const std::basic_string<char, std::char_traits<char>, std::allocator<char> >, IEC61850_STRUCT::IED_61850>, std::_Select1st<std::pair<const std::basic_string<char, std::char_traits<char>, std::allocator<char> >, IEC61850_STRUCT::IED_61850> >, std::less<std::basic_string<char, std::char_traits<char>, std::allocator<char> > >, std::allocator<std::pair<const std::basic_string<char, std::char_traits<char>, std::allocator<char> >, IEC61850_STRUCT::IED_61850> > >::_M_begin
FUNC 763f6 26 0 std::_List_base<std::basic_string<char, std::char_traits<char>, std::allocator<char> >, std::allocator<std::basic_string<char, std::char_traits<char>, std::allocator<char> > > >::_List_base
FUNC 7641c 1a 0 std::allocator<std::_List_node<std::basic_string<char, std::char_traits<char>, std::allocator<char> > > >::~allocator
FUNC 76436 b8 0 std::_List_base<std::basic_string<char, std::char_traits<char>, std::allocator<char> >, std::allocator<std::basic_string<char, std::char_traits<char>, std::allocator<char> > > >::_M_clear
FUNC 764ee 1a 0 std::_Rb_tree<std::basic_string<char, std::char_traits<char>, std::allocator<char> >, std::pair<const std::basic_string<char, std::char_traits<char>, std::allocator<char> >, std::map<int, std::map<int, IEC104WF::stPointTable, std::less<int>, std::allocator<std::pair<const int, IEC104WF::stPointTable> > >, std::less<int>, std::allocator<std::pair<const int, std::map<int, IEC104WF::stPointTable, std::less<int>, std::allocator<std::pair<const int, IEC104WF::stPointTable> > > > > > >, std::_Select1st<std::pair<const std::basic_string<char, std::char_traits<char>, std::allocator<char> >, std::map<int, std::map<int, IEC104WF::stPointTable, std::less<int>, std::allocator<std::pair<const int, IEC104WF::stPointTable> > >, std::less<int>, std::allocator<std::pair<const int, std::map<int, IEC104WF::stPointTable, std::less<int>, std::allocator<std::pair<const int, IEC104WF::stPointTable> > > > > > > >, std::less<std::basic_string<char, std::char_traits<char>, std::allocator<char> > >, std::allocator<std::pair<const std::basic_string<char, std::char_traits<char>, std::allocator<char> >, std::map<int, std::map<int, IEC104WF::stPointTable, std::less<int>, std::allocator<std::pair<const int, IEC104WF::stPointTable> > >, std::less<int>, std::allocator<std::pair<const int, std::map<int, IEC104WF::stPointTable, std::less<int>, std::allocator<std::pair<const int, IEC104WF::stPointTable> > > > > > > > >::_Rb_tree
FUNC 76508 1a 0 std::allocator<std::_Rb_tree_node<std::pair<const std::basic_string<char, std::char_traits<char>, std::allocator<char> >, std::map<int, std::map<int, IEC104WF::stPointTable, std::less<int>, std::allocator<std::pair<const int, IEC104WF::stPointTable> > >, std::less<int>, std::allocator<std::pair<const int, std::map<int, IEC104WF::stPointTable, std::less<int>, std::allocator<std::pair<const int, IEC104WF::stPointTable> > > > > > > > >::~allocator
FUNC 76522 69 0 std::_Rb_tree<std::basic_string<char, std::char_traits<char>, std::allocator<char> >, std::pair<const std::basic_string<char, std::char_traits<char>, std::allocator<char> >, std::map<int, std::map<int, IEC104WF::stPointTable, std::less<int>, std::allocator<std::pair<const int, IEC104WF::stPointTable> > >, std::less<int>, std::allocator<std::pair<const int, std::map<int, IEC104WF::stPointTable, std::less<int>, std::allocator<std::pair<const int, IEC104WF::stPointTable> > > > > > >, std::_Select1st<std::pair<const std::basic_string<char, std::char_traits<char>, std::allocator<char> >, std::map<int, std::map<int, IEC104WF::stPointTable, std::less<int>, std::allocator<std::pair<const int, IEC104WF::stPointTable> > >, std::less<int>, std::allocator<std::pair<const int, std::map<int, IEC104WF::stPointTable, std::less<int>, std::allocator<std::pair<const int, IEC104WF::stPointTable> > > > > > > >, std::less<std::basic_string<char, std::char_traits<char>, std::allocator<char> > >, std::allocator<std::pair<const std::basic_string<char, std::char_traits<char>, std::allocator<char> >, std::map<int, std::map<int, IEC104WF::stPointTable, std::less<int>, std::allocator<std::pair<const int, IEC104WF::stPointTable> > >, std::less<int>, std::allocator<std::pair<const int, std::map<int, IEC104WF::stPointTable, std::less<int>, std::allocator<std::pair<const int, IEC104WF::stPointTable> > > > > > > > >::_M_erase
FUNC 7658c 12 0 std::_Rb_tree<std::basic_string<char, std::char_traits<char>, std::allocator<char> >, std::pair<const std::basic_string<char, std::char_traits<char>, std::allocator<char> >, std::map<int, std::map<int, IEC104WF::stPointTable, std::less<int>, std::allocator<std::pair<const int, IEC104WF::stPointTable> > >, std::less<int>, std::allocator<std::pair<const int, std::map<int, IEC104WF::stPointTable, std::less<int>, std::allocator<std::pair<const int, IEC104WF::stPointTable> > > > > > >, std::_Select1st<std::pair<const std::basic_string<char, std::char_traits<char>, std::allocator<char> >, std::map<int, std::map<int, IEC104WF::stPointTable, std::less<int>, std::allocator<std::pair<const int, IEC104WF::stPointTable> > >, std::less<int>, std::allocator<std::pair<const int, std::map<int, IEC104WF::stPointTable, std::less<int>, std::allocator<std::pair<const int, IEC104WF::stPointTable> > > > > > > >, std::less<std::basic_string<char, std::char_traits<char>, std::allocator<char> > >, std::allocator<std::pair<const std::basic_string<char, std::char_traits<char>, std::allocator<char> >, std::map<int, std::map<int, IEC104WF::stPointTable, std::less<int>, std::allocator<std::pair<const int, IEC104WF::stPointTable> > >, std::less<int>, std::allocator<std::pair<const int, std::map<int, IEC104WF::stPointTable, std::less<int>, std::allocator<std::pair<const int, IEC104WF::stPointTable> > > > > > > > >::_M_begin
FUNC 7659e 1a 0 std::_Rb_tree<int, std::pair<const int, std::map<int, IEC104WF::stPointTable, std::less<int>, std::allocator<std::pair<const int, IEC104WF::stPointTable> > > >, std::_Select1st<std::pair<const int, std::map<int, IEC104WF::stPointTable, std::less<int>, std::allocator<std::pair<const int, IEC104WF::stPointTable> > > > >, std::less<int>, std::allocator<std::pair<const int, std::map<int, IEC104WF::stPointTable, std::less<int>, std::allocator<std::pair<const int, IEC104WF::stPointTable> > > > > >::_Rb_tree
FUNC 765b8 1a 0 std::allocator<std::_Rb_tree_node<std::pair<const int, std::map<int, IEC104WF::stPointTable, std::less<int>, std::allocator<std::pair<const int, IEC104WF::stPointTable> > > > > >::~allocator
FUNC 765d2 69 0 std::_Rb_tree<int, std::pair<const int, std::map<int, IEC104WF::stPointTable, std::less<int>, std::allocator<std::pair<const int, IEC104WF::stPointTable> > > >, std::_Select1st<std::pair<const int, std::map<int, IEC104WF::stPointTable, std::less<int>, std::allocator<std::pair<const int, IEC104WF::stPointTable> > > > >, std::less<int>, std::allocator<std::pair<const int, std::map<int, IEC104WF::stPointTable, std::less<int>, std::allocator<std::pair<const int, IEC104WF::stPointTable> > > > > >::_M_erase
FUNC 7663c 12 0 std::_Rb_tree<int, std::pair<const int, std::map<int, IEC104WF::stPointTable, std::less<int>, std::allocator<std::pair<const int, IEC104WF::stPointTable> > > >, std::_Select1st<std::pair<const int, std::map<int, IEC104WF::stPointTable, std::less<int>, std::allocator<std::pair<const int, IEC104WF::stPointTable> > > > >, std::less<int>, std::allocator<std::pair<const int, std::map<int, IEC104WF::stPointTable, std::less<int>, std::allocator<std::pair<const int, IEC104WF::stPointTable> > > > > >::_M_begin
FUNC 7664e 1a 0 std::_Rb_tree<int, std::pair<const int, IEC104WF::stPointTable>, std::_Select1st<std::pair<const int, IEC104WF::stPointTable> >, std::less<int>, std::allocator<std::pair<const int, IEC104WF::stPointTable> > >::_Rb_tree
FUNC 76668 1a 0 std::allocator<std::_Rb_tree_node<std::pair<const int, IEC104WF::stPointTable> > >::~allocator
FUNC 76682 69 0 std::_Rb_tree<int, std::pair<const int, IEC104WF::stPointTable>, std::_Select1st<std::pair<const int, IEC104WF::stPointTable> >, std::less<int>, std::allocator<std::pair<const int, IEC104WF::stPointTable> > >::_M_erase
FUNC 766ec 12 0 std::_Rb_tree<int, std::pair<const int, IEC104WF::stPointTable>, std::_Select1st<std::pair<const int, IEC104WF::stPointTable> >, std::less<int>, std::allocator<std::pair<const int, IEC104WF::stPointTable> > >::_M_begin
FUNC 766fe 1a 0 std::_Rb_tree<std::basic_string<char, std::char_traits<char>, std::allocator<char> >, std::pair<const std::basic_string<char, std::char_traits<char>, std::allocator<char> >, IEC103::stConfigParam>, std::_Select1st<std::pair<const std::basic_string<char, std::char_traits<char>, std::allocator<char> >, IEC103::stConfigParam> >, std::less<std::basic_string<char, std::char_traits<char>, std::allocator<char> > >, std::allocator<std::pair<const std::basic_string<char, std::char_traits<char>, std::allocator<char> >, IEC103::stConfigParam> > >::_Rb_tree
FUNC 76718 1a 0 std::_Rb_tree<std::basic_string<char, std::char_traits<char>, std::allocator<char> >, std::pair<const std::basic_string<char, std::char_traits<char>, std::allocator<char> >, std::map<std::basic_string<char, std::char_traits<char>, std::allocator<char> >, std::basic_string<char, std::char_traits<char>, std::allocator<char> >, std::less<std::basic_string<char, std::char_traits<char>, std::allocator<char> > >, std::allocator<std::pair<const std::basic_string<char, std::char_traits<char>, std::allocator<char> >, std::basic_string<char, std::char_traits<char>, std::allocator<char> > > > > >, std::_Select1st<std::pair<const std::basic_string<char, std::char_traits<char>, std::allocator<char> >, std::map<std::basic_string<char, std::char_traits<char>, std::allocator<char> >, std::basic_string<char, std::char_traits<char>, std::allocator<char> >, std::less<std::basic_string<char, std::char_traits<char>, std::allocator<char> > >, std::allocator<std::pair<const std::basic_string<char, std::char_traits<char>, std::allocator<char> >, std::basic_string<char, std::char_traits<char>, std::allocator<char> > > > > > >, std::less<std::basic_string<char, std::char_traits<char>, std::allocator<char> > >, std::allocator<std::pair<const std::basic_string<char, std::char_traits<char>, std::allocator<char> >, std::map<std::basic_string<char, std::char_traits<char>, std::allocator<char> >, std::basic_string<char, std::char_traits<char>, std::allocator<char> >, std::less<std::basic_string<char, std::char_traits<char>, std::allocator<char> > >, std::allocator<std::pair<const std::basic_string<char, std::char_traits<char>, std::allocator<char> >, std::basic_string<char, std::char_traits<char>, std::allocator<char> > > > > > > >::_Rb_tree
FUNC 76732 8d 0 std::_Rb_tree<std::basic_string<char, std::char_traits<char>, std::allocator<char> >, std::pair<const std::basic_string<char, std::char_traits<char>, std::allocator<char> >, IEC61850_STRUCT::IED_61850>, std::_Select1st<std::pair<const std::basic_string<char, std::char_traits<char>, std::allocator<char> >, IEC61850_STRUCT::IED_61850> >, std::less<std::basic_string<char, std::char_traits<char>, std::allocator<char> > >, std::allocator<std::pair<const std::basic_string<char, std::char_traits<char>, std::allocator<char> >, IEC61850_STRUCT::IED_61850> > >::clear
FUNC 767c0 11d 0 std::_Rb_tree<std::basic_string<char, std::char_traits<char>, std::allocator<char> >, std::pair<const std::basic_string<char, std::char_traits<char>, std::allocator<char> >, IEC61850_STRUCT::IED_61850>, std::_Select1st<std::pair<const std::basic_string<char, std::char_traits<char>, std::allocator<char> >, IEC61850_STRUCT::IED_61850> >, std::less<std::basic_string<char, std::char_traits<char>, std::allocator<char> > >, std::allocator<std::pair<const std::basic_string<char, std::char_traits<char>, std::allocator<char> >, IEC61850_STRUCT::IED_61850> > >::_Rb_tree
FUNC 768de 8d 0 std::_Rb_tree<std::basic_string<char, std::char_traits<char>, std::allocator<char> >, std::pair<const std::basic_string<char, std::char_traits<char>, std::allocator<char> >, IEC103::stConfigParam>, std::_Select1st<std::pair<const std::basic_string<char, std::char_traits<char>, std::allocator<char> >, IEC103::stConfigParam> >, std::less<std::basic_string<char, std::char_traits<char>, std::allocator<char> > >, std::allocator<std::pair<const std::basic_string<char, std::char_traits<char>, std::allocator<char> >, IEC103::stConfigParam> > >::clear
FUNC 7696c 8d 0 std::_Rb_tree<std::basic_string<char, std::char_traits<char>, std::allocator<char> >, std::pair<const std::basic_string<char, std::char_traits<char>, std::allocator<char> >, std::map<std::basic_string<char, std::char_traits<char>, std::allocator<char> >, std::basic_string<char, std::char_traits<char>, std::allocator<char> >, std::less<std::basic_string<char, std::char_traits<char>, std::allocator<char> > >, std::allocator<std::pair<const std::basic_string<char, std::char_traits<char>, std::allocator<char> >, std::basic_string<char, std::char_traits<char>, std::allocator<char> > > > > >, std::_Select1st<std::pair<const std::basic_string<char, std::char_traits<char>, std::allocator<char> >, std::map<std::basic_string<char, std::char_traits<char>, std::allocator<char> >, std::basic_string<char, std::char_traits<char>, std::allocator<char> >, std::less<std::basic_string<char, std::char_traits<char>, std::allocator<char> > >, std::allocator<std::pair<const std::basic_string<char, std::char_traits<char>, std::allocator<char> >, std::basic_string<char, std::char_traits<char>, std::allocator<char> > > > > > >, std::less<std::basic_string<char, std::char_traits<char>, std::allocator<char> > >, std::allocator<std::pair<const std::basic_string<char, std::char_traits<char>, std::allocator<char> >, std::map<std::basic_string<char, std::char_traits<char>, std::allocator<char> >, std::basic_string<char, std::char_traits<char>, std::allocator<char> >, std::less<std::basic_string<char, std::char_traits<char>, std::allocator<char> > >, std::allocator<std::pair<const std::basic_string<char, std::char_traits<char>, std::allocator<char> >, std::basic_string<char, std::char_traits<char>, std::allocator<char> > > > > > > >::clear
FUNC 769fa 11d 0 std::_Rb_tree<std::basic_string<char, std::char_traits<char>, std::allocator<char> >, std::pair<const std::basic_string<char, std::char_traits<char>, std::allocator<char> >, IEC103::stConfigParam>, std::_Select1st<std::pair<const std::basic_string<char, std::char_traits<char>, std::allocator<char> >, IEC103::stConfigParam> >, std::less<std::basic_string<char, std::char_traits<char>, std::allocator<char> > >, std::allocator<std::pair<const std::basic_string<char, std::char_traits<char>, std::allocator<char> >, IEC103::stConfigParam> > >::_Rb_tree
FUNC 76b18 11d 0 std::_Rb_tree<std::basic_string<char, std::char_traits<char>, std::allocator<char> >, std::pair<const std::basic_string<char, std::char_traits<char>, std::allocator<char> >, std::map<std::basic_string<char, std::char_traits<char>, std::allocator<char> >, std::basic_string<char, std::char_traits<char>, std::allocator<char> >, std::less<std::basic_string<char, std::char_traits<char>, std::allocator<char> > >, std::allocator<std::pair<const std::basic_string<char, std::char_traits<char>, std::allocator<char> >, std::basic_string<char, std::char_traits<char>, std::allocator<char> > > > > >, std::_Select1st<std::pair<const std::basic_string<char, std::char_traits<char>, std::allocator<char> >, std::map<std::basic_string<char, std::char_traits<char>, std::allocator<char> >, std::basic_string<char, std::char_traits<char>, std::allocator<char> >, std::less<std::basic_string<char, std::char_traits<char>, std::allocator<char> > >, std::allocator<std::pair<const std::basic_string<char, std::char_traits<char>, std::allocator<char> >, std::basic_string<char, std::char_traits<char>, std::allocator<char> > > > > > >, std::less<std::basic_string<char, std::char_traits<char>, std::allocator<char> > >, std::allocator<std::pair<const std::basic_string<char, std::char_traits<char>, std::allocator<char> >, std::map<std::basic_string<char, std::char_traits<char>, std::allocator<char> >, std::basic_string<char, std::char_traits<char>, std::allocator<char> >, std::less<std::basic_string<char, std::char_traits<char>, std::allocator<char> > >, std::allocator<std::pair<const std::basic_string<char, std::char_traits<char>, std::allocator<char> >, std::basic_string<char, std::char_traits<char>, std::allocator<char> > > > > > > >::_Rb_tree
FUNC 76c36 8d 0 std::_Rb_tree<std::basic_string<char, std::char_traits<char>, std::allocator<char> >, std::pair<const std::basic_string<char, std::char_traits<char>, std::allocator<char> >, std::map<int, std::map<int, IEC104WF::stPointTable, std::less<int>, std::allocator<std::pair<const int, IEC104WF::stPointTable> > >, std::less<int>, std::allocator<std::pair<const int, std::map<int, IEC104WF::stPointTable, std::less<int>, std::allocator<std::pair<const int, IEC104WF::stPointTable> > > > > > >, std::_Select1st<std::pair<const std::basic_string<char, std::char_traits<char>, std::allocator<char> >, std::map<int, std::map<int, IEC104WF::stPointTable, std::less<int>, std::allocator<std::pair<const int, IEC104WF::stPointTable> > >, std::less<int>, std::allocator<std::pair<const int, std::map<int, IEC104WF::stPointTable, std::less<int>, std::allocator<std::pair<const int, IEC104WF::stPointTable> > > > > > > >, std::less<std::basic_string<char, std::char_traits<char>, std::allocator<char> > >, std::allocator<std::pair<const std::basic_string<char, std::char_traits<char>, std::allocator<char> >, std::map<int, std::map<int, IEC104WF::stPointTable, std::less<int>, std::allocator<std::pair<const int, IEC104WF::stPointTable> > >, std::less<int>, std::allocator<std::pair<const int, std::map<int, IEC104WF::stPointTable, std::less<int>, std::allocator<std::pair<const int, IEC104WF::stPointTable> > > > > > > > >::clear
FUNC 76cc4 8d 0 std::_Rb_tree<int, std::pair<const int, std::map<int, IEC104WF::stPointTable, std::less<int>, std::allocator<std::pair<const int, IEC104WF::stPointTable> > > >, std::_Select1st<std::pair<const int, std::map<int, IEC104WF::stPointTable, std::less<int>, std::allocator<std::pair<const int, IEC104WF::stPointTable> > > > >, std::less<int>, std::allocator<std::pair<const int, std::map<int, IEC104WF::stPointTable, std::less<int>, std::allocator<std::pair<const int, IEC104WF::stPointTable> > > > > >::clear
FUNC 76d52 8d 0 std::_Rb_tree<int, std::pair<const int, IEC104WF::stPointTable>, std::_Select1st<std::pair<const int, IEC104WF::stPointTable> >, std::less<int>, std::allocator<std::pair<const int, IEC104WF::stPointTable> > >::clear
FUNC 76de0 11d 0 std::_Rb_tree<std::basic_string<char, std::char_traits<char>, std::allocator<char> >, std::pair<const std::basic_string<char, std::char_traits<char>, std::allocator<char> >, std::map<int, std::map<int, IEC104WF::stPointTable, std::less<int>, std::allocator<std::pair<const int, IEC104WF::stPointTable> > >, std::less<int>, std::allocator<std::pair<const int, std::map<int, IEC104WF::stPointTable, std::less<int>, std::allocator<std::pair<const int, IEC104WF::stPointTable> > > > > > >, std::_Select1st<std::pair<const std::basic_string<char, std::char_traits<char>, std::allocator<char> >, std::map<int, std::map<int, IEC104WF::stPointTable, std::less<int>, std::allocator<std::pair<const int, IEC104WF::stPointTable> > >, std::less<int>, std::allocator<std::pair<const int, std::map<int, IEC104WF::stPointTable, std::less<int>, std::allocator<std::pair<const int, IEC104WF::stPointTable> > > > > > > >, std::less<std::basic_string<char, std::char_traits<char>, std::allocator<char> > >, std::allocator<std::pair<const std::basic_string<char, std::char_traits<char>, std::allocator<char> >, std::map<int, std::map<int, IEC104WF::stPointTable, std::less<int>, std::allocator<std::pair<const int, IEC104WF::stPointTable> > >, std::less<int>, std::allocator<std::pair<const int, std::map<int, IEC104WF::stPointTable, std::less<int>, std::allocator<std::pair<const int, IEC104WF::stPointTable> > > > > > > > >::_Rb_tree
FUNC 76efe 21 0 std::_List_base<std::basic_string<char, std::char_traits<char>, std::allocator<char> >, std::allocator<std::basic_string<char, std::char_traits<char>, std::allocator<char> > > >::_M_init
FUNC 76f20 e 0 std::_List_base<std::basic_string<char, std::char_traits<char>, std::allocator<char> >, std::allocator<std::basic_string<char, std::char_traits<char>, std::allocator<char> > > >::_M_get_Node_allocator
FUNC 76f2e 1e 0 std::allocator<std::basic_string<char, std::char_traits<char>, std::allocator<char> > >::allocator<std::_List_node<std::basic_string<char, std::char_traits<char>, std::allocator<char> > > >
FUNC 76f4c 50 0 std::_List_base<std::basic_string<char, std::char_traits<char>, std::allocator<char> >, std::allocator<std::basic_string<char, std::char_traits<char>, std::allocator<char> > > >::_List_base
FUNC 76f9c 28 0 std::list<std::basic_string<char, std::char_traits<char>, std::allocator<char> >, std::allocator<std::basic_string<char, std::char_traits<char>, std::allocator<char> > > >::begin
FUNC 76fc4 25 0 std::list<std::basic_string<char, std::char_traits<char>, std::allocator<char> >, std::allocator<std::basic_string<char, std::char_traits<char>, std::allocator<char> > > >::end
FUNC 76fea 59 0 std::list<std::basic_string<char, std::char_traits<char>, std::allocator<char> >, std::allocator<std::basic_string<char, std::char_traits<char>, std::allocator<char> > > >::_M_initialize_dispatch<std::_List_const_iterator<std::basic_string<char, std::char_traits<char>, std::allocator<char> > > >
FUNC 77044 25 0 std::map<std::basic_string<char, std::char_traits<char>, std::allocator<char> >, IEC61850_STRUCT::IED_61850, std::less<std::basic_string<char, std::char_traits<char>, std::allocator<char> > >, std::allocator<std::pair<const std::basic_string<char, std::char_traits<char>, std::allocator<char> >, IEC61850_STRUCT::IED_61850> > >::lower_bound
FUNC 7706a 1a 0 std::map<std::basic_string<char, std::char_traits<char>, std::allocator<char> >, IEC61850_STRUCT::IED_61850, std::less<std::basic_string<char, std::char_traits<char>, std::allocator<char> > >, std::allocator<std::pair<const std::basic_string<char, std::char_traits<char>, std::allocator<char> >, IEC61850_STRUCT::IED_61850> > >::key_comp
FUNC 77084 15 0 std::_Rb_tree_iterator<std::pair<const std::basic_string<char, std::char_traits<char>, std::allocator<char> >, IEC61850_STRUCT::IED_61850> >::operator*
FUNC 7709a 1a 0 std::map<std::basic_string<char, std::char_traits<char>, std::allocator<char> >, IEC61850_STRUCT::IED_61850, std::less<std::basic_string<char, std::char_traits<char>, std::allocator<char> > >, std::allocator<std::pair<const std::basic_string<char, std::char_traits<char>, std::allocator<char> >, IEC61850_STRUCT::IED_61850> > >::end
FUNC 770b4 22 0 std::_Rb_tree_iterator<std::pair<const std::basic_string<char, std::char_traits<char>, std::allocator<char> >, IEC61850_STRUCT::IED_61850> >::operator==
FUNC 770d6 1dc 0 IEC61850_STRUCT::IED_61850::IED_61850
FUNC 772b2 6b 0 std::pair<const std::basic_string<char, std::char_traits<char>, std::allocator<char> >, IEC61850_STRUCT::IED_61850>::pair
FUNC 7731e 40 0 std::map<std::basic_string<char, std::char_traits<char>, std::allocator<char> >, IEC61850_STRUCT::IED_61850, std::less<std::basic_string<char, std::char_traits<char>, std::allocator<char> > >, std::allocator<std::pair<const std::basic_string<char, std::char_traits<char>, std::allocator<char> >, IEC61850_STRUCT::IED_61850> > >::insert
FUNC 7735e f8 0 std::_Rb_tree<std::basic_string<char, std::char_traits<char>, std::allocator<char> >, std::pair<const std::basic_string<char, std::char_traits<char>, std::allocator<char> >, std::basic_string<char, std::char_traits<char>, std::allocator<char> > >, std::_Select1st<std::pair<const std::basic_string<char, std::char_traits<char>, std::allocator<char> >, std::basic_string<char, std::char_traits<char>, std::allocator<char> > > >, std::less<std::basic_string<char, std::char_traits<char>, std::allocator<char> > >, std::allocator<std::pair<const std::basic_string<char, std::char_traits<char>, std::allocator<char> >, std::basic_string<char, std::char_traits<char>, std::allocator<char> > > > >::operator=
FUNC 77456 25 0 std::map<int, IEC104WF::stPointTable, std::less<int>, std::allocator<std::pair<const int, IEC104WF::stPointTable> > >::lower_bound
FUNC 7747c 1a 0 std::map<int, IEC104WF::stPointTable, std::less<int>, std::allocator<std::pair<const int, IEC104WF::stPointTable> > >::key_comp
FUNC 77496 15 0 std::_Rb_tree_iterator<std::pair<const int, IEC104WF::stPointTable> >::operator*
FUNC 774ac 23 0 std::less<int>::operator()
FUNC 774d0 1a 0 std::map<int, IEC104WF::stPointTable, std::less<int>, std::allocator<std::pair<const int, IEC104WF::stPointTable> > >::end
FUNC 774ea 22 0 std::_Rb_tree_iterator<std::pair<const int, IEC104WF::stPointTable> >::operator==
FUNC 7750c 41 0 IEC104WF::stPointTable::stPointTable
FUNC 7754e 39 0 std::pair<const int, IEC104WF::stPointTable>::pair
FUNC 77588 40 0 std::map<int, IEC104WF::stPointTable, std::less<int>, std::allocator<std::pair<const int, IEC104WF::stPointTable> > >::insert
FUNC 775c8 25 0 std::map<int, std::map<int, IEC104WF::stPointTable, std::less<int>, std::allocator<std::pair<const int, IEC104WF::stPointTable> > >, std::less<int>, std::allocator<std::pair<const int, std::map<int, IEC104WF::stPointTable, std::less<int>, std::allocator<std::pair<const int, IEC104WF::stPointTable> > > > > >::lower_bound
FUNC 775ee 1a 0 std::map<int, std::map<int, IEC104WF::stPointTable, std::less<int>, std::allocator<std::pair<const int, IEC104WF::stPointTable> > >, std::less<int>, std::allocator<std::pair<const int, std::map<int, IEC104WF::stPointTable, std::less<int>, std::allocator<std::pair<const int, IEC104WF::stPointTable> > > > > >::key_comp
FUNC 77608 15 0 std::_Rb_tree_iterator<std::pair<const int, std::map<int, IEC104WF::stPointTable, std::less<int>, std::allocator<std::pair<const int, IEC104WF::stPointTable> > > > >::operator*
FUNC 7761e 1a 0 std::map<int, std::map<int, IEC104WF::stPointTable, std::less<int>, std::allocator<std::pair<const int, IEC104WF::stPointTable> > >, std::less<int>, std::allocator<std::pair<const int, std::map<int, IEC104WF::stPointTable, std::less<int>, std::allocator<std::pair<const int, IEC104WF::stPointTable> > > > > >::end
FUNC 77638 22 0 std::_Rb_tree_iterator<std::pair<const int, std::map<int, IEC104WF::stPointTable, std::less<int>, std::allocator<std::pair<const int, IEC104WF::stPointTable> > > > >::operator==
FUNC 7765a 39 0 std::pair<const int, std::map<int, IEC104WF::stPointTable, std::less<int>, std::allocator<std::pair<const int, IEC104WF::stPointTable> > > >::pair
FUNC 77694 40 0 std::map<int, std::map<int, IEC104WF::stPointTable, std::less<int>, std::allocator<std::pair<const int, IEC104WF::stPointTable> > >, std::less<int>, std::allocator<std::pair<const int, std::map<int, IEC104WF::stPointTable, std::less<int>, std::allocator<std::pair<const int, IEC104WF::stPointTable> > > > > >::insert
FUNC 776d4 f8 0 std::_Rb_tree<int, std::pair<const int, IEC104WF::stPointTable>, std::_Select1st<std::pair<const int, IEC104WF::stPointTable> >, std::less<int>, std::allocator<std::pair<const int, IEC104WF::stPointTable> > >::operator=
FUNC 777cc 25 0 std::map<std::basic_string<char, std::char_traits<char>, std::allocator<char> >, std::map<int, std::map<int, IEC104WF::stPointTable, std::less<int>, std::allocator<std::pair<const int, IEC104WF::stPointTable> > >, std::less<int>, std::allocator<std::pair<const int, std::map<int, IEC104WF::stPointTable, std::less<int>, std::allocator<std::pair<const int, IEC104WF::stPointTable> > > > > >, std::less<std::basic_string<char, std::char_traits<char>, std::allocator<char> > >, std::allocator<std::pair<const std::basic_string<char, std::char_traits<char>, std::allocator<char> >, std::map<int, std::map<int, IEC104WF::stPointTable, std::less<int>, std::allocator<std::pair<const int, IEC104WF::stPointTable> > >, std::less<int>, std::allocator<std::pair<const int, std::map<int, IEC104WF::stPointTable, std::less<int>, std::allocator<std::pair<const int, IEC104WF::stPointTable> > > > > > > > >::lower_bound
FUNC 777f2 1a 0 std::map<std::basic_string<char, std::char_traits<char>, std::allocator<char> >, std::map<int, std::map<int, IEC104WF::stPointTable, std::less<int>, std::allocator<std::pair<const int, IEC104WF::stPointTable> > >, std::less<int>, std::allocator<std::pair<const int, std::map<int, IEC104WF::stPointTable, std::less<int>, std::allocator<std::pair<const int, IEC104WF::stPointTable> > > > > >, std::less<std::basic_string<char, std::char_traits<char>, std::allocator<char> > >, std::allocator<std::pair<const std::basic_string<char, std::char_traits<char>, std::allocator<char> >, std::map<int, std::map<int, IEC104WF::stPointTable, std::less<int>, std::allocator<std::pair<const int, IEC104WF::stPointTable> > >, std::less<int>, std::allocator<std::pair<const int, std::map<int, IEC104WF::stPointTable, std::less<int>, std::allocator<std::pair<const int, IEC104WF::stPointTable> > > > > > > > >::key_comp
FUNC 7780c 15 0 std::_Rb_tree_iterator<std::pair<const std::basic_string<char, std::char_traits<char>, std::allocator<char> >, std::map<int, std::map<int, IEC104WF::stPointTable, std::less<int>, std::allocator<std::pair<const int, IEC104WF::stPointTable> > >, std::less<int>, std::allocator<std::pair<const int, std::map<int, IEC104WF::stPointTable, std::less<int>, std::allocator<std::pair<const int, IEC104WF::stPointTable> > > > > > > >::operator*
FUNC 77822 1a 0 std::map<std::basic_string<char, std::char_traits<char>, std::allocator<char> >, std::map<int, std::map<int, IEC104WF::stPointTable, std::less<int>, std::allocator<std::pair<const int, IEC104WF::stPointTable> > >, std::less<int>, std::allocator<std::pair<const int, std::map<int, IEC104WF::stPointTable, std::less<int>, std::allocator<std::pair<const int, IEC104WF::stPointTable> > > > > >, std::less<std::basic_string<char, std::char_traits<char>, std::allocator<char> > >, std::allocator<std::pair<const std::basic_string<char, std::char_traits<char>, std::allocator<char> >, std::map<int, std::map<int, IEC104WF::stPointTable, std::less<int>, std::allocator<std::pair<const int, IEC104WF::stPointTable> > >, std::less<int>, std::allocator<std::pair<const int, std::map<int, IEC104WF::stPointTable, std::less<int>, std::allocator<std::pair<const int, IEC104WF::stPointTable> > > > > > > > >::end
FUNC 7783c 22 0 std::_Rb_tree_iterator<std::pair<const std::basic_string<char, std::char_traits<char>, std::allocator<char> >, std::map<int, std::map<int, IEC104WF::stPointTable, std::less<int>, std::allocator<std::pair<const int, IEC104WF::stPointTable> > >, std::less<int>, std::allocator<std::pair<const int, std::map<int, IEC104WF::stPointTable, std::less<int>, std::allocator<std::pair<const int, IEC104WF::stPointTable> > > > > > > >::operator==
FUNC 7785e 6b 0 std::pair<const std::basic_string<char, std::char_traits<char>, std::allocator<char> >, std::map<int, std::map<int, IEC104WF::stPointTable, std::less<int>, std::allocator<std::pair<const int, IEC104WF::stPointTable> > >, std::less<int>, std::allocator<std::pair<const int, std::map<int, IEC104WF::stPointTable, std::less<int>, std::allocator<std::pair<const int, IEC104WF::stPointTable> > > > > > >::pair
FUNC 778ca 40 0 std::map<std::basic_string<char, std::char_traits<char>, std::allocator<char> >, std::map<int, std::map<int, IEC104WF::stPointTable, std::less<int>, std::allocator<std::pair<const int, IEC104WF::stPointTable> > >, std::less<int>, std::allocator<std::pair<const int, std::map<int, IEC104WF::stPointTable, std::less<int>, std::allocator<std::pair<const int, IEC104WF::stPointTable> > > > > >, std::less<std::basic_string<char, std::char_traits<char>, std::allocator<char> > >, std::allocator<std::pair<const std::basic_string<char, std::char_traits<char>, std::allocator<char> >, std::map<int, std::map<int, IEC104WF::stPointTable, std::less<int>, std::allocator<std::pair<const int, IEC104WF::stPointTable> > >, std::less<int>, std::allocator<std::pair<const int, std::map<int, IEC104WF::stPointTable, std::less<int>, std::allocator<std::pair<const int, IEC104WF::stPointTable> > > > > > > > >::insert
FUNC 7790a f8 0 std::_Rb_tree<int, std::pair<const int, std::map<int, IEC104WF::stPointTable, std::less<int>, std::allocator<std::pair<const int, IEC104WF::stPointTable> > > >, std::_Select1st<std::pair<const int, std::map<int, IEC104WF::stPointTable, std::less<int>, std::allocator<std::pair<const int, IEC104WF::stPointTable> > > > >, std::less<int>, std::allocator<std::pair<const int, std::map<int, IEC104WF::stPointTable, std::less<int>, std::allocator<std::pair<const int, IEC104WF::stPointTable> > > > > >::operator=
FUNC 77a02 25 0 std::map<std::basic_string<char, std::char_traits<char>, std::allocator<char> >, IEC103::stConfigParam, std::less<std::basic_string<char, std::char_traits<char>, std::allocator<char> > >, std::allocator<std::pair<const std::basic_string<char, std::char_traits<char>, std::allocator<char> >, IEC103::stConfigParam> > >::lower_bound
FUNC 77a28 1a 0 std::map<std::basic_string<char, std::char_traits<char>, std::allocator<char> >, IEC103::stConfigParam, std::less<std::basic_string<char, std::char_traits<char>, std::allocator<char> > >, std::allocator<std::pair<const std::basic_string<char, std::char_traits<char>, std::allocator<char> >, IEC103::stConfigParam> > >::key_comp
FUNC 77a42 15 0 std::_Rb_tree_iterator<std::pair<const std::basic_string<char, std::char_traits<char>, std::allocator<char> >, IEC103::stConfigParam> >::operator*
FUNC 77a58 1a 0 std::map<std::basic_string<char, std::char_traits<char>, std::allocator<char> >, IEC103::stConfigParam, std::less<std::basic_string<char, std::char_traits<char>, std::allocator<char> > >, std::allocator<std::pair<const std::basic_string<char, std::char_traits<char>, std::allocator<char> >, IEC103::stConfigParam> > >::end
FUNC 77a72 22 0 std::_Rb_tree_iterator<std::pair<const std::basic_string<char, std::char_traits<char>, std::allocator<char> >, IEC103::stConfigParam> >::operator==
FUNC 77a94 bf 0 IEC103::stConfigParam::stConfigParam
FUNC 77b54 6b 0 std::pair<const std::basic_string<char, std::char_traits<char>, std::allocator<char> >, IEC103::stConfigParam>::pair
FUNC 77bc0 40 0 std::map<std::basic_string<char, std::char_traits<char>, std::allocator<char> >, IEC103::stConfigParam, std::less<std::basic_string<char, std::char_traits<char>, std::allocator<char> > >, std::allocator<std::pair<const std::basic_string<char, std::char_traits<char>, std::allocator<char> >, IEC103::stConfigParam> > >::insert
FUNC 77c00 25 0 std::map<std::basic_string<char, std::char_traits<char>, std::allocator<char> >, std::map<std::basic_string<char, std::char_traits<char>, std::allocator<char> >, std::basic_string<char, std::char_traits<char>, std::allocator<char> >, std::less<std::basic_string<char, std::char_traits<char>, std::allocator<char> > >, std::allocator<std::pair<const std::basic_string<char, std::char_traits<char>, std::allocator<char> >, std::basic_string<char, std::char_traits<char>, std::allocator<char> > > > >, std::less<std::basic_string<char, std::char_traits<char>, std::allocator<char> > >, std::allocator<std::pair<const std::basic_string<char, std::char_traits<char>, std::allocator<char> >, std::map<std::basic_string<char, std::char_traits<char>, std::allocator<char> >, std::basic_string<char, std::char_traits<char>, std::allocator<char> >, std::less<std::basic_string<char, std::char_traits<char>, std::allocator<char> > >, std::allocator<std::pair<const std::basic_string<char, std::char_traits<char>, std::allocator<char> >, std::basic_string<char, std::char_traits<char>, std::allocator<char> > > > > > > >::lower_bound
FUNC 77c26 1a 0 std::map<std::basic_string<char, std::char_traits<char>, std::allocator<char> >, std::map<std::basic_string<char, std::char_traits<char>, std::allocator<char> >, std::basic_string<char, std::char_traits<char>, std::allocator<char> >, std::less<std::basic_string<char, std::char_traits<char>, std::allocator<char> > >, std::allocator<std::pair<const std::basic_string<char, std::char_traits<char>, std::allocator<char> >, std::basic_string<char, std::char_traits<char>, std::allocator<char> > > > >, std::less<std::basic_string<char, std::char_traits<char>, std::allocator<char> > >, std::allocator<std::pair<const std::basic_string<char, std::char_traits<char>, std::allocator<char> >, std::map<std::basic_string<char, std::char_traits<char>, std::allocator<char> >, std::basic_string<char, std::char_traits<char>, std::allocator<char> >, std::less<std::basic_string<char, std::char_traits<char>, std::allocator<char> > >, std::allocator<std::pair<const std::basic_string<char, std::char_traits<char>, std::allocator<char> >, std::basic_string<char, std::char_traits<char>, std::allocator<char> > > > > > > >::key_comp
FUNC 77c40 15 0 std::_Rb_tree_iterator<std::pair<const std::basic_string<char, std::char_traits<char>, std::allocator<char> >, std::map<std::basic_string<char, std::char_traits<char>, std::allocator<char> >, std::basic_string<char, std::char_traits<char>, std::allocator<char> >, std::less<std::basic_string<char, std::char_traits<char>, std::allocator<char> > >, std::allocator<std::pair<const std::basic_string<char, std::char_traits<char>, std::allocator<char> >, std::basic_string<char, std::char_traits<char>, std::allocator<char> > > > > > >::operator*
FUNC 77c56 1a 0 std::map<std::basic_string<char, std::char_traits<char>, std::allocator<char> >, std::map<std::basic_string<char, std::char_traits<char>, std::allocator<char> >, std::basic_string<char, std::char_traits<char>, std::allocator<char> >, std::less<std::basic_string<char, std::char_traits<char>, std::allocator<char> > >, std::allocator<std::pair<const std::basic_string<char, std::char_traits<char>, std::allocator<char> >, std::basic_string<char, std::char_traits<char>, std::allocator<char> > > > >, std::less<std::basic_string<char, std::char_traits<char>, std::allocator<char> > >, std::allocator<std::pair<const std::basic_string<char, std::char_traits<char>, std::allocator<char> >, std::map<std::basic_string<char, std::char_traits<char>, std::allocator<char> >, std::basic_string<char, std::char_traits<char>, std::allocator<char> >, std::less<std::basic_string<char, std::char_traits<char>, std::allocator<char> > >, std::allocator<std::pair<const std::basic_string<char, std::char_traits<char>, std::allocator<char> >, std::basic_string<char, std::char_traits<char>, std::allocator<char> > > > > > > >::end
FUNC 77c70 22 0 std::_Rb_tree_iterator<std::pair<const std::basic_string<char, std::char_traits<char>, std::allocator<char> >, std::map<std::basic_string<char, std::char_traits<char>, std::allocator<char> >, std::basic_string<char, std::char_traits<char>, std::allocator<char> >, std::less<std::basic_string<char, std::char_traits<char>, std::allocator<char> > >, std::allocator<std::pair<const std::basic_string<char, std::char_traits<char>, std::allocator<char> >, std::basic_string<char, std::char_traits<char>, std::allocator<char> > > > > > >::operator==
FUNC 77c92 6b 0 std::pair<const std::basic_string<char, std::char_traits<char>, std::allocator<char> >, std::map<std::basic_string<char, std::char_traits<char>, std::allocator<char> >, std::basic_string<char, std::char_traits<char>, std::allocator<char> >, std::less<std::basic_string<char, std::char_traits<char>, std::allocator<char> > >, std::allocator<std::pair<const std::basic_string<char, std::char_traits<char>, std::allocator<char> >, std::basic_string<char, std::char_traits<char>, std::allocator<char> > > > > >::pair
FUNC 77cfe 40 0 std::map<std::basic_string<char, std::char_traits<char>, std::allocator<char> >, std::map<std::basic_string<char, std::char_traits<char>, std::allocator<char> >, std::basic_string<char, std::char_traits<char>, std::allocator<char> >, std::less<std::basic_string<char, std::char_traits<char>, std::allocator<char> > >, std::allocator<std::pair<const std::basic_string<char, std::char_traits<char>, std::allocator<char> >, std::basic_string<char, std::char_traits<char>, std::allocator<char> > > > >, std::less<std::basic_string<char, std::char_traits<char>, std::allocator<char> > >, std::allocator<std::pair<const std::basic_string<char, std::char_traits<char>, std::allocator<char> >, std::map<std::basic_string<char, std::char_traits<char>, std::allocator<char> >, std::basic_string<char, std::char_traits<char>, std::allocator<char> >, std::less<std::basic_string<char, std::char_traits<char>, std::allocator<char> > >, std::allocator<std::pair<const std::basic_string<char, std::char_traits<char>, std::allocator<char> >, std::basic_string<char, std::char_traits<char>, std::allocator<char> > > > > > > >::insert
FUNC 77d3e 25 0 std::list<std::basic_string<char, std::char_traits<char>, std::allocator<char> >, std::allocator<std::basic_string<char, std::char_traits<char>, std::allocator<char> > > >::end
FUNC 77d64 40 0 std::list<std::basic_string<char, std::char_traits<char>, std::allocator<char> >, std::allocator<std::basic_string<char, std::char_traits<char>, std::allocator<char> > > >::_M_insert
FUNC 77da4 61 0 std::_Rb_tree<std::basic_string<char, std::char_traits<char>, std::allocator<char> >, std::pair<const std::basic_string<char, std::char_traits<char>, std::allocator<char> >, IEC61850_STRUCT::IED_61850>, std::_Select1st<std::pair<const std::basic_string<char, std::char_traits<char>, std::allocator<char> >, IEC61850_STRUCT::IED_61850> >, std::less<std::basic_string<char, std::char_traits<char>, std::allocator<char> > >, std::allocator<std::pair<const std::basic_string<char, std::char_traits<char>, std::allocator<char> >, IEC61850_STRUCT::IED_61850> > >::_Rb_tree_impl<std::less<std::basic_string<char, std::char_traits<char>, std::allocator<char> > >, false>::_Rb_tree_impl
FUNC 77e06 a 0 __gnu_cxx::new_allocator<std::_Rb_tree_node<std::pair<const std::basic_string<char, std::char_traits<char>, std::allocator<char> >, IEC61850_STRUCT::IED_61850> > >::~new_allocator
FUNC 77e10 12 0 std::_Rb_tree<std::basic_string<char, std::char_traits<char>, std::allocator<char> >, std::pair<const std::basic_string<char, std::char_traits<char>, std::allocator<char> >, IEC61850_STRUCT::IED_61850>, std::_Select1st<std::pair<const std::basic_string<char, std::char_traits<char>, std::allocator<char> >, IEC61850_STRUCT::IED_61850> >, std::less<std::basic_string<char, std::char_traits<char>, std::allocator<char> > >, std::allocator<std::pair<const std::basic_string<char, std::char_traits<char>, std::allocator<char> >, IEC61850_STRUCT::IED_61850> > >::_S_right
FUNC 77e22 12 0 std::_Rb_tree<std::basic_string<char, std::char_traits<char>, std::allocator<char> >, std::pair<const std::basic_string<char, std::char_traits<char>, std::allocator<char> >, IEC61850_STRUCT::IED_61850>, std::_Select1st<std::pair<const std::basic_string<char, std::char_traits<char>, std::allocator<char> >, IEC61850_STRUCT::IED_61850> >, std::less<std::basic_string<char, std::char_traits<char>, std::allocator<char> > >, std::allocator<std::pair<const std::basic_string<char, std::char_traits<char>, std::allocator<char> >, IEC61850_STRUCT::IED_61850> > >::_S_left
FUNC 77e34 86 0 std::_Rb_tree<std::basic_string<char, std::char_traits<char>, std::allocator<char> >, std::pair<const std::basic_string<char, std::char_traits<char>, std::allocator<char> >, IEC61850_STRUCT::IED_61850>, std::_Select1st<std::pair<const std::basic_string<char, std::char_traits<char>, std::allocator<char> >, IEC61850_STRUCT::IED_61850> >, std::less<std::basic_string<char, std::char_traits<char>, std::allocator<char> > >, std::allocator<std::pair<const std::basic_string<char, std::char_traits<char>, std::allocator<char> >, IEC61850_STRUCT::IED_61850> > >::_M_destroy_node
FUNC 77eba 31 0 std::_List_base<std::basic_string<char, std::char_traits<char>, std::allocator<char> >, std::allocator<std::basic_string<char, std::char_traits<char>, std::allocator<char> > > >::_List_impl::_List_impl
FUNC 77eec a 0 __gnu_cxx::new_allocator<std::_List_node<std::basic_string<char, std::char_traits<char>, std::allocator<char> > > >::~new_allocator
FUNC 77ef6 3b 0 std::_List_base<std::basic_string<char, std::char_traits<char>, std::allocator<char> >, std::allocator<std::basic_string<char, std::char_traits<char>, std::allocator<char> > > >::_M_get_Tp_allocator
FUNC 77f32 2a 0 std::_List_base<std::basic_string<char, std::char_traits<char>, std::allocator<char> >, std::allocator<std::basic_string<char, std::char_traits<char>, std::allocator<char> > > >::_M_put_node
FUNC 77f5c 61 0 std::_Rb_tree<std::basic_string<char, std::char_traits<char>, std::allocator<char> >, std::pair<const std::basic_string<char, std::char_traits<char>, std::allocator<char> >, std::map<int, std::map<int, IEC104WF::stPointTable, std::less<int>, std::allocator<std::pair<const int, IEC104WF::stPointTable> > >, std::less<int>, std::allocator<std::pair<const int, std::map<int, IEC104WF::stPointTable, std::less<int>, std::allocator<std::pair<const int, IEC104WF::stPointTable> > > > > > >, std::_Select1st<std::pair<const std::basic_string<char, std::char_traits<char>, std::allocator<char> >, std::map<int, std::map<int, IEC104WF::stPointTable, std::less<int>, std::allocator<std::pair<const int, IEC104WF::stPointTable> > >, std::less<int>, std::allocator<std::pair<const int, std::map<int, IEC104WF::stPointTable, std::less<int>, std::allocator<std::pair<const int, IEC104WF::stPointTable> > > > > > > >, std::less<std::basic_string<char, std::char_traits<char>, std::allocator<char> > >, std::allocator<std::pair<const std::basic_string<char, std::char_traits<char>, std::allocator<char> >, std::map<int, std::map<int, IEC104WF::stPointTable, std::less<int>, std::allocator<std::pair<const int, IEC104WF::stPointTable> > >, std::less<int>, std::allocator<std::pair<const int, std::map<int, IEC104WF::stPointTable, std::less<int>, std::allocator<std::pair<const int, IEC104WF::stPointTable> > > > > > > > >::_Rb_tree_impl<std::less<std::basic_string<char, std::char_traits<char>, std::allocator<char> > >, false>::_Rb_tree_impl
FUNC 77fbe a 0 __gnu_cxx::new_allocator<std::_Rb_tree_node<std::pair<const std::basic_string<char, std::char_traits<char>, std::allocator<char> >, std::map<int, std::map<int, IEC104WF::stPointTable, std::less<int>, std::allocator<std::pair<const int, IEC104WF::stPointTable> > >, std::less<int>, std::allocator<std::pair<const int, std::map<int, IEC104WF::stPointTable, std::less<int>, std::allocator<std::pair<const int, IEC104WF::stPointTable> > > > > > > > >::~new_allocator
FUNC 77fc8 12 0 std::_Rb_tree<std::basic_string<char, std::char_traits<char>, std::allocator<char> >, std::pair<const std::basic_string<char, std::char_traits<char>, std::allocator<char> >, std::map<int, std::map<int, IEC104WF::stPointTable, std::less<int>, std::allocator<std::pair<const int, IEC104WF::stPointTable> > >, std::less<int>, std::allocator<std::pair<const int, std::map<int, IEC104WF::stPointTable, std::less<int>, std::allocator<std::pair<const int, IEC104WF::stPointTable> > > > > > >, std::_Select1st<std::pair<const std::basic_string<char, std::char_traits<char>, std::allocator<char> >, std::map<int, std::map<int, IEC104WF::stPointTable, std::less<int>, std::allocator<std::pair<const int, IEC104WF::stPointTable> > >, std::less<int>, std::allocator<std::pair<const int, std::map<int, IEC104WF::stPointTable, std::less<int>, std::allocator<std::pair<const int, IEC104WF::stPointTable> > > > > > > >, std::less<std::basic_string<char, std::char_traits<char>, std::allocator<char> > >, std::allocator<std::pair<const std::basic_string<char, std::char_traits<char>, std::allocator<char> >, std::map<int, std::map<int, IEC104WF::stPointTable, std::less<int>, std::allocator<std::pair<const int, IEC104WF::stPointTable> > >, std::less<int>, std::allocator<std::pair<const int, std::map<int, IEC104WF::stPointTable, std::less<int>, std::allocator<std::pair<const int, IEC104WF::stPointTable> > > > > > > > >::_S_right
FUNC 77fda 12 0 std::_Rb_tree<std::basic_string<char, std::char_traits<char>, std::allocator<char> >, std::pair<const std::basic_string<char, std::char_traits<char>, std::allocator<char> >, std::map<int, std::map<int, IEC104WF::stPointTable, std::less<int>, std::allocator<std::pair<const int, IEC104WF::stPointTable> > >, std::less<int>, std::allocator<std::pair<const int, std::map<int, IEC104WF::stPointTable, std::less<int>, std::allocator<std::pair<const int, IEC104WF::stPointTable> > > > > > >, std::_Select1st<std::pair<const std::basic_string<char, std::char_traits<char>, std::allocator<char> >, std::map<int, std::map<int, IEC104WF::stPointTable, std::less<int>, std::allocator<std::pair<const int, IEC104WF::stPointTable> > >, std::less<int>, std::allocator<std::pair<const int, std::map<int, IEC104WF::stPointTable, std::less<int>, std::allocator<std::pair<const int, IEC104WF::stPointTable> > > > > > > >, std::less<std::basic_string<char, std::char_traits<char>, std::allocator<char> > >, std::allocator<std::pair<const std::basic_string<char, std::char_traits<char>, std::allocator<char> >, std::map<int, std::map<int, IEC104WF::stPointTable, std::less<int>, std::allocator<std::pair<const int, IEC104WF::stPointTable> > >, std::less<int>, std::allocator<std::pair<const int, std::map<int, IEC104WF::stPointTable, std::less<int>, std::allocator<std::pair<const int, IEC104WF::stPointTable> > > > > > > > >::_S_left
FUNC 77fec 86 0 std::_Rb_tree<std::basic_string<char, std::char_traits<char>, std::allocator<char> >, std::pair<const std::basic_string<char, std::char_traits<char>, std::allocator<char> >, std::map<int, std::map<int, IEC104WF::stPointTable, std::less<int>, std::allocator<std::pair<const int, IEC104WF::stPointTable> > >, std::less<int>, std::allocator<std::pair<const int, std::map<int, IEC104WF::stPointTable, std::less<int>, std::allocator<std::pair<const int, IEC104WF::stPointTable> > > > > > >, std::_Select1st<std::pair<const std::basic_string<char, std::char_traits<char>, std::allocator<char> >, std::map<int, std::map<int, IEC104WF::stPointTable, std::less<int>, std::allocator<std::pair<const int, IEC104WF::stPointTable> > >, std::less<int>, std::allocator<std::pair<const int, std::map<int, IEC104WF::stPointTable, std::less<int>, std::allocator<std::pair<const int, IEC104WF::stPointTable> > > > > > > >, std::less<std::basic_string<char, std::char_traits<char>, std::allocator<char> > >, std::allocator<std::pair<const std::basic_string<char, std::char_traits<char>, std::allocator<char> >, std::map<int, std::map<int, IEC104WF::stPointTable, std::less<int>, std::allocator<std::pair<const int, IEC104WF::stPointTable> > >, std::less<int>, std::allocator<std::pair<const int, std::map<int, IEC104WF::stPointTable, std::less<int>, std::allocator<std::pair<const int, IEC104WF::stPointTable> > > > > > > > >::_M_destroy_node
FUNC 78072 61 0 std::_Rb_tree<int, std::pair<const int, std::map<int, IEC104WF::stPointTable, std::less<int>, std::allocator<std::pair<const int, IEC104WF::stPointTable> > > >, std::_Select1st<std::pair<const int, std::map<int, IEC104WF::stPointTable, std::less<int>, std::allocator<std::pair<const int, IEC104WF::stPointTable> > > > >, std::less<int>, std::allocator<std::pair<const int, std::map<int, IEC104WF::stPointTable, std::less<int>, std::allocator<std::pair<const int, IEC104WF::stPointTable> > > > > >::_Rb_tree_impl<std::less<int>, false>::_Rb_tree_impl
FUNC 780d4 a 0 __gnu_cxx::new_allocator<std::_Rb_tree_node<std::pair<const int, std::map<int, IEC104WF::stPointTable, std::less<int>, std::allocator<std::pair<const int, IEC104WF::stPointTable> > > > > >::~new_allocator
FUNC 780de 12 0 std::_Rb_tree<int, std::pair<const int, std::map<int, IEC104WF::stPointTable, std::less<int>, std::allocator<std::pair<const int, IEC104WF::stPointTable> > > >, std::_Select1st<std::pair<const int, std::map<int, IEC104WF::stPointTable, std::less<int>, std::allocator<std::pair<const int, IEC104WF::stPointTable> > > > >, std::less<int>, std::allocator<std::pair<const int, std::map<int, IEC104WF::stPointTable, std::less<int>, std::allocator<std::pair<const int, IEC104WF::stPointTable> > > > > >::_S_right
FUNC 780f0 12 0 std::_Rb_tree<int, std::pair<const int, std::map<int, IEC104WF::stPointTable, std::less<int>, std::allocator<std::pair<const int, IEC104WF::stPointTable> > > >, std::_Select1st<std::pair<const int, std::map<int, IEC104WF::stPointTable, std::less<int>, std::allocator<std::pair<const int, IEC104WF::stPointTable> > > > >, std::less<int>, std::allocator<std::pair<const int, std::map<int, IEC104WF::stPointTable, std::less<int>, std::allocator<std::pair<const int, IEC104WF::stPointTable> > > > > >::_S_left
FUNC 78102 86 0 std::_Rb_tree<int, std::pair<const int, std::map<int, IEC104WF::stPointTable, std::less<int>, std::allocator<std::pair<const int, IEC104WF::stPointTable> > > >, std::_Select1st<std::pair<const int, std::map<int, IEC104WF::stPointTable, std::less<int>, std::allocator<std::pair<const int, IEC104WF::stPointTable> > > > >, std::less<int>, std::allocator<std::pair<const int, std::map<int, IEC104WF::stPointTable, std::less<int>, std::allocator<std::pair<const int, IEC104WF::stPointTable> > > > > >::_M_destroy_node
FUNC 78188 61 0 std::_Rb_tree<int, std::pair<const int, IEC104WF::stPointTable>, std::_Select1st<std::pair<const int, IEC104WF::stPointTable> >, std::less<int>, std::allocator<std::pair<const int, IEC104WF::stPointTable> > >::_Rb_tree_impl<std::less<int>, false>::_Rb_tree_impl
FUNC 781ea a 0 __gnu_cxx::new_allocator<std::_Rb_tree_node<std::pair<const int, IEC104WF::stPointTable> > >::~new_allocator
FUNC 781f4 12 0 std::_Rb_tree<int, std::pair<const int, IEC104WF::stPointTable>, std::_Select1st<std::pair<const int, IEC104WF::stPointTable> >, std::less<int>, std::allocator<std::pair<const int, IEC104WF::stPointTable> > >::_S_right
FUNC 78206 12 0 std::_Rb_tree<int, std::pair<const int, IEC104WF::stPointTable>, std::_Select1st<std::pair<const int, IEC104WF::stPointTable> >, std::less<int>, std::allocator<std::pair<const int, IEC104WF::stPointTable> > >::_S_left
FUNC 78218 86 0 std::_Rb_tree<int, std::pair<const int, IEC104WF::stPointTable>, std::_Select1st<std::pair<const int, IEC104WF::stPointTable> >, std::less<int>, std::allocator<std::pair<const int, IEC104WF::stPointTable> > >::_M_destroy_node
FUNC 7829e 61 0 std::_Rb_tree<std::basic_string<char, std::char_traits<char>, std::allocator<char> >, std::pair<const std::basic_string<char, std::char_traits<char>, std::allocator<char> >, IEC103::stConfigParam>, std::_Select1st<std::pair<const std::basic_string<char, std::char_traits<char>, std::allocator<char> >, IEC103::stConfigParam> >, std::less<std::basic_string<char, std::char_traits<char>, std::allocator<char> > >, std::allocator<std::pair<const std::basic_string<char, std::char_traits<char>, std::allocator<char> >, IEC103::stConfigParam> > >::_Rb_tree_impl<std::less<std::basic_string<char, std::char_traits<char>, std::allocator<char> > >, false>::_Rb_tree_impl
FUNC 78300 61 0 std::_Rb_tree<std::basic_string<char, std::char_traits<char>, std::allocator<char> >, std::pair<const std::basic_string<char, std::char_traits<char>, std::allocator<char> >, std::map<std::basic_string<char, std::char_traits<char>, std::allocator<char> >, std::basic_string<char, std::char_traits<char>, std::allocator<char> >, std::less<std::basic_string<char, std::char_traits<char>, std::allocator<char> > >, std::allocator<std::pair<const std::basic_string<char, std::char_traits<char>, std::allocator<char> >, std::basic_string<char, std::char_traits<char>, std::allocator<char> > > > > >, std::_Select1st<std::pair<const std::basic_string<char, std::char_traits<char>, std::allocator<char> >, std::map<std::basic_string<char, std::char_traits<char>, std::allocator<char> >, std::basic_string<char, std::char_traits<char>, std::allocator<char> >, std::less<std::basic_string<char, std::char_traits<char>, std::allocator<char> > >, std::allocator<std::pair<const std::basic_string<char, std::char_traits<char>, std::allocator<char> >, std::basic_string<char, std::char_traits<char>, std::allocator<char> > > > > > >, std::less<std::basic_string<char, std::char_traits<char>, std::allocator<char> > >, std::allocator<std::pair<const std::basic_string<char, std::char_traits<char>, std::allocator<char> >, std::map<std::basic_string<char, std::char_traits<char>, std::allocator<char> >, std::basic_string<char, std::char_traits<char>, std::allocator<char> >, std::less<std::basic_string<char, std::char_traits<char>, std::allocator<char> > >, std::allocator<std::pair<const std::basic_string<char, std::char_traits<char>, std::allocator<char> >, std::basic_string<char, std::char_traits<char>, std::allocator<char> > > > > > > >::_Rb_tree_impl<std::less<std::basic_string<char, std::char_traits<char>, std::allocator<char> > >, false>::_Rb_tree_impl
FUNC 78362 12 0 std::_Rb_tree<std::basic_string<char, std::char_traits<char>, std::allocator<char> >, std::pair<const std::basic_string<char, std::char_traits<char>, std::allocator<char> >, IEC61850_STRUCT::IED_61850>, std::_Select1st<std::pair<const std::basic_string<char, std::char_traits<char>, std::allocator<char> >, IEC61850_STRUCT::IED_61850> >, std::less<std::basic_string<char, std::char_traits<char>, std::allocator<char> > >, std::allocator<std::pair<const std::basic_string<char, std::char_traits<char>, std::allocator<char> >, IEC61850_STRUCT::IED_61850> > >::_M_end
FUNC 78374 12 0 std::_Rb_tree<std::basic_string<char, std::char_traits<char>, std::allocator<char> >, std::pair<const std::basic_string<char, std::char_traits<char>, std::allocator<char> >, IEC61850_STRUCT::IED_61850>, std::_Select1st<std::pair<const std::basic_string<char, std::char_traits<char>, std::allocator<char> >, IEC61850_STRUCT::IED_61850> >, std::less<std::basic_string<char, std::char_traits<char>, std::allocator<char> > >, std::allocator<std::pair<const std::basic_string<char, std::char_traits<char>, std::allocator<char> >, IEC61850_STRUCT::IED_61850> > >::_M_leftmost
FUNC 78386 12 0 std::_Rb_tree<std::basic_string<char, std::char_traits<char>, std::allocator<char> >, std::pair<const std::basic_string<char, std::char_traits<char>, std::allocator<char> >, IEC61850_STRUCT::IED_61850>, std::_Select1st<std::pair<const std::basic_string<char, std::char_traits<char>, std::allocator<char> >, IEC61850_STRUCT::IED_61850> >, std::less<std::basic_string<char, std::char_traits<char>, std::allocator<char> > >, std::allocator<std::pair<const std::basic_string<char, std::char_traits<char>, std::allocator<char> >, IEC61850_STRUCT::IED_61850> > >::_M_root
FUNC 78398 12 0 std::_Rb_tree<std::basic_string<char, std::char_traits<char>, std::allocator<char> >, std::pair<const std::basic_string<char, std::char_traits<char>, std::allocator<char> >, IEC61850_STRUCT::IED_61850>, std::_Select1st<std::pair<const std::basic_string<char, std::char_traits<char>, std::allocator<char> >, IEC61850_STRUCT::IED_61850> >, std::less<std::basic_string<char, std::char_traits<char>, std::allocator<char> > >, std::allocator<std::pair<const std::basic_string<char, std::char_traits<char>, std::allocator<char> >, IEC61850_STRUCT::IED_61850> > >::_M_rightmost
FUNC 783aa e 0 std::_Rb_tree<std::basic_string<char, std::char_traits<char>, std::allocator<char> >, std::pair<const std::basic_string<char, std::char_traits<char>, std::allocator<char> >, IEC61850_STRUCT::IED_61850>, std::_Select1st<std::pair<const std::basic_string<char, std::char_traits<char>, std::allocator<char> >, IEC61850_STRUCT::IED_61850> >, std::less<std::basic_string<char, std::char_traits<char>, std::allocator<char> > >, std::allocator<std::pair<const std::basic_string<char, std::char_traits<char>, std::allocator<char> >, IEC61850_STRUCT::IED_61850> > >::_M_get_Node_allocator
FUNC 783b8 70 0 std::_Rb_tree<std::basic_string<char, std::char_traits<char>, std::allocator<char> >, std::pair<const std::basic_string<char, std::char_traits<char>, std::allocator<char> >, IEC61850_STRUCT::IED_61850>, std::_Select1st<std::pair<const std::basic_string<char, std::char_traits<char>, std::allocator<char> >, IEC61850_STRUCT::IED_61850> >, std::less<std::basic_string<char, std::char_traits<char>, std::allocator<char> > >, std::allocator<std::pair<const std::basic_string<char, std::char_traits<char>, std::allocator<char> >, IEC61850_STRUCT::IED_61850> > >::_Rb_tree_impl<std::less<std::basic_string<char, std::char_traits<char>, std::allocator<char> > >, false>::_Rb_tree_impl
FUNC 78428 12 0 std::_Rb_tree<std::basic_string<char, std::char_traits<char>, std::allocator<char> >, std::pair<const std::basic_string<char, std::char_traits<char>, std::allocator<char> >, IEC61850_STRUCT::IED_61850>, std::_Select1st<std::pair<const std::basic_string<char, std::char_traits<char>, std::allocator<char> >, IEC61850_STRUCT::IED_61850> >, std::less<std::basic_string<char, std::char_traits<char>, std::allocator<char> > >, std::allocator<std::pair<const std::basic_string<char, std::char_traits<char>, std::allocator<char> >, IEC61850_STRUCT::IED_61850> > >::_M_root
FUNC 7843a 169 0 std::_Rb_tree<std::basic_string<char, std::char_traits<char>, std::allocator<char> >, std::pair<const std::basic_string<char, std::char_traits<char>, std::allocator<char> >, IEC61850_STRUCT::IED_61850>, std::_Select1st<std::pair<const std::basic_string<char, std::char_traits<char>, std::allocator<char> >, IEC61850_STRUCT::IED_61850> >, std::less<std::basic_string<char, std::char_traits<char>, std::allocator<char> > >, std::allocator<std::pair<const std::basic_string<char, std::char_traits<char>, std::allocator<char> >, IEC61850_STRUCT::IED_61850> > >::_M_copy
FUNC 785a4 12 0 std::_Rb_tree<std::basic_string<char, std::char_traits<char>, std::allocator<char> >, std::pair<const std::basic_string<char, std::char_traits<char>, std::allocator<char> >, IEC61850_STRUCT::IED_61850>, std::_Select1st<std::pair<const std::basic_string<char, std::char_traits<char>, std::allocator<char> >, IEC61850_STRUCT::IED_61850> >, std::less<std::basic_string<char, std::char_traits<char>, std::allocator<char> > >, std::allocator<std::pair<const std::basic_string<char, std::char_traits<char>, std::allocator<char> >, IEC61850_STRUCT::IED_61850> > >::_M_begin
FUNC 785b6 1a 0 std::_Rb_tree<std::basic_string<char, std::char_traits<char>, std::allocator<char> >, std::pair<const std::basic_string<char, std::char_traits<char>, std::allocator<char> >, IEC61850_STRUCT::IED_61850>, std::_Select1st<std::pair<const std::basic_string<char, std::char_traits<char>, std::allocator<char> >, IEC61850_STRUCT::IED_61850> >, std::less<std::basic_string<char, std::char_traits<char>, std::allocator<char> > >, std::allocator<std::pair<const std::basic_string<char, std::char_traits<char>, std::allocator<char> >, IEC61850_STRUCT::IED_61850> > >::_S_minimum
FUNC 785d0 1a 0 std::_Rb_tree<std::basic_string<char, std::char_traits<char>, std::allocator<char> >, std::pair<const std::basic_string<char, std::char_traits<char>, std::allocator<char> >, IEC61850_STRUCT::IED_61850>, std::_Select1st<std::pair<const std::basic_string<char, std::char_traits<char>, std::allocator<char> >, IEC61850_STRUCT::IED_61850> >, std::less<std::basic_string<char, std::char_traits<char>, std::allocator<char> > >, std::allocator<std::pair<const std::basic_string<char, std::char_traits<char>, std::allocator<char> >, IEC61850_STRUCT::IED_61850> > >::_S_maximum
FUNC 785ea 12 0 std::_Rb_tree<std::basic_string<char, std::char_traits<char>, std::allocator<char> >, std::pair<const std::basic_string<char, std::char_traits<char>, std::allocator<char> >, IEC103::stConfigParam>, std::_Select1st<std::pair<const std::basic_string<char, std::char_traits<char>, std::allocator<char> >, IEC103::stConfigParam> >, std::less<std::basic_string<char, std::char_traits<char>, std::allocator<char> > >, std::allocator<std::pair<const std::basic_string<char, std::char_traits<char>, std::allocator<char> >, IEC103::stConfigParam> > >::_M_end
FUNC 785fc 12 0 std::_Rb_tree<std::basic_string<char, std::char_traits<char>, std::allocator<char> >, std::pair<const std::basic_string<char, std::char_traits<char>, std::allocator<char> >, IEC103::stConfigParam>, std::_Select1st<std::pair<const std::basic_string<char, std::char_traits<char>, std::allocator<char> >, IEC103::stConfigParam> >, std::less<std::basic_string<char, std::char_traits<char>, std::allocator<char> > >, std::allocator<std::pair<const std::basic_string<char, std::char_traits<char>, std::allocator<char> >, IEC103::stConfigParam> > >::_M_leftmost
FUNC 7860e 12 0 std::_Rb_tree<std::basic_string<char, std::char_traits<char>, std::allocator<char> >, std::pair<const std::basic_string<char, std::char_traits<char>, std::allocator<char> >, IEC103::stConfigParam>, std::_Select1st<std::pair<const std::basic_string<char, std::char_traits<char>, std::allocator<char> >, IEC103::stConfigParam> >, std::less<std::basic_string<char, std::char_traits<char>, std::allocator<char> > >, std::allocator<std::pair<const std::basic_string<char, std::char_traits<char>, std::allocator<char> >, IEC103::stConfigParam> > >::_M_root
FUNC 78620 12 0 std::_Rb_tree<std::basic_string<char, std::char_traits<char>, std::allocator<char> >, std::pair<const std::basic_string<char, std::char_traits<char>, std::allocator<char> >, IEC103::stConfigParam>, std::_Select1st<std::pair<const std::basic_string<char, std::char_traits<char>, std::allocator<char> >, IEC103::stConfigParam> >, std::less<std::basic_string<char, std::char_traits<char>, std::allocator<char> > >, std::allocator<std::pair<const std::basic_string<char, std::char_traits<char>, std::allocator<char> >, IEC103::stConfigParam> > >::_M_rightmost
FUNC 78632 12 0 std::_Rb_tree<std::basic_string<char, std::char_traits<char>, std::allocator<char> >, std::pair<const std::basic_string<char, std::char_traits<char>, std::allocator<char> >, std::map<std::basic_string<char, std::char_traits<char>, std::allocator<char> >, std::basic_string<char, std::char_traits<char>, std::allocator<char> >, std::less<std::basic_string<char, std::char_traits<char>, std::allocator<char> > >, std::allocator<std::pair<const std::basic_string<char, std::char_traits<char>, std::allocator<char> >, std::basic_string<char, std::char_traits<char>, std::allocator<char> > > > > >, std::_Select1st<std::pair<const std::basic_string<char, std::char_traits<char>, std::allocator<char> >, std::map<std::basic_string<char, std::char_traits<char>, std::allocator<char> >, std::basic_string<char, std::char_traits<char>, std::allocator<char> >, std::less<std::basic_string<char, std::char_traits<char>, std::allocator<char> > >, std::allocator<std::pair<const std::basic_string<char, std::char_traits<char>, std::allocator<char> >, std::basic_string<char, std::char_traits<char>, std::allocator<char> > > > > > >, std::less<std::basic_string<char, std::char_traits<char>, std::allocator<char> > >, std::allocator<std::pair<const std::basic_string<char, std::char_traits<char>, std::allocator<char> >, std::map<std::basic_string<char, std::char_traits<char>, std::allocator<char> >, std::basic_string<char, std::char_traits<char>, std::allocator<char> >, std::less<std::basic_string<char, std::char_traits<char>, std::allocator<char> > >, std::allocator<std::pair<const std::basic_string<char, std::char_traits<char>, std::allocator<char> >, std::basic_string<char, std::char_traits<char>, std::allocator<char> > > > > > > >::_M_end
FUNC 78644 12 0 std::_Rb_tree<std::basic_string<char, std::char_traits<char>, std::allocator<char> >, std::pair<const std::basic_string<char, std::char_traits<char>, std::allocator<char> >, std::map<std::basic_string<char, std::char_traits<char>, std::allocator<char> >, std::basic_string<char, std::char_traits<char>, std::allocator<char> >, std::less<std::basic_string<char, std::char_traits<char>, std::allocator<char> > >, std::allocator<std::pair<const std::basic_string<char, std::char_traits<char>, std::allocator<char> >, std::basic_string<char, std::char_traits<char>, std::allocator<char> > > > > >, std::_Select1st<std::pair<const std::basic_string<char, std::char_traits<char>, std::allocator<char> >, std::map<std::basic_string<char, std::char_traits<char>, std::allocator<char> >, std::basic_string<char, std::char_traits<char>, std::allocator<char> >, std::less<std::basic_string<char, std::char_traits<char>, std::allocator<char> > >, std::allocator<std::pair<const std::basic_string<char, std::char_traits<char>, std::allocator<char> >, std::basic_string<char, std::char_traits<char>, std::allocator<char> > > > > > >, std::less<std::basic_string<char, std::char_traits<char>, std::allocator<char> > >, std::allocator<std::pair<const std::basic_string<char, std::char_traits<char>, std::allocator<char> >, std::map<std::basic_string<char, std::char_traits<char>, std::allocator<char> >, std::basic_string<char, std::char_traits<char>, std::allocator<char> >, std::less<std::basic_string<char, std::char_traits<char>, std::allocator<char> > >, std::allocator<std::pair<const std::basic_string<char, std::char_traits<char>, std::allocator<char> >, std::basic_string<char, std::char_traits<char>, std::allocator<char> > > > > > > >::_M_leftmost
FUNC 78656 12 0 std::_Rb_tree<std::basic_string<char, std::char_traits<char>, std::allocator<char> >, std::pair<const std::basic_string<char, std::char_traits<char>, std::allocator<char> >, std::map<std::basic_string<char, std::char_traits<char>, std::allocator<char> >, std::basic_string<char, std::char_traits<char>, std::allocator<char> >, std::less<std::basic_string<char, std::char_traits<char>, std::allocator<char> > >, std::allocator<std::pair<const std::basic_string<char, std::char_traits<char>, std::allocator<char> >, std::basic_string<char, std::char_traits<char>, std::allocator<char> > > > > >, std::_Select1st<std::pair<const std::basic_string<char, std::char_traits<char>, std::allocator<char> >, std::map<std::basic_string<char, std::char_traits<char>, std::allocator<char> >, std::basic_string<char, std::char_traits<char>, std::allocator<char> >, std::less<std::basic_string<char, std::char_traits<char>, std::allocator<char> > >, std::allocator<std::pair<const std::basic_string<char, std::char_traits<char>, std::allocator<char> >, std::basic_string<char, std::char_traits<char>, std::allocator<char> > > > > > >, std::less<std::basic_string<char, std::char_traits<char>, std::allocator<char> > >, std::allocator<std::pair<const std::basic_string<char, std::char_traits<char>, std::allocator<char> >, std::map<std::basic_string<char, std::char_traits<char>, std::allocator<char> >, std::basic_string<char, std::char_traits<char>, std::allocator<char> >, std::less<std::basic_string<char, std::char_traits<char>, std::allocator<char> > >, std::allocator<std::pair<const std::basic_string<char, std::char_traits<char>, std::allocator<char> >, std::basic_string<char, std::char_traits<char>, std::allocator<char> > > > > > > >::_M_root
FUNC 78668 12 0 std::_Rb_tree<std::basic_string<char, std::char_traits<char>, std::allocator<char> >, std::pair<const std::basic_string<char, std::char_traits<char>, std::allocator<char> >, std::map<std::basic_string<char, std::char_traits<char>, std::allocator<char> >, std::basic_string<char, std::char_traits<char>, std::allocator<char> >, std::less<std::basic_string<char, std::char_traits<char>, std::allocator<char> > >, std::allocator<std::pair<const std::basic_string<char, std::char_traits<char>, std::allocator<char> >, std::basic_string<char, std::char_traits<char>, std::allocator<char> > > > > >, std::_Select1st<std::pair<const std::basic_string<char, std::char_traits<char>, std::allocator<char> >, std::map<std::basic_string<char, std::char_traits<char>, std::allocator<char> >, std::basic_string<char, std::char_traits<char>, std::allocator<char> >, std::less<std::basic_string<char, std::char_traits<char>, std::allocator<char> > >, std::allocator<std::pair<const std::basic_string<char, std::char_traits<char>, std::allocator<char> >, std::basic_string<char, std::char_traits<char>, std::allocator<char> > > > > > >, std::less<std::basic_string<char, std::char_traits<char>, std::allocator<char> > >, std::allocator<std::pair<const std::basic_string<char, std::char_traits<char>, std::allocator<char> >, std::map<std::basic_string<char, std::char_traits<char>, std::allocator<char> >, std::basic_string<char, std::char_traits<char>, std::allocator<char> >, std::less<std::basic_string<char, std::char_traits<char>, std::allocator<char> > >, std::allocator<std::pair<const std::basic_string<char, std::char_traits<char>, std::allocator<char> >, std::basic_string<char, std::char_traits<char>, std::allocator<char> > > > > > > >::_M_rightmost
FUNC 7867a 70 0 std::_Rb_tree<std::basic_string<char, std::char_traits<char>, std::allocator<char> >, std::pair<const std::basic_string<char, std::char_traits<char>, std::allocator<char> >, IEC103::stConfigParam>, std::_Select1st<std::pair<const std::basic_string<char, std::char_traits<char>, std::allocator<char> >, IEC103::stConfigParam> >, std::less<std::basic_string<char, std::char_traits<char>, std::allocator<char> > >, std::allocator<std::pair<const std::basic_string<char, std::char_traits<char>, std::allocator<char> >, IEC103::stConfigParam> > >::_Rb_tree_impl<std::less<std::basic_string<char, std::char_traits<char>, std::allocator<char> > >, false>::_Rb_tree_impl
FUNC 786ea 12 0 std::_Rb_tree<std::basic_string<char, std::char_traits<char>, std::allocator<char> >, std::pair<const std::basic_string<char, std::char_traits<char>, std::allocator<char> >, IEC103::stConfigParam>, std::_Select1st<std::pair<const std::basic_string<char, std::char_traits<char>, std::allocator<char> >, IEC103::stConfigParam> >, std::less<std::basic_string<char, std::char_traits<char>, std::allocator<char> > >, std::allocator<std::pair<const std::basic_string<char, std::char_traits<char>, std::allocator<char> >, IEC103::stConfigParam> > >::_M_root
FUNC 786fc 169 0 std::_Rb_tree<std::basic_string<char, std::char_traits<char>, std::allocator<char> >, std::pair<const std::basic_string<char, std::char_traits<char>, std::allocator<char> >, IEC103::stConfigParam>, std::_Select1st<std::pair<const std::basic_string<char, std::char_traits<char>, std::allocator<char> >, IEC103::stConfigParam> >, std::less<std::basic_string<char, std::char_traits<char>, std::allocator<char> > >, std::allocator<std::pair<const std::basic_string<char, std::char_traits<char>, std::allocator<char> >, IEC103::stConfigParam> > >::_M_copy
FUNC 78866 12 0 std::_Rb_tree<std::basic_string<char, std::char_traits<char>, std::allocator<char> >, std::pair<const std::basic_string<char, std::char_traits<char>, std::allocator<char> >, IEC103::stConfigParam>, std::_Select1st<std::pair<const std::basic_string<char, std::char_traits<char>, std::allocator<char> >, IEC103::stConfigParam> >, std::less<std::basic_string<char, std::char_traits<char>, std::allocator<char> > >, std::allocator<std::pair<const std::basic_string<char, std::char_traits<char>, std::allocator<char> >, IEC103::stConfigParam> > >::_M_begin
FUNC 78878 1a 0 std::_Rb_tree<std::basic_string<char, std::char_traits<char>, std::allocator<char> >, std::pair<const std::basic_string<char, std::char_traits<char>, std::allocator<char> >, IEC103::stConfigParam>, std::_Select1st<std::pair<const std::basic_string<char, std::char_traits<char>, std::allocator<char> >, IEC103::stConfigParam> >, std::less<std::basic_string<char, std::char_traits<char>, std::allocator<char> > >, std::allocator<std::pair<const std::basic_string<char, std::char_traits<char>, std::allocator<char> >, IEC103::stConfigParam> > >::_S_minimum
FUNC 78892 1a 0 std::_Rb_tree<std::basic_string<char, std::char_traits<char>, std::allocator<char> >, std::pair<const std::basic_string<char, std::char_traits<char>, std::allocator<char> >, IEC103::stConfigParam>, std::_Select1st<std::pair<const std::basic_string<char, std::char_traits<char>, std::allocator<char> >, IEC103::stConfigParam> >, std::less<std::basic_string<char, std::char_traits<char>, std::allocator<char> > >, std::allocator<std::pair<const std::basic_string<char, std::char_traits<char>, std::allocator<char> >, IEC103::stConfigParam> > >::_S_maximum
FUNC 788ac 70 0 std::_Rb_tree<std::basic_string<char, std::char_traits<char>, std::allocator<char> >, std::pair<const std::basic_string<char, std::char_traits<char>, std::allocator<char> >, std::map<std::basic_string<char, std::char_traits<char>, std::allocator<char> >, std::basic_string<char, std::char_traits<char>, std::allocator<char> >, std::less<std::basic_string<char, std::char_traits<char>, std::allocator<char> > >, std::allocator<std::pair<const std::basic_string<char, std::char_traits<char>, std::allocator<char> >, std::basic_string<char, std::char_traits<char>, std::allocator<char> > > > > >, std::_Select1st<std::pair<const std::basic_string<char, std::char_traits<char>, std::allocator<char> >, std::map<std::basic_string<char, std::char_traits<char>, std::allocator<char> >, std::basic_string<char, std::char_traits<char>, std::allocator<char> >, std::less<std::basic_string<char, std::char_traits<char>, std::allocator<char> > >, std::allocator<std::pair<const std::basic_string<char, std::char_traits<char>, std::allocator<char> >, std::basic_string<char, std::char_traits<char>, std::allocator<char> > > > > > >, std::less<std::basic_string<char, std::char_traits<char>, std::allocator<char> > >, std::allocator<std::pair<const std::basic_string<char, std::char_traits<char>, std::allocator<char> >, std::map<std::basic_string<char, std::char_traits<char>, std::allocator<char> >, std::basic_string<char, std::char_traits<char>, std::allocator<char> >, std::less<std::basic_string<char, std::char_traits<char>, std::allocator<char> > >, std::allocator<std::pair<const std::basic_string<char, std::char_traits<char>, std::allocator<char> >, std::basic_string<char, std::char_traits<char>, std::allocator<char> > > > > > > >::_Rb_tree_impl<std::less<std::basic_string<char, std::char_traits<char>, std::allocator<char> > >, false>::_Rb_tree_impl
FUNC 7891c 12 0 std::_Rb_tree<std::basic_string<char, std::char_traits<char>, std::allocator<char> >, std::pair<const std::basic_string<char, std::char_traits<char>, std::allocator<char> >, std::map<std::basic_string<char, std::char_traits<char>, std::allocator<char> >, std::basic_string<char, std::char_traits<char>, std::allocator<char> >, std::less<std::basic_string<char, std::char_traits<char>, std::allocator<char> > >, std::allocator<std::pair<const std::basic_string<char, std::char_traits<char>, std::allocator<char> >, std::basic_string<char, std::char_traits<char>, std::allocator<char> > > > > >, std::_Select1st<std::pair<const std::basic_string<char, std::char_traits<char>, std::allocator<char> >, std::map<std::basic_string<char, std::char_traits<char>, std::allocator<char> >, std::basic_string<char, std::char_traits<char>, std::allocator<char> >, std::less<std::basic_string<char, std::char_traits<char>, std::allocator<char> > >, std::allocator<std::pair<const std::basic_string<char, std::char_traits<char>, std::allocator<char> >, std::basic_string<char, std::char_traits<char>, std::allocator<char> > > > > > >, std::less<std::basic_string<char, std::char_traits<char>, std::allocator<char> > >, std::allocator<std::pair<const std::basic_string<char, std::char_traits<char>, std::allocator<char> >, std::map<std::basic_string<char, std::char_traits<char>, std::allocator<char> >, std::basic_string<char, std::char_traits<char>, std::allocator<char> >, std::less<std::basic_string<char, std::char_traits<char>, std::allocator<char> > >, std::allocator<std::pair<const std::basic_string<char, std::char_traits<char>, std::allocator<char> >, std::basic_string<char, std::char_traits<char>, std::allocator<char> > > > > > > >::_M_root
FUNC 7892e 169 0 std::_Rb_tree<std::basic_string<char, std::char_traits<char>, std::allocator<char> >, std::pair<const std::basic_string<char, std::char_traits<char>, std::allocator<char> >, std::map<std::basic_string<char, std::char_traits<char>, std::allocator<char> >, std::basic_string<char, std::char_traits<char>, std::allocator<char> >, std::less<std::basic_string<char, std::char_traits<char>, std::allocator<char> > >, std::allocator<std::pair<const std::basic_string<char, std::char_traits<char>, std::allocator<char> >, std::basic_string<char, std::char_traits<char>, std::allocator<char> > > > > >, std::_Select1st<std::pair<const std::basic_string<char, std::char_traits<char>, std::allocator<char> >, std::map<std::basic_string<char, std::char_traits<char>, std::allocator<char> >, std::basic_string<char, std::char_traits<char>, std::allocator<char> >, std::less<std::basic_string<char, std::char_traits<char>, std::allocator<char> > >, std::allocator<std::pair<const std::basic_string<char, std::char_traits<char>, std::allocator<char> >, std::basic_string<char, std::char_traits<char>, std::allocator<char> > > > > > >, std::less<std::basic_string<char, std::char_traits<char>, std::allocator<char> > >, std::allocator<std::pair<const std::basic_string<char, std::char_traits<char>, std::allocator<char> >, std::map<std::basic_string<char, std::char_traits<char>, std::allocator<char> >, std::basic_string<char, std::char_traits<char>, std::allocator<char> >, std::less<std::basic_string<char, std::char_traits<char>, std::allocator<char> > >, std::allocator<std::pair<const std::basic_string<char, std::char_traits<char>, std::allocator<char> >, std::basic_string<char, std::char_traits<char>, std::allocator<char> > > > > > > >::_M_copy
FUNC 78a98 12 0 std::_Rb_tree<std::basic_string<char, std::char_traits<char>, std::allocator<char> >, std::pair<const std::basic_string<char, std::char_traits<char>, std::allocator<char> >, std::map<std::basic_string<char, std::char_traits<char>, std::allocator<char> >, std::basic_string<char, std::char_traits<char>, std::allocator<char> >, std::less<std::basic_string<char, std::char_traits<char>, std::allocator<char> > >, std::allocator<std::pair<const std::basic_string<char, std::char_traits<char>, std::allocator<char> >, std::basic_string<char, std::char_traits<char>, std::allocator<char> > > > > >, std::_Select1st<std::pair<const std::basic_string<char, std::char_traits<char>, std::allocator<char> >, std::map<std::basic_string<char, std::char_traits<char>, std::allocator<char> >, std::basic_string<char, std::char_traits<char>, std::allocator<char> >, std::less<std::basic_string<char, std::char_traits<char>, std::allocator<char> > >, std::allocator<std::pair<const std::basic_string<char, std::char_traits<char>, std::allocator<char> >, std::basic_string<char, std::char_traits<char>, std::allocator<char> > > > > > >, std::less<std::basic_string<char, std::char_traits<char>, std::allocator<char> > >, std::allocator<std::pair<const std::basic_string<char, std::char_traits<char>, std::allocator<char> >, std::map<std::basic_string<char, std::char_traits<char>, std::allocator<char> >, std::basic_string<char, std::char_traits<char>, std::allocator<char> >, std::less<std::basic_string<char, std::char_traits<char>, std::allocator<char> > >, std::allocator<std::pair<const std::basic_string<char, std::char_traits<char>, std::allocator<char> >, std::basic_string<char, std::char_traits<char>, std::allocator<char> > > > > > > >::_M_begin
FUNC 78aaa 1a 0 std::_Rb_tree<std::basic_string<char, std::char_traits<char>, std::allocator<char> >, std::pair<const std::basic_string<char, std::char_traits<char>, std::allocator<char> >, std::map<std::basic_string<char, std::char_traits<char>, std::allocator<char> >, std::basic_string<char, std::char_traits<char>, std::allocator<char> >, std::less<std::basic_string<char, std::char_traits<char>, std::allocator<char> > >, std::allocator<std::pair<const std::basic_string<char, std::char_traits<char>, std::allocator<char> >, std::basic_string<char, std::char_traits<char>, std::allocator<char> > > > > >, std::_Select1st<std::pair<const std::basic_string<char, std::char_traits<char>, std::allocator<char> >, std::map<std::basic_string<char, std::char_traits<char>, std::allocator<char> >, std::basic_string<char, std::char_traits<char>, std::allocator<char> >, std::less<std::basic_string<char, std::char_traits<char>, std::allocator<char> > >, std::allocator<std::pair<const std::basic_string<char, std::char_traits<char>, std::allocator<char> >, std::basic_string<char, std::char_traits<char>, std::allocator<char> > > > > > >, std::less<std::basic_string<char, std::char_traits<char>, std::allocator<char> > >, std::allocator<std::pair<const std::basic_string<char, std::char_traits<char>, std::allocator<char> >, std::map<std::basic_string<char, std::char_traits<char>, std::allocator<char> >, std::basic_string<char, std::char_traits<char>, std::allocator<char> >, std::less<std::basic_string<char, std::char_traits<char>, std::allocator<char> > >, std::allocator<std::pair<const std::basic_string<char, std::char_traits<char>, std::allocator<char> >, std::basic_string<char, std::char_traits<char>, std::allocator<char> > > > > > > >::_S_minimum
FUNC 78ac4 1a 0 std::_Rb_tree<std::basic_string<char, std::char_traits<char>, std::allocator<char> >, std::pair<const std::basic_string<char, std::char_traits<char>, std::allocator<char> >, std::map<std::basic_string<char, std::char_traits<char>, std::allocator<char> >, std::basic_string<char, std::char_traits<char>, std::allocator<char> >, std::less<std::basic_string<char, std::char_traits<char>, std::allocator<char> > >, std::allocator<std::pair<const std::basic_string<char, std::char_traits<char>, std::allocator<char> >, std::basic_string<char, std::char_traits<char>, std::allocator<char> > > > > >, std::_Select1st<std::pair<const std::basic_string<char, std::char_traits<char>, std::allocator<char> >, std::map<std::basic_string<char, std::char_traits<char>, std::allocator<char> >, std::basic_string<char, std::char_traits<char>, std::allocator<char> >, std::less<std::basic_string<char, std::char_traits<char>, std::allocator<char> > >, std::allocator<std::pair<const std::basic_string<char, std::char_traits<char>, std::allocator<char> >, std::basic_string<char, std::char_traits<char>, std::allocator<char> > > > > > >, std::less<std::basic_string<char, std::char_traits<char>, std::allocator<char> > >, std::allocator<std::pair<const std::basic_string<char, std::char_traits<char>, std::allocator<char> >, std::map<std::basic_string<char, std::char_traits<char>, std::allocator<char> >, std::basic_string<char, std::char_traits<char>, std::allocator<char> >, std::less<std::basic_string<char, std::char_traits<char>, std::allocator<char> > >, std::allocator<std::pair<const std::basic_string<char, std::char_traits<char>, std::allocator<char> >, std::basic_string<char, std::char_traits<char>, std::allocator<char> > > > > > > >::_S_maximum
FUNC 78ade 12 0 std::_Rb_tree<std::basic_string<char, std::char_traits<char>, std::allocator<char> >, std::pair<const std::basic_string<char, std::char_traits<char>, std::allocator<char> >, std::map<int, std::map<int, IEC104WF::stPointTable, std::less<int>, std::allocator<std::pair<const int, IEC104WF::stPointTable> > >, std::less<int>, std::allocator<std::pair<const int, std::map<int, IEC104WF::stPointTable, std::less<int>, std::allocator<std::pair<const int, IEC104WF::stPointTable> > > > > > >, std::_Select1st<std::pair<const std::basic_string<char, std::char_traits<char>, std::allocator<char> >, std::map<int, std::map<int, IEC104WF::stPointTable, std::less<int>, std::allocator<std::pair<const int, IEC104WF::stPointTable> > >, std::less<int>, std::allocator<std::pair<const int, std::map<int, IEC104WF::stPointTable, std::less<int>, std::allocator<std::pair<const int, IEC104WF::stPointTable> > > > > > > >, std::less<std::basic_string<char, std::char_traits<char>, std::allocator<char> > >, std::allocator<std::pair<const std::basic_string<char, std::char_traits<char>, std::allocator<char> >, std::map<int, std::map<int, IEC104WF::stPointTable, std::less<int>, std::allocator<std::pair<const int, IEC104WF::stPointTable> > >, std::less<int>, std::allocator<std::pair<const int, std::map<int, IEC104WF::stPointTable, std::less<int>, std::allocator<std::pair<const int, IEC104WF::stPointTable> > > > > > > > >::_M_end
