MODULE Linux x86_64 62FCAF3145116F92326A789BAEDFF1CE0 IEC103_SFIEC103
FUNC 133f4 1b0 0 main
FUNC 135a4 1c4 0 __static_initialization_and_destruction_0
FUNC 13768 15 0 _GLOBAL__I_IEC103.cpp
FUNC 1377e 1c 0 std::exception::exception
FUNC 1379a 2c 0 std::bad_exception::bad_exception
FUNC 137c6 2c 0 std::bad_alloc::bad_alloc
FUNC 137f2 29 0 Config::setChannelName
FUNC 1381c 19 0 boost::error_info<boost::throw_function_, const char*>::error_info
FUNC 13836 19 0 boost::error_info<boost::throw_file_, const char*>::error_info
FUNC 13850 16 0 boost::error_info<boost::throw_line_, int>::error_info
FUNC 13866 53 0 boost::exception::exception
FUNC 138ba 5d 0 boost::exception::~exception
FUNC 13918 26 0 boost::exception::~exception
FUNC 1393e 35 0 boost::exception_detail::clone_base::~clone_base
FUNC 13974 26 0 boost::exception_detail::clone_base::~clone_base
FUNC 1399a 10d 0 boost::exception_detail::copy_boost_exception
FUNC 13aa7 22 0 boost::detail::atomic_exchange_and_add
FUNC 13ac9 15 0 boost::detail::atomic_increment
FUNC 13ade 32 0 boost::detail::sp_counted_base::sp_counted_base
FUNC 13b10 35 0 boost::detail::sp_counted_base::~sp_counted_base
FUNC 13b46 26 0 boost::detail::sp_counted_base::~sp_counted_base
FUNC 13b6c 2c 0 boost::detail::sp_counted_base::destroy
FUNC 13b98 1e 0 boost::detail::sp_counted_base::add_ref_copy
FUNC 13bb6 50 0 boost::detail::sp_counted_base::release
FUNC 13c06 44 0 boost::detail::sp_counted_base::weak_release
FUNC 13c4a 29 0 boost::detail::shared_count::~shared_count
FUNC 13c74 3b 0 boost::detail::shared_count::shared_count
FUNC 13caf 6 0 boost::detail::sp_enable_shared_from_this
FUNC 13cb6 1e 0 boost::shared_ptr<const boost::exception_detail::clone_base>::~shared_ptr
FUNC 13cd4 3b 0 boost::shared_ptr<const boost::exception_detail::clone_base>::shared_ptr
FUNC 13d10 25 0 boost::exception_ptr::exception_ptr
FUNC 13d36 7c 0 boost::exception_detail::bad_alloc_::~bad_alloc_
FUNC 13dc2 26 0 boost::exception_detail::bad_alloc_::~bad_alloc_
FUNC 13de8 7c 0 boost::exception_detail::bad_exception_::~bad_exception_
FUNC 13e74 26 0 boost::exception_detail::bad_exception_::~bad_exception_
FUNC 13e9a 6d 0 boost::exception::exception
FUNC 13f08 1a 0 boost::exception_ptr::~exception_ptr
FUNC 13f22 25 0 boost::exception_ptr::exception_ptr
FUNC 13f48 15 0 boost::exception_detail::refcount_ptr<boost::exception_detail::error_info_container>::refcount_ptr
FUNC 13f5e 1a 0 boost::exception_detail::refcount_ptr<boost::exception_detail::error_info_container>::~refcount_ptr
FUNC 13f78 11 0 boost::exception_detail::refcount_ptr<boost::exception_detail::error_info_container>::get
FUNC 13f8a 2c 0 boost::exception_detail::refcount_ptr<boost::exception_detail::error_info_container>::operator=
FUNC 13fb6 20 0 std::exception::exception
FUNC 13fd6 20 0 boost::exception_detail::clone_base::clone_base
FUNC 13ff6 a 0 boost::arg<1>::arg
FUNC 14000 a 0 boost::arg<2>::arg
FUNC 1400a a 0 boost::arg<3>::arg
FUNC 14014 a 0 boost::arg<4>::arg
FUNC 1401e a 0 boost::arg<5>::arg
FUNC 14028 a 0 boost::arg<6>::arg
FUNC 14032 a 0 boost::arg<7>::arg
FUNC 1403c a 0 boost::arg<8>::arg
FUNC 14046 a 0 boost::arg<9>::arg
FUNC 14050 35 0 boost::exception_detail::refcount_ptr<boost::exception_detail::error_info_container>::adopt
FUNC 14086 2c 0 boost::exception_detail::refcount_ptr<boost::exception_detail::error_info_container>::refcount_ptr
FUNC 140b2 4f 0 boost::exception_detail::bad_alloc_::bad_alloc_
FUNC 14102 37 0 std::bad_alloc::bad_alloc
FUNC 1413a 65 0 boost::exception_detail::bad_alloc_::bad_alloc_
FUNC 141a0 78 0 boost::exception_detail::clone_impl<boost::exception_detail::bad_alloc_>::clone_impl
FUNC 14218 228 0 boost::exception_detail::get_static_exception_object<boost::exception_detail::bad_alloc_>
FUNC 14440 4f 0 boost::exception_detail::bad_exception_::bad_exception_
FUNC 14490 37 0 std::bad_exception::bad_exception
FUNC 144c8 65 0 boost::exception_detail::bad_exception_::bad_exception_
FUNC 1452e 78 0 boost::exception_detail::clone_impl<boost::exception_detail::bad_exception_>::clone_impl
FUNC 145a6 228 0 boost::exception_detail::get_static_exception_object<boost::exception_detail::bad_exception_>
FUNC 147ce 56 0 boost::exception_detail::refcount_ptr<boost::exception_detail::error_info_container>::release
FUNC 14824 37 0 boost::exception_detail::refcount_ptr<boost::exception_detail::error_info_container>::add_ref
FUNC 1485c 1c 0 boost::exception_detail::clone_base::clone_base
FUNC 14878 c6 0 boost::exception_detail::clone_impl<boost::exception_detail::bad_alloc_>::clone_impl
FUNC 1493e 8f 0 boost::exception_detail::clone_impl<boost::exception_detail::bad_alloc_>::~clone_impl
FUNC 149ec 26 0 boost::exception_detail::clone_impl<boost::exception_detail::bad_alloc_>::~clone_impl
FUNC 14a12 25 0 boost::operator<< <boost::exception_detail::clone_impl<boost::exception_detail::bad_alloc_>, boost::throw_function_, const char*>
FUNC 14a37 25 0 boost::operator<< <boost::exception_detail::clone_impl<boost::exception_detail::bad_alloc_>, boost::throw_file_, const char*>
FUNC 14a5c 25 0 boost::operator<< <boost::exception_detail::clone_impl<boost::exception_detail::bad_alloc_>, boost::throw_line_, int>
FUNC 14a82 62 0 boost::shared_ptr<const boost::exception_detail::clone_base>::shared_ptr<boost::exception_detail::clone_impl<boost::exception_detail::bad_alloc_> >
FUNC 14ae4 c6 0 boost::exception_detail::clone_impl<boost::exception_detail::bad_exception_>::clone_impl
FUNC 14baa 8f 0 boost::exception_detail::clone_impl<boost::exception_detail::bad_exception_>::~clone_impl
FUNC 14c58 26 0 boost::exception_detail::clone_impl<boost::exception_detail::bad_exception_>::~clone_impl
FUNC 14c7e 25 0 boost::operator<< <boost::exception_detail::clone_impl<boost::exception_detail::bad_exception_>, boost::throw_function_, const char*>
FUNC 14ca3 25 0 boost::operator<< <boost::exception_detail::clone_impl<boost::exception_detail::bad_exception_>, boost::throw_file_, const char*>
FUNC 14cc8 25 0 boost::operator<< <boost::exception_detail::clone_impl<boost::exception_detail::bad_exception_>, boost::throw_line_, int>
FUNC 14cee 62 0 boost::shared_ptr<const boost::exception_detail::clone_base>::shared_ptr<boost::exception_detail::clone_impl<boost::exception_detail::bad_exception_> >
FUNC 14d50 21 0 boost::exception_detail::set_info<boost::exception_detail::clone_impl<boost::exception_detail::bad_alloc_> >
FUNC 14d71 21 0 boost::exception_detail::set_info<boost::exception_detail::clone_impl<boost::exception_detail::bad_alloc_> >
FUNC 14d92 1f 0 boost::exception_detail::set_info<boost::exception_detail::clone_impl<boost::exception_detail::bad_alloc_> >
FUNC 14db2 a0 0 boost::detail::shared_count::shared_count<boost::exception_detail::clone_impl<boost::exception_detail::bad_alloc_> >
FUNC 14e52 21 0 boost::exception_detail::set_info<boost::exception_detail::clone_impl<boost::exception_detail::bad_exception_> >
FUNC 14e73 21 0 boost::exception_detail::set_info<boost::exception_detail::clone_impl<boost::exception_detail::bad_exception_> >
FUNC 14e94 1f 0 boost::exception_detail::set_info<boost::exception_detail::clone_impl<boost::exception_detail::bad_exception_> >
FUNC 14eb4 a0 0 boost::detail::shared_count::shared_count<boost::exception_detail::clone_impl<boost::exception_detail::bad_exception_> >
FUNC 14f54 3c 0 boost::detail::sp_counted_impl_p<boost::exception_detail::clone_impl<boost::exception_detail::bad_alloc_> >::sp_counted_impl_p
FUNC 14f90 2c 0 boost::checked_delete<boost::exception_detail::clone_impl<boost::exception_detail::bad_alloc_> >
FUNC 14fbc 3c 0 boost::detail::sp_counted_impl_p<boost::exception_detail::clone_impl<boost::exception_detail::bad_exception_> >::sp_counted_impl_p
FUNC 14ff8 2c 0 boost::checked_delete<boost::exception_detail::clone_impl<boost::exception_detail::bad_exception_> >
FUNC 15024 41 0 boost::detail::sp_counted_impl_p<boost::exception_detail::clone_impl<boost::exception_detail::bad_exception_> >::~sp_counted_impl_p
FUNC 15066 26 0 boost::detail::sp_counted_impl_p<boost::exception_detail::clone_impl<boost::exception_detail::bad_exception_> >::~sp_counted_impl_p
FUNC 1508c 41 0 boost::detail::sp_counted_impl_p<boost::exception_detail::clone_impl<boost::exception_detail::bad_alloc_> >::~sp_counted_impl_p
FUNC 150ce 26 0 boost::detail::sp_counted_impl_p<boost::exception_detail::clone_impl<boost::exception_detail::bad_alloc_> >::~sp_counted_impl_p
FUNC 150f4 1e 0 boost::detail::sp_counted_impl_p<boost::exception_detail::clone_impl<boost::exception_detail::bad_exception_> >::dispose
FUNC 15112 13 0 boost::detail::sp_counted_impl_p<boost::exception_detail::clone_impl<boost::exception_detail::bad_exception_> >::get_deleter
FUNC 15126 1e 0 boost::detail::sp_counted_impl_p<boost::exception_detail::clone_impl<boost::exception_detail::bad_alloc_> >::dispose
FUNC 15144 13 0 boost::detail::sp_counted_impl_p<boost::exception_detail::clone_impl<boost::exception_detail::bad_alloc_> >::get_deleter
FUNC 1515e 6c 0 boost::exception_detail::clone_impl<boost::exception_detail::bad_exception_>::clone
FUNC 151d0 5d 0 boost::exception_detail::clone_impl<boost::exception_detail::bad_exception_>::rethrow
FUNC 15234 6c 0 boost::exception_detail::clone_impl<boost::exception_detail::bad_alloc_>::clone
FUNC 152a6 5d 0 boost::exception_detail::clone_impl<boost::exception_detail::bad_alloc_>::rethrow
FUNC 15304 570 0 Config::Config
FUNC 15874 74 0 Config::GetInstance
FUNC 158e8 2a3 0 Config::~Config
FUNC 15b8c 26 0 Config::~Config
FUNC 15bb2 cbf 0 Config::Init
FUNC 16872 27 0 Config::IsSpace
FUNC 1689a 24 0 Config::IsCommentChar
FUNC 168be 173 0 Config::Trim
FUNC 16a32 21d 0 Config::AnalyseLine
FUNC 16c50 238 0 Config::ReadConfig
FUNC 16e88 ad 0 Config::GetStrValueByKey
FUNC 16f36 d03 0 Config::InitMysqlParams
FUNC 17c3a 134 0 Config::Split
FUNC 17d6e 48 0 __static_initialization_and_destruction_0
FUNC 17db6 15 0 _GLOBAL__I_Config.cpp
FUNC 17dcb 12 0 operator new
FUNC 17ddd e 0 operator delete
FUNC 17deb 14 0 std::operator|
FUNC 17e00 1a 0 std::map<std::basic_string<char, std::char_traits<char>, std::allocator<char> >, std::basic_string<char, std::char_traits<char>, std::allocator<char> >, std::less<std::basic_string<char, std::char_traits<char>, std::allocator<char> > >, std::allocator<std::pair<const std::basic_string<char, std::char_traits<char>, std::allocator<char> >, std::basic_string<char, std::char_traits<char>, std::allocator<char> > > > >::~map
FUNC 17e1a 1a 0 std::map<std::basic_string<char, std::char_traits<char>, std::allocator<char> >, std::basic_string<char, std::char_traits<char>, std::allocator<char> >, std::less<std::basic_string<char, std::char_traits<char>, std::allocator<char> > >, std::allocator<std::pair<const std::basic_string<char, std::char_traits<char>, std::allocator<char> >, std::basic_string<char, std::char_traits<char>, std::allocator<char> > > > >::map
FUNC 17e34 1a 0 std::_Rb_tree<std::basic_string<char, std::char_traits<char>, std::allocator<char> >, std::pair<const std::basic_string<char, std::char_traits<char>, std::allocator<char> >, std::basic_string<char, std::char_traits<char>, std::allocator<char> > >, std::_Select1st<std::pair<const std::basic_string<char, std::char_traits<char>, std::allocator<char> >, std::basic_string<char, std::char_traits<char>, std::allocator<char> > > >, std::less<std::basic_string<char, std::char_traits<char>, std::allocator<char> > >, std::allocator<std::pair<const std::basic_string<char, std::char_traits<char>, std::allocator<char> >, std::basic_string<char, std::char_traits<char>, std::allocator<char> > > > >::_Rb_tree_impl<std::less<std::basic_string<char, std::char_traits<char>, std::allocator<char> > >, false>::~_Rb_tree_impl
FUNC 17e4e 63 0 std::_Rb_tree<std::basic_string<char, std::char_traits<char>, std::allocator<char> >, std::pair<const std::basic_string<char, std::char_traits<char>, std::allocator<char> >, std::basic_string<char, std::char_traits<char>, std::allocator<char> > >, std::_Select1st<std::pair<const std::basic_string<char, std::char_traits<char>, std::allocator<char> >, std::basic_string<char, std::char_traits<char>, std::allocator<char> > > >, std::less<std::basic_string<char, std::char_traits<char>, std::allocator<char> > >, std::allocator<std::pair<const std::basic_string<char, std::char_traits<char>, std::allocator<char> >, std::basic_string<char, std::char_traits<char>, std::allocator<char> > > > >::~_Rb_tree
FUNC 17eb2 1a 0 std::vector<short unsigned int, std::allocator<short unsigned int> >::vector
FUNC 17ecc 6e 0 std::vector<short unsigned int, std::allocator<short unsigned int> >::~vector
FUNC 17f3a 1a 0 std::vector<std::basic_string<char, std::char_traits<char>, std::allocator<char> >, std::allocator<std::basic_string<char, std::char_traits<char>, std::allocator<char> > > >::vector
FUNC 17f54 6e 0 std::vector<std::basic_string<char, std::char_traits<char>, std::allocator<char> >, std::allocator<std::basic_string<char, std::char_traits<char>, std::allocator<char> > > >::~vector
FUNC 17fc2 24 0 std::vector<short unsigned int, std::allocator<short unsigned int> >::clear
FUNC 17fe6 24 0 std::vector<std::basic_string<char, std::char_traits<char>, std::allocator<char> >, std::allocator<std::basic_string<char, std::char_traits<char>, std::allocator<char> > > >::clear
FUNC 1800a 16d 0 Config::GetValueByKey<int32_t>
FUNC 18178 16d 0 Config::GetValueByKey<uint16_t>
FUNC 182e6 1a 0 std::map<std::basic_string<char, std::char_traits<char>, std::allocator<char> >, std::basic_string<char, std::char_traits<char>, std::allocator<char> >, std::less<std::basic_string<char, std::char_traits<char>, std::allocator<char> > >, std::allocator<std::pair<const std::basic_string<char, std::char_traits<char>, std::allocator<char> >, std::basic_string<char, std::char_traits<char>, std::allocator<char> > > > >::clear
FUNC 18300 55 0 std::pair<const std::basic_string<char, std::char_traits<char>, std::allocator<char> >, std::basic_string<char, std::char_traits<char>, std::allocator<char> > >::~pair
FUNC 18356 146 0 std::map<std::basic_string<char, std::char_traits<char>, std::allocator<char> >, std::basic_string<char, std::char_traits<char>, std::allocator<char> >, std::less<std::basic_string<char, std::char_traits<char>, std::allocator<char> > >, std::allocator<std::pair<const std::basic_string<char, std::char_traits<char>, std::allocator<char> >, std::basic_string<char, std::char_traits<char>, std::allocator<char> > > > >::operator[]
FUNC 1849c 25 0 std::map<std::basic_string<char, std::char_traits<char>, std::allocator<char> >, std::basic_string<char, std::char_traits<char>, std::allocator<char> >, std::less<std::basic_string<char, std::char_traits<char>, std::allocator<char> > >, std::allocator<std::pair<const std::basic_string<char, std::char_traits<char>, std::allocator<char> >, std::basic_string<char, std::char_traits<char>, std::allocator<char> > > > >::find
FUNC 184c2 1c 0 std::_Rb_tree_const_iterator<std::pair<const std::basic_string<char, std::char_traits<char>, std::allocator<char> >, std::basic_string<char, std::char_traits<char>, std::allocator<char> > > >::_Rb_tree_const_iterator
FUNC 184de 1a 0 std::map<std::basic_string<char, std::char_traits<char>, std::allocator<char> >, std::basic_string<char, std::char_traits<char>, std::allocator<char> >, std::less<std::basic_string<char, std::char_traits<char>, std::allocator<char> > >, std::allocator<std::pair<const std::basic_string<char, std::char_traits<char>, std::allocator<char> >, std::basic_string<char, std::char_traits<char>, std::allocator<char> > > > >::end
FUNC 184f8 22 0 std::_Rb_tree_const_iterator<std::pair<const std::basic_string<char, std::char_traits<char>, std::allocator<char> >, std::basic_string<char, std::char_traits<char>, std::allocator<char> > > >::operator!=
FUNC 1851a 15 0 std::_Rb_tree_const_iterator<std::pair<const std::basic_string<char, std::char_traits<char>, std::allocator<char> >, std::basic_string<char, std::char_traits<char>, std::allocator<char> > > >::operator->
FUNC 18530 20 0 std::vector<std::basic_string<char, std::char_traits<char>, std::allocator<char> >, std::allocator<std::basic_string<char, std::char_traits<char>, std::allocator<char> > > >::operator[]
FUNC 18550 f3 0 Config::String2Int<uint16_t>
FUNC 18644 25 0 std::vector<std::basic_string<char, std::char_traits<char>, std::allocator<char> >, std::allocator<std::basic_string<char, std::char_traits<char>, std::allocator<char> > > >::begin
FUNC 1866a 28 0 __gnu_cxx::__normal_iterator<const std::basic_string<char, std::char_traits<char>, std::allocator<char> >*, std::vector<std::basic_string<char, std::char_traits<char>, std::allocator<char> >, std::allocator<std::basic_string<char, std::char_traits<char>, std::allocator<char> > > > >::__normal_iterator<std::basic_string<char, std::char_traits<char>, std::allocator<char> >*>
FUNC 18692 29 0 std::vector<std::basic_string<char, std::char_traits<char>, std::allocator<char> >, std::allocator<std::basic_string<char, std::char_traits<char>, std::allocator<char> > > >::end
FUNC 186bb 3c 0 __gnu_cxx::operator!=<const std::basic_string<char, std::char_traits<char>, std::allocator<char> >*, std::basic_string<char, std::char_traits<char>, std::allocator<char> >*, std::vector<std::basic_string<char, std::char_traits<char>, std::allocator<char> >, std::allocator<std::basic_string<char, std::char_traits<char>, std::allocator<char> > > > >
FUNC 186f8 20 0 __gnu_cxx::__normal_iterator<const std::basic_string<char, std::char_traits<char>, std::allocator<char> >*, std::vector<std::basic_string<char, std::char_traits<char>, std::allocator<char> >, std::allocator<std::basic_string<char, std::char_traits<char>, std::allocator<char> > > > >::operator++
FUNC 18718 11 0 __gnu_cxx::__normal_iterator<const std::basic_string<char, std::char_traits<char>, std::allocator<char> >*, std::vector<std::basic_string<char, std::char_traits<char>, std::allocator<char> >, std::allocator<std::basic_string<char, std::char_traits<char>, std::allocator<char> > > > >::operator*
FUNC 1872a 7a 0 std::vector<short unsigned int, std::allocator<short unsigned int> >::push_back
FUNC 187a4 41 0 std::vector<short unsigned int, std::allocator<short unsigned int> >::empty
FUNC 187e6 1f 0 std::vector<short unsigned int, std::allocator<short unsigned int> >::operator[]
FUNC 18806 f3 0 Config::String2Int<int32_t>
FUNC 188fa 242 0 std::vector<std::basic_string<char, std::char_traits<char>, std::allocator<char> >, std::allocator<std::basic_string<char, std::char_traits<char>, std::allocator<char> > > >::operator=
FUNC 18b3c 29 0 std::vector<std::basic_string<char, std::char_traits<char>, std::allocator<char> >, std::allocator<std::basic_string<char, std::char_traits<char>, std::allocator<char> > > >::size
FUNC 18b66 7a 0 std::vector<std::basic_string<char, std::char_traits<char>, std::allocator<char> >, std::allocator<std::basic_string<char, std::char_traits<char>, std::allocator<char> > > >::push_back
FUNC 18be0 1a 0 std::_Rb_tree<std::basic_string<char, std::char_traits<char>, std::allocator<char> >, std::pair<const std::basic_string<char, std::char_traits<char>, std::allocator<char> >, std::basic_string<char, std::char_traits<char>, std::allocator<char> > >, std::_Select1st<std::pair<const std::basic_string<char, std::char_traits<char>, std::allocator<char> >, std::basic_string<char, std::char_traits<char>, std::allocator<char> > > >, std::less<std::basic_string<char, std::char_traits<char>, std::allocator<char> > >, std::allocator<std::pair<const std::basic_string<char, std::char_traits<char>, std::allocator<char> >, std::basic_string<char, std::char_traits<char>, std::allocator<char> > > > >::_Rb_tree
FUNC 18bfa 1a 0 std::allocator<std::_Rb_tree_node<std::pair<const std::basic_string<char, std::char_traits<char>, std::allocator<char> >, std::basic_string<char, std::char_traits<char>, std::allocator<char> > > > >::~allocator
FUNC 18c14 69 0 std::_Rb_tree<std::basic_string<char, std::char_traits<char>, std::allocator<char> >, std::pair<const std::basic_string<char, std::char_traits<char>, std::allocator<char> >, std::basic_string<char, std::char_traits<char>, std::allocator<char> > >, std::_Select1st<std::pair<const std::basic_string<char, std::char_traits<char>, std::allocator<char> >, std::basic_string<char, std::char_traits<char>, std::allocator<char> > > >, std::less<std::basic_string<char, std::char_traits<char>, std::allocator<char> > >, std::allocator<std::pair<const std::basic_string<char, std::char_traits<char>, std::allocator<char> >, std::basic_string<char, std::char_traits<char>, std::allocator<char> > > > >::_M_erase
FUNC 18c7e 12 0 std::_Rb_tree<std::basic_string<char, std::char_traits<char>, std::allocator<char> >, std::pair<const std::basic_string<char, std::char_traits<char>, std::allocator<char> >, std::basic_string<char, std::char_traits<char>, std::allocator<char> > >, std::_Select1st<std::pair<const std::basic_string<char, std::char_traits<char>, std::allocator<char> >, std::basic_string<char, std::char_traits<char>, std::allocator<char> > > >, std::less<std::basic_string<char, std::char_traits<char>, std::allocator<char> > >, std::allocator<std::pair<const std::basic_string<char, std::char_traits<char>, std::allocator<char> >, std::basic_string<char, std::char_traits<char>, std::allocator<char> > > > >::_M_begin
FUNC 18c90 1a 0 std::_Vector_base<short unsigned int, std::allocator<short unsigned int> >::_Vector_impl::~_Vector_impl
FUNC 18caa 1a 0 std::_Vector_base<short unsigned int, std::allocator<short unsigned int> >::_Vector_base
FUNC 18cc4 7c 0 std::_Vector_base<short unsigned int, std::allocator<short unsigned int> >::~_Vector_base
FUNC 18d40 e 0 std::_Vector_base<short unsigned int, std::allocator<short unsigned int> >::_M_get_Tp_allocator
FUNC 18d4e 29 0 std::_Destroy<short unsigned int*, short unsigned int>
FUNC 18d78 1a 0 std::_Vector_base<std::basic_string<char, std::char_traits<char>, std::allocator<char> >, std::allocator<std::basic_string<char, std::char_traits<char>, std::allocator<char> > > >::_Vector_impl::~_Vector_impl
FUNC 18d92 1a 0 std::_Vector_base<std::basic_string<char, std::char_traits<char>, std::allocator<char> >, std::allocator<std::basic_string<char, std::char_traits<char>, std::allocator<char> > > >::_Vector_base
FUNC 18dac 7d 0 std::_Vector_base<std::basic_string<char, std::char_traits<char>, std::allocator<char> >, std::allocator<std::basic_string<char, std::char_traits<char>, std::allocator<char> > > >::~_Vector_base
FUNC 18e2a e 0 std::_Vector_base<std::basic_string<char, std::char_traits<char>, std::allocator<char> >, std::allocator<std::basic_string<char, std::char_traits<char>, std::allocator<char> > > >::_M_get_Tp_allocator
FUNC 18e38 29 0 std::_Destroy<std::basic_string<char, std::char_traits<char>, std::allocator<char> >*, std::basic_string<char, std::char_traits<char>, std::allocator<char> > >
FUNC 18e62 44 0 std::vector<short unsigned int, std::allocator<short unsigned int> >::_M_erase_at_end
FUNC 18ea6 44 0 std::vector<std::basic_string<char, std::char_traits<char>, std::allocator<char> >, std::allocator<std::basic_string<char, std::char_traits<char>, std::allocator<char> > > >::_M_erase_at_end
FUNC 18eea 8d 0 std::_Rb_tree<std::basic_string<char, std::char_traits<char>, std::allocator<char> >, std::pair<const std::basic_string<char, std::char_traits<char>, std::allocator<char> >, std::basic_string<char, std::char_traits<char>, std::allocator<char> > >, std::_Select1st<std::pair<const std::basic_string<char, std::char_traits<char>, std::allocator<char> >, std::basic_string<char, std::char_traits<char>, std::allocator<char> > > >, std::less<std::basic_string<char, std::char_traits<char>, std::allocator<char> > >, std::allocator<std::pair<const std::basic_string<char, std::char_traits<char>, std::allocator<char> >, std::basic_string<char, std::char_traits<char>, std::allocator<char> > > > >::clear
FUNC 18f78 25 0 std::map<std::basic_string<char, std::char_traits<char>, std::allocator<char> >, std::basic_string<char, std::char_traits<char>, std::allocator<char> >, std::less<std::basic_string<char, std::char_traits<char>, std::allocator<char> > >, std::allocator<std::pair<const std::basic_string<char, std::char_traits<char>, std::allocator<char> >, std::basic_string<char, std::char_traits<char>, std::allocator<char> > > > >::lower_bound
FUNC 18f9e 1a 0 std::map<std::basic_string<char, std::char_traits<char>, std::allocator<char> >, std::basic_string<char, std::char_traits<char>, std::allocator<char> >, std::less<std::basic_string<char, std::char_traits<char>, std::allocator<char> > >, std::allocator<std::pair<const std::basic_string<char, std::char_traits<char>, std::allocator<char> >, std::basic_string<char, std::char_traits<char>, std::allocator<char> > > > >::key_comp
FUNC 18fb8 15 0 std::_Rb_tree_iterator<std::pair<const std::basic_string<char, std::char_traits<char>, std::allocator<char> >, std::basic_string<char, std::char_traits<char>, std::allocator<char> > > >::operator*
FUNC 18fce 29 0 std::less<std::basic_string<char, std::char_traits<char>, std::allocator<char> > >::operator()
FUNC 18ff8 22 0 std::_Rb_tree_iterator<std::pair<const std::basic_string<char, std::char_traits<char>, std::allocator<char> >, std::basic_string<char, std::char_traits<char>, std::allocator<char> > > >::operator==
FUNC 1901a 6b 0 std::pair<const std::basic_string<char, std::char_traits<char>, std::allocator<char> >, std::basic_string<char, std::char_traits<char>, std::allocator<char> > >::pair
FUNC 19086 40 0 std::map<std::basic_string<char, std::char_traits<char>, std::allocator<char> >, std::basic_string<char, std::char_traits<char>, std::allocator<char> >, std::less<std::basic_string<char, std::char_traits<char>, std::allocator<char> > >, std::allocator<std::pair<const std::basic_string<char, std::char_traits<char>, std::allocator<char> >, std::basic_string<char, std::char_traits<char>, std::allocator<char> > > > >::insert
FUNC 190c6 b6 0 std::_Rb_tree<std::basic_string<char, std::char_traits<char>, std::allocator<char> >, std::pair<const std::basic_string<char, std::char_traits<char>, std::allocator<char> >, std::basic_string<char, std::char_traits<char>, std::allocator<char> > >, std::_Select1st<std::pair<const std::basic_string<char, std::char_traits<char>, std::allocator<char> >, std::basic_string<char, std::char_traits<char>, std::allocator<char> > > >, std::less<std::basic_string<char, std::char_traits<char>, std::allocator<char> > >, std::allocator<std::pair<const std::basic_string<char, std::char_traits<char>, std::allocator<char> >, std::basic_string<char, std::char_traits<char>, std::allocator<char> > > > >::find
FUNC 1917c 2c 0 std::_Rb_tree<std::basic_string<char, std::char_traits<char>, std::allocator<char> >, std::pair<const std::basic_string<char, std::char_traits<char>, std::allocator<char> >, std::basic_string<char, std::char_traits<char>, std::allocator<char> > >, std::_Select1st<std::pair<const std::basic_string<char, std::char_traits<char>, std::allocator<char> >, std::basic_string<char, std::char_traits<char>, std::allocator<char> > > >, std::less<std::basic_string<char, std::char_traits<char>, std::allocator<char> > >, std::allocator<std::pair<const std::basic_string<char, std::char_traits<char>, std::allocator<char> >, std::basic_string<char, std::char_traits<char>, std::allocator<char> > > > >::end
FUNC 191a8 1c 0 __gnu_cxx::__normal_iterator<std::basic_string<char, std::char_traits<char>, std::allocator<char> >*, std::vector<std::basic_string<char, std::char_traits<char>, std::allocator<char> >, std::allocator<std::basic_string<char, std::char_traits<char>, std::allocator<char> > > > >::__normal_iterator
FUNC 191c4 e 0 __gnu_cxx::__normal_iterator<std::basic_string<char, std::char_traits<char>, std::allocator<char> >*, std::vector<std::basic_string<char, std::char_traits<char>, std::allocator<char> >, std::allocator<std::basic_string<char, std::char_traits<char>, std::allocator<char> > > > >::base
FUNC 191d2 e 0 __gnu_cxx::__normal_iterator<const std::basic_string<char, std::char_traits<char>, std::allocator<char> >*, std::vector<std::basic_string<char, std::char_traits<char>, std::allocator<char> >, std::allocator<std::basic_string<char, std::char_traits<char>, std::allocator<char> > > > >::base
FUNC 191e0 39 0 __gnu_cxx::new_allocator<short unsigned int>::construct
FUNC 1921a 2e5 0 std::vector<short unsigned int, std::allocator<short unsigned int> >::_M_insert_aux
FUNC 19500 29 0 std::vector<short unsigned int, std::allocator<short unsigned int> >::end
FUNC 1952a 31 0 std::vector<short unsigned int, std::allocator<short unsigned int> >::end
FUNC 1955c 30 0 std::vector<short unsigned int, std::allocator<short unsigned int> >::begin
FUNC 1958c 3c 0 __gnu_cxx::operator==<const short unsigned int*, std::vector<short unsigned int, std::allocator<short unsigned int> > >
FUNC 195c8 29 0 std::vector<std::basic_string<char, std::char_traits<char>, std::allocator<char> >, std::allocator<std::basic_string<char, std::char_traits<char>, std::allocator<char> > > >::capacity
FUNC 195f2 30 0 std::vector<std::basic_string<char, std::char_traits<char>, std::allocator<char> >, std::allocator<std::basic_string<char, std::char_traits<char>, std::allocator<char> > > >::begin
FUNC 19622 31 0 std::vector<std::basic_string<char, std::char_traits<char>, std::allocator<char> >, std::allocator<std::basic_string<char, std::char_traits<char>, std::allocator<char> > > >::end
FUNC 19654 a1 0 std::vector<std::basic_string<char, std::char_traits<char>, std::allocator<char> >, std::allocator<std::basic_string<char, std::char_traits<char>, std::allocator<char> > > >::_M_allocate_and_copy<__gnu_cxx::__normal_iterator<const std::basic_string<char, std::char_traits<char>, std::allocator<char> >*, std::vector<std::basic_string<char, std::char_traits<char>, std::allocator<char> >, std::allocator<std::basic_string<char, std::char_traits<char>, std::allocator<char> > > > > >
FUNC 196f6 34 0 std::_Vector_base<std::basic_string<char, std::char_traits<char>, std::allocator<char> >, std::allocator<std::basic_string<char, std::char_traits<char>, std::allocator<char> > > >::_M_deallocate
FUNC 1972a 46 0 std::copy<__gnu_cxx::__normal_iterator<const std::basic_string<char, std::char_traits<char>, std::allocator<char> >*, std::vector<std::basic_string<char, std::char_traits<char>, std::allocator<char> >, std::allocator<std::basic_string<char, std::char_traits<char>, std::allocator<char> > > > >, __gnu_cxx::__normal_iterator<std::basic_string<char, std::char_traits<char>, std::allocator<char> >*, std::vector<std::basic_string<char, std::char_traits<char>, std::allocator<char> >, std::allocator<std::basic_string<char, std::char_traits<char>, std::allocator<char> > > > > >
FUNC 19770 29 0 std::_Destroy<__gnu_cxx::__normal_iterator<std::basic_string<char, std::char_traits<char>, std::allocator<char> >*, std::vector<std::basic_string<char, std::char_traits<char>, std::allocator<char> >, std::allocator<std::basic_string<char, std::char_traits<char>, std::allocator<char> > > > >, std::basic_string<char, std::char_traits<char>, std::allocator<char> > >
FUNC 19799 46 0 std::copy<std::basic_string<char, std::char_traits<char>, std::allocator<char> >*, std::basic_string<char, std::char_traits<char>, std::allocator<char> >*>
FUNC 197df 31 0 std::__uninitialized_copy_a<std::basic_string<char, std::char_traits<char>, std::allocator<char> >*, std::basic_string<char, std::char_traits<char>, std::allocator<char> >*, std::basic_string<char, std::char_traits<char>, std::allocator<char> > >
FUNC 19810 77 0 __gnu_cxx::new_allocator<std::basic_string<char, std::char_traits<char>, std::allocator<char> > >::construct
FUNC 19888 326 0 std::vector<std::basic_string<char, std::char_traits<char>, std::allocator<char> >, std::allocator<std::basic_string<char, std::char_traits<char>, std::allocator<char> > > >::_M_insert_aux
FUNC 19bae e 0 std::_Vector_base<std::basic_string<char, std::char_traits<char>, std::allocator<char> >, std::allocator<std::basic_string<char, std::char_traits<char>, std::allocator<char> > > >::_M_get_Tp_allocator
FUNC 19bbc 31 0 std::__uninitialized_copy_a<__gnu_cxx::__normal_iterator<const std::basic_string<char, std::char_traits<char>, std::allocator<char> >*, std::vector<std::basic_string<char, std::char_traits<char>, std::allocator<char> >, std::allocator<std::basic_string<char, std::char_traits<char>, std::allocator<char> > > > >, std::basic_string<char, std::char_traits<char>, std::allocator<char> >*, std::basic_string<char, std::char_traits<char>, std::allocator<char> > >
FUNC 19bee 12 0 std::_Rb_tree<std::basic_string<char, std::char_traits<char>, std::allocator<char> >, std::pair<const std::basic_string<char, std::char_traits<char>, std::allocator<char> >, std::basic_string<char, std::char_traits<char>, std::allocator<char> > >, std::_Select1st<std::pair<const std::basic_string<char, std::char_traits<char>, std::allocator<char> >, std::basic_string<char, std::char_traits<char>, std::allocator<char> > > >, std::less<std::basic_string<char, std::char_traits<char>, std::allocator<char> > >, std::allocator<std::pair<const std::basic_string<char, std::char_traits<char>, std::allocator<char> >, std::basic_string<char, std::char_traits<char>, std::allocator<char> > > > >::_M_end
FUNC 19c00 12 0 std::_Rb_tree<std::basic_string<char, std::char_traits<char>, std::allocator<char> >, std::pair<const std::basic_string<char, std::char_traits<char>, std::allocator<char> >, std::basic_string<char, std::char_traits<char>, std::allocator<char> > >, std::_Select1st<std::pair<const std::basic_string<char, std::char_traits<char>, std::allocator<char> >, std::basic_string<char, std::char_traits<char>, std::allocator<char> > > >, std::less<std::basic_string<char, std::char_traits<char>, std::allocator<char> > >, std::allocator<std::pair<const std::basic_string<char, std::char_traits<char>, std::allocator<char> >, std::basic_string<char, std::char_traits<char>, std::allocator<char> > > > >::_M_root
FUNC 19c12 12 0 std::_Rb_tree<std::basic_string<char, std::char_traits<char>, std::allocator<char> >, std::pair<const std::basic_string<char, std::char_traits<char>, std::allocator<char> >, std::basic_string<char, std::char_traits<char>, std::allocator<char> > >, std::_Select1st<std::pair<const std::basic_string<char, std::char_traits<char>, std::allocator<char> >, std::basic_string<char, std::char_traits<char>, std::allocator<char> > > >, std::less<std::basic_string<char, std::char_traits<char>, std::allocator<char> > >, std::allocator<std::pair<const std::basic_string<char, std::char_traits<char>, std::allocator<char> >, std::basic_string<char, std::char_traits<char>, std::allocator<char> > > > >::_M_leftmost
FUNC 19c24 12 0 std::_Rb_tree<std::basic_string<char, std::char_traits<char>, std::allocator<char> >, std::pair<const std::basic_string<char, std::char_traits<char>, std::allocator<char> >, std::basic_string<char, std::char_traits<char>, std::allocator<char> > >, std::_Select1st<std::pair<const std::basic_string<char, std::char_traits<char>, std::allocator<char> >, std::basic_string<char, std::char_traits<char>, std::allocator<char> > > >, std::less<std::basic_string<char, std::char_traits<char>, std::allocator<char> > >, std::allocator<std::pair<const std::basic_string<char, std::char_traits<char>, std::allocator<char> >, std::basic_string<char, std::char_traits<char>, std::allocator<char> > > > >::_M_rightmost
FUNC 19c36 8c 0 std::_Rb_tree<std::basic_string<char, std::char_traits<char>, std::allocator<char> >, std::pair<const std::basic_string<char, std::char_traits<char>, std::allocator<char> >, std::basic_string<char, std::char_traits<char>, std::allocator<char> > >, std::_Select1st<std::pair<const std::basic_string<char, std::char_traits<char>, std::allocator<char> >, std::basic_string<char, std::char_traits<char>, std::allocator<char> > > >, std::less<std::basic_string<char, std::char_traits<char>, std::allocator<char> > >, std::allocator<std::pair<const std::basic_string<char, std::char_traits<char>, std::allocator<char> >, std::basic_string<char, std::char_traits<char>, std::allocator<char> > > > >::_Rb_tree_impl<std::less<std::basic_string<char, std::char_traits<char>, std::allocator<char> > >, false>::_Rb_tree_impl
FUNC 19cc2 a 0 __gnu_cxx::new_allocator<std::_Rb_tree_node<std::pair<const std::basic_string<char, std::char_traits<char>, std::allocator<char> >, std::basic_string<char, std::char_traits<char>, std::allocator<char> > > > >::~new_allocator
FUNC 19ccc 12 0 std::_Rb_tree<std::basic_string<char, std::char_traits<char>, std::allocator<char> >, std::pair<const std::basic_string<char, std::char_traits<char>, std::allocator<char> >, std::basic_string<char, std::char_traits<char>, std::allocator<char> > >, std::_Select1st<std::pair<const std::basic_string<char, std::char_traits<char>, std::allocator<char> >, std::basic_string<char, std::char_traits<char>, std::allocator<char> > > >, std::less<std::basic_string<char, std::char_traits<char>, std::allocator<char> > >, std::allocator<std::pair<const std::basic_string<char, std::char_traits<char>, std::allocator<char> >, std::basic_string<char, std::char_traits<char>, std::allocator<char> > > > >::_S_right
FUNC 19cde 12 0 std::_Rb_tree<std::basic_string<char, std::char_traits<char>, std::allocator<char> >, std::pair<const std::basic_string<char, std::char_traits<char>, std::allocator<char> >, std::basic_string<char, std::char_traits<char>, std::allocator<char> > >, std::_Select1st<std::pair<const std::basic_string<char, std::char_traits<char>, std::allocator<char> >, std::basic_string<char, std::char_traits<char>, std::allocator<char> > > >, std::less<std::basic_string<char, std::char_traits<char>, std::allocator<char> > >, std::allocator<std::pair<const std::basic_string<char, std::char_traits<char>, std::allocator<char> >, std::basic_string<char, std::char_traits<char>, std::allocator<char> > > > >::_S_left
FUNC 19cf0 86 0 std::_Rb_tree<std::basic_string<char, std::char_traits<char>, std::allocator<char> >, std::pair<const std::basic_string<char, std::char_traits<char>, std::allocator<char> >, std::basic_string<char, std::char_traits<char>, std::allocator<char> > >, std::_Select1st<std::pair<const std::basic_string<char, std::char_traits<char>, std::allocator<char> >, std::basic_string<char, std::char_traits<char>, std::allocator<char> > > >, std::less<std::basic_string<char, std::char_traits<char>, std::allocator<char> > >, std::allocator<std::pair<const std::basic_string<char, std::char_traits<char>, std::allocator<char> >, std::basic_string<char, std::char_traits<char>, std::allocator<char> > > > >::_M_destroy_node
FUNC 19d76 3d 0 std::_Vector_base<short unsigned int, std::allocator<short unsigned int> >::_Vector_impl::_Vector_impl
FUNC 19db4 1a 0 std::allocator<short unsigned int>::~allocator
FUNC 19dce 34 0 std::_Vector_base<short unsigned int, std::allocator<short unsigned int> >::_M_deallocate
FUNC 19e02 25 0 std::_Destroy<short unsigned int*>
FUNC 19e28 3d 0 std::_Vector_base<std::basic_string<char, std::char_traits<char>, std::allocator<char> >, std::allocator<std::basic_string<char, std::char_traits<char>, std::allocator<char> > > >::_Vector_impl::_Vector_impl
FUNC 19e66 1a 0 std::allocator<std::basic_string<char, std::char_traits<char>, std::allocator<char> > >::~allocator
FUNC 19e80 25 0 std::_Destroy<std::basic_string<char, std::char_traits<char>, std::allocator<char> >*>
FUNC 19ea6 53 0 std::_Rb_tree<std::basic_string<char, std::char_traits<char>, std::allocator<char> >, std::pair<const std::basic_string<char, std::char_traits<char>, std::allocator<char> >, std::basic_string<char, std::char_traits<char>, std::allocator<char> > >, std::_Select1st<std::pair<const std::basic_string<char, std::char_traits<char>, std::allocator<char> >, std::basic_string<char, std::char_traits<char>, std::allocator<char> > > >, std::less<std::basic_string<char, std::char_traits<char>, std::allocator<char> > >, std::allocator<std::pair<const std::basic_string<char, std::char_traits<char>, std::allocator<char> >, std::basic_string<char, std::char_traits<char>, std::allocator<char> > > > >::lower_bound
FUNC 19efa a 0 std::_Rb_tree<std::basic_string<char, std::char_traits<char>, std::allocator<char> >, std::pair<const std::basic_string<char, std::char_traits<char>, std::allocator<char> >, std::basic_string<char, std::char_traits<char>, std::allocator<char> > >, std::_Select1st<std::pair<const std::basic_string<char, std::char_traits<char>, std::allocator<char> >, std::basic_string<char, std::char_traits<char>, std::allocator<char> > > >, std::less<std::basic_string<char, std::char_traits<char>, std::allocator<char> > >, std::allocator<std::pair<const std::basic_string<char, std::char_traits<char>, std::allocator<char> >, std::basic_string<char, std::char_traits<char>, std::allocator<char> > > > >::key_comp
FUNC 19f04 28 0 std::operator< <char, std::char_traits<char>, std::allocator<char> >
FUNC 19f2c 4c0 0 std::_Rb_tree<std::basic_string<char, std::char_traits<char>, std::allocator<char> >, std::pair<const std::basic_string<char, std::char_traits<char>, std::allocator<char> >, std::basic_string<char, std::char_traits<char>, std::allocator<char> > >, std::_Select1st<std::pair<const std::basic_string<char, std::char_traits<char>, std::allocator<char> >, std::basic_string<char, std::char_traits<char>, std::allocator<char> > > >, std::less<std::basic_string<char, std::char_traits<char>, std::allocator<char> > >, std::allocator<std::pair<const std::basic_string<char, std::char_traits<char>, std::allocator<char> >, std::basic_string<char, std::char_traits<char>, std::allocator<char> > > > >::_M_insert_unique_
FUNC 1a3ec 92 0 std::_Rb_tree<std::basic_string<char, std::char_traits<char>, std::allocator<char> >, std::pair<const std::basic_string<char, std::char_traits<char>, std::allocator<char> >, std::basic_string<char, std::char_traits<char>, std::allocator<char> > >, std::_Select1st<std::pair<const std::basic_string<char, std::char_traits<char>, std::allocator<char> >, std::basic_string<char, std::char_traits<char>, std::allocator<char> > > >, std::less<std::basic_string<char, std::char_traits<char>, std::allocator<char> > >, std::allocator<std::pair<const std::basic_string<char, std::char_traits<char>, std::allocator<char> >, std::basic_string<char, std::char_traits<char>, std::allocator<char> > > > >::_M_lower_bound
FUNC 1a47e 2c 0 std::_Rb_tree<std::basic_string<char, std::char_traits<char>, std::allocator<char> >, std::pair<const std::basic_string<char, std::char_traits<char>, std::allocator<char> >, std::basic_string<char, std::char_traits<char>, std::allocator<char> > >, std::_Select1st<std::pair<const std::basic_string<char, std::char_traits<char>, std::allocator<char> >, std::basic_string<char, std::char_traits<char>, std::allocator<char> > > >, std::less<std::basic_string<char, std::char_traits<char>, std::allocator<char> > >, std::allocator<std::pair<const std::basic_string<char, std::char_traits<char>, std::allocator<char> >, std::basic_string<char, std::char_traits<char>, std::allocator<char> > > > >::_S_key
FUNC 1a4aa 19 0 std::_Rb_tree_iterator<std::pair<const std::basic_string<char, std::char_traits<char>, std::allocator<char> >, std::basic_string<char, std::char_traits<char>, std::allocator<char> > > >::_Rb_tree_iterator
FUNC 1a4c4 e 0 __gnu_cxx::__normal_iterator<short unsigned int*, std::vector<short unsigned int, std::allocator<short unsigned int> > >::base
FUNC 1a4d2 46 0 std::copy_backward<short unsigned int*, short unsigned int*>
FUNC 1a518 11 0 __gnu_cxx::__normal_iterator<short unsigned int*, std::vector<short unsigned int, std::allocator<short unsigned int> > >::operator*
FUNC 1a52a ca 0 std::vector<short unsigned int, std::allocator<short unsigned int> >::_M_check_len
FUNC 1a5f4 25 0 std::vector<short unsigned int, std::allocator<short unsigned int> >::begin
FUNC 1a619 45 0 __gnu_cxx::operator-<short unsigned int*, std::vector<short unsigned int, std::allocator<short unsigned int> > >
FUNC 1a65e 38 0 std::_Vector_base<short unsigned int, std::allocator<short unsigned int> >::_M_allocate
FUNC 1a696 3b 0 std::__uninitialized_move_a<short unsigned int*, short unsigned int*, std::allocator<short unsigned int> >
FUNC 1a6d2 e 0 __gnu_cxx::new_allocator<short unsigned int>::destroy
FUNC 1a6e0 1c 0 __gnu_cxx::__normal_iterator<short unsigned int*, std::vector<short unsigned int, std::allocator<short unsigned int> > >::__normal_iterator
FUNC 1a6fc 1c 0 __gnu_cxx::__normal_iterator<const short unsigned int*, std::vector<short unsigned int, std::allocator<short unsigned int> > >::__normal_iterator
FUNC 1a718 e 0 __gnu_cxx::__normal_iterator<const short unsigned int*, std::vector<short unsigned int, std::allocator<short unsigned int> > >::base
FUNC 1a726 1c 0 __gnu_cxx::__normal_iterator<const std::basic_string<char, std::char_traits<char>, std::allocator<char> >*, std::vector<std::basic_string<char, std::char_traits<char>, std::allocator<char> >, std::allocator<std::basic_string<char, std::char_traits<char>, std::allocator<char> > > > >::__normal_iterator
FUNC 1a742 38 0 std::_Vector_base<std::basic_string<char, std::char_traits<char>, std::allocator<char> >, std::allocator<std::basic_string<char, std::char_traits<char>, std::allocator<char> > > >::_M_allocate
FUNC 1a77a 22 0 __gnu_cxx::new_allocator<std::basic_string<char, std::char_traits<char>, std::allocator<char> > >::deallocate
FUNC 1a79c e 0 std::__miter_base<__gnu_cxx::__normal_iterator<const std::basic_string<char, std::char_traits<char>, std::allocator<char> >*, std::vector<std::basic_string<char, std::char_traits<char>, std::allocator<char> >, std::allocator<std::basic_string<char, std::char_traits<char>, std::allocator<char> > > > >, false>::__b
FUNC 1a7aa 73 0 std::__copy_move_a2<false, __gnu_cxx::__normal_iterator<const std::basic_string<char, std::char_traits<char>, std::allocator<char> >*, std::vector<std::basic_string<char, std::char_traits<char>, std::allocator<char> >, std::allocator<std::basic_string<char, std::char_traits<char>, std::allocator<char> > > > >, __gnu_cxx::__normal_iterator<std::basic_string<char, std::char_traits<char>, std::allocator<char> >*, std::vector<std::basic_string<char, std::char_traits<char>, std::allocator<char> >, std::allocator<std::basic_string<char, std::char_traits<char>, std::allocator<char> > > > > >
FUNC 1a81d 25 0 std::_Destroy<__gnu_cxx::__normal_iterator<std::basic_string<char, std::char_traits<char>, std::allocator<char> >*, std::vector<std::basic_string<char, std::char_traits<char>, std::allocator<char> >, std::allocator<std::basic_string<char, std::char_traits<char>, std::allocator<char> > > > > >
FUNC 1a842 e 0 std::__miter_base<std::basic_string<char, std::char_traits<char>, std::allocator<char> >*, false>::__b
FUNC 1a850 58 0 std::__copy_move_a2<false, std::basic_string<char, std::char_traits<char>, std::allocator<char> >*, std::basic_string<char, std::char_traits<char>, std::allocator<char> >*>
FUNC 1a8a8 2d 0 std::uninitialized_copy<std::basic_string<char, std::char_traits<char>, std::allocator<char> >*, std::basic_string<char, std::char_traits<char>, std::allocator<char> >*>
FUNC 1a8d5 46 0 std::copy_backward<std::basic_string<char, std::char_traits<char>, std::allocator<char> >*, std::basic_string<char, std::char_traits<char>, std::allocator<char> >*>
FUNC 1a91c 11 0 __gnu_cxx::__normal_iterator<std::basic_string<char, std::char_traits<char>, std::allocator<char> >*, std::vector<std::basic_string<char, std::char_traits<char>, std::allocator<char> >, std::allocator<std::basic_string<char, std::char_traits<char>, std::allocator<char> > > > >::operator*
FUNC 1a92e ca 0 std::vector<std::basic_string<char, std::char_traits<char>, std::allocator<char> >, std::allocator<std::basic_string<char, std::char_traits<char>, std::allocator<char> > > >::_M_check_len
FUNC 1a9f8 46 0 __gnu_cxx::operator-<std::basic_string<char, std::char_traits<char>, std::allocator<char> >*, std::vector<std::basic_string<char, std::char_traits<char>, std::allocator<char> >, std::allocator<std::basic_string<char, std::char_traits<char>, std::allocator<char> > > > >
FUNC 1aa3e 3b 0 std::__uninitialized_move_a<std::basic_string<char, std::char_traits<char>, std::allocator<char> >*, std::basic_string<char, std::char_traits<char>, std::allocator<char> >*, std::allocator<std::basic_string<char, std::char_traits<char>, std::allocator<char> > > >
FUNC 1aa7a 1e 0 __gnu_cxx::new_allocator<std::basic_string<char, std::char_traits<char>, std::allocator<char> > >::destroy
FUNC 1aa98 2d 0 std::uninitialized_copy<__gnu_cxx::__normal_iterator<const std::basic_string<char, std::char_traits<char>, std::allocator<char> >*, std::vector<std::basic_string<char, std::char_traits<char>, std::allocator<char> >, std::allocator<std::basic_string<char, std::char_traits<char>, std::allocator<char> > > > >, std::basic_string<char, std::char_traits<char>, std::allocator<char> >*>
FUNC 1aac5 12 0 std::_Rb_tree<std::basic_string<char, std::char_traits<char>, std::allocator<char> >, std::pair<const std::basic_string<char, std::char_traits<char>, std::allocator<char> >, std::basic_string<char, std::char_traits<char>, std::allocator<char> > >, std::_Select1st<std::pair<const std::basic_string<char, std::char_traits<char>, std::allocator<char> >, std::basic_string<char, std::char_traits<char>, std::allocator<char> > > >, std::less<std::basic_string<char, std::char_traits<char>, std::allocator<char> > >, std::allocator<std::pair<const std::basic_string<char, std::char_traits<char>, std::allocator<char> >, std::basic_string<char, std::char_traits<char>, std::allocator<char> > > > >::_S_right
FUNC 1aad8 1a 0 std::allocator<std::_Rb_tree_node<std::pair<const std::basic_string<char, std::char_traits<char>, std::allocator<char> >, std::basic_string<char, std::char_traits<char>, std::allocator<char> > > > >::allocator
FUNC 1aaf2 41 0 std::_Rb_tree<std::basic_string<char, std::char_traits<char>, std::allocator<char> >, std::pair<const std::basic_string<char, std::char_traits<char>, std::allocator<char> >, std::basic_string<char, std::char_traits<char>, std::allocator<char> > >, std::_Select1st<std::pair<const std::basic_string<char, std::char_traits<char>, std::allocator<char> >, std::basic_string<char, std::char_traits<char>, std::allocator<char> > > >, std::less<std::basic_string<char, std::char_traits<char>, std::allocator<char> > >, std::allocator<std::pair<const std::basic_string<char, std::char_traits<char>, std::allocator<char> >, std::basic_string<char, std::char_traits<char>, std::allocator<char> > > > >::_Rb_tree_impl<std::less<std::basic_string<char, std::char_traits<char>, std::allocator<char> > >, false>::_M_initialize
FUNC 1ab34 3b 0 std::_Rb_tree<std::basic_string<char, std::char_traits<char>, std::allocator<char> >, std::pair<const std::basic_string<char, std::char_traits<char>, std::allocator<char> >, std::basic_string<char, std::char_traits<char>, std::allocator<char> > >, std::_Select1st<std::pair<const std::basic_string<char, std::char_traits<char>, std::allocator<char> >, std::basic_string<char, std::char_traits<char>, std::allocator<char> > > >, std::less<std::basic_string<char, std::char_traits<char>, std::allocator<char> > >, std::allocator<std::pair<const std::basic_string<char, std::char_traits<char>, std::allocator<char> >, std::basic_string<char, std::char_traits<char>, std::allocator<char> > > > >::get_allocator
FUNC 1ab70 1a 0 std::allocator<std::pair<const std::basic_string<char, std::char_traits<char>, std::allocator<char> >, std::basic_string<char, std::char_traits<char>, std::allocator<char> > > >::~allocator
FUNC 1ab8a 1e 0 __gnu_cxx::new_allocator<std::pair<const std::basic_string<char, std::char_traits<char>, std::allocator<char> >, std::basic_string<char, std::char_traits<char>, std::allocator<char> > > >::destroy
FUNC 1aba8 2a 0 std::_Rb_tree<std::basic_string<char, std::char_traits<char>, std::allocator<char> >, std::pair<const std::basic_string<char, std::char_traits<char>, std::allocator<char> >, std::basic_string<char, std::char_traits<char>, std::allocator<char> > >, std::_Select1st<std::pair<const std::basic_string<char, std::char_traits<char>, std::allocator<char> >, std::basic_string<char, std::char_traits<char>, std::allocator<char> > > >, std::less<std::basic_string<char, std::char_traits<char>, std::allocator<char> > >, std::allocator<std::pair<const std::basic_string<char, std::char_traits<char>, std::allocator<char> >, std::basic_string<char, std::char_traits<char>, std::allocator<char> > > > >::_M_put_node
FUNC 1abd2 1a 0 std::allocator<short unsigned int>::allocator
FUNC 1abec a 0 __gnu_cxx::new_allocator<short unsigned int>::~new_allocator
FUNC 1abf6 22 0 __gnu_cxx::new_allocator<short unsigned int>::deallocate
FUNC 1ac18 e 0 std::_Destroy_aux<true>::__destroy<short unsigned int*>
FUNC 1ac26 1a 0 std::allocator<std::basic_string<char, std::char_traits<char>, std::allocator<char> > >::allocator
FUNC 1ac40 a 0 __gnu_cxx::new_allocator<std::basic_string<char, std::char_traits<char>, std::allocator<char> > >::~new_allocator
FUNC 1ac4a 34 0 std::_Destroy_aux<false>::__destroy<std::basic_string<char, std::char_traits<char>, std::allocator<char> >*>
FUNC 1ac7e 12 0 std::_Select1st<std::pair<const std::basic_string<char, std::char_traits<char>, std::allocator<char> >, std::basic_string<char, std::char_traits<char>, std::allocator<char> > > >::operator()
FUNC 1ac90 12 0 std::_Rb_tree<std::basic_string<char, std::char_traits<char>, std::allocator<char> >, std::pair<const std::basic_string<char, std::char_traits<char>, std::allocator<char> >, std::basic_string<char, std::char_traits<char>, std::allocator<char> > >, std::_Select1st<std::pair<const std::basic_string<char, std::char_traits<char>, std::allocator<char> >, std::basic_string<char, std::char_traits<char>, std::allocator<char> > > >, std::less<std::basic_string<char, std::char_traits<char>, std::allocator<char> > >, std::allocator<std::pair<const std::basic_string<char, std::char_traits<char>, std::allocator<char> >, std::basic_string<char, std::char_traits<char>, std::allocator<char> > > > >::size
FUNC 1aca2 e3 0 std::_Rb_tree<std::basic_string<char, std::char_traits<char>, std::allocator<char> >, std::pair<const std::basic_string<char, std::char_traits<char>, std::allocator<char> >, std::basic_string<char, std::char_traits<char>, std::allocator<char> > >, std::_Select1st<std::pair<const std::basic_string<char, std::char_traits<char>, std::allocator<char> >, std::basic_string<char, std::char_traits<char>, std::allocator<char> > > >, std::less<std::basic_string<char, std::char_traits<char>, std::allocator<char> > >, std::allocator<std::pair<const std::basic_string<char, std::char_traits<char>, std::allocator<char> >, std::basic_string<char, std::char_traits<char>, std::allocator<char> > > > >::_M_insert_
FUNC 1ad86 271 0 std::_Rb_tree<std::basic_string<char, std::char_traits<char>, std::allocator<char> >, std::pair<const std::basic_string<char, std::char_traits<char>, std::allocator<char> >, std::basic_string<char, std::char_traits<char>, std::allocator<char> > >, std::_Select1st<std::pair<const std::basic_string<char, std::char_traits<char>, std::allocator<char> >, std::basic_string<char, std::char_traits<char>, std::allocator<char> > > >, std::less<std::basic_string<char, std::char_traits<char>, std::allocator<char> > >, std::allocator<std::pair<const std::basic_string<char, std::char_traits<char>, std::allocator<char> >, std::basic_string<char, std::char_traits<char>, std::allocator<char> > > > >::_M_insert_unique
FUNC 1aff8 28 0 std::_Rb_tree_const_iterator<std::pair<const std::basic_string<char, std::char_traits<char>, std::allocator<char> >, std::basic_string<char, std::char_traits<char>, std::allocator<char> > > >::operator--
FUNC 1b020 28 0 std::_Rb_tree_const_iterator<std::pair<const std::basic_string<char, std::char_traits<char>, std::allocator<char> >, std::basic_string<char, std::char_traits<char>, std::allocator<char> > > >::operator++
FUNC 1b048 2c 0 std::_Rb_tree<std::basic_string<char, std::char_traits<char>, std::allocator<char> >, std::pair<const std::basic_string<char, std::char_traits<char>, std::allocator<char> >, std::basic_string<char, std::char_traits<char>, std::allocator<char> > >, std::_Select1st<std::pair<const std::basic_string<char, std::char_traits<char>, std::allocator<char> >, std::basic_string<char, std::char_traits<char>, std::allocator<char> > > >, std::less<std::basic_string<char, std::char_traits<char>, std::allocator<char> > >, std::allocator<std::pair<const std::basic_string<char, std::char_traits<char>, std::allocator<char> >, std::basic_string<char, std::char_traits<char>, std::allocator<char> > > > >::_S_key
FUNC 1b074 12 0 std::_Rb_tree<std::basic_string<char, std::char_traits<char>, std::allocator<char> >, std::pair<const std::basic_string<char, std::char_traits<char>, std::allocator<char> >, std::basic_string<char, std::char_traits<char>, std::allocator<char> > >, std::_Select1st<std::pair<const std::basic_string<char, std::char_traits<char>, std::allocator<char> >, std::basic_string<char, std::char_traits<char>, std::allocator<char> > > >, std::less<std::basic_string<char, std::char_traits<char>, std::allocator<char> > >, std::allocator<std::pair<const std::basic_string<char, std::char_traits<char>, std::allocator<char> >, std::basic_string<char, std::char_traits<char>, std::allocator<char> > > > >::_S_value
FUNC 1b086 e 0 std::__miter_base<short unsigned int*, false>::__b
FUNC 1b094 58 0 std::__copy_move_backward_a2<false, short unsigned int*, short unsigned int*>
FUNC 1b0ec 28 0 std::vector<short unsigned int, std::allocator<short unsigned int> >::size
FUNC 1b114 22 0 std::vector<short unsigned int, std::allocator<short unsigned int> >::max_size
FUNC 1b136 2b 0 std::max<size_t>
FUNC 1b162 4a 0 __gnu_cxx::new_allocator<short unsigned int>::allocate
FUNC 1b1ac 31 0 std::__uninitialized_copy_a<short unsigned int*, short unsigned int*, short unsigned int>
FUNC 1b1de 4b 0 __gnu_cxx::new_allocator<std::basic_string<char, std::char_traits<char>, std::allocator<char> > >::allocate
FUNC 1b229 1d 0 std::__niter_base<__gnu_cxx::__normal_iterator<const std::basic_string<char, std::char_traits<char>, std::allocator<char> >*, std::vector<std::basic_string<char, std::char_traits<char>, std::allocator<char> >, std::allocator<std::basic_string<char, std::char_traits<char>, std::allocator<char> > > > >, true>::__b
FUNC 1b246 1d 0 std::__niter_base<__gnu_cxx::__normal_iterator<std::basic_string<char, std::char_traits<char>, std::allocator<char> >*, std::vector<std::basic_string<char, std::char_traits<char>, std::allocator<char> >, std::allocator<std::basic_string<char, std::char_traits<char>, std::allocator<char> > > > >, true>::__b
FUNC 1b263 31 0 std::__copy_move_a<false, const std::basic_string<char, std::char_traits<char>, std::allocator<char> >*, std::basic_string<char, std::char_traits<char>, std::allocator<char> >*>
FUNC 1b294 4b 0 std::_Destroy_aux<false>::__destroy<__gnu_cxx::__normal_iterator<std::basic_string<char, std::char_traits<char>, std::allocator<char> >*, std::vector<std::basic_string<char, std::char_traits<char>, std::allocator<char> >, std::allocator<std::basic_string<char, std::char_traits<char>, std::allocator<char> > > > > >
FUNC 1b2df e 0 std::__niter_base<std::basic_string<char, std::char_traits<char>, std::allocator<char> >*, false>::__b
FUNC 1b2ed 31 0 std::__copy_move_a<false, std::basic_string<char, std::char_traits<char>, std::allocator<char> >*, std::basic_string<char, std::char_traits<char>, std::allocator<char> >*>
FUNC 1b31e 92 0 std::__uninitialized_copy<false>::uninitialized_copy<std::basic_string<char, std::char_traits<char>, std::allocator<char> >*, std::basic_string<char, std::char_traits<char>, std::allocator<char> >*>
FUNC 1b3b0 58 0 std::__copy_move_backward_a2<false, std::basic_string<char, std::char_traits<char>, std::allocator<char> >*, std::basic_string<char, std::char_traits<char>, std::allocator<char> >*>
FUNC 1b408 22 0 std::vector<std::basic_string<char, std::char_traits<char>, std::allocator<char> >, std::allocator<std::basic_string<char, std::char_traits<char>, std::allocator<char> > > >::max_size
FUNC 1b42a ac 0 std::__uninitialized_copy<false>::uninitialized_copy<__gnu_cxx::__normal_iterator<const std::basic_string<char, std::char_traits<char>, std::allocator<char> >*, std::vector<std::basic_string<char, std::char_traits<char>, std::allocator<char> >, std::allocator<std::basic_string<char, std::char_traits<char>, std::allocator<char> > > > >, std::basic_string<char, std::char_traits<char>, std::allocator<char> >*>
FUNC 1b4d6 bd 0 std::_Rb_tree<std::basic_string<char, std::char_traits<char>, std::allocator<char> >, std::pair<const std::basic_string<char, std::char_traits<char>, std::allocator<char> >, std::basic_string<char, std::char_traits<char>, std::allocator<char> > >, std::_Select1st<std::pair<const std::basic_string<char, std::char_traits<char>, std::allocator<char> >, std::basic_string<char, std::char_traits<char>, std::allocator<char> > > >, std::less<std::basic_string<char, std::char_traits<char>, std::allocator<char> > >, std::allocator<std::pair<const std::basic_string<char, std::char_traits<char>, std::allocator<char> >, std::basic_string<char, std::char_traits<char>, std::allocator<char> > > > >::_M_create_node
FUNC 1b594 a 0 __gnu_cxx::new_allocator<std::_Rb_tree_node<std::pair<const std::basic_string<char, std::char_traits<char>, std::allocator<char> >, std::basic_string<char, std::char_traits<char>, std::allocator<char> > > > >::new_allocator
FUNC 1b59e e 0 std::_Rb_tree<std::basic_string<char, std::char_traits<char>, std::allocator<char> >, std::pair<const std::basic_string<char, std::char_traits<char>, std::allocator<char> >, std::basic_string<char, std::char_traits<char>, std::allocator<char> > >, std::_Select1st<std::pair<const std::basic_string<char, std::char_traits<char>, std::allocator<char> >, std::basic_string<char, std::char_traits<char>, std::allocator<char> > > >, std::less<std::basic_string<char, std::char_traits<char>, std::allocator<char> > >, std::allocator<std::pair<const std::basic_string<char, std::char_traits<char>, std::allocator<char> >, std::basic_string<char, std::char_traits<char>, std::allocator<char> > > > >::_M_get_Node_allocator
FUNC 1b5ac 1e 0 std::allocator<std::pair<const std::basic_string<char, std::char_traits<char>, std::allocator<char> >, std::basic_string<char, std::char_traits<char>, std::allocator<char> > > >::allocator<std::_Rb_tree_node<std::pair<const std::basic_string<char, std::char_traits<char>, std::allocator<char> >, std::basic_string<char, std::char_traits<char>, std::allocator<char> > > > >
FUNC 1b5ca a 0 __gnu_cxx::new_allocator<std::pair<const std::basic_string<char, std::char_traits<char>, std::allocator<char> >, std::basic_string<char, std::char_traits<char>, std::allocator<char> > > >::~new_allocator
FUNC 1b5d4 22 0 __gnu_cxx::new_allocator<std::_Rb_tree_node<std::pair<const std::basic_string<char, std::char_traits<char>, std::allocator<char> >, std::basic_string<char, std::char_traits<char>, std::allocator<char> > > > >::deallocate
FUNC 1b5f6 a 0 __gnu_cxx::new_allocator<short unsigned int>::new_allocator
FUNC 1b600 a 0 __gnu_cxx::new_allocator<std::basic_string<char, std::char_traits<char>, std::allocator<char> > >::new_allocator
FUNC 1b60a 1a 0 std::_Destroy<std::basic_string<char, std::char_traits<char>, std::allocator<char> > >
FUNC 1b624 2c 0 std::_Rb_tree<std::basic_string<char, std::char_traits<char>, std::allocator<char> >, std::pair<const std::basic_string<char, std::char_traits<char>, std::allocator<char> >, std::basic_string<char, std::char_traits<char>, std::allocator<char> > >, std::_Select1st<std::pair<const std::basic_string<char, std::char_traits<char>, std::allocator<char> >, std::basic_string<char, std::char_traits<char>, std::allocator<char> > > >, std::less<std::basic_string<char, std::char_traits<char>, std::allocator<char> > >, std::allocator<std::pair<const std::basic_string<char, std::char_traits<char>, std::allocator<char> >, std::basic_string<char, std::char_traits<char>, std::allocator<char> > > > >::begin
FUNC 1b650 2e 0 std::pair<std::_Rb_tree_iterator<std::pair<const std::basic_string<char, std::char_traits<char>, std::allocator<char> >, std::basic_string<char, std::char_traits<char>, std::allocator<char> > > >, bool>::pair
FUNC 1b67e 28 0 std::_Rb_tree_iterator<std::pair<const std::basic_string<char, std::char_traits<char>, std::allocator<char> >, std::basic_string<char, std::char_traits<char>, std::allocator<char> > > >::operator--
FUNC 1b6a6 12 0 std::_Rb_tree<std::basic_string<char, std::char_traits<char>, std::allocator<char> >, std::pair<const std::basic_string<char, std::char_traits<char>, std::allocator<char> >, std::basic_string<char, std::char_traits<char>, std::allocator<char> > >, std::_Select1st<std::pair<const std::basic_string<char, std::char_traits<char>, std::allocator<char> >, std::basic_string<char, std::char_traits<char>, std::allocator<char> > > >, std::less<std::basic_string<char, std::char_traits<char>, std::allocator<char> > >, std::allocator<std::pair<const std::basic_string<char, std::char_traits<char>, std::allocator<char> >, std::basic_string<char, std::char_traits<char>, std::allocator<char> > > > >::_S_value
FUNC 1b6b8 e 0 std::__niter_base<short unsigned int*, false>::__b
FUNC 1b6c6 31 0 std::__copy_move_backward_a<false, short unsigned int*, short unsigned int*>
FUNC 1b6f8 e 0 std::_Vector_base<short unsigned int, std::allocator<short unsigned int> >::_M_get_Tp_allocator
FUNC 1b706 14 0 __gnu_cxx::new_allocator<short unsigned int>::max_size
FUNC 1b71a 2d 0 std::uninitialized_copy<short unsigned int*, short unsigned int*>
FUNC 1b748 14 0 __gnu_cxx::new_allocator<std::basic_string<char, std::char_traits<char>, std::allocator<char> > >::max_size
FUNC 1b75c 63 0 std::__copy_move<false, false, std::random_access_iterator_tag>::__copy_m<const std::basic_string<char, std::char_traits<char>, std::allocator<char> >*, std::basic_string<char, std::char_traits<char>, std::allocator<char> >*>
FUNC 1b7bf 3c 0 __gnu_cxx::operator!=<std::basic_string<char, std::char_traits<char>, std::allocator<char> >*, std::vector<std::basic_string<char, std::char_traits<char>, std::allocator<char> >, std::allocator<std::basic_string<char, std::char_traits<char>, std::allocator<char> > > > >
FUNC 1b7fc 20 0 __gnu_cxx::__normal_iterator<std::basic_string<char, std::char_traits<char>, std::allocator<char> >*, std::vector<std::basic_string<char, std::char_traits<char>, std::allocator<char> >, std::allocator<std::basic_string<char, std::char_traits<char>, std::allocator<char> > > > >::operator++
FUNC 1b81c 63 0 std::__copy_move<false, false, std::random_access_iterator_tag>::__copy_m<std::basic_string<char, std::char_traits<char>, std::allocator<char> >*, std::basic_string<char, std::char_traits<char>, std::allocator<char> >*>
FUNC 1b87f 73 0 std::_Construct<std::basic_string<char, std::char_traits<char>, std::allocator<char> >, std::basic_string<char, std::char_traits<char>, std::allocator<char> > >
FUNC 1b8f2 31 0 std::__copy_move_backward_a<false, std::basic_string<char, std::char_traits<char>, std::allocator<char> >*, std::basic_string<char, std::char_traits<char>, std::allocator<char> >*>
FUNC 1b923 3c 0 __gnu_cxx::operator!=<const std::basic_string<char, std::char_traits<char>, std::allocator<char> >*, std::vector<std::basic_string<char, std::char_traits<char>, std::allocator<char> >, std::allocator<std::basic_string<char, std::char_traits<char>, std::allocator<char> > > > >
FUNC 1b960 24 0 std::_Rb_tree<std::basic_string<char, std::char_traits<char>, std::allocator<char> >, std::pair<const std::basic_string<char, std::char_traits<char>, std::allocator<char> >, std::basic_string<char, std::char_traits<char>, std::allocator<char> > >, std::_Select1st<std::pair<const std::basic_string<char, std::char_traits<char>, std::allocator<char> >, std::basic_string<char, std::char_traits<char>, std::allocator<char> > > >, std::less<std::basic_string<char, std::char_traits<char>, std::allocator<char> > >, std::allocator<std::pair<const std::basic_string<char, std::char_traits<char>, std::allocator<char> >, std::basic_string<char, std::char_traits<char>, std::allocator<char> > > > >::_M_get_node
FUNC 1b984 6b 0 std::pair<const std::basic_string<char, std::char_traits<char>, std::allocator<char> >, std::basic_string<char, std::char_traits<char>, std::allocator<char> > >::pair
FUNC 1b9f0 77 0 __gnu_cxx::new_allocator<std::pair<const std::basic_string<char, std::char_traits<char>, std::allocator<char> >, std::basic_string<char, std::char_traits<char>, std::allocator<char> > > >::construct
FUNC 1ba68 a 0 __gnu_cxx::new_allocator<std::pair<const std::basic_string<char, std::char_traits<char>, std::allocator<char> >, std::basic_string<char, std::char_traits<char>, std::allocator<char> > > >::new_allocator
FUNC 1ba72 61 0 std::__copy_move_backward<false, true, std::random_access_iterator_tag>::__copy_move_b<short unsigned int>
FUNC 1bad3 2d 0 std::__uninitialized_copy<true>::uninitialized_copy<short unsigned int*, short unsigned int*>
FUNC 1bb00 63 0 std::__copy_move_backward<false, false, std::random_access_iterator_tag>::__copy_move_b<std::basic_string<char, std::char_traits<char>, std::allocator<char> >*, std::basic_string<char, std::char_traits<char>, std::allocator<char> >*>
FUNC 1bb64 54 0 __gnu_cxx::new_allocator<std::_Rb_tree_node<std::pair<const std::basic_string<char, std::char_traits<char>, std::allocator<char> >, std::basic_string<char, std::char_traits<char>, std::allocator<char> > > > >::allocate
FUNC 1bbb8 46 0 std::copy<short unsigned int*, short unsigned int*>
FUNC 1bbfe 14 0 __gnu_cxx::new_allocator<std::_Rb_tree_node<std::pair<const std::basic_string<char, std::char_traits<char>, std::allocator<char> >, std::basic_string<char, std::char_traits<char>, std::allocator<char> > > > >::max_size
FUNC 1bc12 58 0 std::__copy_move_a2<false, short unsigned int*, short unsigned int*>
FUNC 1bc6a 31 0 std::__copy_move_a<false, short unsigned int*, short unsigned int*>
FUNC 1bc9b 5c 0 std::__copy_move<false, true, std::random_access_iterator_tag>::__copy_m<short unsigned int>
FUNC 1bcf8 119 0 EncapMysql::EncapMysql
FUNC 1be12 102 0 EncapMysql::~EncapMysql
FUNC 1bf14 74 0 EncapMysql::GetInstance
FUNC 1bf88 112 0 EncapMysql::Connect
FUNC 1c09a 31 0 EncapMysql::CloseConnect
FUNC 1c0cc 402 0 EncapMysql::SelectQuery
FUNC 1c4ce 1e3 0 EncapMysql::ModifyQuery
FUNC 1c6b2 4e 0 EncapMysql::FetchRow
FUNC 1c700 c3 0 EncapMysql::GetField
FUNC 1c7c4 3b 0 EncapMysql::GetField
FUNC 1c800 40 0 EncapMysql::FreePreResult
FUNC 1c840 12 0 EncapMysql::GetErrMsg
FUNC 1c852 12 0 EncapMysql::IsConnected
FUNC 1c864 1a 0 EncapMysql::SetConnected
FUNC 1c87e 68 0 EncapMysql::SaveParam
FUNC 1c8e6 107 0 EncapMysql::ReConnect
FUNC 1c9ee 11 0 EncapMysql::SetUsed
FUNC 1ca00 11 0 EncapMysql::SetIdle
FUNC 1ca12 14 0 EncapMysql::IsIdle
FUNC 1ca26 77 0 __static_initialization_and_destruction_0
FUNC 1ca9d 15 0 _GLOBAL__I_EncapMysql.cpp
FUNC 1cab2 1a 0 Mutex::WriterLock
FUNC 1cacc 1a 0 Mutex::WriterUnlock
FUNC 1cae6 12 0 Mutex::SetIsSafe
FUNC 1caf8 50 0 Mutex::Mutex
FUNC 1cb48 3f 0 Mutex::~Mutex
FUNC 1cb88 3f 0 Mutex::Lock
FUNC 1cbc8 3f 0 Mutex::Unlock
FUNC 1cc08 2c 0 WriterMutexLock::WriterMutexLock
FUNC 1cc34 1d 0 WriterMutexLock::~WriterMutexLock
FUNC 1cc52 1a 0 std::map<std::basic_string<char, std::char_traits<char>, std::allocator<char> >, int, std::less<std::basic_string<char, std::char_traits<char>, std::allocator<char> > >, std::allocator<std::pair<const std::basic_string<char, std::char_traits<char>, std::allocator<char> >, int> > >::~map
FUNC 1cc6c 1a 0 std::map<std::basic_string<char, std::char_traits<char>, std::allocator<char> >, int, std::less<std::basic_string<char, std::char_traits<char>, std::allocator<char> > >, std::allocator<std::pair<const std::basic_string<char, std::char_traits<char>, std::allocator<char> >, int> > >::map
FUNC 1cc86 1a 0 std::_Rb_tree<std::basic_string<char, std::char_traits<char>, std::allocator<char> >, std::pair<const std::basic_string<char, std::char_traits<char>, std::allocator<char> >, int>, std::_Select1st<std::pair<const std::basic_string<char, std::char_traits<char>, std::allocator<char> >, int> >, std::less<std::basic_string<char, std::char_traits<char>, std::allocator<char> > >, std::allocator<std::pair<const std::basic_string<char, std::char_traits<char>, std::allocator<char> >, int> > >::_Rb_tree_impl<std::less<std::basic_string<char, std::char_traits<char>, std::allocator<char> > >, false>::~_Rb_tree_impl
FUNC 1cca0 63 0 std::_Rb_tree<std::basic_string<char, std::char_traits<char>, std::allocator<char> >, std::pair<const std::basic_string<char, std::char_traits<char>, std::allocator<char> >, int>, std::_Select1st<std::pair<const std::basic_string<char, std::char_traits<char>, std::allocator<char> >, int> >, std::less<std::basic_string<char, std::char_traits<char>, std::allocator<char> > >, std::allocator<std::pair<const std::basic_string<char, std::char_traits<char>, std::allocator<char> >, int> > >::~_Rb_tree
FUNC 1cd04 1a 0 std::map<std::basic_string<char, std::char_traits<char>, std::allocator<char> >, int, std::less<std::basic_string<char, std::char_traits<char>, std::allocator<char> > >, std::allocator<std::pair<const std::basic_string<char, std::char_traits<char>, std::allocator<char> >, int> > >::clear
FUNC 1cd1e 1a 0 std::pair<const std::basic_string<char, std::char_traits<char>, std::allocator<char> >, int>::~pair
FUNC 1cd38 118 0 std::map<std::basic_string<char, std::char_traits<char>, std::allocator<char> >, int, std::less<std::basic_string<char, std::char_traits<char>, std::allocator<char> > >, std::allocator<std::pair<const std::basic_string<char, std::char_traits<char>, std::allocator<char> >, int> > >::operator[]
FUNC 1ce50 1a 0 std::_Rb_tree<std::basic_string<char, std::char_traits<char>, std::allocator<char> >, std::pair<const std::basic_string<char, std::char_traits<char>, std::allocator<char> >, int>, std::_Select1st<std::pair<const std::basic_string<char, std::char_traits<char>, std::allocator<char> >, int> >, std::less<std::basic_string<char, std::char_traits<char>, std::allocator<char> > >, std::allocator<std::pair<const std::basic_string<char, std::char_traits<char>, std::allocator<char> >, int> > >::_Rb_tree
FUNC 1ce6a 1a 0 std::allocator<std::_Rb_tree_node<std::pair<const std::basic_string<char, std::char_traits<char>, std::allocator<char> >, int> > >::~allocator
FUNC 1ce84 69 0 std::_Rb_tree<std::basic_string<char, std::char_traits<char>, std::allocator<char> >, std::pair<const std::basic_string<char, std::char_traits<char>, std::allocator<char> >, int>, std::_Select1st<std::pair<const std::basic_string<char, std::char_traits<char>, std::allocator<char> >, int> >, std::less<std::basic_string<char, std::char_traits<char>, std::allocator<char> > >, std::allocator<std::pair<const std::basic_string<char, std::char_traits<char>, std::allocator<char> >, int> > >::_M_erase
FUNC 1ceee 12 0 std::_Rb_tree<std::basic_string<char, std::char_traits<char>, std::allocator<char> >, std::pair<const std::basic_string<char, std::char_traits<char>, std::allocator<char> >, int>, std::_Select1st<std::pair<const std::basic_string<char, std::char_traits<char>, std::allocator<char> >, int> >, std::less<std::basic_string<char, std::char_traits<char>, std::allocator<char> > >, std::allocator<std::pair<const std::basic_string<char, std::char_traits<char>, std::allocator<char> >, int> > >::_M_begin
FUNC 1cf00 8d 0 std::_Rb_tree<std::basic_string<char, std::char_traits<char>, std::allocator<char> >, std::pair<const std::basic_string<char, std::char_traits<char>, std::allocator<char> >, int>, std::_Select1st<std::pair<const std::basic_string<char, std::char_traits<char>, std::allocator<char> >, int> >, std::less<std::basic_string<char, std::char_traits<char>, std::allocator<char> > >, std::allocator<std::pair<const std::basic_string<char, std::char_traits<char>, std::allocator<char> >, int> > >::clear
FUNC 1cf8e 25 0 std::map<std::basic_string<char, std::char_traits<char>, std::allocator<char> >, int, std::less<std::basic_string<char, std::char_traits<char>, std::allocator<char> > >, std::allocator<std::pair<const std::basic_string<char, std::char_traits<char>, std::allocator<char> >, int> > >::lower_bound
FUNC 1cfb4 1a 0 std::map<std::basic_string<char, std::char_traits<char>, std::allocator<char> >, int, std::less<std::basic_string<char, std::char_traits<char>, std::allocator<char> > >, std::allocator<std::pair<const std::basic_string<char, std::char_traits<char>, std::allocator<char> >, int> > >::key_comp
FUNC 1cfce 15 0 std::_Rb_tree_iterator<std::pair<const std::basic_string<char, std::char_traits<char>, std::allocator<char> >, int> >::operator*
FUNC 1cfe4 1a 0 std::map<std::basic_string<char, std::char_traits<char>, std::allocator<char> >, int, std::less<std::basic_string<char, std::char_traits<char>, std::allocator<char> > >, std::allocator<std::pair<const std::basic_string<char, std::char_traits<char>, std::allocator<char> >, int> > >::end
FUNC 1cffe 22 0 std::_Rb_tree_iterator<std::pair<const std::basic_string<char, std::char_traits<char>, std::allocator<char> >, int> >::operator==
FUNC 1d020 36 0 std::pair<const std::basic_string<char, std::char_traits<char>, std::allocator<char> >, int>::pair
FUNC 1d056 40 0 std::map<std::basic_string<char, std::char_traits<char>, std::allocator<char> >, int, std::less<std::basic_string<char, std::char_traits<char>, std::allocator<char> > >, std::allocator<std::pair<const std::basic_string<char, std::char_traits<char>, std::allocator<char> >, int> > >::insert
FUNC 1d096 8c 0 std::_Rb_tree<std::basic_string<char, std::char_traits<char>, std::allocator<char> >, std::pair<const std::basic_string<char, std::char_traits<char>, std::allocator<char> >, int>, std::_Select1st<std::pair<const std::basic_string<char, std::char_traits<char>, std::allocator<char> >, int> >, std::less<std::basic_string<char, std::char_traits<char>, std::allocator<char> > >, std::allocator<std::pair<const std::basic_string<char, std::char_traits<char>, std::allocator<char> >, int> > >::_Rb_tree_impl<std::less<std::basic_string<char, std::char_traits<char>, std::allocator<char> > >, false>::_Rb_tree_impl
FUNC 1d122 a 0 __gnu_cxx::new_allocator<std::_Rb_tree_node<std::pair<const std::basic_string<char, std::char_traits<char>, std::allocator<char> >, int> > >::~new_allocator
FUNC 1d12c 12 0 std::_Rb_tree<std::basic_string<char, std::char_traits<char>, std::allocator<char> >, std::pair<const std::basic_string<char, std::char_traits<char>, std::allocator<char> >, int>, std::_Select1st<std::pair<const std::basic_string<char, std::char_traits<char>, std::allocator<char> >, int> >, std::less<std::basic_string<char, std::char_traits<char>, std::allocator<char> > >, std::allocator<std::pair<const std::basic_string<char, std::char_traits<char>, std::allocator<char> >, int> > >::_S_right
FUNC 1d13e 12 0 std::_Rb_tree<std::basic_string<char, std::char_traits<char>, std::allocator<char> >, std::pair<const std::basic_string<char, std::char_traits<char>, std::allocator<char> >, int>, std::_Select1st<std::pair<const std::basic_string<char, std::char_traits<char>, std::allocator<char> >, int> >, std::less<std::basic_string<char, std::char_traits<char>, std::allocator<char> > >, std::allocator<std::pair<const std::basic_string<char, std::char_traits<char>, std::allocator<char> >, int> > >::_S_left
FUNC 1d150 86 0 std::_Rb_tree<std::basic_string<char, std::char_traits<char>, std::allocator<char> >, std::pair<const std::basic_string<char, std::char_traits<char>, std::allocator<char> >, int>, std::_Select1st<std::pair<const std::basic_string<char, std::char_traits<char>, std::allocator<char> >, int> >, std::less<std::basic_string<char, std::char_traits<char>, std::allocator<char> > >, std::allocator<std::pair<const std::basic_string<char, std::char_traits<char>, std::allocator<char> >, int> > >::_M_destroy_node
FUNC 1d1d6 12 0 std::_Rb_tree<std::basic_string<char, std::char_traits<char>, std::allocator<char> >, std::pair<const std::basic_string<char, std::char_traits<char>, std::allocator<char> >, int>, std::_Select1st<std::pair<const std::basic_string<char, std::char_traits<char>, std::allocator<char> >, int> >, std::less<std::basic_string<char, std::char_traits<char>, std::allocator<char> > >, std::allocator<std::pair<const std::basic_string<char, std::char_traits<char>, std::allocator<char> >, int> > >::_M_end
FUNC 1d1e8 12 0 std::_Rb_tree<std::basic_string<char, std::char_traits<char>, std::allocator<char> >, std::pair<const std::basic_string<char, std::char_traits<char>, std::allocator<char> >, int>, std::_Select1st<std::pair<const std::basic_string<char, std::char_traits<char>, std::allocator<char> >, int> >, std::less<std::basic_string<char, std::char_traits<char>, std::allocator<char> > >, std::allocator<std::pair<const std::basic_string<char, std::char_traits<char>, std::allocator<char> >, int> > >::_M_leftmost
FUNC 1d1fa 12 0 std::_Rb_tree<std::basic_string<char, std::char_traits<char>, std::allocator<char> >, std::pair<const std::basic_string<char, std::char_traits<char>, std::allocator<char> >, int>, std::_Select1st<std::pair<const std::basic_string<char, std::char_traits<char>, std::allocator<char> >, int> >, std::less<std::basic_string<char, std::char_traits<char>, std::allocator<char> > >, std::allocator<std::pair<const std::basic_string<char, std::char_traits<char>, std::allocator<char> >, int> > >::_M_root
FUNC 1d20c 12 0 std::_Rb_tree<std::basic_string<char, std::char_traits<char>, std::allocator<char> >, std::pair<const std::basic_string<char, std::char_traits<char>, std::allocator<char> >, int>, std::_Select1st<std::pair<const std::basic_string<char, std::char_traits<char>, std::allocator<char> >, int> >, std::less<std::basic_string<char, std::char_traits<char>, std::allocator<char> > >, std::allocator<std::pair<const std::basic_string<char, std::char_traits<char>, std::allocator<char> >, int> > >::_M_rightmost
FUNC 1d21e 53 0 std::_Rb_tree<std::basic_string<char, std::char_traits<char>, std::allocator<char> >, std::pair<const std::basic_string<char, std::char_traits<char>, std::allocator<char> >, int>, std::_Select1st<std::pair<const std::basic_string<char, std::char_traits<char>, std::allocator<char> >, int> >, std::less<std::basic_string<char, std::char_traits<char>, std::allocator<char> > >, std::allocator<std::pair<const std::basic_string<char, std::char_traits<char>, std::allocator<char> >, int> > >::lower_bound
FUNC 1d272 a 0 std::_Rb_tree<std::basic_string<char, std::char_traits<char>, std::allocator<char> >, std::pair<const std::basic_string<char, std::char_traits<char>, std::allocator<char> >, int>, std::_Select1st<std::pair<const std::basic_string<char, std::char_traits<char>, std::allocator<char> >, int> >, std::less<std::basic_string<char, std::char_traits<char>, std::allocator<char> > >, std::allocator<std::pair<const std::basic_string<char, std::char_traits<char>, std::allocator<char> >, int> > >::key_comp
FUNC 1d27c 2c 0 std::_Rb_tree<std::basic_string<char, std::char_traits<char>, std::allocator<char> >, std::pair<const std::basic_string<char, std::char_traits<char>, std::allocator<char> >, int>, std::_Select1st<std::pair<const std::basic_string<char, std::char_traits<char>, std::allocator<char> >, int> >, std::less<std::basic_string<char, std::char_traits<char>, std::allocator<char> > >, std::allocator<std::pair<const std::basic_string<char, std::char_traits<char>, std::allocator<char> >, int> > >::end
FUNC 1d2a8 1c 0 std::_Rb_tree_const_iterator<std::pair<const std::basic_string<char, std::char_traits<char>, std::allocator<char> >, int> >::_Rb_tree_const_iterator
FUNC 1d2c4 4c0 0 std::_Rb_tree<std::basic_string<char, std::char_traits<char>, std::allocator<char> >, std::pair<const std::basic_string<char, std::char_traits<char>, std::allocator<char> >, int>, std::_Select1st<std::pair<const std::basic_string<char, std::char_traits<char>, std::allocator<char> >, int> >, std::less<std::basic_string<char, std::char_traits<char>, std::allocator<char> > >, std::allocator<std::pair<const std::basic_string<char, std::char_traits<char>, std::allocator<char> >, int> > >::_M_insert_unique_
FUNC 1d784 1a 0 std::allocator<std::_Rb_tree_node<std::pair<const std::basic_string<char, std::char_traits<char>, std::allocator<char> >, int> > >::allocator
FUNC 1d79e 41 0 std::_Rb_tree<std::basic_string<char, std::char_traits<char>, std::allocator<char> >, std::pair<const std::basic_string<char, std::char_traits<char>, std::allocator<char> >, int>, std::_Select1st<std::pair<const std::basic_string<char, std::char_traits<char>, std::allocator<char> >, int> >, std::less<std::basic_string<char, std::char_traits<char>, std::allocator<char> > >, std::allocator<std::pair<const std::basic_string<char, std::char_traits<char>, std::allocator<char> >, int> > >::_Rb_tree_impl<std::less<std::basic_string<char, std::char_traits<char>, std::allocator<char> > >, false>::_M_initialize
FUNC 1d7e0 3b 0 std::_Rb_tree<std::basic_string<char, std::char_traits<char>, std::allocator<char> >, std::pair<const std::basic_string<char, std::char_traits<char>, std::allocator<char> >, int>, std::_Select1st<std::pair<const std::basic_string<char, std::char_traits<char>, std::allocator<char> >, int> >, std::less<std::basic_string<char, std::char_traits<char>, std::allocator<char> > >, std::allocator<std::pair<const std::basic_string<char, std::char_traits<char>, std::allocator<char> >, int> > >::get_allocator
FUNC 1d81c 1a 0 std::allocator<std::pair<const std::basic_string<char, std::char_traits<char>, std::allocator<char> >, int> >::~allocator
FUNC 1d836 1e 0 __gnu_cxx::new_allocator<std::pair<const std::basic_string<char, std::char_traits<char>, std::allocator<char> >, int> >::destroy
FUNC 1d854 2a 0 std::_Rb_tree<std::basic_string<char, std::char_traits<char>, std::allocator<char> >, std::pair<const std::basic_string<char, std::char_traits<char>, std::allocator<char> >, int>, std::_Select1st<std::pair<const std::basic_string<char, std::char_traits<char>, std::allocator<char> >, int> >, std::less<std::basic_string<char, std::char_traits<char>, std::allocator<char> > >, std::allocator<std::pair<const std::basic_string<char, std::char_traits<char>, std::allocator<char> >, int> > >::_M_put_node
FUNC 1d87e 92 0 std::_Rb_tree<std::basic_string<char, std::char_traits<char>, std::allocator<char> >, std::pair<const std::basic_string<char, std::char_traits<char>, std::allocator<char> >, int>, std::_Select1st<std::pair<const std::basic_string<char, std::char_traits<char>, std::allocator<char> >, int> >, std::less<std::basic_string<char, std::char_traits<char>, std::allocator<char> > >, std::allocator<std::pair<const std::basic_string<char, std::char_traits<char>, std::allocator<char> >, int> > >::_M_lower_bound
FUNC 1d910 19 0 std::_Rb_tree_iterator<std::pair<const std::basic_string<char, std::char_traits<char>, std::allocator<char> >, int> >::_Rb_tree_iterator
FUNC 1d929 2c 0 std::_Rb_tree<std::basic_string<char, std::char_traits<char>, std::allocator<char> >, std::pair<const std::basic_string<char, std::char_traits<char>, std::allocator<char> >, int>, std::_Select1st<std::pair<const std::basic_string<char, std::char_traits<char>, std::allocator<char> >, int> >, std::less<std::basic_string<char, std::char_traits<char>, std::allocator<char> > >, std::allocator<std::pair<const std::basic_string<char, std::char_traits<char>, std::allocator<char> >, int> > >::_S_key
FUNC 1d956 12 0 std::_Select1st<std::pair<const std::basic_string<char, std::char_traits<char>, std::allocator<char> >, int> >::operator()
FUNC 1d968 12 0 std::_Rb_tree<std::basic_string<char, std::char_traits<char>, std::allocator<char> >, std::pair<const std::basic_string<char, std::char_traits<char>, std::allocator<char> >, int>, std::_Select1st<std::pair<const std::basic_string<char, std::char_traits<char>, std::allocator<char> >, int> >, std::less<std::basic_string<char, std::char_traits<char>, std::allocator<char> > >, std::allocator<std::pair<const std::basic_string<char, std::char_traits<char>, std::allocator<char> >, int> > >::size
FUNC 1d97a e3 0 std::_Rb_tree<std::basic_string<char, std::char_traits<char>, std::allocator<char> >, std::pair<const std::basic_string<char, std::char_traits<char>, std::allocator<char> >, int>, std::_Select1st<std::pair<const std::basic_string<char, std::char_traits<char>, std::allocator<char> >, int> >, std::less<std::basic_string<char, std::char_traits<char>, std::allocator<char> > >, std::allocator<std::pair<const std::basic_string<char, std::char_traits<char>, std::allocator<char> >, int> > >::_M_insert_
FUNC 1da5e 271 0 std::_Rb_tree<std::basic_string<char, std::char_traits<char>, std::allocator<char> >, std::pair<const std::basic_string<char, std::char_traits<char>, std::allocator<char> >, int>, std::_Select1st<std::pair<const std::basic_string<char, std::char_traits<char>, std::allocator<char> >, int> >, std::less<std::basic_string<char, std::char_traits<char>, std::allocator<char> > >, std::allocator<std::pair<const std::basic_string<char, std::char_traits<char>, std::allocator<char> >, int> > >::_M_insert_unique
FUNC 1dcd0 28 0 std::_Rb_tree_const_iterator<std::pair<const std::basic_string<char, std::char_traits<char>, std::allocator<char> >, int> >::operator--
FUNC 1dcf8 12 0 std::_Rb_tree<std::basic_string<char, std::char_traits<char>, std::allocator<char> >, std::pair<const std::basic_string<char, std::char_traits<char>, std::allocator<char> >, int>, std::_Select1st<std::pair<const std::basic_string<char, std::char_traits<char>, std::allocator<char> >, int> >, std::less<std::basic_string<char, std::char_traits<char>, std::allocator<char> > >, std::allocator<std::pair<const std::basic_string<char, std::char_traits<char>, std::allocator<char> >, int> > >::_S_right
FUNC 1dd0a 28 0 std::_Rb_tree_const_iterator<std::pair<const std::basic_string<char, std::char_traits<char>, std::allocator<char> >, int> >::operator++
FUNC 1dd32 a 0 __gnu_cxx::new_allocator<std::_Rb_tree_node<std::pair<const std::basic_string<char, std::char_traits<char>, std::allocator<char> >, int> > >::new_allocator
FUNC 1dd3c e 0 std::_Rb_tree<std::basic_string<char, std::char_traits<char>, std::allocator<char> >, std::pair<const std::basic_string<char, std::char_traits<char>, std::allocator<char> >, int>, std::_Select1st<std::pair<const std::basic_string<char, std::char_traits<char>, std::allocator<char> >, int> >, std::less<std::basic_string<char, std::char_traits<char>, std::allocator<char> > >, std::allocator<std::pair<const std::basic_string<char, std::char_traits<char>, std::allocator<char> >, int> > >::_M_get_Node_allocator
FUNC 1dd4a 1e 0 std::allocator<std::pair<const std::basic_string<char, std::char_traits<char>, std::allocator<char> >, int> >::allocator<std::_Rb_tree_node<std::pair<const std::basic_string<char, std::char_traits<char>, std::allocator<char> >, int> > >
FUNC 1dd68 a 0 __gnu_cxx::new_allocator<std::pair<const std::basic_string<char, std::char_traits<char>, std::allocator<char> >, int> >::~new_allocator
FUNC 1dd72 22 0 __gnu_cxx::new_allocator<std::_Rb_tree_node<std::pair<const std::basic_string<char, std::char_traits<char>, std::allocator<char> >, int> > >::deallocate
FUNC 1dd94 2c 0 std::_Rb_tree<std::basic_string<char, std::char_traits<char>, std::allocator<char> >, std::pair<const std::basic_string<char, std::char_traits<char>, std::allocator<char> >, int>, std::_Select1st<std::pair<const std::basic_string<char, std::char_traits<char>, std::allocator<char> >, int> >, std::less<std::basic_string<char, std::char_traits<char>, std::allocator<char> > >, std::allocator<std::pair<const std::basic_string<char, std::char_traits<char>, std::allocator<char> >, int> > >::_S_key
FUNC 1ddc0 12 0 std::_Rb_tree<std::basic_string<char, std::char_traits<char>, std::allocator<char> >, std::pair<const std::basic_string<char, std::char_traits<char>, std::allocator<char> >, int>, std::_Select1st<std::pair<const std::basic_string<char, std::char_traits<char>, std::allocator<char> >, int> >, std::less<std::basic_string<char, std::char_traits<char>, std::allocator<char> > >, std::allocator<std::pair<const std::basic_string<char, std::char_traits<char>, std::allocator<char> >, int> > >::_S_value
FUNC 1ddd2 bd 0 std::_Rb_tree<std::basic_string<char, std::char_traits<char>, std::allocator<char> >, std::pair<const std::basic_string<char, std::char_traits<char>, std::allocator<char> >, int>, std::_Select1st<std::pair<const std::basic_string<char, std::char_traits<char>, std::allocator<char> >, int> >, std::less<std::basic_string<char, std::char_traits<char>, std::allocator<char> > >, std::allocator<std::pair<const std::basic_string<char, std::char_traits<char>, std::allocator<char> >, int> > >::_M_create_node
FUNC 1de90 2c 0 std::_Rb_tree<std::basic_string<char, std::char_traits<char>, std::allocator<char> >, std::pair<const std::basic_string<char, std::char_traits<char>, std::allocator<char> >, int>, std::_Select1st<std::pair<const std::basic_string<char, std::char_traits<char>, std::allocator<char> >, int> >, std::less<std::basic_string<char, std::char_traits<char>, std::allocator<char> > >, std::allocator<std::pair<const std::basic_string<char, std::char_traits<char>, std::allocator<char> >, int> > >::begin
FUNC 1debc 2e 0 std::pair<std::_Rb_tree_iterator<std::pair<const std::basic_string<char, std::char_traits<char>, std::allocator<char> >, int> >, bool>::pair
FUNC 1deea 28 0 std::_Rb_tree_iterator<std::pair<const std::basic_string<char, std::char_traits<char>, std::allocator<char> >, int> >::operator--
FUNC 1df12 a 0 __gnu_cxx::new_allocator<std::pair<const std::basic_string<char, std::char_traits<char>, std::allocator<char> >, int> >::new_allocator
FUNC 1df1c 12 0 std::_Rb_tree<std::basic_string<char, std::char_traits<char>, std::allocator<char> >, std::pair<const std::basic_string<char, std::char_traits<char>, std::allocator<char> >, int>, std::_Select1st<std::pair<const std::basic_string<char, std::char_traits<char>, std::allocator<char> >, int> >, std::less<std::basic_string<char, std::char_traits<char>, std::allocator<char> > >, std::allocator<std::pair<const std::basic_string<char, std::char_traits<char>, std::allocator<char> >, int> > >::_S_value
FUNC 1df2e 24 0 std::_Rb_tree<std::basic_string<char, std::char_traits<char>, std::allocator<char> >, std::pair<const std::basic_string<char, std::char_traits<char>, std::allocator<char> >, int>, std::_Select1st<std::pair<const std::basic_string<char, std::char_traits<char>, std::allocator<char> >, int> >, std::less<std::basic_string<char, std::char_traits<char>, std::allocator<char> > >, std::allocator<std::pair<const std::basic_string<char, std::char_traits<char>, std::allocator<char> >, int> > >::_M_get_node
FUNC 1df52 33 0 std::pair<const std::basic_string<char, std::char_traits<char>, std::allocator<char> >, int>::pair
FUNC 1df86 77 0 __gnu_cxx::new_allocator<std::pair<const std::basic_string<char, std::char_traits<char>, std::allocator<char> >, int> >::construct
FUNC 1dffe 54 0 __gnu_cxx::new_allocator<std::_Rb_tree_node<std::pair<const std::basic_string<char, std::char_traits<char>, std::allocator<char> >, int> > >::allocate
FUNC 1e052 14 0 __gnu_cxx::new_allocator<std::_Rb_tree_node<std::pair<const std::basic_string<char, std::char_traits<char>, std::allocator<char> >, int> > >::max_size
FUNC 1e068 28 0 IEC103Manager::IEC103Manager
FUNC 1e090 61 0 IEC103Manager::~IEC103Manager
FUNC 1e0f2 26 0 IEC103Manager::~IEC103Manager
FUNC 1e118 9f9 0 IEC103Manager::Init
FUNC 1eb12 2d 0 IEC103Manager::Start
FUNC 1eb40 1b 0 IEC103Manager::Stop
FUNC 1eb5c 62 0 IEC103Manager::SignalHandle
FUNC 1ebbe 257 0 __static_initialization_and_destruction_0
FUNC 1ee15 15 0 _GLOBAL__I_IEC103Manager.cpp
FUNC 1ee2a 1a 0 std::char_traits<char>::length
FUNC 1ee44 2e 0 std::_Rb_tree_node_base::_S_minimum
FUNC 1ee72 2e 0 std::_Rb_tree_node_base::_S_maximum
FUNC 1eea0 33 0 Config::GetChannelName
FUNC 1eed4 12 0 Config::GetNetType
FUNC 1eee6 29 0 Config::SetIp
FUNC 1ef10 1a 0 Config::SetUdpPort
FUNC 1ef2a 14 0 Config::GetIec103RunType
FUNC 1ef3e 37 0 boost::thread_exception::thread_exception
FUNC 1ef76 39 0 boost::thread_exception::thread_exception
FUNC 1efb0 41 0 boost::thread_exception::~thread_exception
FUNC 1eff2 26 0 boost::thread_exception::~thread_exception
FUNC 1f018 34 0 boost::lock_error::lock_error
FUNC 1f04c 41 0 boost::lock_error::~lock_error
FUNC 1f08e 26 0 boost::lock_error::~lock_error
FUNC 1f0b4 11 0 boost::lock_error::what
FUNC 1f0c6 2c 0 boost::thread_resource_error::thread_resource_error
FUNC 1f0f2 41 0 boost::thread_resource_error::~thread_resource_error
FUNC 1f134 26 0 boost::thread_resource_error::~thread_resource_error
FUNC 1f15a 11 0 boost::thread_resource_error::what
FUNC 1f16b a 0 boost::throw_exception_assert_compatibility
FUNC 1f176 69 0 boost::mutex::mutex
FUNC 1f1e0 3d 0 boost::mutex::~mutex
FUNC 1f21e 69 0 boost::mutex::lock
FUNC 1f288 3d 0 boost::mutex::unlock
FUNC 1f2c6 2c 0 Log::Logger::setlogPath
FUNC 1f2f2 bd 0 stLogInfo::stLogInfo
FUNC 1f3b0 5d 0 stLogInfo::~stLogInfo
FUNC 1f40e d1 0 WgjFunctionEx::LogSend
FUNC 1f4e0 1a 0 std::map<std::basic_string<char, std::char_traits<char>, std::allocator<char> >, IEC103::stConfigParam, std::less<std::basic_string<char, std::char_traits<char>, std::allocator<char> > >, std::allocator<std::pair<const std::basic_string<char, std::char_traits<char>, std::allocator<char> >, IEC103::stConfigParam> > >::~map
FUNC 1f4fa 1a 0 std::map<std::basic_string<char, std::char_traits<char>, std::allocator<char> >, std::map<std::basic_string<char, std::char_traits<char>, std::allocator<char> >, std::basic_string<char, std::char_traits<char>, std::allocator<char> >, std::less<std::basic_string<char, std::char_traits<char>, std::allocator<char> > >, std::allocator<std::pair<const std::basic_string<char, std::char_traits<char>, std::allocator<char> >, std::basic_string<char, std::char_traits<char>, std::allocator<char> > > > >, std::less<std::basic_string<char, std::char_traits<char>, std::allocator<char> > >, std::allocator<std::pair<const std::basic_string<char, std::char_traits<char>, std::allocator<char> >, std::map<std::basic_string<char, std::char_traits<char>, std::allocator<char> >, std::basic_string<char, std::char_traits<char>, std::allocator<char> >, std::less<std::basic_string<char, std::char_traits<char>, std::allocator<char> > >, std::allocator<std::pair<const std::basic_string<char, std::char_traits<char>, std::allocator<char> >, std::basic_string<char, std::char_traits<char>, std::allocator<char> > > > > > > >::~map
FUNC 1f514 45 0 boost::thread_exception::thread_exception
FUNC 1f55a 37 0 boost::thread_resource_error::thread_resource_error
FUNC 1f592 8e 0 boost::exception_detail::error_info_injector<boost::thread_resource_error>::error_info_injector
FUNC 1f620 78 0 boost::exception_detail::clone_impl<boost::exception_detail::error_info_injector<boost::thread_resource_error> >::clone_impl
FUNC 1f698 ac 0 boost::throw_exception<boost::thread_resource_error>
FUNC 1f744 37 0 boost::lock_error::lock_error
FUNC 1f77c 8e 0 boost::exception_detail::error_info_injector<boost::lock_error>::error_info_injector
FUNC 1f80a 78 0 boost::exception_detail::clone_impl<boost::exception_detail::error_info_injector<boost::lock_error> >::clone_impl
FUNC 1f882 ac 0 boost::throw_exception<boost::lock_error>
FUNC 1f92e 2c 0 boost::lock_guard<boost::mutex>::lock_guard
FUNC 1f95a 1d 0 boost::lock_guard<boost::mutex>::~lock_guard
FUNC 1f977 ae 0 std::operator+<char, std::char_traits<char>, std::allocator<char> >
FUNC 1fa26 34 0 std::list<stLogInfo, std::allocator<stLogInfo> >::push_back
FUNC 1fa5a e5 0 DesignPattern::Singleton<Log::Logger, 0>::instance
FUNC 1fb3f 6e 0 std::operator+<char, std::char_traits<char>, std::allocator<char> >
FUNC 1fbae 1a 0 std::_Rb_tree<std::basic_string<char, std::char_traits<char>, std::allocator<char> >, std::pair<const std::basic_string<char, std::char_traits<char>, std::allocator<char> >, IEC103::stConfigParam>, std::_Select1st<std::pair<const std::basic_string<char, std::char_traits<char>, std::allocator<char> >, IEC103::stConfigParam> >, std::less<std::basic_string<char, std::char_traits<char>, std::allocator<char> > >, std::allocator<std::pair<const std::basic_string<char, std::char_traits<char>, std::allocator<char> >, IEC103::stConfigParam> > >::_Rb_tree_impl<std::less<std::basic_string<char, std::char_traits<char>, std::allocator<char> > >, false>::~_Rb_tree_impl
FUNC 1fbc8 63 0 std::_Rb_tree<std::basic_string<char, std::char_traits<char>, std::allocator<char> >, std::pair<const std::basic_string<char, std::char_traits<char>, std::allocator<char> >, IEC103::stConfigParam>, std::_Select1st<std::pair<const std::basic_string<char, std::char_traits<char>, std::allocator<char> >, IEC103::stConfigParam> >, std::less<std::basic_string<char, std::char_traits<char>, std::allocator<char> > >, std::allocator<std::pair<const std::basic_string<char, std::char_traits<char>, std::allocator<char> >, IEC103::stConfigParam> > >::~_Rb_tree
FUNC 1fc2c 1a 0 std::map<std::basic_string<char, std::char_traits<char>, std::allocator<char> >, IEC103::stConfigParam, std::less<std::basic_string<char, std::char_traits<char>, std::allocator<char> > >, std::allocator<std::pair<const std::basic_string<char, std::char_traits<char>, std::allocator<char> >, IEC103::stConfigParam> > >::size
FUNC 1fc46 1a 0 std::map<std::basic_string<char, std::char_traits<char>, std::allocator<char> >, IEC103::stConfigParam, std::less<std::basic_string<char, std::char_traits<char>, std::allocator<char> > >, std::allocator<std::pair<const std::basic_string<char, std::char_traits<char>, std::allocator<char> >, IEC103::stConfigParam> > >::begin
FUNC 1fc60 15 0 std::_Rb_tree_iterator<std::pair<const std::basic_string<char, std::char_traits<char>, std::allocator<char> >, IEC103::stConfigParam> >::operator->
FUNC 1fc76 1a 0 std::_Rb_tree<std::basic_string<char, std::char_traits<char>, std::allocator<char> >, std::pair<const std::basic_string<char, std::char_traits<char>, std::allocator<char> >, std::map<std::basic_string<char, std::char_traits<char>, std::allocator<char> >, std::basic_string<char, std::char_traits<char>, std::allocator<char> >, std::less<std::basic_string<char, std::char_traits<char>, std::allocator<char> > >, std::allocator<std::pair<const std::basic_string<char, std::char_traits<char>, std::allocator<char> >, std::basic_string<char, std::char_traits<char>, std::allocator<char> > > > > >, std::_Select1st<std::pair<const std::basic_string<char, std::char_traits<char>, std::allocator<char> >, std::map<std::basic_string<char, std::char_traits<char>, std::allocator<char> >, std::basic_string<char, std::char_traits<char>, std::allocator<char> >, std::less<std::basic_string<char, std::char_traits<char>, std::allocator<char> > >, std::allocator<std::pair<const std::basic_string<char, std::char_traits<char>, std::allocator<char> >, std::basic_string<char, std::char_traits<char>, std::allocator<char> > > > > > >, std::less<std::basic_string<char, std::char_traits<char>, std::allocator<char> > >, std::allocator<std::pair<const std::basic_string<char, std::char_traits<char>, std::allocator<char> >, std::map<std::basic_string<char, std::char_traits<char>, std::allocator<char> >, std::basic_string<char, std::char_traits<char>, std::allocator<char> >, std::less<std::basic_string<char, std::char_traits<char>, std::allocator<char> > >, std::allocator<std::pair<const std::basic_string<char, std::char_traits<char>, std::allocator<char> >, std::basic_string<char, std::char_traits<char>, std::allocator<char> > > > > > > >::_Rb_tree_impl<std::less<std::basic_string<char, std::char_traits<char>, std::allocator<char> > >, false>::~_Rb_tree_impl
FUNC 1fc90 63 0 std::_Rb_tree<std::basic_string<char, std::char_traits<char>, std::allocator<char> >, std::pair<const std::basic_string<char, std::char_traits<char>, std::allocator<char> >, std::map<std::basic_string<char, std::char_traits<char>, std::allocator<char> >, std::basic_string<char, std::char_traits<char>, std::allocator<char> >, std::less<std::basic_string<char, std::char_traits<char>, std::allocator<char> > >, std::allocator<std::pair<const std::basic_string<char, std::char_traits<char>, std::allocator<char> >, std::basic_string<char, std::char_traits<char>, std::allocator<char> > > > > >, std::_Select1st<std::pair<const std::basic_string<char, std::char_traits<char>, std::allocator<char> >, std::map<std::basic_string<char, std::char_traits<char>, std::allocator<char> >, std::basic_string<char, std::char_traits<char>, std::allocator<char> >, std::less<std::basic_string<char, std::char_traits<char>, std::allocator<char> > >, std::allocator<std::pair<const std::basic_string<char, std::char_traits<char>, std::allocator<char> >, std::basic_string<char, std::char_traits<char>, std::allocator<char> > > > > > >, std::less<std::basic_string<char, std::char_traits<char>, std::allocator<char> > >, std::allocator<std::pair<const std::basic_string<char, std::char_traits<char>, std::allocator<char> >, std::map<std::basic_string<char, std::char_traits<char>, std::allocator<char> >, std::basic_string<char, std::char_traits<char>, std::allocator<char> >, std::less<std::basic_string<char, std::char_traits<char>, std::allocator<char> > >, std::allocator<std::pair<const std::basic_string<char, std::char_traits<char>, std::allocator<char> >, std::basic_string<char, std::char_traits<char>, std::allocator<char> > > > > > > >::~_Rb_tree
FUNC 1fcf4 1a 0 std::map<std::basic_string<char, std::char_traits<char>, std::allocator<char> >, std::map<std::basic_string<char, std::char_traits<char>, std::allocator<char> >, std::basic_string<char, std::char_traits<char>, std::allocator<char> >, std::less<std::basic_string<char, std::char_traits<char>, std::allocator<char> > >, std::allocator<std::pair<const std::basic_string<char, std::char_traits<char>, std::allocator<char> >, std::basic_string<char, std::char_traits<char>, std::allocator<char> > > > >, std::less<std::basic_string<char, std::char_traits<char>, std::allocator<char> > >, std::allocator<std::pair<const std::basic_string<char, std::char_traits<char>, std::allocator<char> >, std::map<std::basic_string<char, std::char_traits<char>, std::allocator<char> >, std::basic_string<char, std::char_traits<char>, std::allocator<char> >, std::less<std::basic_string<char, std::char_traits<char>, std::allocator<char> > >, std::allocator<std::pair<const std::basic_string<char, std::char_traits<char>, std::allocator<char> >, std::basic_string<char, std::char_traits<char>, std::allocator<char> > > > > > > >::begin
FUNC 1fd0e 15 0 std::_Rb_tree_iterator<std::pair<const std::basic_string<char, std::char_traits<char>, std::allocator<char> >, std::map<std::basic_string<char, std::char_traits<char>, std::allocator<char> >, std::basic_string<char, std::char_traits<char>, std::allocator<char> >, std::less<std::basic_string<char, std::char_traits<char>, std::allocator<char> > >, std::allocator<std::pair<const std::basic_string<char, std::char_traits<char>, std::allocator<char> >, std::basic_string<char, std::char_traits<char>, std::allocator<char> > > > > > >::operator->
FUNC 1fd24 25 0 std::map<std::basic_string<char, std::char_traits<char>, std::allocator<char> >, std::basic_string<char, std::char_traits<char>, std::allocator<char> >, std::less<std::basic_string<char, std::char_traits<char>, std::allocator<char> > >, std::allocator<std::pair<const std::basic_string<char, std::char_traits<char>, std::allocator<char> >, std::basic_string<char, std::char_traits<char>, std::allocator<char> > > > >::map
FUNC 1fd49 2f 0 boost::enable_error_info<boost::thread_resource_error>
FUNC 1fd78 a1 0 boost::exception_detail::error_info_injector<boost::thread_resource_error>::~error_info_injector
FUNC 1fe28 26 0 boost::exception_detail::error_info_injector<boost::thread_resource_error>::~error_info_injector
FUNC 1fe4e 2f 0 boost::enable_current_exception<boost::exception_detail::error_info_injector<boost::thread_resource_error> >
FUNC 1fe7e 8f 0 boost::exception_detail::clone_impl<boost::exception_detail::error_info_injector<boost::thread_resource_error> >::~clone_impl
FUNC 1ff2c 26 0 boost::exception_detail::clone_impl<boost::exception_detail::error_info_injector<boost::thread_resource_error> >::~clone_impl
FUNC 1ff52 2f 0 boost::enable_error_info<boost::lock_error>
FUNC 1ff82 a1 0 boost::exception_detail::error_info_injector<boost::lock_error>::~error_info_injector
FUNC 20032 26 0 boost::exception_detail::error_info_injector<boost::lock_error>::~error_info_injector
FUNC 20058 2f 0 boost::enable_current_exception<boost::exception_detail::error_info_injector<boost::lock_error> >
FUNC 20088 8f 0 boost::exception_detail::clone_impl<boost::exception_detail::error_info_injector<boost::lock_error> >::~clone_impl
FUNC 20136 26 0 boost::exception_detail::clone_impl<boost::exception_detail::error_info_injector<boost::lock_error> >::~clone_impl
FUNC 2015c 25 0 std::list<stLogInfo, std::allocator<stLogInfo> >::end
FUNC 20182 40 0 std::list<stLogInfo, std::allocator<stLogInfo> >::_M_insert
FUNC 201c2 19 0 std::auto_ptr<Log::Logger>::auto_ptr
FUNC 201dc 11 0 std::auto_ptr<Log::Logger>::get
FUNC 201ee 64 0 std::auto_ptr<Log::Logger>::reset
FUNC 20252 1a 0 std::allocator<std::_Rb_tree_node<std::pair<const std::basic_string<char, std::char_traits<char>, std::allocator<char> >, IEC103::stConfigParam> > >::~allocator
FUNC 2026c 69 0 std::_Rb_tree<std::basic_string<char, std::char_traits<char>, std::allocator<char> >, std::pair<const std::basic_string<char, std::char_traits<char>, std::allocator<char> >, IEC103::stConfigParam>, std::_Select1st<std::pair<const std::basic_string<char, std::char_traits<char>, std::allocator<char> >, IEC103::stConfigParam> >, std::less<std::basic_string<char, std::char_traits<char>, std::allocator<char> > >, std::allocator<std::pair<const std::basic_string<char, std::char_traits<char>, std::allocator<char> >, IEC103::stConfigParam> > >::_M_erase
FUNC 202d6 12 0 std::_Rb_tree<std::basic_string<char, std::char_traits<char>, std::allocator<char> >, std::pair<const std::basic_string<char, std::char_traits<char>, std::allocator<char> >, IEC103::stConfigParam>, std::_Select1st<std::pair<const std::basic_string<char, std::char_traits<char>, std::allocator<char> >, IEC103::stConfigParam> >, std::less<std::basic_string<char, std::char_traits<char>, std::allocator<char> > >, std::allocator<std::pair<const std::basic_string<char, std::char_traits<char>, std::allocator<char> >, IEC103::stConfigParam> > >::_M_begin
FUNC 202e8 12 0 std::_Rb_tree<std::basic_string<char, std::char_traits<char>, std::allocator<char> >, std::pair<const std::basic_string<char, std::char_traits<char>, std::allocator<char> >, IEC103::stConfigParam>, std::_Select1st<std::pair<const std::basic_string<char, std::char_traits<char>, std::allocator<char> >, IEC103::stConfigParam> >, std::less<std::basic_string<char, std::char_traits<char>, std::allocator<char> > >, std::allocator<std::pair<const std::basic_string<char, std::char_traits<char>, std::allocator<char> >, IEC103::stConfigParam> > >::size
FUNC 202fa 2c 0 std::_Rb_tree<std::basic_string<char, std::char_traits<char>, std::allocator<char> >, std::pair<const std::basic_string<char, std::char_traits<char>, std::allocator<char> >, IEC103::stConfigParam>, std::_Select1st<std::pair<const std::basic_string<char, std::char_traits<char>, std::allocator<char> >, IEC103::stConfigParam> >, std::less<std::basic_string<char, std::char_traits<char>, std::allocator<char> > >, std::allocator<std::pair<const std::basic_string<char, std::char_traits<char>, std::allocator<char> >, IEC103::stConfigParam> > >::begin
FUNC 20326 1a 0 std::allocator<std::_Rb_tree_node<std::pair<const std::basic_string<char, std::char_traits<char>, std::allocator<char> >, std::map<std::basic_string<char, std::char_traits<char>, std::allocator<char> >, std::basic_string<char, std::char_traits<char>, std::allocator<char> >, std::less<std::basic_string<char, std::char_traits<char>, std::allocator<char> > >, std::allocator<std::pair<const std::basic_string<char, std::char_traits<char>, std::allocator<char> >, std::basic_string<char, std::char_traits<char>, std::allocator<char> > > > > > > >::~allocator
FUNC 20340 69 0 std::_Rb_tree<std::basic_string<char, std::char_traits<char>, std::allocator<char> >, std::pair<const std::basic_string<char, std::char_traits<char>, std::allocator<char> >, std::map<std::basic_string<char, std::char_traits<char>, std::allocator<char> >, std::basic_string<char, std::char_traits<char>, std::allocator<char> >, std::less<std::basic_string<char, std::char_traits<char>, std::allocator<char> > >, std::allocator<std::pair<const std::basic_string<char, std::char_traits<char>, std::allocator<char> >, std::basic_string<char, std::char_traits<char>, std::allocator<char> > > > > >, std::_Select1st<std::pair<const std::basic_string<char, std::char_traits<char>, std::allocator<char> >, std::map<std::basic_string<char, std::char_traits<char>, std::allocator<char> >, std::basic_string<char, std::char_traits<char>, std::allocator<char> >, std::less<std::basic_string<char, std::char_traits<char>, std::allocator<char> > >, std::allocator<std::pair<const std::basic_string<char, std::char_traits<char>, std::allocator<char> >, std::basic_string<char, std::char_traits<char>, std::allocator<char> > > > > > >, std::less<std::basic_string<char, std::char_traits<char>, std::allocator<char> > >, std::allocator<std::pair<const std::basic_string<char, std::char_traits<char>, std::allocator<char> >, std::map<std::basic_string<char, std::char_traits<char>, std::allocator<char> >, std::basic_string<char, std::char_traits<char>, std::allocator<char> >, std::less<std::basic_string<char, std::char_traits<char>, std::allocator<char> > >, std::allocator<std::pair<const std::basic_string<char, std::char_traits<char>, std::allocator<char> >, std::basic_string<char, std::char_traits<char>, std::allocator<char> > > > > > > >::_M_erase
FUNC 203aa 12 0 std::_Rb_tree<std::basic_string<char, std::char_traits<char>, std::allocator<char> >, std::pair<const std::basic_string<char, std::char_traits<char>, std::allocator<char> >, std::map<std::basic_string<char, std::char_traits<char>, std::allocator<char> >, std::basic_string<char, std::char_traits<char>, std::allocator<char> >, std::less<std::basic_string<char, std::char_traits<char>, std::allocator<char> > >, std::allocator<std::pair<const std::basic_string<char, std::char_traits<char>, std::allocator<char> >, std::basic_string<char, std::char_traits<char>, std::allocator<char> > > > > >, std::_Select1st<std::pair<const std::basic_string<char, std::char_traits<char>, std::allocator<char> >, std::map<std::basic_string<char, std::char_traits<char>, std::allocator<char> >, std::basic_string<char, std::char_traits<char>, std::allocator<char> >, std::less<std::basic_string<char, std::char_traits<char>, std::allocator<char> > >, std::allocator<std::pair<const std::basic_string<char, std::char_traits<char>, std::allocator<char> >, std::basic_string<char, std::char_traits<char>, std::allocator<char> > > > > > >, std::less<std::basic_string<char, std::char_traits<char>, std::allocator<char> > >, std::allocator<std::pair<const std::basic_string<char, std::char_traits<char>, std::allocator<char> >, std::map<std::basic_string<char, std::char_traits<char>, std::allocator<char> >, std::basic_string<char, std::char_traits<char>, std::allocator<char> >, std::less<std::basic_string<char, std::char_traits<char>, std::allocator<char> > >, std::allocator<std::pair<const std::basic_string<char, std::char_traits<char>, std::allocator<char> >, std::basic_string<char, std::char_traits<char>, std::allocator<char> > > > > > > >::_M_begin
FUNC 203bc 2c 0 std::_Rb_tree<std::basic_string<char, std::char_traits<char>, std::allocator<char> >, std::pair<const std::basic_string<char, std::char_traits<char>, std::allocator<char> >, std::map<std::basic_string<char, std::char_traits<char>, std::allocator<char> >, std::basic_string<char, std::char_traits<char>, std::allocator<char> >, std::less<std::basic_string<char, std::char_traits<char>, std::allocator<char> > >, std::allocator<std::pair<const std::basic_string<char, std::char_traits<char>, std::allocator<char> >, std::basic_string<char, std::char_traits<char>, std::allocator<char> > > > > >, std::_Select1st<std::pair<const std::basic_string<char, std::char_traits<char>, std::allocator<char> >, std::map<std::basic_string<char, std::char_traits<char>, std::allocator<char> >, std::basic_string<char, std::char_traits<char>, std::allocator<char> >, std::less<std::basic_string<char, std::char_traits<char>, std::allocator<char> > >, std::allocator<std::pair<const std::basic_string<char, std::char_traits<char>, std::allocator<char> >, std::basic_string<char, std::char_traits<char>, std::allocator<char> > > > > > >, std::less<std::basic_string<char, std::char_traits<char>, std::allocator<char> > >, std::allocator<std::pair<const std::basic_string<char, std::char_traits<char>, std::allocator<char> >, std::map<std::basic_string<char, std::char_traits<char>, std::allocator<char> >, std::basic_string<char, std::char_traits<char>, std::allocator<char> >, std::less<std::basic_string<char, std::char_traits<char>, std::allocator<char> > >, std::allocator<std::pair<const std::basic_string<char, std::char_traits<char>, std::allocator<char> >, std::basic_string<char, std::char_traits<char>, std::allocator<char> > > > > > > >::begin
FUNC 203e8 11d 0 std::_Rb_tree<std::basic_string<char, std::char_traits<char>, std::allocator<char> >, std::pair<const std::basic_string<char, std::char_traits<char>, std::allocator<char> >, std::basic_string<char, std::char_traits<char>, std::allocator<char> > >, std::_Select1st<std::pair<const std::basic_string<char, std::char_traits<char>, std::allocator<char> >, std::basic_string<char, std::char_traits<char>, std::allocator<char> > > >, std::less<std::basic_string<char, std::char_traits<char>, std::allocator<char> > >, std::allocator<std::pair<const std::basic_string<char, std::char_traits<char>, std::allocator<char> >, std::basic_string<char, std::char_traits<char>, std::allocator<char> > > > >::_Rb_tree
FUNC 20506 12 0 std::_Rb_tree<std::basic_string<char, std::char_traits<char>, std::allocator<char> >, std::pair<const std::basic_string<char, std::char_traits<char>, std::allocator<char> >, std::basic_string<char, std::char_traits<char>, std::allocator<char> > >, std::_Select1st<std::pair<const std::basic_string<char, std::char_traits<char>, std::allocator<char> >, std::basic_string<char, std::char_traits<char>, std::allocator<char> > > >, std::less<std::basic_string<char, std::char_traits<char>, std::allocator<char> > >, std::allocator<std::pair<const std::basic_string<char, std::char_traits<char>, std::allocator<char> >, std::basic_string<char, std::char_traits<char>, std::allocator<char> > > > >::_M_root
FUNC 20518 169 0 std::_Rb_tree<std::basic_string<char, std::char_traits<char>, std::allocator<char> >, std::pair<const std::basic_string<char, std::char_traits<char>, std::allocator<char> >, std::basic_string<char, std::char_traits<char>, std::allocator<char> > >, std::_Select1st<std::pair<const std::basic_string<char, std::char_traits<char>, std::allocator<char> >, std::basic_string<char, std::char_traits<char>, std::allocator<char> > > >, std::less<std::basic_string<char, std::char_traits<char>, std::allocator<char> > >, std::allocator<std::pair<const std::basic_string<char, std::char_traits<char>, std::allocator<char> >, std::basic_string<char, std::char_traits<char>, std::allocator<char> > > > >::_M_copy
FUNC 20682 12 0 std::_Rb_tree<std::basic_string<char, std::char_traits<char>, std::allocator<char> >, std::pair<const std::basic_string<char, std::char_traits<char>, std::allocator<char> >, std::basic_string<char, std::char_traits<char>, std::allocator<char> > >, std::_Select1st<std::pair<const std::basic_string<char, std::char_traits<char>, std::allocator<char> >, std::basic_string<char, std::char_traits<char>, std::allocator<char> > > >, std::less<std::basic_string<char, std::char_traits<char>, std::allocator<char> > >, std::allocator<std::pair<const std::basic_string<char, std::char_traits<char>, std::allocator<char> >, std::basic_string<char, std::char_traits<char>, std::allocator<char> > > > >::_M_begin
FUNC 20694 1a 0 std::_Rb_tree<std::basic_string<char, std::char_traits<char>, std::allocator<char> >, std::pair<const std::basic_string<char, std::char_traits<char>, std::allocator<char> >, std::basic_string<char, std::char_traits<char>, std::allocator<char> > >, std::_Select1st<std::pair<const std::basic_string<char, std::char_traits<char>, std::allocator<char> >, std::basic_string<char, std::char_traits<char>, std::allocator<char> > > >, std::less<std::basic_string<char, std::char_traits<char>, std::allocator<char> > >, std::allocator<std::pair<const std::basic_string<char, std::char_traits<char>, std::allocator<char> >, std::basic_string<char, std::char_traits<char>, std::allocator<char> > > > >::_S_minimum
FUNC 206ae 1a 0 std::_Rb_tree<std::basic_string<char, std::char_traits<char>, std::allocator<char> >, std::pair<const std::basic_string<char, std::char_traits<char>, std::allocator<char> >, std::basic_string<char, std::char_traits<char>, std::allocator<char> > >, std::_Select1st<std::pair<const std::basic_string<char, std::char_traits<char>, std::allocator<char> >, std::basic_string<char, std::char_traits<char>, std::allocator<char> > > >, std::less<std::basic_string<char, std::char_traits<char>, std::allocator<char> > >, std::allocator<std::pair<const std::basic_string<char, std::char_traits<char>, std::allocator<char> >, std::basic_string<char, std::char_traits<char>, std::allocator<char> > > > >::_S_maximum
FUNC 206c8 83 0 boost::exception_detail::error_info_injector<boost::thread_resource_error>::error_info_injector
FUNC 2074c ce 0 boost::exception_detail::clone_impl<boost::exception_detail::error_info_injector<boost::thread_resource_error> >::clone_impl
FUNC 2081a 83 0 boost::exception_detail::error_info_injector<boost::lock_error>::error_info_injector
FUNC 2089e ce 0 boost::exception_detail::clone_impl<boost::exception_detail::error_info_injector<boost::lock_error> >::clone_impl
FUNC 2096c 19 0 std::_List_iterator<stLogInfo>::_List_iterator
FUNC 20986 bd 0 std::list<stLogInfo, std::allocator<stLogInfo> >::_M_create_node
FUNC 20a44 a 0 __gnu_cxx::new_allocator<std::_Rb_tree_node<std::pair<const std::basic_string<char, std::char_traits<char>, std::allocator<char> >, IEC103::stConfigParam> > >::~new_allocator
FUNC 20a4e 12 0 std::_Rb_tree<std::basic_string<char, std::char_traits<char>, std::allocator<char> >, std::pair<const std::basic_string<char, std::char_traits<char>, std::allocator<char> >, IEC103::stConfigParam>, std::_Select1st<std::pair<const std::basic_string<char, std::char_traits<char>, std::allocator<char> >, IEC103::stConfigParam> >, std::less<std::basic_string<char, std::char_traits<char>, std::allocator<char> > >, std::allocator<std::pair<const std::basic_string<char, std::char_traits<char>, std::allocator<char> >, IEC103::stConfigParam> > >::_S_right
FUNC 20a60 12 0 std::_Rb_tree<std::basic_string<char, std::char_traits<char>, std::allocator<char> >, std::pair<const std::basic_string<char, std::char_traits<char>, std::allocator<char> >, IEC103::stConfigParam>, std::_Select1st<std::pair<const std::basic_string<char, std::char_traits<char>, std::allocator<char> >, IEC103::stConfigParam> >, std::less<std::basic_string<char, std::char_traits<char>, std::allocator<char> > >, std::allocator<std::pair<const std::basic_string<char, std::char_traits<char>, std::allocator<char> >, IEC103::stConfigParam> > >::_S_left
FUNC 20a72 86 0 std::_Rb_tree<std::basic_string<char, std::char_traits<char>, std::allocator<char> >, std::pair<const std::basic_string<char, std::char_traits<char>, std::allocator<char> >, IEC103::stConfigParam>, std::_Select1st<std::pair<const std::basic_string<char, std::char_traits<char>, std::allocator<char> >, IEC103::stConfigParam> >, std::less<std::basic_string<char, std::char_traits<char>, std::allocator<char> > >, std::allocator<std::pair<const std::basic_string<char, std::char_traits<char>, std::allocator<char> >, IEC103::stConfigParam> > >::_M_destroy_node
FUNC 20af8 e 0 std::_Rb_tree<std::basic_string<char, std::char_traits<char>, std::allocator<char> >, std::pair<const std::basic_string<char, std::char_traits<char>, std::allocator<char> >, IEC103::stConfigParam>, std::_Select1st<std::pair<const std::basic_string<char, std::char_traits<char>, std::allocator<char> >, IEC103::stConfigParam> >, std::less<std::basic_string<char, std::char_traits<char>, std::allocator<char> > >, std::allocator<std::pair<const std::basic_string<char, std::char_traits<char>, std::allocator<char> >, IEC103::stConfigParam> > >::_M_get_Node_allocator
FUNC 20b06 19 0 std::_Rb_tree_iterator<std::pair<const std::basic_string<char, std::char_traits<char>, std::allocator<char> >, IEC103::stConfigParam> >::_Rb_tree_iterator
FUNC 20b20 a 0 __gnu_cxx::new_allocator<std::_Rb_tree_node<std::pair<const std::basic_string<char, std::char_traits<char>, std::allocator<char> >, std::map<std::basic_string<char, std::char_traits<char>, std::allocator<char> >, std::basic_string<char, std::char_traits<char>, std::allocator<char> >, std::less<std::basic_string<char, std::char_traits<char>, std::allocator<char> > >, std::allocator<std::pair<const std::basic_string<char, std::char_traits<char>, std::allocator<char> >, std::basic_string<char, std::char_traits<char>, std::allocator<char> > > > > > > >::~new_allocator
FUNC 20b2a 12 0 std::_Rb_tree<std::basic_string<char, std::char_traits<char>, std::allocator<char> >, std::pair<const std::basic_string<char, std::char_traits<char>, std::allocator<char> >, std::map<std::basic_string<char, std::char_traits<char>, std::allocator<char> >, std::basic_string<char, std::char_traits<char>, std::allocator<char> >, std::less<std::basic_string<char, std::char_traits<char>, std::allocator<char> > >, std::allocator<std::pair<const std::basic_string<char, std::char_traits<char>, std::allocator<char> >, std::basic_string<char, std::char_traits<char>, std::allocator<char> > > > > >, std::_Select1st<std::pair<const std::basic_string<char, std::char_traits<char>, std::allocator<char> >, std::map<std::basic_string<char, std::char_traits<char>, std::allocator<char> >, std::basic_string<char, std::char_traits<char>, std::allocator<char> >, std::less<std::basic_string<char, std::char_traits<char>, std::allocator<char> > >, std::allocator<std::pair<const std::basic_string<char, std::char_traits<char>, std::allocator<char> >, std::basic_string<char, std::char_traits<char>, std::allocator<char> > > > > > >, std::less<std::basic_string<char, std::char_traits<char>, std::allocator<char> > >, std::allocator<std::pair<const std::basic_string<char, std::char_traits<char>, std::allocator<char> >, std::map<std::basic_string<char, std::char_traits<char>, std::allocator<char> >, std::basic_string<char, std::char_traits<char>, std::allocator<char> >, std::less<std::basic_string<char, std::char_traits<char>, std::allocator<char> > >, std::allocator<std::pair<const std::basic_string<char, std::char_traits<char>, std::allocator<char> >, std::basic_string<char, std::char_traits<char>, std::allocator<char> > > > > > > >::_S_right
FUNC 20b3c 12 0 std::_Rb_tree<std::basic_string<char, std::char_traits<char>, std::allocator<char> >, std::pair<const std::basic_string<char, std::char_traits<char>, std::allocator<char> >, std::map<std::basic_string<char, std::char_traits<char>, std::allocator<char> >, std::basic_string<char, std::char_traits<char>, std::allocator<char> >, std::less<std::basic_string<char, std::char_traits<char>, std::allocator<char> > >, std::allocator<std::pair<const std::basic_string<char, std::char_traits<char>, std::allocator<char> >, std::basic_string<char, std::char_traits<char>, std::allocator<char> > > > > >, std::_Select1st<std::pair<const std::basic_string<char, std::char_traits<char>, std::allocator<char> >, std::map<std::basic_string<char, std::char_traits<char>, std::allocator<char> >, std::basic_string<char, std::char_traits<char>, std::allocator<char> >, std::less<std::basic_string<char, std::char_traits<char>, std::allocator<char> > >, std::allocator<std::pair<const std::basic_string<char, std::char_traits<char>, std::allocator<char> >, std::basic_string<char, std::char_traits<char>, std::allocator<char> > > > > > >, std::less<std::basic_string<char, std::char_traits<char>, std::allocator<char> > >, std::allocator<std::pair<const std::basic_string<char, std::char_traits<char>, std::allocator<char> >, std::map<std::basic_string<char, std::char_traits<char>, std::allocator<char> >, std::basic_string<char, std::char_traits<char>, std::allocator<char> >, std::less<std::basic_string<char, std::char_traits<char>, std::allocator<char> > >, std::allocator<std::pair<const std::basic_string<char, std::char_traits<char>, std::allocator<char> >, std::basic_string<char, std::char_traits<char>, std::allocator<char> > > > > > > >::_S_left
FUNC 20b4e 86 0 std::_Rb_tree<std::basic_string<char, std::char_traits<char>, std::allocator<char> >, std::pair<const std::basic_string<char, std::char_traits<char>, std::allocator<char> >, std::map<std::basic_string<char, std::char_traits<char>, std::allocator<char> >, std::basic_string<char, std::char_traits<char>, std::allocator<char> >, std::less<std::basic_string<char, std::char_traits<char>, std::allocator<char> > >, std::allocator<std::pair<const std::basic_string<char, std::char_traits<char>, std::allocator<char> >, std::basic_string<char, std::char_traits<char>, std::allocator<char> > > > > >, std::_Select1st<std::pair<const std::basic_string<char, std::char_traits<char>, std::allocator<char> >, std::map<std::basic_string<char, std::char_traits<char>, std::allocator<char> >, std::basic_string<char, std::char_traits<char>, std::allocator<char> >, std::less<std::basic_string<char, std::char_traits<char>, std::allocator<char> > >, std::allocator<std::pair<const std::basic_string<char, std::char_traits<char>, std::allocator<char> >, std::basic_string<char, std::char_traits<char>, std::allocator<char> > > > > > >, std::less<std::basic_string<char, std::char_traits<char>, std::allocator<char> > >, std::allocator<std::pair<const std::basic_string<char, std::char_traits<char>, std::allocator<char> >, std::map<std::basic_string<char, std::char_traits<char>, std::allocator<char> >, std::basic_string<char, std::char_traits<char>, std::allocator<char> >, std::less<std::basic_string<char, std::char_traits<char>, std::allocator<char> > >, std::allocator<std::pair<const std::basic_string<char, std::char_traits<char>, std::allocator<char> >, std::basic_string<char, std::char_traits<char>, std::allocator<char> > > > > > > >::_M_destroy_node
FUNC 20bd4 e 0 std::_Rb_tree<std::basic_string<char, std::char_traits<char>, std::allocator<char> >, std::pair<const std::basic_string<char, std::char_traits<char>, std::allocator<char> >, std::map<std::basic_string<char, std::char_traits<char>, std::allocator<char> >, std::basic_string<char, std::char_traits<char>, std::allocator<char> >, std::less<std::basic_string<char, std::char_traits<char>, std::allocator<char> > >, std::allocator<std::pair<const std::basic_string<char, std::char_traits<char>, std::allocator<char> >, std::basic_string<char, std::char_traits<char>, std::allocator<char> > > > > >, std::_Select1st<std::pair<const std::basic_string<char, std::char_traits<char>, std::allocator<char> >, std::map<std::basic_string<char, std::char_traits<char>, std::allocator<char> >, std::basic_string<char, std::char_traits<char>, std::allocator<char> >, std::less<std::basic_string<char, std::char_traits<char>, std::allocator<char> > >, std::allocator<std::pair<const std::basic_string<char, std::char_traits<char>, std::allocator<char> >, std::basic_string<char, std::char_traits<char>, std::allocator<char> > > > > > >, std::less<std::basic_string<char, std::char_traits<char>, std::allocator<char> > >, std::allocator<std::pair<const std::basic_string<char, std::char_traits<char>, std::allocator<char> >, std::map<std::basic_string<char, std::char_traits<char>, std::allocator<char> >, std::basic_string<char, std::char_traits<char>, std::allocator<char> >, std::less<std::basic_string<char, std::char_traits<char>, std::allocator<char> > >, std::allocator<std::pair<const std::basic_string<char, std::char_traits<char>, std::allocator<char> >, std::basic_string<char, std::char_traits<char>, std::allocator<char> > > > > > > >::_M_get_Node_allocator
FUNC 20be2 19 0 std::_Rb_tree_iterator<std::pair<const std::basic_string<char, std::char_traits<char>, std::allocator<char> >, std::map<std::basic_string<char, std::char_traits<char>, std::allocator<char> >, std::basic_string<char, std::char_traits<char>, std::allocator<char> >, std::less<std::basic_string<char, std::char_traits<char>, std::allocator<char> > >, std::allocator<std::pair<const std::basic_string<char, std::char_traits<char>, std::allocator<char> >, std::basic_string<char, std::char_traits<char>, std::allocator<char> > > > > > >::_Rb_tree_iterator
FUNC 20bfc 9b 0 std::_Rb_tree<std::basic_string<char, std::char_traits<char>, std::allocator<char> >, std::pair<const std::basic_string<char, std::char_traits<char>, std::allocator<char> >, std::basic_string<char, std::char_traits<char>, std::allocator<char> > >, std::_Select1st<std::pair<const std::basic_string<char, std::char_traits<char>, std::allocator<char> >, std::basic_string<char, std::char_traits<char>, std::allocator<char> > > >, std::less<std::basic_string<char, std::char_traits<char>, std::allocator<char> > >, std::allocator<std::pair<const std::basic_string<char, std::char_traits<char>, std::allocator<char> >, std::basic_string<char, std::char_traits<char>, std::allocator<char> > > > >::_Rb_tree_impl<std::less<std::basic_string<char, std::char_traits<char>, std::allocator<char> > >, false>::_Rb_tree_impl
FUNC 20c98 55 0 std::_Rb_tree<std::basic_string<char, std::char_traits<char>, std::allocator<char> >, std::pair<const std::basic_string<char, std::char_traits<char>, std::allocator<char> >, std::basic_string<char, std::char_traits<char>, std::allocator<char> > >, std::_Select1st<std::pair<const std::basic_string<char, std::char_traits<char>, std::allocator<char> >, std::basic_string<char, std::char_traits<char>, std::allocator<char> > > >, std::less<std::basic_string<char, std::char_traits<char>, std::allocator<char> > >, std::allocator<std::pair<const std::basic_string<char, std::char_traits<char>, std::allocator<char> >, std::basic_string<char, std::char_traits<char>, std::allocator<char> > > > >::_M_clone_node
FUNC 20ced 12 0 std::_Rb_tree<std::basic_string<char, std::char_traits<char>, std::allocator<char> >, std::pair<const std::basic_string<char, std::char_traits<char>, std::allocator<char> >, std::basic_string<char, std::char_traits<char>, std::allocator<char> > >, std::_Select1st<std::pair<const std::basic_string<char, std::char_traits<char>, std::allocator<char> >, std::basic_string<char, std::char_traits<char>, std::allocator<char> > > >, std::less<std::basic_string<char, std::char_traits<char>, std::allocator<char> > >, std::allocator<std::pair<const std::basic_string<char, std::char_traits<char>, std::allocator<char> >, std::basic_string<char, std::char_traits<char>, std::allocator<char> > > > >::_S_left
FUNC 20d00 24 0 std::_List_base<stLogInfo, std::allocator<stLogInfo> >::_M_get_node
FUNC 20d24 3b 0 std::_List_base<stLogInfo, std::allocator<stLogInfo> >::_M_get_Tp_allocator
FUNC 20d60 1a 0 std::allocator<stLogInfo>::~allocator
FUNC 20d7a 91 0 stLogInfo::stLogInfo
FUNC 20e0c 77 0 __gnu_cxx::new_allocator<stLogInfo>::construct
FUNC 20e84 2a 0 std::_List_base<stLogInfo, std::allocator<stLogInfo> >::_M_put_node
FUNC 20eae 3b 0 std::_Rb_tree<std::basic_string<char, std::char_traits<char>, std::allocator<char> >, std::pair<const std::basic_string<char, std::char_traits<char>, std::allocator<char> >, IEC103::stConfigParam>, std::_Select1st<std::pair<const std::basic_string<char, std::char_traits<char>, std::allocator<char> >, IEC103::stConfigParam> >, std::less<std::basic_string<char, std::char_traits<char>, std::allocator<char> > >, std::allocator<std::pair<const std::basic_string<char, std::char_traits<char>, std::allocator<char> >, IEC103::stConfigParam> > >::get_allocator
FUNC 20eea 1a 0 std::allocator<std::pair<const std::basic_string<char, std::char_traits<char>, std::allocator<char> >, IEC103::stConfigParam> >::~allocator
FUNC 20f04 84 0 IEC103::stConfigParam::~stConfigParam
FUNC 20f88 55 0 std::pair<const std::basic_string<char, std::char_traits<char>, std::allocator<char> >, IEC103::stConfigParam>::~pair
FUNC 20fde 1e 0 __gnu_cxx::new_allocator<std::pair<const std::basic_string<char, std::char_traits<char>, std::allocator<char> >, IEC103::stConfigParam> >::destroy
FUNC 20ffc 2a 0 std::_Rb_tree<std::basic_string<char, std::char_traits<char>, std::allocator<char> >, std::pair<const std::basic_string<char, std::char_traits<char>, std::allocator<char> >, IEC103::stConfigParam>, std::_Select1st<std::pair<const std::basic_string<char, std::char_traits<char>, std::allocator<char> >, IEC103::stConfigParam> >, std::less<std::basic_string<char, std::char_traits<char>, std::allocator<char> > >, std::allocator<std::pair<const std::basic_string<char, std::char_traits<char>, std::allocator<char> >, IEC103::stConfigParam> > >::_M_put_node
FUNC 21026 3b 0 std::_Rb_tree<std::basic_string<char, std::char_traits<char>, std::allocator<char> >, std::pair<const std::basic_string<char, std::char_traits<char>, std::allocator<char> >, std::map<std::basic_string<char, std::char_traits<char>, std::allocator<char> >, std::basic_string<char, std::char_traits<char>, std::allocator<char> >, std::less<std::basic_string<char, std::char_traits<char>, std::allocator<char> > >, std::allocator<std::pair<const std::basic_string<char, std::char_traits<char>, std::allocator<char> >, std::basic_string<char, std::char_traits<char>, std::allocator<char> > > > > >, std::_Select1st<std::pair<const std::basic_string<char, std::char_traits<char>, std::allocator<char> >, std::map<std::basic_string<char, std::char_traits<char>, std::allocator<char> >, std::basic_string<char, std::char_traits<char>, std::allocator<char> >, std::less<std::basic_string<char, std::char_traits<char>, std::allocator<char> > >, std::allocator<std::pair<const std::basic_string<char, std::char_traits<char>, std::allocator<char> >, std::basic_string<char, std::char_traits<char>, std::allocator<char> > > > > > >, std::less<std::basic_string<char, std::char_traits<char>, std::allocator<char> > >, std::allocator<std::pair<const std::basic_string<char, std::char_traits<char>, std::allocator<char> >, std::map<std::basic_string<char, std::char_traits<char>, std::allocator<char> >, std::basic_string<char, std::char_traits<char>, std::allocator<char> >, std::less<std::basic_string<char, std::char_traits<char>, std::allocator<char> > >, std::allocator<std::pair<const std::basic_string<char, std::char_traits<char>, std::allocator<char> >, std::basic_string<char, std::char_traits<char>, std::allocator<char> > > > > > > >::get_allocator
FUNC 21062 1a 0 std::allocator<std::pair<const std::basic_string<char, std::char_traits<char>, std::allocator<char> >, std::map<std::basic_string<char, std::char_traits<char>, std::allocator<char> >, std::basic_string<char, std::char_traits<char>, std::allocator<char> >, std::less<std::basic_string<char, std::char_traits<char>, std::allocator<char> > >, std::allocator<std::pair<const std::basic_string<char, std::char_traits<char>, std::allocator<char> >, std::basic_string<char, std::char_traits<char>, std::allocator<char> > > > > > >::~allocator
FUNC 2107c 55 0 std::pair<const std::basic_string<char, std::char_traits<char>, std::allocator<char> >, std::map<std::basic_string<char, std::char_traits<char>, std::allocator<char> >, std::basic_string<char, std::char_traits<char>, std::allocator<char> >, std::less<std::basic_string<char, std::char_traits<char>, std::allocator<char> > >, std::allocator<std::pair<const std::basic_string<char, std::char_traits<char>, std::allocator<char> >, std::basic_string<char, std::char_traits<char>, std::allocator<char> > > > > >::~pair
FUNC 210d2 1e 0 __gnu_cxx::new_allocator<std::pair<const std::basic_string<char, std::char_traits<char>, std::allocator<char> >, std::map<std::basic_string<char, std::char_traits<char>, std::allocator<char> >, std::basic_string<char, std::char_traits<char>, std::allocator<char> >, std::less<std::basic_string<char, std::char_traits<char>, std::allocator<char> > >, std::allocator<std::pair<const std::basic_string<char, std::char_traits<char>, std::allocator<char> >, std::basic_string<char, std::char_traits<char>, std::allocator<char> > > > > > >::destroy
FUNC 210f0 2a 0 std::_Rb_tree<std::basic_string<char, std::char_traits<char>, std::allocator<char> >, std::pair<const std::basic_string<char, std::char_traits<char>, std::allocator<char> >, std::map<std::basic_string<char, std::char_traits<char>, std::allocator<char> >, std::basic_string<char, std::char_traits<char>, std::allocator<char> >, std::less<std::basic_string<char, std::char_traits<char>, std::allocator<char> > >, std::allocator<std::pair<const std::basic_string<char, std::char_traits<char>, std::allocator<char> >, std::basic_string<char, std::char_traits<char>, std::allocator<char> > > > > >, std::_Select1st<std::pair<const std::basic_string<char, std::char_traits<char>, std::allocator<char> >, std::map<std::basic_string<char, std::char_traits<char>, std::allocator<char> >, std::basic_string<char, std::char_traits<char>, std::allocator<char> >, std::less<std::basic_string<char, std::char_traits<char>, std::allocator<char> > >, std::allocator<std::pair<const std::basic_string<char, std::char_traits<char>, std::allocator<char> >, std::basic_string<char, std::char_traits<char>, std::allocator<char> > > > > > >, std::less<std::basic_string<char, std::char_traits<char>, std::allocator<char> > >, std::allocator<std::pair<const std::basic_string<char, std::char_traits<char>, std::allocator<char> >, std::map<std::basic_string<char, std::char_traits<char>, std::allocator<char> >, std::basic_string<char, std::char_traits<char>, std::allocator<char> >, std::less<std::basic_string<char, std::char_traits<char>, std::allocator<char> > >, std::allocator<std::pair<const std::basic_string<char, std::char_traits<char>, std::allocator<char> >, std::basic_string<char, std::char_traits<char>, std::allocator<char> > > > > > > >::_M_put_node
FUNC 2111a 25 0 std::allocator<std::_Rb_tree_node<std::pair<const std::basic_string<char, std::char_traits<char>, std::allocator<char> >, std::basic_string<char, std::char_traits<char>, std::allocator<char> > > > >::allocator
FUNC 21140 55 0 __gnu_cxx::new_allocator<std::_List_node<stLogInfo> >::allocate
FUNC 21196 e 0 std::_List_base<stLogInfo, std::allocator<stLogInfo> >::_M_get_Node_allocator
FUNC 211a4 1e 0 std::allocator<stLogInfo>::allocator<std::_List_node<stLogInfo> >
FUNC 211c2 a 0 __gnu_cxx::new_allocator<stLogInfo>::~new_allocator
FUNC 211cc 22 0 __gnu_cxx::new_allocator<std::_List_node<stLogInfo> >::deallocate
FUNC 211ee 1e 0 std::allocator<std::pair<const std::basic_string<char, std::char_traits<char>, std::allocator<char> >, IEC103::stConfigParam> >::allocator<std::_Rb_tree_node<std::pair<const std::basic_string<char, std::char_traits<char>, std::allocator<char> >, IEC103::stConfigParam> > >
FUNC 2120c a 0 __gnu_cxx::new_allocator<std::pair<const std::basic_string<char, std::char_traits<char>, std::allocator<char> >, IEC103::stConfigParam> >::~new_allocator
FUNC 21216 22 0 __gnu_cxx::new_allocator<std::_Rb_tree_node<std::pair<const std::basic_string<char, std::char_traits<char>, std::allocator<char> >, IEC103::stConfigParam> > >::deallocate
FUNC 21238 1e 0 std::allocator<std::pair<const std::basic_string<char, std::char_traits<char>, std::allocator<char> >, std::map<std::basic_string<char, std::char_traits<char>, std::allocator<char> >, std::basic_string<char, std::char_traits<char>, std::allocator<char> >, std::less<std::basic_string<char, std::char_traits<char>, std::allocator<char> > >, std::allocator<std::pair<const std::basic_string<char, std::char_traits<char>, std::allocator<char> >, std::basic_string<char, std::char_traits<char>, std::allocator<char> > > > > > >::allocator<std::_Rb_tree_node<std::pair<const std::basic_string<char, std::char_traits<char>, std::allocator<char> >, std::map<std::basic_string<char, std::char_traits<char>, std::allocator<char> >, std::basic_string<char, std::char_traits<char>, std::allocator<char> >, std::less<std::basic_string<char, std::char_traits<char>, std::allocator<char> > >, std::allocator<std::pair<const std::basic_string<char, std::char_traits<char>, std::allocator<char> >, std::basic_string<char, std::char_traits<char>, std::allocator<char> > > > > > > >
FUNC 21256 a 0 __gnu_cxx::new_allocator<std::pair<const std::basic_string<char, std::char_traits<char>, std::allocator<char> >, std::map<std::basic_string<char, std::char_traits<char>, std::allocator<char> >, std::basic_string<char, std::char_traits<char>, std::allocator<char> >, std::less<std::basic_string<char, std::char_traits<char>, std::allocator<char> > >, std::allocator<std::pair<const std::basic_string<char, std::char_traits<char>, std::allocator<char> >, std::basic_string<char, std::char_traits<char>, std::allocator<char> > > > > > >::~new_allocator
FUNC 21260 22 0 __gnu_cxx::new_allocator<std::_Rb_tree_node<std::pair<const std::basic_string<char, std::char_traits<char>, std::allocator<char> >, std::map<std::basic_string<char, std::char_traits<char>, std::allocator<char> >, std::basic_string<char, std::char_traits<char>, std::allocator<char> >, std::less<std::basic_string<char, std::char_traits<char>, std::allocator<char> > >, std::allocator<std::pair<const std::basic_string<char, std::char_traits<char>, std::allocator<char> >, std::basic_string<char, std::char_traits<char>, std::allocator<char> > > > > > > >::deallocate
FUNC 21282 e 0 __gnu_cxx::new_allocator<std::_Rb_tree_node<std::pair<const std::basic_string<char, std::char_traits<char>, std::allocator<char> >, std::basic_string<char, std::char_traits<char>, std::allocator<char> > > > >::new_allocator
FUNC 21290 14 0 __gnu_cxx::new_allocator<std::_List_node<stLogInfo> >::max_size
FUNC 212a4 a 0 __gnu_cxx::new_allocator<stLogInfo>::new_allocator
FUNC 212ae a 0 __gnu_cxx::new_allocator<std::pair<const std::basic_string<char, std::char_traits<char>, std::allocator<char> >, IEC103::stConfigParam> >::new_allocator
FUNC 212b8 a 0 __gnu_cxx::new_allocator<std::pair<const std::basic_string<char, std::char_traits<char>, std::allocator<char> >, std::map<std::basic_string<char, std::char_traits<char>, std::allocator<char> >, std::basic_string<char, std::char_traits<char>, std::allocator<char> >, std::less<std::basic_string<char, std::char_traits<char>, std::allocator<char> > >, std::allocator<std::pair<const std::basic_string<char, std::char_traits<char>, std::allocator<char> >, std::basic_string<char, std::char_traits<char>, std::allocator<char> > > > > > >::new_allocator
FUNC 212c8 6c 0 boost::exception_detail::clone_impl<boost::exception_detail::error_info_injector<boost::lock_error> >::clone
FUNC 2133a 5d 0 boost::exception_detail::clone_impl<boost::exception_detail::error_info_injector<boost::lock_error> >::rethrow
FUNC 2139e 6c 0 boost::exception_detail::clone_impl<boost::exception_detail::error_info_injector<boost::thread_resource_error> >::clone
FUNC 21410 5d 0 boost::exception_detail::clone_impl<boost::exception_detail::error_info_injector<boost::thread_resource_error> >::rethrow
FUNC 2146e 30 0 std::auto_ptr<Log::Logger>::~auto_ptr
FUNC 214a0 27 0 Inet::Inet
FUNC 214c8 35 0 Inet::~Inet
FUNC 214fe 26 0 Inet::~Inet
FUNC 21524 13d 0 combine_folder
FUNC 21661 23e 0 InitPaths
FUNC 2189f 31 0 InitLogging
FUNC 218d0 c8 0 GetLocalDate
FUNC 21998 c8 0 GetCurTime
FUNC 21a60 2a1 0 Logger::Logger
FUNC 21d02 138 0 Logger::~Logger
FUNC 21e3a 26 0 Logger::~Logger
FUNC 21e60 124 0 Logger::Debug
FUNC 21f84 20c 0 Logger::Debug
FUNC 22190 125 0 Logger::Info
FUNC 222b6 20d 0 Logger::Info
FUNC 224c4 125 0 Logger::Warn
FUNC 225ea 20d 0 Logger::Warn
FUNC 227f8 125 0 Logger::Error
FUNC 2291e 20d 0 Logger::Error
FUNC 22b2c 125 0 Logger::Fatal
FUNC 22c52 20d 0 Logger::Fatal
FUNC 22e60 bc 0 Logger::GetInstance
FUNC 22f1c 164 0 Logger::Log
FUNC 23080 24a 0 Logger::Log
FUNC 232ca 266 0 Logger::Log
FUNC 23530 b 0 Logger::GetInstancePtr
FUNC 2353c 354 0 Logger::Log
FUNC 23890 85 0 LogMessage::LogMessage
FUNC 23916 86 0 LogMessage::~LogMessage
FUNC 2399c 26 0 LogMessage::~LogMessage
FUNC 239c2 4e 0 __static_initialization_and_destruction_0
FUNC 23a10 15 0 _GLOBAL__I_Logger.cpp
FUNC 23a26 35 0 ILogger::~ILogger
FUNC 23a5c 26 0 ILogger::~ILogger
FUNC 23a82 12 0 Logger::stream
FUNC 23a94 12c 0 FileHelper::CreateDir
FUNC 23bc0 1c 0 ILogger::ILogger
FUNC 23bdc eb 0 MemCache::MemCache
FUNC 23cc8 80 0 MemCache::~MemCache
FUNC 23d48 26 0 MemCache::~MemCache
FUNC 23d6e 74 0 MemCache::GetInstance
FUNC 23de2 4bc 0 MemCache::Init
FUNC 2429e af 0 MemCache::GetFunction
FUNC 2434e 1a2 0 MemCache::WritePointsValue_V
FUNC 244f0 2b 0 MemCache::Post
FUNC 2451c 3c 0 MemCache::Free
FUNC 24558 ca 0 __static_initialization_and_destruction_0
FUNC 24622 15 0 _GLOBAL__I_MemCache.cpp
FUNC 24638 14 0 Config::GetRedisPostName
FUNC 2464c 15 0 Config::GetRedisPostSize
FUNC 24662 39 0 std::vector<Tag, std::allocator<Tag> >::operator[]
FUNC 2469c 2d 0 std::vector<Tag, std::allocator<Tag> >::size
FUNC 246cc 123 0 protobuf_RtdbMessage_2eproto::TableStruct::Shutdown
FUNC 247f0 2a7 0 protobuf_RtdbMessage_2eproto::TableStruct::InitDefaultsImpl
FUNC 24a97 1c 0 protobuf_RtdbMessage_2eproto::InitDefaults
FUNC 24ab3 1a 0 protobuf_RtdbMessage_2eproto::AddDescriptorsImpl
FUNC 24acd 1c 0 protobuf_RtdbMessage_2eproto::AddDescriptors
FUNC 24ae9 20 0 PointValueType_IsValid
FUNC 24b09 20 0 RtdbMessageType_IsValid
FUNC 24b29 20 0 ObjectType_IsValid
FUNC 24b4a b3 0 RawMessage::RawMessage
FUNC 24bfe 1f8 0 RawMessage::RawMessage
FUNC 24df6 63 0 RawMessage::SharedCtor
FUNC 24e5a a7 0 RawMessage::~RawMessage
FUNC 24f02 26 0 RawMessage::~RawMessage
FUNC 24f28 3e 0 RawMessage::SharedDtor
FUNC 24f66 17 0 RawMessage::SetCachedSize
FUNC 24f7e 10 0 RawMessage::default_instance
FUNC 24f8e 78 0 RawMessage::New
FUNC 25006 58 0 RawMessage::Clear
FUNC 2505e 40f 0 RawMessage::MergePartialFromCodedStream
FUNC 2546e 177 0 RawMessage::SerializeWithCachedSizes
FUNC 255e6 117 0 RawMessage::ByteSizeLong
FUNC 256fe 30 0 RawMessage::CheckTypeAndMergeFrom
FUNC 2572e 25d 0 RawMessage::MergeFrom
FUNC 2598c 49 0 RawMessage::CopyFrom
FUNC 259d6 f 0 RawMessage::IsInitialized
FUNC 259e6 32 0 RawMessage::Swap
FUNC 25a18 b9 0 RawMessage::InternalSwap
FUNC 25ad2 73 0 RawMessage::GetTypeName
FUNC 25b46 b3 0 AlarmMessage::AlarmMessage
FUNC 25bfa 2a4 0 AlarmMessage::AlarmMessage
FUNC 25e9e 93 0 AlarmMessage::SharedCtor
FUNC 25f32 a7 0 AlarmMessage::~AlarmMessage
FUNC 25fda 26 0 AlarmMessage::~AlarmMessage
FUNC 26000 6e 0 AlarmMessage::SharedDtor
FUNC 2606e 17 0 AlarmMessage::SetCachedSize
FUNC 26086 10 0 AlarmMessage::default_instance
FUNC 26096 78 0 AlarmMessage::New
FUNC 2610e 88 0 AlarmMessage::Clear
FUNC 26196 5a9 0 AlarmMessage::MergePartialFromCodedStream
FUNC 26740 2cf 0 AlarmMessage::SerializeWithCachedSizes
FUNC 26a10 1fb 0 AlarmMessage::ByteSizeLong
FUNC 26c0c 30 0 AlarmMessage::CheckTypeAndMergeFrom
FUNC 26c3c 35f 0 AlarmMessage::MergeFrom
FUNC 26f9c 49 0 AlarmMessage::CopyFrom
FUNC 26fe6 f 0 AlarmMessage::IsInitialized
FUNC 26ff6 32 0 AlarmMessage::Swap
FUNC 27028 145 0 AlarmMessage::InternalSwap
FUNC 2716e 73 0 AlarmMessage::GetTypeName
FUNC 271e2 b3 0 DebugRequest::DebugRequest
FUNC 27296 1a2 0 DebugRequest::DebugRequest
FUNC 27438 4b 0 DebugRequest::SharedCtor
FUNC 27484 a7 0 DebugRequest::~DebugRequest
FUNC 2752c 26 0 DebugRequest::~DebugRequest
FUNC 27552 26 0 DebugRequest::SharedDtor
FUNC 27578 17 0 DebugRequest::SetCachedSize
FUNC 27590 10 0 DebugRequest::default_instance
FUNC 275a0 78 0 DebugRequest::New
FUNC 27618 40 0 DebugRequest::Clear
FUNC 27658 365 0 DebugRequest::MergePartialFromCodedStream
FUNC 279be fc 0 DebugRequest::SerializeWithCachedSizes
FUNC 27aba d9 0 DebugRequest::ByteSizeLong
FUNC 27b94 30 0 DebugRequest::CheckTypeAndMergeFrom
FUNC 27bc4 216 0 DebugRequest::MergeFrom
FUNC 27dda 49 0 DebugRequest::CopyFrom
FUNC 27e24 f 0 DebugRequest::IsInitialized
FUNC 27e34 32 0 DebugRequest::Swap
FUNC 27e66 8e 0 DebugRequest::InternalSwap
FUNC 27ef4 73 0 DebugRequest::GetTypeName
FUNC 27f68 b3 0 SOEMessage::SOEMessage
FUNC 2801c 1a2 0 SOEMessage::SOEMessage
FUNC 281be 4b 0 SOEMessage::SharedCtor
FUNC 2820a a7 0 SOEMessage::~SOEMessage
FUNC 282b2 26 0 SOEMessage::~SOEMessage
FUNC 282d8 26 0 SOEMessage::SharedDtor
FUNC 282fe 17 0 SOEMessage::SetCachedSize
FUNC 28316 10 0 SOEMessage::default_instance
FUNC 28326 78 0 SOEMessage::New
FUNC 2839e 40 0 SOEMessage::Clear
FUNC 283de 365 0 SOEMessage::MergePartialFromCodedStream
FUNC 28744 fc 0 SOEMessage::SerializeWithCachedSizes
FUNC 28840 d9 0 SOEMessage::ByteSizeLong
FUNC 2891a 30 0 SOEMessage::CheckTypeAndMergeFrom
FUNC 2894a 216 0 SOEMessage::MergeFrom
FUNC 28b60 49 0 SOEMessage::CopyFrom
FUNC 28baa f 0 SOEMessage::IsInitialized
FUNC 28bba 32 0 SOEMessage::Swap
FUNC 28bec 8e 0 SOEMessage::InternalSwap
FUNC 28c7a 73 0 SOEMessage::GetTypeName
FUNC 28cee b3 0 ControlRequet::ControlRequet
FUNC 28da2 1e7 0 ControlRequet::ControlRequet
FUNC 28f8a 51 0 ControlRequet::SharedCtor
FUNC 28fdc a7 0 ControlRequet::~ControlRequet
FUNC 29084 26 0 ControlRequet::~ControlRequet
FUNC 290aa 3e 0 ControlRequet::SharedDtor
FUNC 290e8 17 0 ControlRequet::SetCachedSize
FUNC 29100 10 0 ControlRequet::default_instance
FUNC 29110 78 0 ControlRequet::New
FUNC 29188 46 0 ControlRequet::Clear
FUNC 291ce 3c1 0 ControlRequet::MergePartialFromCodedStream
FUNC 29590 144 0 ControlRequet::SerializeWithCachedSizes
FUNC 296d4 c4 0 ControlRequet::ByteSizeLong
FUNC 29798 30 0 ControlRequet::CheckTypeAndMergeFrom
FUNC 297c8 21f 0 ControlRequet::MergeFrom
FUNC 299e8 49 0 ControlRequet::CopyFrom
FUNC 29a32 f 0 ControlRequet::IsInitialized
FUNC 29a42 32 0 ControlRequet::Swap
FUNC 29a74 9e 0 ControlRequet::InternalSwap
FUNC 29b12 73 0 ControlRequet::GetTypeName
FUNC 29b86 b3 0 LogRequest::LogRequest
FUNC 29c3a 190 0 LogRequest::LogRequest
FUNC 29dca 3c 0 LogRequest::SharedCtor
FUNC 29e06 a7 0 LogRequest::~LogRequest
FUNC 29eae 26 0 LogRequest::~LogRequest
FUNC 29ed4 26 0 LogRequest::SharedDtor
FUNC 29efa 17 0 LogRequest::SetCachedSize
FUNC 29f12 10 0 LogRequest::default_instance
FUNC 29f22 78 0 LogRequest::New
FUNC 29f9a 31 0 LogRequest::Clear
FUNC 29fcc 326 0 LogRequest::MergePartialFromCodedStream
FUNC 2a2f2 cb 0 LogRequest::SerializeWithCachedSizes
FUNC 2a3be a5 0 LogRequest::ByteSizeLong
FUNC 2a464 30 0 LogRequest::CheckTypeAndMergeFrom
FUNC 2a494 1dc 0 LogRequest::MergeFrom
FUNC 2a670 49 0 LogRequest::CopyFrom
FUNC 2a6ba f 0 LogRequest::IsInitialized
FUNC 2a6ca 32 0 LogRequest::Swap
FUNC 2a6fc 73 0 LogRequest::InternalSwap
FUNC 2a770 73 0 LogRequest::GetTypeName
FUNC 2a7e4 b3 0 RealLogResponse::RealLogResponse
FUNC 2a898 24e 0 RealLogResponse::RealLogResponse
FUNC 2aae6 7b 0 RealLogResponse::SharedCtor
FUNC 2ab62 a7 0 RealLogResponse::~RealLogResponse
FUNC 2ac0a 26 0 RealLogResponse::~RealLogResponse
FUNC 2ac30 56 0 RealLogResponse::SharedDtor
FUNC 2ac86 17 0 RealLogResponse::SetCachedSize
FUNC 2ac9e 10 0 RealLogResponse::default_instance
FUNC 2acae 78 0 RealLogResponse::New
FUNC 2ad26 70 0 RealLogResponse::Clear
FUNC 2ad96 4e3 0 RealLogResponse::MergePartialFromCodedStream
FUNC 2b27a 225 0 RealLogResponse::SerializeWithCachedSizes
FUNC 2b4a0 18b 0 RealLogResponse::ByteSizeLong
FUNC 2b62c 30 0 RealLogResponse::CheckTypeAndMergeFrom
FUNC 2b65c 2e1 0 RealLogResponse::MergeFrom
FUNC 2b93e 49 0 RealLogResponse::CopyFrom
FUNC 2b988 f 0 RealLogResponse::IsInitialized
FUNC 2b998 32 0 RealLogResponse::Swap
FUNC 2b9ca ff 0 RealLogResponse::InternalSwap
FUNC 2baca 73 0 RealLogResponse::GetTypeName
FUNC 2bb3e b3 0 LogQuery::LogQuery
FUNC 2bbf2 1f8 0 LogQuery::LogQuery
FUNC 2bdea 63 0 LogQuery::SharedCtor
FUNC 2be4e a7 0 LogQuery::~LogQuery
FUNC 2bef6 26 0 LogQuery::~LogQuery
FUNC 2bf1c 3e 0 LogQuery::SharedDtor
FUNC 2bf5a 17 0 LogQuery::SetCachedSize
FUNC 2bf72 10 0 LogQuery::default_instance
FUNC 2bf82 78 0 LogQuery::New
FUNC 2bffa 58 0 LogQuery::Clear
FUNC 2c052 4c2 0 LogQuery::MergePartialFromCodedStream
FUNC 2c514 20e 0 LogQuery::SerializeWithCachedSizes
FUNC 2c722 1b7 0 LogQuery::ByteSizeLong
FUNC 2c8da 30 0 LogQuery::CheckTypeAndMergeFrom
FUNC 2c90a 311 0 LogQuery::MergeFrom
FUNC 2cc1c 49 0 LogQuery::CopyFrom
FUNC 2cc66 f 0 LogQuery::IsInitialized
FUNC 2cc76 32 0 LogQuery::Swap
FUNC 2cca8 10a 0 LogQuery::InternalSwap
FUNC 2cdb2 73 0 LogQuery::GetTypeName
FUNC 2ce26 b3 0 HisLogResponse::HisLogResponse
FUNC 2ceda 24e 0 HisLogResponse::HisLogResponse
FUNC 2d128 7b 0 HisLogResponse::SharedCtor
FUNC 2d1a4 a7 0 HisLogResponse::~HisLogResponse
FUNC 2d24c 26 0 HisLogResponse::~HisLogResponse
FUNC 2d272 56 0 HisLogResponse::SharedDtor
FUNC 2d2c8 17 0 HisLogResponse::SetCachedSize
FUNC 2d2e0 10 0 HisLogResponse::default_instance
FUNC 2d2f0 78 0 HisLogResponse::New
FUNC 2d368 70 0 HisLogResponse::Clear
FUNC 2d3d8 51a 0 HisLogResponse::MergePartialFromCodedStream
FUNC 2d8f2 256 0 HisLogResponse::SerializeWithCachedSizes
FUNC 2db48 1bf 0 HisLogResponse::ByteSizeLong
FUNC 2dd08 30 0 HisLogResponse::CheckTypeAndMergeFrom
FUNC 2dd38 31b 0 HisLogResponse::MergeFrom
FUNC 2e054 49 0 HisLogResponse::CopyFrom
FUNC 2e09e f 0 HisLogResponse::IsInitialized
FUNC 2e0ae 32 0 HisLogResponse::Swap
FUNC 2e0e0 11a 0 HisLogResponse::InternalSwap
FUNC 2e1fa 73 0 HisLogResponse::GetTypeName
FUNC 2e26e b3 0 NetcardInfoRequest::NetcardInfoRequest
FUNC 2e322 184 0 NetcardInfoRequest::NetcardInfoRequest
FUNC 2e4a6 31 0 NetcardInfoRequest::SharedCtor
FUNC 2e4d8 a7 0 NetcardInfoRequest::~NetcardInfoRequest
FUNC 2e580 26 0 NetcardInfoRequest::~NetcardInfoRequest
FUNC 2e5a6 26 0 NetcardInfoRequest::SharedDtor
FUNC 2e5cc 17 0 NetcardInfoRequest::SetCachedSize
FUNC 2e5e4 10 0 NetcardInfoRequest::default_instance
FUNC 2e5f4 78 0 NetcardInfoRequest::New
FUNC 2e66c 26 0 NetcardInfoRequest::Clear
FUNC 2e692 2e7 0 NetcardInfoRequest::MergePartialFromCodedStream
FUNC 2e97a 9a 0 NetcardInfoRequest::SerializeWithCachedSizes
FUNC 2ea14 71 0 NetcardInfoRequest::ByteSizeLong
FUNC 2ea86 30 0 NetcardInfoRequest::CheckTypeAndMergeFrom
FUNC 2eab6 1a2 0 NetcardInfoRequest::MergeFrom
FUNC 2ec58 49 0 NetcardInfoRequest::CopyFrom
FUNC 2eca2 f 0 NetcardInfoRequest::IsInitialized
FUNC 2ecb2 32 0 NetcardInfoRequest::Swap
FUNC 2ece4 58 0 NetcardInfoRequest::InternalSwap
FUNC 2ed3c 73 0 NetcardInfoRequest::GetTypeName
FUNC 2edb0 b3 0 NetcardInfo::NetcardInfo
FUNC 2ee64 286 0 NetcardInfo::NetcardInfo
FUNC 2f0ea 79 0 NetcardInfo::SharedCtor
FUNC 2f164 a7 0 NetcardInfo::~NetcardInfo
FUNC 2f20c 26 0 NetcardInfo::~NetcardInfo
FUNC 2f232 6e 0 NetcardInfo::SharedDtor
FUNC 2f2a0 17 0 NetcardInfo::SetCachedSize
FUNC 2f2b8 10 0 NetcardInfo::default_instance
FUNC 2f2c8 78 0 NetcardInfo::New
FUNC 2f340 6e 0 NetcardInfo::Clear
FUNC 2f3ae 4c7 0 NetcardInfo::MergePartialFromCodedStream
FUNC 2f876 20b 0 NetcardInfo::SerializeWithCachedSizes
FUNC 2fa82 12b 0 NetcardInfo::ByteSizeLong
FUNC 2fbae 30 0 NetcardInfo::CheckTypeAndMergeFrom
FUNC 2fbde 277 0 NetcardInfo::MergeFrom
FUNC 2fe56 49 0 NetcardInfo::CopyFrom
FUNC 2fea0 f 0 NetcardInfo::IsInitialized
FUNC 2feb0 32 0 NetcardInfo::Swap
FUNC 2fee2 d9 0 NetcardInfo::InternalSwap
FUNC 2ffbc 73 0 NetcardInfo::GetTypeName
FUNC 30030 e0 0 NetcardInfoResponse::NetcardInfoResponse
FUNC 30110 16a 0 NetcardInfoResponse::NetcardInfoResponse
FUNC 3027a 15 0 NetcardInfoResponse::SharedCtor
FUNC 30290 d6 0 NetcardInfoResponse::~NetcardInfoResponse
FUNC 30366 26 0 NetcardInfoResponse::~NetcardInfoResponse
FUNC 3038c a 0 NetcardInfoResponse::SharedDtor
FUNC 30396 17 0 NetcardInfoResponse::SetCachedSize
FUNC 303ae 10 0 NetcardInfoResponse::default_instance
FUNC 303be 78 0 NetcardInfoResponse::New
FUNC 30436 1e 0 NetcardInfoResponse::Clear
FUNC 30454 284 0 NetcardInfoResponse::MergePartialFromCodedStream
FUNC 306d8 64 0 NetcardInfoResponse::SerializeWithCachedSizes
FUNC 3073c 80 0 NetcardInfoResponse::ByteSizeLong
FUNC 307bc 30 0 NetcardInfoResponse::CheckTypeAndMergeFrom
FUNC 307ec 17c 0 NetcardInfoResponse::MergeFrom
FUNC 30968 49 0 NetcardInfoResponse::CopyFrom
FUNC 309b2 f 0 NetcardInfoResponse::IsInitialized
FUNC 309c2 32 0 NetcardInfoResponse::Swap
FUNC 309f4 48 0 NetcardInfoResponse::InternalSwap
FUNC 30a3c 73 0 NetcardInfoResponse::GetTypeName
FUNC 30ab0 b3 0 ProcessData::ProcessData
FUNC 30b64 24e 0 ProcessData::ProcessData
FUNC 30db2 7b 0 ProcessData::SharedCtor
FUNC 30e2e a7 0 ProcessData::~ProcessData
FUNC 30ed6 26 0 ProcessData::~ProcessData
FUNC 30efc 56 0 ProcessData::SharedDtor
FUNC 30f52 17 0 ProcessData::SetCachedSize
FUNC 30f6a 10 0 ProcessData::default_instance
FUNC 30f7a 78 0 ProcessData::New
FUNC 30ff2 70 0 ProcessData::Clear
FUNC 31062 5c7 0 ProcessData::MergePartialFromCodedStream
FUNC 3162a 2fb 0 ProcessData::SerializeWithCachedSizes
FUNC 31926 237 0 ProcessData::ByteSizeLong
FUNC 31b5e 30 0 ProcessData::CheckTypeAndMergeFrom
FUNC 31b8e 3d0 0 ProcessData::MergeFrom
FUNC 31f5e 49 0 ProcessData::CopyFrom
FUNC 31fa8 f 0 ProcessData::IsInitialized
FUNC 31fb8 32 0 ProcessData::Swap
FUNC 31fea 16b 0 ProcessData::InternalSwap
FUNC 32156 73 0 ProcessData::GetTypeName
FUNC 321ca b3 0 ProcessCtrl::ProcessCtrl
FUNC 3227e 190 0 ProcessCtrl::ProcessCtrl
FUNC 3240e 3c 0 ProcessCtrl::SharedCtor
FUNC 3244a a7 0 ProcessCtrl::~ProcessCtrl
FUNC 324f2 26 0 ProcessCtrl::~ProcessCtrl
FUNC 32518 26 0 ProcessCtrl::SharedDtor
FUNC 3253e 17 0 ProcessCtrl::SetCachedSize
FUNC 32556 10 0 ProcessCtrl::default_instance
FUNC 32566 78 0 ProcessCtrl::New
FUNC 325de 31 0 ProcessCtrl::Clear
FUNC 32610 326 0 ProcessCtrl::MergePartialFromCodedStream
FUNC 32936 cb 0 ProcessCtrl::SerializeWithCachedSizes
FUNC 32a02 a5 0 ProcessCtrl::ByteSizeLong
FUNC 32aa8 30 0 ProcessCtrl::CheckTypeAndMergeFrom
FUNC 32ad8 1dc 0 ProcessCtrl::MergeFrom
FUNC 32cb4 49 0 ProcessCtrl::CopyFrom
FUNC 32cfe f 0 ProcessCtrl::IsInitialized
FUNC 32d0e 32 0 ProcessCtrl::Swap
FUNC 32d40 73 0 ProcessCtrl::InternalSwap
FUNC 32db4 73 0 ProcessCtrl::GetTypeName
FUNC 32e28 b3 0 RealPointValue::RealPointValue
FUNC 32edc 2a4 0 RealPointValue::RealPointValue
FUNC 33180 93 0 RealPointValue::SharedCtor
FUNC 33214 a7 0 RealPointValue::~RealPointValue
FUNC 332bc 26 0 RealPointValue::~RealPointValue
FUNC 332e2 6e 0 RealPointValue::SharedDtor
FUNC 33350 17 0 RealPointValue::SetCachedSize
FUNC 33368 10 0 RealPointValue::default_instance
FUNC 33378 78 0 RealPointValue::New
FUNC 333f0 88 0 RealPointValue::Clear
FUNC 33478 540 0 RealPointValue::MergePartialFromCodedStream
FUNC 339b8 26d 0 RealPointValue::SerializeWithCachedSizes
FUNC 33c26 193 0 RealPointValue::ByteSizeLong
FUNC 33dba 30 0 RealPointValue::CheckTypeAndMergeFrom
FUNC 33dea 2eb 0 RealPointValue::MergeFrom
FUNC 340d6 49 0 RealPointValue::CopyFrom
FUNC 34120 f 0 RealPointValue::IsInitialized
FUNC 34130 32 0 RealPointValue::Swap
FUNC 34162 10f 0 RealPointValue::InternalSwap
FUNC 34272 73 0 RealPointValue::GetTypeName
FUNC 342e6 b3 0 HeartBeatMessage::HeartBeatMessage
FUNC 3439a 190 0 HeartBeatMessage::HeartBeatMessage
FUNC 3452a 3c 0 HeartBeatMessage::SharedCtor
FUNC 34566 a7 0 HeartBeatMessage::~HeartBeatMessage
FUNC 3460e 26 0 HeartBeatMessage::~HeartBeatMessage
FUNC 34634 26 0 HeartBeatMessage::SharedDtor
FUNC 3465a 17 0 HeartBeatMessage::SetCachedSize
FUNC 34672 10 0 HeartBeatMessage::default_instance
FUNC 34682 78 0 HeartBeatMessage::New
FUNC 346fa 31 0 HeartBeatMessage::Clear
FUNC 3472c 326 0 HeartBeatMessage::MergePartialFromCodedStream
FUNC 34a52 cb 0 HeartBeatMessage::SerializeWithCachedSizes
FUNC 34b1e a5 0 HeartBeatMessage::ByteSizeLong
FUNC 34bc4 30 0 HeartBeatMessage::CheckTypeAndMergeFrom
FUNC 34bf4 1dc 0 HeartBeatMessage::MergeFrom
FUNC 34dd0 49 0 HeartBeatMessage::CopyFrom
FUNC 34e1a f 0 HeartBeatMessage::IsInitialized
FUNC 34e2a 32 0 HeartBeatMessage::Swap
FUNC 34e5c 73 0 HeartBeatMessage::InternalSwap
FUNC 34ed0 73 0 HeartBeatMessage::GetTypeName
FUNC 34f44 b3 0 CommunicationPair::CommunicationPair
FUNC 34ff8 4fe 0 CommunicationPair::CommunicationPair
FUNC 354f6 13b 0 CommunicationPair::SharedCtor
FUNC 35632 a7 0 CommunicationPair::~CommunicationPair
FUNC 356da 26 0 CommunicationPair::~CommunicationPair
FUNC 35700 116 0 CommunicationPair::SharedDtor
FUNC 35816 17 0 CommunicationPair::SetCachedSize
FUNC 3582e 10 0 CommunicationPair::default_instance
FUNC 3583e 78 0 CommunicationPair::New
FUNC 358b6 130 0 CommunicationPair::Clear
FUNC 359e6 97f 0 CommunicationPair::MergePartialFromCodedStream
FUNC 36366 5fb 0 CommunicationPair::SerializeWithCachedSizes
FUNC 36962 379 0 CommunicationPair::ByteSizeLong
FUNC 36cdc 30 0 CommunicationPair::CheckTypeAndMergeFrom
FUNC 36d0c 516 0 CommunicationPair::MergeFrom
FUNC 37222 49 0 CommunicationPair::CopyFrom
FUNC 3726c f 0 CommunicationPair::IsInitialized
FUNC 3727c 32 0 CommunicationPair::Swap
FUNC 372ae 2de 0 CommunicationPair::InternalSwap
FUNC 3758c 73 0 CommunicationPair::GetTypeName
FUNC 37600 b3 0 FlowThreshold::FlowThreshold
FUNC 376b4 286 0 FlowThreshold::FlowThreshold
FUNC 3793a 79 0 FlowThreshold::SharedCtor
FUNC 379b4 a7 0 FlowThreshold::~FlowThreshold
FUNC 37a5c 26 0 FlowThreshold::~FlowThreshold
FUNC 37a82 6e 0 FlowThreshold::SharedDtor
FUNC 37af0 17 0 FlowThreshold::SetCachedSize
FUNC 37b08 10 0 FlowThreshold::default_instance
FUNC 37b18 78 0 FlowThreshold::New
FUNC 37b90 6e 0 FlowThreshold::Clear
FUNC 37bfe 4c7 0 FlowThreshold::MergePartialFromCodedStream
FUNC 380c6 20b 0 FlowThreshold::SerializeWithCachedSizes
FUNC 382d2 12b 0 FlowThreshold::ByteSizeLong
FUNC 383fe 30 0 FlowThreshold::CheckTypeAndMergeFrom
FUNC 3842e 277 0 FlowThreshold::MergeFrom
FUNC 386a6 49 0 FlowThreshold::CopyFrom
FUNC 386f0 f 0 FlowThreshold::IsInitialized
FUNC 38700 32 0 FlowThreshold::Swap
FUNC 38732 d9 0 FlowThreshold::InternalSwap
FUNC 3880c 73 0 FlowThreshold::GetTypeName
FUNC 38880 b3 0 RtdbMessage::RtdbMessage
FUNC 38934 68b 0 RtdbMessage::RtdbMessage
FUNC 38fc0 36 0 RtdbMessage::SharedCtor
FUNC 38ff6 a7 0 RtdbMessage::~RtdbMessage
FUNC 3909e 26 0 RtdbMessage::~RtdbMessage
FUNC 390c4 31a 0 RtdbMessage::SharedDtor
FUNC 393de 1a 0 RtdbMessage::SetCachedSize
FUNC 393f8 10 0 RtdbMessage::default_instance
FUNC 39408 78 0 RtdbMessage::New
FUNC 39480 556 0 RtdbMessage::Clear
FUNC 399d6 75c 0 RtdbMessage::MergePartialFromCodedStream
FUNC 3a132 354 0 RtdbMessage::SerializeWithCachedSizes
FUNC 3a486 3aa 0 RtdbMessage::ByteSizeLong
FUNC 3a830 30 0 RtdbMessage::CheckTypeAndMergeFrom
FUNC 3a860 5ea 0 RtdbMessage::MergeFrom
FUNC 3ae4a 49 0 RtdbMessage::CopyFrom
FUNC 3ae94 f 0 RtdbMessage::IsInitialized
FUNC 3aea4 32 0 RtdbMessage::Swap
FUNC 3aed6 245 0 RtdbMessage::InternalSwap
FUNC 3b11c 73 0 RtdbMessage::GetTypeName
FUNC 3b18f 2e 0 __static_initialization_and_destruction_0
FUNC 3b1bd 15 0 _GLOBAL__I_RtdbMessage.pb.cpp
FUNC 3b1d2 13 0 google::protobuf::Bits::Log2FloorNonZero
FUNC 3b1e5 16 0 google::protobuf::Bits::Log2FloorNonZero64
FUNC 3b1fc 1c 0 google::protobuf::Closure::Closure
FUNC 3b218 4c 0 google::protobuf::internal::FunctionClosure0::FunctionClosure0
FUNC 3b264 19 0 google::protobuf::internal::Acquire_Load
FUNC 3b27e 99 0 google::protobuf::io::CodedInputStream::ReadVarint32
FUNC 3b318 9f 0 google::protobuf::io::CodedInputStream::ReadVarint64
FUNC 3b3b8 83 0 google::protobuf::io::CodedInputStream::ReadVarintSizeAsInt
FUNC 3b43c 32 0 google::protobuf::io::CodedInputStream::ReadLittleEndian32FromArray
FUNC 3b46e 68 0 google::protobuf::io::CodedInputStream::ReadLittleEndian32
FUNC 3b4d6 2f 0 google::protobuf::io::CodedOutputStream::VarintSize32
FUNC 3b506 33 0 google::protobuf::io::CodedOutputStream::VarintSize64
FUNC 3b53a 24 0 google::protobuf::io::CodedOutputStream::VarintSize32SignExtended
FUNC 3b55e 23 0 google::protobuf::io::CodedInputStream::Advance
FUNC 3b582 21 0 google::protobuf::io::CodedInputStream::BufferSize
FUNC 3b5a4 19 0 google::protobuf::internal::ArenaStringPtr::UnsafeSetDefault
FUNC 3b5be 4e 0 google::protobuf::internal::ArenaStringPtr::SetNoArena
FUNC 3b60c 11 0 google::protobuf::internal::ArenaStringPtr::GetNoArena
FUNC 3b61e 39 0 google::protobuf::internal::ArenaStringPtr::MutableNoArena
FUNC 3b658 41 0 google::protobuf::internal::ArenaStringPtr::DestroyNoArena
FUNC 3b69a 2e 0 google::protobuf::internal::ArenaStringPtr::ClearToEmptyNoArena
FUNC 3b6c8 e 0 google::protobuf::internal::ArenaStringPtr::UnsafeRawStringPointer
FUNC 3b6d6 f0 0 google::protobuf::internal::ArenaStringPtr::CreateInstanceNoArena
FUNC 3b7c6 68 0 google::protobuf::internal::ArenaStringPtr::AssignWithDefault
FUNC 3b82e 8b 0 google::protobuf::GoogleOnceInit
FUNC 3b8b9 15 0 google::protobuf::internal::GetEmptyStringAlreadyInited
FUNC 3b8ce e 0 google::protobuf::internal::ToCachedSize
FUNC 3b8dc 1c 0 google::protobuf::MessageLite::MessageLite
FUNC 3b8f8 35 0 google::protobuf::MessageLite::~MessageLite
FUNC 3b92e 26 0 google::protobuf::MessageLite::~MessageLite
FUNC 3b954 f 0 google::protobuf::MessageLite::GetArena
FUNC 3b964 25 0 google::protobuf::MessageLite::GetMaybeArenaPointer
FUNC 3b98a a 0 google::protobuf::internal::AuxillaryParseTableField::AuxillaryParseTableField
FUNC 3b994 25 0 google::protobuf::internal::InternalMetadataWithArenaLite::InternalMetadataWithArenaLite
FUNC 3b9ba 70 0 google::protobuf::internal::InternalMetadataWithArenaLite::DoMergeFrom
FUNC 3ba2a b 0 google::protobuf::internal::InternalMetadataWithArenaLite::default_instance
FUNC 3ba36 a 0 google::protobuf::internal::RepeatedPtrFieldBase::~RepeatedPtrFieldBase
FUNC 3ba40 11 0 google::protobuf::internal::RepeatedPtrFieldBase::GetArenaNoVirtual
FUNC 3ba52 37 0 google::protobuf::internal::RepeatedPtrFieldBase::RepeatedPtrFieldBase
FUNC 3ba8a 11 0 google::protobuf::internal::RepeatedPtrFieldBase::size
FUNC 3ba9c f1 0 google::protobuf::internal::RepeatedPtrFieldBase::MergeFromInternal
FUNC 3bb8e 1c3 0 google::protobuf::internal::RepeatedPtrFieldBase::InternalSwap
FUNC 3bd51 d 0 RawMessage::internal_default_instance
FUNC 3bd5e 2a 0 RawMessage::New
FUNC 3bd88 11 0 RawMessage::GetCachedSize
FUNC 3bd99 d 0 AlarmMessage::internal_default_instance
FUNC 3bda6 2a 0 AlarmMessage::New
FUNC 3bdd0 11 0 AlarmMessage::GetCachedSize
FUNC 3bde1 d 0 DebugRequest::internal_default_instance
FUNC 3bdee 2a 0 DebugRequest::New
FUNC 3be18 11 0 DebugRequest::GetCachedSize
FUNC 3be29 d 0 SOEMessage::internal_default_instance
FUNC 3be36 2a 0 SOEMessage::New
FUNC 3be60 11 0 SOEMessage::GetCachedSize
FUNC 3be71 d 0 ControlRequet::internal_default_instance
FUNC 3be7e 2a 0 ControlRequet::New
FUNC 3bea8 11 0 ControlRequet::GetCachedSize
FUNC 3beb9 d 0 LogRequest::internal_default_instance
FUNC 3bec6 2a 0 LogRequest::New
FUNC 3bef0 11 0 LogRequest::GetCachedSize
FUNC 3bf01 d 0 RealLogResponse::internal_default_instance
FUNC 3bf0e 2a 0 RealLogResponse::New
FUNC 3bf38 11 0 RealLogResponse::GetCachedSize
FUNC 3bf49 d 0 LogQuery::internal_default_instance
FUNC 3bf56 2a 0 LogQuery::New
FUNC 3bf80 11 0 LogQuery::GetCachedSize
FUNC 3bf91 d 0 HisLogResponse::internal_default_instance
FUNC 3bf9e 2a 0 HisLogResponse::New
FUNC 3bfc8 11 0 HisLogResponse::GetCachedSize
FUNC 3bfd9 d 0 NetcardInfoRequest::internal_default_instance
FUNC 3bfe6 2a 0 NetcardInfoRequest::New
FUNC 3c010 11 0 NetcardInfoRequest::GetCachedSize
FUNC 3c021 d 0 NetcardInfo::internal_default_instance
FUNC 3c02e 2a 0 NetcardInfo::New
FUNC 3c058 11 0 NetcardInfo::GetCachedSize
FUNC 3c069 d 0 NetcardInfoResponse::internal_default_instance
FUNC 3c076 2a 0 NetcardInfoResponse::New
FUNC 3c0a0 11 0 NetcardInfoResponse::GetCachedSize
FUNC 3c0b1 d 0 ProcessData::internal_default_instance
FUNC 3c0be 2a 0 ProcessData::New
FUNC 3c0e8 11 0 ProcessData::GetCachedSize
FUNC 3c0f9 d 0 ProcessCtrl::internal_default_instance
FUNC 3c106 2a 0 ProcessCtrl::New
FUNC 3c130 11 0 ProcessCtrl::GetCachedSize
FUNC 3c141 d 0 RealPointValue::internal_default_instance
FUNC 3c14e 2a 0 RealPointValue::New
FUNC 3c178 11 0 RealPointValue::GetCachedSize
FUNC 3c189 d 0 HeartBeatMessage::internal_default_instance
FUNC 3c196 2a 0 HeartBeatMessage::New
FUNC 3c1c0 11 0 HeartBeatMessage::GetCachedSize
FUNC 3c1d1 d 0 CommunicationPair::internal_default_instance
FUNC 3c1de 2a 0 CommunicationPair::New
FUNC 3c208 11 0 CommunicationPair::GetCachedSize
FUNC 3c219 d 0 FlowThreshold::internal_default_instance
FUNC 3c226 2a 0 FlowThreshold::New
FUNC 3c250 11 0 FlowThreshold::GetCachedSize
FUNC 3c261 d 0 RtdbMessage::internal_default_instance
FUNC 3c26e 2a 0 RtdbMessage::New
FUNC 3c298 14 0 RtdbMessage::GetCachedSize
FUNC 3c2ac f 0 RtdbMessage::GetArenaNoVirtual
FUNC 3c2bc 1e 0 RawMessage::data
FUNC 3c2da 26 0 RawMessage::mutable_data
FUNC 3c300 1e 0 RawMessage::filename
FUNC 3c31e 26 0 RawMessage::mutable_filename
FUNC 3c344 11 0 RawMessage::startoffset
FUNC 3c356 17 0 RawMessage::set_startoffset
FUNC 3c36e 11 0 RawMessage::messagenumber
FUNC 3c380 17 0 RawMessage::set_messagenumber
FUNC 3c398 1e 0 AlarmMessage::type
FUNC 3c3b6 26 0 AlarmMessage::mutable_type
FUNC 3c3dc 1e 0 AlarmMessage::ethname
FUNC 3c3fa 26 0 AlarmMessage::mutable_ethname
FUNC 3c420 1e 0 AlarmMessage::mac
FUNC 3c43e 26 0 AlarmMessage::mutable_mac
FUNC 3c464 1e 0 AlarmMessage::ip
FUNC 3c482 26 0 AlarmMessage::mutable_ip
FUNC 3c4a8 11 0 AlarmMessage::time
FUNC 3c4ba 17 0 AlarmMessage::set_time
FUNC 3c4d2 11 0 AlarmMessage::port
FUNC 3c4e4 17 0 AlarmMessage::set_port
FUNC 3c4fc 11 0 AlarmMessage::alarmid
FUNC 3c50e 17 0 AlarmMessage::set_alarmid
FUNC 3c526 11 0 AlarmMessage::alarmstatus
FUNC 3c538 17 0 AlarmMessage::set_alarmstatus
FUNC 3c550 1e 0 DebugRequest::address
FUNC 3c56e 26 0 DebugRequest::mutable_address
FUNC 3c594 11 0 DebugRequest::time
FUNC 3c5a6 17 0 DebugRequest::set_time
FUNC 3c5be 11 0 DebugRequest::quality
FUNC 3c5d0 17 0 DebugRequest::set_quality
FUNC 3c5e8 1e 0 SOEMessage::address
FUNC 3c606 26 0 SOEMessage::mutable_address
FUNC 3c62c 11 0 SOEMessage::time
FUNC 3c63e 17 0 SOEMessage::set_time
FUNC 3c656 11 0 SOEMessage::quality
FUNC 3c668 17 0 SOEMessage::set_quality
FUNC 3c680 1e 0 ControlRequet::address
FUNC 3c69e 26 0 ControlRequet::mutable_address
FUNC 3c6c4 1e 0 ControlRequet::errorinfo
FUNC 3c6e2 26 0 ControlRequet::mutable_errorinfo
FUNC 3c708 12 0 ControlRequet::status
FUNC 3c71a 1a 0 ControlRequet::set_status
FUNC 3c734 1e 0 LogRequest::channelname
FUNC 3c752 26 0 LogRequest::mutable_channelname
FUNC 3c778 11 0 LogRequest::command
FUNC 3c78a 17 0 LogRequest::set_command
FUNC 3c7a2 11 0 RealLogResponse::type
FUNC 3c7b4 17 0 RealLogResponse::set_type
FUNC 3c7cc 11 0 RealLogResponse::level
FUNC 3c7de 17 0 RealLogResponse::set_level
FUNC 3c7f6 1e 0 RealLogResponse::channelname
FUNC 3c814 26 0 RealLogResponse::mutable_channelname
FUNC 3c83a 1e 0 RealLogResponse::devname
FUNC 3c858 26 0 RealLogResponse::mutable_devname
FUNC 3c87e 12 0 RealLogResponse::logtime
FUNC 3c890 1a 0 RealLogResponse::set_logtime
FUNC 3c8aa 1e 0 RealLogResponse::logdetail
FUNC 3c8c8 26 0 RealLogResponse::mutable_logdetail
FUNC 3c8ee 11 0 LogQuery::level
FUNC 3c900 17 0 LogQuery::set_level
FUNC 3c918 11 0 LogQuery::type
FUNC 3c92a 17 0 LogQuery::set_type
FUNC 3c942 12 0 LogQuery::starttime
FUNC 3c954 1a 0 LogQuery::set_starttime
FUNC 3c96e 12 0 LogQuery::endtime
FUNC 3c980 1a 0 LogQuery::set_endtime
FUNC 3c99a 1e 0 LogQuery::channelname
FUNC 3c9b8 26 0 LogQuery::mutable_channelname
FUNC 3c9de 1e 0 LogQuery::devname
FUNC 3c9fc 26 0 LogQuery::mutable_devname
FUNC 3ca22 11 0 LogQuery::stopquery
FUNC 3ca34 17 0 LogQuery::set_stopquery
FUNC 3ca4c 11 0 HisLogResponse::type
FUNC 3ca5e 17 0 HisLogResponse::set_type
FUNC 3ca76 11 0 HisLogResponse::level
FUNC 3ca88 17 0 HisLogResponse::set_level
FUNC 3caa0 1e 0 HisLogResponse::channelname
FUNC 3cabe 26 0 HisLogResponse::mutable_channelname
FUNC 3cae4 1e 0 HisLogResponse::devname
FUNC 3cb02 26 0 HisLogResponse::mutable_devname
FUNC 3cb28 12 0 HisLogResponse::logtime
FUNC 3cb3a 1a 0 HisLogResponse::set_logtime
FUNC 3cb54 1e 0 HisLogResponse::logdetail
FUNC 3cb72 26 0 HisLogResponse::mutable_logdetail
FUNC 3cb98 11 0 HisLogResponse::isend
FUNC 3cbaa 17 0 HisLogResponse::set_isend
FUNC 3cbc2 1e 0 NetcardInfoRequest::value
FUNC 3cbe0 26 0 NetcardInfoRequest::mutable_value
FUNC 3cc06 1e 0 NetcardInfo::name
FUNC 3cc24 26 0 NetcardInfo::mutable_name
FUNC 3cc4a 1e 0 NetcardInfo::ip
FUNC 3cc68 26 0 NetcardInfo::mutable_ip
FUNC 3cc8e 1e 0 NetcardInfo::mac
FUNC 3ccac 26 0 NetcardInfo::mutable_mac
FUNC 3ccd2 1e 0 NetcardInfo::networktype
FUNC 3ccf0 26 0 NetcardInfo::mutable_networktype
FUNC 3cd16 1e 0 NetcardInfoResponse::netcardinfo_size
FUNC 3cd34 26 0 NetcardInfoResponse::netcardinfo
FUNC 3cd5a 1e 0 NetcardInfoResponse::add_netcardinfo
FUNC 3cd78 1e 0 ProcessData::process_id
FUNC 3cd96 26 0 ProcessData::mutable_process_id
FUNC 3cdbc 1e 0 ProcessData::process_path
FUNC 3cdda 26 0 ProcessData::mutable_process_path
FUNC 3ce00 1e 0 ProcessData::process_name
FUNC 3ce1e 26 0 ProcessData::mutable_process_name
FUNC 3ce44 11 0 ProcessData::start_time
FUNC 3ce56 17 0 ProcessData::set_start_time
FUNC 3ce6e 11 0 ProcessData::process_pid
FUNC 3ce80 17 0 ProcessData::set_process_pid
FUNC 3ce98 11 0 ProcessData::process_status
FUNC 3ceaa 17 0 ProcessData::set_process_status
FUNC 3cec2 11 0 ProcessData::heart_beat_time
FUNC 3ced4 17 0 ProcessData::set_heart_beat_time
FUNC 3ceec 19 0 ProcessData::cpu_use
FUNC 3cf06 19 0 ProcessData::set_cpu_use
FUNC 3cf20 19 0 ProcessData::ram_use
FUNC 3cf3a 19 0 ProcessData::set_ram_use
FUNC 3cf54 11 0 ProcessData::restart_num
FUNC 3cf66 17 0 ProcessData::set_restart_num
FUNC 3cf7e 1e 0 ProcessCtrl::process_id
FUNC 3cf9c 26 0 ProcessCtrl::mutable_process_id
FUNC 3cfc2 11 0 ProcessCtrl::command
FUNC 3cfd4 17 0 ProcessCtrl::set_command
FUNC 3cfec 1e 0 RealPointValue::channelname
FUNC 3d00a 26 0 RealPointValue::mutable_channelname
FUNC 3d030 1e 0 RealPointValue::devicename
FUNC 3d04e 26 0 RealPointValue::mutable_devicename
FUNC 3d074 1e 0 RealPointValue::pointvalue
FUNC 3d092 26 0 RealPointValue::mutable_pointvalue
FUNC 3d0b8 1e 0 RealPointValue::pointaddr
FUNC 3d0d6 26 0 RealPointValue::mutable_pointaddr
FUNC 3d0fc 11 0 RealPointValue::valuetype
FUNC 3d10e 17 0 RealPointValue::set_valuetype
FUNC 3d126 11 0 RealPointValue::channeltype
FUNC 3d138 17 0 RealPointValue::set_channeltype
FUNC 3d150 1e 0 HeartBeatMessage::channelname
FUNC 3d16e 26 0 HeartBeatMessage::mutable_channelname
FUNC 3d194 11 0 HeartBeatMessage::time
FUNC 3d1a6 17 0 HeartBeatMessage::set_time
FUNC 3d1be 1e 0 CommunicationPair::type
FUNC 3d1dc 26 0 CommunicationPair::mutable_type
FUNC 3d202 1e 0 CommunicationPair::source_ip
FUNC 3d220 26 0 CommunicationPair::mutable_source_ip
FUNC 3d246 1e 0 CommunicationPair::source_mac
FUNC 3d264 26 0 CommunicationPair::mutable_source_mac
FUNC 3d28a 11 0 CommunicationPair::soure_port
FUNC 3d29c 17 0 CommunicationPair::set_soure_port
FUNC 3d2b4 1e 0 CommunicationPair::dest_ip
FUNC 3d2d2 26 0 CommunicationPair::mutable_dest_ip
FUNC 3d2f8 1e 0 CommunicationPair::dest_mac
FUNC 3d316 26 0 CommunicationPair::mutable_dest_mac
FUNC 3d33c 11 0 CommunicationPair::dest_port
FUNC 3d34e 17 0 CommunicationPair::set_dest_port
FUNC 3d366 11 0 CommunicationPair::netstatus
FUNC 3d378 17 0 CommunicationPair::set_netstatus
FUNC 3d390 1e 0 CommunicationPair::lasttime
FUNC 3d3ae 26 0 CommunicationPair::mutable_lasttime
FUNC 3d3d4 1e 0 CommunicationPair::eth_name
FUNC 3d3f2 26 0 CommunicationPair::mutable_eth_name
FUNC 3d418 1e 0 CommunicationPair::conn_start_time
FUNC 3d436 26 0 CommunicationPair::mutable_conn_start_time
FUNC 3d45c 1e 0 CommunicationPair::conn_end_time
FUNC 3d47a 26 0 CommunicationPair::mutable_conn_end_time
FUNC 3d4a0 1e 0 CommunicationPair::packagename
FUNC 3d4be 26 0 CommunicationPair::mutable_packagename
FUNC 3d4e4 1e 0 CommunicationPair::packageline
FUNC 3d502 26 0 CommunicationPair::mutable_packageline
FUNC 3d528 1e 0 FlowThreshold::messagecount
FUNC 3d546 26 0 FlowThreshold::mutable_messagecount
FUNC 3d56c 1e 0 FlowThreshold::flowmax
FUNC 3d58a 26 0 FlowThreshold::mutable_flowmax
FUNC 3d5b0 1e 0 FlowThreshold::noflowtime
FUNC 3d5ce 26 0 FlowThreshold::mutable_noflowtime
FUNC 3d5f4 1e 0 FlowThreshold::linkmax
FUNC 3d612 26 0 FlowThreshold::mutable_linkmax
FUNC 3d638 11 0 RtdbMessage::fromobject
FUNC 3d64a 17 0 RtdbMessage::set_fromobject
FUNC 3d662 11 0 RtdbMessage::toobject
FUNC 3d674 17 0 RtdbMessage::set_toobject
FUNC 3d68c 14 0 RtdbMessage::fromobjecttype
FUNC 3d6a0 1a 0 RtdbMessage::set_fromobjecttype
FUNC 3d6ba 14 0 RtdbMessage::toobjecttype
FUNC 3d6ce 1a 0 RtdbMessage::set_toobjecttype
FUNC 3d6e8 14 0 RtdbMessage::messagetype
FUNC 3d6fc 1a 0 RtdbMessage::set_messagetype
FUNC 3d716 14 0 RtdbMessage::transactionid
FUNC 3d72a 1a 0 RtdbMessage::set_transactionid
FUNC 3d744 32 0 RtdbMessage::has_logrequest
FUNC 3d776 2a 0 RtdbMessage::logrequest
FUNC 3d7a0 72 0 RtdbMessage::mutable_logrequest
FUNC 3d812 32 0 RtdbMessage::has_reallogresponse
FUNC 3d844 2a 0 RtdbMessage::reallogresponse
FUNC 3d86e 72 0 RtdbMessage::mutable_reallogresponse
FUNC 3d8e0 32 0 RtdbMessage::has_hislogquery
FUNC 3d912 2a 0 RtdbMessage::hislogquery
FUNC 3d93c 72 0 RtdbMessage::mutable_hislogquery
FUNC 3d9ae 32 0 RtdbMessage::has_hislogresponse
FUNC 3d9e0 2a 0 RtdbMessage::hislogresponse
FUNC 3da0a 72 0 RtdbMessage::mutable_hislogresponse
FUNC 3da7c 32 0 RtdbMessage::has_netcardinforequest
FUNC 3daae 2a 0 RtdbMessage::netcardinforequest
FUNC 3dad8 72 0 RtdbMessage::mutable_netcardinforequest
FUNC 3db4a 32 0 RtdbMessage::has_netcardinforesponse
FUNC 3db7c 2a 0 RtdbMessage::netcardinforesponse
FUNC 3dba6 72 0 RtdbMessage::mutable_netcardinforesponse
FUNC 3dc18 32 0 RtdbMessage::has_processdata
FUNC 3dc4a 2a 0 RtdbMessage::processdata
FUNC 3dc74 72 0 RtdbMessage::mutable_processdata
FUNC 3dce6 32 0 RtdbMessage::has_processctrl
FUNC 3dd18 2a 0 RtdbMessage::processctrl
FUNC 3dd42 72 0 RtdbMessage::mutable_processctrl
FUNC 3ddb4 32 0 RtdbMessage::has_realpointvalue
FUNC 3dde6 2a 0 RtdbMessage::realpointvalue
FUNC 3de10 72 0 RtdbMessage::mutable_realpointvalue
FUNC 3de82 32 0 RtdbMessage::has_heartbeatmessage
FUNC 3deb4 2a 0 RtdbMessage::heartbeatmessage
FUNC 3dede 72 0 RtdbMessage::mutable_heartbeatmessage
FUNC 3df50 32 0 RtdbMessage::has_alarmmessage
FUNC 3df82 2a 0 RtdbMessage::alarmmessage
FUNC 3dfac 72 0 RtdbMessage::mutable_alarmmessage
FUNC 3e01e 32 0 RtdbMessage::has_communicationpair
FUNC 3e050 2a 0 RtdbMessage::communicationpair
FUNC 3e07a 72 0 RtdbMessage::mutable_communicationpair
FUNC 3e0ec 32 0 RtdbMessage::has_flowthreshold
FUNC 3e11e 2a 0 RtdbMessage::flowthreshold
FUNC 3e148 72 0 RtdbMessage::mutable_flowthreshold
FUNC 3e1ba f 0 google::protobuf::internal::WireFormatLite::GetTagWireType
FUNC 3e1ca f 0 google::protobuf::internal::WireFormatLite::GetTagFieldNumber
FUNC 3e1da 1a 0 google::protobuf::internal::WireFormatLite::DecodeFloat
FUNC 3e1f4 25 0 google::protobuf::internal::WireFormatLite::ReadString
FUNC 3e21a 43 0 google::protobuf::internal::WireFormatLite::ReadPrimitive<int, (google::protobuf::internal::WireFormatLite::FieldType)5u>
FUNC 3e25e 25 0 google::protobuf::internal::WireFormatLite::ReadPrimitive<long unsigned int, (google::protobuf::internal::WireFormatLite::FieldType)4u>
FUNC 3e284 4a 0 google::protobuf::internal::WireFormatLite::ReadPrimitive<float, (google::protobuf::internal::WireFormatLite::FieldType)2u>
FUNC 3e2ce 48 0 google::protobuf::internal::WireFormatLite::ReadPrimitive<bool, (google::protobuf::internal::WireFormatLite::FieldType)8u>
FUNC 3e316 43 0 google::protobuf::internal::WireFormatLite::ReadPrimitive<int, (google::protobuf::internal::WireFormatLite::FieldType)14u>
FUNC 3e35a 17 0 google::protobuf::internal::WireFormatLite::Int32Size
FUNC 3e372 1a 0 google::protobuf::internal::WireFormatLite::UInt64Size
FUNC 3e38c 17 0 google::protobuf::internal::WireFormatLite::EnumSize
FUNC 3e3a4 22 0 google::protobuf::internal::WireFormatLite::StringSize
FUNC 3e3c6 1d 0 google::protobuf::internal::WireFormatLite::LengthDelimitedSize
FUNC 3e3e4 1a 0 google::protobuf::internal::InternalMetadataWithArenaLite::~InternalMetadataWithArenaLite
FUNC 3e3fe 32 0 std::swap<std::string*>
FUNC 3e430 e 0 google::protobuf::internal::ExplicitlyConstructed<std::basic_string<char, std::char_traits<char>, std::allocator<char> > >::get
FUNC 3e43e 1a 0 google::protobuf::internal::InternalMetadataWithArenaBase<std::basic_string<char, std::char_traits<char>, std::allocator<char> >, google::protobuf::internal::InternalMetadataWithArenaLite>::Container::~Container
FUNC 3e458 cf 0 google::protobuf::internal::InternalMetadataWithArenaBase<std::basic_string<char, std::char_traits<char>, std::allocator<char> >, google::protobuf::internal::InternalMetadataWithArenaLite>::~InternalMetadataWithArenaBase
FUNC 3e528 19 0 google::protobuf::internal::InternalMetadataWithArenaBase<std::basic_string<char, std::char_traits<char>, std::allocator<char> >, google::protobuf::internal::InternalMetadataWithArenaLite>::InternalMetadataWithArenaBase
FUNC 3e541 32 0 std::swap<google::protobuf::internal::RepeatedPtrFieldBase::Rep*>
FUNC 3e573 2c 0 std::swap<int>
FUNC 3e5a0 1a 0 google::protobuf::RepeatedPtrField<NetcardInfo>::size
FUNC 3e5ba 1a 0 google::protobuf::RepeatedPtrField<NetcardInfo>::Clear
FUNC 3e5d4 22 0 google::protobuf::RepeatedPtrField<NetcardInfo>::Get
FUNC 3e5f6 1f 0 google::protobuf::RepeatedPtrField<NetcardInfo>::Add
FUNC 3e616 39 0 google::protobuf::internal::ExplicitlyConstructed<RawMessage>::Shutdown
FUNC 3e650 39 0 google::protobuf::internal::ExplicitlyConstructed<AlarmMessage>::Shutdown
FUNC 3e68a 39 0 google::protobuf::internal::ExplicitlyConstructed<DebugRequest>::Shutdown
FUNC 3e6c4 39 0 google::protobuf::internal::ExplicitlyConstructed<SOEMessage>::Shutdown
FUNC 3e6fe 39 0 google::protobuf::internal::ExplicitlyConstructed<ControlRequet>::Shutdown
FUNC 3e738 39 0 google::protobuf::internal::ExplicitlyConstructed<LogRequest>::Shutdown
FUNC 3e772 39 0 google::protobuf::internal::ExplicitlyConstructed<RealLogResponse>::Shutdown
FUNC 3e7ac 39 0 google::protobuf::internal::ExplicitlyConstructed<LogQuery>::Shutdown
FUNC 3e7e6 39 0 google::protobuf::internal::ExplicitlyConstructed<HisLogResponse>::Shutdown
FUNC 3e820 39 0 google::protobuf::internal::ExplicitlyConstructed<NetcardInfoRequest>::Shutdown
FUNC 3e85a 39 0 google::protobuf::internal::ExplicitlyConstructed<NetcardInfo>::Shutdown
FUNC 3e894 39 0 google::protobuf::internal::ExplicitlyConstructed<NetcardInfoResponse>::Shutdown
FUNC 3e8ce 39 0 google::protobuf::internal::ExplicitlyConstructed<ProcessData>::Shutdown
FUNC 3e908 39 0 google::protobuf::internal::ExplicitlyConstructed<ProcessCtrl>::Shutdown
FUNC 3e942 39 0 google::protobuf::internal::ExplicitlyConstructed<RealPointValue>::Shutdown
FUNC 3e97c 39 0 google::protobuf::internal::ExplicitlyConstructed<HeartBeatMessage>::Shutdown
FUNC 3e9b6 39 0 google::protobuf::internal::ExplicitlyConstructed<CommunicationPair>::Shutdown
FUNC 3e9f0 39 0 google::protobuf::internal::ExplicitlyConstructed<FlowThreshold>::Shutdown
FUNC 3ea2a 3f 0 google::protobuf::internal::ExplicitlyConstructed<RtdbMessage>::Shutdown
FUNC 3ea6a 70 0 google::protobuf::internal::ExplicitlyConstructed<RawMessage>::DefaultConstruct
FUNC 3eada 70 0 google::protobuf::internal::ExplicitlyConstructed<AlarmMessage>::DefaultConstruct
FUNC 3eb4a 70 0 google::protobuf::internal::ExplicitlyConstructed<DebugRequest>::DefaultConstruct
FUNC 3ebba 70 0 google::protobuf::internal::ExplicitlyConstructed<SOEMessage>::DefaultConstruct
FUNC 3ec2a 70 0 google::protobuf::internal::ExplicitlyConstructed<ControlRequet>::DefaultConstruct
FUNC 3ec9a 70 0 google::protobuf::internal::ExplicitlyConstructed<LogRequest>::DefaultConstruct
FUNC 3ed0a 70 0 google::protobuf::internal::ExplicitlyConstructed<RealLogResponse>::DefaultConstruct
FUNC 3ed7a 70 0 google::protobuf::internal::ExplicitlyConstructed<LogQuery>::DefaultConstruct
FUNC 3edea 70 0 google::protobuf::internal::ExplicitlyConstructed<HisLogResponse>::DefaultConstruct
FUNC 3ee5a 70 0 google::protobuf::internal::ExplicitlyConstructed<NetcardInfoRequest>::DefaultConstruct
FUNC 3eeca 70 0 google::protobuf::internal::ExplicitlyConstructed<NetcardInfo>::DefaultConstruct
FUNC 3ef3a 70 0 google::protobuf::internal::ExplicitlyConstructed<NetcardInfoResponse>::DefaultConstruct
FUNC 3efaa 70 0 google::protobuf::internal::ExplicitlyConstructed<ProcessData>::DefaultConstruct
FUNC 3f01a 70 0 google::protobuf::internal::ExplicitlyConstructed<ProcessCtrl>::DefaultConstruct
FUNC 3f08a 70 0 google::protobuf::internal::ExplicitlyConstructed<RealPointValue>::DefaultConstruct
FUNC 3f0fa 70 0 google::protobuf::internal::ExplicitlyConstructed<HeartBeatMessage>::DefaultConstruct
FUNC 3f16a 70 0 google::protobuf::internal::ExplicitlyConstructed<CommunicationPair>::DefaultConstruct
FUNC 3f1da 70 0 google::protobuf::internal::ExplicitlyConstructed<FlowThreshold>::DefaultConstruct
FUNC 3f24a 73 0 google::protobuf::internal::ExplicitlyConstructed<RtdbMessage>::DefaultConstruct
FUNC 3f2be e 0 google::protobuf::internal::ExplicitlyConstructed<RtdbMessage>::get_mutable
FUNC 3f2cc 43 0 google::protobuf::Arena::Own<RawMessage>
FUNC 3f30f 6a 0 google::protobuf::internal::down_cast<const RawMessage*, const google::protobuf::MessageLite>
FUNC 3f37a 43 0 google::protobuf::Arena::Own<AlarmMessage>
FUNC 3f3bd 6a 0 google::protobuf::internal::down_cast<const AlarmMessage*, const google::protobuf::MessageLite>
FUNC 3f428 43 0 google::protobuf::Arena::Own<DebugRequest>
FUNC 3f46b 6a 0 google::protobuf::internal::down_cast<const DebugRequest*, const google::protobuf::MessageLite>
FUNC 3f4d6 43 0 google::protobuf::Arena::Own<SOEMessage>
FUNC 3f519 6a 0 google::protobuf::internal::down_cast<const SOEMessage*, const google::protobuf::MessageLite>
FUNC 3f584 43 0 google::protobuf::Arena::Own<ControlRequet>
FUNC 3f5c7 6a 0 google::protobuf::internal::down_cast<const ControlRequet*, const google::protobuf::MessageLite>
FUNC 3f631 2f 0 std::swap<bool>
FUNC 3f660 43 0 google::protobuf::Arena::Own<LogRequest>
FUNC 3f6a3 6a 0 google::protobuf::internal::down_cast<const LogRequest*, const google::protobuf::MessageLite>
FUNC 3f70e 43 0 google::protobuf::Arena::Own<RealLogResponse>
FUNC 3f751 6a 0 google::protobuf::internal::down_cast<const RealLogResponse*, const google::protobuf::MessageLite>
FUNC 3f7bb 32 0 std::swap<google::protobuf::uint64>
FUNC 3f7ee 43 0 google::protobuf::Arena::Own<LogQuery>
FUNC 3f831 6a 0 google::protobuf::internal::down_cast<const LogQuery*, const google::protobuf::MessageLite>
FUNC 3f89c 43 0 google::protobuf::Arena::Own<HisLogResponse>
FUNC 3f8df 6a 0 google::protobuf::internal::down_cast<const HisLogResponse*, const google::protobuf::MessageLite>
FUNC 3f94a 43 0 google::protobuf::Arena::Own<NetcardInfoRequest>
FUNC 3f98d 6a 0 google::protobuf::internal::down_cast<const NetcardInfoRequest*, const google::protobuf::MessageLite>
FUNC 3f9f8 43 0 google::protobuf::Arena::Own<NetcardInfo>
FUNC 3fa3b 6a 0 google::protobuf::internal::down_cast<const NetcardInfo*, const google::protobuf::MessageLite>
FUNC 3faa6 1a 0 google::protobuf::RepeatedPtrField<NetcardInfo>::RepeatedPtrField
FUNC 3fac0 51 0 google::protobuf::RepeatedPtrField<NetcardInfo>::~RepeatedPtrField
FUNC 3fb12 5c 0 google::protobuf::RepeatedPtrField<NetcardInfo>::RepeatedPtrField
FUNC 3fb6e 43 0 google::protobuf::Arena::Own<NetcardInfoResponse>
FUNC 3fbb2 91 0 google::protobuf::internal::WireFormatLite::ReadMessageNoVirtual<NetcardInfo>
FUNC 3fc44 22 0 google::protobuf::internal::WireFormatLite::MessageSizeNoVirtual<NetcardInfo>
FUNC 3fc66 6a 0 google::protobuf::internal::down_cast<const NetcardInfoResponse*, const google::protobuf::MessageLite>
FUNC 3fcd0 25 0 google::protobuf::RepeatedPtrField<NetcardInfo>::MergeFrom
FUNC 3fcf6 43 0 google::protobuf::Arena::Own<ProcessData>
FUNC 3fd39 6a 0 google::protobuf::internal::down_cast<const ProcessData*, const google::protobuf::MessageLite>
FUNC 3fda3 2c 0 std::swap<float>
FUNC 3fdd0 43 0 google::protobuf::Arena::Own<ProcessCtrl>
FUNC 3fe13 6a 0 google::protobuf::internal::down_cast<const ProcessCtrl*, const google::protobuf::MessageLite>
FUNC 3fe7e 43 0 google::protobuf::Arena::Own<RealPointValue>
FUNC 3fec1 6a 0 google::protobuf::internal::down_cast<const RealPointValue*, const google::protobuf::MessageLite>
FUNC 3ff2c 43 0 google::protobuf::Arena::Own<HeartBeatMessage>
FUNC 3ff6f 6a 0 google::protobuf::internal::down_cast<const HeartBeatMessage*, const google::protobuf::MessageLite>
FUNC 3ffda 43 0 google::protobuf::Arena::Own<CommunicationPair>
FUNC 4001d 6a 0 google::protobuf::internal::down_cast<const CommunicationPair*, const google::protobuf::MessageLite>
FUNC 40088 43 0 google::protobuf::Arena::Own<FlowThreshold>
FUNC 400cb 6a 0 google::protobuf::internal::down_cast<const FlowThreshold*, const google::protobuf::MessageLite>
FUNC 40136 43 0 google::protobuf::Arena::Own<RtdbMessage>
FUNC 4017a 91 0 google::protobuf::internal::WireFormatLite::ReadMessageNoVirtual<LogRequest>
FUNC 4020c 91 0 google::protobuf::internal::WireFormatLite::ReadMessageNoVirtual<RealLogResponse>
FUNC 4029e 91 0 google::protobuf::internal::WireFormatLite::ReadMessageNoVirtual<LogQuery>
FUNC 40330 91 0 google::protobuf::internal::WireFormatLite::ReadMessageNoVirtual<HisLogResponse>
FUNC 403c2 91 0 google::protobuf::internal::WireFormatLite::ReadMessageNoVirtual<NetcardInfoRequest>
FUNC 40454 91 0 google::protobuf::internal::WireFormatLite::ReadMessageNoVirtual<NetcardInfoResponse>
FUNC 404e6 91 0 google::protobuf::internal::WireFormatLite::ReadMessageNoVirtual<ProcessData>
FUNC 40578 91 0 google::protobuf::internal::WireFormatLite::ReadMessageNoVirtual<ProcessCtrl>
FUNC 4060a 91 0 google::protobuf::internal::WireFormatLite::ReadMessageNoVirtual<RealPointValue>
FUNC 4069c 91 0 google::protobuf::internal::WireFormatLite::ReadMessageNoVirtual<HeartBeatMessage>
FUNC 4072e 91 0 google::protobuf::internal::WireFormatLite::ReadMessageNoVirtual<AlarmMessage>
FUNC 407c0 91 0 google::protobuf::internal::WireFormatLite::ReadMessageNoVirtual<CommunicationPair>
FUNC 40852 91 0 google::protobuf::internal::WireFormatLite::ReadMessageNoVirtual<FlowThreshold>
FUNC 408e4 22 0 google::protobuf::internal::WireFormatLite::MessageSizeNoVirtual<LogRequest>
FUNC 40906 22 0 google::protobuf::internal::WireFormatLite::MessageSizeNoVirtual<RealLogResponse>
FUNC 40928 22 0 google::protobuf::internal::WireFormatLite::MessageSizeNoVirtual<LogQuery>
FUNC 4094a 22 0 google::protobuf::internal::WireFormatLite::MessageSizeNoVirtual<HisLogResponse>
FUNC 4096c 22 0 google::protobuf::internal::WireFormatLite::MessageSizeNoVirtual<NetcardInfoRequest>
FUNC 4098e 22 0 google::protobuf::internal::WireFormatLite::MessageSizeNoVirtual<NetcardInfoResponse>
FUNC 409b0 22 0 google::protobuf::internal::WireFormatLite::MessageSizeNoVirtual<ProcessData>
FUNC 409d2 22 0 google::protobuf::internal::WireFormatLite::MessageSizeNoVirtual<ProcessCtrl>
FUNC 409f4 22 0 google::protobuf::internal::WireFormatLite::MessageSizeNoVirtual<RealPointValue>
FUNC 40a16 22 0 google::protobuf::internal::WireFormatLite::MessageSizeNoVirtual<HeartBeatMessage>
FUNC 40a38 22 0 google::protobuf::internal::WireFormatLite::MessageSizeNoVirtual<AlarmMessage>
FUNC 40a5a 22 0 google::protobuf::internal::WireFormatLite::MessageSizeNoVirtual<CommunicationPair>
FUNC 40a7c 22 0 google::protobuf::internal::WireFormatLite::MessageSizeNoVirtual<FlowThreshold>
FUNC 40a9e 6a 0 google::protobuf::internal::down_cast<const RtdbMessage*, const google::protobuf::MessageLite>
FUNC 40b08 32 0 std::swap<LogRequest*>
FUNC 40b3a 32 0 std::swap<RealLogResponse*>
FUNC 40b6c 32 0 std::swap<LogQuery*>
FUNC 40b9e 32 0 std::swap<HisLogResponse*>
FUNC 40bd0 32 0 std::swap<NetcardInfoRequest*>
FUNC 40c02 32 0 std::swap<NetcardInfoResponse*>
FUNC 40c34 32 0 std::swap<ProcessData*>
FUNC 40c66 32 0 std::swap<ProcessCtrl*>
FUNC 40c98 32 0 std::swap<RealPointValue*>
FUNC 40cca 32 0 std::swap<HeartBeatMessage*>
FUNC 40cfc 32 0 std::swap<AlarmMessage*>
FUNC 40d2e 32 0 std::swap<CommunicationPair*>
FUNC 40d60 32 0 std::swap<FlowThreshold*>
FUNC 40d92 2d 0 std::make_pair<unsigned int, bool>
FUNC 40dc0 15 0 google::protobuf::internal::InternalMetadataWithArenaBase<std::basic_string<char, std::char_traits<char>, std::allocator<char> >, google::protobuf::internal::InternalMetadataWithArenaLite>::PtrValue<google::protobuf::internal::InternalMetadataWithArenaBase<std::basic_string<char, std::char_traits<char>, std::allocator<char> >, google::protobuf::internal::InternalMetadataWithArenaLite>::Container>
FUNC 40dd6 1ae 0 google::protobuf::internal::InternalMetadataWithArenaBase<std::basic_string<char, std::char_traits<char>, std::allocator<char> >, google::protobuf::internal::InternalMetadataWithArenaLite>::mutable_unknown_fields_slow
FUNC 40f84 107 0 google::protobuf::internal::RepeatedPtrFieldBase::Clear<google::protobuf::RepeatedPtrField<NetcardInfo>::TypeHandler>
FUNC 4108c 165 0 google::protobuf::internal::RepeatedPtrFieldBase::Get<google::protobuf::RepeatedPtrField<NetcardInfo>::TypeHandler>
FUNC 411f2 f4 0 google::protobuf::internal::RepeatedPtrFieldBase::Add<google::protobuf::RepeatedPtrField<NetcardInfo>::TypeHandler>
FUNC 412e6 e 0 google::protobuf::internal::ExplicitlyConstructed<RawMessage>::get_mutable
FUNC 412f4 e 0 google::protobuf::internal::ExplicitlyConstructed<AlarmMessage>::get_mutable
FUNC 41302 e 0 google::protobuf::internal::ExplicitlyConstructed<DebugRequest>::get_mutable
FUNC 41310 e 0 google::protobuf::internal::ExplicitlyConstructed<SOEMessage>::get_mutable
FUNC 4131e e 0 google::protobuf::internal::ExplicitlyConstructed<ControlRequet>::get_mutable
FUNC 4132c e 0 google::protobuf::internal::ExplicitlyConstructed<LogRequest>::get_mutable
FUNC 4133a e 0 google::protobuf::internal::ExplicitlyConstructed<RealLogResponse>::get_mutable
FUNC 41348 e 0 google::protobuf::internal::ExplicitlyConstructed<LogQuery>::get_mutable
FUNC 41356 e 0 google::protobuf::internal::ExplicitlyConstructed<HisLogResponse>::get_mutable
FUNC 41364 e 0 google::protobuf::internal::ExplicitlyConstructed<NetcardInfoRequest>::get_mutable
FUNC 41372 e 0 google::protobuf::internal::ExplicitlyConstructed<NetcardInfo>::get_mutable
FUNC 41380 e 0 google::protobuf::internal::ExplicitlyConstructed<NetcardInfoResponse>::get_mutable
FUNC 4138e e 0 google::protobuf::internal::ExplicitlyConstructed<ProcessData>::get_mutable
FUNC 4139c e 0 google::protobuf::internal::ExplicitlyConstructed<ProcessCtrl>::get_mutable
FUNC 413aa e 0 google::protobuf::internal::ExplicitlyConstructed<RealPointValue>::get_mutable
FUNC 413b8 e 0 google::protobuf::internal::ExplicitlyConstructed<HeartBeatMessage>::get_mutable
FUNC 413c6 e 0 google::protobuf::internal::ExplicitlyConstructed<CommunicationPair>::get_mutable
FUNC 413d4 e 0 google::protobuf::internal::ExplicitlyConstructed<FlowThreshold>::get_mutable
FUNC 413e2 9f 0 google::protobuf::internal::RepeatedPtrFieldBase::Destroy<google::protobuf::RepeatedPtrField<NetcardInfo>::TypeHandler>
FUNC 41482 e8 0 google::protobuf::internal::RepeatedPtrFieldBase::MergeFrom<google::protobuf::RepeatedPtrField<NetcardInfo>::TypeHandler>
FUNC 4156a 2c 0 std::pair<unsigned int, bool>::pair
FUNC 41596 15 0 google::protobuf::internal::InternalMetadataWithArenaBase<std::basic_string<char, std::char_traits<char>, std::allocator<char> >, google::protobuf::internal::InternalMetadataWithArenaLite>::PtrValue<google::protobuf::Arena>
FUNC 415ac 1a 0 google::protobuf::internal::InternalMetadataWithArenaBase<std::basic_string<char, std::char_traits<char>, std::allocator<char> >, google::protobuf::internal::InternalMetadataWithArenaLite>::Container::Container
FUNC 415c6 25 0 google::protobuf::internal::GenericTypeHandler<NetcardInfo>::Clear
FUNC 415eb e 0 google::protobuf::internal::RepeatedPtrFieldBase::cast<google::protobuf::RepeatedPtrField<NetcardInfo>::TypeHandler>
FUNC 415fa 1e 0 google::protobuf::internal::GenericTypeHandler<NetcardInfo>::NewFromPrototype
FUNC 41618 2e 0 google::protobuf::internal::arena_delete_object<RawMessage>
FUNC 41646 2e 0 google::protobuf::internal::arena_delete_object<AlarmMessage>
FUNC 41674 2e 0 google::protobuf::internal::arena_delete_object<DebugRequest>
FUNC 416a2 2e 0 google::protobuf::internal::arena_delete_object<SOEMessage>
FUNC 416d0 2e 0 google::protobuf::internal::arena_delete_object<ControlRequet>
FUNC 416fe 2e 0 google::protobuf::internal::arena_delete_object<LogRequest>
FUNC 4172c 2e 0 google::protobuf::internal::arena_delete_object<RealLogResponse>
FUNC 4175a 2e 0 google::protobuf::internal::arena_delete_object<LogQuery>
FUNC 41788 2e 0 google::protobuf::internal::arena_delete_object<HisLogResponse>
FUNC 417b6 2e 0 google::protobuf::internal::arena_delete_object<NetcardInfoRequest>
FUNC 417e4 2e 0 google::protobuf::internal::arena_delete_object<NetcardInfo>
FUNC 41812 37 0 google::protobuf::internal::GenericTypeHandler<NetcardInfo>::Delete
FUNC 41849 2e 0 google::protobuf::internal::arena_delete_object<NetcardInfoResponse>
FUNC 41878 100 0 google::protobuf::internal::RepeatedPtrFieldBase::MergeFromInnerLoop<google::protobuf::RepeatedPtrField<NetcardInfo>::TypeHandler>
FUNC 41978 2e 0 google::protobuf::internal::arena_delete_object<ProcessData>
FUNC 419a6 2e 0 google::protobuf::internal::arena_delete_object<ProcessCtrl>
FUNC 419d4 2e 0 google::protobuf::internal::arena_delete_object<RealPointValue>
FUNC 41a02 2e 0 google::protobuf::internal::arena_delete_object<HeartBeatMessage>
FUNC 41a30 2e 0 google::protobuf::internal::arena_delete_object<CommunicationPair>
FUNC 41a5e 2e 0 google::protobuf::internal::arena_delete_object<FlowThreshold>
FUNC 41a8c 2e 0 google::protobuf::internal::arena_delete_object<RtdbMessage>
FUNC 41aba 11b 0 google::protobuf::internal::GenericTypeHandler<NetcardInfo>::New
FUNC 41bd6 25 0 google::protobuf::internal::GenericTypeHandler<NetcardInfo>::Merge
FUNC 41bfb 1a 0 google::protobuf::internal::arena_destruct_object<google::protobuf::internal::InternalMetadataWithArenaBase<std::basic_string<char, std::char_traits<char>, std::allocator<char> >, google::protobuf::internal::InternalMetadataWithArenaLite>::Container>
FUNC 41c15 21 0 google::protobuf::internal::arena_destruct_object<NetcardInfo>
FUNC 41c38 2c 0 Serial485ClientService::Serial485ClientService
FUNC 41c64 41 0 Serial485ClientService::~Serial485ClientService
FUNC 41ca6 26 0 Serial485ClientService::~Serial485ClientService
FUNC 41ccc 141 0 Serial485ClientService::Start
FUNC 41e0e 385 0 Serial485ClientService::Read
FUNC 42193 14a 0 __static_initialization_and_destruction_0
FUNC 422dd 15 0 _GLOBAL__I_Serial485ClientService.cpp
FUNC 422f4 109 0 SerialNet::SerialNet
FUNC 423fe e3 0 SerialNet::~SerialNet
FUNC 424e2 26 0 SerialNet::~SerialNet
FUNC 42508 485 0 SerialNet::Connect
FUNC 4298e af 0 SerialNet::GetFunction
FUNC 42a3e 312 0 SerialNet::Read
FUNC 42d50 b3 0 SerialNet::Write
FUNC 42e04 2c 0 SerialNet::DisConnect
FUNC 42e30 2b2 0 SerialNet::SetSpeed
FUNC 430e2 35a 0 SerialNet::SetParity
FUNC 4343c 42 0 SerialNet::SumCheck
FUNC 4347e 112 0 SerialNet::ToHexString
FUNC 43590 48 0 __static_initialization_and_destruction_0
FUNC 435d8 15 0 _GLOBAL__I_SerialNet.cpp
FUNC 435f0 cd 0 SerialService::SerialService
FUNC 436be b1 0 SerialService::~SerialService
FUNC 43770 26 0 SerialService::~SerialService
FUNC 43796 221 0 SerialService::Start
FUNC 439b8 67e 0 SerialService::Write
FUNC 44036 57d 0 SerialService::Read
FUNC 445b4 9c 0 SerialService::ParseRecvData
FUNC 44650 b0 0 SerialService::ParseFixedData
FUNC 44700 213 0 SerialService::ParseVariableData
FUNC 44914 189 0 SerialService::InitConfig
FUNC 44a9d 14a 0 __static_initialization_and_destruction_0
FUNC 44be7 15 0 _GLOBAL__I_SerialService.cpp
FUNC 44bfc 33 0 Config::GetSerialPortPath
FUNC 44c30 11 0 Config::GetSpeed
FUNC 44c42 11 0 Config::GetDatabits
FUNC 44c54 11 0 Config::GetStopbits
FUNC 44c66 12 0 Config::GetParity
FUNC 44c78 12 0 Config::GetClientAddr
FUNC 44c8a 33 0 Config::GetIp
FUNC 44cbe 12 0 Config::GetTcpPort
FUNC 44cd0 15 0 Config::GetOutTime
FUNC 44ce6 1a 0 std::vector<char, std::allocator<char> >::vector
FUNC 44d00 6e 0 std::vector<char, std::allocator<char> >::~vector
FUNC 44d6e 229 0 std::vector<char, std::allocator<char> >::operator=
FUNC 44f98 11 0 std::vector<char, std::allocator<char> >::data
FUNC 44faa 25 0 std::vector<char, std::allocator<char> >::size
FUNC 44fd0 1f 0 std::vector<short unsigned int, std::allocator<short unsigned int> >::operator[]
FUNC 44ff0 1a 0 std::_Vector_base<char, std::allocator<char> >::_Vector_impl::~_Vector_impl
FUNC 4500a 1a 0 std::_Vector_base<char, std::allocator<char> >::_Vector_base
FUNC 45024 79 0 std::_Vector_base<char, std::allocator<char> >::~_Vector_base
FUNC 4509e e 0 std::_Vector_base<char, std::allocator<char> >::_M_get_Tp_allocator
FUNC 450ac 29 0 std::_Destroy<char*, char>
FUNC 450d6 25 0 std::vector<char, std::allocator<char> >::capacity
FUNC 450fc 30 0 std::vector<char, std::allocator<char> >::begin
FUNC 4512c 31 0 std::vector<char, std::allocator<char> >::end
FUNC 4515e a1 0 std::vector<char, std::allocator<char> >::_M_allocate_and_copy<__gnu_cxx::__normal_iterator<const char*, std::vector<char, std::allocator<char> > > >
FUNC 45200 34 0 std::_Vector_base<char, std::allocator<char> >::_M_deallocate
FUNC 45234 25 0 std::vector<char, std::allocator<char> >::begin
FUNC 45259 46 0 std::copy<__gnu_cxx::__normal_iterator<const char*, std::vector<char, std::allocator<char> > >, __gnu_cxx::__normal_iterator<char*, std::vector<char, std::allocator<char> > > >
FUNC 452a0 29 0 std::vector<char, std::allocator<char> >::end
FUNC 452c9 29 0 std::_Destroy<__gnu_cxx::__normal_iterator<char*, std::vector<char, std::allocator<char> > >, char>
FUNC 452f2 46 0 std::copy<char*, char*>
FUNC 45338 31 0 std::__uninitialized_copy_a<char*, char*, char>
FUNC 4536a 3d 0 std::_Vector_base<char, std::allocator<char> >::_Vector_impl::_Vector_impl
FUNC 453a7 25 0 std::_Destroy<char*>
FUNC 453cc 1c 0 __gnu_cxx::__normal_iterator<const char*, std::vector<char, std::allocator<char> > >::__normal_iterator
FUNC 453e8 38 0 std::_Vector_base<char, std::allocator<char> >::_M_allocate
FUNC 45420 31 0 std::__uninitialized_copy_a<__gnu_cxx::__normal_iterator<const char*, std::vector<char, std::allocator<char> > >, char*, char>
FUNC 45452 22 0 __gnu_cxx::new_allocator<char>::deallocate
FUNC 45474 1c 0 __gnu_cxx::__normal_iterator<char*, std::vector<char, std::allocator<char> > >::__normal_iterator
FUNC 45490 e 0 std::__miter_base<__gnu_cxx::__normal_iterator<const char*, std::vector<char, std::allocator<char> > >, false>::__b
FUNC 4549e 73 0 std::__copy_move_a2<false, __gnu_cxx::__normal_iterator<const char*, std::vector<char, std::allocator<char> > >, __gnu_cxx::__normal_iterator<char*, std::vector<char, std::allocator<char> > > >
FUNC 45511 25 0 std::_Destroy<__gnu_cxx::__normal_iterator<char*, std::vector<char, std::allocator<char> > > >
FUNC 45536 e 0 std::__miter_base<char*, false>::__b
FUNC 45544 58 0 std::__copy_move_a2<false, char*, char*>
FUNC 4559c 2d 0 std::uninitialized_copy<char*, char*>
FUNC 455c9 e 0 std::_Destroy_aux<true>::__destroy<char*>
FUNC 455d8 47 0 __gnu_cxx::new_allocator<char>::allocate
FUNC 4561f 2d 0 std::uninitialized_copy<__gnu_cxx::__normal_iterator<const char*, std::vector<char, std::allocator<char> > >, char*>
FUNC 4564c 1d 0 std::__niter_base<__gnu_cxx::__normal_iterator<const char*, std::vector<char, std::allocator<char> > >, true>::__b
FUNC 45669 1d 0 std::__niter_base<__gnu_cxx::__normal_iterator<char*, std::vector<char, std::allocator<char> > >, true>::__b
FUNC 45686 31 0 std::__copy_move_a<false, const char*, char*>
FUNC 456b7 e 0 std::_Destroy_aux<true>::__destroy<__gnu_cxx::__normal_iterator<char*, std::vector<char, std::allocator<char> > > >
FUNC 456c5 e 0 std::__niter_base<char*, false>::__b
FUNC 456d3 31 0 std::__copy_move_a<false, char*, char*>
FUNC 45704 2d 0 std::__uninitialized_copy<true>::uninitialized_copy<char*, char*>
FUNC 45732 11 0 __gnu_cxx::new_allocator<char>::max_size
FUNC 45743 2d 0 std::__uninitialized_copy<true>::uninitialized_copy<__gnu_cxx::__normal_iterator<const char*, std::vector<char, std::allocator<char> > >, char*>
FUNC 45770 e 0 __gnu_cxx::__normal_iterator<const char*, std::vector<char, std::allocator<char> > >::base
FUNC 4577e e 0 __gnu_cxx::__normal_iterator<char*, std::vector<char, std::allocator<char> > >::base
FUNC 4578c 52 0 std::__copy_move<false, true, std::random_access_iterator_tag>::__copy_m<char>
FUNC 457de 46 0 std::copy<__gnu_cxx::__normal_iterator<const char*, std::vector<char, std::allocator<char> > >, char*>
FUNC 45824 58 0 std::__copy_move_a2<false, __gnu_cxx::__normal_iterator<const char*, std::vector<char, std::allocator<char> > >, char*>
FUNC 4587c c7 0 Service::Service
FUNC 45944 ad 0 Service::~Service
FUNC 459f2 26 0 Service::~Service
FUNC 45a18 a 0 Service::InitConfig
FUNC 45a22 2a 0 Service::Init
FUNC 45a4c f2 0 Service::setPointAddrMap
FUNC 45b3e 2b7 0 Service::Start
FUNC 45df6 97b 0 Service::Write
FUNC 46772 476 0 Service::Read
FUNC 46be8 15e 0 Service::ParseRecvData
FUNC 46d46 6d 0 Service::ParseFixedData
FUNC 46db4 181 0 Service::ParseVariableData
FUNC 46f36 47 0 Service::CmdResetCon
FUNC 46f7e 47 0 Service::CmdResetNum
FUNC 46fc6 4b 0 Service::CmdGetDataLv1
FUNC 47012 4b 0 Service::CmdGetDataLv2
FUNC 4705e 13a 0 Service::CmdFixedData
FUNC 47198 3ad 0 Service::CmdSetTimeStamp
FUNC 47546 22c 0 Service::CmdResetEventAlarm
FUNC 47772 347 0 Service::CmdSettingDownload
FUNC 47aba 347 0 Service::CmdSettingModify
FUNC 47e02 23f 0 Service::CmdGetAll
FUNC 48042 26d 0 Service::CmdGetGroupValue
FUNC 482b0 273 0 Service::CmdGetEntryValue
FUNC 48524 42 0 Service::SumCheck
FUNC 48566 356 0 Service::ParseASDU44
FUNC 488bc 2d0 0 Service::ParseASDU40
FUNC 48b8c 3c 0 Service::ParseASDU41
FUNC 48bc8 5a7 0 Service::ParseASDU42
FUNC 49170 437 0 Service::ParseASDU50
FUNC 495a8 3f3 0 Service::ParseASDU1
FUNC 4999c 469 0 Service::ParseASDU2
FUNC 49e06 124 0 Service::GetGlobalAddrByPrivateAddr
FUNC 49f2a a3 0 Service::GetRateByPrivateAddr
FUNC 49fce 112 0 Service::ToHexString
FUNC 4a0e0 4dc 0 Service::InitPointAddrMap
FUNC 4a5bc a4 0 Service::StartBreakHeart
FUNC 4a660 db 0 Service::ThreadFunc
FUNC 4a73c 18e 0 Service::ParseASDU10
FUNC 4a8ca 53d 0 Service::ParseASDU10AllValue
FUNC 4ae07 1c4 0 __static_initialization_and_destruction_0
FUNC 4afcb 15 0 _GLOBAL__I_Service.cpp
FUNC 4afe0 12 0 Config::GetUdpPort
FUNC 4aff2 15 0 Config::GetId
FUNC 4b008 14 0 Config::GetIedName
FUNC 4b01c 66 0 Tag::Tag
FUNC 4b082 50 0 Tag::~Tag
FUNC 4b0d2 63 0 Tag::operator=
FUNC 4b136 8b 0 Tag::ZeroTag
FUNC 4b1c2 1a 0 std::map<std::basic_string<char, std::char_traits<char>, std::allocator<char> >, Service::Point103, std::less<std::basic_string<char, std::char_traits<char>, std::allocator<char> > >, std::allocator<std::pair<const std::basic_string<char, std::char_traits<char>, std::allocator<char> >, Service::Point103> > >::~map
FUNC 4b1dc 1e 0 Service::Point103::Point103
FUNC 4b1fa 1e 0 Service::Point103::~Point103
FUNC 4b218 3d 0 Service::Point103::operator=
FUNC 4b256 39 0 Service::Point103::Point103
FUNC 4b290 1e 0 std::pair<char*, Service::Point103>::~pair
FUNC 4b2ae 55 0 std::pair<const std::basic_string<char, std::char_traits<char>, std::allocator<char> >, Service::Point103>::~pair
FUNC 4b304 1a 0 std::vector<Tag, std::allocator<Tag> >::vector
FUNC 4b31e 6e 0 std::vector<Tag, std::allocator<Tag> >::~vector
FUNC 4b38c 1a 0 std::map<std::basic_string<char, std::char_traits<char>, std::allocator<char> >, Service::Point103, std::less<std::basic_string<char, std::char_traits<char>, std::allocator<char> > >, std::allocator<std::pair<const std::basic_string<char, std::char_traits<char>, std::allocator<char> >, Service::Point103> > >::map
FUNC 4b3a6 1a 0 std::_Rb_tree<std::basic_string<char, std::char_traits<char>, std::allocator<char> >, std::pair<const std::basic_string<char, std::char_traits<char>, std::allocator<char> >, Service::Point103>, std::_Select1st<std::pair<const std::basic_string<char, std::char_traits<char>, std::allocator<char> >, Service::Point103> >, std::less<std::basic_string<char, std::char_traits<char>, std::allocator<char> > >, std::allocator<std::pair<const std::basic_string<char, std::char_traits<char>, std::allocator<char> >, Service::Point103> > >::_Rb_tree_impl<std::less<std::basic_string<char, std::char_traits<char>, std::allocator<char> > >, false>::~_Rb_tree_impl
FUNC 4b3c0 63 0 std::_Rb_tree<std::basic_string<char, std::char_traits<char>, std::allocator<char> >, std::pair<const std::basic_string<char, std::char_traits<char>, std::allocator<char> >, Service::Point103>, std::_Select1st<std::pair<const std::basic_string<char, std::char_traits<char>, std::allocator<char> >, Service::Point103> >, std::less<std::basic_string<char, std::char_traits<char>, std::allocator<char> > >, std::allocator<std::pair<const std::basic_string<char, std::char_traits<char>, std::allocator<char> >, Service::Point103> > >::~_Rb_tree
FUNC 4b424 1a 0 std::map<std::basic_string<char, std::char_traits<char>, std::allocator<char> >, std::basic_string<char, std::char_traits<char>, std::allocator<char> >, std::less<std::basic_string<char, std::char_traits<char>, std::allocator<char> > >, std::allocator<std::pair<const std::basic_string<char, std::char_traits<char>, std::allocator<char> >, std::basic_string<char, std::char_traits<char>, std::allocator<char> > > > >::begin
FUNC 4b43e 22 0 std::_Rb_tree_iterator<std::pair<const std::basic_string<char, std::char_traits<char>, std::allocator<char> >, std::basic_string<char, std::char_traits<char>, std::allocator<char> > > >::operator!=
FUNC 4b460 28 0 std::_Rb_tree_iterator<std::pair<const std::basic_string<char, std::char_traits<char>, std::allocator<char> >, std::basic_string<char, std::char_traits<char>, std::allocator<char> > > >::operator++
FUNC 4b488 15 0 std::_Rb_tree_iterator<std::pair<const std::basic_string<char, std::char_traits<char>, std::allocator<char> >, std::basic_string<char, std::char_traits<char>, std::allocator<char> > > >::operator->
FUNC 4b49e 156 0 std::map<std::basic_string<char, std::char_traits<char>, std::allocator<char> >, Service::Point103, std::less<std::basic_string<char, std::char_traits<char>, std::allocator<char> > >, std::allocator<std::pair<const std::basic_string<char, std::char_traits<char>, std::allocator<char> >, Service::Point103> > >::operator[]
FUNC 4b5f4 73 0 std::vector<char, std::allocator<char> >::vector
FUNC 4b668 19 0 std::vector<char, std::allocator<char> >::operator[]
FUNC 4b682 7d 0 std::vector<Tag, std::allocator<Tag> >::push_back
FUNC 4b700 25 0 std::map<std::basic_string<char, std::char_traits<char>, std::allocator<char> >, Service::Point103, std::less<std::basic_string<char, std::char_traits<char>, std::allocator<char> > >, std::allocator<std::pair<const std::basic_string<char, std::char_traits<char>, std::allocator<char> >, Service::Point103> > >::find
FUNC 4b726 1c 0 std::_Rb_tree_const_iterator<std::pair<const std::basic_string<char, std::char_traits<char>, std::allocator<char> >, Service::Point103> >::_Rb_tree_const_iterator
FUNC 4b742 1a 0 std::map<std::basic_string<char, std::char_traits<char>, std::allocator<char> >, Service::Point103, std::less<std::basic_string<char, std::char_traits<char>, std::allocator<char> > >, std::allocator<std::pair<const std::basic_string<char, std::char_traits<char>, std::allocator<char> >, Service::Point103> > >::end
FUNC 4b75c 22 0 std::_Rb_tree_const_iterator<std::pair<const std::basic_string<char, std::char_traits<char>, std::allocator<char> >, Service::Point103> >::operator!=
FUNC 4b77e 15 0 std::_Rb_tree_const_iterator<std::pair<const std::basic_string<char, std::char_traits<char>, std::allocator<char> >, Service::Point103> >::operator->
FUNC 4b794 1a 0 std::map<std::basic_string<char, std::char_traits<char>, std::allocator<char> >, Service::Point103, std::less<std::basic_string<char, std::char_traits<char>, std::allocator<char> > >, std::allocator<std::pair<const std::basic_string<char, std::char_traits<char>, std::allocator<char> >, Service::Point103> > >::clear
FUNC 4b7ae 37 0 std::make_pair<char*, Service::Point103>
FUNC 4b7e6 ab 0 std::pair<const std::basic_string<char, std::char_traits<char>, std::allocator<char> >, Service::Point103>::pair<char*, Service::Point103>
FUNC 4b892 47 0 std::map<std::basic_string<char, std::char_traits<char>, std::allocator<char> >, Service::Point103, std::less<std::basic_string<char, std::char_traits<char>, std::allocator<char> > >, std::allocator<std::pair<const std::basic_string<char, std::char_traits<char>, std::allocator<char> >, Service::Point103> > >::insert
FUNC 4b8da 1a 0 std::map<std::basic_string<char, std::char_traits<char>, std::allocator<char> >, Service::Point103, std::less<std::basic_string<char, std::char_traits<char>, std::allocator<char> > >, std::allocator<std::pair<const std::basic_string<char, std::char_traits<char>, std::allocator<char> >, Service::Point103> > >::size
FUNC 4b8f4 1a 0 std::_Vector_base<Tag, std::allocator<Tag> >::_Vector_impl::~_Vector_impl
FUNC 4b90e 1a 0 std::_Vector_base<Tag, std::allocator<Tag> >::_Vector_base
FUNC 4b928 81 0 std::_Vector_base<Tag, std::allocator<Tag> >::~_Vector_base
FUNC 4b9aa e 0 std::_Vector_base<Tag, std::allocator<Tag> >::_M_get_Tp_allocator
FUNC 4b9b8 29 0 std::_Destroy<Tag*, Tag>
FUNC 4b9e2 1a 0 std::_Rb_tree<std::basic_string<char, std::char_traits<char>, std::allocator<char> >, std::pair<const std::basic_string<char, std::char_traits<char>, std::allocator<char> >, Service::Point103>, std::_Select1st<std::pair<const std::basic_string<char, std::char_traits<char>, std::allocator<char> >, Service::Point103> >, std::less<std::basic_string<char, std::char_traits<char>, std::allocator<char> > >, std::allocator<std::pair<const std::basic_string<char, std::char_traits<char>, std::allocator<char> >, Service::Point103> > >::_Rb_tree
FUNC 4b9fc 1a 0 std::allocator<std::_Rb_tree_node<std::pair<const std::basic_string<char, std::char_traits<char>, std::allocator<char> >, Service::Point103> > >::~allocator
FUNC 4ba16 69 0 std::_Rb_tree<std::basic_string<char, std::char_traits<char>, std::allocator<char> >, std::pair<const std::basic_string<char, std::char_traits<char>, std::allocator<char> >, Service::Point103>, std::_Select1st<std::pair<const std::basic_string<char, std::char_traits<char>, std::allocator<char> >, Service::Point103> >, std::less<std::basic_string<char, std::char_traits<char>, std::allocator<char> > >, std::allocator<std::pair<const std::basic_string<char, std::char_traits<char>, std::allocator<char> >, Service::Point103> > >::_M_erase
FUNC 4ba80 12 0 std::_Rb_tree<std::basic_string<char, std::char_traits<char>, std::allocator<char> >, std::pair<const std::basic_string<char, std::char_traits<char>, std::allocator<char> >, Service::Point103>, std::_Select1st<std::pair<const std::basic_string<char, std::char_traits<char>, std::allocator<char> >, Service::Point103> >, std::less<std::basic_string<char, std::char_traits<char>, std::allocator<char> > >, std::allocator<std::pair<const std::basic_string<char, std::char_traits<char>, std::allocator<char> >, Service::Point103> > >::_M_begin
FUNC 4ba92 25 0 std::map<std::basic_string<char, std::char_traits<char>, std::allocator<char> >, Service::Point103, std::less<std::basic_string<char, std::char_traits<char>, std::allocator<char> > >, std::allocator<std::pair<const std::basic_string<char, std::char_traits<char>, std::allocator<char> >, Service::Point103> > >::lower_bound
FUNC 4bab8 1a 0 std::map<std::basic_string<char, std::char_traits<char>, std::allocator<char> >, Service::Point103, std::less<std::basic_string<char, std::char_traits<char>, std::allocator<char> > >, std::allocator<std::pair<const std::basic_string<char, std::char_traits<char>, std::allocator<char> >, Service::Point103> > >::key_comp
FUNC 4bad2 15 0 std::_Rb_tree_iterator<std::pair<const std::basic_string<char, std::char_traits<char>, std::allocator<char> >, Service::Point103> >::operator*
FUNC 4bae8 22 0 std::_Rb_tree_iterator<std::pair<const std::basic_string<char, std::char_traits<char>, std::allocator<char> >, Service::Point103> >::operator==
FUNC 4bb0a 6b 0 std::pair<const std::basic_string<char, std::char_traits<char>, std::allocator<char> >, Service::Point103>::pair
FUNC 4bb76 40 0 std::map<std::basic_string<char, std::char_traits<char>, std::allocator<char> >, Service::Point103, std::less<std::basic_string<char, std::char_traits<char>, std::allocator<char> > >, std::allocator<std::pair<const std::basic_string<char, std::char_traits<char>, std::allocator<char> >, Service::Point103> > >::insert
FUNC 4bbb6 91 0 std::_Vector_base<char, std::allocator<char> >::_Vector_base
FUNC 4bc48 55 0 std::vector<char, std::allocator<char> >::_M_fill_initialize
FUNC 4bc9e e2 0 __gnu_cxx::new_allocator<Tag>::construct
FUNC 4bd80 42b 0 std::vector<Tag, std::allocator<Tag> >::_M_insert_aux
FUNC 4c1ac 29 0 std::vector<Tag, std::allocator<Tag> >::end
FUNC 4c1d6 b6 0 std::_Rb_tree<std::basic_string<char, std::char_traits<char>, std::allocator<char> >, std::pair<const std::basic_string<char, std::char_traits<char>, std::allocator<char> >, Service::Point103>, std::_Select1st<std::pair<const std::basic_string<char, std::char_traits<char>, std::allocator<char> >, Service::Point103> >, std::less<std::basic_string<char, std::char_traits<char>, std::allocator<char> > >, std::allocator<std::pair<const std::basic_string<char, std::char_traits<char>, std::allocator<char> >, Service::Point103> > >::find
FUNC 4c28c 2c 0 std::_Rb_tree<std::basic_string<char, std::char_traits<char>, std::allocator<char> >, std::pair<const std::basic_string<char, std::char_traits<char>, std::allocator<char> >, Service::Point103>, std::_Select1st<std::pair<const std::basic_string<char, std::char_traits<char>, std::allocator<char> >, Service::Point103> >, std::less<std::basic_string<char, std::char_traits<char>, std::allocator<char> > >, std::allocator<std::pair<const std::basic_string<char, std::char_traits<char>, std::allocator<char> >, Service::Point103> > >::end
FUNC 4c2b8 8d 0 std::_Rb_tree<std::basic_string<char, std::char_traits<char>, std::allocator<char> >, std::pair<const std::basic_string<char, std::char_traits<char>, std::allocator<char> >, Service::Point103>, std::_Select1st<std::pair<const std::basic_string<char, std::char_traits<char>, std::allocator<char> >, Service::Point103> >, std::less<std::basic_string<char, std::char_traits<char>, std::allocator<char> > >, std::allocator<std::pair<const std::basic_string<char, std::char_traits<char>, std::allocator<char> >, Service::Point103> > >::clear
FUNC 4c346 3b 0 std::pair<char*, Service::Point103>::pair
FUNC 4c382 271 0 std::_Rb_tree<std::basic_string<char, std::char_traits<char>, std::allocator<char> >, std::pair<const std::basic_string<char, std::char_traits<char>, std::allocator<char> >, Service::Point103>, std::_Select1st<std::pair<const std::basic_string<char, std::char_traits<char>, std::allocator<char> >, Service::Point103> >, std::less<std::basic_string<char, std::char_traits<char>, std::allocator<char> > >, std::allocator<std::pair<const std::basic_string<char, std::char_traits<char>, std::allocator<char> >, Service::Point103> > >::_M_insert_unique
FUNC 4c5f4 12 0 std::_Rb_tree<std::basic_string<char, std::char_traits<char>, std::allocator<char> >, std::pair<const std::basic_string<char, std::char_traits<char>, std::allocator<char> >, Service::Point103>, std::_Select1st<std::pair<const std::basic_string<char, std::char_traits<char>, std::allocator<char> >, Service::Point103> >, std::less<std::basic_string<char, std::char_traits<char>, std::allocator<char> > >, std::allocator<std::pair<const std::basic_string<char, std::char_traits<char>, std::allocator<char> >, Service::Point103> > >::size
FUNC 4c606 3d 0 std::_Vector_base<Tag, std::allocator<Tag> >::_Vector_impl::_Vector_impl
FUNC 4c644 1a 0 std::allocator<Tag>::~allocator
FUNC 4c65e 34 0 std::_Vector_base<Tag, std::allocator<Tag> >::_M_deallocate
FUNC 4c692 25 0 std::_Destroy<Tag*>
FUNC 4c6b8 8c 0 std::_Rb_tree<std::basic_string<char, std::char_traits<char>, std::allocator<char> >, std::pair<const std::basic_string<char, std::char_traits<char>, std::allocator<char> >, Service::Point103>, std::_Select1st<std::pair<const std::basic_string<char, std::char_traits<char>, std::allocator<char> >, Service::Point103> >, std::less<std::basic_string<char, std::char_traits<char>, std::allocator<char> > >, std::allocator<std::pair<const std::basic_string<char, std::char_traits<char>, std::allocator<char> >, Service::Point103> > >::_Rb_tree_impl<std::less<std::basic_string<char, std::char_traits<char>, std::allocator<char> > >, false>::_Rb_tree_impl
FUNC 4c744 a 0 __gnu_cxx::new_allocator<std::_Rb_tree_node<std::pair<const std::basic_string<char, std::char_traits<char>, std::allocator<char> >, Service::Point103> > >::~new_allocator
FUNC 4c74e 12 0 std::_Rb_tree<std::basic_string<char, std::char_traits<char>, std::allocator<char> >, std::pair<const std::basic_string<char, std::char_traits<char>, std::allocator<char> >, Service::Point103>, std::_Select1st<std::pair<const std::basic_string<char, std::char_traits<char>, std::allocator<char> >, Service::Point103> >, std::less<std::basic_string<char, std::char_traits<char>, std::allocator<char> > >, std::allocator<std::pair<const std::basic_string<char, std::char_traits<char>, std::allocator<char> >, Service::Point103> > >::_S_right
FUNC 4c760 12 0 std::_Rb_tree<std::basic_string<char, std::char_traits<char>, std::allocator<char> >, std::pair<const std::basic_string<char, std::char_traits<char>, std::allocator<char> >, Service::Point103>, std::_Select1st<std::pair<const std::basic_string<char, std::char_traits<char>, std::allocator<char> >, Service::Point103> >, std::less<std::basic_string<char, std::char_traits<char>, std::allocator<char> > >, std::allocator<std::pair<const std::basic_string<char, std::char_traits<char>, std::allocator<char> >, Service::Point103> > >::_S_left
FUNC 4c772 86 0 std::_Rb_tree<std::basic_string<char, std::char_traits<char>, std::allocator<char> >, std::pair<const std::basic_string<char, std::char_traits<char>, std::allocator<char> >, Service::Point103>, std::_Select1st<std::pair<const std::basic_string<char, std::char_traits<char>, std::allocator<char> >, Service::Point103> >, std::less<std::basic_string<char, std::char_traits<char>, std::allocator<char> > >, std::allocator<std::pair<const std::basic_string<char, std::char_traits<char>, std::allocator<char> >, Service::Point103> > >::_M_destroy_node
FUNC 4c7f8 53 0 std::_Rb_tree<std::basic_string<char, std::char_traits<char>, std::allocator<char> >, std::pair<const std::basic_string<char, std::char_traits<char>, std::allocator<char> >, Service::Point103>, std::_Select1st<std::pair<const std::basic_string<char, std::char_traits<char>, std::allocator<char> >, Service::Point103> >, std::less<std::basic_string<char, std::char_traits<char>, std::allocator<char> > >, std::allocator<std::pair<const std::basic_string<char, std::char_traits<char>, std::allocator<char> >, Service::Point103> > >::lower_bound
FUNC 4c84c a 0 std::_Rb_tree<std::basic_string<char, std::char_traits<char>, std::allocator<char> >, std::pair<const std::basic_string<char, std::char_traits<char>, std::allocator<char> >, Service::Point103>, std::_Select1st<std::pair<const std::basic_string<char, std::char_traits<char>, std::allocator<char> >, Service::Point103> >, std::less<std::basic_string<char, std::char_traits<char>, std::allocator<char> > >, std::allocator<std::pair<const std::basic_string<char, std::char_traits<char>, std::allocator<char> >, Service::Point103> > >::key_comp
FUNC 4c856 4c0 0 std::_Rb_tree<std::basic_string<char, std::char_traits<char>, std::allocator<char> >, std::pair<const std::basic_string<char, std::char_traits<char>, std::allocator<char> >, Service::Point103>, std::_Select1st<std::pair<const std::basic_string<char, std::char_traits<char>, std::allocator<char> >, Service::Point103> >, std::less<std::basic_string<char, std::char_traits<char>, std::allocator<char> > >, std::allocator<std::pair<const std::basic_string<char, std::char_traits<char>, std::allocator<char> >, Service::Point103> > >::_M_insert_unique_
FUNC 4cd16 48 0 std::_Vector_base<char, std::allocator<char> >::_Vector_impl::_Vector_impl
FUNC 4cd5e 31 0 std::__uninitialized_fill_n_a<char*, long unsigned int, char, char>
FUNC 4cd90 e 0 __gnu_cxx::__normal_iterator<Tag*, std::vector<Tag, std::allocator<Tag> > >::base
FUNC 4cd9e 46 0 std::copy_backward<Tag*, Tag*>
FUNC 4cde4 11 0 __gnu_cxx::__normal_iterator<Tag*, std::vector<Tag, std::allocator<Tag> > >::operator*
FUNC 4cdf6 ca 0 std::vector<Tag, std::allocator<Tag> >::_M_check_len
FUNC 4cec0 25 0 std::vector<Tag, std::allocator<Tag> >::begin
FUNC 4cee5 4d 0 __gnu_cxx::operator-<Tag*, std::vector<Tag, std::allocator<Tag> > >
FUNC 4cf32 38 0 std::_Vector_base<Tag, std::allocator<Tag> >::_M_allocate
FUNC 4cf6a 3b 0 std::__uninitialized_move_a<Tag*, Tag*, std::allocator<Tag> >
FUNC 4cfa6 1e 0 __gnu_cxx::new_allocator<Tag>::destroy
FUNC 4cfc4 1c 0 __gnu_cxx::__normal_iterator<Tag*, std::vector<Tag, std::allocator<Tag> > >::__normal_iterator
FUNC 4cfe0 12 0 std::_Rb_tree<std::basic_string<char, std::char_traits<char>, std::allocator<char> >, std::pair<const std::basic_string<char, std::char_traits<char>, std::allocator<char> >, Service::Point103>, std::_Select1st<std::pair<const std::basic_string<char, std::char_traits<char>, std::allocator<char> >, Service::Point103> >, std::less<std::basic_string<char, std::char_traits<char>, std::allocator<char> > >, std::allocator<std::pair<const std::basic_string<char, std::char_traits<char>, std::allocator<char> >, Service::Point103> > >::_M_end
FUNC 4cff2 92 0 std::_Rb_tree<std::basic_string<char, std::char_traits<char>, std::allocator<char> >, std::pair<const std::basic_string<char, std::char_traits<char>, std::allocator<char> >, Service::Point103>, std::_Select1st<std::pair<const std::basic_string<char, std::char_traits<char>, std::allocator<char> >, Service::Point103> >, std::less<std::basic_string<char, std::char_traits<char>, std::allocator<char> > >, std::allocator<std::pair<const std::basic_string<char, std::char_traits<char>, std::allocator<char> >, Service::Point103> > >::_M_lower_bound
FUNC 4d084 2c 0 std::_Rb_tree<std::basic_string<char, std::char_traits<char>, std::allocator<char> >, std::pair<const std::basic_string<char, std::char_traits<char>, std::allocator<char> >, Service::Point103>, std::_Select1st<std::pair<const std::basic_string<char, std::char_traits<char>, std::allocator<char> >, Service::Point103> >, std::less<std::basic_string<char, std::char_traits<char>, std::allocator<char> > >, std::allocator<std::pair<const std::basic_string<char, std::char_traits<char>, std::allocator<char> >, Service::Point103> > >::_S_key
FUNC 4d0b0 19 0 std::_Rb_tree_iterator<std::pair<const std::basic_string<char, std::char_traits<char>, std::allocator<char> >, Service::Point103> >::_Rb_tree_iterator
FUNC 4d0ca 12 0 std::_Rb_tree<std::basic_string<char, std::char_traits<char>, std::allocator<char> >, std::pair<const std::basic_string<char, std::char_traits<char>, std::allocator<char> >, Service::Point103>, std::_Select1st<std::pair<const std::basic_string<char, std::char_traits<char>, std::allocator<char> >, Service::Point103> >, std::less<std::basic_string<char, std::char_traits<char>, std::allocator<char> > >, std::allocator<std::pair<const std::basic_string<char, std::char_traits<char>, std::allocator<char> >, Service::Point103> > >::_M_leftmost
FUNC 4d0dc 12 0 std::_Rb_tree<std::basic_string<char, std::char_traits<char>, std::allocator<char> >, std::pair<const std::basic_string<char, std::char_traits<char>, std::allocator<char> >, Service::Point103>, std::_Select1st<std::pair<const std::basic_string<char, std::char_traits<char>, std::allocator<char> >, Service::Point103> >, std::less<std::basic_string<char, std::char_traits<char>, std::allocator<char> > >, std::allocator<std::pair<const std::basic_string<char, std::char_traits<char>, std::allocator<char> >, Service::Point103> > >::_M_root
FUNC 4d0ee 12 0 std::_Rb_tree<std::basic_string<char, std::char_traits<char>, std::allocator<char> >, std::pair<const std::basic_string<char, std::char_traits<char>, std::allocator<char> >, Service::Point103>, std::_Select1st<std::pair<const std::basic_string<char, std::char_traits<char>, std::allocator<char> >, Service::Point103> >, std::less<std::basic_string<char, std::char_traits<char>, std::allocator<char> > >, std::allocator<std::pair<const std::basic_string<char, std::char_traits<char>, std::allocator<char> >, Service::Point103> > >::_M_rightmost
FUNC 4d100 12 0 std::_Select1st<std::pair<const std::basic_string<char, std::char_traits<char>, std::allocator<char> >, Service::Point103> >::operator()
FUNC 4d112 2c 0 std::_Rb_tree<std::basic_string<char, std::char_traits<char>, std::allocator<char> >, std::pair<const std::basic_string<char, std::char_traits<char>, std::allocator<char> >, Service::Point103>, std::_Select1st<std::pair<const std::basic_string<char, std::char_traits<char>, std::allocator<char> >, Service::Point103> >, std::less<std::basic_string<char, std::char_traits<char>, std::allocator<char> > >, std::allocator<std::pair<const std::basic_string<char, std::char_traits<char>, std::allocator<char> >, Service::Point103> > >::_S_key
FUNC 4d13e 2c 0 std::_Rb_tree<std::basic_string<char, std::char_traits<char>, std::allocator<char> >, std::pair<const std::basic_string<char, std::char_traits<char>, std::allocator<char> >, Service::Point103>, std::_Select1st<std::pair<const std::basic_string<char, std::char_traits<char>, std::allocator<char> >, Service::Point103> >, std::less<std::basic_string<char, std::char_traits<char>, std::allocator<char> > >, std::allocator<std::pair<const std::basic_string<char, std::char_traits<char>, std::allocator<char> >, Service::Point103> > >::begin
FUNC 4d16a e3 0 std::_Rb_tree<std::basic_string<char, std::char_traits<char>, std::allocator<char> >, std::pair<const std::basic_string<char, std::char_traits<char>, std::allocator<char> >, Service::Point103>, std::_Select1st<std::pair<const std::basic_string<char, std::char_traits<char>, std::allocator<char> >, Service::Point103> >, std::less<std::basic_string<char, std::char_traits<char>, std::allocator<char> > >, std::allocator<std::pair<const std::basic_string<char, std::char_traits<char>, std::allocator<char> >, Service::Point103> > >::_M_insert_
FUNC 4d24e 2e 0 std::pair<std::_Rb_tree_iterator<std::pair<const std::basic_string<char, std::char_traits<char>, std::allocator<char> >, Service::Point103> >, bool>::pair
FUNC 4d27c 28 0 std::_Rb_tree_iterator<std::pair<const std::basic_string<char, std::char_traits<char>, std::allocator<char> >, Service::Point103> >::operator--
FUNC 4d2a4 1a 0 std::allocator<Tag>::allocator
FUNC 4d2be a 0 __gnu_cxx::new_allocator<Tag>::~new_allocator
FUNC 4d2c8 22 0 __gnu_cxx::new_allocator<Tag>::deallocate
FUNC 4d2ea 37 0 std::_Destroy_aux<false>::__destroy<Tag*>
FUNC 4d322 1a 0 std::allocator<std::_Rb_tree_node<std::pair<const std::basic_string<char, std::char_traits<char>, std::allocator<char> >, Service::Point103> > >::allocator
FUNC 4d33c 41 0 std::_Rb_tree<std::basic_string<char, std::char_traits<char>, std::allocator<char> >, std::pair<const std::basic_string<char, std::char_traits<char>, std::allocator<char> >, Service::Point103>, std::_Select1st<std::pair<const std::basic_string<char, std::char_traits<char>, std::allocator<char> >, Service::Point103> >, std::less<std::basic_string<char, std::char_traits<char>, std::allocator<char> > >, std::allocator<std::pair<const std::basic_string<char, std::char_traits<char>, std::allocator<char> >, Service::Point103> > >::_Rb_tree_impl<std::less<std::basic_string<char, std::char_traits<char>, std::allocator<char> > >, false>::_M_initialize
FUNC 4d37e 3b 0 std::_Rb_tree<std::basic_string<char, std::char_traits<char>, std::allocator<char> >, std::pair<const std::basic_string<char, std::char_traits<char>, std::allocator<char> >, Service::Point103>, std::_Select1st<std::pair<const std::basic_string<char, std::char_traits<char>, std::allocator<char> >, Service::Point103> >, std::less<std::basic_string<char, std::char_traits<char>, std::allocator<char> > >, std::allocator<std::pair<const std::basic_string<char, std::char_traits<char>, std::allocator<char> >, Service::Point103> > >::get_allocator
FUNC 4d3ba 1a 0 std::allocator<std::pair<const std::basic_string<char, std::char_traits<char>, std::allocator<char> >, Service::Point103> >::~allocator
FUNC 4d3d4 1e 0 __gnu_cxx::new_allocator<std::pair<const std::basic_string<char, std::char_traits<char>, std::allocator<char> >, Service::Point103> >::destroy
FUNC 4d3f2 2a 0 std::_Rb_tree<std::basic_string<char, std::char_traits<char>, std::allocator<char> >, std::pair<const std::basic_string<char, std::char_traits<char>, std::allocator<char> >, Service::Point103>, std::_Select1st<std::pair<const std::basic_string<char, std::char_traits<char>, std::allocator<char> >, Service::Point103> >, std::less<std::basic_string<char, std::char_traits<char>, std::allocator<char> > >, std::allocator<std::pair<const std::basic_string<char, std::char_traits<char>, std::allocator<char> >, Service::Point103> > >::_M_put_node
FUNC 4d41c 28 0 std::_Rb_tree_const_iterator<std::pair<const std::basic_string<char, std::char_traits<char>, std::allocator<char> >, Service::Point103> >::operator--
FUNC 4d444 12 0 std::_Rb_tree<std::basic_string<char, std::char_traits<char>, std::allocator<char> >, std::pair<const std::basic_string<char, std::char_traits<char>, std::allocator<char> >, Service::Point103>, std::_Select1st<std::pair<const std::basic_string<char, std::char_traits<char>, std::allocator<char> >, Service::Point103> >, std::less<std::basic_string<char, std::char_traits<char>, std::allocator<char> > >, std::allocator<std::pair<const std::basic_string<char, std::char_traits<char>, std::allocator<char> >, Service::Point103> > >::_S_right
FUNC 4d456 28 0 std::_Rb_tree_const_iterator<std::pair<const std::basic_string<char, std::char_traits<char>, std::allocator<char> >, Service::Point103> >::operator++
FUNC 4d47e 2d 0 std::uninitialized_fill_n<char*, long unsigned int, char>
FUNC 4d4ab e 0 std::__miter_base<Tag*, false>::__b
FUNC 4d4b9 58 0 std::__copy_move_backward_a2<false, Tag*, Tag*>
FUNC 4d512 22 0 std::vector<Tag, std::allocator<Tag> >::max_size
FUNC 4d534 63 0 __gnu_cxx::new_allocator<Tag>::allocate
FUNC 4d597 31 0 std::__uninitialized_copy_a<Tag*, Tag*, Tag>
FUNC 4d5c8 12 0 std::_Rb_tree<std::basic_string<char, std::char_traits<char>, std::allocator<char> >, std::pair<const std::basic_string<char, std::char_traits<char>, std::allocator<char> >, Service::Point103>, std::_Select1st<std::pair<const std::basic_string<char, std::char_traits<char>, std::allocator<char> >, Service::Point103> >, std::less<std::basic_string<char, std::char_traits<char>, std::allocator<char> > >, std::allocator<std::pair<const std::basic_string<char, std::char_traits<char>, std::allocator<char> >, Service::Point103> > >::_S_value
FUNC 4d5da 12 0 std::_Rb_tree<std::basic_string<char, std::char_traits<char>, std::allocator<char> >, std::pair<const std::basic_string<char, std::char_traits<char>, std::allocator<char> >, Service::Point103>, std::_Select1st<std::pair<const std::basic_string<char, std::char_traits<char>, std::allocator<char> >, Service::Point103> >, std::less<std::basic_string<char, std::char_traits<char>, std::allocator<char> > >, std::allocator<std::pair<const std::basic_string<char, std::char_traits<char>, std::allocator<char> >, Service::Point103> > >::_S_value
FUNC 4d5ec bd 0 std::_Rb_tree<std::basic_string<char, std::char_traits<char>, std::allocator<char> >, std::pair<const std::basic_string<char, std::char_traits<char>, std::allocator<char> >, Service::Point103>, std::_Select1st<std::pair<const std::basic_string<char, std::char_traits<char>, std::allocator<char> >, Service::Point103> >, std::less<std::basic_string<char, std::char_traits<char>, std::allocator<char> > >, std::allocator<std::pair<const std::basic_string<char, std::char_traits<char>, std::allocator<char> >, Service::Point103> > >::_M_create_node
FUNC 4d6aa a 0 __gnu_cxx::new_allocator<Tag>::new_allocator
FUNC 4d6b4 1a 0 std::_Destroy<Tag>
FUNC 4d6ce a 0 __gnu_cxx::new_allocator<std::_Rb_tree_node<std::pair<const std::basic_string<char, std::char_traits<char>, std::allocator<char> >, Service::Point103> > >::new_allocator
FUNC 4d6d8 e 0 std::_Rb_tree<std::basic_string<char, std::char_traits<char>, std::allocator<char> >, std::pair<const std::basic_string<char, std::char_traits<char>, std::allocator<char> >, Service::Point103>, std::_Select1st<std::pair<const std::basic_string<char, std::char_traits<char>, std::allocator<char> >, Service::Point103> >, std::less<std::basic_string<char, std::char_traits<char>, std::allocator<char> > >, std::allocator<std::pair<const std::basic_string<char, std::char_traits<char>, std::allocator<char> >, Service::Point103> > >::_M_get_Node_allocator
FUNC 4d6e6 1e 0 std::allocator<std::pair<const std::basic_string<char, std::char_traits<char>, std::allocator<char> >, Service::Point103> >::allocator<std::_Rb_tree_node<std::pair<const std::basic_string<char, std::char_traits<char>, std::allocator<char> >, Service::Point103> > >
FUNC 4d704 a 0 __gnu_cxx::new_allocator<std::pair<const std::basic_string<char, std::char_traits<char>, std::allocator<char> >, Service::Point103> >::~new_allocator
FUNC 4d70e 22 0 __gnu_cxx::new_allocator<std::_Rb_tree_node<std::pair<const std::basic_string<char, std::char_traits<char>, std::allocator<char> >, Service::Point103> > >::deallocate
FUNC 4d730 2d 0 std::__uninitialized_fill_n<true>::uninitialized_fill_n<char*, long unsigned int, char>
FUNC 4d75d e 0 std::__niter_base<Tag*, false>::__b
FUNC 4d76b 31 0 std::__copy_move_backward_a<false, Tag*, Tag*>
FUNC 4d79c e 0 std::_Vector_base<Tag, std::allocator<Tag> >::_M_get_Tp_allocator
FUNC 4d7aa 14 0 __gnu_cxx::new_allocator<Tag>::max_size
FUNC 4d7be 2d 0 std::uninitialized_copy<Tag*, Tag*>
FUNC 4d7ec 24 0 std::_Rb_tree<std::basic_string<char, std::char_traits<char>, std::allocator<char> >, std::pair<const std::basic_string<char, std::char_traits<char>, std::allocator<char> >, Service::Point103>, std::_Select1st<std::pair<const std::basic_string<char, std::char_traits<char>, std::allocator<char> >, Service::Point103> >, std::less<std::basic_string<char, std::char_traits<char>, std::allocator<char> > >, std::allocator<std::pair<const std::basic_string<char, std::char_traits<char>, std::allocator<char> >, Service::Point103> > >::_M_get_node
FUNC 4d810 6b 0 std::pair<const std::basic_string<char, std::char_traits<char>, std::allocator<char> >, Service::Point103>::pair
FUNC 4d87c 77 0 __gnu_cxx::new_allocator<std::pair<const std::basic_string<char, std::char_traits<char>, std::allocator<char> >, Service::Point103> >::construct
FUNC 4d8f4 a 0 __gnu_cxx::new_allocator<std::pair<const std::basic_string<char, std::char_traits<char>, std::allocator<char> >, Service::Point103> >::new_allocator
FUNC 4d8fe 35 0 std::fill_n<char*, long unsigned int, char>
FUNC 4d933 6d 0 std::__copy_move_backward<false, false, std::random_access_iterator_tag>::__copy_move_b<Tag*, Tag*>
FUNC 4d9a0 98 0 std::__uninitialized_copy<false>::uninitialized_copy<Tag*, Tag*>
FUNC 4da38 5c 0 __gnu_cxx::new_allocator<std::_Rb_tree_node<std::pair<const std::basic_string<char, std::char_traits<char>, std::allocator<char> >, Service::Point103> > >::allocate
FUNC 4da94 41 0 std::__fill_n_a<long unsigned int, char>
FUNC 4dad5 de 0 std::_Construct<Tag, Tag>
FUNC 4dbb4 14 0 __gnu_cxx::new_allocator<std::_Rb_tree_node<std::pair<const std::basic_string<char, std::char_traits<char>, std::allocator<char> >, Service::Point103> > >::max_size
FUNC 4dbc8 49 0 std::__fill_a<char>
FUNC 4dc14 db 0 TcpNet::TcpNet
FUNC 4dcf0 7c 0 TcpNet::~TcpNet
FUNC 4dd6c 26 0 TcpNet::~TcpNet
FUNC 4dd92 17d 0 TcpNet::Connect
FUNC 4df10 15d 0 TcpNet::Read
FUNC 4e06e e8 0 TcpNet::Write
FUNC 4e156 2c 0 TcpNet::DisConnect
FUNC 4e182 48 0 __static_initialization_and_destruction_0
FUNC 4e1ca 15 0 _GLOBAL__I_TcpNet.cpp
FUNC 4e1e0 91 0 TcpService::TcpService
FUNC 4e272 7e 0 TcpService::~TcpService
FUNC 4e2f0 26 0 TcpService::~TcpService
FUNC 4e316 18f 0 TcpService::Start
FUNC 4e4a6 622 0 TcpService::Write
FUNC 4eac8 581 0 TcpService::Read
FUNC 4f04a 20b 0 TcpService::ParseRecvData
FUNC 4f256 11f 0 TcpService::CmdConnection
FUNC 4f376 11f 0 TcpService::CmdGetTest1
FUNC 4f496 11f 0 TcpService::CmdGetTest2
FUNC 4f5b6 2a7 0 TcpService::CmdGetAll
FUNC 4f85e 2e1 0 TcpService::CmdGetGroupData
FUNC 4fb40 15b 0 TcpService::ParseVariableData
FUNC 4fc9c 379 0 TcpService::ParseASDU1
FUNC 50016 120 0 TcpService::ParseASDU10
FUNC 50136 82f 0 TcpService::ParseASDU10AllValue
FUNC 50966 2fe 0 TcpService::ParseASDU40
FUNC 50c64 3c 0 TcpService::ParseASDU41
FUNC 50ca0 391 0 TcpService::ParseASDU42
FUNC 51032 388 0 TcpService::ParseASDU44
FUNC 513ba 465 0 TcpService::ParseASDU50
FUNC 51820 8e 0 TcpService::InitConfig
FUNC 518ae 14 0 TcpService::GetSendID
FUNC 518c2 14 0 TcpService::GetRecvID
FUNC 518d6 1c4 0 __static_initialization_and_destruction_0
FUNC 51a9a 15 0 _GLOBAL__I_TcpService.cpp
FUNC 51ab0 41 0 std::vector<Tag, std::allocator<Tag> >::empty
FUNC 51af2 31 0 std::vector<Tag, std::allocator<Tag> >::end
FUNC 51b24 30 0 std::vector<Tag, std::allocator<Tag> >::begin
FUNC 51b54 3c 0 __gnu_cxx::operator==<const Tag*, std::vector<Tag, std::allocator<Tag> > >
FUNC 51b90 1c 0 __gnu_cxx::__normal_iterator<const Tag*, std::vector<Tag, std::allocator<Tag> > >::__normal_iterator
FUNC 51bac e 0 __gnu_cxx::__normal_iterator<const Tag*, std::vector<Tag, std::allocator<Tag> > >::base
FUNC 51bbc 107 0 UdpNet::UdpNet
FUNC 51cc4 7c 0 UdpNet::~UdpNet
FUNC 51d40 26 0 UdpNet::~UdpNet
FUNC 51d66 17b 0 UdpNet::Connect
FUNC 51ee2 aa 0 UdpNet::Read
FUNC 51f8c ce 0 UdpNet::Write
FUNC 5205a 2c 0 UdpNet::DisConnect
FUNC 52086 48 0 __static_initialization_and_destruction_0
FUNC 520ce 15 0 _GLOBAL__I_UdpNet.cpp
FUNC 520e4 1c 0 WarningLib::WarningLib
FUNC 52100 35 0 WarningLib::~WarningLib
FUNC 52136 26 0 WarningLib::~WarningLib
FUNC 5215c 74 0 WarningLib::GetInstance
FUNC 521d0 2f4 0 WarningLib::Init
FUNC 524c4 96 0 WarningLib::GetFunction
FUNC 5255a 2b 0 WarningLib::Start
FUNC 52586 36 0 WarningLib::WriteWarn
FUNC 525bc 63 0 WarningLib::WriteWarn2
FUNC 52620 2b 0 WarningLib::Stop
FUNC 5264c 1bc 0 WgjFunctionEx::WgjFunctionEx
FUNC 52808 196 0 WgjFunctionEx::~WgjFunctionEx
FUNC 5299e 26 0 WgjFunctionEx::~WgjFunctionEx
FUNC 529c4 80 0 WgjFunctionEx::GetInstance
FUNC 52a44 27b 0 WgjFunctionEx::InitParam
FUNC 52cc0 957 0 WgjFunctionEx::ThreadLogWork
FUNC 53618 4fe 0 WgjFunctionEx::ThreadRedisWork
FUNC 53b16 134 0 WgjFunctionEx::setHeartBeatTime
FUNC 53c4a 1cc 0 WgjFunctionEx::serializeLog
FUNC 53e16 7ac 0 WgjFunctionEx::LogToFile
FUNC 545c2 179 0 WgjFunctionEx::isCreateDir
FUNC 5473c 25 0 WgjFunctionEx::GetCurrentTime
FUNC 54761 1dd 0 __static_initialization_and_destruction_0
FUNC 5493e 15 0 _GLOBAL__I_WgjFunctionEx.cpp
FUNC 54953 ac 0 google::protobuf::internal::ToIntSize
FUNC 54a00 2d 0 google::protobuf::MessageLite::ByteSize
FUNC 54a2e 2e 0 RealLogResponse::set_channelname
FUNC 54a5c 2e 0 RealLogResponse::set_devname
FUNC 54a8a 2e 0 RealLogResponse::set_logdetail
FUNC 54ab8 2e 0 HeartBeatMessage::set_channelname
FUNC 54ae6 55 0 stWriteValue::~stWriteValue
FUNC 54b3c 1b 0 WgjFunctionEx::SetLogMode
FUNC 54b58 1a 0 std::list<stWriteValue, std::allocator<stWriteValue> >::~list
FUNC 54b72 1a 0 std::list<stLogInfo, std::allocator<stLogInfo> >::~list
FUNC 54b8c 1a 0 std::list<stWriteValue, std::allocator<stWriteValue> >::list
FUNC 54ba6 1a 0 std::_List_base<stWriteValue, std::allocator<stWriteValue> >::_List_impl::~_List_impl
FUNC 54bc0 51 0 std::_List_base<stWriteValue, std::allocator<stWriteValue> >::~_List_base
FUNC 54c12 1a 0 std::list<stLogInfo, std::allocator<stLogInfo> >::list
FUNC 54c2c 1a 0 std::_List_base<stLogInfo, std::allocator<stLogInfo> >::_List_impl::~_List_impl
FUNC 54c46 51 0 std::_List_base<stLogInfo, std::allocator<stLogInfo> >::~_List_base
FUNC 54c98 b9 0 std::vector<std::basic_string<char, std::char_traits<char>, std::allocator<char> >, std::allocator<std::basic_string<char, std::char_traits<char>, std::allocator<char> > > >::vector
FUNC 54d52 3a 0 std::list<stLogInfo, std::allocator<stLogInfo> >::size
FUNC 54d8c 28 0 std::list<stLogInfo, std::allocator<stLogInfo> >::begin
FUNC 54db4 15 0 std::_List_iterator<stLogInfo>::operator->
FUNC 54dca 2c 0 std::list<stLogInfo, std::allocator<stLogInfo> >::pop_front
FUNC 54df6 26 0 std::list<stLogInfo, std::allocator<stLogInfo> >::clear
FUNC 54e1c 6e 0 std::operator+<char, std::char_traits<char>, std::allocator<char> >
FUNC 54e8a 51 0 std::_List_base<stWriteValue, std::allocator<stWriteValue> >::_List_base
FUNC 54edc 1a 0 std::allocator<std::_List_node<stWriteValue> >::~allocator
FUNC 54ef6 b8 0 std::_List_base<stWriteValue, std::allocator<stWriteValue> >::_M_clear
FUNC 54fae 51 0 std::_List_base<stLogInfo, std::allocator<stLogInfo> >::_List_base
FUNC 55000 1a 0 std::allocator<std::_List_node<stLogInfo> >::~allocator
FUNC 5501a b8 0 std::_List_base<stLogInfo, std::allocator<stLogInfo> >::_M_clear
FUNC 550d2 96 0 std::_Vector_base<std::basic_string<char, std::char_traits<char>, std::allocator<char> >, std::allocator<std::basic_string<char, std::char_traits<char>, std::allocator<char> > > >::_Vector_base
FUNC 55168 28 0 std::list<stLogInfo, std::allocator<stLogInfo> >::begin
FUNC 55190 25 0 std::list<stLogInfo, std::allocator<stLogInfo> >::end
FUNC 551b5 3d 0 std::distance<std::_List_const_iterator<stLogInfo> >
FUNC 551f2 9a 0 std::list<stLogInfo, std::allocator<stLogInfo> >::_M_erase
FUNC 5528c 21 0 std::_List_base<stLogInfo, std::allocator<stLogInfo> >::_M_init
FUNC 552ae 31 0 std::_List_base<stWriteValue, std::allocator<stWriteValue> >::_List_impl::_List_impl
FUNC 552e0 21 0 std::_List_base<stWriteValue, std::allocator<stWriteValue> >::_M_init
FUNC 55302 a 0 __gnu_cxx::new_allocator<std::_List_node<stWriteValue> >::~new_allocator
FUNC 5530c 3b 0 std::_List_base<stWriteValue, std::allocator<stWriteValue> >::_M_get_Tp_allocator
FUNC 55348 1a 0 std::allocator<stWriteValue>::~allocator
FUNC 55362 1e 0 __gnu_cxx::new_allocator<stWriteValue>::destroy
FUNC 55380 2a 0 std::_List_base<stWriteValue, std::allocator<stWriteValue> >::_M_put_node
FUNC 553aa 31 0 std::_List_base<stLogInfo, std::allocator<stLogInfo> >::_List_impl::_List_impl
FUNC 553dc a 0 __gnu_cxx::new_allocator<std::_List_node<stLogInfo> >::~new_allocator
FUNC 553e6 1e 0 __gnu_cxx::new_allocator<stLogInfo>::destroy
FUNC 55404 48 0 std::_Vector_base<std::basic_string<char, std::char_traits<char>, std::allocator<char> >, std::allocator<std::basic_string<char, std::char_traits<char>, std::allocator<char> > > >::_Vector_impl::_Vector_impl
FUNC 5544c 19 0 std::_List_const_iterator<stLogInfo>::_List_const_iterator
FUNC 55465 a 0 std::__iterator_category<std::_List_const_iterator<stLogInfo> >
FUNC 5546f 48 0 std::__distance<std::_List_const_iterator<stLogInfo> >
FUNC 554b8 1a 0 std::allocator<std::_List_node<stWriteValue> >::allocator
FUNC 554d2 e 0 std::_List_base<stWriteValue, std::allocator<stWriteValue> >::_M_get_Node_allocator
FUNC 554e0 1e 0 std::allocator<stWriteValue>::allocator<std::_List_node<stWriteValue> >
FUNC 554fe a 0 __gnu_cxx::new_allocator<stWriteValue>::~new_allocator
FUNC 55508 22 0 __gnu_cxx::new_allocator<std::_List_node<stWriteValue> >::deallocate
FUNC 5552a 1a 0 std::allocator<std::_List_node<stLogInfo> >::allocator
FUNC 55544 25 0 std::allocator<std::basic_string<char, std::char_traits<char>, std::allocator<char> > >::allocator
FUNC 5556a 22 0 std::_List_const_iterator<stLogInfo>::operator!=
FUNC 5558c 1f 0 std::_List_const_iterator<stLogInfo>::operator++
FUNC 555ac a 0 __gnu_cxx::new_allocator<std::_List_node<stWriteValue> >::new_allocator
FUNC 555b6 a 0 __gnu_cxx::new_allocator<stWriteValue>::new_allocator
FUNC 555c0 a 0 __gnu_cxx::new_allocator<std::_List_node<stLogInfo> >::new_allocator
FUNC 555ca e 0 __gnu_cxx::new_allocator<std::basic_string<char, std::char_traits<char>, std::allocator<char> > >::new_allocator
FUNC 555d8 f3 0 Log::Logger::Logger
FUNC 556cc e2 0 Log::Logger::~Logger
FUNC 557ae b9a 0 Log::Logger::trafficLogger
FUNC 56348 507 0 Log::Logger::configLogger
FUNC 5684f 112 0 __static_initialization_and_destruction_0
FUNC 56961 15 0 _GLOBAL__I__ZN3Log6LoggerC2Ev
FUNC 56976 1e 0 boost::shared_ptr<Config::ConfigCenter>::~shared_ptr
FUNC 56994 3a 0 boost::shared_ptr<Config::ConfigCenter>::operator->
FUNC 569ce 29 0 log4cplus::helpers::SharedObjectPtr<log4cplus::Appender>::SharedObjectPtr
FUNC 569f8 41 0 log4cplus::helpers::SharedObjectPtr<log4cplus::Appender>::~SharedObjectPtr
FUNC 56a3a 19 0 std::auto_ptr<log4cplus::Layout>::auto_ptr
FUNC 56a54 37 0 std::auto_ptr<log4cplus::Layout>::~auto_ptr
FUNC 56a8c 3a 0 log4cplus::helpers::SharedObjectPtr<log4cplus::Appender>::operator->
FUNC 56ac6 25 0 std::auto_ptr<log4cplus::Layout>::auto_ptr
FUNC 56aec 2c 0 log4cplus::helpers::SharedObjectPtr<log4cplus::Appender>::SharedObjectPtr
FUNC 56b18 41 0 log4cplus::helpers::SharedObjectPtr<log4cplus::Appender>::addref
FUNC 56b5a 24 0 std::auto_ptr<log4cplus::Layout>::release
FUNC 56b80 279 0 Config::ConfigCenter::instance
FUNC 56dfa 488 0 Config::ConfigCenter::loadConfig
FUNC 57282 5c3 0 Config::ConfigCenter::borrowFrom
FUNC 57846 68 0 Config::ConfigCenter::ConfigCenter
FUNC 578ae af 0 Config::ConfigCenter::~ConfigCenter
FUNC 5795e 68e 0 Config::ConfigCenter::loadXml
FUNC 57fec 2ea 0 Config::ConfigCenter::saveXml
FUNC 582d6 78 0 Config::ConfigCenter::get
FUNC 5834e 197 0 Config::ConfigCenter::set
FUNC 584e6 19a 0 Config::ConfigCenter::setInt
FUNC 58680 1a8 0 Config::ConfigCenter::registValueWatcher
FUNC 58828 19a 0 Config::ConfigCenter::unregistIntValueWatcher
FUNC 589c2 a1 0 Config::ConfigCenter::get
FUNC 58a64 19a 0 Config::ConfigCenter::set
FUNC 58bfe 1a8 0 Config::ConfigCenter::registValueWatcher
FUNC 58da6 19a 0 Config::ConfigCenter::unregistStrValueWatcher
FUNC 58f40 233 0 __static_initialization_and_destruction_0
FUNC 59173 15 0 _GLOBAL__I__ZN6Config12ConfigCenter16TOP_XMLNODE_NAMEE
FUNC 59188 14 0 std::operator&
FUNC 5919c 2d 0 std::operator&=
FUNC 591c9 e 0 std::operator~
FUNC 591d8 2d 0 std::ios_base::unsetf
FUNC 59206 f 0 boost::condition_error::what
FUNC 59216 25 0 boost::lock_error::lock_error
FUNC 5923c 15 0 boost::detail::shared_count::shared_count
FUNC 59252 32 0 boost::detail::shared_count::swap
FUNC 59284 51 0 boost::pthread::pthread_mutex_scoped_lock::pthread_mutex_scoped_lock
FUNC 592d6 42 0 boost::pthread::pthread_mutex_scoped_lock::unlock
FUNC 59318 26 0 boost::pthread::pthread_mutex_scoped_lock::~pthread_mutex_scoped_lock
FUNC 5933e e7 0 boost::condition_variable::condition_variable
FUNC 59426 64 0 boost::condition_variable::~condition_variable
FUNC 5948a 4a 0 boost::detail::interruption_checker::check_for_interruption
FUNC 594d4 14a 0 boost::detail::interruption_checker::interruption_checker
FUNC 5961e c0 0 boost::detail::interruption_checker::~interruption_checker
FUNC 596de 25 0 boost::condition_error::condition_error
FUNC 59704 3a 0 boost::condition_error::~condition_error
FUNC 5973e 26 0 boost::condition_error::~condition_error
FUNC 59764 113 0 boost::condition_variable::wait
FUNC 59878 5a 0 boost::condition_variable::notify_one
FUNC 598d2 5a 0 boost::condition_variable::notify_all
FUNC 5992c 30 0 boost::shared_mutex::release_waiters
FUNC 5995c d9 0 boost::shared_mutex::shared_mutex
FUNC 59a36 52 0 boost::shared_mutex::~shared_mutex
FUNC 59a88 dd 0 boost::shared_mutex::lock_shared
FUNC 59b66 98 0 boost::shared_mutex::unlock_shared
FUNC 59bfe df 0 boost::shared_mutex::lock
FUNC 59cde 4d 0 boost::shared_mutex::unlock
FUNC 59d2c 12 0 Config::IntParameter::_getCheckRange
FUNC 59d3e 11 0 Config::IntParameter::_getMinValue
FUNC 59d50 11 0 Config::IntParameter::_getMaxValue
FUNC 59d62 11 0 Config::IntParameter::_getValue
FUNC 59d74 12 0 Config::StringParameter::_getValue
FUNC 59d86 45 0 rapidxml::parse_error::parse_error
FUNC 59dcc 12 0 rapidxml::parse_error::what
FUNC 59dde 140 0 Config::XmlParameter::~XmlParameter
FUNC 59f1e 82 0 Config::XmlGroup::XmlGroup
FUNC 59fa0 84 0 Config::XmlGroup::~XmlGroup
FUNC 5a024 3b 0 boost::shared_ptr<Config::ConfigCenter>::shared_ptr
FUNC 5a060 1a 0 std::map<std::basic_string<char, std::char_traits<char>, std::allocator<char> >, Config::IntParameter, std::less<std::basic_string<char, std::char_traits<char>, std::allocator<char> > >, std::allocator<std::pair<const std::basic_string<char, std::char_traits<char>, std::allocator<char> >, Config::IntParameter> > >::~map
FUNC 5a07a 1a 0 std::map<std::basic_string<char, std::char_traits<char>, std::allocator<char> >, Config::StringParameter, std::less<std::basic_string<char, std::char_traits<char>, std::allocator<char> > >, std::allocator<std::pair<const std::basic_string<char, std::char_traits<char>, std::allocator<char> >, Config::StringParameter> > >::~map
FUNC 5a094 5f 0 Config::XmlGroup::operator=
FUNC 5a0f4 1a 0 rapidxml::file<char>::~file
FUNC 5a10e 1e 0 rapidxml::xml_document<char>::~xml_document
FUNC 5a12c 15 0 boost::thread_cv_detail::lock_on_exit<boost::unique_lock<boost::mutex> >::lock_on_exit
FUNC 5a142 29 0 boost::thread_cv_detail::lock_on_exit<boost::unique_lock<boost::mutex> >::~lock_on_exit
FUNC 5a16c 29 0 boost::thread_cv_detail::lock_on_exit<boost::unique_lock<boost::mutex> >::activate
FUNC 5a196 30 0 boost::condition_error::condition_error
FUNC 5a1c6 80 0 boost::exception_detail::error_info_injector<boost::condition_error>::error_info_injector
FUNC 5a246 63 0 boost::exception_detail::clone_impl<boost::exception_detail::error_info_injector<boost::condition_error> >::clone_impl
FUNC 5a2a9 a2 0 boost::throw_exception<boost::condition_error>
FUNC 5a34c 31 0 boost::unique_lock<boost::mutex>::unique_lock
FUNC 5a37e 2d 0 boost::unique_lock<boost::mutex>::~unique_lock
FUNC 5a3ac 31 0 boost::shared_lock<boost::shared_mutex>::shared_lock
FUNC 5a3de 2d 0 boost::shared_lock<boost::shared_mutex>::~shared_lock
FUNC 5a40c 79 0 boost::unique_lock<boost::mutex>::unlock
FUNC 5a486 76 0 boost::unique_lock<boost::mutex>::lock
FUNC 5a4fc 1a 0 std::vector<Config::XmlGroup, std::allocator<Config::XmlGroup> >::vector
FUNC 5a516 6e 0 std::vector<Config::XmlGroup, std::allocator<Config::XmlGroup> >::~vector
FUNC 5a584 1a 0 std::vector<Config::XmlParameter, std::allocator<Config::XmlParameter> >::vector
FUNC 5a59e 6e 0 std::vector<Config::XmlParameter, std::allocator<Config::XmlParameter> >::~vector
FUNC 5a60c 29 0 boost::shared_ptr<Config::ConfigCenter>::shared_ptr
FUNC 5a636 11 0 boost::shared_ptr<Config::ConfigCenter>::get
FUNC 5a648 31 0 boost::unique_lock<boost::shared_mutex>::unique_lock
FUNC 5a67a 2d 0 boost::unique_lock<boost::shared_mutex>::~unique_lock
FUNC 5a6a8 9c 0 boost::shared_ptr<Config::ConfigCenter>::reset<Config::ConfigCenter>
FUNC 5a744 50 0 boost::shared_ptr<Config::ConfigCenter>::shared_ptr<Config::ConfigCenter>
FUNC 5a794 73 0 boost::shared_ptr<Config::ConfigCenter>::operator=
FUNC 5a808 1a 0 std::map<std::basic_string<char, std::char_traits<char>, std::allocator<char> >, Config::IntParameter, std::less<std::basic_string<char, std::char_traits<char>, std::allocator<char> > >, std::allocator<std::pair<const std::basic_string<char, std::char_traits<char>, std::allocator<char> >, Config::IntParameter> > >::begin
FUNC 5a822 1a 0 std::map<std::basic_string<char, std::char_traits<char>, std::allocator<char> >, Config::IntParameter, std::less<std::basic_string<char, std::char_traits<char>, std::allocator<char> > >, std::allocator<std::pair<const std::basic_string<char, std::char_traits<char>, std::allocator<char> >, Config::IntParameter> > >::end
FUNC 5a83c 1a 0 std::map<std::basic_string<char, std::char_traits<char>, std::allocator<char> >, Config::IntParameter, std::less<std::basic_string<char, std::char_traits<char>, std::allocator<char> > >, std::allocator<std::pair<const std::basic_string<char, std::char_traits<char>, std::allocator<char> >, Config::IntParameter> > >::key_comp
FUNC 5a856 1a 0 std::map<std::basic_string<char, std::char_traits<char>, std::allocator<char> >, Config::IntParameter, std::less<std::basic_string<char, std::char_traits<char>, std::allocator<char> > >, std::allocator<std::pair<const std::basic_string<char, std::char_traits<char>, std::allocator<char> >, Config::IntParameter> > >::map
FUNC 5a870 1a 0 std::_Rb_tree<std::basic_string<char, std::char_traits<char>, std::allocator<char> >, std::pair<const std::basic_string<char, std::char_traits<char>, std::allocator<char> >, Config::IntParameter>, std::_Select1st<std::pair<const std::basic_string<char, std::char_traits<char>, std::allocator<char> >, Config::IntParameter> >, std::less<std::basic_string<char, std::char_traits<char>, std::allocator<char> > >, std::allocator<std::pair<const std::basic_string<char, std::char_traits<char>, std::allocator<char> >, Config::IntParameter> > >::_Rb_tree_impl<std::less<std::basic_string<char, std::char_traits<char>, std::allocator<char> > >, false>::~_Rb_tree_impl
FUNC 5a88a 63 0 std::_Rb_tree<std::basic_string<char, std::char_traits<char>, std::allocator<char> >, std::pair<const std::basic_string<char, std::char_traits<char>, std::allocator<char> >, Config::IntParameter>, std::_Select1st<std::pair<const std::basic_string<char, std::char_traits<char>, std::allocator<char> >, Config::IntParameter> >, std::less<std::basic_string<char, std::char_traits<char>, std::allocator<char> > >, std::allocator<std::pair<const std::basic_string<char, std::char_traits<char>, std::allocator<char> >, Config::IntParameter> > >::~_Rb_tree
FUNC 5a8ee 22 0 std::_Rb_tree_iterator<std::pair<const std::basic_string<char, std::char_traits<char>, std::allocator<char> >, Config::IntParameter> >::operator!=
FUNC 5a910 15 0 std::_Rb_tree_iterator<std::pair<const std::basic_string<char, std::char_traits<char>, std::allocator<char> >, Config::IntParameter> >::operator->
FUNC 5a926 28 0 std::_Rb_tree_iterator<std::pair<const std::basic_string<char, std::char_traits<char>, std::allocator<char> >, Config::IntParameter> >::operator++
FUNC 5a94e 15 0 std::_Rb_tree_iterator<std::pair<const std::basic_string<char, std::char_traits<char>, std::allocator<char> >, Config::IntParameter> >::operator*
FUNC 5a964 47 0 std::map<std::basic_string<char, std::char_traits<char>, std::allocator<char> >, Config::IntParameter, std::less<std::basic_string<char, std::char_traits<char>, std::allocator<char> > >, std::allocator<std::pair<const std::basic_string<char, std::char_traits<char>, std::allocator<char> >, Config::IntParameter> > >::insert
FUNC 5a9ac 36 0 std::_Rb_tree_iterator<std::pair<const std::basic_string<char, std::char_traits<char>, std::allocator<char> >, Config::IntParameter> >::operator++
FUNC 5a9e2 2d 0 std::map<std::basic_string<char, std::char_traits<char>, std::allocator<char> >, Config::IntParameter, std::less<std::basic_string<char, std::char_traits<char>, std::allocator<char> > >, std::allocator<std::pair<const std::basic_string<char, std::char_traits<char>, std::allocator<char> >, Config::IntParameter> > >::insert<std::_Rb_tree_iterator<std::pair<const std::basic_string<char, std::char_traits<char>, std::allocator<char> >, Config::IntParameter> > >
FUNC 5aa10 1a 0 std::map<std::basic_string<char, std::char_traits<char>, std::allocator<char> >, Config::StringParameter, std::less<std::basic_string<char, std::char_traits<char>, std::allocator<char> > >, std::allocator<std::pair<const std::basic_string<char, std::char_traits<char>, std::allocator<char> >, Config::StringParameter> > >::begin
FUNC 5aa2a 1a 0 std::map<std::basic_string<char, std::char_traits<char>, std::allocator<char> >, Config::StringParameter, std::less<std::basic_string<char, std::char_traits<char>, std::allocator<char> > >, std::allocator<std::pair<const std::basic_string<char, std::char_traits<char>, std::allocator<char> >, Config::StringParameter> > >::end
FUNC 5aa44 1a 0 std::map<std::basic_string<char, std::char_traits<char>, std::allocator<char> >, Config::StringParameter, std::less<std::basic_string<char, std::char_traits<char>, std::allocator<char> > >, std::allocator<std::pair<const std::basic_string<char, std::char_traits<char>, std::allocator<char> >, Config::StringParameter> > >::key_comp
FUNC 5aa5e 1a 0 std::map<std::basic_string<char, std::char_traits<char>, std::allocator<char> >, Config::StringParameter, std::less<std::basic_string<char, std::char_traits<char>, std::allocator<char> > >, std::allocator<std::pair<const std::basic_string<char, std::char_traits<char>, std::allocator<char> >, Config::StringParameter> > >::map
FUNC 5aa78 1a 0 std::_Rb_tree<std::basic_string<char, std::char_traits<char>, std::allocator<char> >, std::pair<const std::basic_string<char, std::char_traits<char>, std::allocator<char> >, Config::StringParameter>, std::_Select1st<std::pair<const std::basic_string<char, std::char_traits<char>, std::allocator<char> >, Config::StringParameter> >, std::less<std::basic_string<char, std::char_traits<char>, std::allocator<char> > >, std::allocator<std::pair<const std::basic_string<char, std::char_traits<char>, std::allocator<char> >, Config::StringParameter> > >::_Rb_tree_impl<std::less<std::basic_string<char, std::char_traits<char>, std::allocator<char> > >, false>::~_Rb_tree_impl
FUNC 5aa92 63 0 std::_Rb_tree<std::basic_string<char, std::char_traits<char>, std::allocator<char> >, std::pair<const std::basic_string<char, std::char_traits<char>, std::allocator<char> >, Config::StringParameter>, std::_Select1st<std::pair<const std::basic_string<char, std::char_traits<char>, std::allocator<char> >, Config::StringParameter> >, std::less<std::basic_string<char, std::char_traits<char>, std::allocator<char> > >, std::allocator<std::pair<const std::basic_string<char, std::char_traits<char>, std::allocator<char> >, Config::StringParameter> > >::~_Rb_tree
FUNC 5aaf6 22 0 std::_Rb_tree_iterator<std::pair<const std::basic_string<char, std::char_traits<char>, std::allocator<char> >, Config::StringParameter> >::operator!=
FUNC 5ab18 15 0 std::_Rb_tree_iterator<std::pair<const std::basic_string<char, std::char_traits<char>, std::allocator<char> >, Config::StringParameter> >::operator->
FUNC 5ab2e 28 0 std::_Rb_tree_iterator<std::pair<const std::basic_string<char, std::char_traits<char>, std::allocator<char> >, Config::StringParameter> >::operator++
FUNC 5ab56 15 0 std::_Rb_tree_iterator<std::pair<const std::basic_string<char, std::char_traits<char>, std::allocator<char> >, Config::StringParameter> >::operator*
FUNC 5ab6c 47 0 std::map<std::basic_string<char, std::char_traits<char>, std::allocator<char> >, Config::StringParameter, std::less<std::basic_string<char, std::char_traits<char>, std::allocator<char> > >, std::allocator<std::pair<const std::basic_string<char, std::char_traits<char>, std::allocator<char> >, Config::StringParameter> > >::insert
FUNC 5abb4 36 0 std::_Rb_tree_iterator<std::pair<const std::basic_string<char, std::char_traits<char>, std::allocator<char> >, Config::StringParameter> >::operator++
FUNC 5abea 2d 0 std::map<std::basic_string<char, std::char_traits<char>, std::allocator<char> >, Config::StringParameter, std::less<std::basic_string<char, std::char_traits<char>, std::allocator<char> > >, std::allocator<std::pair<const std::basic_string<char, std::char_traits<char>, std::allocator<char> >, Config::StringParameter> > >::insert<std::_Rb_tree_iterator<std::pair<const std::basic_string<char, std::char_traits<char>, std::allocator<char> >, Config::StringParameter> > >
FUNC 5ac18 295 0 std::vector<Config::XmlGroup, std::allocator<Config::XmlGroup> >::operator=
FUNC 5aeae 295 0 std::vector<Config::XmlParameter, std::allocator<Config::XmlParameter> >::operator=
FUNC 5b144 32d 0 rapidxml::file<char>::file
FUNC 5b472 2f 0 rapidxml::xml_document<char>::xml_document
FUNC 5b4a2 1a 0 rapidxml::memory_pool<char>::~memory_pool
FUNC 5b4bc 1a 0 rapidxml::file<char>::data
FUNC 5b4d6 3a 0 rapidxml::parse_error::~parse_error
FUNC 5b510 26 0 rapidxml::parse_error::~parse_error
FUNC 5b536 fd 0 rapidxml::xml_document<char>::parse<0>
FUNC 5b634 cf 0 rapidxml::xml_node<char>::first_node
FUNC 5b704 28 0 rapidxml::xml_base<char>::name
FUNC 5b72c 28 0 std::operator!=<char, std::char_traits<char>, std::allocator<char> >
FUNC 5b754 b4 0 rapidxml::memory_pool<char>::allocate_string
FUNC 5b808 119 0 rapidxml::memory_pool<char>::allocate_node
FUNC 5b922 d6 0 rapidxml::xml_node<char>::append_node
FUNC 5b9f8 2a 0 rapidxml::operator<< <char>
FUNC 5ba22 25 0 std::map<std::basic_string<char, std::char_traits<char>, std::allocator<char> >, Config::IntParameter, std::less<std::basic_string<char, std::char_traits<char>, std::allocator<char> > >, std::allocator<std::pair<const std::basic_string<char, std::char_traits<char>, std::allocator<char> >, Config::IntParameter> > >::find
FUNC 5ba48 25 0 std::map<std::basic_string<char, std::char_traits<char>, std::allocator<char> >, Config::StringParameter, std::less<std::basic_string<char, std::char_traits<char>, std::allocator<char> > >, std::allocator<std::pair<const std::basic_string<char, std::char_traits<char>, std::allocator<char> >, Config::StringParameter> > >::find
FUNC 5ba6d 2f 0 boost::enable_error_info<boost::condition_error>
FUNC 5ba9c 93 0 boost::exception_detail::error_info_injector<boost::condition_error>::~error_info_injector
FUNC 5bb3e 26 0 boost::exception_detail::error_info_injector<boost::condition_error>::~error_info_injector
FUNC 5bb64 2f 0 boost::enable_current_exception<boost::exception_detail::error_info_injector<boost::condition_error> >
FUNC 5bb94 7a 0 boost::exception_detail::clone_impl<boost::exception_detail::error_info_injector<boost::condition_error> >::~clone_impl
FUNC 5bc2c 26 0 boost::exception_detail::clone_impl<boost::exception_detail::error_info_injector<boost::condition_error> >::~clone_impl
FUNC 5bc52 12 0 boost::unique_lock<boost::mutex>::owns_lock
FUNC 5bc64 76 0 boost::shared_lock<boost::shared_mutex>::lock
FUNC 5bcda 12 0 boost::shared_lock<boost::shared_mutex>::owns_lock
FUNC 5bcec 1a 0 std::_Vector_base<Config::XmlGroup, std::allocator<Config::XmlGroup> >::_Vector_impl::~_Vector_impl
FUNC 5bd06 1a 0 std::_Vector_base<Config::XmlGroup, std::allocator<Config::XmlGroup> >::_Vector_base
FUNC 5bd20 8e 0 std::_Vector_base<Config::XmlGroup, std::allocator<Config::XmlGroup> >::~_Vector_base
FUNC 5bdae e 0 std::_Vector_base<Config::XmlGroup, std::allocator<Config::XmlGroup> >::_M_get_Tp_allocator
FUNC 5bdbc 29 0 std::_Destroy<Config::XmlGroup*, Config::XmlGroup>
FUNC 5bde6 1a 0 std::_Vector_base<Config::XmlParameter, std::allocator<Config::XmlParameter> >::_Vector_impl::~_Vector_impl
FUNC 5be00 1a 0 std::_Vector_base<Config::XmlParameter, std::allocator<Config::XmlParameter> >::_Vector_base
FUNC 5be1a 8e 0 std::_Vector_base<Config::XmlParameter, std::allocator<Config::XmlParameter> >::~_Vector_base
FUNC 5bea8 e 0 std::_Vector_base<Config::XmlParameter, std::allocator<Config::XmlParameter> >::_M_get_Tp_allocator
FUNC 5beb6 29 0 std::_Destroy<Config::XmlParameter*, Config::XmlParameter>
FUNC 5bee0 76 0 boost::unique_lock<boost::shared_mutex>::lock
FUNC 5bf56 12 0 boost::unique_lock<boost::shared_mutex>::owns_lock
FUNC 5bf68 40 0 boost::shared_ptr<Config::ConfigCenter>::swap
FUNC 5bfa8 84 0 boost::detail::shared_count::shared_count<Config::ConfigCenter>
FUNC 5c02c 2c 0 std::_Rb_tree<std::basic_string<char, std::char_traits<char>, std::allocator<char> >, std::pair<const std::basic_string<char, std::char_traits<char>, std::allocator<char> >, Config::IntParameter>, std::_Select1st<std::pair<const std::basic_string<char, std::char_traits<char>, std::allocator<char> >, Config::IntParameter> >, std::less<std::basic_string<char, std::char_traits<char>, std::allocator<char> > >, std::allocator<std::pair<const std::basic_string<char, std::char_traits<char>, std::allocator<char> >, Config::IntParameter> > >::begin
FUNC 5c058 2c 0 std::_Rb_tree<std::basic_string<char, std::char_traits<char>, std::allocator<char> >, std::pair<const std::basic_string<char, std::char_traits<char>, std::allocator<char> >, Config::IntParameter>, std::_Select1st<std::pair<const std::basic_string<char, std::char_traits<char>, std::allocator<char> >, Config::IntParameter> >, std::less<std::basic_string<char, std::char_traits<char>, std::allocator<char> > >, std::allocator<std::pair<const std::basic_string<char, std::char_traits<char>, std::allocator<char> >, Config::IntParameter> > >::end
FUNC 5c084 a 0 std::_Rb_tree<std::basic_string<char, std::char_traits<char>, std::allocator<char> >, std::pair<const std::basic_string<char, std::char_traits<char>, std::allocator<char> >, Config::IntParameter>, std::_Select1st<std::pair<const std::basic_string<char, std::char_traits<char>, std::allocator<char> >, Config::IntParameter> >, std::less<std::basic_string<char, std::char_traits<char>, std::allocator<char> > >, std::allocator<std::pair<const std::basic_string<char, std::char_traits<char>, std::allocator<char> >, Config::IntParameter> > >::key_comp
FUNC 5c08e 1a 0 std::_Rb_tree<std::basic_string<char, std::char_traits<char>, std::allocator<char> >, std::pair<const std::basic_string<char, std::char_traits<char>, std::allocator<char> >, Config::IntParameter>, std::_Select1st<std::pair<const std::basic_string<char, std::char_traits<char>, std::allocator<char> >, Config::IntParameter> >, std::less<std::basic_string<char, std::char_traits<char>, std::allocator<char> > >, std::allocator<std::pair<const std::basic_string<char, std::char_traits<char>, std::allocator<char> >, Config::IntParameter> > >::_Rb_tree
FUNC 5c0a8 1a 0 std::allocator<std::_Rb_tree_node<std::pair<const std::basic_string<char, std::char_traits<char>, std::allocator<char> >, Config::IntParameter> > >::~allocator
FUNC 5c0c2 69 0 std::_Rb_tree<std::basic_string<char, std::char_traits<char>, std::allocator<char> >, std::pair<const std::basic_string<char, std::char_traits<char>, std::allocator<char> >, Config::IntParameter>, std::_Select1st<std::pair<const std::basic_string<char, std::char_traits<char>, std::allocator<char> >, Config::IntParameter> >, std::less<std::basic_string<char, std::char_traits<char>, std::allocator<char> > >, std::allocator<std::pair<const std::basic_string<char, std::char_traits<char>, std::allocator<char> >, Config::IntParameter> > >::_M_erase
FUNC 5c12c 12 0 std::_Rb_tree<std::basic_string<char, std::char_traits<char>, std::allocator<char> >, std::pair<const std::basic_string<char, std::char_traits<char>, std::allocator<char> >, Config::IntParameter>, std::_Select1st<std::pair<const std::basic_string<char, std::char_traits<char>, std::allocator<char> >, Config::IntParameter> >, std::less<std::basic_string<char, std::char_traits<char>, std::allocator<char> > >, std::allocator<std::pair<const std::basic_string<char, std::char_traits<char>, std::allocator<char> >, Config::IntParameter> > >::_M_begin
FUNC 5c13e 271 0 std::_Rb_tree<std::basic_string<char, std::char_traits<char>, std::allocator<char> >, std::pair<const std::basic_string<char, std::char_traits<char>, std::allocator<char> >, Config::IntParameter>, std::_Select1st<std::pair<const std::basic_string<char, std::char_traits<char>, std::allocator<char> >, Config::IntParameter> >, std::less<std::basic_string<char, std::char_traits<char>, std::allocator<char> > >, std::allocator<std::pair<const std::basic_string<char, std::char_traits<char>, std::allocator<char> >, Config::IntParameter> > >::_M_insert_unique
FUNC 5c3b0 89 0 std::_Rb_tree<std::basic_string<char, std::char_traits<char>, std::allocator<char> >, std::pair<const std::basic_string<char, std::char_traits<char>, std::allocator<char> >, Config::IntParameter>, std::_Select1st<std::pair<const std::basic_string<char, std::char_traits<char>, std::allocator<char> >, Config::IntParameter> >, std::less<std::basic_string<char, std::char_traits<char>, std::allocator<char> > >, std::allocator<std::pair<const std::basic_string<char, std::char_traits<char>, std::allocator<char> >, Config::IntParameter> > >::_M_insert_unique<std::_Rb_tree_iterator<std::pair<const std::basic_string<char, std::char_traits<char>, std::allocator<char> >, Config::IntParameter> > >
FUNC 5c43a 2c 0 std::_Rb_tree<std::basic_string<char, std::char_traits<char>, std::allocator<char> >, std::pair<const std::basic_string<char, std::char_traits<char>, std::allocator<char> >, Config::StringParameter>, std::_Select1st<std::pair<const std::basic_string<char, std::char_traits<char>, std::allocator<char> >, Config::StringParameter> >, std::less<std::basic_string<char, std::char_traits<char>, std::allocator<char> > >, std::allocator<std::pair<const std::basic_string<char, std::char_traits<char>, std::allocator<char> >, Config::StringParameter> > >::begin
FUNC 5c466 2c 0 std::_Rb_tree<std::basic_string<char, std::char_traits<char>, std::allocator<char> >, std::pair<const std::basic_string<char, std::char_traits<char>, std::allocator<char> >, Config::StringParameter>, std::_Select1st<std::pair<const std::basic_string<char, std::char_traits<char>, std::allocator<char> >, Config::StringParameter> >, std::less<std::basic_string<char, std::char_traits<char>, std::allocator<char> > >, std::allocator<std::pair<const std::basic_string<char, std::char_traits<char>, std::allocator<char> >, Config::StringParameter> > >::end
FUNC 5c492 a 0 std::_Rb_tree<std::basic_string<char, std::char_traits<char>, std::allocator<char> >, std::pair<const std::basic_string<char, std::char_traits<char>, std::allocator<char> >, Config::StringParameter>, std::_Select1st<std::pair<const std::basic_string<char, std::char_traits<char>, std::allocator<char> >, Config::StringParameter> >, std::less<std::basic_string<char, std::char_traits<char>, std::allocator<char> > >, std::allocator<std::pair<const std::basic_string<char, std::char_traits<char>, std::allocator<char> >, Config::StringParameter> > >::key_comp
FUNC 5c49c 1a 0 std::_Rb_tree<std::basic_string<char, std::char_traits<char>, std::allocator<char> >, std::pair<const std::basic_string<char, std::char_traits<char>, std::allocator<char> >, Config::StringParameter>, std::_Select1st<std::pair<const std::basic_string<char, std::char_traits<char>, std::allocator<char> >, Config::StringParameter> >, std::less<std::basic_string<char, std::char_traits<char>, std::allocator<char> > >, std::allocator<std::pair<const std::basic_string<char, std::char_traits<char>, std::allocator<char> >, Config::StringParameter> > >::_Rb_tree
FUNC 5c4b6 1a 0 std::allocator<std::_Rb_tree_node<std::pair<const std::basic_string<char, std::char_traits<char>, std::allocator<char> >, Config::StringParameter> > >::~allocator
FUNC 5c4d0 69 0 std::_Rb_tree<std::basic_string<char, std::char_traits<char>, std::allocator<char> >, std::pair<const std::basic_string<char, std::char_traits<char>, std::allocator<char> >, Config::StringParameter>, std::_Select1st<std::pair<const std::basic_string<char, std::char_traits<char>, std::allocator<char> >, Config::StringParameter> >, std::less<std::basic_string<char, std::char_traits<char>, std::allocator<char> > >, std::allocator<std::pair<const std::basic_string<char, std::char_traits<char>, std::allocator<char> >, Config::StringParameter> > >::_M_erase
FUNC 5c53a 12 0 std::_Rb_tree<std::basic_string<char, std::char_traits<char>, std::allocator<char> >, std::pair<const std::basic_string<char, std::char_traits<char>, std::allocator<char> >, Config::StringParameter>, std::_Select1st<std::pair<const std::basic_string<char, std::char_traits<char>, std::allocator<char> >, Config::StringParameter> >, std::less<std::basic_string<char, std::char_traits<char>, std::allocator<char> > >, std::allocator<std::pair<const std::basic_string<char, std::char_traits<char>, std::allocator<char> >, Config::StringParameter> > >::_M_begin
FUNC 5c54c 271 0 std::_Rb_tree<std::basic_string<char, std::char_traits<char>, std::allocator<char> >, std::pair<const std::basic_string<char, std::char_traits<char>, std::allocator<char> >, Config::StringParameter>, std::_Select1st<std::pair<const std::basic_string<char, std::char_traits<char>, std::allocator<char> >, Config::StringParameter> >, std::less<std::basic_string<char, std::char_traits<char>, std::allocator<char> > >, std::allocator<std::pair<const std::basic_string<char, std::char_traits<char>, std::allocator<char> >, Config::StringParameter> > >::_M_insert_unique
FUNC 5c7be 89 0 std::_Rb_tree<std::basic_string<char, std::char_traits<char>, std::allocator<char> >, std::pair<const std::basic_string<char, std::char_traits<char>, std::allocator<char> >, Config::StringParameter>, std::_Select1st<std::pair<const std::basic_string<char, std::char_traits<char>, std::allocator<char> >, Config::StringParameter> >, std::less<std::basic_string<char, std::char_traits<char>, std::allocator<char> > >, std::allocator<std::pair<const std::basic_string<char, std::char_traits<char>, std::allocator<char> >, Config::StringParameter> > >::_M_insert_unique<std::_Rb_tree_iterator<std::pair<const std::basic_string<char, std::char_traits<char>, std::allocator<char> >, Config::StringParameter> > >
FUNC 5c848 3a 0 std::vector<Config::XmlGroup, std::allocator<Config::XmlGroup> >::size
FUNC 5c882 3a 0 std::vector<Config::XmlGroup, std::allocator<Config::XmlGroup> >::capacity
FUNC 5c8bc 30 0 std::vector<Config::XmlGroup, std::allocator<Config::XmlGroup> >::begin
FUNC 5c8ec 31 0 std::vector<Config::XmlGroup, std::allocator<Config::XmlGroup> >::end
FUNC 5c91e a1 0 std::vector<Config::XmlGroup, std::allocator<Config::XmlGroup> >::_M_allocate_and_copy<__gnu_cxx::__normal_iterator<const Config::XmlGroup*, std::vector<Config::XmlGroup, std::allocator<Config::XmlGroup> > > >
FUNC 5c9c0 34 0 std::_Vector_base<Config::XmlGroup, std::allocator<Config::XmlGroup> >::_M_deallocate
FUNC 5c9f4 25 0 std::vector<Config::XmlGroup, std::allocator<Config::XmlGroup> >::begin
FUNC 5ca19 46 0 std::copy<__gnu_cxx::__normal_iterator<const Config::XmlGroup*, std::vector<Config::XmlGroup, std::allocator<Config::XmlGroup> > >, __gnu_cxx::__normal_iterator<Config::XmlGroup*, std::vector<Config::XmlGroup, std::allocator<Config::XmlGroup> > > >
FUNC 5ca60 29 0 std::vector<Config::XmlGroup, std::allocator<Config::XmlGroup> >::end
FUNC 5ca89 29 0 std::_Destroy<__gnu_cxx::__normal_iterator<Config::XmlGroup*, std::vector<Config::XmlGroup, std::allocator<Config::XmlGroup> > >, Config::XmlGroup>
FUNC 5cab2 46 0 std::copy<Config::XmlGroup*, Config::XmlGroup*>
FUNC 5caf8 31 0 std::__uninitialized_copy_a<Config::XmlGroup*, Config::XmlGroup*, Config::XmlGroup>
FUNC 5cb2a 3a 0 std::vector<Config::XmlParameter, std::allocator<Config::XmlParameter> >::size
FUNC 5cb64 3a 0 std::vector<Config::XmlParameter, std::allocator<Config::XmlParameter> >::capacity
FUNC 5cb9e 30 0 std::vector<Config::XmlParameter, std::allocator<Config::XmlParameter> >::begin
FUNC 5cbce 31 0 std::vector<Config::XmlParameter, std::allocator<Config::XmlParameter> >::end
FUNC 5cc00 a1 0 std::vector<Config::XmlParameter, std::allocator<Config::XmlParameter> >::_M_allocate_and_copy<__gnu_cxx::__normal_iterator<const Config::XmlParameter*, std::vector<Config::XmlParameter, std::allocator<Config::XmlParameter> > > >
FUNC 5cca2 34 0 std::_Vector_base<Config::XmlParameter, std::allocator<Config::XmlParameter> >::_M_deallocate
FUNC 5ccd6 25 0 std::vector<Config::XmlParameter, std::allocator<Config::XmlParameter> >::begin
FUNC 5ccfb 46 0 std::copy<__gnu_cxx::__normal_iterator<const Config::XmlParameter*, std::vector<Config::XmlParameter, std::allocator<Config::XmlParameter> > >, __gnu_cxx::__normal_iterator<Config::XmlParameter*, std::vector<Config::XmlParameter, std::allocator<Config::XmlParameter> > > >
FUNC 5cd42 29 0 std::vector<Config::XmlParameter, std::allocator<Config::XmlParameter> >::end
FUNC 5cd6b 29 0 std::_Destroy<__gnu_cxx::__normal_iterator<Config::XmlParameter*, std::vector<Config::XmlParameter, std::allocator<Config::XmlParameter> > >, Config::XmlParameter>
FUNC 5cd94 46 0 std::copy<Config::XmlParameter*, Config::XmlParameter*>
FUNC 5cdda 31 0 std::__uninitialized_copy_a<Config::XmlParameter*, Config::XmlParameter*, Config::XmlParameter>
FUNC 5ce0c 11 0 std::fpos<__mbstate_t>::operator std::streamoff
FUNC 5ce1e 25 0 std::fpos<__mbstate_t>::fpos
FUNC 5ce44 95 0 std::vector<char, std::allocator<char> >::resize
FUNC 5ceda 2a 0 std::vector<char, std::allocator<char> >::front
FUNC 5cf04 3f 0 rapidxml::xml_node<char>::xml_node
FUNC 5cf44 38 0 rapidxml::memory_pool<char>::memory_pool
FUNC 5cf7c a5 0 rapidxml::memory_pool<char>::clear
FUNC 5d022 5f 0 rapidxml::xml_node<char>::remove_all_nodes
FUNC 5d082 5f 0 rapidxml::xml_node<char>::remove_all_attributes
FUNC 5d0e2 52 0 rapidxml::xml_document<char>::parse_bom<0>
FUNC 5d134 45 0 rapidxml::xml_document<char>::skip<rapidxml::xml_document<char>::whitespace_pred, 0>
FUNC 5d17a 3ae 0 rapidxml::xml_document<char>::parse_node<0>
FUNC 5d528 3a 0 rapidxml::internal::measure<char>
FUNC 5d562 e2 0 rapidxml::xml_node<char>::next_sibling
FUNC 5d644 25 0 rapidxml::xml_base<char>::name_size
FUNC 5d669 dd 0 rapidxml::internal::compare<char>
FUNC 5d746 b 0 rapidxml::xml_base<char>::nullstr
FUNC 5d751 2a 0 std::operator==<char, std::char_traits<char>, std::allocator<char> >
FUNC 5d77c 113 0 rapidxml::memory_pool<char>::allocate_aligned
FUNC 5d890 29 0 rapidxml::xml_base<char>::name
FUNC 5d8ba 34 0 rapidxml::xml_base<char>::name
FUNC 5d8ee 2a 0 rapidxml::xml_base<char>::value
FUNC 5d918 34 0 rapidxml::xml_base<char>::value
FUNC 5d94c 11 0 rapidxml::xml_node<char>::type
FUNC 5d95e 12 0 rapidxml::xml_base<char>::parent
FUNC 5d970 4c 0 rapidxml::print<char>
FUNC 5d9bc b6 0 std::_Rb_tree<std::basic_string<char, std::char_traits<char>, std::allocator<char> >, std::pair<const std::basic_string<char, std::char_traits<char>, std::allocator<char> >, Config::IntParameter>, std::_Select1st<std::pair<const std::basic_string<char, std::char_traits<char>, std::allocator<char> >, Config::IntParameter> >, std::less<std::basic_string<char, std::char_traits<char>, std::allocator<char> > >, std::allocator<std::pair<const std::basic_string<char, std::char_traits<char>, std::allocator<char> >, Config::IntParameter> > >::find
FUNC 5da72 b6 0 std::_Rb_tree<std::basic_string<char, std::char_traits<char>, std::allocator<char> >, std::pair<const std::basic_string<char, std::char_traits<char>, std::allocator<char> >, Config::StringParameter>, std::_Select1st<std::pair<const std::basic_string<char, std::char_traits<char>, std::allocator<char> >, Config::StringParameter> >, std::less<std::basic_string<char, std::char_traits<char>, std::allocator<char> > >, std::allocator<std::pair<const std::basic_string<char, std::char_traits<char>, std::allocator<char> >, Config::StringParameter> > >::find
FUNC 5db28 4c 0 boost::exception_detail::error_info_injector<boost::condition_error>::error_info_injector
FUNC 5db74 b9 0 boost::exception_detail::clone_impl<boost::exception_detail::error_info_injector<boost::condition_error> >::clone_impl
FUNC 5dc2e 3d 0 std::_Vector_base<Config::XmlGroup, std::allocator<Config::XmlGroup> >::_Vector_impl::_Vector_impl
FUNC 5dc6c 1a 0 std::allocator<Config::XmlGroup>::~allocator
FUNC 5dc86 25 0 std::_Destroy<Config::XmlGroup*>
FUNC 5dcac 3d 0 std::_Vector_base<Config::XmlParameter, std::allocator<Config::XmlParameter> >::_Vector_impl::_Vector_impl
FUNC 5dcea 1a 0 std::allocator<Config::XmlParameter>::~allocator
FUNC 5dd04 25 0 std::_Destroy<Config::XmlParameter*>
FUNC 5dd29 32 0 std::swap<Config::ConfigCenter*>
FUNC 5dd5c 35 0 boost::detail::sp_counted_impl_p<Config::ConfigCenter>::sp_counted_impl_p
FUNC 5dd91 2d 0 boost::checked_delete<Config::ConfigCenter>
FUNC 5ddbe 19 0 std::_Rb_tree_iterator<std::pair<const std::basic_string<char, std::char_traits<char>, std::allocator<char> >, Config::IntParameter> >::_Rb_tree_iterator
FUNC 5ddd8 61 0 std::_Rb_tree<std::basic_string<char, std::char_traits<char>, std::allocator<char> >, std::pair<const std::basic_string<char, std::char_traits<char>, std::allocator<char> >, Config::IntParameter>, std::_Select1st<std::pair<const std::basic_string<char, std::char_traits<char>, std::allocator<char> >, Config::IntParameter> >, std::less<std::basic_string<char, std::char_traits<char>, std::allocator<char> > >, std::allocator<std::pair<const std::basic_string<char, std::char_traits<char>, std::allocator<char> >, Config::IntParameter> > >::_Rb_tree_impl<std::less<std::basic_string<char, std::char_traits<char>, std::allocator<char> > >, false>::_Rb_tree_impl
FUNC 5de3a a 0 __gnu_cxx::new_allocator<std::_Rb_tree_node<std::pair<const std::basic_string<char, std::char_traits<char>, std::allocator<char> >, Config::IntParameter> > >::~new_allocator
FUNC 5de44 12 0 std::_Rb_tree<std::basic_string<char, std::char_traits<char>, std::allocator<char> >, std::pair<const std::basic_string<char, std::char_traits<char>, std::allocator<char> >, Config::IntParameter>, std::_Select1st<std::pair<const std::basic_string<char, std::char_traits<char>, std::allocator<char> >, Config::IntParameter> >, std::less<std::basic_string<char, std::char_traits<char>, std::allocator<char> > >, std::allocator<std::pair<const std::basic_string<char, std::char_traits<char>, std::allocator<char> >, Config::IntParameter> > >::_S_right
FUNC 5de56 12 0 std::_Rb_tree<std::basic_string<char, std::char_traits<char>, std::allocator<char> >, std::pair<const std::basic_string<char, std::char_traits<char>, std::allocator<char> >, Config::IntParameter>, std::_Select1st<std::pair<const std::basic_string<char, std::char_traits<char>, std::allocator<char> >, Config::IntParameter> >, std::less<std::basic_string<char, std::char_traits<char>, std::allocator<char> > >, std::allocator<std::pair<const std::basic_string<char, std::char_traits<char>, std::allocator<char> >, Config::IntParameter> > >::_S_left
FUNC 5de68 86 0 std::_Rb_tree<std::basic_string<char, std::char_traits<char>, std::allocator<char> >, std::pair<const std::basic_string<char, std::char_traits<char>, std::allocator<char> >, Config::IntParameter>, std::_Select1st<std::pair<const std::basic_string<char, std::char_traits<char>, std::allocator<char> >, Config::IntParameter> >, std::less<std::basic_string<char, std::char_traits<char>, std::allocator<char> > >, std::allocator<std::pair<const std::basic_string<char, std::char_traits<char>, std::allocator<char> >, Config::IntParameter> > >::_M_destroy_node
FUNC 5deee 12 0 std::_Rb_tree<std::basic_string<char, std::char_traits<char>, std::allocator<char> >, std::pair<const std::basic_string<char, std::char_traits<char>, std::allocator<char> >, Config::IntParameter>, std::_Select1st<std::pair<const std::basic_string<char, std::char_traits<char>, std::allocator<char> >, Config::IntParameter> >, std::less<std::basic_string<char, std::char_traits<char>, std::allocator<char> > >, std::allocator<std::pair<const std::basic_string<char, std::char_traits<char>, std::allocator<char> >, Config::IntParameter> > >::_M_end
FUNC 5df00 12 0 std::_Select1st<std::pair<const std::basic_string<char, std::char_traits<char>, std::allocator<char> >, Config::IntParameter> >::operator()
FUNC 5df12 2c 0 std::_Rb_tree<std::basic_string<char, std::char_traits<char>, std::allocator<char> >, std::pair<const std::basic_string<char, std::char_traits<char>, std::allocator<char> >, Config::IntParameter>, std::_Select1st<std::pair<const std::basic_string<char, std::char_traits<char>, std::allocator<char> >, Config::IntParameter> >, std::less<std::basic_string<char, std::char_traits<char>, std::allocator<char> > >, std::allocator<std::pair<const std::basic_string<char, std::char_traits<char>, std::allocator<char> >, Config::IntParameter> > >::_S_key
FUNC 5df3e 22 0 std::_Rb_tree_iterator<std::pair<const std::basic_string<char, std::char_traits<char>, std::allocator<char> >, Config::IntParameter> >::operator==
FUNC 5df60 e3 0 std::_Rb_tree<std::basic_string<char, std::char_traits<char>, std::allocator<char> >, std::pair<const std::basic_string<char, std::char_traits<char>, std::allocator<char> >, Config::IntParameter>, std::_Select1st<std::pair<const std::basic_string<char, std::char_traits<char>, std::allocator<char> >, Config::IntParameter> >, std::less<std::basic_string<char, std::char_traits<char>, std::allocator<char> > >, std::allocator<std::pair<const std::basic_string<char, std::char_traits<char>, std::allocator<char> >, Config::IntParameter> > >::_M_insert_
FUNC 5e044 2e 0 std::pair<std::_Rb_tree_iterator<std::pair<const std::basic_string<char, std::char_traits<char>, std::allocator<char> >, Config::IntParameter> >, bool>::pair
FUNC 5e072 28 0 std::_Rb_tree_iterator<std::pair<const std::basic_string<char, std::char_traits<char>, std::allocator<char> >, Config::IntParameter> >::operator--
FUNC 5e09a 2c 0 std::_Rb_tree<std::basic_string<char, std::char_traits<char>, std::allocator<char> >, std::pair<const std::basic_string<char, std::char_traits<char>, std::allocator<char> >, Config::IntParameter>, std::_Select1st<std::pair<const std::basic_string<char, std::char_traits<char>, std::allocator<char> >, Config::IntParameter> >, std::less<std::basic_string<char, std::char_traits<char>, std::allocator<char> > >, std::allocator<std::pair<const std::basic_string<char, std::char_traits<char>, std::allocator<char> >, Config::IntParameter> > >::_S_key
FUNC 5e0c6 4c0 0 std::_Rb_tree<std::basic_string<char, std::char_traits<char>, std::allocator<char> >, std::pair<const std::basic_string<char, std::char_traits<char>, std::allocator<char> >, Config::IntParameter>, std::_Select1st<std::pair<const std::basic_string<char, std::char_traits<char>, std::allocator<char> >, Config::IntParameter> >, std::less<std::basic_string<char, std::char_traits<char>, std::allocator<char> > >, std::allocator<std::pair<const std::basic_string<char, std::char_traits<char>, std::allocator<char> >, Config::IntParameter> > >::_M_insert_unique_
FUNC 5e586 1c 0 std::_Rb_tree_const_iterator<std::pair<const std::basic_string<char, std::char_traits<char>, std::allocator<char> >, Config::IntParameter> >::_Rb_tree_const_iterator
FUNC 5e5a2 19 0 std::_Rb_tree_iterator<std::pair<const std::basic_string<char, std::char_traits<char>, std::allocator<char> >, Config::StringParameter> >::_Rb_tree_iterator
FUNC 5e5bc 61 0 std::_Rb_tree<std::basic_string<char, std::char_traits<char>, std::allocator<char> >, std::pair<const std::basic_string<char, std::char_traits<char>, std::allocator<char> >, Config::StringParameter>, std::_Select1st<std::pair<const std::basic_string<char, std::char_traits<char>, std::allocator<char> >, Config::StringParameter> >, std::less<std::basic_string<char, std::char_traits<char>, std::allocator<char> > >, std::allocator<std::pair<const std::basic_string<char, std::char_traits<char>, std::allocator<char> >, Config::StringParameter> > >::_Rb_tree_impl<std::less<std::basic_string<char, std::char_traits<char>, std::allocator<char> > >, false>::_Rb_tree_impl
FUNC 5e61e a 0 __gnu_cxx::new_allocator<std::_Rb_tree_node<std::pair<const std::basic_string<char, std::char_traits<char>, std::allocator<char> >, Config::StringParameter> > >::~new_allocator
FUNC 5e628 12 0 std::_Rb_tree<std::basic_string<char, std::char_traits<char>, std::allocator<char> >, std::pair<const std::basic_string<char, std::char_traits<char>, std::allocator<char> >, Config::StringParameter>, std::_Select1st<std::pair<const std::basic_string<char, std::char_traits<char>, std::allocator<char> >, Config::StringParameter> >, std::less<std::basic_string<char, std::char_traits<char>, std::allocator<char> > >, std::allocator<std::pair<const std::basic_string<char, std::char_traits<char>, std::allocator<char> >, Config::StringParameter> > >::_S_right
FUNC 5e63a 12 0 std::_Rb_tree<std::basic_string<char, std::char_traits<char>, std::allocator<char> >, std::pair<const std::basic_string<char, std::char_traits<char>, std::allocator<char> >, Config::StringParameter>, std::_Select1st<std::pair<const std::basic_string<char, std::char_traits<char>, std::allocator<char> >, Config::StringParameter> >, std::less<std::basic_string<char, std::char_traits<char>, std::allocator<char> > >, std::allocator<std::pair<const std::basic_string<char, std::char_traits<char>, std::allocator<char> >, Config::StringParameter> > >::_S_left
FUNC 5e64c 86 0 std::_Rb_tree<std::basic_string<char, std::char_traits<char>, std::allocator<char> >, std::pair<const std::basic_string<char, std::char_traits<char>, std::allocator<char> >, Config::StringParameter>, std::_Select1st<std::pair<const std::basic_string<char, std::char_traits<char>, std::allocator<char> >, Config::StringParameter> >, std::less<std::basic_string<char, std::char_traits<char>, std::allocator<char> > >, std::allocator<std::pair<const std::basic_string<char, std::char_traits<char>, std::allocator<char> >, Config::StringParameter> > >::_M_destroy_node
FUNC 5e6d2 12 0 std::_Rb_tree<std::basic_string<char, std::char_traits<char>, std::allocator<char> >, std::pair<const std::basic_string<char, std::char_traits<char>, std::allocator<char> >, Config::StringParameter>, std::_Select1st<std::pair<const std::basic_string<char, std::char_traits<char>, std::allocator<char> >, Config::StringParameter> >, std::less<std::basic_string<char, std::char_traits<char>, std::allocator<char> > >, std::allocator<std::pair<const std::basic_string<char, std::char_traits<char>, std::allocator<char> >, Config::StringParameter> > >::_M_end
FUNC 5e6e4 12 0 std::_Select1st<std::pair<const std::basic_string<char, std::char_traits<char>, std::allocator<char> >, Config::StringParameter> >::operator()
FUNC 5e6f6 2c 0 std::_Rb_tree<std::basic_string<char, std::char_traits<char>, std::allocator<char> >, std::pair<const std::basic_string<char, std::char_traits<char>, std::allocator<char> >, Config::StringParameter>, std::_Select1st<std::pair<const std::basic_string<char, std::char_traits<char>, std::allocator<char> >, Config::StringParameter> >, std::less<std::basic_string<char, std::char_traits<char>, std::allocator<char> > >, std::allocator<std::pair<const std::basic_string<char, std::char_traits<char>, std::allocator<char> >, Config::StringParameter> > >::_S_key
FUNC 5e722 22 0 std::_Rb_tree_iterator<std::pair<const std::basic_string<char, std::char_traits<char>, std::allocator<char> >, Config::StringParameter> >::operator==
FUNC 5e744 e3 0 std::_Rb_tree<std::basic_string<char, std::char_traits<char>, std::allocator<char> >, std::pair<const std::basic_string<char, std::char_traits<char>, std::allocator<char> >, Config::StringParameter>, std::_Select1st<std::pair<const std::basic_string<char, std::char_traits<char>, std::allocator<char> >, Config::StringParameter> >, std::less<std::basic_string<char, std::char_traits<char>, std::allocator<char> > >, std::allocator<std::pair<const std::basic_string<char, std::char_traits<char>, std::allocator<char> >, Config::StringParameter> > >::_M_insert_
FUNC 5e828 2e 0 std::pair<std::_Rb_tree_iterator<std::pair<const std::basic_string<char, std::char_traits<char>, std::allocator<char> >, Config::StringParameter> >, bool>::pair
FUNC 5e856 28 0 std::_Rb_tree_iterator<std::pair<const std::basic_string<char, std::char_traits<char>, std::allocator<char> >, Config::StringParameter> >::operator--
FUNC 5e87e 2c 0 std::_Rb_tree<std::basic_string<char, std::char_traits<char>, std::allocator<char> >, std::pair<const std::basic_string<char, std::char_traits<char>, std::allocator<char> >, Config::StringParameter>, std::_Select1st<std::pair<const std::basic_string<char, std::char_traits<char>, std::allocator<char> >, Config::StringParameter> >, std::less<std::basic_string<char, std::char_traits<char>, std::allocator<char> > >, std::allocator<std::pair<const std::basic_string<char, std::char_traits<char>, std::allocator<char> >, Config::StringParameter> > >::_S_key
FUNC 5e8aa 4c0 0 std::_Rb_tree<std::basic_string<char, std::char_traits<char>, std::allocator<char> >, std::pair<const std::basic_string<char, std::char_traits<char>, std::allocator<char> >, Config::StringParameter>, std::_Select1st<std::pair<const std::basic_string<char, std::char_traits<char>, std::allocator<char> >, Config::StringParameter> >, std::less<std::basic_string<char, std::char_traits<char>, std::allocator<char> > >, std::allocator<std::pair<const std::basic_string<char, std::char_traits<char>, std::allocator<char> >, Config::StringParameter> > >::_M_insert_unique_
FUNC 5ed6a 1c 0 std::_Rb_tree_const_iterator<std::pair<const std::basic_string<char, std::char_traits<char>, std::allocator<char> >, Config::StringParameter> >::_Rb_tree_const_iterator
FUNC 5ed86 1c 0 __gnu_cxx::__normal_iterator<const Config::XmlGroup*, std::vector<Config::XmlGroup, std::allocator<Config::XmlGroup> > >::__normal_iterator
FUNC 5eda2 38 0 std::_Vector_base<Config::XmlGroup, std::allocator<Config::XmlGroup> >::_M_allocate
FUNC 5edda 31 0 std::__uninitialized_copy_a<__gnu_cxx::__normal_iterator<const Config::XmlGroup*, std::vector<Config::XmlGroup, std::allocator<Config::XmlGroup> > >, Config::XmlGroup*, Config::XmlGroup>
FUNC 5ee0c 22 0 __gnu_cxx::new_allocator<Config::XmlGroup>::deallocate
FUNC 5ee2e 1c 0 __gnu_cxx::__normal_iterator<Config::XmlGroup*, std::vector<Config::XmlGroup, std::allocator<Config::XmlGroup> > >::__normal_iterator
FUNC 5ee4a e 0 std::__miter_base<__gnu_cxx::__normal_iterator<const Config::XmlGroup*, std::vector<Config::XmlGroup, std::allocator<Config::XmlGroup> > >, false>::__b
FUNC 5ee58 73 0 std::__copy_move_a2<false, __gnu_cxx::__normal_iterator<const Config::XmlGroup*, std::vector<Config::XmlGroup, std::allocator<Config::XmlGroup> > >, __gnu_cxx::__normal_iterator<Config::XmlGroup*, std::vector<Config::XmlGroup, std::allocator<Config::XmlGroup> > > >
FUNC 5eecb 25 0 std::_Destroy<__gnu_cxx::__normal_iterator<Config::XmlGroup*, std::vector<Config::XmlGroup, std::allocator<Config::XmlGroup> > > >
FUNC 5eef0 e 0 std::__miter_base<Config::XmlGroup*, false>::__b
FUNC 5eefe 58 0 std::__copy_move_a2<false, Config::XmlGroup*, Config::XmlGroup*>
FUNC 5ef56 2d 0 std::uninitialized_copy<Config::XmlGroup*, Config::XmlGroup*>
FUNC 5ef84 1c 0 __gnu_cxx::__normal_iterator<const Config::XmlParameter*, std::vector<Config::XmlParameter, std::allocator<Config::XmlParameter> > >::__normal_iterator
FUNC 5efa0 38 0 std::_Vector_base<Config::XmlParameter, std::allocator<Config::XmlParameter> >::_M_allocate
FUNC 5efd8 31 0 std::__uninitialized_copy_a<__gnu_cxx::__normal_iterator<const Config::XmlParameter*, std::vector<Config::XmlParameter, std::allocator<Config::XmlParameter> > >, Config::XmlParameter*, Config::XmlParameter>
FUNC 5f00a 22 0 __gnu_cxx::new_allocator<Config::XmlParameter>::deallocate
FUNC 5f02c 1c 0 __gnu_cxx::__normal_iterator<Config::XmlParameter*, std::vector<Config::XmlParameter, std::allocator<Config::XmlParameter> > >::__normal_iterator
FUNC 5f048 e 0 std::__miter_base<__gnu_cxx::__normal_iterator<const Config::XmlParameter*, std::vector<Config::XmlParameter, std::allocator<Config::XmlParameter> > >, false>::__b
FUNC 5f056 73 0 std::__copy_move_a2<false, __gnu_cxx::__normal_iterator<const Config::XmlParameter*, std::vector<Config::XmlParameter, std::allocator<Config::XmlParameter> > >, __gnu_cxx::__normal_iterator<Config::XmlParameter*, std::vector<Config::XmlParameter, std::allocator<Config::XmlParameter> > > >
FUNC 5f0c9 25 0 std::_Destroy<__gnu_cxx::__normal_iterator<Config::XmlParameter*, std::vector<Config::XmlParameter, std::allocator<Config::XmlParameter> > > >
FUNC 5f0ee e 0 std::__miter_base<Config::XmlParameter*, false>::__b
FUNC 5f0fc 58 0 std::__copy_move_a2<false, Config::XmlParameter*, Config::XmlParameter*>
FUNC 5f154 2d 0 std::uninitialized_copy<Config::XmlParameter*, Config::XmlParameter*>
FUNC 5f182 44 0 std::vector<char, std::allocator<char> >::_M_erase_at_end
FUNC 5f1c6 3b 0 std::vector<char, std::allocator<char> >::insert
FUNC 5f202 11 0 __gnu_cxx::__normal_iterator<char*, std::vector<char, std::allocator<char> > >::operator*
FUNC 5f214 2d 0 rapidxml::xml_base<char>::xml_base
FUNC 5f242 52 0 rapidxml::memory_pool<char>::init
FUNC 5f294 33 0 rapidxml::memory_pool<char>::align
FUNC 5f2c8 bc 0 rapidxml::xml_node<char>::first_attribute
FUNC 5f384 1b 0 rapidxml::xml_document<char>::whitespace_pred::test
FUNC 5f3a0 201 0 rapidxml::xml_document<char>::parse_element<0>
FUNC 5f5a2 bb 0 rapidxml::xml_document<char>::parse_xml_declaration<0>
FUNC 5f65e bb 0 rapidxml::xml_document<char>::parse_pi<0>
FUNC 5f71a cd 0 rapidxml::xml_document<char>::parse_comment<0>
FUNC 5f7e8 13d 0 rapidxml::xml_document<char>::parse_cdata<0>
FUNC 5f926 156 0 rapidxml::xml_document<char>::parse_doctype<0>
FUNC 5fa7c 6e 0 rapidxml::memory_pool<char>::allocate_raw
FUNC 5faea a 0 std::iterator<std::output_iterator_tag, void, void, void, void>::iterator
FUNC 5faf4 35 0 std::ostream_iterator<char, char, std::char_traits<char> >::ostream_iterator
FUNC 5fb2a 3c 0 std::ostream_iterator<char, char, std::char_traits<char> >::ostream_iterator
FUNC 5fb66 5a 0 rapidxml::print<std::ostream_iterator<char, char, std::char_traits<char> >, char>
FUNC 5fbc0 92 0 std::_Rb_tree<std::basic_string<char, std::char_traits<char>, std::allocator<char> >, std::pair<const std::basic_string<char, std::char_traits<char>, std::allocator<char> >, Config::IntParameter>, std::_Select1st<std::pair<const std::basic_string<char, std::char_traits<char>, std::allocator<char> >, Config::IntParameter> >, std::less<std::basic_string<char, std::char_traits<char>, std::allocator<char> > >, std::allocator<std::pair<const std::basic_string<char, std::char_traits<char>, std::allocator<char> >, Config::IntParameter> > >::_M_lower_bound
FUNC 5fc52 92 0 std::_Rb_tree<std::basic_string<char, std::char_traits<char>, std::allocator<char> >, std::pair<const std::basic_string<char, std::char_traits<char>, std::allocator<char> >, Config::StringParameter>, std::_Select1st<std::pair<const std::basic_string<char, std::char_traits<char>, std::allocator<char> >, Config::StringParameter> >, std::less<std::basic_string<char, std::char_traits<char>, std::allocator<char> > >, std::allocator<std::pair<const std::basic_string<char, std::char_traits<char>, std::allocator<char> >, Config::StringParameter> > >::_M_lower_bound
FUNC 5fce4 1a 0 std::allocator<Config::XmlGroup>::allocator
FUNC 5fcfe a 0 __gnu_cxx::new_allocator<Config::XmlGroup>::~new_allocator
FUNC 5fd08 34 0 std::_Destroy_aux<false>::__destroy<Config::XmlGroup*>
FUNC 5fd3c 1a 0 std::allocator<Config::XmlParameter>::allocator
FUNC 5fd56 a 0 __gnu_cxx::new_allocator<Config::XmlParameter>::~new_allocator
FUNC 5fd60 34 0 std::_Destroy_aux<false>::__destroy<Config::XmlParameter*>
FUNC 5fd94 1a 0 std::allocator<std::_Rb_tree_node<std::pair<const std::basic_string<char, std::char_traits<char>, std::allocator<char> >, Config::IntParameter> > >::allocator
FUNC 5fdae 41 0 std::_Rb_tree<std::basic_string<char, std::char_traits<char>, std::allocator<char> >, std::pair<const std::basic_string<char, std::char_traits<char>, std::allocator<char> >, Config::IntParameter>, std::_Select1st<std::pair<const std::basic_string<char, std::char_traits<char>, std::allocator<char> >, Config::IntParameter> >, std::less<std::basic_string<char, std::char_traits<char>, std::allocator<char> > >, std::allocator<std::pair<const std::basic_string<char, std::char_traits<char>, std::allocator<char> >, Config::IntParameter> > >::_Rb_tree_impl<std::less<std::basic_string<char, std::char_traits<char>, std::allocator<char> > >, false>::_M_initialize
FUNC 5fdf0 3b 0 std::_Rb_tree<std::basic_string<char, std::char_traits<char>, std::allocator<char> >, std::pair<const std::basic_string<char, std::char_traits<char>, std::allocator<char> >, Config::IntParameter>, std::_Select1st<std::pair<const std::basic_string<char, std::char_traits<char>, std::allocator<char> >, Config::IntParameter> >, std::less<std::basic_string<char, std::char_traits<char>, std::allocator<char> > >, std::allocator<std::pair<const std::basic_string<char, std::char_traits<char>, std::allocator<char> >, Config::IntParameter> > >::get_allocator
FUNC 5fe2c 1a 0 std::allocator<std::pair<const std::basic_string<char, std::char_traits<char>, std::allocator<char> >, Config::IntParameter> >::~allocator
FUNC 5fe46 55 0 std::pair<const std::basic_string<char, std::char_traits<char>, std::allocator<char> >, Config::IntParameter>::~pair
FUNC 5fe9c 1e 0 __gnu_cxx::new_allocator<std::pair<const std::basic_string<char, std::char_traits<char>, std::allocator<char> >, Config::IntParameter> >::destroy
FUNC 5feba 2a 0 std::_Rb_tree<std::basic_string<char, std::char_traits<char>, std::allocator<char> >, std::pair<const std::basic_string<char, std::char_traits<char>, std::allocator<char> >, Config::IntParameter>, std::_Select1st<std::pair<const std::basic_string<char, std::char_traits<char>, std::allocator<char> >, Config::IntParameter> >, std::less<std::basic_string<char, std::char_traits<char>, std::allocator<char> > >, std::allocator<std::pair<const std::basic_string<char, std::char_traits<char>, std::allocator<char> >, Config::IntParameter> > >::_M_put_node
FUNC 5fee4 12 0 std::_Rb_tree<std::basic_string<char, std::char_traits<char>, std::allocator<char> >, std::pair<const std::basic_string<char, std::char_traits<char>, std::allocator<char> >, Config::IntParameter>, std::_Select1st<std::pair<const std::basic_string<char, std::char_traits<char>, std::allocator<char> >, Config::IntParameter> >, std::less<std::basic_string<char, std::char_traits<char>, std::allocator<char> > >, std::allocator<std::pair<const std::basic_string<char, std::char_traits<char>, std::allocator<char> >, Config::IntParameter> > >::_S_value
FUNC 5fef6 bb 0 std::_Rb_tree<std::basic_string<char, std::char_traits<char>, std::allocator<char> >, std::pair<const std::basic_string<char, std::char_traits<char>, std::allocator<char> >, Config::IntParameter>, std::_Select1st<std::pair<const std::basic_string<char, std::char_traits<char>, std::allocator<char> >, Config::IntParameter> >, std::less<std::basic_string<char, std::char_traits<char>, std::allocator<char> > >, std::allocator<std::pair<const std::basic_string<char, std::char_traits<char>, std::allocator<char> >, Config::IntParameter> > >::_M_create_node
FUNC 5ffb1 12 0 std::_Rb_tree<std::basic_string<char, std::char_traits<char>, std::allocator<char> >, std::pair<const std::basic_string<char, std::char_traits<char>, std::allocator<char> >, Config::IntParameter>, std::_Select1st<std::pair<const std::basic_string<char, std::char_traits<char>, std::allocator<char> >, Config::IntParameter> >, std::less<std::basic_string<char, std::char_traits<char>, std::allocator<char> > >, std::allocator<std::pair<const std::basic_string<char, std::char_traits<char>, std::allocator<char> >, Config::IntParameter> > >::_S_value
FUNC 5ffc4 12 0 std::_Rb_tree<std::basic_string<char, std::char_traits<char>, std::allocator<char> >, std::pair<const std::basic_string<char, std::char_traits<char>, std::allocator<char> >, Config::IntParameter>, std::_Select1st<std::pair<const std::basic_string<char, std::char_traits<char>, std::allocator<char> >, Config::IntParameter> >, std::less<std::basic_string<char, std::char_traits<char>, std::allocator<char> > >, std::allocator<std::pair<const std::basic_string<char, std::char_traits<char>, std::allocator<char> >, Config::IntParameter> > >::_M_rightmost
FUNC 5ffd6 12 0 std::_Rb_tree<std::basic_string<char, std::char_traits<char>, std::allocator<char> >, std::pair<const std::basic_string<char, std::char_traits<char>, std::allocator<char> >, Config::IntParameter>, std::_Select1st<std::pair<const std::basic_string<char, std::char_traits<char>, std::allocator<char> >, Config::IntParameter> >, std::less<std::basic_string<char, std::char_traits<char>, std::allocator<char> > >, std::allocator<std::pair<const std::basic_string<char, std::char_traits<char>, std::allocator<char> >, Config::IntParameter> > >::size
FUNC 5ffe8 12 0 std::_Rb_tree<std::basic_string<char, std::char_traits<char>, std::allocator<char> >, std::pair<const std::basic_string<char, std::char_traits<char>, std::allocator<char> >, Config::IntParameter>, std::_Select1st<std::pair<const std::basic_string<char, std::char_traits<char>, std::allocator<char> >, Config::IntParameter> >, std::less<std::basic_string<char, std::char_traits<char>, std::allocator<char> > >, std::allocator<std::pair<const std::basic_string<char, std::char_traits<char>, std::allocator<char> >, Config::IntParameter> > >::_M_leftmost
FUNC 5fffa 28 0 std::_Rb_tree_const_iterator<std::pair<const std::basic_string<char, std::char_traits<char>, std::allocator<char> >, Config::IntParameter> >::operator--
FUNC 60022 12 0 std::_Rb_tree<std::basic_string<char, std::char_traits<char>, std::allocator<char> >, std::pair<const std::basic_string<char, std::char_traits<char>, std::allocator<char> >, Config::IntParameter>, std::_Select1st<std::pair<const std::basic_string<char, std::char_traits<char>, std::allocator<char> >, Config::IntParameter> >, std::less<std::basic_string<char, std::char_traits<char>, std::allocator<char> > >, std::allocator<std::pair<const std::basic_string<char, std::char_traits<char>, std::allocator<char> >, Config::IntParameter> > >::_S_right
FUNC 60034 28 0 std::_Rb_tree_const_iterator<std::pair<const std::basic_string<char, std::char_traits<char>, std::allocator<char> >, Config::IntParameter> >::operator++
FUNC 6005c 1a 0 std::allocator<std::_Rb_tree_node<std::pair<const std::basic_string<char, std::char_traits<char>, std::allocator<char> >, Config::StringParameter> > >::allocator
FUNC 60076 41 0 std::_Rb_tree<std::basic_string<char, std::char_traits<char>, std::allocator<char> >, std::pair<const std::basic_string<char, std::char_traits<char>, std::allocator<char> >, Config::StringParameter>, std::_Select1st<std::pair<const std::basic_string<char, std::char_traits<char>, std::allocator<char> >, Config::StringParameter> >, std::less<std::basic_string<char, std::char_traits<char>, std::allocator<char> > >, std::allocator<std::pair<const std::basic_string<char, std::char_traits<char>, std::allocator<char> >, Config::StringParameter> > >::_Rb_tree_impl<std::less<std::basic_string<char, std::char_traits<char>, std::allocator<char> > >, false>::_M_initialize
FUNC 600b8 3b 0 std::_Rb_tree<std::basic_string<char, std::char_traits<char>, std::allocator<char> >, std::pair<const std::basic_string<char, std::char_traits<char>, std::allocator<char> >, Config::StringParameter>, std::_Select1st<std::pair<const std::basic_string<char, std::char_traits<char>, std::allocator<char> >, Config::StringParameter> >, std::less<std::basic_string<char, std::char_traits<char>, std::allocator<char> > >, std::allocator<std::pair<const std::basic_string<char, std::char_traits<char>, std::allocator<char> >, Config::StringParameter> > >::get_allocator
FUNC 600f4 1a 0 std::allocator<std::pair<const std::basic_string<char, std::char_traits<char>, std::allocator<char> >, Config::StringParameter> >::~allocator
FUNC 6010e 55 0 std::pair<const std::basic_string<char, std::char_traits<char>, std::allocator<char> >, Config::StringParameter>::~pair
FUNC 60164 1e 0 __gnu_cxx::new_allocator<std::pair<const std::basic_string<char, std::char_traits<char>, std::allocator<char> >, Config::StringParameter> >::destroy
FUNC 60182 2a 0 std::_Rb_tree<std::basic_string<char, std::char_traits<char>, std::allocator<char> >, std::pair<const std::basic_string<char, std::char_traits<char>, std::allocator<char> >, Config::StringParameter>, std::_Select1st<std::pair<const std::basic_string<char, std::char_traits<char>, std::allocator<char> >, Config::StringParameter> >, std::less<std::basic_string<char, std::char_traits<char>, std::allocator<char> > >, std::allocator<std::pair<const std::basic_string<char, std::char_traits<char>, std::allocator<char> >, Config::StringParameter> > >::_M_put_node
FUNC 601ac 12 0 std::_Rb_tree<std::basic_string<char, std::char_traits<char>, std::allocator<char> >, std::pair<const std::basic_string<char, std::char_traits<char>, std::allocator<char> >, Config::StringParameter>, std::_Select1st<std::pair<const std::basic_string<char, std::char_traits<char>, std::allocator<char> >, Config::StringParameter> >, std::less<std::basic_string<char, std::char_traits<char>, std::allocator<char> > >, std::allocator<std::pair<const std::basic_string<char, std::char_traits<char>, std::allocator<char> >, Config::StringParameter> > >::_S_value
FUNC 601be bb 0 std::_Rb_tree<std::basic_string<char, std::char_traits<char>, std::allocator<char> >, std::pair<const std::basic_string<char, std::char_traits<char>, std::allocator<char> >, Config::StringParameter>, std::_Select1st<std::pair<const std::basic_string<char, std::char_traits<char>, std::allocator<char> >, Config::StringParameter> >, std::less<std::basic_string<char, std::char_traits<char>, std::allocator<char> > >, std::allocator<std::pair<const std::basic_string<char, std::char_traits<char>, std::allocator<char> >, Config::StringParameter> > >::_M_create_node
FUNC 60279 12 0 std::_Rb_tree<std::basic_string<char, std::char_traits<char>, std::allocator<char> >, std::pair<const std::basic_string<char, std::char_traits<char>, std::allocator<char> >, Config::StringParameter>, std::_Select1st<std::pair<const std::basic_string<char, std::char_traits<char>, std::allocator<char> >, Config::StringParameter> >, std::less<std::basic_string<char, std::char_traits<char>, std::allocator<char> > >, std::allocator<std::pair<const std::basic_string<char, std::char_traits<char>, std::allocator<char> >, Config::StringParameter> > >::_S_value
FUNC 6028c 12 0 std::_Rb_tree<std::basic_string<char, std::char_traits<char>, std::allocator<char> >, std::pair<const std::basic_string<char, std::char_traits<char>, std::allocator<char> >, Config::StringParameter>, std::_Select1st<std::pair<const std::basic_string<char, std::char_traits<char>, std::allocator<char> >, Config::StringParameter> >, std::less<std::basic_string<char, std::char_traits<char>, std::allocator<char> > >, std::allocator<std::pair<const std::basic_string<char, std::char_traits<char>, std::allocator<char> >, Config::StringParameter> > >::_M_rightmost
FUNC 6029e 12 0 std::_Rb_tree<std::basic_string<char, std::char_traits<char>, std::allocator<char> >, std::pair<const std::basic_string<char, std::char_traits<char>, std::allocator<char> >, Config::StringParameter>, std::_Select1st<std::pair<const std::basic_string<char, std::char_traits<char>, std::allocator<char> >, Config::StringParameter> >, std::less<std::basic_string<char, std::char_traits<char>, std::allocator<char> > >, std::allocator<std::pair<const std::basic_string<char, std::char_traits<char>, std::allocator<char> >, Config::StringParameter> > >::size
FUNC 602b0 12 0 std::_Rb_tree<std::basic_string<char, std::char_traits<char>, std::allocator<char> >, std::pair<const std::basic_string<char, std::char_traits<char>, std::allocator<char> >, Config::StringParameter>, std::_Select1st<std::pair<const std::basic_string<char, std::char_traits<char>, std::allocator<char> >, Config::StringParameter> >, std::less<std::basic_string<char, std::char_traits<char>, std::allocator<char> > >, std::allocator<std::pair<const std::basic_string<char, std::char_traits<char>, std::allocator<char> >, Config::StringParameter> > >::_M_leftmost
FUNC 602c2 28 0 std::_Rb_tree_const_iterator<std::pair<const std::basic_string<char, std::char_traits<char>, std::allocator<char> >, Config::StringParameter> >::operator--
FUNC 602ea 12 0 std::_Rb_tree<std::basic_string<char, std::char_traits<char>, std::allocator<char> >, std::pair<const std::basic_string<char, std::char_traits<char>, std::allocator<char> >, Config::StringParameter>, std::_Select1st<std::pair<const std::basic_string<char, std::char_traits<char>, std::allocator<char> >, Config::StringParameter> >, std::less<std::basic_string<char, std::char_traits<char>, std::allocator<char> > >, std::allocator<std::pair<const std::basic_string<char, std::char_traits<char>, std::allocator<char> >, Config::StringParameter> > >::_S_right
FUNC 602fc 28 0 std::_Rb_tree_const_iterator<std::pair<const std::basic_string<char, std::char_traits<char>, std::allocator<char> >, Config::StringParameter> >::operator++
FUNC 60324 5c 0 __gnu_cxx::new_allocator<Config::XmlGroup>::allocate
FUNC 60380 2d 0 std::uninitialized_copy<__gnu_cxx::__normal_iterator<const Config::XmlGroup*, std::vector<Config::XmlGroup, std::allocator<Config::XmlGroup> > >, Config::XmlGroup*>
FUNC 603ad 1d 0 std::__niter_base<__gnu_cxx::__normal_iterator<const Config::XmlGroup*, std::vector<Config::XmlGroup, std::allocator<Config::XmlGroup> > >, true>::__b
FUNC 603ca 1d 0 std::__niter_base<__gnu_cxx::__normal_iterator<Config::XmlGroup*, std::vector<Config::XmlGroup, std::allocator<Config::XmlGroup> > >, true>::__b
FUNC 603e7 31 0 std::__copy_move_a<false, const Config::XmlGroup*, Config::XmlGroup*>
FUNC 60418 4b 0 std::_Destroy_aux<false>::__destroy<__gnu_cxx::__normal_iterator<Config::XmlGroup*, std::vector<Config::XmlGroup, std::allocator<Config::XmlGroup> > > >
FUNC 60463 e 0 std::__niter_base<Config::XmlGroup*, false>::__b
FUNC 60471 31 0 std::__copy_move_a<false, Config::XmlGroup*, Config::XmlGroup*>
FUNC 604a2 92 0 std::__uninitialized_copy<false>::uninitialized_copy<Config::XmlGroup*, Config::XmlGroup*>
FUNC 60534 5c 0 __gnu_cxx::new_allocator<Config::XmlParameter>::allocate
FUNC 60590 2d 0 std::uninitialized_copy<__gnu_cxx::__normal_iterator<const Config::XmlParameter*, std::vector<Config::XmlParameter, std::allocator<Config::XmlParameter> > >, Config::XmlParameter*>
FUNC 605bd 1d 0 std::__niter_base<__gnu_cxx::__normal_iterator<const Config::XmlParameter*, std::vector<Config::XmlParameter, std::allocator<Config::XmlParameter> > >, true>::__b
FUNC 605da 1d 0 std::__niter_base<__gnu_cxx::__normal_iterator<Config::XmlParameter*, std::vector<Config::XmlParameter, std::allocator<Config::XmlParameter> > >, true>::__b
FUNC 605f7 31 0 std::__copy_move_a<false, const Config::XmlParameter*, Config::XmlParameter*>
FUNC 60628 4b 0 std::_Destroy_aux<false>::__destroy<__gnu_cxx::__normal_iterator<Config::XmlParameter*, std::vector<Config::XmlParameter, std::allocator<Config::XmlParameter> > > >
FUNC 60673 e 0 std::__niter_base<Config::XmlParameter*, false>::__b
FUNC 60681 31 0 std::__copy_move_a<false, Config::XmlParameter*, Config::XmlParameter*>
FUNC 606b2 92 0 std::__uninitialized_copy<false>::uninitialized_copy<Config::XmlParameter*, Config::XmlParameter*>
FUNC 60744 53d 0 std::vector<char, std::allocator<char> >::_M_fill_insert
FUNC 60c81 45 0 rapidxml::xml_document<char>::skip<rapidxml::xml_document<char>::node_name_pred, 0>
FUNC 60cc6 2eb 0 rapidxml::xml_document<char>::parse_node_attributes<0>
FUNC 60fb2 18e 0 rapidxml::xml_document<char>::parse_node_contents<0>
FUNC 61140 2a 0 rapidxml::xml_base<char>::value
FUNC 6116a 26 0 rapidxml::xml_base<char>::value_size
FUNC 61190 3ca 0 rapidxml::internal::print_node<std::ostream_iterator<char, char, std::char_traits<char> >, char>
FUNC 6155a a 0 __gnu_cxx::new_allocator<Config::XmlGroup>::new_allocator
FUNC 61564 1a 0 std::_Destroy<Config::XmlGroup>
FUNC 6157e a 0 __gnu_cxx::new_allocator<Config::XmlParameter>::new_allocator
FUNC 61588 1a 0 std::_Destroy<Config::XmlParameter>
FUNC 615a2 a 0 __gnu_cxx::new_allocator<std::_Rb_tree_node<std::pair<const std::basic_string<char, std::char_traits<char>, std::allocator<char> >, Config::IntParameter> > >::new_allocator
FUNC 615ac e 0 std::_Rb_tree<std::basic_string<char, std::char_traits<char>, std::allocator<char> >, std::pair<const std::basic_string<char, std::char_traits<char>, std::allocator<char> >, Config::IntParameter>, std::_Select1st<std::pair<const std::basic_string<char, std::char_traits<char>, std::allocator<char> >, Config::IntParameter> >, std::less<std::basic_string<char, std::char_traits<char>, std::allocator<char> > >, std::allocator<std::pair<const std::basic_string<char, std::char_traits<char>, std::allocator<char> >, Config::IntParameter> > >::_M_get_Node_allocator
FUNC 615ba 1e 0 std::allocator<std::pair<const std::basic_string<char, std::char_traits<char>, std::allocator<char> >, Config::IntParameter> >::allocator<std::_Rb_tree_node<std::pair<const std::basic_string<char, std::char_traits<char>, std::allocator<char> >, Config::IntParameter> > >
FUNC 615d8 a 0 __gnu_cxx::new_allocator<std::pair<const std::basic_string<char, std::char_traits<char>, std::allocator<char> >, Config::IntParameter> >::~new_allocator
FUNC 615e2 22 0 __gnu_cxx::new_allocator<std::_Rb_tree_node<std::pair<const std::basic_string<char, std::char_traits<char>, std::allocator<char> >, Config::IntParameter> > >::deallocate
FUNC 61604 24 0 std::_Rb_tree<std::basic_string<char, std::char_traits<char>, std::allocator<char> >, std::pair<const std::basic_string<char, std::char_traits<char>, std::allocator<char> >, Config::IntParameter>, std::_Select1st<std::pair<const std::basic_string<char, std::char_traits<char>, std::allocator<char> >, Config::IntParameter> >, std::less<std::basic_string<char, std::char_traits<char>, std::allocator<char> > >, std::allocator<std::pair<const std::basic_string<char, std::char_traits<char>, std::allocator<char> >, Config::IntParameter> > >::_M_get_node
FUNC 61628 6b 0 std::pair<const std::basic_string<char, std::char_traits<char>, std::allocator<char> >, Config::IntParameter>::pair
FUNC 61694 77 0 __gnu_cxx::new_allocator<std::pair<const std::basic_string<char, std::char_traits<char>, std::allocator<char> >, Config::IntParameter> >::construct
FUNC 6170c a 0 __gnu_cxx::new_allocator<std::_Rb_tree_node<std::pair<const std::basic_string<char, std::char_traits<char>, std::allocator<char> >, Config::StringParameter> > >::new_allocator
FUNC 61716 e 0 std::_Rb_tree<std::basic_string<char, std::char_traits<char>, std::allocator<char> >, std::pair<const std::basic_string<char, std::char_traits<char>, std::allocator<char> >, Config::StringParameter>, std::_Select1st<std::pair<const std::basic_string<char, std::char_traits<char>, std::allocator<char> >, Config::StringParameter> >, std::less<std::basic_string<char, std::char_traits<char>, std::allocator<char> > >, std::allocator<std::pair<const std::basic_string<char, std::char_traits<char>, std::allocator<char> >, Config::StringParameter> > >::_M_get_Node_allocator
FUNC 61724 1e 0 std::allocator<std::pair<const std::basic_string<char, std::char_traits<char>, std::allocator<char> >, Config::StringParameter> >::allocator<std::_Rb_tree_node<std::pair<const std::basic_string<char, std::char_traits<char>, std::allocator<char> >, Config::StringParameter> > >
FUNC 61742 a 0 __gnu_cxx::new_allocator<std::pair<const std::basic_string<char, std::char_traits<char>, std::allocator<char> >, Config::StringParameter> >::~new_allocator
FUNC 6174c 22 0 __gnu_cxx::new_allocator<std::_Rb_tree_node<std::pair<const std::basic_string<char, std::char_traits<char>, std::allocator<char> >, Config::StringParameter> > >::deallocate
FUNC 6176e 24 0 std::_Rb_tree<std::basic_string<char, std::char_traits<char>, std::allocator<char> >, std::pair<const std::basic_string<char, std::char_traits<char>, std::allocator<char> >, Config::StringParameter>, std::_Select1st<std::pair<const std::basic_string<char, std::char_traits<char>, std::allocator<char> >, Config::StringParameter> >, std::less<std::basic_string<char, std::char_traits<char>, std::allocator<char> > >, std::allocator<std::pair<const std::basic_string<char, std::char_traits<char>, std::allocator<char> >, Config::StringParameter> > >::_M_get_node
FUNC 61792 6b 0 std::pair<const std::basic_string<char, std::char_traits<char>, std::allocator<char> >, Config::StringParameter>::pair
FUNC 617fe 77 0 __gnu_cxx::new_allocator<std::pair<const std::basic_string<char, std::char_traits<char>, std::allocator<char> >, Config::StringParameter> >::construct
FUNC 61876 14 0 __gnu_cxx::new_allocator<Config::XmlGroup>::max_size
FUNC 6188a ac 0 std::__uninitialized_copy<false>::uninitialized_copy<__gnu_cxx::__normal_iterator<const Config::XmlGroup*, std::vector<Config::XmlGroup, std::allocator<Config::XmlGroup> > >, Config::XmlGroup*>
FUNC 61936 e 0 __gnu_cxx::__normal_iterator<const Config::XmlGroup*, std::vector<Config::XmlGroup, std::allocator<Config::XmlGroup> > >::base
FUNC 61944 e 0 __gnu_cxx::__normal_iterator<Config::XmlGroup*, std::vector<Config::XmlGroup, std::allocator<Config::XmlGroup> > >::base
FUNC 61952 74 0 std::__copy_move<false, false, std::random_access_iterator_tag>::__copy_m<const Config::XmlGroup*, Config::XmlGroup*>
FUNC 619c6 3c 0 __gnu_cxx::operator!=<Config::XmlGroup*, std::vector<Config::XmlGroup, std::allocator<Config::XmlGroup> > >
FUNC 61a02 20 0 __gnu_cxx::__normal_iterator<Config::XmlGroup*, std::vector<Config::XmlGroup, std::allocator<Config::XmlGroup> > >::operator++
FUNC 61a22 11 0 __gnu_cxx::__normal_iterator<Config::XmlGroup*, std::vector<Config::XmlGroup, std::allocator<Config::XmlGroup> > >::operator*
FUNC 61a33 74 0 std::__copy_move<false, false, std::random_access_iterator_tag>::__copy_m<Config::XmlGroup*, Config::XmlGroup*>
FUNC 61aa8 a3 0 Config::XmlGroup::XmlGroup
FUNC 61b4b 73 0 std::_Construct<Config::XmlGroup, Config::XmlGroup>
FUNC 61bbe 14 0 __gnu_cxx::new_allocator<Config::XmlParameter>::max_size
FUNC 61bd2 ac 0 std::__uninitialized_copy<false>::uninitialized_copy<__gnu_cxx::__normal_iterator<const Config::XmlParameter*, std::vector<Config::XmlParameter, std::allocator<Config::XmlParameter> > >, Config::XmlParameter*>
FUNC 61c7e e 0 __gnu_cxx::__normal_iterator<const Config::XmlParameter*, std::vector<Config::XmlParameter, std::allocator<Config::XmlParameter> > >::base
FUNC 61c8c e 0 __gnu_cxx::__normal_iterator<Config::XmlParameter*, std::vector<Config::XmlParameter, std::allocator<Config::XmlParameter> > >::base
FUNC 61c9a cb 0 Config::XmlParameter::operator=
FUNC 61d65 74 0 std::__copy_move<false, false, std::random_access_iterator_tag>::__copy_m<const Config::XmlParameter*, Config::XmlParameter*>
FUNC 61dd9 3c 0 __gnu_cxx::operator!=<Config::XmlParameter*, std::vector<Config::XmlParameter, std::allocator<Config::XmlParameter> > >
FUNC 61e16 20 0 __gnu_cxx::__normal_iterator<Config::XmlParameter*, std::vector<Config::XmlParameter, std::allocator<Config::XmlParameter> > >::operator++
FUNC 61e36 11 0 __gnu_cxx::__normal_iterator<Config::XmlParameter*, std::vector<Config::XmlParameter, std::allocator<Config::XmlParameter> > >::operator*
FUNC 61e47 74 0 std::__copy_move<false, false, std::random_access_iterator_tag>::__copy_m<Config::XmlParameter*, Config::XmlParameter*>
FUNC 61ebc 186 0 Config::XmlParameter::XmlParameter
FUNC 62042 73 0 std::_Construct<Config::XmlParameter, Config::XmlParameter>
FUNC 620b5 42 0 __gnu_cxx::operator-<char*, std::vector<char, std::allocator<char> > >
FUNC 620f7 3b 0 std::__uninitialized_move_a<char*, char*, std::allocator<char> >
FUNC 62132 46 0 std::copy_backward<char*, char*>
FUNC 62178 46 0 std::fill<char*, char>
FUNC 621be ca 0 std::vector<char, std::allocator<char> >::_M_check_len
FUNC 62288 1b 0 rapidxml::xml_document<char>::node_name_pred::test
FUNC 622a3 1b 0 rapidxml::xml_document<char>::attribute_name_pred::test
FUNC 622be 45 0 rapidxml::xml_document<char>::skip<rapidxml::xml_document<char>::attribute_name_pred, 0>
FUNC 62304 e4 0 rapidxml::memory_pool<char>::allocate_attribute
FUNC 623e8 c6 0 rapidxml::xml_node<char>::append_attribute
FUNC 624ae 372 0 rapidxml::xml_document<char>::skip_and_expand_character_refs<rapidxml::xml_document<char>::attribute_value_pred<'\''>, rapidxml::xml_document<char>::attribute_value_pure_pred<'\''>, 0>
FUNC 62820 372 0 rapidxml::xml_document<char>::skip_and_expand_character_refs<rapidxml::xml_document<char>::attribute_value_pred<'\"'>, rapidxml::xml_document<char>::attribute_value_pure_pred<'\"'>, 0>
FUNC 62b92 100 0 rapidxml::xml_document<char>::parse_and_append_data<0>
FUNC 62c92 c9 0 rapidxml::internal::print_children<std::ostream_iterator<char, char, std::char_traits<char> >, char>
FUNC 62d5b 680 0 rapidxml::internal::print_element_node<std::ostream_iterator<char, char, std::char_traits<char> >, char>
FUNC 633db 121 0 rapidxml::internal::print_data_node<std::ostream_iterator<char, char, std::char_traits<char> >, char>
FUNC 634fc 32c 0 rapidxml::internal::print_cdata_node<std::ostream_iterator<char, char, std::char_traits<char> >, char>
FUNC 63828 204 0 rapidxml::internal::print_declaration_node<std::ostream_iterator<char, char, std::char_traits<char> >, char>
FUNC 63a2c 255 0 rapidxml::internal::print_comment_node<std::ostream_iterator<char, char, std::char_traits<char> >, char>
FUNC 63c81 301 0 rapidxml::internal::print_doctype_node<std::ostream_iterator<char, char, std::char_traits<char> >, char>
FUNC 63f82 2cb 0 rapidxml::internal::print_pi_node<std::ostream_iterator<char, char, std::char_traits<char> >, char>
FUNC 6424e e 0 std::ostream_iterator<char, char, std::char_traits<char> >::operator++
FUNC 6425c e 0 std::ostream_iterator<char, char, std::char_traits<char> >::operator*
FUNC 6426a 58 0 std::ostream_iterator<char, char, std::char_traits<char> >::operator=
FUNC 642c2 a 0 __gnu_cxx::new_allocator<std::pair<const std::basic_string<char, std::char_traits<char>, std::allocator<char> >, Config::IntParameter> >::new_allocator
FUNC 642cc 4e 0 __gnu_cxx::new_allocator<std::_Rb_tree_node<std::pair<const std::basic_string<char, std::char_traits<char>, std::allocator<char> >, Config::IntParameter> > >::allocate
FUNC 6431a a 0 __gnu_cxx::new_allocator<std::pair<const std::basic_string<char, std::char_traits<char>, std::allocator<char> >, Config::StringParameter> >::new_allocator
FUNC 64324 4e 0 __gnu_cxx::new_allocator<std::_Rb_tree_node<std::pair<const std::basic_string<char, std::char_traits<char>, std::allocator<char> >, Config::StringParameter> > >::allocate
FUNC 64372 3c 0 __gnu_cxx::operator!=<const Config::XmlGroup*, std::vector<Config::XmlGroup, std::allocator<Config::XmlGroup> > >
FUNC 643ae 20 0 __gnu_cxx::__normal_iterator<const Config::XmlGroup*, std::vector<Config::XmlGroup, std::allocator<Config::XmlGroup> > >::operator++
FUNC 643ce 11 0 __gnu_cxx::__normal_iterator<const Config::XmlGroup*, std::vector<Config::XmlGroup, std::allocator<Config::XmlGroup> > >::operator*
FUNC 643e0 b9 0 std::vector<Config::XmlGroup, std::allocator<Config::XmlGroup> >::vector
FUNC 6449a b9 0 std::vector<Config::XmlParameter, std::allocator<Config::XmlParameter> >::vector
FUNC 64553 3c 0 __gnu_cxx::operator!=<const Config::XmlParameter*, std::vector<Config::XmlParameter, std::allocator<Config::XmlParameter> > >
FUNC 64590 20 0 __gnu_cxx::__normal_iterator<const Config::XmlParameter*, std::vector<Config::XmlParameter, std::allocator<Config::XmlParameter> > >::operator++
FUNC 645b0 11 0 __gnu_cxx::__normal_iterator<const Config::XmlParameter*, std::vector<Config::XmlParameter, std::allocator<Config::XmlParameter> > >::operator*
FUNC 645c1 58 0 std::__copy_move_backward_a2<false, char*, char*>
FUNC 6461a 22 0 std::vector<char, std::allocator<char> >::max_size
FUNC 6463c 1a 0 rapidxml::xml_attribute<char>::xml_attribute
FUNC 64656 45 0 rapidxml::xml_document<char>::skip<rapidxml::xml_document<char>::attribute_value_pure_pred<'\''>, 0>
FUNC 6469b 1b 0 attribute_value_pred<'\''>::test
FUNC 646b6 1b1 0 rapidxml::xml_document<char>::insert_coded_character<0>
FUNC 64867 45 0 rapidxml::xml_document<char>::skip<rapidxml::xml_document<char>::attribute_value_pure_pred<'\"'>, 0>
FUNC 648ac 1b 0 attribute_value_pred<'\"'>::test
FUNC 648c7 372 0 rapidxml::xml_document<char>::skip_and_expand_character_refs<rapidxml::xml_document<char>::text_pred, rapidxml::xml_document<char>::text_pure_no_ws_pred, 0>
FUNC 64c39 79 0 rapidxml::internal::fill_chars<std::ostream_iterator<char, char, std::char_traits<char> >, char>
FUNC 64cb2 79 0 rapidxml::internal::copy_chars<std::ostream_iterator<char, char, std::char_traits<char> >, char>
FUNC 64d2b 3ac 0 rapidxml::internal::print_attributes<std::ostream_iterator<char, char, std::char_traits<char> >, char>
FUNC 650d7 53e 0 rapidxml::internal::copy_and_expand_chars<std::ostream_iterator<char, char, std::char_traits<char> >, char>
FUNC 65616 14 0 __gnu_cxx::new_allocator<std::_Rb_tree_node<std::pair<const std::basic_string<char, std::char_traits<char>, std::allocator<char> >, Config::IntParameter> > >::max_size
FUNC 6562a 14 0 __gnu_cxx::new_allocator<std::_Rb_tree_node<std::pair<const std::basic_string<char, std::char_traits<char>, std::allocator<char> >, Config::StringParameter> > >::max_size
FUNC 6563e e 0 std::_Vector_base<Config::XmlGroup, std::allocator<Config::XmlGroup> >::_M_get_Tp_allocator
FUNC 6564c a6 0 std::_Vector_base<Config::XmlGroup, std::allocator<Config::XmlGroup> >::_Vector_base
FUNC 656f2 e 0 std::_Vector_base<Config::XmlParameter, std::allocator<Config::XmlParameter> >::_M_get_Tp_allocator
FUNC 65700 a6 0 std::_Vector_base<Config::XmlParameter, std::allocator<Config::XmlParameter> >::_Vector_base
FUNC 657a6 31 0 std::__copy_move_backward_a<false, char*, char*>
FUNC 657d8 e 0 std::_Vector_base<char, std::allocator<char> >::_M_get_Tp_allocator
FUNC 657e6 1b 0 attribute_value_pure_pred<'\''>::test
FUNC 65801 1b 0 attribute_value_pure_pred<'\"'>::test
FUNC 6581c 1b 0 rapidxml::xml_document<char>::text_pred::test
FUNC 65837 45 0 rapidxml::xml_document<char>::skip<rapidxml::xml_document<char>::text_pure_no_ws_pred, 0>
FUNC 6587c 11 0 std::ostream_iterator<char, char, std::char_traits<char> >::operator++
FUNC 6588e d0 0 rapidxml::xml_attribute<char>::next_attribute
FUNC 6595e 40 0 rapidxml::internal::find_char<char, '\"'>
FUNC 6599e 48 0 std::_Vector_base<Config::XmlGroup, std::allocator<Config::XmlGroup> >::_Vector_impl::_Vector_impl
FUNC 659e6 48 0 std::_Vector_base<Config::XmlParameter, std::allocator<Config::XmlParameter> >::_Vector_impl::_Vector_impl
FUNC 65a2e 54 0 std::__copy_move_backward<false, true, std::random_access_iterator_tag>::__copy_move_b<char>
FUNC 65a82 1b 0 rapidxml::xml_document<char>::text_pure_no_ws_pred::test
FUNC 65a9e 25 0 std::allocator<Config::XmlGroup>::allocator
FUNC 65ac4 25 0 std::allocator<Config::XmlParameter>::allocator
FUNC 65aea e 0 __gnu_cxx::new_allocator<Config::XmlGroup>::new_allocator
FUNC 65af8 e 0 __gnu_cxx::new_allocator<Config::XmlParameter>::new_allocator
FUNC 65b06 3a 0 boost::detail::sp_counted_impl_p<Config::ConfigCenter>::~sp_counted_impl_p
FUNC 65b40 26 0 boost::detail::sp_counted_impl_p<Config::ConfigCenter>::~sp_counted_impl_p
FUNC 65b66 1e 0 boost::detail::sp_counted_impl_p<Config::ConfigCenter>::dispose
FUNC 65b84 13 0 boost::detail::sp_counted_impl_p<Config::ConfigCenter>::get_deleter
FUNC 65b9e 6c 0 boost::exception_detail::clone_impl<boost::exception_detail::error_info_injector<boost::condition_error> >::clone
FUNC 65c10 53 0 boost::exception_detail::clone_impl<boost::exception_detail::error_info_injector<boost::condition_error> >::rethrow
FUNC 65c64 e5 0 Config::IntParameter::IntParameter
FUNC 65d4a 113 0 Config::IntParameter::IntParameter
FUNC 65e5e 77 0 Config::IntParameter::~IntParameter
FUNC 65ed6 40 0 Config::IntParameter::get
FUNC 65f16 190 0 Config::IntParameter::set
FUNC 660a6 48e 0 Config::IntParameter::set
FUNC 66534 1d9 0 Config::IntParameter::setRange
FUNC 6670e 53 0 Config::IntParameter::setRange
FUNC 66762 8d 0 Config::IntParameter::registerWatcher
FUNC 667f0 7a 0 Config::IntParameter::unregisterWatcher
FUNC 6686a 181 0 __static_initialization_and_destruction_0
FUNC 669eb 15 0 _GLOBAL__I__ZN6Config12IntParameterC2ERKSs
FUNC 66a00 15 0 boost::function_base::function_base
FUNC 66a16 17 0 boost::function_base::empty
FUNC 66a2e 14 0 boost::function_base::has_trivial_copy_and_destroy
FUNC 66a42 ab 0 boost::bad_function_call::bad_function_call
FUNC 66aee f1 0 boost::shared_mutex::lock_upgrade
FUNC 66be0 70 0 boost::shared_mutex::unlock_upgrade
FUNC 66c50 d7 0 boost::shared_mutex::unlock_upgrade_and_lock
FUNC 66d28 64 0 boost::shared_mutex::unlock_and_lock_upgrade
FUNC 66d8c e 0 Config::IntParameter::_getName
FUNC 66d9a 1a 0 std::map<void*, boost::function<void(int)>, std::less<void*>, std::allocator<std::pair<void* const, boost::function<void(int)> > > >::~map
FUNC 66db4 76 0 std::runtime_error::runtime_error
FUNC 66e2a 3a 0 boost::bad_function_call::~bad_function_call
FUNC 66e64 26 0 boost::bad_function_call::~bad_function_call
FUNC 66e8a 1a 0 std::map<void*, boost::function<void(int)>, std::less<void*>, std::allocator<std::pair<void* const, boost::function<void(int)> > > >::map
FUNC 66ea4 1a 0 std::_Rb_tree<void*, std::pair<void* const, boost::function<void(int)> >, std::_Select1st<std::pair<void* const, boost::function<void(int)> > >, std::less<void*>, std::allocator<std::pair<void* const, boost::function<void(int)> > > >::_Rb_tree_impl<std::less<void*>, false>::~_Rb_tree_impl
FUNC 66ebe 63 0 std::_Rb_tree<void*, std::pair<void* const, boost::function<void(int)> >, std::_Select1st<std::pair<void* const, boost::function<void(int)> > >, std::less<void*>, std::allocator<std::pair<void* const, boost::function<void(int)> > > >::~_Rb_tree
FUNC 66f22 31 0 boost::upgrade_lock<boost::shared_mutex>::upgrade_lock
FUNC 66f54 2d 0 boost::upgrade_lock<boost::shared_mutex>::~upgrade_lock
FUNC 66f82 52 0 boost::upgrade_to_unique_lock<boost::shared_mutex>::upgrade_to_unique_lock
FUNC 66fd4 91 0 boost::upgrade_to_unique_lock<boost::shared_mutex>::~upgrade_to_unique_lock
FUNC 67066 1a 0 std::map<void*, boost::function<void(int)>, std::less<void*>, std::allocator<std::pair<void* const, boost::function<void(int)> > > >::begin
FUNC 67080 1a 0 std::map<void*, boost::function<void(int)>, std::less<void*>, std::allocator<std::pair<void* const, boost::function<void(int)> > > >::end
FUNC 6709a 22 0 std::_Rb_tree_iterator<std::pair<void* const, boost::function<void(int)> > >::operator!=
FUNC 670bc 36 0 std::_Rb_tree_iterator<std::pair<void* const, boost::function<void(int)> > >::operator++
FUNC 670f2 15 0 std::_Rb_tree_iterator<std::pair<void* const, boost::function<void(int)> > >::operator->
FUNC 67108 84 0 boost::function1<void, int>::operator()
FUNC 6718c 1a 0 boost::function<void(int)>::~function
FUNC 671a6 1e 0 std::pair<void* const, boost::function<void(int)> >::~pair
FUNC 671c4 161 0 std::map<void*, boost::function<void(int)>, std::less<void*>, std::allocator<std::pair<void* const, boost::function<void(int)> > > >::operator[]
FUNC 67326 73 0 boost::function<void(int)>::operator=
FUNC 6739a 25 0 std::map<void*, boost::function<void(int)>, std::less<void*>, std::allocator<std::pair<void* const, boost::function<void(int)> > > >::erase
FUNC 673c0 30 0 boost::bad_function_call::bad_function_call
FUNC 673f0 80 0 boost::exception_detail::error_info_injector<boost::bad_function_call>::error_info_injector
FUNC 67470 63 0 boost::exception_detail::clone_impl<boost::exception_detail::error_info_injector<boost::bad_function_call> >::clone_impl
FUNC 674d3 a2 0 boost::throw_exception<boost::bad_function_call>
FUNC 67576 1a 0 std::_Rb_tree<void*, std::pair<void* const, boost::function<void(int)> >, std::_Select1st<std::pair<void* const, boost::function<void(int)> > >, std::less<void*>, std::allocator<std::pair<void* const, boost::function<void(int)> > > >::_Rb_tree
FUNC 67590 1a 0 std::allocator<std::_Rb_tree_node<std::pair<void* const, boost::function<void(int)> > > >::~allocator
FUNC 675aa 69 0 std::_Rb_tree<void*, std::pair<void* const, boost::function<void(int)> >, std::_Select1st<std::pair<void* const, boost::function<void(int)> > >, std::less<void*>, std::allocator<std::pair<void* const, boost::function<void(int)> > > >::_M_erase
FUNC 67614 12 0 std::_Rb_tree<void*, std::pair<void* const, boost::function<void(int)> >, std::_Select1st<std::pair<void* const, boost::function<void(int)> > >, std::less<void*>, std::allocator<std::pair<void* const, boost::function<void(int)> > > >::_M_begin
FUNC 67626 76 0 boost::upgrade_lock<boost::shared_mutex>::lock
FUNC 6769c 12 0 boost::upgrade_lock<boost::shared_mutex>::owns_lock
FUNC 676ae 19 0 boost::detail::thread_move_t<boost::upgrade_lock<boost::shared_mutex> >::thread_move_t
FUNC 676c7 e 0 boost::move<boost::upgrade_lock<boost::shared_mutex> >
FUNC 676d6 6a 0 boost::unique_lock<boost::shared_mutex>::unique_lock
FUNC 67740 19 0 boost::detail::thread_move_t<boost::unique_lock<boost::shared_mutex> >::thread_move_t
FUNC 67759 e 0 boost::move<boost::unique_lock<boost::shared_mutex> >
FUNC 67768 74 0 boost::upgrade_lock<boost::shared_mutex>::operator=
FUNC 677dc 2c 0 std::_Rb_tree<void*, std::pair<void* const, boost::function<void(int)> >, std::_Select1st<std::pair<void* const, boost::function<void(int)> > >, std::less<void*>, std::allocator<std::pair<void* const, boost::function<void(int)> > > >::begin
FUNC 67808 2c 0 std::_Rb_tree<void*, std::pair<void* const, boost::function<void(int)> >, std::_Select1st<std::pair<void* const, boost::function<void(int)> > >, std::less<void*>, std::allocator<std::pair<void* const, boost::function<void(int)> > > >::end
FUNC 67834 15 0 boost::function1<void, int>::get_vtable
FUNC 6784a 25 0 std::map<void*, boost::function<void(int)>, std::less<void*>, std::allocator<std::pair<void* const, boost::function<void(int)> > > >::lower_bound
FUNC 67870 1a 0 std::map<void*, boost::function<void(int)>, std::less<void*>, std::allocator<std::pair<void* const, boost::function<void(int)> > > >::key_comp
FUNC 6788a 15 0 std::_Rb_tree_iterator<std::pair<void* const, boost::function<void(int)> > >::operator*
FUNC 678a0 26 0 std::less<void*>::operator()
FUNC 678c6 22 0 std::_Rb_tree_iterator<std::pair<void* const, boost::function<void(int)> > >::operator==
FUNC 678e8 1a 0 boost::function<void(int)>::function
FUNC 67902 1a 0 boost::function1<void, int>::~function1
FUNC 6791c 3b 0 std::pair<void* const, boost::function<void(int)> >::pair
FUNC 67958 40 0 std::map<void*, boost::function<void(int)>, std::less<void*>, std::allocator<std::pair<void* const, boost::function<void(int)> > > >::insert
FUNC 67998 25 0 boost::function<void(int)>::function
FUNC 679be 9b 0 boost::function1<void, int>::swap
FUNC 67a5a 83 0 std::_Rb_tree<void*, std::pair<void* const, boost::function<void(int)> >, std::_Select1st<std::pair<void* const, boost::function<void(int)> > >, std::less<void*>, std::allocator<std::pair<void* const, boost::function<void(int)> > > >::erase
FUNC 67add 2f 0 boost::enable_error_info<boost::bad_function_call>
FUNC 67b0c 93 0 boost::exception_detail::error_info_injector<boost::bad_function_call>::~error_info_injector
FUNC 67bae 26 0 boost::exception_detail::error_info_injector<boost::bad_function_call>::~error_info_injector
FUNC 67bd4 2f 0 boost::enable_current_exception<boost::exception_detail::error_info_injector<boost::bad_function_call> >
FUNC 67c04 7a 0 boost::exception_detail::clone_impl<boost::exception_detail::error_info_injector<boost::bad_function_call> >::~clone_impl
FUNC 67c9c 26 0 boost::exception_detail::clone_impl<boost::exception_detail::error_info_injector<boost::bad_function_call> >::~clone_impl
FUNC 67cc2 61 0 std::_Rb_tree<void*, std::pair<void* const, boost::function<void(int)> >, std::_Select1st<std::pair<void* const, boost::function<void(int)> > >, std::less<void*>, std::allocator<std::pair<void* const, boost::function<void(int)> > > >::_Rb_tree_impl<std::less<void*>, false>::_Rb_tree_impl
FUNC 67d24 a 0 __gnu_cxx::new_allocator<std::_Rb_tree_node<std::pair<void* const, boost::function<void(int)> > > >::~new_allocator
FUNC 67d2e 12 0 std::_Rb_tree<void*, std::pair<void* const, boost::function<void(int)> >, std::_Select1st<std::pair<void* const, boost::function<void(int)> > >, std::less<void*>, std::allocator<std::pair<void* const, boost::function<void(int)> > > >::_S_right
FUNC 67d40 12 0 std::_Rb_tree<void*, std::pair<void* const, boost::function<void(int)> >, std::_Select1st<std::pair<void* const, boost::function<void(int)> > >, std::less<void*>, std::allocator<std::pair<void* const, boost::function<void(int)> > > >::_S_left
FUNC 67d52 86 0 std::_Rb_tree<void*, std::pair<void* const, boost::function<void(int)> >, std::_Select1st<std::pair<void* const, boost::function<void(int)> > >, std::less<void*>, std::allocator<std::pair<void* const, boost::function<void(int)> > > >::_M_destroy_node
FUNC 67dd8 11 0 boost::detail::thread_move_t<boost::upgrade_lock<boost::shared_mutex> >::operator->
FUNC 67dea 7d 0 boost::upgrade_lock<boost::shared_mutex>::upgrade_lock
FUNC 67e68 40 0 boost::upgrade_lock<boost::shared_mutex>::swap
FUNC 67ea8 19 0 std::_Rb_tree_iterator<std::pair<void* const, boost::function<void(int)> > >::_Rb_tree_iterator
FUNC 67ec2 53 0 std::_Rb_tree<void*, std::pair<void* const, boost::function<void(int)> >, std::_Select1st<std::pair<void* const, boost::function<void(int)> > >, std::less<void*>, std::allocator<std::pair<void* const, boost::function<void(int)> > > >::lower_bound
FUNC 67f16 a 0 std::_Rb_tree<void*, std::pair<void* const, boost::function<void(int)> >, std::_Select1st<std::pair<void* const, boost::function<void(int)> > >, std::less<void*>, std::allocator<std::pair<void* const, boost::function<void(int)> > > >::key_comp
FUNC 67f20 a 0 std::unary_function<int, void>::unary_function
FUNC 67f2a 26 0 boost::function1<void, int>::function1
FUNC 67f50 5d 0 boost::function1<void, int>::clear
FUNC 67fae 1c 0 std::_Rb_tree_const_iterator<std::pair<void* const, boost::function<void(int)> > >::_Rb_tree_const_iterator
FUNC 67fca 4c0 0 std::_Rb_tree<void*, std::pair<void* const, boost::function<void(int)> >, std::_Select1st<std::pair<void* const, boost::function<void(int)> > >, std::less<void*>, std::allocator<std::pair<void* const, boost::function<void(int)> > > >::_M_insert_unique_
FUNC 6848a 3d 0 boost::function1<void, int>::function1
FUNC 684c8 f5 0 boost::function1<void, int>::move_assign
FUNC 685be 204 0 std::_Rb_tree<void*, std::pair<void* const, boost::function<void(int)> >, std::_Select1st<std::pair<void* const, boost::function<void(int)> > >, std::less<void*>, std::allocator<std::pair<void* const, boost::function<void(int)> > > >::equal_range
FUNC 687c2 12 0 std::_Rb_tree<void*, std::pair<void* const, boost::function<void(int)> >, std::_Select1st<std::pair<void* const, boost::function<void(int)> > >, std::less<void*>, std::allocator<std::pair<void* const, boost::function<void(int)> > > >::size
FUNC 687d4 bc 0 std::_Rb_tree<void*, std::pair<void* const, boost::function<void(int)> >, std::_Select1st<std::pair<void* const, boost::function<void(int)> > >, std::less<void*>, std::allocator<std::pair<void* const, boost::function<void(int)> > > >::erase
FUNC 68890 4c 0 boost::exception_detail::error_info_injector<boost::bad_function_call>::error_info_injector
FUNC 688dc b9 0 boost::exception_detail::clone_impl<boost::exception_detail::error_info_injector<boost::bad_function_call> >::clone_impl
FUNC 68996 1a 0 std::allocator<std::_Rb_tree_node<std::pair<void* const, boost::function<void(int)> > > >::allocator
FUNC 689b0 41 0 std::_Rb_tree<void*, std::pair<void* const, boost::function<void(int)> >, std::_Select1st<std::pair<void* const, boost::function<void(int)> > >, std::less<void*>, std::allocator<std::pair<void* const, boost::function<void(int)> > > >::_Rb_tree_impl<std::less<void*>, false>::_M_initialize
FUNC 689f2 3b 0 std::_Rb_tree<void*, std::pair<void* const, boost::function<void(int)> >, std::_Select1st<std::pair<void* const, boost::function<void(int)> > >, std::less<void*>, std::allocator<std::pair<void* const, boost::function<void(int)> > > >::get_allocator
FUNC 68a2e 1a 0 std::allocator<std::pair<void* const, boost::function<void(int)> > >::~allocator
FUNC 68a48 1e 0 __gnu_cxx::new_allocator<std::pair<void* const, boost::function<void(int)> > >::destroy
FUNC 68a66 2a 0 std::_Rb_tree<void*, std::pair<void* const, boost::function<void(int)> >, std::_Select1st<std::pair<void* const, boost::function<void(int)> > >, std::less<void*>, std::allocator<std::pair<void* const, boost::function<void(int)> > > >::_M_put_node
FUNC 68a90 11 0 boost::detail::thread_move_t<boost::unique_lock<boost::shared_mutex> >::operator->
FUNC 68aa1 32 0 std::swap<boost::shared_mutex*>
FUNC 68ad4 12 0 std::_Rb_tree<void*, std::pair<void* const, boost::function<void(int)> >, std::_Select1st<std::pair<void* const, boost::function<void(int)> > >, std::less<void*>, std::allocator<std::pair<void* const, boost::function<void(int)> > > >::_M_end
FUNC 68ae6 92 0 std::_Rb_tree<void*, std::pair<void* const, boost::function<void(int)> >, std::_Select1st<std::pair<void* const, boost::function<void(int)> > >, std::less<void*>, std::allocator<std::pair<void* const, boost::function<void(int)> > > >::_M_lower_bound
FUNC 68b78 40 0 boost::detail::function::basic_vtable1<void, int>::clear
FUNC 68bb8 12 0 std::_Rb_tree<void*, std::pair<void* const, boost::function<void(int)> >, std::_Select1st<std::pair<void* const, boost::function<void(int)> > >, std::less<void*>, std::allocator<std::pair<void* const, boost::function<void(int)> > > >::_M_rightmost
FUNC 68bca 2c 0 std::_Rb_tree<void*, std::pair<void* const, boost::function<void(int)> >, std::_Select1st<std::pair<void* const, boost::function<void(int)> > >, std::less<void*>, std::allocator<std::pair<void* const, boost::function<void(int)> > > >::_S_key
FUNC 68bf6 12 0 std::_Select1st<std::pair<void* const, boost::function<void(int)> > >::operator()
FUNC 68c08 e3 0 std::_Rb_tree<void*, std::pair<void* const, boost::function<void(int)> >, std::_Select1st<std::pair<void* const, boost::function<void(int)> > >, std::less<void*>, std::allocator<std::pair<void* const, boost::function<void(int)> > > >::_M_insert_
FUNC 68cec 271 0 std::_Rb_tree<void*, std::pair<void* const, boost::function<void(int)> >, std::_Select1st<std::pair<void* const, boost::function<void(int)> > >, std::less<void*>, std::allocator<std::pair<void* const, boost::function<void(int)> > > >::_M_insert_unique
FUNC 68f5e 12 0 std::_Rb_tree<void*, std::pair<void* const, boost::function<void(int)> >, std::_Select1st<std::pair<void* const, boost::function<void(int)> > >, std::less<void*>, std::allocator<std::pair<void* const, boost::function<void(int)> > > >::_M_leftmost
FUNC 68f70 28 0 std::_Rb_tree_const_iterator<std::pair<void* const, boost::function<void(int)> > >::operator--
FUNC 68f98 12 0 std::_Rb_tree<void*, std::pair<void* const, boost::function<void(int)> >, std::_Select1st<std::pair<void* const, boost::function<void(int)> > >, std::less<void*>, std::allocator<std::pair<void* const, boost::function<void(int)> > > >::_S_right
FUNC 68faa 28 0 std::_Rb_tree_const_iterator<std::pair<void* const, boost::function<void(int)> > >::operator++
FUNC 68fd2 97 0 boost::function1<void, int>::assign_to_own
FUNC 69069 2c 0 std::_Rb_tree<void*, std::pair<void* const, boost::function<void(int)> >, std::_Select1st<std::pair<void* const, boost::function<void(int)> > >, std::less<void*>, std::allocator<std::pair<void* const, boost::function<void(int)> > > >::_S_key
FUNC 69096 8f 0 std::_Rb_tree<void*, std::pair<void* const, boost::function<void(int)> >, std::_Select1st<std::pair<void* const, boost::function<void(int)> > >, std::less<void*>, std::allocator<std::pair<void* const, boost::function<void(int)> > > >::_M_upper_bound
FUNC 69126 2f 0 std::pair<std::_Rb_tree_iterator<std::pair<void* const, boost::function<void(int)> > >, std::_Rb_tree_iterator<std::pair<void* const, boost::function<void(int)> > > >::pair
FUNC 69156 8d 0 std::_Rb_tree<void*, std::pair<void* const, boost::function<void(int)> >, std::_Select1st<std::pair<void* const, boost::function<void(int)> > >, std::less<void*>, std::allocator<std::pair<void* const, boost::function<void(int)> > > >::clear
FUNC 691e4 54 0 std::_Rb_tree<void*, std::pair<void* const, boost::function<void(int)> >, std::_Select1st<std::pair<void* const, boost::function<void(int)> > >, std::less<void*>, std::allocator<std::pair<void* const, boost::function<void(int)> > > >::erase
FUNC 69238 a 0 __gnu_cxx::new_allocator<std::_Rb_tree_node<std::pair<void* const, boost::function<void(int)> > > >::new_allocator
FUNC 69242 e 0 std::_Rb_tree<void*, std::pair<void* const, boost::function<void(int)> >, std::_Select1st<std::pair<void* const, boost::function<void(int)> > >, std::less<void*>, std::allocator<std::pair<void* const, boost::function<void(int)> > > >::_M_get_Node_allocator
FUNC 69250 1e 0 std::allocator<std::pair<void* const, boost::function<void(int)> > >::allocator<std::_Rb_tree_node<std::pair<void* const, boost::function<void(int)> > > >
FUNC 6926e a 0 __gnu_cxx::new_allocator<std::pair<void* const, boost::function<void(int)> > >::~new_allocator
FUNC 69278 22 0 __gnu_cxx::new_allocator<std::_Rb_tree_node<std::pair<void* const, boost::function<void(int)> > > >::deallocate
FUNC 6929a 12 0 std::_Rb_tree<void*, std::pair<void* const, boost::function<void(int)> >, std::_Select1st<std::pair<void* const, boost::function<void(int)> > >, std::less<void*>, std::allocator<std::pair<void* const, boost::function<void(int)> > > >::_S_value
FUNC 692ac bb 0 std::_Rb_tree<void*, std::pair<void* const, boost::function<void(int)> >, std::_Select1st<std::pair<void* const, boost::function<void(int)> > >, std::less<void*>, std::allocator<std::pair<void* const, boost::function<void(int)> > > >::_M_create_node
FUNC 69368 2e 0 std::pair<std::_Rb_tree_iterator<std::pair<void* const, boost::function<void(int)> > >, bool>::pair
FUNC 69396 28 0 std::_Rb_tree_iterator<std::pair<void* const, boost::function<void(int)> > >::operator--
FUNC 693be 12 0 std::_Rb_tree<void*, std::pair<void* const, boost::function<void(int)> >, std::_Select1st<std::pair<void* const, boost::function<void(int)> > >, std::less<void*>, std::allocator<std::pair<void* const, boost::function<void(int)> > > >::_S_value
FUNC 693d0 12 0 std::_Rb_tree<void*, std::pair<void* const, boost::function<void(int)> >, std::_Select1st<std::pair<void* const, boost::function<void(int)> > >, std::less<void*>, std::allocator<std::pair<void* const, boost::function<void(int)> > > >::_M_root
FUNC 693e2 a 0 __gnu_cxx::new_allocator<std::pair<void* const, boost::function<void(int)> > >::new_allocator
FUNC 693ec 24 0 std::_Rb_tree<void*, std::pair<void* const, boost::function<void(int)> >, std::_Select1st<std::pair<void* const, boost::function<void(int)> > >, std::less<void*>, std::allocator<std::pair<void* const, boost::function<void(int)> > > >::_M_get_node
FUNC 69410 3b 0 std::pair<void* const, boost::function<void(int)> >::pair
FUNC 6944c 77 0 __gnu_cxx::new_allocator<std::pair<void* const, boost::function<void(int)> > >::construct
FUNC 694c4 55 0 __gnu_cxx::new_allocator<std::_Rb_tree_node<std::pair<void* const, boost::function<void(int)> > > >::allocate
FUNC 6951a 14 0 __gnu_cxx::new_allocator<std::_Rb_tree_node<std::pair<void* const, boost::function<void(int)> > > >::max_size
FUNC 69534 6c 0 boost::exception_detail::clone_impl<boost::exception_detail::error_info_injector<boost::bad_function_call> >::clone
FUNC 695a6 53 0 boost::exception_detail::clone_impl<boost::exception_detail::error_info_injector<boost::bad_function_call> >::rethrow
FUNC 695fc e9 0 Config::StringParameter::StringParameter
FUNC 696e6 103 0 Config::StringParameter::StringParameter
FUNC 697ea a6 0 Config::StringParameter::~StringParameter
FUNC 69890 7b 0 Config::StringParameter::get
FUNC 6990c 2a1 0 Config::StringParameter::set
FUNC 69bae 8d 0 Config::StringParameter::registerWatcher
FUNC 69c3c 7a 0 Config::StringParameter::unregisterWatcher
FUNC 69cb6 181 0 __static_initialization_and_destruction_0
FUNC 69e37 15 0 _GLOBAL__I__ZN6Config15StringParameterC2ERKSs
FUNC 69e4c 2d 0 std::char_traits<char>::compare
FUNC 69e7a e 0 Config::StringParameter::_getName
FUNC 69e88 1a 0 std::map<void*, boost::function<void(const std::string&)>, std::less<void*>, std::allocator<std::pair<void* const, boost::function<void(const std::string&)> > > >::~map
FUNC 69ea2 1a 0 std::map<void*, boost::function<void(const std::string&)>, std::less<void*>, std::allocator<std::pair<void* const, boost::function<void(const std::string&)> > > >::map
FUNC 69ebc 1a 0 std::_Rb_tree<void*, std::pair<void* const, boost::function<void(const std::string&)> >, std::_Select1st<std::pair<void* const, boost::function<void(const std::string&)> > >, std::less<void*>, std::allocator<std::pair<void* const, boost::function<void(const std::string&)> > > >::_Rb_tree_impl<std::less<void*>, false>::~_Rb_tree_impl
FUNC 69ed6 63 0 std::_Rb_tree<void*, std::pair<void* const, boost::function<void(const std::string&)> >, std::_Select1st<std::pair<void* const, boost::function<void(const std::string&)> > >, std::less<void*>, std::allocator<std::pair<void* const, boost::function<void(const std::string&)> > > >::~_Rb_tree
FUNC 69f39 84 0 std::operator==<char>
FUNC 69fbe 1a 0 std::map<void*, boost::function<void(const std::string&)>, std::less<void*>, std::allocator<std::pair<void* const, boost::function<void(const std::string&)> > > >::begin
FUNC 69fd8 1a 0 std::map<void*, boost::function<void(const std::string&)>, std::less<void*>, std::allocator<std::pair<void* const, boost::function<void(const std::string&)> > > >::end
FUNC 69ff2 22 0 std::_Rb_tree_iterator<std::pair<void* const, boost::function<void(const std::string&)> > >::operator!=
FUNC 6a014 36 0 std::_Rb_tree_iterator<std::pair<void* const, boost::function<void(const std::string&)> > >::operator++
FUNC 6a04a 15 0 std::_Rb_tree_iterator<std::pair<void* const, boost::function<void(const std::string&)> > >::operator->
FUNC 6a060 87 0 boost::function1<void, const std::string&>::operator()
FUNC 6a0e8 1a 0 boost::function<void(const std::string&)>::~function
FUNC 6a102 1e 0 std::pair<void* const, boost::function<void(const std::string&)> >::~pair
FUNC 6a120 161 0 std::map<void*, boost::function<void(const std::string&)>, std::less<void*>, std::allocator<std::pair<void* const, boost::function<void(const std::string&)> > > >::operator[]
FUNC 6a282 73 0 boost::function<void(const std::string&)>::operator=
FUNC 6a2f6 25 0 std::map<void*, boost::function<void(const std::string&)>, std::less<void*>, std::allocator<std::pair<void* const, boost::function<void(const std::string&)> > > >::erase
FUNC 6a31c 1a 0 std::_Rb_tree<void*, std::pair<void* const, boost::function<void(const std::string&)> >, std::_Select1st<std::pair<void* const, boost::function<void(const std::string&)> > >, std::less<void*>, std::allocator<std::pair<void* const, boost::function<void(const std::string&)> > > >::_Rb_tree
FUNC 6a336 1a 0 std::allocator<std::_Rb_tree_node<std::pair<void* const, boost::function<void(const std::string&)> > > >::~allocator
FUNC 6a350 69 0 std::_Rb_tree<void*, std::pair<void* const, boost::function<void(const std::string&)> >, std::_Select1st<std::pair<void* const, boost::function<void(const std::string&)> > >, std::less<void*>, std::allocator<std::pair<void* const, boost::function<void(const std::string&)> > > >::_M_erase
FUNC 6a3ba 12 0 std::_Rb_tree<void*, std::pair<void* const, boost::function<void(const std::string&)> >, std::_Select1st<std::pair<void* const, boost::function<void(const std::string&)> > >, std::less<void*>, std::allocator<std::pair<void* const, boost::function<void(const std::string&)> > > >::_M_begin
FUNC 6a3cc 2c 0 std::_Rb_tree<void*, std::pair<void* const, boost::function<void(const std::string&)> >, std::_Select1st<std::pair<void* const, boost::function<void(const std::string&)> > >, std::less<void*>, std::allocator<std::pair<void* const, boost::function<void(const std::string&)> > > >::begin
FUNC 6a3f8 2c 0 std::_Rb_tree<void*, std::pair<void* const, boost::function<void(const std::string&)> >, std::_Select1st<std::pair<void* const, boost::function<void(const std::string&)> > >, std::less<void*>, std::allocator<std::pair<void* const, boost::function<void(const std::string&)> > > >::end
FUNC 6a424 15 0 boost::function1<void, const std::string&>::get_vtable
FUNC 6a43a 25 0 std::map<void*, boost::function<void(const std::string&)>, std::less<void*>, std::allocator<std::pair<void* const, boost::function<void(const std::string&)> > > >::lower_bound
FUNC 6a460 1a 0 std::map<void*, boost::function<void(const std::string&)>, std::less<void*>, std::allocator<std::pair<void* const, boost::function<void(const std::string&)> > > >::key_comp
FUNC 6a47a 15 0 std::_Rb_tree_iterator<std::pair<void* const, boost::function<void(const std::string&)> > >::operator*
FUNC 6a490 22 0 std::_Rb_tree_iterator<std::pair<void* const, boost::function<void(const std::string&)> > >::operator==
FUNC 6a4b2 1a 0 boost::function<void(const std::string&)>::function
FUNC 6a4cc 1a 0 boost::function1<void, const std::string&>::~function1
FUNC 6a4e6 3b 0 std::pair<void* const, boost::function<void(const std::string&)> >::pair
FUNC 6a522 40 0 std::map<void*, boost::function<void(const std::string&)>, std::less<void*>, std::allocator<std::pair<void* const, boost::function<void(const std::string&)> > > >::insert
FUNC 6a562 25 0 boost::function<void(const std::string&)>::function
FUNC 6a588 9b 0 boost::function1<void, const std::string&>::swap
FUNC 6a624 83 0 std::_Rb_tree<void*, std::pair<void* const, boost::function<void(const std::string&)> >, std::_Select1st<std::pair<void* const, boost::function<void(const std::string&)> > >, std::less<void*>, std::allocator<std::pair<void* const, boost::function<void(const std::string&)> > > >::erase
FUNC 6a6a8 61 0 std::_Rb_tree<void*, std::pair<void* const, boost::function<void(const std::string&)> >, std::_Select1st<std::pair<void* const, boost::function<void(const std::string&)> > >, std::less<void*>, std::allocator<std::pair<void* const, boost::function<void(const std::string&)> > > >::_Rb_tree_impl<std::less<void*>, false>::_Rb_tree_impl
FUNC 6a70a a 0 __gnu_cxx::new_allocator<std::_Rb_tree_node<std::pair<void* const, boost::function<void(const std::string&)> > > >::~new_allocator
FUNC 6a714 12 0 std::_Rb_tree<void*, std::pair<void* const, boost::function<void(const std::string&)> >, std::_Select1st<std::pair<void* const, boost::function<void(const std::string&)> > >, std::less<void*>, std::allocator<std::pair<void* const, boost::function<void(const std::string&)> > > >::_S_right
FUNC 6a726 12 0 std::_Rb_tree<void*, std::pair<void* const, boost::function<void(const std::string&)> >, std::_Select1st<std::pair<void* const, boost::function<void(const std::string&)> > >, std::less<void*>, std::allocator<std::pair<void* const, boost::function<void(const std::string&)> > > >::_S_left
FUNC 6a738 86 0 std::_Rb_tree<void*, std::pair<void* const, boost::function<void(const std::string&)> >, std::_Select1st<std::pair<void* const, boost::function<void(const std::string&)> > >, std::less<void*>, std::allocator<std::pair<void* const, boost::function<void(const std::string&)> > > >::_M_destroy_node
FUNC 6a7be 19 0 std::_Rb_tree_iterator<std::pair<void* const, boost::function<void(const std::string&)> > >::_Rb_tree_iterator
FUNC 6a7d8 53 0 std::_Rb_tree<void*, std::pair<void* const, boost::function<void(const std::string&)> >, std::_Select1st<std::pair<void* const, boost::function<void(const std::string&)> > >, std::less<void*>, std::allocator<std::pair<void* const, boost::function<void(const std::string&)> > > >::lower_bound
FUNC 6a82c a 0 std::_Rb_tree<void*, std::pair<void* const, boost::function<void(const std::string&)> >, std::_Select1st<std::pair<void* const, boost::function<void(const std::string&)> > >, std::less<void*>, std::allocator<std::pair<void* const, boost::function<void(const std::string&)> > > >::key_comp
FUNC 6a836 a 0 std::unary_function<const std::string&, void>::unary_function
FUNC 6a840 26 0 boost::function1<void, const std::string&>::function1
FUNC 6a866 5d 0 boost::function1<void, const std::string&>::clear
FUNC 6a8c4 1c 0 std::_Rb_tree_const_iterator<std::pair<void* const, boost::function<void(const std::string&)> > >::_Rb_tree_const_iterator
FUNC 6a8e0 4c0 0 std::_Rb_tree<void*, std::pair<void* const, boost::function<void(const std::string&)> >, std::_Select1st<std::pair<void* const, boost::function<void(const std::string&)> > >, std::less<void*>, std::allocator<std::pair<void* const, boost::function<void(const std::string&)> > > >::_M_insert_unique_
FUNC 6ada0 3d 0 boost::function1<void, const std::string&>::function1
FUNC 6adde f5 0 boost::function1<void, const std::string&>::move_assign
FUNC 6aed4 204 0 std::_Rb_tree<void*, std::pair<void* const, boost::function<void(const std::string&)> >, std::_Select1st<std::pair<void* const, boost::function<void(const std::string&)> > >, std::less<void*>, std::allocator<std::pair<void* const, boost::function<void(const std::string&)> > > >::equal_range
FUNC 6b0d8 12 0 std::_Rb_tree<void*, std::pair<void* const, boost::function<void(const std::string&)> >, std::_Select1st<std::pair<void* const, boost::function<void(const std::string&)> > >, std::less<void*>, std::allocator<std::pair<void* const, boost::function<void(const std::string&)> > > >::size
FUNC 6b0ea bc 0 std::_Rb_tree<void*, std::pair<void* const, boost::function<void(const std::string&)> >, std::_Select1st<std::pair<void* const, boost::function<void(const std::string&)> > >, std::less<void*>, std::allocator<std::pair<void* const, boost::function<void(const std::string&)> > > >::erase
FUNC 6b1a6 1a 0 std::allocator<std::_Rb_tree_node<std::pair<void* const, boost::function<void(const std::string&)> > > >::allocator
FUNC 6b1c0 41 0 std::_Rb_tree<void*, std::pair<void* const, boost::function<void(const std::string&)> >, std::_Select1st<std::pair<void* const, boost::function<void(const std::string&)> > >, std::less<void*>, std::allocator<std::pair<void* const, boost::function<void(const std::string&)> > > >::_Rb_tree_impl<std::less<void*>, false>::_M_initialize
FUNC 6b202 3b 0 std::_Rb_tree<void*, std::pair<void* const, boost::function<void(const std::string&)> >, std::_Select1st<std::pair<void* const, boost::function<void(const std::string&)> > >, std::less<void*>, std::allocator<std::pair<void* const, boost::function<void(const std::string&)> > > >::get_allocator
FUNC 6b23e 1a 0 std::allocator<std::pair<void* const, boost::function<void(const std::string&)> > >::~allocator
FUNC 6b258 1e 0 __gnu_cxx::new_allocator<std::pair<void* const, boost::function<void(const std::string&)> > >::destroy
FUNC 6b276 2a 0 std::_Rb_tree<void*, std::pair<void* const, boost::function<void(const std::string&)> >, std::_Select1st<std::pair<void* const, boost::function<void(const std::string&)> > >, std::less<void*>, std::allocator<std::pair<void* const, boost::function<void(const std::string&)> > > >::_M_put_node
FUNC 6b2a0 12 0 std::_Rb_tree<void*, std::pair<void* const, boost::function<void(const std::string&)> >, std::_Select1st<std::pair<void* const, boost::function<void(const std::string&)> > >, std::less<void*>, std::allocator<std::pair<void* const, boost::function<void(const std::string&)> > > >::_M_end
FUNC 6b2b2 92 0 std::_Rb_tree<void*, std::pair<void* const, boost::function<void(const std::string&)> >, std::_Select1st<std::pair<void* const, boost::function<void(const std::string&)> > >, std::less<void*>, std::allocator<std::pair<void* const, boost::function<void(const std::string&)> > > >::_M_lower_bound
FUNC 6b344 40 0 boost::detail::function::basic_vtable1<void, const std::string&>::clear
FUNC 6b384 12 0 std::_Rb_tree<void*, std::pair<void* const, boost::function<void(const std::string&)> >, std::_Select1st<std::pair<void* const, boost::function<void(const std::string&)> > >, std::less<void*>, std::allocator<std::pair<void* const, boost::function<void(const std::string&)> > > >::_M_rightmost
FUNC 6b396 2c 0 std::_Rb_tree<void*, std::pair<void* const, boost::function<void(const std::string&)> >, std::_Select1st<std::pair<void* const, boost::function<void(const std::string&)> > >, std::less<void*>, std::allocator<std::pair<void* const, boost::function<void(const std::string&)> > > >::_S_key
FUNC 6b3c2 12 0 std::_Select1st<std::pair<void* const, boost::function<void(const std::string&)> > >::operator()
FUNC 6b3d4 e3 0 std::_Rb_tree<void*, std::pair<void* const, boost::function<void(const std::string&)> >, std::_Select1st<std::pair<void* const, boost::function<void(const std::string&)> > >, std::less<void*>, std::allocator<std::pair<void* const, boost::function<void(const std::string&)> > > >::_M_insert_
FUNC 6b4b8 271 0 std::_Rb_tree<void*, std::pair<void* const, boost::function<void(const std::string&)> >, std::_Select1st<std::pair<void* const, boost::function<void(const std::string&)> > >, std::less<void*>, std::allocator<std::pair<void* const, boost::function<void(const std::string&)> > > >::_M_insert_unique
FUNC 6b72a 12 0 std::_Rb_tree<void*, std::pair<void* const, boost::function<void(const std::string&)> >, std::_Select1st<std::pair<void* const, boost::function<void(const std::string&)> > >, std::less<void*>, std::allocator<std::pair<void* const, boost::function<void(const std::string&)> > > >::_M_leftmost
FUNC 6b73c 28 0 std::_Rb_tree_const_iterator<std::pair<void* const, boost::function<void(const std::string&)> > >::operator--
FUNC 6b764 12 0 std::_Rb_tree<void*, std::pair<void* const, boost::function<void(const std::string&)> >, std::_Select1st<std::pair<void* const, boost::function<void(const std::string&)> > >, std::less<void*>, std::allocator<std::pair<void* const, boost::function<void(const std::string&)> > > >::_S_right
FUNC 6b776 28 0 std::_Rb_tree_const_iterator<std::pair<void* const, boost::function<void(const std::string&)> > >::operator++
FUNC 6b79e 97 0 boost::function1<void, const std::string&>::assign_to_own
FUNC 6b835 2c 0 std::_Rb_tree<void*, std::pair<void* const, boost::function<void(const std::string&)> >, std::_Select1st<std::pair<void* const, boost::function<void(const std::string&)> > >, std::less<void*>, std::allocator<std::pair<void* const, boost::function<void(const std::string&)> > > >::_S_key
FUNC 6b862 8f 0 std::_Rb_tree<void*, std::pair<void* const, boost::function<void(const std::string&)> >, std::_Select1st<std::pair<void* const, boost::function<void(const std::string&)> > >, std::less<void*>, std::allocator<std::pair<void* const, boost::function<void(const std::string&)> > > >::_M_upper_bound
FUNC 6b8f2 2f 0 std::pair<std::_Rb_tree_iterator<std::pair<void* const, boost::function<void(const std::string&)> > >, std::_Rb_tree_iterator<std::pair<void* const, boost::function<void(const std::string&)> > > >::pair
FUNC 6b922 8d 0 std::_Rb_tree<void*, std::pair<void* const, boost::function<void(const std::string&)> >, std::_Select1st<std::pair<void* const, boost::function<void(const std::string&)> > >, std::less<void*>, std::allocator<std::pair<void* const, boost::function<void(const std::string&)> > > >::clear
FUNC 6b9b0 54 0 std::_Rb_tree<void*, std::pair<void* const, boost::function<void(const std::string&)> >, std::_Select1st<std::pair<void* const, boost::function<void(const std::string&)> > >, std::less<void*>, std::allocator<std::pair<void* const, boost::function<void(const std::string&)> > > >::erase
FUNC 6ba04 a 0 __gnu_cxx::new_allocator<std::_Rb_tree_node<std::pair<void* const, boost::function<void(const std::string&)> > > >::new_allocator
FUNC 6ba0e e 0 std::_Rb_tree<void*, std::pair<void* const, boost::function<void(const std::string&)> >, std::_Select1st<std::pair<void* const, boost::function<void(const std::string&)> > >, std::less<void*>, std::allocator<std::pair<void* const, boost::function<void(const std::string&)> > > >::_M_get_Node_allocator
FUNC 6ba1c 1e 0 std::allocator<std::pair<void* const, boost::function<void(const std::string&)> > >::allocator<std::_Rb_tree_node<std::pair<void* const, boost::function<void(const std::string&)> > > >
FUNC 6ba3a a 0 __gnu_cxx::new_allocator<std::pair<void* const, boost::function<void(const std::string&)> > >::~new_allocator
FUNC 6ba44 22 0 __gnu_cxx::new_allocator<std::_Rb_tree_node<std::pair<void* const, boost::function<void(const std::string&)> > > >::deallocate
FUNC 6ba66 12 0 std::_Rb_tree<void*, std::pair<void* const, boost::function<void(const std::string&)> >, std::_Select1st<std::pair<void* const, boost::function<void(const std::string&)> > >, std::less<void*>, std::allocator<std::pair<void* const, boost::function<void(const std::string&)> > > >::_S_value
FUNC 6ba78 bb 0 std::_Rb_tree<void*, std::pair<void* const, boost::function<void(const std::string&)> >, std::_Select1st<std::pair<void* const, boost::function<void(const std::string&)> > >, std::less<void*>, std::allocator<std::pair<void* const, boost::function<void(const std::string&)> > > >::_M_create_node
FUNC 6bb34 2e 0 std::pair<std::_Rb_tree_iterator<std::pair<void* const, boost::function<void(const std::string&)> > >, bool>::pair
FUNC 6bb62 28 0 std::_Rb_tree_iterator<std::pair<void* const, boost::function<void(const std::string&)> > >::operator--
FUNC 6bb8a 12 0 std::_Rb_tree<void*, std::pair<void* const, boost::function<void(const std::string&)> >, std::_Select1st<std::pair<void* const, boost::function<void(const std::string&)> > >, std::less<void*>, std::allocator<std::pair<void* const, boost::function<void(const std::string&)> > > >::_S_value
FUNC 6bb9c 12 0 std::_Rb_tree<void*, std::pair<void* const, boost::function<void(const std::string&)> >, std::_Select1st<std::pair<void* const, boost::function<void(const std::string&)> > >, std::less<void*>, std::allocator<std::pair<void* const, boost::function<void(const std::string&)> > > >::_M_root
FUNC 6bbae a 0 __gnu_cxx::new_allocator<std::pair<void* const, boost::function<void(const std::string&)> > >::new_allocator
FUNC 6bbb8 24 0 std::_Rb_tree<void*, std::pair<void* const, boost::function<void(const std::string&)> >, std::_Select1st<std::pair<void* const, boost::function<void(const std::string&)> > >, std::less<void*>, std::allocator<std::pair<void* const, boost::function<void(const std::string&)> > > >::_M_get_node
FUNC 6bbdc 3b 0 std::pair<void* const, boost::function<void(const std::string&)> >::pair
FUNC 6bc18 77 0 __gnu_cxx::new_allocator<std::pair<void* const, boost::function<void(const std::string&)> > >::construct
FUNC 6bc90 55 0 __gnu_cxx::new_allocator<std::_Rb_tree_node<std::pair<void* const, boost::function<void(const std::string&)> > > >::allocate
FUNC 6bce6 14 0 __gnu_cxx::new_allocator<std::_Rb_tree_node<std::pair<void* const, boost::function<void(const std::string&)> > > >::max_size
FUNC 6bcfc 88e 0 Config::XmlGroup::parse
FUNC 6c58a 250 0 Config::XmlGroup::genNode
FUNC 6c7da 61c 0 Config::XmlGroup::convertToMap
FUNC 6cdf6 383 0 Config::XmlGroup::refreshFromMap
FUNC 6d179 257 0 __static_initialization_and_destruction_0
FUNC 6d3d0 15 0 _GLOBAL__I__ZN6Config8XmlGroup9GROUP_TAGE
FUNC 6d3e6 139 0 Config::XmlParameter::XmlParameter
FUNC 6d520 e 0 Config::XmlParameter::getName
FUNC 6d52e 12 0 Config::XmlParameter::getId
FUNC 6d540 12 0 Config::XmlParameter::getValueType
FUNC 6d552 12 0 Config::XmlParameter::getValueRange
FUNC 6d564 12 0 Config::XmlParameter::getValue
FUNC 6d576 29 0 Config::XmlParameter::setValue
FUNC 6d5a0 55 0 std::pair<std::basic_string<char, std::char_traits<char>, std::allocator<char> >, Config::IntParameter>::~pair
FUNC 6d5f6 55 0 std::pair<std::basic_string<char, std::char_traits<char>, std::allocator<char> >, Config::StringParameter>::~pair
FUNC 6d64c 7a 0 std::vector<Config::XmlGroup, std::allocator<Config::XmlGroup> >::push_back
FUNC 6d6c6 7a 0 std::vector<Config::XmlParameter, std::allocator<Config::XmlParameter> >::push_back
FUNC 6d740 3e 0 __gnu_cxx::__normal_iterator<Config::XmlGroup*, std::vector<Config::XmlGroup, std::allocator<Config::XmlGroup> > >::operator++
FUNC 6d77e 11 0 __gnu_cxx::__normal_iterator<Config::XmlGroup*, std::vector<Config::XmlGroup, std::allocator<Config::XmlGroup> > >::operator->
FUNC 6d790 3e 0 __gnu_cxx::__normal_iterator<Config::XmlParameter*, std::vector<Config::XmlParameter, std::allocator<Config::XmlParameter> > >::operator++
FUNC 6d7ce 11 0 __gnu_cxx::__normal_iterator<Config::XmlParameter*, std::vector<Config::XmlParameter, std::allocator<Config::XmlParameter> > >::operator->
FUNC 6d7e0 6b 0 std::pair<std::basic_string<char, std::char_traits<char>, std::allocator<char> >, Config::IntParameter>::pair
FUNC 6d84c 6b 0 std::pair<const std::basic_string<char, std::char_traits<char>, std::allocator<char> >, Config::IntParameter>::pair<std::basic_string<char, std::char_traits<char>, std::allocator<char> >, Config::IntParameter>
FUNC 6d8b8 6b 0 std::pair<std::basic_string<char, std::char_traits<char>, std::allocator<char> >, Config::StringParameter>::pair
FUNC 6d924 6b 0 std::pair<const std::basic_string<char, std::char_traits<char>, std::allocator<char> >, Config::StringParameter>::pair<std::basic_string<char, std::char_traits<char>, std::allocator<char> >, Config::StringParameter>
FUNC 6d990 77 0 __gnu_cxx::new_allocator<Config::XmlGroup>::construct
FUNC 6da08 3e6 0 std::vector<Config::XmlGroup, std::allocator<Config::XmlGroup> >::_M_insert_aux
FUNC 6ddee 77 0 __gnu_cxx::new_allocator<Config::XmlParameter>::construct
FUNC 6de66 3e6 0 std::vector<Config::XmlParameter, std::allocator<Config::XmlParameter> >::_M_insert_aux
FUNC 6e24c 46 0 std::copy_backward<Config::XmlGroup*, Config::XmlGroup*>
FUNC 6e292 ca 0 std::vector<Config::XmlGroup, std::allocator<Config::XmlGroup> >::_M_check_len
FUNC 6e35c 57 0 __gnu_cxx::operator-<Config::XmlGroup*, std::vector<Config::XmlGroup, std::allocator<Config::XmlGroup> > >
FUNC 6e3b3 3b 0 std::__uninitialized_move_a<Config::XmlGroup*, Config::XmlGroup*, std::allocator<Config::XmlGroup> >
FUNC 6e3ee 1e 0 __gnu_cxx::new_allocator<Config::XmlGroup>::destroy
FUNC 6e40c 46 0 std::copy_backward<Config::XmlParameter*, Config::XmlParameter*>
FUNC 6e452 ca 0 std::vector<Config::XmlParameter, std::allocator<Config::XmlParameter> >::_M_check_len
FUNC 6e51c 57 0 __gnu_cxx::operator-<Config::XmlParameter*, std::vector<Config::XmlParameter, std::allocator<Config::XmlParameter> > >
FUNC 6e573 3b 0 std::__uninitialized_move_a<Config::XmlParameter*, Config::XmlParameter*, std::allocator<Config::XmlParameter> >
FUNC 6e5ae 1e 0 __gnu_cxx::new_allocator<Config::XmlParameter>::destroy
FUNC 6e5cc 58 0 std::__copy_move_backward_a2<false, Config::XmlGroup*, Config::XmlGroup*>
FUNC 6e624 22 0 std::vector<Config::XmlGroup, std::allocator<Config::XmlGroup> >::max_size
FUNC 6e646 58 0 std::__copy_move_backward_a2<false, Config::XmlParameter*, Config::XmlParameter*>
FUNC 6e69e 22 0 std::vector<Config::XmlParameter, std::allocator<Config::XmlParameter> >::max_size
FUNC 6e6c0 31 0 std::__copy_move_backward_a<false, Config::XmlGroup*, Config::XmlGroup*>
FUNC 6e6f1 31 0 std::__copy_move_backward_a<false, Config::XmlParameter*, Config::XmlParameter*>
FUNC 6e722 74 0 std::__copy_move_backward<false, false, std::random_access_iterator_tag>::__copy_move_b<Config::XmlGroup*, Config::XmlGroup*>
FUNC 6e796 74 0 std::__copy_move_backward<false, false, std::random_access_iterator_tag>::__copy_move_b<Config::XmlParameter*, Config::XmlParameter*>
FUNC 6e80c 5ed 0 Config::XmlParameter::parse
FUNC 6edfa 29f 0 Config::XmlParameter::genNode
FUNC 6f09a d8 0 Config::XmlParameter::setValue
FUNC 6f172 587 0 __static_initialization_and_destruction_0
FUNC 6f6f9 15 0 _GLOBAL__I__ZN6Config12XmlParameter13PARAMETER_TAGE
FUNC 6f710 550 0 WgjXml::WgjXml
FUNC 6fc60 581 0 WgjXml::~WgjXml
FUNC 701e2 6c 0 WgjXml::LoadXml
FUNC 7024e a1 0 WgjXml::Get_Point61850
FUNC 702f0 1f1 0 WgjXml::GetTransmitChannel
FUNC 704e2 96 0 WgjXml::Get_61850
FUNC 70578 1b8 0 WgjXml::GetRedisConnectionConfig
FUNC 70730 db 0 WgjXml::GetCollectionRedisInfo
FUNC 7080c 72 0 WgjXml::GetPcapConfigInfo
FUNC 7087e 6b 0 WgjXml::GetAllChannelName
FUNC 708ea f2 0 WgjXml::GetParseConfigInfo
FUNC 709dc be 0 WgjXml::GetIEC61850ServerPoint
FUNC 70a9a 85 0 WgjXml::InitIEC103Xml
FUNC 70b20 36 0 WgjXml::GetIEC103Param
FUNC 70b56 36 0 WgjXml::GetIEC103Point
FUNC 70b8c bf 0 WgjXml::GetIEC104WFPoint
FUNC 70c4c 89 0 WgjXml::GetIEC104WFParam
FUNC 70cd6 89 0 WgjXml::Get61850IP
FUNC 70d60 732 0 WgjXml::parse_61850
FUNC 71492 68e 0 WgjXml::parse_Iec104
FUNC 71b20 55e 0 WgjXml::parse_Iec104Param
FUNC 7207e 452 0 WgjXml::parse_Iec103
FUNC 724d0 215 0 WgjXml::find_RedisInfo
FUNC 726e6 178 0 WgjXml::get_AllChannel
FUNC 7285e 62a 0 WgjXml::getParseConfigInfo
FUNC 72e88 2b0 0 WgjXml::GetDataStorageConfig
FUNC 73138 487 0 WgjXml::getPcapConfigInfo
FUNC 735c0 35d 0 WgjXml::getIEC61850ServerPoint
FUNC 7391e 314 0 WgjXml::parse_61850IP
FUNC 73c32 40 0 __static_initialization_and_destruction_0
FUNC 73c72 15 0 _GLOBAL__I__ZN6WgjXmlC2Ev
FUNC 73c88 1a 0 TiXmlString::~TiXmlString
FUNC 73ca2 15 0 TiXmlString::c_str
FUNC 73cb8 38 0 TiXmlString::quit
FUNC 73cf0 1e 0 TiXmlNode::Value
FUNC 73d0e 1a 0 TiXmlNode::NextSiblingElement
FUNC 73d28 1a 0 TiXmlNode::FirstChildElement
FUNC 73d42 18 0 TiXmlNode::NoChildren
FUNC 73d5a 4a 0 TiXmlDocument::~TiXmlDocument
FUNC 73da4 26 0 TiXmlDocument::~TiXmlDocument
FUNC 73dca 1a 0 TiXmlDocument::RootElement
FUNC 73de4 1a 0 std::map<std::basic_string<char, std::char_traits<char>, std::allocator<char> >, IEC61850_STRUCT::IED_61850, std::less<std::basic_string<char, std::char_traits<char>, std::allocator<char> > >, std::allocator<std::pair<const std::basic_string<char, std::char_traits<char>, std::allocator<char> >, IEC61850_STRUCT::IED_61850> > >::~map
FUNC 73dfe 139 0 IEC61850_STRUCT::IED_61850::IED_61850
FUNC 73f38 140 0 IEC61850_STRUCT::IED_61850::~IED_61850
FUNC 74078 1a 0 std::list<std::basic_string<char, std::char_traits<char>, std::allocator<char> >, std::allocator<std::basic_string<char, std::char_traits<char>, std::allocator<char> > > >::~list
FUNC 74092 1a 0 std::map<std::basic_string<char, std::char_traits<char>, std::allocator<char> >, std::map<int, std::map<int, IEC104WF::stPointTable, std::less<int>, std::allocator<std::pair<const int, IEC104WF::stPointTable> > >, std::less<int>, std::allocator<std::pair<const int, std::map<int, IEC104WF::stPointTable, std::less<int>, std::allocator<std::pair<const int, IEC104WF::stPointTable> > > > > >, std::less<std::basic_string<char, std::char_traits<char>, std::allocator<char> > >, std::allocator<std::pair<const std::basic_string<char, std::char_traits<char>, std::allocator<char> >, std::map<int, std::map<int, IEC104WF::stPointTable, std::less<int>, std::allocator<std::pair<const int, IEC104WF::stPointTable> > >, std::less<int>, std::allocator<std::pair<const int, std::map<int, IEC104WF::stPointTable, std::less<int>, std::allocator<std::pair<const int, IEC104WF::stPointTable> > > > > > > > >::~map
FUNC 740ac 1a 0 std::map<int, std::map<int, IEC104WF::stPointTable, std::less<int>, std::allocator<std::pair<const int, IEC104WF::stPointTable> > >, std::less<int>, std::allocator<std::pair<const int, std::map<int, IEC104WF::stPointTable, std::less<int>, std::allocator<std::pair<const int, IEC104WF::stPointTable> > > > > >::~map
FUNC 740c6 1a 0 std::map<int, IEC104WF::stPointTable, std::less<int>, std::allocator<std::pair<const int, IEC104WF::stPointTable> > >::~map
FUNC 740e0 1a 0 IEC104WF::stPointTable::stPointTable
FUNC 740fa 1a 0 IEC104WF::stPointTable::~stPointTable
FUNC 74114 82 0 IEC103::stConfigParam::stConfigParam
FUNC 74196 121 0 IEC61850_STRUCT::IED_61850::operator=
FUNC 742b8 45 0 IEC104WF::stPointTable::operator=
FUNC 742fe 7b 0 IEC103::stConfigParam::operator=
FUNC 7437a 1a 0 std::map<std::basic_string<char, std::char_traits<char>, std::allocator<char> >, IEC61850_STRUCT::IED_61850, std::less<std::basic_string<char, std::char_traits<char>, std::allocator<char> > >, std::allocator<std::pair<const std::basic_string<char, std::char_traits<char>, std::allocator<char> >, IEC61850_STRUCT::IED_61850> > >::map
FUNC 74394 1a 0 std::_Rb_tree<std::basic_string<char, std::char_traits<char>, std::allocator<char> >, std::pair<const std::basic_string<char, std::char_traits<char>, std::allocator<char> >, IEC61850_STRUCT::IED_61850>, std::_Select1st<std::pair<const std::basic_string<char, std::char_traits<char>, std::allocator<char> >, IEC61850_STRUCT::IED_61850> >, std::less<std::basic_string<char, std::char_traits<char>, std::allocator<char> > >, std::allocator<std::pair<const std::basic_string<char, std::char_traits<char>, std::allocator<char> >, IEC61850_STRUCT::IED_61850> > >::_Rb_tree_impl<std::less<std::basic_string<char, std::char_traits<char>, std::allocator<char> > >, false>::~_Rb_tree_impl
FUNC 743ae 63 0 std::_Rb_tree<std::basic_string<char, std::char_traits<char>, std::allocator<char> >, std::pair<const std::basic_string<char, std::char_traits<char>, std::allocator<char> >, IEC61850_STRUCT::IED_61850>, std::_Select1st<std::pair<const std::basic_string<char, std::char_traits<char>, std::allocator<char> >, IEC61850_STRUCT::IED_61850> >, std::less<std::basic_string<char, std::char_traits<char>, std::allocator<char> > >, std::allocator<std::pair<const std::basic_string<char, std::char_traits<char>, std::allocator<char> >, IEC61850_STRUCT::IED_61850> > >::~_Rb_tree
FUNC 74412 1a 0 std::list<std::basic_string<char, std::char_traits<char>, std::allocator<char> >, std::allocator<std::basic_string<char, std::char_traits<char>, std::allocator<char> > > >::list
FUNC 7442c 1a 0 std::_List_base<std::basic_string<char, std::char_traits<char>, std::allocator<char> >, std::allocator<std::basic_string<char, std::char_traits<char>, std::allocator<char> > > >::_List_impl::~_List_impl
FUNC 74446 51 0 std::_List_base<std::basic_string<char, std::char_traits<char>, std::allocator<char> >, std::allocator<std::basic_string<char, std::char_traits<char>, std::allocator<char> > > >::~_List_base
FUNC 74498 1a 0 std::map<std::basic_string<char, std::char_traits<char>, std::allocator<char> >, std::map<int, std::map<int, IEC104WF::stPointTable, std::less<int>, std::allocator<std::pair<const int, IEC104WF::stPointTable> > >, std::less<int>, std::allocator<std::pair<const int, std::map<int, IEC104WF::stPointTable, std::less<int>, std::allocator<std::pair<const int, IEC104WF::stPointTable> > > > > >, std::less<std::basic_string<char, std::char_traits<char>, std::allocator<char> > >, std::allocator<std::pair<const std::basic_string<char, std::char_traits<char>, std::allocator<char> >, std::map<int, std::map<int, IEC104WF::stPointTable, std::less<int>, std::allocator<std::pair<const int, IEC104WF::stPointTable> > >, std::less<int>, std::allocator<std::pair<const int, std::map<int, IEC104WF::stPointTable, std::less<int>, std::allocator<std::pair<const int, IEC104WF::stPointTable> > > > > > > > >::map
FUNC 744b2 1a 0 std::_Rb_tree<std::basic_string<char, std::char_traits<char>, std::allocator<char> >, std::pair<const std::basic_string<char, std::char_traits<char>, std::allocator<char> >, std::map<int, std::map<int, IEC104WF::stPointTable, std::less<int>, std::allocator<std::pair<const int, IEC104WF::stPointTable> > >, std::less<int>, std::allocator<std::pair<const int, std::map<int, IEC104WF::stPointTable, std::less<int>, std::allocator<std::pair<const int, IEC104WF::stPointTable> > > > > > >, std::_Select1st<std::pair<const std::basic_string<char, std::char_traits<char>, std::allocator<char> >, std::map<int, std::map<int, IEC104WF::stPointTable, std::less<int>, std::allocator<std::pair<const int, IEC104WF::stPointTable> > >, std::less<int>, std::allocator<std::pair<const int, std::map<int, IEC104WF::stPointTable, std::less<int>, std::allocator<std::pair<const int, IEC104WF::stPointTable> > > > > > > >, std::less<std::basic_string<char, std::char_traits<char>, std::allocator<char> > >, std::allocator<std::pair<const std::basic_string<char, std::char_traits<char>, std::allocator<char> >, std::map<int, std::map<int, IEC104WF::stPointTable, std::less<int>, std::allocator<std::pair<const int, IEC104WF::stPointTable> > >, std::less<int>, std::allocator<std::pair<const int, std::map<int, IEC104WF::stPointTable, std::less<int>, std::allocator<std::pair<const int, IEC104WF::stPointTable> > > > > > > > >::_Rb_tree_impl<std::less<std::basic_string<char, std::char_traits<char>, std::allocator<char> > >, false>::~_Rb_tree_impl
FUNC 744cc 63 0 std::_Rb_tree<std::basic_string<char, std::char_traits<char>, std::allocator<char> >, std::pair<const std::basic_string<char, std::char_traits<char>, std::allocator<char> >, std::map<int, std::map<int, IEC104WF::stPointTable, std::less<int>, std::allocator<std::pair<const int, IEC104WF::stPointTable> > >, std::less<int>, std::allocator<std::pair<const int, std::map<int, IEC104WF::stPointTable, std::less<int>, std::allocator<std::pair<const int, IEC104WF::stPointTable> > > > > > >, std::_Select1st<std::pair<const std::basic_string<char, std::char_traits<char>, std::allocator<char> >, std::map<int, std::map<int, IEC104WF::stPointTable, std::less<int>, std::allocator<std::pair<const int, IEC104WF::stPointTable> > >, std::less<int>, std::allocator<std::pair<const int, std::map<int, IEC104WF::stPointTable, std::less<int>, std::allocator<std::pair<const int, IEC104WF::stPointTable> > > > > > > >, std::less<std::basic_string<char, std::char_traits<char>, std::allocator<char> > >, std::allocator<std::pair<const std::basic_string<char, std::char_traits<char>, std::allocator<char> >, std::map<int, std::map<int, IEC104WF::stPointTable, std::less<int>, std::allocator<std::pair<const int, IEC104WF::stPointTable> > >, std::less<int>, std::allocator<std::pair<const int, std::map<int, IEC104WF::stPointTable, std::less<int>, std::allocator<std::pair<const int, IEC104WF::stPointTable> > > > > > > > >::~_Rb_tree
FUNC 74530 1a 0 std::map<int, std::map<int, IEC104WF::stPointTable, std::less<int>, std::allocator<std::pair<const int, IEC104WF::stPointTable> > >, std::less<int>, std::allocator<std::pair<const int, std::map<int, IEC104WF::stPointTable, std::less<int>, std::allocator<std::pair<const int, IEC104WF::stPointTable> > > > > >::map
FUNC 7454a 1a 0 std::_Rb_tree<int, std::pair<const int, std::map<int, IEC104WF::stPointTable, std::less<int>, std::allocator<std::pair<const int, IEC104WF::stPointTable> > > >, std::_Select1st<std::pair<const int, std::map<int, IEC104WF::stPointTable, std::less<int>, std::allocator<std::pair<const int, IEC104WF::stPointTable> > > > >, std::less<int>, std::allocator<std::pair<const int, std::map<int, IEC104WF::stPointTable, std::less<int>, std::allocator<std::pair<const int, IEC104WF::stPointTable> > > > > >::_Rb_tree_impl<std::less<int>, false>::~_Rb_tree_impl
FUNC 74564 63 0 std::_Rb_tree<int, std::pair<const int, std::map<int, IEC104WF::stPointTable, std::less<int>, std::allocator<std::pair<const int, IEC104WF::stPointTable> > > >, std::_Select1st<std::pair<const int, std::map<int, IEC104WF::stPointTable, std::less<int>, std::allocator<std::pair<const int, IEC104WF::stPointTable> > > > >, std::less<int>, std::allocator<std::pair<const int, std::map<int, IEC104WF::stPointTable, std::less<int>, std::allocator<std::pair<const int, IEC104WF::stPointTable> > > > > >::~_Rb_tree
FUNC 745c8 1a 0 std::map<int, IEC104WF::stPointTable, std::less<int>, std::allocator<std::pair<const int, IEC104WF::stPointTable> > >::map
FUNC 745e2 1a 0 std::_Rb_tree<int, std::pair<const int, IEC104WF::stPointTable>, std::_Select1st<std::pair<const int, IEC104WF::stPointTable> >, std::less<int>, std::allocator<std::pair<const int, IEC104WF::stPointTable> > >::_Rb_tree_impl<std::less<int>, false>::~_Rb_tree_impl
FUNC 745fc 63 0 std::_Rb_tree<int, std::pair<const int, IEC104WF::stPointTable>, std::_Select1st<std::pair<const int, IEC104WF::stPointTable> >, std::less<int>, std::allocator<std::pair<const int, IEC104WF::stPointTable> > >::~_Rb_tree
FUNC 74660 1a 0 std::map<std::basic_string<char, std::char_traits<char>, std::allocator<char> >, IEC103::stConfigParam, std::less<std::basic_string<char, std::char_traits<char>, std::allocator<char> > >, std::allocator<std::pair<const std::basic_string<char, std::char_traits<char>, std::allocator<char> >, IEC103::stConfigParam> > >::map
FUNC 7467a 1a 0 std::map<std::basic_string<char, std::char_traits<char>, std::allocator<char> >, std::map<std::basic_string<char, std::char_traits<char>, std::allocator<char> >, std::basic_string<char, std::char_traits<char>, std::allocator<char> >, std::less<std::basic_string<char, std::char_traits<char>, std::allocator<char> > >, std::allocator<std::pair<const std::basic_string<char, std::char_traits<char>, std::allocator<char> >, std::basic_string<char, std::char_traits<char>, std::allocator<char> > > > >, std::less<std::basic_string<char, std::char_traits<char>, std::allocator<char> > >, std::allocator<std::pair<const std::basic_string<char, std::char_traits<char>, std::allocator<char> >, std::map<std::basic_string<char, std::char_traits<char>, std::allocator<char> >, std::basic_string<char, std::char_traits<char>, std::allocator<char> >, std::less<std::basic_string<char, std::char_traits<char>, std::allocator<char> > >, std::allocator<std::pair<const std::basic_string<char, std::char_traits<char>, std::allocator<char> >, std::basic_string<char, std::char_traits<char>, std::allocator<char> > > > > > > >::map
FUNC 74694 1a 0 std::map<std::basic_string<char, std::char_traits<char>, std::allocator<char> >, IEC61850_STRUCT::IED_61850, std::less<std::basic_string<char, std::char_traits<char>, std::allocator<char> > >, std::allocator<std::pair<const std::basic_string<char, std::char_traits<char>, std::allocator<char> >, IEC61850_STRUCT::IED_61850> > >::clear
FUNC 746ae 25 0 std::map<std::basic_string<char, std::char_traits<char>, std::allocator<char> >, IEC61850_STRUCT::IED_61850, std::less<std::basic_string<char, std::char_traits<char>, std::allocator<char> > >, std::allocator<std::pair<const std::basic_string<char, std::char_traits<char>, std::allocator<char> >, IEC61850_STRUCT::IED_61850> > >::map
FUNC 746d3 2a 0 std::operator==<char, std::char_traits<char>, std::allocator<char> >
FUNC 746fe 1a 0 std::map<std::basic_string<char, std::char_traits<char>, std::allocator<char> >, IEC103::stConfigParam, std::less<std::basic_string<char, std::char_traits<char>, std::allocator<char> > >, std::allocator<std::pair<const std::basic_string<char, std::char_traits<char>, std::allocator<char> >, IEC103::stConfigParam> > >::clear
FUNC 74718 1a 0 std::map<std::basic_string<char, std::char_traits<char>, std::allocator<char> >, std::map<std::basic_string<char, std::char_traits<char>, std::allocator<char> >, std::basic_string<char, std::char_traits<char>, std::allocator<char> >, std::less<std::basic_string<char, std::char_traits<char>, std::allocator<char> > >, std::allocator<std::pair<const std::basic_string<char, std::char_traits<char>, std::allocator<char> >, std::basic_string<char, std::char_traits<char>, std::allocator<char> > > > >, std::less<std::basic_string<char, std::char_traits<char>, std::allocator<char> > >, std::allocator<std::pair<const std::basic_string<char, std::char_traits<char>, std::allocator<char> >, std::map<std::basic_string<char, std::char_traits<char>, std::allocator<char> >, std::basic_string<char, std::char_traits<char>, std::allocator<char> >, std::less<std::basic_string<char, std::char_traits<char>, std::allocator<char> > >, std::allocator<std::pair<const std::basic_string<char, std::char_traits<char>, std::allocator<char> >, std::basic_string<char, std::char_traits<char>, std::allocator<char> > > > > > > >::clear
FUNC 74732 25 0 std::map<std::basic_string<char, std::char_traits<char>, std::allocator<char> >, IEC103::stConfigParam, std::less<std::basic_string<char, std::char_traits<char>, std::allocator<char> > >, std::allocator<std::pair<const std::basic_string<char, std::char_traits<char>, std::allocator<char> >, IEC103::stConfigParam> > >::map
FUNC 74758 25 0 std::map<std::basic_string<char, std::char_traits<char>, std::allocator<char> >, std::map<std::basic_string<char, std::char_traits<char>, std::allocator<char> >, std::basic_string<char, std::char_traits<char>, std::allocator<char> >, std::less<std::basic_string<char, std::char_traits<char>, std::allocator<char> > >, std::allocator<std::pair<const std::basic_string<char, std::char_traits<char>, std::allocator<char> >, std::basic_string<char, std::char_traits<char>, std::allocator<char> > > > >, std::less<std::basic_string<char, std::char_traits<char>, std::allocator<char> > >, std::allocator<std::pair<const std::basic_string<char, std::char_traits<char>, std::allocator<char> >, std::map<std::basic_string<char, std::char_traits<char>, std::allocator<char> >, std::basic_string<char, std::char_traits<char>, std::allocator<char> >, std::less<std::basic_string<char, std::char_traits<char>, std::allocator<char> > >, std::allocator<std::pair<const std::basic_string<char, std::char_traits<char>, std::allocator<char> >, std::basic_string<char, std::char_traits<char>, std::allocator<char> > > > > > > >::map
FUNC 7477e 1a 0 std::map<std::basic_string<char, std::char_traits<char>, std::allocator<char> >, std::map<int, std::map<int, IEC104WF::stPointTable, std::less<int>, std::allocator<std::pair<const int, IEC104WF::stPointTable> > >, std::less<int>, std::allocator<std::pair<const int, std::map<int, IEC104WF::stPointTable, std::less<int>, std::allocator<std::pair<const int, IEC104WF::stPointTable> > > > > >, std::less<std::basic_string<char, std::char_traits<char>, std::allocator<char> > >, std::allocator<std::pair<const std::basic_string<char, std::char_traits<char>, std::allocator<char> >, std::map<int, std::map<int, IEC104WF::stPointTable, std::less<int>, std::allocator<std::pair<const int, IEC104WF::stPointTable> > >, std::less<int>, std::allocator<std::pair<const int, std::map<int, IEC104WF::stPointTable, std::less<int>, std::allocator<std::pair<const int, IEC104WF::stPointTable> > > > > > > > >::clear
FUNC 74798 1a 0 std::map<int, std::map<int, IEC104WF::stPointTable, std::less<int>, std::allocator<std::pair<const int, IEC104WF::stPointTable> > >, std::less<int>, std::allocator<std::pair<const int, std::map<int, IEC104WF::stPointTable, std::less<int>, std::allocator<std::pair<const int, IEC104WF::stPointTable> > > > > >::clear
FUNC 747b2 1a 0 std::map<int, IEC104WF::stPointTable, std::less<int>, std::allocator<std::pair<const int, IEC104WF::stPointTable> > >::clear
FUNC 747cc 25 0 std::map<std::basic_string<char, std::char_traits<char>, std::allocator<char> >, std::map<int, std::map<int, IEC104WF::stPointTable, std::less<int>, std::allocator<std::pair<const int, IEC104WF::stPointTable> > >, std::less<int>, std::allocator<std::pair<const int, std::map<int, IEC104WF::stPointTable, std::less<int>, std::allocator<std::pair<const int, IEC104WF::stPointTable> > > > > >, std::less<std::basic_string<char, std::char_traits<char>, std::allocator<char> > >, std::allocator<std::pair<const std::basic_string<char, std::char_traits<char>, std::allocator<char> >, std::map<int, std::map<int, IEC104WF::stPointTable, std::less<int>, std::allocator<std::pair<const int, IEC104WF::stPointTable> > >, std::less<int>, std::allocator<std::pair<const int, std::map<int, IEC104WF::stPointTable, std::less<int>, std::allocator<std::pair<const int, IEC104WF::stPointTable> > > > > > > > >::map
FUNC 747f2 26 0 std::list<std::basic_string<char, std::char_traits<char>, std::allocator<char> >, std::allocator<std::basic_string<char, std::char_traits<char>, std::allocator<char> > > >::clear
FUNC 74818 cf 0 std::list<std::basic_string<char, std::char_traits<char>, std::allocator<char> >, std::allocator<std::basic_string<char, std::char_traits<char>, std::allocator<char> > > >::list
FUNC 748e8 55 0 std::pair<const std::basic_string<char, std::char_traits<char>, std::allocator<char> >, IEC61850_STRUCT::IED_61850>::~pair
FUNC 7493e 1b7 0 std::map<std::basic_string<char, std::char_traits<char>, std::allocator<char> >, IEC61850_STRUCT::IED_61850, std::less<std::basic_string<char, std::char_traits<char>, std::allocator<char> > >, std::allocator<std::pair<const std::basic_string<char, std::char_traits<char>, std::allocator<char> >, IEC61850_STRUCT::IED_61850> > >::operator[]
FUNC 74af6 29 0 std::map<std::basic_string<char, std::char_traits<char>, std::allocator<char> >, std::basic_string<char, std::char_traits<char>, std::allocator<char> >, std::less<std::basic_string<char, std::char_traits<char>, std::allocator<char> > >, std::allocator<std::pair<const std::basic_string<char, std::char_traits<char>, std::allocator<char> >, std::basic_string<char, std::char_traits<char>, std::allocator<char> > > > >::operator=
FUNC 74b20 9e 0 WgjXml::stringToNum<float>
FUNC 74bbe 92 0 WgjXml::stringToNum<int>
FUNC 74c50 1e 0 std::pair<const int, IEC104WF::stPointTable>::~pair
FUNC 74c6e 15e 0 std::map<int, IEC104WF::stPointTable, std::less<int>, std::allocator<std::pair<const int, IEC104WF::stPointTable> > >::operator[]
FUNC 74dcc 1e 0 std::pair<const int, std::map<int, IEC104WF::stPointTable, std::less<int>, std::allocator<std::pair<const int, IEC104WF::stPointTable> > > >::~pair
FUNC 74dea 185 0 std::map<int, std::map<int, IEC104WF::stPointTable, std::less<int>, std::allocator<std::pair<const int, IEC104WF::stPointTable> > >, std::less<int>, std::allocator<std::pair<const int, std::map<int, IEC104WF::stPointTable, std::less<int>, std::allocator<std::pair<const int, IEC104WF::stPointTable> > > > > >::operator[]
FUNC 74f70 29 0 std::map<int, IEC104WF::stPointTable, std::less<int>, std::allocator<std::pair<const int, IEC104WF::stPointTable> > >::operator=
FUNC 74f9a 55 0 std::pair<const std::basic_string<char, std::char_traits<char>, std::allocator<char> >, std::map<int, std::map<int, IEC104WF::stPointTable, std::less<int>, std::allocator<std::pair<const int, IEC104WF::stPointTable> > >, std::less<int>, std::allocator<std::pair<const int, std::map<int, IEC104WF::stPointTable, std::less<int>, std::allocator<std::pair<const int, IEC104WF::stPointTable> > > > > > >::~pair
FUNC 74ff0 185 0 std::map<std::basic_string<char, std::char_traits<char>, std::allocator<char> >, std::map<int, std::map<int, IEC104WF::stPointTable, std::less<int>, std::allocator<std::pair<const int, IEC104WF::stPointTable> > >, std::less<int>, std::allocator<std::pair<const int, std::map<int, IEC104WF::stPointTable, std::less<int>, std::allocator<std::pair<const int, IEC104WF::stPointTable> > > > > >, std::less<std::basic_string<char, std::char_traits<char>, std::allocator<char> > >, std::allocator<std::pair<const std::basic_string<char, std::char_traits<char>, std::allocator<char> >, std::map<int, std::map<int, IEC104WF::stPointTable, std::less<int>, std::allocator<std::pair<const int, IEC104WF::stPointTable> > >, std::less<int>, std::allocator<std::pair<const int, std::map<int, IEC104WF::stPointTable, std::less<int>, std::allocator<std::pair<const int, IEC104WF::stPointTable> > > > > > > > >::operator[]
FUNC 75176 29 0 std::map<int, std::map<int, IEC104WF::stPointTable, std::less<int>, std::allocator<std::pair<const int, IEC104WF::stPointTable> > >, std::less<int>, std::allocator<std::pair<const int, std::map<int, IEC104WF::stPointTable, std::less<int>, std::allocator<std::pair<const int, IEC104WF::stPointTable> > > > > >::operator=
FUNC 7519f 28 0 std::operator!=<char, std::char_traits<char>, std::allocator<char> >
FUNC 751c8 187 0 std::map<std::basic_string<char, std::char_traits<char>, std::allocator<char> >, IEC103::stConfigParam, std::less<std::basic_string<char, std::char_traits<char>, std::allocator<char> > >, std::allocator<std::pair<const std::basic_string<char, std::char_traits<char>, std::allocator<char> >, IEC103::stConfigParam> > >::operator[]
FUNC 75350 185 0 std::map<std::basic_string<char, std::char_traits<char>, std::allocator<char> >, std::map<std::basic_string<char, std::char_traits<char>, std::allocator<char> >, std::basic_string<char, std::char_traits<char>, std::allocator<char> >, std::less<std::basic_string<char, std::char_traits<char>, std::allocator<char> > >, std::allocator<std::pair<const std::basic_string<char, std::char_traits<char>, std::allocator<char> >, std::basic_string<char, std::char_traits<char>, std::allocator<char> > > > >, std::less<std::basic_string<char, std::char_traits<char>, std::allocator<char> > >, std::allocator<std::pair<const std::basic_string<char, std::char_traits<char>, std::allocator<char> >, std::map<std::basic_string<char, std::char_traits<char>, std::allocator<char> >, std::basic_string<char, std::char_traits<char>, std::allocator<char> >, std::less<std::basic_string<char, std::char_traits<char>, std::allocator<char> > >, std::allocator<std::pair<const std::basic_string<char, std::char_traits<char>, std::allocator<char> >, std::basic_string<char, std::char_traits<char>, std::allocator<char> > > > > > > >::operator[]
FUNC 754d6 34 0 std::list<std::basic_string<char, std::char_traits<char>, std::allocator<char> >, std::allocator<std::basic_string<char, std::char_traits<char>, std::allocator<char> > > >::push_back
FUNC 7550a 1a 0 std::_Rb_tree<std::basic_string<char, std::char_traits<char>, std::allocator<char> >, std::pair<const std::basic_string<char, std::char_traits<char>, std::allocator<char> >, IEC61850_STRUCT::IED_61850>, std::_Select1st<std::pair<const std::basic_string<char, std::char_traits<char>, std::allocator<char> >, IEC61850_STRUCT::IED_61850> >, std::less<std::basic_string<char, std::char_traits<char>, std::allocator<char> > >, std::allocator<std::pair<const std::basic_string<char, std::char_traits<char>, std::allocator<char> >, IEC61850_STRUCT::IED_61850> > >::_Rb_tree
FUNC 75524 1a 0 std::allocator<std::_Rb_tree_node<std::pair<const std::basic_string<char, std::char_traits<char>, std::allocator<char> >, IEC61850_STRUCT::IED_61850> > >::~allocator
FUNC 7553e 69 0 std::_Rb_tree<std::basic_string<char, std::char_traits<char>, std::allocator<char> >, std::pair<const std::basic_string<char, std::char_traits<char>, std::allocator<char> >, IEC61850_STRUCT::IED_61850>, std::_Select1st<std::pair<const std::basic_string<char, std::char_traits<char>, std::allocator<char> >, IEC61850_STRUCT::IED_61850> >, std::less<std::basic_string<char, std::char_traits<char>, std::allocator<char> > >, std::allocator<std::pair<const std::basic_string<char, std::char_traits<char>, std::allocator<char> >, IEC61850_STRUCT::IED_61850> > >::_M_erase
FUNC 755a8 12 0 std::_Rb_tree<std::basic_string<char, std::char_traits<char>, std::allocator<char> >, std::pair<const std::basic_string<char, std::char_traits<char>, std::allocator<char> >, IEC61850_STRUCT::IED_61850>, std::_Select1st<std::pair<const std::basic_string<char, std::char_traits<char>, std::allocator<char> >, IEC61850_STRUCT::IED_61850> >, std::less<std::basic_string<char, std::char_traits<char>, std::allocator<char> > >, std::allocator<std::pair<const std::basic_string<char, std::char_traits<char>, std::allocator<char> >, IEC61850_STRUCT::IED_61850> > >::_M_begin
FUNC 755ba 26 0 std::_List_base<std::basic_string<char, std::char_traits<char>, std::allocator<char> >, std::allocator<std::basic_string<char, std::char_traits<char>, std::allocator<char> > > >::_List_base
FUNC 755e0 1a 0 std::allocator<std::_List_node<std::basic_string<char, std::char_traits<char>, std::allocator<char> > > >::~allocator
FUNC 755fa b8 0 std::_List_base<std::basic_string<char, std::char_traits<char>, std::allocator<char> >, std::allocator<std::basic_string<char, std::char_traits<char>, std::allocator<char> > > >::_M_clear
FUNC 756b2 1a 0 std::_Rb_tree<std::basic_string<char, std::char_traits<char>, std::allocator<char> >, std::pair<const std::basic_string<char, std::char_traits<char>, std::allocator<char> >, std::map<int, std::map<int, IEC104WF::stPointTable, std::less<int>, std::allocator<std::pair<const int, IEC104WF::stPointTable> > >, std::less<int>, std::allocator<std::pair<const int, std::map<int, IEC104WF::stPointTable, std::less<int>, std::allocator<std::pair<const int, IEC104WF::stPointTable> > > > > > >, std::_Select1st<std::pair<const std::basic_string<char, std::char_traits<char>, std::allocator<char> >, std::map<int, std::map<int, IEC104WF::stPointTable, std::less<int>, std::allocator<std::pair<const int, IEC104WF::stPointTable> > >, std::less<int>, std::allocator<std::pair<const int, std::map<int, IEC104WF::stPointTable, std::less<int>, std::allocator<std::pair<const int, IEC104WF::stPointTable> > > > > > > >, std::less<std::basic_string<char, std::char_traits<char>, std::allocator<char> > >, std::allocator<std::pair<const std::basic_string<char, std::char_traits<char>, std::allocator<char> >, std::map<int, std::map<int, IEC104WF::stPointTable, std::less<int>, std::allocator<std::pair<const int, IEC104WF::stPointTable> > >, std::less<int>, std::allocator<std::pair<const int, std::map<int, IEC104WF::stPointTable, std::less<int>, std::allocator<std::pair<const int, IEC104WF::stPointTable> > > > > > > > >::_Rb_tree
FUNC 756cc 1a 0 std::allocator<std::_Rb_tree_node<std::pair<const std::basic_string<char, std::char_traits<char>, std::allocator<char> >, std::map<int, std::map<int, IEC104WF::stPointTable, std::less<int>, std::allocator<std::pair<const int, IEC104WF::stPointTable> > >, std::less<int>, std::allocator<std::pair<const int, std::map<int, IEC104WF::stPointTable, std::less<int>, std::allocator<std::pair<const int, IEC104WF::stPointTable> > > > > > > > >::~allocator
FUNC 756e6 69 0 std::_Rb_tree<std::basic_string<char, std::char_traits<char>, std::allocator<char> >, std::pair<const std::basic_string<char, std::char_traits<char>, std::allocator<char> >, std::map<int, std::map<int, IEC104WF::stPointTable, std::less<int>, std::allocator<std::pair<const int, IEC104WF::stPointTable> > >, std::less<int>, std::allocator<std::pair<const int, std::map<int, IEC104WF::stPointTable, std::less<int>, std::allocator<std::pair<const int, IEC104WF::stPointTable> > > > > > >, std::_Select1st<std::pair<const std::basic_string<char, std::char_traits<char>, std::allocator<char> >, std::map<int, std::map<int, IEC104WF::stPointTable, std::less<int>, std::allocator<std::pair<const int, IEC104WF::stPointTable> > >, std::less<int>, std::allocator<std::pair<const int, std::map<int, IEC104WF::stPointTable, std::less<int>, std::allocator<std::pair<const int, IEC104WF::stPointTable> > > > > > > >, std::less<std::basic_string<char, std::char_traits<char>, std::allocator<char> > >, std::allocator<std::pair<const std::basic_string<char, std::char_traits<char>, std::allocator<char> >, std::map<int, std::map<int, IEC104WF::stPointTable, std::less<int>, std::allocator<std::pair<const int, IEC104WF::stPointTable> > >, std::less<int>, std::allocator<std::pair<const int, std::map<int, IEC104WF::stPointTable, std::less<int>, std::allocator<std::pair<const int, IEC104WF::stPointTable> > > > > > > > >::_M_erase
FUNC 75750 12 0 std::_Rb_tree<std::basic_string<char, std::char_traits<char>, std::allocator<char> >, std::pair<const std::basic_string<char, std::char_traits<char>, std::allocator<char> >, std::map<int, std::map<int, IEC104WF::stPointTable, std::less<int>, std::allocator<std::pair<const int, IEC104WF::stPointTable> > >, std::less<int>, std::allocator<std::pair<const int, std::map<int, IEC104WF::stPointTable, std::less<int>, std::allocator<std::pair<const int, IEC104WF::stPointTable> > > > > > >, std::_Select1st<std::pair<const std::basic_string<char, std::char_traits<char>, std::allocator<char> >, std::map<int, std::map<int, IEC104WF::stPointTable, std::less<int>, std::allocator<std::pair<const int, IEC104WF::stPointTable> > >, std::less<int>, std::allocator<std::pair<const int, std::map<int, IEC104WF::stPointTable, std::less<int>, std::allocator<std::pair<const int, IEC104WF::stPointTable> > > > > > > >, std::less<std::basic_string<char, std::char_traits<char>, std::allocator<char> > >, std::allocator<std::pair<const std::basic_string<char, std::char_traits<char>, std::allocator<char> >, std::map<int, std::map<int, IEC104WF::stPointTable, std::less<int>, std::allocator<std::pair<const int, IEC104WF::stPointTable> > >, std::less<int>, std::allocator<std::pair<const int, std::map<int, IEC104WF::stPointTable, std::less<int>, std::allocator<std::pair<const int, IEC104WF::stPointTable> > > > > > > > >::_M_begin
FUNC 75762 1a 0 std::_Rb_tree<int, std::pair<const int, std::map<int, IEC104WF::stPointTable, std::less<int>, std::allocator<std::pair<const int, IEC104WF::stPointTable> > > >, std::_Select1st<std::pair<const int, std::map<int, IEC104WF::stPointTable, std::less<int>, std::allocator<std::pair<const int, IEC104WF::stPointTable> > > > >, std::less<int>, std::allocator<std::pair<const int, std::map<int, IEC104WF::stPointTable, std::less<int>, std::allocator<std::pair<const int, IEC104WF::stPointTable> > > > > >::_Rb_tree
FUNC 7577c 1a 0 std::allocator<std::_Rb_tree_node<std::pair<const int, std::map<int, IEC104WF::stPointTable, std::less<int>, std::allocator<std::pair<const int, IEC104WF::stPointTable> > > > > >::~allocator
FUNC 75796 69 0 std::_Rb_tree<int, std::pair<const int, std::map<int, IEC104WF::stPointTable, std::less<int>, std::allocator<std::pair<const int, IEC104WF::stPointTable> > > >, std::_Select1st<std::pair<const int, std::map<int, IEC104WF::stPointTable, std::less<int>, std::allocator<std::pair<const int, IEC104WF::stPointTable> > > > >, std::less<int>, std::allocator<std::pair<const int, std::map<int, IEC104WF::stPointTable, std::less<int>, std::allocator<std::pair<const int, IEC104WF::stPointTable> > > > > >::_M_erase
FUNC 75800 12 0 std::_Rb_tree<int, std::pair<const int, std::map<int, IEC104WF::stPointTable, std::less<int>, std::allocator<std::pair<const int, IEC104WF::stPointTable> > > >, std::_Select1st<std::pair<const int, std::map<int, IEC104WF::stPointTable, std::less<int>, std::allocator<std::pair<const int, IEC104WF::stPointTable> > > > >, std::less<int>, std::allocator<std::pair<const int, std::map<int, IEC104WF::stPointTable, std::less<int>, std::allocator<std::pair<const int, IEC104WF::stPointTable> > > > > >::_M_begin
FUNC 75812 1a 0 std::_Rb_tree<int, std::pair<const int, IEC104WF::stPointTable>, std::_Select1st<std::pair<const int, IEC104WF::stPointTable> >, std::less<int>, std::allocator<std::pair<const int, IEC104WF::stPointTable> > >::_Rb_tree
FUNC 7582c 1a 0 std::allocator<std::_Rb_tree_node<std::pair<const int, IEC104WF::stPointTable> > >::~allocator
FUNC 75846 69 0 std::_Rb_tree<int, std::pair<const int, IEC104WF::stPointTable>, std::_Select1st<std::pair<const int, IEC104WF::stPointTable> >, std::less<int>, std::allocator<std::pair<const int, IEC104WF::stPointTable> > >::_M_erase
FUNC 758b0 12 0 std::_Rb_tree<int, std::pair<const int, IEC104WF::stPointTable>, std::_Select1st<std::pair<const int, IEC104WF::stPointTable> >, std::less<int>, std::allocator<std::pair<const int, IEC104WF::stPointTable> > >::_M_begin
FUNC 758c2 1a 0 std::_Rb_tree<std::basic_string<char, std::char_traits<char>, std::allocator<char> >, std::pair<const std::basic_string<char, std::char_traits<char>, std::allocator<char> >, IEC103::stConfigParam>, std::_Select1st<std::pair<const std::basic_string<char, std::char_traits<char>, std::allocator<char> >, IEC103::stConfigParam> >, std::less<std::basic_string<char, std::char_traits<char>, std::allocator<char> > >, std::allocator<std::pair<const std::basic_string<char, std::char_traits<char>, std::allocator<char> >, IEC103::stConfigParam> > >::_Rb_tree
FUNC 758dc 1a 0 std::_Rb_tree<std::basic_string<char, std::char_traits<char>, std::allocator<char> >, std::pair<const std::basic_string<char, std::char_traits<char>, std::allocator<char> >, std::map<std::basic_string<char, std::char_traits<char>, std::allocator<char> >, std::basic_string<char, std::char_traits<char>, std::allocator<char> >, std::less<std::basic_string<char, std::char_traits<char>, std::allocator<char> > >, std::allocator<std::pair<const std::basic_string<char, std::char_traits<char>, std::allocator<char> >, std::basic_string<char, std::char_traits<char>, std::allocator<char> > > > > >, std::_Select1st<std::pair<const std::basic_string<char, std::char_traits<char>, std::allocator<char> >, std::map<std::basic_string<char, std::char_traits<char>, std::allocator<char> >, std::basic_string<char, std::char_traits<char>, std::allocator<char> >, std::less<std::basic_string<char, std::char_traits<char>, std::allocator<char> > >, std::allocator<std::pair<const std::basic_string<char, std::char_traits<char>, std::allocator<char> >, std::basic_string<char, std::char_traits<char>, std::allocator<char> > > > > > >, std::less<std::basic_string<char, std::char_traits<char>, std::allocator<char> > >, std::allocator<std::pair<const std::basic_string<char, std::char_traits<char>, std::allocator<char> >, std::map<std::basic_string<char, std::char_traits<char>, std::allocator<char> >, std::basic_string<char, std::char_traits<char>, std::allocator<char> >, std::less<std::basic_string<char, std::char_traits<char>, std::allocator<char> > >, std::allocator<std::pair<const std::basic_string<char, std::char_traits<char>, std::allocator<char> >, std::basic_string<char, std::char_traits<char>, std::allocator<char> > > > > > > >::_Rb_tree
FUNC 758f6 8d 0 std::_Rb_tree<std::basic_string<char, std::char_traits<char>, std::allocator<char> >, std::pair<const std::basic_string<char, std::char_traits<char>, std::allocator<char> >, IEC61850_STRUCT::IED_61850>, std::_Select1st<std::pair<const std::basic_string<char, std::char_traits<char>, std::allocator<char> >, IEC61850_STRUCT::IED_61850> >, std::less<std::basic_string<char, std::char_traits<char>, std::allocator<char> > >, std::allocator<std::pair<const std::basic_string<char, std::char_traits<char>, std::allocator<char> >, IEC61850_STRUCT::IED_61850> > >::clear
FUNC 75984 11d 0 std::_Rb_tree<std::basic_string<char, std::char_traits<char>, std::allocator<char> >, std::pair<const std::basic_string<char, std::char_traits<char>, std::allocator<char> >, IEC61850_STRUCT::IED_61850>, std::_Select1st<std::pair<const std::basic_string<char, std::char_traits<char>, std::allocator<char> >, IEC61850_STRUCT::IED_61850> >, std::less<std::basic_string<char, std::char_traits<char>, std::allocator<char> > >, std::allocator<std::pair<const std::basic_string<char, std::char_traits<char>, std::allocator<char> >, IEC61850_STRUCT::IED_61850> > >::_Rb_tree
FUNC 75aa2 8d 0 std::_Rb_tree<std::basic_string<char, std::char_traits<char>, std::allocator<char> >, std::pair<const std::basic_string<char, std::char_traits<char>, std::allocator<char> >, IEC103::stConfigParam>, std::_Select1st<std::pair<const std::basic_string<char, std::char_traits<char>, std::allocator<char> >, IEC103::stConfigParam> >, std::less<std::basic_string<char, std::char_traits<char>, std::allocator<char> > >, std::allocator<std::pair<const std::basic_string<char, std::char_traits<char>, std::allocator<char> >, IEC103::stConfigParam> > >::clear
FUNC 75b30 8d 0 std::_Rb_tree<std::basic_string<char, std::char_traits<char>, std::allocator<char> >, std::pair<const std::basic_string<char, std::char_traits<char>, std::allocator<char> >, std::map<std::basic_string<char, std::char_traits<char>, std::allocator<char> >, std::basic_string<char, std::char_traits<char>, std::allocator<char> >, std::less<std::basic_string<char, std::char_traits<char>, std::allocator<char> > >, std::allocator<std::pair<const std::basic_string<char, std::char_traits<char>, std::allocator<char> >, std::basic_string<char, std::char_traits<char>, std::allocator<char> > > > > >, std::_Select1st<std::pair<const std::basic_string<char, std::char_traits<char>, std::allocator<char> >, std::map<std::basic_string<char, std::char_traits<char>, std::allocator<char> >, std::basic_string<char, std::char_traits<char>, std::allocator<char> >, std::less<std::basic_string<char, std::char_traits<char>, std::allocator<char> > >, std::allocator<std::pair<const std::basic_string<char, std::char_traits<char>, std::allocator<char> >, std::basic_string<char, std::char_traits<char>, std::allocator<char> > > > > > >, std::less<std::basic_string<char, std::char_traits<char>, std::allocator<char> > >, std::allocator<std::pair<const std::basic_string<char, std::char_traits<char>, std::allocator<char> >, std::map<std::basic_string<char, std::char_traits<char>, std::allocator<char> >, std::basic_string<char, std::char_traits<char>, std::allocator<char> >, std::less<std::basic_string<char, std::char_traits<char>, std::allocator<char> > >, std::allocator<std::pair<const std::basic_string<char, std::char_traits<char>, std::allocator<char> >, std::basic_string<char, std::char_traits<char>, std::allocator<char> > > > > > > >::clear
FUNC 75bbe 11d 0 std::_Rb_tree<std::basic_string<char, std::char_traits<char>, std::allocator<char> >, std::pair<const std::basic_string<char, std::char_traits<char>, std::allocator<char> >, IEC103::stConfigParam>, std::_Select1st<std::pair<const std::basic_string<char, std::char_traits<char>, std::allocator<char> >, IEC103::stConfigParam> >, std::less<std::basic_string<char, std::char_traits<char>, std::allocator<char> > >, std::allocator<std::pair<const std::basic_string<char, std::char_traits<char>, std::allocator<char> >, IEC103::stConfigParam> > >::_Rb_tree
FUNC 75cdc 11d 0 std::_Rb_tree<std::basic_string<char, std::char_traits<char>, std::allocator<char> >, std::pair<const std::basic_string<char, std::char_traits<char>, std::allocator<char> >, std::map<std::basic_string<char, std::char_traits<char>, std::allocator<char> >, std::basic_string<char, std::char_traits<char>, std::allocator<char> >, std::less<std::basic_string<char, std::char_traits<char>, std::allocator<char> > >, std::allocator<std::pair<const std::basic_string<char, std::char_traits<char>, std::allocator<char> >, std::basic_string<char, std::char_traits<char>, std::allocator<char> > > > > >, std::_Select1st<std::pair<const std::basic_string<char, std::char_traits<char>, std::allocator<char> >, std::map<std::basic_string<char, std::char_traits<char>, std::allocator<char> >, std::basic_string<char, std::char_traits<char>, std::allocator<char> >, std::less<std::basic_string<char, std::char_traits<char>, std::allocator<char> > >, std::allocator<std::pair<const std::basic_string<char, std::char_traits<char>, std::allocator<char> >, std::basic_string<char, std::char_traits<char>, std::allocator<char> > > > > > >, std::less<std::basic_string<char, std::char_traits<char>, std::allocator<char> > >, std::allocator<std::pair<const std::basic_string<char, std::char_traits<char>, std::allocator<char> >, std::map<std::basic_string<char, std::char_traits<char>, std::allocator<char> >, std::basic_string<char, std::char_traits<char>, std::allocator<char> >, std::less<std::basic_string<char, std::char_traits<char>, std::allocator<char> > >, std::allocator<std::pair<const std::basic_string<char, std::char_traits<char>, std::allocator<char> >, std::basic_string<char, std::char_traits<char>, std::allocator<char> > > > > > > >::_Rb_tree
FUNC 75dfa 8d 0 std::_Rb_tree<std::basic_string<char, std::char_traits<char>, std::allocator<char> >, std::pair<const std::basic_string<char, std::char_traits<char>, std::allocator<char> >, std::map<int, std::map<int, IEC104WF::stPointTable, std::less<int>, std::allocator<std::pair<const int, IEC104WF::stPointTable> > >, std::less<int>, std::allocator<std::pair<const int, std::map<int, IEC104WF::stPointTable, std::less<int>, std::allocator<std::pair<const int, IEC104WF::stPointTable> > > > > > >, std::_Select1st<std::pair<const std::basic_string<char, std::char_traits<char>, std::allocator<char> >, std::map<int, std::map<int, IEC104WF::stPointTable, std::less<int>, std::allocator<std::pair<const int, IEC104WF::stPointTable> > >, std::less<int>, std::allocator<std::pair<const int, std::map<int, IEC104WF::stPointTable, std::less<int>, std::allocator<std::pair<const int, IEC104WF::stPointTable> > > > > > > >, std::less<std::basic_string<char, std::char_traits<char>, std::allocator<char> > >, std::allocator<std::pair<const std::basic_string<char, std::char_traits<char>, std::allocator<char> >, std::map<int, std::map<int, IEC104WF::stPointTable, std::less<int>, std::allocator<std::pair<const int, IEC104WF::stPointTable> > >, std::less<int>, std::allocator<std::pair<const int, std::map<int, IEC104WF::stPointTable, std::less<int>, std::allocator<std::pair<const int, IEC104WF::stPointTable> > > > > > > > >::clear
FUNC 75e88 8d 0 std::_Rb_tree<int, std::pair<const int, std::map<int, IEC104WF::stPointTable, std::less<int>, std::allocator<std::pair<const int, IEC104WF::stPointTable> > > >, std::_Select1st<std::pair<const int, std::map<int, IEC104WF::stPointTable, std::less<int>, std::allocator<std::pair<const int, IEC104WF::stPointTable> > > > >, std::less<int>, std::allocator<std::pair<const int, std::map<int, IEC104WF::stPointTable, std::less<int>, std::allocator<std::pair<const int, IEC104WF::stPointTable> > > > > >::clear
FUNC 75f16 8d 0 std::_Rb_tree<int, std::pair<const int, IEC104WF::stPointTable>, std::_Select1st<std::pair<const int, IEC104WF::stPointTable> >, std::less<int>, std::allocator<std::pair<const int, IEC104WF::stPointTable> > >::clear
FUNC 75fa4 11d 0 std::_Rb_tree<std::basic_string<char, std::char_traits<char>, std::allocator<char> >, std::pair<const std::basic_string<char, std::char_traits<char>, std::allocator<char> >, std::map<int, std::map<int, IEC104WF::stPointTable, std::less<int>, std::allocator<std::pair<const int, IEC104WF::stPointTable> > >, std::less<int>, std::allocator<std::pair<const int, std::map<int, IEC104WF::stPointTable, std::less<int>, std::allocator<std::pair<const int, IEC104WF::stPointTable> > > > > > >, std::_Select1st<std::pair<const std::basic_string<char, std::char_traits<char>, std::allocator<char> >, std::map<int, std::map<int, IEC104WF::stPointTable, std::less<int>, std::allocator<std::pair<const int, IEC104WF::stPointTable> > >, std::less<int>, std::allocator<std::pair<const int, std::map<int, IEC104WF::stPointTable, std::less<int>, std::allocator<std::pair<const int, IEC104WF::stPointTable> > > > > > > >, std::less<std::basic_string<char, std::char_traits<char>, std::allocator<char> > >, std::allocator<std::pair<const std::basic_string<char, std::char_traits<char>, std::allocator<char> >, std::map<int, std::map<int, IEC104WF::stPointTable, std::less<int>, std::allocator<std::pair<const int, IEC104WF::stPointTable> > >, std::less<int>, std::allocator<std::pair<const int, std::map<int, IEC104WF::stPointTable, std::less<int>, std::allocator<std::pair<const int, IEC104WF::stPointTable> > > > > > > > >::_Rb_tree
FUNC 760c2 21 0 std::_List_base<std::basic_string<char, std::char_traits<char>, std::allocator<char> >, std::allocator<std::basic_string<char, std::char_traits<char>, std::allocator<char> > > >::_M_init
FUNC 760e4 e 0 std::_List_base<std::basic_string<char, std::char_traits<char>, std::allocator<char> >, std::allocator<std::basic_string<char, std::char_traits<char>, std::allocator<char> > > >::_M_get_Node_allocator
FUNC 760f2 1e 0 std::allocator<std::basic_string<char, std::char_traits<char>, std::allocator<char> > >::allocator<std::_List_node<std::basic_string<char, std::char_traits<char>, std::allocator<char> > > >
FUNC 76110 50 0 std::_List_base<std::basic_string<char, std::char_traits<char>, std::allocator<char> >, std::allocator<std::basic_string<char, std::char_traits<char>, std::allocator<char> > > >::_List_base
FUNC 76160 28 0 std::list<std::basic_string<char, std::char_traits<char>, std::allocator<char> >, std::allocator<std::basic_string<char, std::char_traits<char>, std::allocator<char> > > >::begin
FUNC 76188 25 0 std::list<std::basic_string<char, std::char_traits<char>, std::allocator<char> >, std::allocator<std::basic_string<char, std::char_traits<char>, std::allocator<char> > > >::end
FUNC 761ae 59 0 std::list<std::basic_string<char, std::char_traits<char>, std::allocator<char> >, std::allocator<std::basic_string<char, std::char_traits<char>, std::allocator<char> > > >::_M_initialize_dispatch<std::_List_const_iterator<std::basic_string<char, std::char_traits<char>, std::allocator<char> > > >
FUNC 76208 25 0 std::map<std::basic_string<char, std::char_traits<char>, std::allocator<char> >, IEC61850_STRUCT::IED_61850, std::less<std::basic_string<char, std::char_traits<char>, std::allocator<char> > >, std::allocator<std::pair<const std::basic_string<char, std::char_traits<char>, std::allocator<char> >, IEC61850_STRUCT::IED_61850> > >::lower_bound
FUNC 7622e 1a 0 std::map<std::basic_string<char, std::char_traits<char>, std::allocator<char> >, IEC61850_STRUCT::IED_61850, std::less<std::basic_string<char, std::char_traits<char>, std::allocator<char> > >, std::allocator<std::pair<const std::basic_string<char, std::char_traits<char>, std::allocator<char> >, IEC61850_STRUCT::IED_61850> > >::key_comp
FUNC 76248 15 0 std::_Rb_tree_iterator<std::pair<const std::basic_string<char, std::char_traits<char>, std::allocator<char> >, IEC61850_STRUCT::IED_61850> >::operator*
FUNC 7625e 1a 0 std::map<std::basic_string<char, std::char_traits<char>, std::allocator<char> >, IEC61850_STRUCT::IED_61850, std::less<std::basic_string<char, std::char_traits<char>, std::allocator<char> > >, std::allocator<std::pair<const std::basic_string<char, std::char_traits<char>, std::allocator<char> >, IEC61850_STRUCT::IED_61850> > >::end
FUNC 76278 22 0 std::_Rb_tree_iterator<std::pair<const std::basic_string<char, std::char_traits<char>, std::allocator<char> >, IEC61850_STRUCT::IED_61850> >::operator==
FUNC 7629a 1dc 0 IEC61850_STRUCT::IED_61850::IED_61850
FUNC 76476 6b 0 std::pair<const std::basic_string<char, std::char_traits<char>, std::allocator<char> >, IEC61850_STRUCT::IED_61850>::pair
FUNC 764e2 40 0 std::map<std::basic_string<char, std::char_traits<char>, std::allocator<char> >, IEC61850_STRUCT::IED_61850, std::less<std::basic_string<char, std::char_traits<char>, std::allocator<char> > >, std::allocator<std::pair<const std::basic_string<char, std::char_traits<char>, std::allocator<char> >, IEC61850_STRUCT::IED_61850> > >::insert
FUNC 76522 f8 0 std::_Rb_tree<std::basic_string<char, std::char_traits<char>, std::allocator<char> >, std::pair<const std::basic_string<char, std::char_traits<char>, std::allocator<char> >, std::basic_string<char, std::char_traits<char>, std::allocator<char> > >, std::_Select1st<std::pair<const std::basic_string<char, std::char_traits<char>, std::allocator<char> >, std::basic_string<char, std::char_traits<char>, std::allocator<char> > > >, std::less<std::basic_string<char, std::char_traits<char>, std::allocator<char> > >, std::allocator<std::pair<const std::basic_string<char, std::char_traits<char>, std::allocator<char> >, std::basic_string<char, std::char_traits<char>, std::allocator<char> > > > >::operator=
FUNC 7661a 25 0 std::map<int, IEC104WF::stPointTable, std::less<int>, std::allocator<std::pair<const int, IEC104WF::stPointTable> > >::lower_bound
FUNC 76640 1a 0 std::map<int, IEC104WF::stPointTable, std::less<int>, std::allocator<std::pair<const int, IEC104WF::stPointTable> > >::key_comp
FUNC 7665a 15 0 std::_Rb_tree_iterator<std::pair<const int, IEC104WF::stPointTable> >::operator*
FUNC 76670 23 0 std::less<int>::operator()
FUNC 76694 1a 0 std::map<int, IEC104WF::stPointTable, std::less<int>, std::allocator<std::pair<const int, IEC104WF::stPointTable> > >::end
FUNC 766ae 22 0 std::_Rb_tree_iterator<std::pair<const int, IEC104WF::stPointTable> >::operator==
FUNC 766d0 41 0 IEC104WF::stPointTable::stPointTable
FUNC 76712 39 0 std::pair<const int, IEC104WF::stPointTable>::pair
FUNC 7674c 40 0 std::map<int, IEC104WF::stPointTable, std::less<int>, std::allocator<std::pair<const int, IEC104WF::stPointTable> > >::insert
FUNC 7678c 25 0 std::map<int, std::map<int, IEC104WF::stPointTable, std::less<int>, std::allocator<std::pair<const int, IEC104WF::stPointTable> > >, std::less<int>, std::allocator<std::pair<const int, std::map<int, IEC104WF::stPointTable, std::less<int>, std::allocator<std::pair<const int, IEC104WF::stPointTable> > > > > >::lower_bound
FUNC 767b2 1a 0 std::map<int, std::map<int, IEC104WF::stPointTable, std::less<int>, std::allocator<std::pair<const int, IEC104WF::stPointTable> > >, std::less<int>, std::allocator<std::pair<const int, std::map<int, IEC104WF::stPointTable, std::less<int>, std::allocator<std::pair<const int, IEC104WF::stPointTable> > > > > >::key_comp
FUNC 767cc 15 0 std::_Rb_tree_iterator<std::pair<const int, std::map<int, IEC104WF::stPointTable, std::less<int>, std::allocator<std::pair<const int, IEC104WF::stPointTable> > > > >::operator*
FUNC 767e2 1a 0 std::map<int, std::map<int, IEC104WF::stPointTable, std::less<int>, std::allocator<std::pair<const int, IEC104WF::stPointTable> > >, std::less<int>, std::allocator<std::pair<const int, std::map<int, IEC104WF::stPointTable, std::less<int>, std::allocator<std::pair<const int, IEC104WF::stPointTable> > > > > >::end
FUNC 767fc 22 0 std::_Rb_tree_iterator<std::pair<const int, std::map<int, IEC104WF::stPointTable, std::less<int>, std::allocator<std::pair<const int, IEC104WF::stPointTable> > > > >::operator==
FUNC 7681e 39 0 std::pair<const int, std::map<int, IEC104WF::stPointTable, std::less<int>, std::allocator<std::pair<const int, IEC104WF::stPointTable> > > >::pair
FUNC 76858 40 0 std::map<int, std::map<int, IEC104WF::stPointTable, std::less<int>, std::allocator<std::pair<const int, IEC104WF::stPointTable> > >, std::less<int>, std::allocator<std::pair<const int, std::map<int, IEC104WF::stPointTable, std::less<int>, std::allocator<std::pair<const int, IEC104WF::stPointTable> > > > > >::insert
FUNC 76898 f8 0 std::_Rb_tree<int, std::pair<const int, IEC104WF::stPointTable>, std::_Select1st<std::pair<const int, IEC104WF::stPointTable> >, std::less<int>, std::allocator<std::pair<const int, IEC104WF::stPointTable> > >::operator=
FUNC 76990 25 0 std::map<std::basic_string<char, std::char_traits<char>, std::allocator<char> >, std::map<int, std::map<int, IEC104WF::stPointTable, std::less<int>, std::allocator<std::pair<const int, IEC104WF::stPointTable> > >, std::less<int>, std::allocator<std::pair<const int, std::map<int, IEC104WF::stPointTable, std::less<int>, std::allocator<std::pair<const int, IEC104WF::stPointTable> > > > > >, std::less<std::basic_string<char, std::char_traits<char>, std::allocator<char> > >, std::allocator<std::pair<const std::basic_string<char, std::char_traits<char>, std::allocator<char> >, std::map<int, std::map<int, IEC104WF::stPointTable, std::less<int>, std::allocator<std::pair<const int, IEC104WF::stPointTable> > >, std::less<int>, std::allocator<std::pair<const int, std::map<int, IEC104WF::stPointTable, std::less<int>, std::allocator<std::pair<const int, IEC104WF::stPointTable> > > > > > > > >::lower_bound
FUNC 769b6 1a 0 std::map<std::basic_string<char, std::char_traits<char>, std::allocator<char> >, std::map<int, std::map<int, IEC104WF::stPointTable, std::less<int>, std::allocator<std::pair<const int, IEC104WF::stPointTable> > >, std::less<int>, std::allocator<std::pair<const int, std::map<int, IEC104WF::stPointTable, std::less<int>, std::allocator<std::pair<const int, IEC104WF::stPointTable> > > > > >, std::less<std::basic_string<char, std::char_traits<char>, std::allocator<char> > >, std::allocator<std::pair<const std::basic_string<char, std::char_traits<char>, std::allocator<char> >, std::map<int, std::map<int, IEC104WF::stPointTable, std::less<int>, std::allocator<std::pair<const int, IEC104WF::stPointTable> > >, std::less<int>, std::allocator<std::pair<const int, std::map<int, IEC104WF::stPointTable, std::less<int>, std::allocator<std::pair<const int, IEC104WF::stPointTable> > > > > > > > >::key_comp
FUNC 769d0 15 0 std::_Rb_tree_iterator<std::pair<const std::basic_string<char, std::char_traits<char>, std::allocator<char> >, std::map<int, std::map<int, IEC104WF::stPointTable, std::less<int>, std::allocator<std::pair<const int, IEC104WF::stPointTable> > >, std::less<int>, std::allocator<std::pair<const int, std::map<int, IEC104WF::stPointTable, std::less<int>, std::allocator<std::pair<const int, IEC104WF::stPointTable> > > > > > > >::operator*
FUNC 769e6 1a 0 std::map<std::basic_string<char, std::char_traits<char>, std::allocator<char> >, std::map<int, std::map<int, IEC104WF::stPointTable, std::less<int>, std::allocator<std::pair<const int, IEC104WF::stPointTable> > >, std::less<int>, std::allocator<std::pair<const int, std::map<int, IEC104WF::stPointTable, std::less<int>, std::allocator<std::pair<const int, IEC104WF::stPointTable> > > > > >, std::less<std::basic_string<char, std::char_traits<char>, std::allocator<char> > >, std::allocator<std::pair<const std::basic_string<char, std::char_traits<char>, std::allocator<char> >, std::map<int, std::map<int, IEC104WF::stPointTable, std::less<int>, std::allocator<std::pair<const int, IEC104WF::stPointTable> > >, std::less<int>, std::allocator<std::pair<const int, std::map<int, IEC104WF::stPointTable, std::less<int>, std::allocator<std::pair<const int, IEC104WF::stPointTable> > > > > > > > >::end
FUNC 76a00 22 0 std::_Rb_tree_iterator<std::pair<const std::basic_string<char, std::char_traits<char>, std::allocator<char> >, std::map<int, std::map<int, IEC104WF::stPointTable, std::less<int>, std::allocator<std::pair<const int, IEC104WF::stPointTable> > >, std::less<int>, std::allocator<std::pair<const int, std::map<int, IEC104WF::stPointTable, std::less<int>, std::allocator<std::pair<const int, IEC104WF::stPointTable> > > > > > > >::operator==
FUNC 76a22 6b 0 std::pair<const std::basic_string<char, std::char_traits<char>, std::allocator<char> >, std::map<int, std::map<int, IEC104WF::stPointTable, std::less<int>, std::allocator<std::pair<const int, IEC104WF::stPointTable> > >, std::less<int>, std::allocator<std::pair<const int, std::map<int, IEC104WF::stPointTable, std::less<int>, std::allocator<std::pair<const int, IEC104WF::stPointTable> > > > > > >::pair
FUNC 76a8e 40 0 std::map<std::basic_string<char, std::char_traits<char>, std::allocator<char> >, std::map<int, std::map<int, IEC104WF::stPointTable, std::less<int>, std::allocator<std::pair<const int, IEC104WF::stPointTable> > >, std::less<int>, std::allocator<std::pair<const int, std::map<int, IEC104WF::stPointTable, std::less<int>, std::allocator<std::pair<const int, IEC104WF::stPointTable> > > > > >, std::less<std::basic_string<char, std::char_traits<char>, std::allocator<char> > >, std::allocator<std::pair<const std::basic_string<char, std::char_traits<char>, std::allocator<char> >, std::map<int, std::map<int, IEC104WF::stPointTable, std::less<int>, std::allocator<std::pair<const int, IEC104WF::stPointTable> > >, std::less<int>, std::allocator<std::pair<const int, std::map<int, IEC104WF::stPointTable, std::less<int>, std::allocator<std::pair<const int, IEC104WF::stPointTable> > > > > > > > >::insert
FUNC 76ace f8 0 std::_Rb_tree<int, std::pair<const int, std::map<int, IEC104WF::stPointTable, std::less<int>, std::allocator<std::pair<const int, IEC104WF::stPointTable> > > >, std::_Select1st<std::pair<const int, std::map<int, IEC104WF::stPointTable, std::less<int>, std::allocator<std::pair<const int, IEC104WF::stPointTable> > > > >, std::less<int>, std::allocator<std::pair<const int, std::map<int, IEC104WF::stPointTable, std::less<int>, std::allocator<std::pair<const int, IEC104WF::stPointTable> > > > > >::operator=
FUNC 76bc6 25 0 std::map<std::basic_string<char, std::char_traits<char>, std::allocator<char> >, IEC103::stConfigParam, std::less<std::basic_string<char, std::char_traits<char>, std::allocator<char> > >, std::allocator<std::pair<const std::basic_string<char, std::char_traits<char>, std::allocator<char> >, IEC103::stConfigParam> > >::lower_bound
FUNC 76bec 1a 0 std::map<std::basic_string<char, std::char_traits<char>, std::allocator<char> >, IEC103::stConfigParam, std::less<std::basic_string<char, std::char_traits<char>, std::allocator<char> > >, std::allocator<std::pair<const std::basic_string<char, std::char_traits<char>, std::allocator<char> >, IEC103::stConfigParam> > >::key_comp
FUNC 76c06 15 0 std::_Rb_tree_iterator<std::pair<const std::basic_string<char, std::char_traits<char>, std::allocator<char> >, IEC103::stConfigParam> >::operator*
FUNC 76c1c 1a 0 std::map<std::basic_string<char, std::char_traits<char>, std::allocator<char> >, IEC103::stConfigParam, std::less<std::basic_string<char, std::char_traits<char>, std::allocator<char> > >, std::allocator<std::pair<const std::basic_string<char, std::char_traits<char>, std::allocator<char> >, IEC103::stConfigParam> > >::end
FUNC 76c36 22 0 std::_Rb_tree_iterator<std::pair<const std::basic_string<char, std::char_traits<char>, std::allocator<char> >, IEC103::stConfigParam> >::operator==
FUNC 76c58 bf 0 IEC103::stConfigParam::stConfigParam
FUNC 76d18 6b 0 std::pair<const std::basic_string<char, std::char_traits<char>, std::allocator<char> >, IEC103::stConfigParam>::pair
FUNC 76d84 40 0 std::map<std::basic_string<char, std::char_traits<char>, std::allocator<char> >, IEC103::stConfigParam, std::less<std::basic_string<char, std::char_traits<char>, std::allocator<char> > >, std::allocator<std::pair<const std::basic_string<char, std::char_traits<char>, std::allocator<char> >, IEC103::stConfigParam> > >::insert
FUNC 76dc4 25 0 std::map<std::basic_string<char, std::char_traits<char>, std::allocator<char> >, std::map<std::basic_string<char, std::char_traits<char>, std::allocator<char> >, std::basic_string<char, std::char_traits<char>, std::allocator<char> >, std::less<std::basic_string<char, std::char_traits<char>, std::allocator<char> > >, std::allocator<std::pair<const std::basic_string<char, std::char_traits<char>, std::allocator<char> >, std::basic_string<char, std::char_traits<char>, std::allocator<char> > > > >, std::less<std::basic_string<char, std::char_traits<char>, std::allocator<char> > >, std::allocator<std::pair<const std::basic_string<char, std::char_traits<char>, std::allocator<char> >, std::map<std::basic_string<char, std::char_traits<char>, std::allocator<char> >, std::basic_string<char, std::char_traits<char>, std::allocator<char> >, std::less<std::basic_string<char, std::char_traits<char>, std::allocator<char> > >, std::allocator<std::pair<const std::basic_string<char, std::char_traits<char>, std::allocator<char> >, std::basic_string<char, std::char_traits<char>, std::allocator<char> > > > > > > >::lower_bound
FUNC 76dea 1a 0 std::map<std::basic_string<char, std::char_traits<char>, std::allocator<char> >, std::map<std::basic_string<char, std::char_traits<char>, std::allocator<char> >, std::basic_string<char, std::char_traits<char>, std::allocator<char> >, std::less<std::basic_string<char, std::char_traits<char>, std::allocator<char> > >, std::allocator<std::pair<const std::basic_string<char, std::char_traits<char>, std::allocator<char> >, std::basic_string<char, std::char_traits<char>, std::allocator<char> > > > >, std::less<std::basic_string<char, std::char_traits<char>, std::allocator<char> > >, std::allocator<std::pair<const std::basic_string<char, std::char_traits<char>, std::allocator<char> >, std::map<std::basic_string<char, std::char_traits<char>, std::allocator<char> >, std::basic_string<char, std::char_traits<char>, std::allocator<char> >, std::less<std::basic_string<char, std::char_traits<char>, std::allocator<char> > >, std::allocator<std::pair<const std::basic_string<char, std::char_traits<char>, std::allocator<char> >, std::basic_string<char, std::char_traits<char>, std::allocator<char> > > > > > > >::key_comp
FUNC 76e04 15 0 std::_Rb_tree_iterator<std::pair<const std::basic_string<char, std::char_traits<char>, std::allocator<char> >, std::map<std::basic_string<char, std::char_traits<char>, std::allocator<char> >, std::basic_string<char, std::char_traits<char>, std::allocator<char> >, std::less<std::basic_string<char, std::char_traits<char>, std::allocator<char> > >, std::allocator<std::pair<const std::basic_string<char, std::char_traits<char>, std::allocator<char> >, std::basic_string<char, std::char_traits<char>, std::allocator<char> > > > > > >::operator*
FUNC 76e1a 1a 0 std::map<std::basic_string<char, std::char_traits<char>, std::allocator<char> >, std::map<std::basic_string<char, std::char_traits<char>, std::allocator<char> >, std::basic_string<char, std::char_traits<char>, std::allocator<char> >, std::less<std::basic_string<char, std::char_traits<char>, std::allocator<char> > >, std::allocator<std::pair<const std::basic_string<char, std::char_traits<char>, std::allocator<char> >, std::basic_string<char, std::char_traits<char>, std::allocator<char> > > > >, std::less<std::basic_string<char, std::char_traits<char>, std::allocator<char> > >, std::allocator<std::pair<const std::basic_string<char, std::char_traits<char>, std::allocator<char> >, std::map<std::basic_string<char, std::char_traits<char>, std::allocator<char> >, std::basic_string<char, std::char_traits<char>, std::allocator<char> >, std::less<std::basic_string<char, std::char_traits<char>, std::allocator<char> > >, std::allocator<std::pair<const std::basic_string<char, std::char_traits<char>, std::allocator<char> >, std::basic_string<char, std::char_traits<char>, std::allocator<char> > > > > > > >::end
FUNC 76e34 22 0 std::_Rb_tree_iterator<std::pair<const std::basic_string<char, std::char_traits<char>, std::allocator<char> >, std::map<std::basic_string<char, std::char_traits<char>, std::allocator<char> >, std::basic_string<char, std::char_traits<char>, std::allocator<char> >, std::less<std::basic_string<char, std::char_traits<char>, std::allocator<char> > >, std::allocator<std::pair<const std::basic_string<char, std::char_traits<char>, std::allocator<char> >, std::basic_string<char, std::char_traits<char>, std::allocator<char> > > > > > >::operator==
FUNC 76e56 6b 0 std::pair<const std::basic_string<char, std::char_traits<char>, std::allocator<char> >, std::map<std::basic_string<char, std::char_traits<char>, std::allocator<char> >, std::basic_string<char, std::char_traits<char>, std::allocator<char> >, std::less<std::basic_string<char, std::char_traits<char>, std::allocator<char> > >, std::allocator<std::pair<const std::basic_string<char, std::char_traits<char>, std::allocator<char> >, std::basic_string<char, std::char_traits<char>, std::allocator<char> > > > > >::pair
FUNC 76ec2 40 0 std::map<std::basic_string<char, std::char_traits<char>, std::allocator<char> >, std::map<std::basic_string<char, std::char_traits<char>, std::allocator<char> >, std::basic_string<char, std::char_traits<char>, std::allocator<char> >, std::less<std::basic_string<char, std::char_traits<char>, std::allocator<char> > >, std::allocator<std::pair<const std::basic_string<char, std::char_traits<char>, std::allocator<char> >, std::basic_string<char, std::char_traits<char>, std::allocator<char> > > > >, std::less<std::basic_string<char, std::char_traits<char>, std::allocator<char> > >, std::allocator<std::pair<const std::basic_string<char, std::char_traits<char>, std::allocator<char> >, std::map<std::basic_string<char, std::char_traits<char>, std::allocator<char> >, std::basic_string<char, std::char_traits<char>, std::allocator<char> >, std::less<std::basic_string<char, std::char_traits<char>, std::allocator<char> > >, std::allocator<std::pair<const std::basic_string<char, std::char_traits<char>, std::allocator<char> >, std::basic_string<char, std::char_traits<char>, std::allocator<char> > > > > > > >::insert
FUNC 76f02 25 0 std::list<std::basic_string<char, std::char_traits<char>, std::allocator<char> >, std::allocator<std::basic_string<char, std::char_traits<char>, std::allocator<char> > > >::end
FUNC 76f28 40 0 std::list<std::basic_string<char, std::char_traits<char>, std::allocator<char> >, std::allocator<std::basic_string<char, std::char_traits<char>, std::allocator<char> > > >::_M_insert
FUNC 76f68 61 0 std::_Rb_tree<std::basic_string<char, std::char_traits<char>, std::allocator<char> >, std::pair<const std::basic_string<char, std::char_traits<char>, std::allocator<char> >, IEC61850_STRUCT::IED_61850>, std::_Select1st<std::pair<const std::basic_string<char, std::char_traits<char>, std::allocator<char> >, IEC61850_STRUCT::IED_61850> >, std::less<std::basic_string<char, std::char_traits<char>, std::allocator<char> > >, std::allocator<std::pair<const std::basic_string<char, std::char_traits<char>, std::allocator<char> >, IEC61850_STRUCT::IED_61850> > >::_Rb_tree_impl<std::less<std::basic_string<char, std::char_traits<char>, std::allocator<char> > >, false>::_Rb_tree_impl
FUNC 76fca a 0 __gnu_cxx::new_allocator<std::_Rb_tree_node<std::pair<const std::basic_string<char, std::char_traits<char>, std::allocator<char> >, IEC61850_STRUCT::IED_61850> > >::~new_allocator
FUNC 76fd4 12 0 std::_Rb_tree<std::basic_string<char, std::char_traits<char>, std::allocator<char> >, std::pair<const std::basic_string<char, std::char_traits<char>, std::allocator<char> >, IEC61850_STRUCT::IED_61850>, std::_Select1st<std::pair<const std::basic_string<char, std::char_traits<char>, std::allocator<char> >, IEC61850_STRUCT::IED_61850> >, std::less<std::basic_string<char, std::char_traits<char>, std::allocator<char> > >, std::allocator<std::pair<const std::basic_string<char, std::char_traits<char>, std::allocator<char> >, IEC61850_STRUCT::IED_61850> > >::_S_right
FUNC 76fe6 12 0 std::_Rb_tree<std::basic_string<char, std::char_traits<char>, std::allocator<char> >, std::pair<const std::basic_string<char, std::char_traits<char>, std::allocator<char> >, IEC61850_STRUCT::IED_61850>, std::_Select1st<std::pair<const std::basic_string<char, std::char_traits<char>, std::allocator<char> >, IEC61850_STRUCT::IED_61850> >, std::less<std::basic_string<char, std::char_traits<char>, std::allocator<char> > >, std::allocator<std::pair<const std::basic_string<char, std::char_traits<char>, std::allocator<char> >, IEC61850_STRUCT::IED_61850> > >::_S_left
FUNC 76ff8 86 0 std::_Rb_tree<std::basic_string<char, std::char_traits<char>, std::allocator<char> >, std::pair<const std::basic_string<char, std::char_traits<char>, std::allocator<char> >, IEC61850_STRUCT::IED_61850>, std::_Select1st<std::pair<const std::basic_string<char, std::char_traits<char>, std::allocator<char> >, IEC61850_STRUCT::IED_61850> >, std::less<std::basic_string<char, std::char_traits<char>, std::allocator<char> > >, std::allocator<std::pair<const std::basic_string<char, std::char_traits<char>, std::allocator<char> >, IEC61850_STRUCT::IED_61850> > >::_M_destroy_node
FUNC 7707e 31 0 std::_List_base<std::basic_string<char, std::char_traits<char>, std::allocator<char> >, std::allocator<std::basic_string<char, std::char_traits<char>, std::allocator<char> > > >::_List_impl::_List_impl
FUNC 770b0 a 0 __gnu_cxx::new_allocator<std::_List_node<std::basic_string<char, std::char_traits<char>, std::allocator<char> > > >::~new_allocator
FUNC 770ba 3b 0 std::_List_base<std::basic_string<char, std::char_traits<char>, std::allocator<char> >, std::allocator<std::basic_string<char, std::char_traits<char>, std::allocator<char> > > >::_M_get_Tp_allocator
FUNC 770f6 2a 0 std::_List_base<std::basic_string<char, std::char_traits<char>, std::allocator<char> >, std::allocator<std::basic_string<char, std::char_traits<char>, std::allocator<char> > > >::_M_put_node
FUNC 77120 61 0 std::_Rb_tree<std::basic_string<char, std::char_traits<char>, std::allocator<char> >, std::pair<const std::basic_string<char, std::char_traits<char>, std::allocator<char> >, std::map<int, std::map<int, IEC104WF::stPointTable, std::less<int>, std::allocator<std::pair<const int, IEC104WF::stPointTable> > >, std::less<int>, std::allocator<std::pair<const int, std::map<int, IEC104WF::stPointTable, std::less<int>, std::allocator<std::pair<const int, IEC104WF::stPointTable> > > > > > >, std::_Select1st<std::pair<const std::basic_string<char, std::char_traits<char>, std::allocator<char> >, std::map<int, std::map<int, IEC104WF::stPointTable, std::less<int>, std::allocator<std::pair<const int, IEC104WF::stPointTable> > >, std::less<int>, std::allocator<std::pair<const int, std::map<int, IEC104WF::stPointTable, std::less<int>, std::allocator<std::pair<const int, IEC104WF::stPointTable> > > > > > > >, std::less<std::basic_string<char, std::char_traits<char>, std::allocator<char> > >, std::allocator<std::pair<const std::basic_string<char, std::char_traits<char>, std::allocator<char> >, std::map<int, std::map<int, IEC104WF::stPointTable, std::less<int>, std::allocator<std::pair<const int, IEC104WF::stPointTable> > >, std::less<int>, std::allocator<std::pair<const int, std::map<int, IEC104WF::stPointTable, std::less<int>, std::allocator<std::pair<const int, IEC104WF::stPointTable> > > > > > > > >::_Rb_tree_impl<std::less<std::basic_string<char, std::char_traits<char>, std::allocator<char> > >, false>::_Rb_tree_impl
FUNC 77182 a 0 __gnu_cxx::new_allocator<std::_Rb_tree_node<std::pair<const std::basic_string<char, std::char_traits<char>, std::allocator<char> >, std::map<int, std::map<int, IEC104WF::stPointTable, std::less<int>, std::allocator<std::pair<const int, IEC104WF::stPointTable> > >, std::less<int>, std::allocator<std::pair<const int, std::map<int, IEC104WF::stPointTable, std::less<int>, std::allocator<std::pair<const int, IEC104WF::stPointTable> > > > > > > > >::~new_allocator
FUNC 7718c 12 0 std::_Rb_tree<std::basic_string<char, std::char_traits<char>, std::allocator<char> >, std::pair<const std::basic_string<char, std::char_traits<char>, std::allocator<char> >, std::map<int, std::map<int, IEC104WF::stPointTable, std::less<int>, std::allocator<std::pair<const int, IEC104WF::stPointTable> > >, std::less<int>, std::allocator<std::pair<const int, std::map<int, IEC104WF::stPointTable, std::less<int>, std::allocator<std::pair<const int, IEC104WF::stPointTable> > > > > > >, std::_Select1st<std::pair<const std::basic_string<char, std::char_traits<char>, std::allocator<char> >, std::map<int, std::map<int, IEC104WF::stPointTable, std::less<int>, std::allocator<std::pair<const int, IEC104WF::stPointTable> > >, std::less<int>, std::allocator<std::pair<const int, std::map<int, IEC104WF::stPointTable, std::less<int>, std::allocator<std::pair<const int, IEC104WF::stPointTable> > > > > > > >, std::less<std::basic_string<char, std::char_traits<char>, std::allocator<char> > >, std::allocator<std::pair<const std::basic_string<char, std::char_traits<char>, std::allocator<char> >, std::map<int, std::map<int, IEC104WF::stPointTable, std::less<int>, std::allocator<std::pair<const int, IEC104WF::stPointTable> > >, std::less<int>, std::allocator<std::pair<const int, std::map<int, IEC104WF::stPointTable, std::less<int>, std::allocator<std::pair<const int, IEC104WF::stPointTable> > > > > > > > >::_S_right
FUNC 7719e 12 0 std::_Rb_tree<std::basic_string<char, std::char_traits<char>, std::allocator<char> >, std::pair<const std::basic_string<char, std::char_traits<char>, std::allocator<char> >, std::map<int, std::map<int, IEC104WF::stPointTable, std::less<int>, std::allocator<std::pair<const int, IEC104WF::stPointTable> > >, std::less<int>, std::allocator<std::pair<const int, std::map<int, IEC104WF::stPointTable, std::less<int>, std::allocator<std::pair<const int, IEC104WF::stPointTable> > > > > > >, std::_Select1st<std::pair<const std::basic_string<char, std::char_traits<char>, std::allocator<char> >, std::map<int, std::map<int, IEC104WF::stPointTable, std::less<int>, std::allocator<std::pair<const int, IEC104WF::stPointTable> > >, std::less<int>, std::allocator<std::pair<const int, std::map<int, IEC104WF::stPointTable, std::less<int>, std::allocator<std::pair<const int, IEC104WF::stPointTable> > > > > > > >, std::less<std::basic_string<char, std::char_traits<char>, std::allocator<char> > >, std::allocator<std::pair<const std::basic_string<char, std::char_traits<char>, std::allocator<char> >, std::map<int, std::map<int, IEC104WF::stPointTable, std::less<int>, std::allocator<std::pair<const int, IEC104WF::stPointTable> > >, std::less<int>, std::allocator<std::pair<const int, std::map<int, IEC104WF::stPointTable, std::less<int>, std::allocator<std::pair<const int, IEC104WF::stPointTable> > > > > > > > >::_S_left
FUNC 771b0 86 0 std::_Rb_tree<std::basic_string<char, std::char_traits<char>, std::allocator<char> >, std::pair<const std::basic_string<char, std::char_traits<char>, std::allocator<char> >, std::map<int, std::map<int, IEC104WF::stPointTable, std::less<int>, std::allocator<std::pair<const int, IEC104WF::stPointTable> > >, std::less<int>, std::allocator<std::pair<const int, std::map<int, IEC104WF::stPointTable, std::less<int>, std::allocator<std::pair<const int, IEC104WF::stPointTable> > > > > > >, std::_Select1st<std::pair<const std::basic_string<char, std::char_traits<char>, std::allocator<char> >, std::map<int, std::map<int, IEC104WF::stPointTable, std::less<int>, std::allocator<std::pair<const int, IEC104WF::stPointTable> > >, std::less<int>, std::allocator<std::pair<const int, std::map<int, IEC104WF::stPointTable, std::less<int>, std::allocator<std::pair<const int, IEC104WF::stPointTable> > > > > > > >, std::less<std::basic_string<char, std::char_traits<char>, std::allocator<char> > >, std::allocator<std::pair<const std::basic_string<char, std::char_traits<char>, std::allocator<char> >, std::map<int, std::map<int, IEC104WF::stPointTable, std::less<int>, std::allocator<std::pair<const int, IEC104WF::stPointTable> > >, std::less<int>, std::allocator<std::pair<const int, std::map<int, IEC104WF::stPointTable, std::less<int>, std::allocator<std::pair<const int, IEC104WF::stPointTable> > > > > > > > >::_M_destroy_node
FUNC 77236 61 0 std::_Rb_tree<int, std::pair<const int, std::map<int, IEC104WF::stPointTable, std::less<int>, std::allocator<std::pair<const int, IEC104WF::stPointTable> > > >, std::_Select1st<std::pair<const int, std::map<int, IEC104WF::stPointTable, std::less<int>, std::allocator<std::pair<const int, IEC104WF::stPointTable> > > > >, std::less<int>, std::allocator<std::pair<const int, std::map<int, IEC104WF::stPointTable, std::less<int>, std::allocator<std::pair<const int, IEC104WF::stPointTable> > > > > >::_Rb_tree_impl<std::less<int>, false>::_Rb_tree_impl
FUNC 77298 a 0 __gnu_cxx::new_allocator<std::_Rb_tree_node<std::pair<const int, std::map<int, IEC104WF::stPointTable, std::less<int>, std::allocator<std::pair<const int, IEC104WF::stPointTable> > > > > >::~new_allocator
FUNC 772a2 12 0 std::_Rb_tree<int, std::pair<const int, std::map<int, IEC104WF::stPointTable, std::less<int>, std::allocator<std::pair<const int, IEC104WF::stPointTable> > > >, std::_Select1st<std::pair<const int, std::map<int, IEC104WF::stPointTable, std::less<int>, std::allocator<std::pair<const int, IEC104WF::stPointTable> > > > >, std::less<int>, std::allocator<std::pair<const int, std::map<int, IEC104WF::stPointTable, std::less<int>, std::allocator<std::pair<const int, IEC104WF::stPointTable> > > > > >::_S_right
FUNC 772b4 12 0 std::_Rb_tree<int, std::pair<const int, std::map<int, IEC104WF::stPointTable, std::less<int>, std::allocator<std::pair<const int, IEC104WF::stPointTable> > > >, std::_Select1st<std::pair<const int, std::map<int, IEC104WF::stPointTable, std::less<int>, std::allocator<std::pair<const int, IEC104WF::stPointTable> > > > >, std::less<int>, std::allocator<std::pair<const int, std::map<int, IEC104WF::stPointTable, std::less<int>, std::allocator<std::pair<const int, IEC104WF::stPointTable> > > > > >::_S_left
FUNC 772c6 86 0 std::_Rb_tree<int, std::pair<const int, std::map<int, IEC104WF::stPointTable, std::less<int>, std::allocator<std::pair<const int, IEC104WF::stPointTable> > > >, std::_Select1st<std::pair<const int, std::map<int, IEC104WF::stPointTable, std::less<int>, std::allocator<std::pair<const int, IEC104WF::stPointTable> > > > >, std::less<int>, std::allocator<std::pair<const int, std::map<int, IEC104WF::stPointTable, std::less<int>, std::allocator<std::pair<const int, IEC104WF::stPointTable> > > > > >::_M_destroy_node
FUNC 7734c 61 0 std::_Rb_tree<int, std::pair<const int, IEC104WF::stPointTable>, std::_Select1st<std::pair<const int, IEC104WF::stPointTable> >, std::less<int>, std::allocator<std::pair<const int, IEC104WF::stPointTable> > >::_Rb_tree_impl<std::less<int>, false>::_Rb_tree_impl
FUNC 773ae a 0 __gnu_cxx::new_allocator<std::_Rb_tree_node<std::pair<const int, IEC104WF::stPointTable> > >::~new_allocator
FUNC 773b8 12 0 std::_Rb_tree<int, std::pair<const int, IEC104WF::stPointTable>, std::_Select1st<std::pair<const int, IEC104WF::stPointTable> >, std::less<int>, std::allocator<std::pair<const int, IEC104WF::stPointTable> > >::_S_right
FUNC 773ca 12 0 std::_Rb_tree<int, std::pair<const int, IEC104WF::stPointTable>, std::_Select1st<std::pair<const int, IEC104WF::stPointTable> >, std::less<int>, std::allocator<std::pair<const int, IEC104WF::stPointTable> > >::_S_left
FUNC 773dc 86 0 std::_Rb_tree<int, std::pair<const int, IEC104WF::stPointTable>, std::_Select1st<std::pair<const int, IEC104WF::stPointTable> >, std::less<int>, std::allocator<std::pair<const int, IEC104WF::stPointTable> > >::_M_destroy_node
FUNC 77462 61 0 std::_Rb_tree<std::basic_string<char, std::char_traits<char>, std::allocator<char> >, std::pair<const std::basic_string<char, std::char_traits<char>, std::allocator<char> >, IEC103::stConfigParam>, std::_Select1st<std::pair<const std::basic_string<char, std::char_traits<char>, std::allocator<char> >, IEC103::stConfigParam> >, std::less<std::basic_string<char, std::char_traits<char>, std::allocator<char> > >, std::allocator<std::pair<const std::basic_string<char, std::char_traits<char>, std::allocator<char> >, IEC103::stConfigParam> > >::_Rb_tree_impl<std::less<std::basic_string<char, std::char_traits<char>, std::allocator<char> > >, false>::_Rb_tree_impl
FUNC 774c4 61 0 std::_Rb_tree<std::basic_string<char, std::char_traits<char>, std::allocator<char> >, std::pair<const std::basic_string<char, std::char_traits<char>, std::allocator<char> >, std::map<std::basic_string<char, std::char_traits<char>, std::allocator<char> >, std::basic_string<char, std::char_traits<char>, std::allocator<char> >, std::less<std::basic_string<char, std::char_traits<char>, std::allocator<char> > >, std::allocator<std::pair<const std::basic_string<char, std::char_traits<char>, std::allocator<char> >, std::basic_string<char, std::char_traits<char>, std::allocator<char> > > > > >, std::_Select1st<std::pair<const std::basic_string<char, std::char_traits<char>, std::allocator<char> >, std::map<std::basic_string<char, std::char_traits<char>, std::allocator<char> >, std::basic_string<char, std::char_traits<char>, std::allocator<char> >, std::less<std::basic_string<char, std::char_traits<char>, std::allocator<char> > >, std::allocator<std::pair<const std::basic_string<char, std::char_traits<char>, std::allocator<char> >, std::basic_string<char, std::char_traits<char>, std::allocator<char> > > > > > >, std::less<std::basic_string<char, std::char_traits<char>, std::allocator<char> > >, std::allocator<std::pair<const std::basic_string<char, std::char_traits<char>, std::allocator<char> >, std::map<std::basic_string<char, std::char_traits<char>, std::allocator<char> >, std::basic_string<char, std::char_traits<char>, std::allocator<char> >, std::less<std::basic_string<char, std::char_traits<char>, std::allocator<char> > >, std::allocator<std::pair<const std::basic_string<char, std::char_traits<char>, std::allocator<char> >, std::basic_string<char, std::char_traits<char>, std::allocator<char> > > > > > > >::_Rb_tree_impl<std::less<std::basic_string<char, std::char_traits<char>, std::allocator<char> > >, false>::_Rb_tree_impl
FUNC 77526 12 0 std::_Rb_tree<std::basic_string<char, std::char_traits<char>, std::allocator<char> >, std::pair<const std::basic_string<char, std::char_traits<char>, std::allocator<char> >, IEC61850_STRUCT::IED_61850>, std::_Select1st<std::pair<const std::basic_string<char, std::char_traits<char>, std::allocator<char> >, IEC61850_STRUCT::IED_61850> >, std::less<std::basic_string<char, std::char_traits<char>, std::allocator<char> > >, std::allocator<std::pair<const std::basic_string<char, std::char_traits<char>, std::allocator<char> >, IEC61850_STRUCT::IED_61850> > >::_M_end
FUNC 77538 12 0 std::_Rb_tree<std::basic_string<char, std::char_traits<char>, std::allocator<char> >, std::pair<const std::basic_string<char, std::char_traits<char>, std::allocator<char> >, IEC61850_STRUCT::IED_61850>, std::_Select1st<std::pair<const std::basic_string<char, std::char_traits<char>, std::allocator<char> >, IEC61850_STRUCT::IED_61850> >, std::less<std::basic_string<char, std::char_traits<char>, std::allocator<char> > >, std::allocator<std::pair<const std::basic_string<char, std::char_traits<char>, std::allocator<char> >, IEC61850_STRUCT::IED_61850> > >::_M_leftmost
FUNC 7754a 12 0 std::_Rb_tree<std::basic_string<char, std::char_traits<char>, std::allocator<char> >, std::pair<const std::basic_string<char, std::char_traits<char>, std::allocator<char> >, IEC61850_STRUCT::IED_61850>, std::_Select1st<std::pair<const std::basic_string<char, std::char_traits<char>, std::allocator<char> >, IEC61850_STRUCT::IED_61850> >, std::less<std::basic_string<char, std::char_traits<char>, std::allocator<char> > >, std::allocator<std::pair<const std::basic_string<char, std::char_traits<char>, std::allocator<char> >, IEC61850_STRUCT::IED_61850> > >::_M_root
FUNC 7755c 12 0 std::_Rb_tree<std::basic_string<char, std::char_traits<char>, std::allocator<char> >, std::pair<const std::basic_string<char, std::char_traits<char>, std::allocator<char> >, IEC61850_STRUCT::IED_61850>, std::_Select1st<std::pair<const std::basic_string<char, std::char_traits<char>, std::allocator<char> >, IEC61850_STRUCT::IED_61850> >, std::less<std::basic_string<char, std::char_traits<char>, std::allocator<char> > >, std::allocator<std::pair<const std::basic_string<char, std::char_traits<char>, std::allocator<char> >, IEC61850_STRUCT::IED_61850> > >::_M_rightmost
FUNC 7756e e 0 std::_Rb_tree<std::basic_string<char, std::char_traits<char>, std::allocator<char> >, std::pair<const std::basic_string<char, std::char_traits<char>, std::allocator<char> >, IEC61850_STRUCT::IED_61850>, std::_Select1st<std::pair<const std::basic_string<char, std::char_traits<char>, std::allocator<char> >, IEC61850_STRUCT::IED_61850> >, std::less<std::basic_string<char, std::char_traits<char>, std::allocator<char> > >, std::allocator<std::pair<const std::basic_string<char, std::char_traits<char>, std::allocator<char> >, IEC61850_STRUCT::IED_61850> > >::_M_get_Node_allocator
FUNC 7757c 70 0 std::_Rb_tree<std::basic_string<char, std::char_traits<char>, std::allocator<char> >, std::pair<const std::basic_string<char, std::char_traits<char>, std::allocator<char> >, IEC61850_STRUCT::IED_61850>, std::_Select1st<std::pair<const std::basic_string<char, std::char_traits<char>, std::allocator<char> >, IEC61850_STRUCT::IED_61850> >, std::less<std::basic_string<char, std::char_traits<char>, std::allocator<char> > >, std::allocator<std::pair<const std::basic_string<char, std::char_traits<char>, std::allocator<char> >, IEC61850_STRUCT::IED_61850> > >::_Rb_tree_impl<std::less<std::basic_string<char, std::char_traits<char>, std::allocator<char> > >, false>::_Rb_tree_impl
FUNC 775ec 12 0 std::_Rb_tree<std::basic_string<char, std::char_traits<char>, std::allocator<char> >, std::pair<const std::basic_string<char, std::char_traits<char>, std::allocator<char> >, IEC61850_STRUCT::IED_61850>, std::_Select1st<std::pair<const std::basic_string<char, std::char_traits<char>, std::allocator<char> >, IEC61850_STRUCT::IED_61850> >, std::less<std::basic_string<char, std::char_traits<char>, std::allocator<char> > >, std::allocator<std::pair<const std::basic_string<char, std::char_traits<char>, std::allocator<char> >, IEC61850_STRUCT::IED_61850> > >::_M_root
FUNC 775fe 169 0 std::_Rb_tree<std::basic_string<char, std::char_traits<char>, std::allocator<char> >, std::pair<const std::basic_string<char, std::char_traits<char>, std::allocator<char> >, IEC61850_STRUCT::IED_61850>, std::_Select1st<std::pair<const std::basic_string<char, std::char_traits<char>, std::allocator<char> >, IEC61850_STRUCT::IED_61850> >, std::less<std::basic_string<char, std::char_traits<char>, std::allocator<char> > >, std::allocator<std::pair<const std::basic_string<char, std::char_traits<char>, std::allocator<char> >, IEC61850_STRUCT::IED_61850> > >::_M_copy
FUNC 77768 12 0 std::_Rb_tree<std::basic_string<char, std::char_traits<char>, std::allocator<char> >, std::pair<const std::basic_string<char, std::char_traits<char>, std::allocator<char> >, IEC61850_STRUCT::IED_61850>, std::_Select1st<std::pair<const std::basic_string<char, std::char_traits<char>, std::allocator<char> >, IEC61850_STRUCT::IED_61850> >, std::less<std::basic_string<char, std::char_traits<char>, std::allocator<char> > >, std::allocator<std::pair<const std::basic_string<char, std::char_traits<char>, std::allocator<char> >, IEC61850_STRUCT::IED_61850> > >::_M_begin
FUNC 7777a 1a 0 std::_Rb_tree<std::basic_string<char, std::char_traits<char>, std::allocator<char> >, std::pair<const std::basic_string<char, std::char_traits<char>, std::allocator<char> >, IEC61850_STRUCT::IED_61850>, std::_Select1st<std::pair<const std::basic_string<char, std::char_traits<char>, std::allocator<char> >, IEC61850_STRUCT::IED_61850> >, std::less<std::basic_string<char, std::char_traits<char>, std::allocator<char> > >, std::allocator<std::pair<const std::basic_string<char, std::char_traits<char>, std::allocator<char> >, IEC61850_STRUCT::IED_61850> > >::_S_minimum
FUNC 77794 1a 0 std::_Rb_tree<std::basic_string<char, std::char_traits<char>, std::allocator<char> >, std::pair<const std::basic_string<char, std::char_traits<char>, std::allocator<char> >, IEC61850_STRUCT::IED_61850>, std::_Select1st<std::pair<const std::basic_string<char, std::char_traits<char>, std::allocator<char> >, IEC61850_STRUCT::IED_61850> >, std::less<std::basic_string<char, std::char_traits<char>, std::allocator<char> > >, std::allocator<std::pair<const std::basic_string<char, std::char_traits<char>, std::allocator<char> >, IEC61850_STRUCT::IED_61850> > >::_S_maximum
FUNC 777ae 12 0 std::_Rb_tree<std::basic_string<char, std::char_traits<char>, std::allocator<char> >, std::pair<const std::basic_string<char, std::char_traits<char>, std::allocator<char> >, IEC103::stConfigParam>, std::_Select1st<std::pair<const std::basic_string<char, std::char_traits<char>, std::allocator<char> >, IEC103::stConfigParam> >, std::less<std::basic_string<char, std::char_traits<char>, std::allocator<char> > >, std::allocator<std::pair<const std::basic_string<char, std::char_traits<char>, std::allocator<char> >, IEC103::stConfigParam> > >::_M_end
FUNC 777c0 12 0 std::_Rb_tree<std::basic_string<char, std::char_traits<char>, std::allocator<char> >, std::pair<const std::basic_string<char, std::char_traits<char>, std::allocator<char> >, IEC103::stConfigParam>, std::_Select1st<std::pair<const std::basic_string<char, std::char_traits<char>, std::allocator<char> >, IEC103::stConfigParam> >, std::less<std::basic_string<char, std::char_traits<char>, std::allocator<char> > >, std::allocator<std::pair<const std::basic_string<char, std::char_traits<char>, std::allocator<char> >, IEC103::stConfigParam> > >::_M_leftmost
FUNC 777d2 12 0 std::_Rb_tree<std::basic_string<char, std::char_traits<char>, std::allocator<char> >, std::pair<const std::basic_string<char, std::char_traits<char>, std::allocator<char> >, IEC103::stConfigParam>, std::_Select1st<std::pair<const std::basic_string<char, std::char_traits<char>, std::allocator<char> >, IEC103::stConfigParam> >, std::less<std::basic_string<char, std::char_traits<char>, std::allocator<char> > >, std::allocator<std::pair<const std::basic_string<char, std::char_traits<char>, std::allocator<char> >, IEC103::stConfigParam> > >::_M_root
FUNC 777e4 12 0 std::_Rb_tree<std::basic_string<char, std::char_traits<char>, std::allocator<char> >, std::pair<const std::basic_string<char, std::char_traits<char>, std::allocator<char> >, IEC103::stConfigParam>, std::_Select1st<std::pair<const std::basic_string<char, std::char_traits<char>, std::allocator<char> >, IEC103::stConfigParam> >, std::less<std::basic_string<char, std::char_traits<char>, std::allocator<char> > >, std::allocator<std::pair<const std::basic_string<char, std::char_traits<char>, std::allocator<char> >, IEC103::stConfigParam> > >::_M_rightmost
FUNC 777f6 12 0 std::_Rb_tree<std::basic_string<char, std::char_traits<char>, std::allocator<char> >, std::pair<const std::basic_string<char, std::char_traits<char>, std::allocator<char> >, std::map<std::basic_string<char, std::char_traits<char>, std::allocator<char> >, std::basic_string<char, std::char_traits<char>, std::allocator<char> >, std::less<std::basic_string<char, std::char_traits<char>, std::allocator<char> > >, std::allocator<std::pair<const std::basic_string<char, std::char_traits<char>, std::allocator<char> >, std::basic_string<char, std::char_traits<char>, std::allocator<char> > > > > >, std::_Select1st<std::pair<const std::basic_string<char, std::char_traits<char>, std::allocator<char> >, std::map<std::basic_string<char, std::char_traits<char>, std::allocator<char> >, std::basic_string<char, std::char_traits<char>, std::allocator<char> >, std::less<std::basic_string<char, std::char_traits<char>, std::allocator<char> > >, std::allocator<std::pair<const std::basic_string<char, std::char_traits<char>, std::allocator<char> >, std::basic_string<char, std::char_traits<char>, std::allocator<char> > > > > > >, std::less<std::basic_string<char, std::char_traits<char>, std::allocator<char> > >, std::allocator<std::pair<const std::basic_string<char, std::char_traits<char>, std::allocator<char> >, std::map<std::basic_string<char, std::char_traits<char>, std::allocator<char> >, std::basic_string<char, std::char_traits<char>, std::allocator<char> >, std::less<std::basic_string<char, std::char_traits<char>, std::allocator<char> > >, std::allocator<std::pair<const std::basic_string<char, std::char_traits<char>, std::allocator<char> >, std::basic_string<char, std::char_traits<char>, std::allocator<char> > > > > > > >::_M_end
FUNC 77808 12 0 std::_Rb_tree<std::basic_string<char, std::char_traits<char>, std::allocator<char> >, std::pair<const std::basic_string<char, std::char_traits<char>, std::allocator<char> >, std::map<std::basic_string<char, std::char_traits<char>, std::allocator<char> >, std::basic_string<char, std::char_traits<char>, std::allocator<char> >, std::less<std::basic_string<char, std::char_traits<char>, std::allocator<char> > >, std::allocator<std::pair<const std::basic_string<char, std::char_traits<char>, std::allocator<char> >, std::basic_string<char, std::char_traits<char>, std::allocator<char> > > > > >, std::_Select1st<std::pair<const std::basic_string<char, std::char_traits<char>, std::allocator<char> >, std::map<std::basic_string<char, std::char_traits<char>, std::allocator<char> >, std::basic_string<char, std::char_traits<char>, std::allocator<char> >, std::less<std::basic_string<char, std::char_traits<char>, std::allocator<char> > >, std::allocator<std::pair<const std::basic_string<char, std::char_traits<char>, std::allocator<char> >, std::basic_string<char, std::char_traits<char>, std::allocator<char> > > > > > >, std::less<std::basic_string<char, std::char_traits<char>, std::allocator<char> > >, std::allocator<std::pair<const std::basic_string<char, std::char_traits<char>, std::allocator<char> >, std::map<std::basic_string<char, std::char_traits<char>, std::allocator<char> >, std::basic_string<char, std::char_traits<char>, std::allocator<char> >, std::less<std::basic_string<char, std::char_traits<char>, std::allocator<char> > >, std::allocator<std::pair<const std::basic_string<char, std::char_traits<char>, std::allocator<char> >, std::basic_string<char, std::char_traits<char>, std::allocator<char> > > > > > > >::_M_leftmost
FUNC 7781a 12 0 std::_Rb_tree<std::basic_string<char, std::char_traits<char>, std::allocator<char> >, std::pair<const std::basic_string<char, std::char_traits<char>, std::allocator<char> >, std::map<std::basic_string<char, std::char_traits<char>, std::allocator<char> >, std::basic_string<char, std::char_traits<char>, std::allocator<char> >, std::less<std::basic_string<char, std::char_traits<char>, std::allocator<char> > >, std::allocator<std::pair<const std::basic_string<char, std::char_traits<char>, std::allocator<char> >, std::basic_string<char, std::char_traits<char>, std::allocator<char> > > > > >, std::_Select1st<std::pair<const std::basic_string<char, std::char_traits<char>, std::allocator<char> >, std::map<std::basic_string<char, std::char_traits<char>, std::allocator<char> >, std::basic_string<char, std::char_traits<char>, std::allocator<char> >, std::less<std::basic_string<char, std::char_traits<char>, std::allocator<char> > >, std::allocator<std::pair<const std::basic_string<char, std::char_traits<char>, std::allocator<char> >, std::basic_string<char, std::char_traits<char>, std::allocator<char> > > > > > >, std::less<std::basic_string<char, std::char_traits<char>, std::allocator<char> > >, std::allocator<std::pair<const std::basic_string<char, std::char_traits<char>, std::allocator<char> >, std::map<std::basic_string<char, std::char_traits<char>, std::allocator<char> >, std::basic_string<char, std::char_traits<char>, std::allocator<char> >, std::less<std::basic_string<char, std::char_traits<char>, std::allocator<char> > >, std::allocator<std::pair<const std::basic_string<char, std::char_traits<char>, std::allocator<char> >, std::basic_string<char, std::char_traits<char>, std::allocator<char> > > > > > > >::_M_root
FUNC 7782c 12 0 std::_Rb_tree<std::basic_string<char, std::char_traits<char>, std::allocator<char> >, std::pair<const std::basic_string<char, std::char_traits<char>, std::allocator<char> >, std::map<std::basic_string<char, std::char_traits<char>, std::allocator<char> >, std::basic_string<char, std::char_traits<char>, std::allocator<char> >, std::less<std::basic_string<char, std::char_traits<char>, std::allocator<char> > >, std::allocator<std::pair<const std::basic_string<char, std::char_traits<char>, std::allocator<char> >, std::basic_string<char, std::char_traits<char>, std::allocator<char> > > > > >, std::_Select1st<std::pair<const std::basic_string<char, std::char_traits<char>, std::allocator<char> >, std::map<std::basic_string<char, std::char_traits<char>, std::allocator<char> >, std::basic_string<char, std::char_traits<char>, std::allocator<char> >, std::less<std::basic_string<char, std::char_traits<char>, std::allocator<char> > >, std::allocator<std::pair<const std::basic_string<char, std::char_traits<char>, std::allocator<char> >, std::basic_string<char, std::char_traits<char>, std::allocator<char> > > > > > >, std::less<std::basic_string<char, std::char_traits<char>, std::allocator<char> > >, std::allocator<std::pair<const std::basic_string<char, std::char_traits<char>, std::allocator<char> >, std::map<std::basic_string<char, std::char_traits<char>, std::allocator<char> >, std::basic_string<char, std::char_traits<char>, std::allocator<char> >, std::less<std::basic_string<char, std::char_traits<char>, std::allocator<char> > >, std::allocator<std::pair<const std::basic_string<char, std::char_traits<char>, std::allocator<char> >, std::basic_string<char, std::char_traits<char>, std::allocator<char> > > > > > > >::_M_rightmost
FUNC 7783e 70 0 std::_Rb_tree<std::basic_string<char, std::char_traits<char>, std::allocator<char> >, std::pair<const std::basic_string<char, std::char_traits<char>, std::allocator<char> >, IEC103::stConfigParam>, std::_Select1st<std::pair<const std::basic_string<char, std::char_traits<char>, std::allocator<char> >, IEC103::stConfigParam> >, std::less<std::basic_string<char, std::char_traits<char>, std::allocator<char> > >, std::allocator<std::pair<const std::basic_string<char, std::char_traits<char>, std::allocator<char> >, IEC103::stConfigParam> > >::_Rb_tree_impl<std::less<std::basic_string<char, std::char_traits<char>, std::allocator<char> > >, false>::_Rb_tree_impl
FUNC 778ae 12 0 std::_Rb_tree<std::basic_string<char, std::char_traits<char>, std::allocator<char> >, std::pair<const std::basic_string<char, std::char_traits<char>, std::allocator<char> >, IEC103::stConfigParam>, std::_Select1st<std::pair<const std::basic_string<char, std::char_traits<char>, std::allocator<char> >, IEC103::stConfigParam> >, std::less<std::basic_string<char, std::char_traits<char>, std::allocator<char> > >, std::allocator<std::pair<const std::basic_string<char, std::char_traits<char>, std::allocator<char> >, IEC103::stConfigParam> > >::_M_root
FUNC 778c0 169 0 std::_Rb_tree<std::basic_string<char, std::char_traits<char>, std::allocator<char> >, std::pair<const std::basic_string<char, std::char_traits<char>, std::allocator<char> >, IEC103::stConfigParam>, std::_Select1st<std::pair<const std::basic_string<char, std::char_traits<char>, std::allocator<char> >, IEC103::stConfigParam> >, std::less<std::basic_string<char, std::char_traits<char>, std::allocator<char> > >, std::allocator<std::pair<const std::basic_string<char, std::char_traits<char>, std::allocator<char> >, IEC103::stConfigParam> > >::_M_copy
FUNC 77a2a 12 0 std::_Rb_tree<std::basic_string<char, std::char_traits<char>, std::allocator<char> >, std::pair<const std::basic_string<char, std::char_traits<char>, std::allocator<char> >, IEC103::stConfigParam>, std::_Select1st<std::pair<const std::basic_string<char, std::char_traits<char>, std::allocator<char> >, IEC103::stConfigParam> >, std::less<std::basic_string<char, std::char_traits<char>, std::allocator<char> > >, std::allocator<std::pair<const std::basic_string<char, std::char_traits<char>, std::allocator<char> >, IEC103::stConfigParam> > >::_M_begin
FUNC 77a3c 1a 0 std::_Rb_tree<std::basic_string<char, std::char_traits<char>, std::allocator<char> >, std::pair<const std::basic_string<char, std::char_traits<char>, std::allocator<char> >, IEC103::stConfigParam>, std::_Select1st<std::pair<const std::basic_string<char, std::char_traits<char>, std::allocator<char> >, IEC103::stConfigParam> >, std::less<std::basic_string<char, std::char_traits<char>, std::allocator<char> > >, std::allocator<std::pair<const std::basic_string<char, std::char_traits<char>, std::allocator<char> >, IEC103::stConfigParam> > >::_S_minimum
FUNC 77a56 1a 0 std::_Rb_tree<std::basic_string<char, std::char_traits<char>, std::allocator<char> >, std::pair<const std::basic_string<char, std::char_traits<char>, std::allocator<char> >, IEC103::stConfigParam>, std::_Select1st<std::pair<const std::basic_string<char, std::char_traits<char>, std::allocator<char> >, IEC103::stConfigParam> >, std::less<std::basic_string<char, std::char_traits<char>, std::allocator<char> > >, std::allocator<std::pair<const std::basic_string<char, std::char_traits<char>, std::allocator<char> >, IEC103::stConfigParam> > >::_S_maximum
FUNC 77a70 70 0 std::_Rb_tree<std::basic_string<char, std::char_traits<char>, std::allocator<char> >, std::pair<const std::basic_string<char, std::char_traits<char>, std::allocator<char> >, std::map<std::basic_string<char, std::char_traits<char>, std::allocator<char> >, std::basic_string<char, std::char_traits<char>, std::allocator<char> >, std::less<std::basic_string<char, std::char_traits<char>, std::allocator<char> > >, std::allocator<std::pair<const std::basic_string<char, std::char_traits<char>, std::allocator<char> >, std::basic_string<char, std::char_traits<char>, std::allocator<char> > > > > >, std::_Select1st<std::pair<const std::basic_string<char, std::char_traits<char>, std::allocator<char> >, std::map<std::basic_string<char, std::char_traits<char>, std::allocator<char> >, std::basic_string<char, std::char_traits<char>, std::allocator<char> >, std::less<std::basic_string<char, std::char_traits<char>, std::allocator<char> > >, std::allocator<std::pair<const std::basic_string<char, std::char_traits<char>, std::allocator<char> >, std::basic_string<char, std::char_traits<char>, std::allocator<char> > > > > > >, std::less<std::basic_string<char, std::char_traits<char>, std::allocator<char> > >, std::allocator<std::pair<const std::basic_string<char, std::char_traits<char>, std::allocator<char> >, std::map<std::basic_string<char, std::char_traits<char>, std::allocator<char> >, std::basic_string<char, std::char_traits<char>, std::allocator<char> >, std::less<std::basic_string<char, std::char_traits<char>, std::allocator<char> > >, std::allocator<std::pair<const std::basic_string<char, std::char_traits<char>, std::allocator<char> >, std::basic_string<char, std::char_traits<char>, std::allocator<char> > > > > > > >::_Rb_tree_impl<std::less<std::basic_string<char, std::char_traits<char>, std::allocator<char> > >, false>::_Rb_tree_impl
FUNC 77ae0 12 0 std::_Rb_tree<std::basic_string<char, std::char_traits<char>, std::allocator<char> >, std::pair<const std::basic_string<char, std::char_traits<char>, std::allocator<char> >, std::map<std::basic_string<char, std::char_traits<char>, std::allocator<char> >, std::basic_string<char, std::char_traits<char>, std::allocator<char> >, std::less<std::basic_string<char, std::char_traits<char>, std::allocator<char> > >, std::allocator<std::pair<const std::basic_string<char, std::char_traits<char>, std::allocator<char> >, std::basic_string<char, std::char_traits<char>, std::allocator<char> > > > > >, std::_Select1st<std::pair<const std::basic_string<char, std::char_traits<char>, std::allocator<char> >, std::map<std::basic_string<char, std::char_traits<char>, std::allocator<char> >, std::basic_string<char, std::char_traits<char>, std::allocator<char> >, std::less<std::basic_string<char, std::char_traits<char>, std::allocator<char> > >, std::allocator<std::pair<const std::basic_string<char, std::char_traits<char>, std::allocator<char> >, std::basic_string<char, std::char_traits<char>, std::allocator<char> > > > > > >, std::less<std::basic_string<char, std::char_traits<char>, std::allocator<char> > >, std::allocator<std::pair<const std::basic_string<char, std::char_traits<char>, std::allocator<char> >, std::map<std::basic_string<char, std::char_traits<char>, std::allocator<char> >, std::basic_string<char, std::char_traits<char>, std::allocator<char> >, std::less<std::basic_string<char, std::char_traits<char>, std::allocator<char> > >, std::allocator<std::pair<const std::basic_string<char, std::char_traits<char>, std::allocator<char> >, std::basic_string<char, std::char_traits<char>, std::allocator<char> > > > > > > >::_M_root
FUNC 77af2 169 0 std::_Rb_tree<std::basic_string<char, std::char_traits<char>, std::allocator<char> >, std::pair<const std::basic_string<char, std::char_traits<char>, std::allocator<char> >, std::map<std::basic_string<char, std::char_traits<char>, std::allocator<char> >, std::basic_string<char, std::char_traits<char>, std::allocator<char> >, std::less<std::basic_string<char, std::char_traits<char>, std::allocator<char> > >, std::allocator<std::pair<const std::basic_string<char, std::char_traits<char>, std::allocator<char> >, std::basic_string<char, std::char_traits<char>, std::allocator<char> > > > > >, std::_Select1st<std::pair<const std::basic_string<char, std::char_traits<char>, std::allocator<char> >, std::map<std::basic_string<char, std::char_traits<char>, std::allocator<char> >, std::basic_string<char, std::char_traits<char>, std::allocator<char> >, std::less<std::basic_string<char, std::char_traits<char>, std::allocator<char> > >, std::allocator<std::pair<const std::basic_string<char, std::char_traits<char>, std::allocator<char> >, std::basic_string<char, std::char_traits<char>, std::allocator<char> > > > > > >, std::less<std::basic_string<char, std::char_traits<char>, std::allocator<char> > >, std::allocator<std::pair<const std::basic_string<char, std::char_traits<char>, std::allocator<char> >, std::map<std::basic_string<char, std::char_traits<char>, std::allocator<char> >, std::basic_string<char, std::char_traits<char>, std::allocator<char> >, std::less<std::basic_string<char, std::char_traits<char>, std::allocator<char> > >, std::allocator<std::pair<const std::basic_string<char, std::char_traits<char>, std::allocator<char> >, std::basic_string<char, std::char_traits<char>, std::allocator<char> > > > > > > >::_M_copy
FUNC 77c5c 12 0 std::_Rb_tree<std::basic_string<char, std::char_traits<char>, std::allocator<char> >, std::pair<const std::basic_string<char, std::char_traits<char>, std::allocator<char> >, std::map<std::basic_string<char, std::char_traits<char>, std::allocator<char> >, std::basic_string<char, std::char_traits<char>, std::allocator<char> >, std::less<std::basic_string<char, std::char_traits<char>, std::allocator<char> > >, std::allocator<std::pair<const std::basic_string<char, std::char_traits<char>, std::allocator<char> >, std::basic_string<char, std::char_traits<char>, std::allocator<char> > > > > >, std::_Select1st<std::pair<const std::basic_string<char, std::char_traits<char>, std::allocator<char> >, std::map<std::basic_string<char, std::char_traits<char>, std::allocator<char> >, std::basic_string<char, std::char_traits<char>, std::allocator<char> >, std::less<std::basic_string<char, std::char_traits<char>, std::allocator<char> > >, std::allocator<std::pair<const std::basic_string<char, std::char_traits<char>, std::allocator<char> >, std::basic_string<char, std::char_traits<char>, std::allocator<char> > > > > > >, std::less<std::basic_string<char, std::char_traits<char>, std::allocator<char> > >, std::allocator<std::pair<const std::basic_string<char, std::char_traits<char>, std::allocator<char> >, std::map<std::basic_string<char, std::char_traits<char>, std::allocator<char> >, std::basic_string<char, std::char_traits<char>, std::allocator<char> >, std::less<std::basic_string<char, std::char_traits<char>, std::allocator<char> > >, std::allocator<std::pair<const std::basic_string<char, std::char_traits<char>, std::allocator<char> >, std::basic_string<char, std::char_traits<char>, std::allocator<char> > > > > > > >::_M_begin
FUNC 77c6e 1a 0 std::_Rb_tree<std::basic_string<char, std::char_traits<char>, std::allocator<char> >, std::pair<const std::basic_string<char, std::char_traits<char>, std::allocator<char> >, std::map<std::basic_string<char, std::char_traits<char>, std::allocator<char> >, std::basic_string<char, std::char_traits<char>, std::allocator<char> >, std::less<std::basic_string<char, std::char_traits<char>, std::allocator<char> > >, std::allocator<std::pair<const std::basic_string<char, std::char_traits<char>, std::allocator<char> >, std::basic_string<char, std::char_traits<char>, std::allocator<char> > > > > >, std::_Select1st<std::pair<const std::basic_string<char, std::char_traits<char>, std::allocator<char> >, std::map<std::basic_string<char, std::char_traits<char>, std::allocator<char> >, std::basic_string<char, std::char_traits<char>, std::allocator<char> >, std::less<std::basic_string<char, std::char_traits<char>, std::allocator<char> > >, std::allocator<std::pair<const std::basic_string<char, std::char_traits<char>, std::allocator<char> >, std::basic_string<char, std::char_traits<char>, std::allocator<char> > > > > > >, std::less<std::basic_string<char, std::char_traits<char>, std::allocator<char> > >, std::allocator<std::pair<const std::basic_string<char, std::char_traits<char>, std::allocator<char> >, std::map<std::basic_string<char, std::char_traits<char>, std::allocator<char> >, std::basic_string<char, std::char_traits<char>, std::allocator<char> >, std::less<std::basic_string<char, std::char_traits<char>, std::allocator<char> > >, std::allocator<std::pair<const std::basic_string<char, std::char_traits<char>, std::allocator<char> >, std::basic_string<char, std::char_traits<char>, std::allocator<char> > > > > > > >::_S_minimum
FUNC 77c88 1a 0 std::_Rb_tree<std::basic_string<char, std::char_traits<char>, std::allocator<char> >, std::pair<const std::basic_string<char, std::char_traits<char>, std::allocator<char> >, std::map<std::basic_string<char, std::char_traits<char>, std::allocator<char> >, std::basic_string<char, std::char_traits<char>, std::allocator<char> >, std::less<std::basic_string<char, std::char_traits<char>, std::allocator<char> > >, std::allocator<std::pair<const std::basic_string<char, std::char_traits<char>, std::allocator<char> >, std::basic_string<char, std::char_traits<char>, std::allocator<char> > > > > >, std::_Select1st<std::pair<const std::basic_string<char, std::char_traits<char>, std::allocator<char> >, std::map<std::basic_string<char, std::char_traits<char>, std::allocator<char> >, std::basic_string<char, std::char_traits<char>, std::allocator<char> >, std::less<std::basic_string<char, std::char_traits<char>, std::allocator<char> > >, std::allocator<std::pair<const std::basic_string<char, std::char_traits<char>, std::allocator<char> >, std::basic_string<char, std::char_traits<char>, std::allocator<char> > > > > > >, std::less<std::basic_string<char, std::char_traits<char>, std::allocator<char> > >, std::allocator<std::pair<const std::basic_string<char, std::char_traits<char>, std::allocator<char> >, std::map<std::basic_string<char, std::char_traits<char>, std::allocator<char> >, std::basic_string<char, std::char_traits<char>, std::allocator<char> >, std::less<std::basic_string<char, std::char_traits<char>, std::allocator<char> > >, std::allocator<std::pair<const std::basic_string<char, std::char_traits<char>, std::allocator<char> >, std::basic_string<char, std::char_traits<char>, std::allocator<char> > > > > > > >::_S_maximum
FUNC 77ca2 12 0 std::_Rb_tree<std::basic_string<char, std::char_traits<char>, std::allocator<char> >, std::pair<const std::basic_string<char, std::char_traits<char>, std::allocator<char> >, std::map<int, std::map<int, IEC104WF::stPointTable, std::less<int>, std::allocator<std::pair<const int, IEC104WF::stPointTable> > >, std::less<int>, std::allocator<std::pair<const int, std::map<int, IEC104WF::stPointTable, std::less<int>, std::allocator<std::pair<const int, IEC104WF::stPointTable> > > > > > >, std::_Select1st<std::pair<const std::basic_string<char, std::char_traits<char>, std::allocator<char> >, std::map<int, std::map<int, IEC104WF::stPointTable, std::less<int>, std::allocator<std::pair<const int, IEC104WF::stPointTable> > >, std::less<int>, std::allocator<std::pair<const int, std::map<int, IEC104WF::stPointTable, std::less<int>, std::allocator<std::pair<const int, IEC104WF::stPointTable> > > > > > > >, std::less<std::basic_string<char, std::char_traits<char>, std::allocator<char> > >, std::allocator<std::pair<const std::basic_string<char, std::char_traits<char>, std::allocator<char> >, std::map<int, std::map<int, IEC104WF::stPointTable, std::less<int>, std::allocator<std::pair<const int, IEC104WF::stPointTable> > >, std::less<int>, std::allocator<std::pair<const int, std::map<int, IEC104WF::stPointTable, std::less<int>, std::allocator<std::pair<const int, IEC104WF::stPointTable> > > > > > > > >::_M_end
