MODULE Linux x86_64 6ECAAAE500F99551C9B9938E855BEF330 IEC103_SFIEC103
FUNC b514 1b0 0 main
FUNC b6c4 ca 0 __static_initialization_and_destruction_0
FUNC b78e 15 0 _GLOBAL__I_IEC103.cpp
FUNC b7a4 29 0 Config::setChannelName
FUNC b7d0 570 0 Config::Config
FUNC bd40 74 0 Config::GetInstance
FUNC bdb4 2a3 0 Config::~Config
FUNC c058 26 0 Config::~Config
FUNC c07e cbf 0 Config::Init
FUNC cd3e 27 0 Config::IsSpace
FUNC cd66 24 0 Config::IsCommentChar
FUNC cd8a 173 0 Config::Trim
FUNC cefe 21d 0 Config::AnalyseLine
FUNC d11c 238 0 Config::ReadConfig
FUNC d354 ad 0 Config::GetStrValueByKey
FUNC d402 d03 0 Config::InitMysqlParams
FUNC e106 134 0 Config::Split
FUNC e23a 48 0 __static_initialization_and_destruction_0
FUNC e282 15 0 _GLOBAL__I_Config.cpp
FUNC e297 12 0 operator new
FUNC e2a9 e 0 operator delete
FUNC e2b7 14 0 std::operator|
FUNC e2cc 1a 0 std::map<std::basic_string<char, std::char_traits<char>, std::allocator<char> >, std::basic_string<char, std::char_traits<char>, std::allocator<char> >, std::less<std::basic_string<char, std::char_traits<char>, std::allocator<char> > >, std::allocator<std::pair<const std::basic_string<char, std::char_traits<char>, std::allocator<char> >, std::basic_string<char, std::char_traits<char>, std::allocator<char> > > > >::~map
FUNC e2e6 1a 0 std::map<std::basic_string<char, std::char_traits<char>, std::allocator<char> >, std::basic_string<char, std::char_traits<char>, std::allocator<char> >, std::less<std::basic_string<char, std::char_traits<char>, std::allocator<char> > >, std::allocator<std::pair<const std::basic_string<char, std::char_traits<char>, std::allocator<char> >, std::basic_string<char, std::char_traits<char>, std::allocator<char> > > > >::map
FUNC e300 1a 0 std::_Rb_tree<std::basic_string<char, std::char_traits<char>, std::allocator<char> >, std::pair<const std::basic_string<char, std::char_traits<char>, std::allocator<char> >, std::basic_string<char, std::char_traits<char>, std::allocator<char> > >, std::_Select1st<std::pair<const std::basic_string<char, std::char_traits<char>, std::allocator<char> >, std::basic_string<char, std::char_traits<char>, std::allocator<char> > > >, std::less<std::basic_string<char, std::char_traits<char>, std::allocator<char> > >, std::allocator<std::pair<const std::basic_string<char, std::char_traits<char>, std::allocator<char> >, std::basic_string<char, std::char_traits<char>, std::allocator<char> > > > >::_Rb_tree_impl<std::less<std::basic_string<char, std::char_traits<char>, std::allocator<char> > >, false>::~_Rb_tree_impl
FUNC e31a 63 0 std::_Rb_tree<std::basic_string<char, std::char_traits<char>, std::allocator<char> >, std::pair<const std::basic_string<char, std::char_traits<char>, std::allocator<char> >, std::basic_string<char, std::char_traits<char>, std::allocator<char> > >, std::_Select1st<std::pair<const std::basic_string<char, std::char_traits<char>, std::allocator<char> >, std::basic_string<char, std::char_traits<char>, std::allocator<char> > > >, std::less<std::basic_string<char, std::char_traits<char>, std::allocator<char> > >, std::allocator<std::pair<const std::basic_string<char, std::char_traits<char>, std::allocator<char> >, std::basic_string<char, std::char_traits<char>, std::allocator<char> > > > >::~_Rb_tree
FUNC e37e 1a 0 std::vector<short unsigned int, std::allocator<short unsigned int> >::vector
FUNC e398 6e 0 std::vector<short unsigned int, std::allocator<short unsigned int> >::~vector
FUNC e406 1a 0 std::vector<std::basic_string<char, std::char_traits<char>, std::allocator<char> >, std::allocator<std::basic_string<char, std::char_traits<char>, std::allocator<char> > > >::vector
FUNC e420 6e 0 std::vector<std::basic_string<char, std::char_traits<char>, std::allocator<char> >, std::allocator<std::basic_string<char, std::char_traits<char>, std::allocator<char> > > >::~vector
FUNC e48e 24 0 std::vector<short unsigned int, std::allocator<short unsigned int> >::clear
FUNC e4b2 24 0 std::vector<std::basic_string<char, std::char_traits<char>, std::allocator<char> >, std::allocator<std::basic_string<char, std::char_traits<char>, std::allocator<char> > > >::clear
FUNC e4d6 16d 0 Config::GetValueByKey<int32_t>
FUNC e644 16d 0 Config::GetValueByKey<uint16_t>
FUNC e7b2 1a 0 std::map<std::basic_string<char, std::char_traits<char>, std::allocator<char> >, std::basic_string<char, std::char_traits<char>, std::allocator<char> >, std::less<std::basic_string<char, std::char_traits<char>, std::allocator<char> > >, std::allocator<std::pair<const std::basic_string<char, std::char_traits<char>, std::allocator<char> >, std::basic_string<char, std::char_traits<char>, std::allocator<char> > > > >::clear
FUNC e7cc 55 0 std::pair<const std::basic_string<char, std::char_traits<char>, std::allocator<char> >, std::basic_string<char, std::char_traits<char>, std::allocator<char> > >::~pair
FUNC e822 146 0 std::map<std::basic_string<char, std::char_traits<char>, std::allocator<char> >, std::basic_string<char, std::char_traits<char>, std::allocator<char> >, std::less<std::basic_string<char, std::char_traits<char>, std::allocator<char> > >, std::allocator<std::pair<const std::basic_string<char, std::char_traits<char>, std::allocator<char> >, std::basic_string<char, std::char_traits<char>, std::allocator<char> > > > >::operator[]
FUNC e968 25 0 std::map<std::basic_string<char, std::char_traits<char>, std::allocator<char> >, std::basic_string<char, std::char_traits<char>, std::allocator<char> >, std::less<std::basic_string<char, std::char_traits<char>, std::allocator<char> > >, std::allocator<std::pair<const std::basic_string<char, std::char_traits<char>, std::allocator<char> >, std::basic_string<char, std::char_traits<char>, std::allocator<char> > > > >::find
FUNC e98e 1c 0 std::_Rb_tree_const_iterator<std::pair<const std::basic_string<char, std::char_traits<char>, std::allocator<char> >, std::basic_string<char, std::char_traits<char>, std::allocator<char> > > >::_Rb_tree_const_iterator
FUNC e9aa 1a 0 std::map<std::basic_string<char, std::char_traits<char>, std::allocator<char> >, std::basic_string<char, std::char_traits<char>, std::allocator<char> >, std::less<std::basic_string<char, std::char_traits<char>, std::allocator<char> > >, std::allocator<std::pair<const std::basic_string<char, std::char_traits<char>, std::allocator<char> >, std::basic_string<char, std::char_traits<char>, std::allocator<char> > > > >::end
FUNC e9c4 22 0 std::_Rb_tree_const_iterator<std::pair<const std::basic_string<char, std::char_traits<char>, std::allocator<char> >, std::basic_string<char, std::char_traits<char>, std::allocator<char> > > >::operator!=
FUNC e9e6 15 0 std::_Rb_tree_const_iterator<std::pair<const std::basic_string<char, std::char_traits<char>, std::allocator<char> >, std::basic_string<char, std::char_traits<char>, std::allocator<char> > > >::operator->
FUNC e9fc 20 0 std::vector<std::basic_string<char, std::char_traits<char>, std::allocator<char> >, std::allocator<std::basic_string<char, std::char_traits<char>, std::allocator<char> > > >::operator[]
FUNC ea1c f3 0 Config::String2Int<uint16_t>
FUNC eb10 25 0 std::vector<std::basic_string<char, std::char_traits<char>, std::allocator<char> >, std::allocator<std::basic_string<char, std::char_traits<char>, std::allocator<char> > > >::begin
FUNC eb36 28 0 __gnu_cxx::__normal_iterator<const std::basic_string<char, std::char_traits<char>, std::allocator<char> >*, std::vector<std::basic_string<char, std::char_traits<char>, std::allocator<char> >, std::allocator<std::basic_string<char, std::char_traits<char>, std::allocator<char> > > > >::__normal_iterator<std::basic_string<char, std::char_traits<char>, std::allocator<char> >*>
FUNC eb5e 29 0 std::vector<std::basic_string<char, std::char_traits<char>, std::allocator<char> >, std::allocator<std::basic_string<char, std::char_traits<char>, std::allocator<char> > > >::end
FUNC eb87 3c 0 __gnu_cxx::operator!=<const std::basic_string<char, std::char_traits<char>, std::allocator<char> >*, std::basic_string<char, std::char_traits<char>, std::allocator<char> >*, std::vector<std::basic_string<char, std::char_traits<char>, std::allocator<char> >, std::allocator<std::basic_string<char, std::char_traits<char>, std::allocator<char> > > > >
FUNC ebc4 20 0 __gnu_cxx::__normal_iterator<const std::basic_string<char, std::char_traits<char>, std::allocator<char> >*, std::vector<std::basic_string<char, std::char_traits<char>, std::allocator<char> >, std::allocator<std::basic_string<char, std::char_traits<char>, std::allocator<char> > > > >::operator++
FUNC ebe4 11 0 __gnu_cxx::__normal_iterator<const std::basic_string<char, std::char_traits<char>, std::allocator<char> >*, std::vector<std::basic_string<char, std::char_traits<char>, std::allocator<char> >, std::allocator<std::basic_string<char, std::char_traits<char>, std::allocator<char> > > > >::operator*
FUNC ebf6 7a 0 std::vector<short unsigned int, std::allocator<short unsigned int> >::push_back
FUNC ec70 41 0 std::vector<short unsigned int, std::allocator<short unsigned int> >::empty
FUNC ecb2 1f 0 std::vector<short unsigned int, std::allocator<short unsigned int> >::operator[]
FUNC ecd2 f3 0 Config::String2Int<int32_t>
FUNC edc6 242 0 std::vector<std::basic_string<char, std::char_traits<char>, std::allocator<char> >, std::allocator<std::basic_string<char, std::char_traits<char>, std::allocator<char> > > >::operator=
FUNC f008 29 0 std::vector<std::basic_string<char, std::char_traits<char>, std::allocator<char> >, std::allocator<std::basic_string<char, std::char_traits<char>, std::allocator<char> > > >::size
FUNC f032 7a 0 std::vector<std::basic_string<char, std::char_traits<char>, std::allocator<char> >, std::allocator<std::basic_string<char, std::char_traits<char>, std::allocator<char> > > >::push_back
FUNC f0ac 1a 0 std::_Rb_tree<std::basic_string<char, std::char_traits<char>, std::allocator<char> >, std::pair<const std::basic_string<char, std::char_traits<char>, std::allocator<char> >, std::basic_string<char, std::char_traits<char>, std::allocator<char> > >, std::_Select1st<std::pair<const std::basic_string<char, std::char_traits<char>, std::allocator<char> >, std::basic_string<char, std::char_traits<char>, std::allocator<char> > > >, std::less<std::basic_string<char, std::char_traits<char>, std::allocator<char> > >, std::allocator<std::pair<const std::basic_string<char, std::char_traits<char>, std::allocator<char> >, std::basic_string<char, std::char_traits<char>, std::allocator<char> > > > >::_Rb_tree
FUNC f0c6 1a 0 std::allocator<std::_Rb_tree_node<std::pair<const std::basic_string<char, std::char_traits<char>, std::allocator<char> >, std::basic_string<char, std::char_traits<char>, std::allocator<char> > > > >::~allocator
FUNC f0e0 69 0 std::_Rb_tree<std::basic_string<char, std::char_traits<char>, std::allocator<char> >, std::pair<const std::basic_string<char, std::char_traits<char>, std::allocator<char> >, std::basic_string<char, std::char_traits<char>, std::allocator<char> > >, std::_Select1st<std::pair<const std::basic_string<char, std::char_traits<char>, std::allocator<char> >, std::basic_string<char, std::char_traits<char>, std::allocator<char> > > >, std::less<std::basic_string<char, std::char_traits<char>, std::allocator<char> > >, std::allocator<std::pair<const std::basic_string<char, std::char_traits<char>, std::allocator<char> >, std::basic_string<char, std::char_traits<char>, std::allocator<char> > > > >::_M_erase
FUNC f14a 12 0 std::_Rb_tree<std::basic_string<char, std::char_traits<char>, std::allocator<char> >, std::pair<const std::basic_string<char, std::char_traits<char>, std::allocator<char> >, std::basic_string<char, std::char_traits<char>, std::allocator<char> > >, std::_Select1st<std::pair<const std::basic_string<char, std::char_traits<char>, std::allocator<char> >, std::basic_string<char, std::char_traits<char>, std::allocator<char> > > >, std::less<std::basic_string<char, std::char_traits<char>, std::allocator<char> > >, std::allocator<std::pair<const std::basic_string<char, std::char_traits<char>, std::allocator<char> >, std::basic_string<char, std::char_traits<char>, std::allocator<char> > > > >::_M_begin
FUNC f15c 1a 0 std::_Vector_base<short unsigned int, std::allocator<short unsigned int> >::_Vector_impl::~_Vector_impl
FUNC f176 1a 0 std::_Vector_base<short unsigned int, std::allocator<short unsigned int> >::_Vector_base
FUNC f190 7c 0 std::_Vector_base<short unsigned int, std::allocator<short unsigned int> >::~_Vector_base
FUNC f20c e 0 std::_Vector_base<short unsigned int, std::allocator<short unsigned int> >::_M_get_Tp_allocator
FUNC f21a 29 0 std::_Destroy<short unsigned int*, short unsigned int>
FUNC f244 1a 0 std::_Vector_base<std::basic_string<char, std::char_traits<char>, std::allocator<char> >, std::allocator<std::basic_string<char, std::char_traits<char>, std::allocator<char> > > >::_Vector_impl::~_Vector_impl
FUNC f25e 1a 0 std::_Vector_base<std::basic_string<char, std::char_traits<char>, std::allocator<char> >, std::allocator<std::basic_string<char, std::char_traits<char>, std::allocator<char> > > >::_Vector_base
FUNC f278 7d 0 std::_Vector_base<std::basic_string<char, std::char_traits<char>, std::allocator<char> >, std::allocator<std::basic_string<char, std::char_traits<char>, std::allocator<char> > > >::~_Vector_base
FUNC f2f6 e 0 std::_Vector_base<std::basic_string<char, std::char_traits<char>, std::allocator<char> >, std::allocator<std::basic_string<char, std::char_traits<char>, std::allocator<char> > > >::_M_get_Tp_allocator
FUNC f304 29 0 std::_Destroy<std::basic_string<char, std::char_traits<char>, std::allocator<char> >*, std::basic_string<char, std::char_traits<char>, std::allocator<char> > >
FUNC f32e 44 0 std::vector<short unsigned int, std::allocator<short unsigned int> >::_M_erase_at_end
FUNC f372 44 0 std::vector<std::basic_string<char, std::char_traits<char>, std::allocator<char> >, std::allocator<std::basic_string<char, std::char_traits<char>, std::allocator<char> > > >::_M_erase_at_end
FUNC f3b6 8d 0 std::_Rb_tree<std::basic_string<char, std::char_traits<char>, std::allocator<char> >, std::pair<const std::basic_string<char, std::char_traits<char>, std::allocator<char> >, std::basic_string<char, std::char_traits<char>, std::allocator<char> > >, std::_Select1st<std::pair<const std::basic_string<char, std::char_traits<char>, std::allocator<char> >, std::basic_string<char, std::char_traits<char>, std::allocator<char> > > >, std::less<std::basic_string<char, std::char_traits<char>, std::allocator<char> > >, std::allocator<std::pair<const std::basic_string<char, std::char_traits<char>, std::allocator<char> >, std::basic_string<char, std::char_traits<char>, std::allocator<char> > > > >::clear
FUNC f444 25 0 std::map<std::basic_string<char, std::char_traits<char>, std::allocator<char> >, std::basic_string<char, std::char_traits<char>, std::allocator<char> >, std::less<std::basic_string<char, std::char_traits<char>, std::allocator<char> > >, std::allocator<std::pair<const std::basic_string<char, std::char_traits<char>, std::allocator<char> >, std::basic_string<char, std::char_traits<char>, std::allocator<char> > > > >::lower_bound
FUNC f46a 1a 0 std::map<std::basic_string<char, std::char_traits<char>, std::allocator<char> >, std::basic_string<char, std::char_traits<char>, std::allocator<char> >, std::less<std::basic_string<char, std::char_traits<char>, std::allocator<char> > >, std::allocator<std::pair<const std::basic_string<char, std::char_traits<char>, std::allocator<char> >, std::basic_string<char, std::char_traits<char>, std::allocator<char> > > > >::key_comp
FUNC f484 15 0 std::_Rb_tree_iterator<std::pair<const std::basic_string<char, std::char_traits<char>, std::allocator<char> >, std::basic_string<char, std::char_traits<char>, std::allocator<char> > > >::operator*
FUNC f49a 29 0 std::less<std::basic_string<char, std::char_traits<char>, std::allocator<char> > >::operator()
FUNC f4c4 22 0 std::_Rb_tree_iterator<std::pair<const std::basic_string<char, std::char_traits<char>, std::allocator<char> >, std::basic_string<char, std::char_traits<char>, std::allocator<char> > > >::operator==
FUNC f4e6 6b 0 std::pair<const std::basic_string<char, std::char_traits<char>, std::allocator<char> >, std::basic_string<char, std::char_traits<char>, std::allocator<char> > >::pair
FUNC f552 40 0 std::map<std::basic_string<char, std::char_traits<char>, std::allocator<char> >, std::basic_string<char, std::char_traits<char>, std::allocator<char> >, std::less<std::basic_string<char, std::char_traits<char>, std::allocator<char> > >, std::allocator<std::pair<const std::basic_string<char, std::char_traits<char>, std::allocator<char> >, std::basic_string<char, std::char_traits<char>, std::allocator<char> > > > >::insert
FUNC f592 b6 0 std::_Rb_tree<std::basic_string<char, std::char_traits<char>, std::allocator<char> >, std::pair<const std::basic_string<char, std::char_traits<char>, std::allocator<char> >, std::basic_string<char, std::char_traits<char>, std::allocator<char> > >, std::_Select1st<std::pair<const std::basic_string<char, std::char_traits<char>, std::allocator<char> >, std::basic_string<char, std::char_traits<char>, std::allocator<char> > > >, std::less<std::basic_string<char, std::char_traits<char>, std::allocator<char> > >, std::allocator<std::pair<const std::basic_string<char, std::char_traits<char>, std::allocator<char> >, std::basic_string<char, std::char_traits<char>, std::allocator<char> > > > >::find
FUNC f648 2c 0 std::_Rb_tree<std::basic_string<char, std::char_traits<char>, std::allocator<char> >, std::pair<const std::basic_string<char, std::char_traits<char>, std::allocator<char> >, std::basic_string<char, std::char_traits<char>, std::allocator<char> > >, std::_Select1st<std::pair<const std::basic_string<char, std::char_traits<char>, std::allocator<char> >, std::basic_string<char, std::char_traits<char>, std::allocator<char> > > >, std::less<std::basic_string<char, std::char_traits<char>, std::allocator<char> > >, std::allocator<std::pair<const std::basic_string<char, std::char_traits<char>, std::allocator<char> >, std::basic_string<char, std::char_traits<char>, std::allocator<char> > > > >::end
FUNC f674 1c 0 __gnu_cxx::__normal_iterator<std::basic_string<char, std::char_traits<char>, std::allocator<char> >*, std::vector<std::basic_string<char, std::char_traits<char>, std::allocator<char> >, std::allocator<std::basic_string<char, std::char_traits<char>, std::allocator<char> > > > >::__normal_iterator
FUNC f690 e 0 __gnu_cxx::__normal_iterator<std::basic_string<char, std::char_traits<char>, std::allocator<char> >*, std::vector<std::basic_string<char, std::char_traits<char>, std::allocator<char> >, std::allocator<std::basic_string<char, std::char_traits<char>, std::allocator<char> > > > >::base
FUNC f69e e 0 __gnu_cxx::__normal_iterator<const std::basic_string<char, std::char_traits<char>, std::allocator<char> >*, std::vector<std::basic_string<char, std::char_traits<char>, std::allocator<char> >, std::allocator<std::basic_string<char, std::char_traits<char>, std::allocator<char> > > > >::base
FUNC f6ac 39 0 __gnu_cxx::new_allocator<short unsigned int>::construct
FUNC f6e6 2e5 0 std::vector<short unsigned int, std::allocator<short unsigned int> >::_M_insert_aux
FUNC f9cc 29 0 std::vector<short unsigned int, std::allocator<short unsigned int> >::end
FUNC f9f6 31 0 std::vector<short unsigned int, std::allocator<short unsigned int> >::end
FUNC fa28 30 0 std::vector<short unsigned int, std::allocator<short unsigned int> >::begin
FUNC fa58 3c 0 __gnu_cxx::operator==<const short unsigned int*, std::vector<short unsigned int, std::allocator<short unsigned int> > >
FUNC fa94 29 0 std::vector<std::basic_string<char, std::char_traits<char>, std::allocator<char> >, std::allocator<std::basic_string<char, std::char_traits<char>, std::allocator<char> > > >::capacity
FUNC fabe 30 0 std::vector<std::basic_string<char, std::char_traits<char>, std::allocator<char> >, std::allocator<std::basic_string<char, std::char_traits<char>, std::allocator<char> > > >::begin
FUNC faee 31 0 std::vector<std::basic_string<char, std::char_traits<char>, std::allocator<char> >, std::allocator<std::basic_string<char, std::char_traits<char>, std::allocator<char> > > >::end
FUNC fb20 a1 0 std::vector<std::basic_string<char, std::char_traits<char>, std::allocator<char> >, std::allocator<std::basic_string<char, std::char_traits<char>, std::allocator<char> > > >::_M_allocate_and_copy<__gnu_cxx::__normal_iterator<const std::basic_string<char, std::char_traits<char>, std::allocator<char> >*, std::vector<std::basic_string<char, std::char_traits<char>, std::allocator<char> >, std::allocator<std::basic_string<char, std::char_traits<char>, std::allocator<char> > > > > >
FUNC fbc2 34 0 std::_Vector_base<std::basic_string<char, std::char_traits<char>, std::allocator<char> >, std::allocator<std::basic_string<char, std::char_traits<char>, std::allocator<char> > > >::_M_deallocate
FUNC fbf6 46 0 std::copy<__gnu_cxx::__normal_iterator<const std::basic_string<char, std::char_traits<char>, std::allocator<char> >*, std::vector<std::basic_string<char, std::char_traits<char>, std::allocator<char> >, std::allocator<std::basic_string<char, std::char_traits<char>, std::allocator<char> > > > >, __gnu_cxx::__normal_iterator<std::basic_string<char, std::char_traits<char>, std::allocator<char> >*, std::vector<std::basic_string<char, std::char_traits<char>, std::allocator<char> >, std::allocator<std::basic_string<char, std::char_traits<char>, std::allocator<char> > > > > >
FUNC fc3c 29 0 std::_Destroy<__gnu_cxx::__normal_iterator<std::basic_string<char, std::char_traits<char>, std::allocator<char> >*, std::vector<std::basic_string<char, std::char_traits<char>, std::allocator<char> >, std::allocator<std::basic_string<char, std::char_traits<char>, std::allocator<char> > > > >, std::basic_string<char, std::char_traits<char>, std::allocator<char> > >
FUNC fc65 46 0 std::copy<std::basic_string<char, std::char_traits<char>, std::allocator<char> >*, std::basic_string<char, std::char_traits<char>, std::allocator<char> >*>
FUNC fcab 31 0 std::__uninitialized_copy_a<std::basic_string<char, std::char_traits<char>, std::allocator<char> >*, std::basic_string<char, std::char_traits<char>, std::allocator<char> >*, std::basic_string<char, std::char_traits<char>, std::allocator<char> > >
FUNC fcdc 77 0 __gnu_cxx::new_allocator<std::basic_string<char, std::char_traits<char>, std::allocator<char> > >::construct
FUNC fd54 326 0 std::vector<std::basic_string<char, std::char_traits<char>, std::allocator<char> >, std::allocator<std::basic_string<char, std::char_traits<char>, std::allocator<char> > > >::_M_insert_aux
FUNC 1007a e 0 std::_Vector_base<std::basic_string<char, std::char_traits<char>, std::allocator<char> >, std::allocator<std::basic_string<char, std::char_traits<char>, std::allocator<char> > > >::_M_get_Tp_allocator
FUNC 10088 31 0 std::__uninitialized_copy_a<__gnu_cxx::__normal_iterator<const std::basic_string<char, std::char_traits<char>, std::allocator<char> >*, std::vector<std::basic_string<char, std::char_traits<char>, std::allocator<char> >, std::allocator<std::basic_string<char, std::char_traits<char>, std::allocator<char> > > > >, std::basic_string<char, std::char_traits<char>, std::allocator<char> >*, std::basic_string<char, std::char_traits<char>, std::allocator<char> > >
FUNC 100ba 12 0 std::_Rb_tree<std::basic_string<char, std::char_traits<char>, std::allocator<char> >, std::pair<const std::basic_string<char, std::char_traits<char>, std::allocator<char> >, std::basic_string<char, std::char_traits<char>, std::allocator<char> > >, std::_Select1st<std::pair<const std::basic_string<char, std::char_traits<char>, std::allocator<char> >, std::basic_string<char, std::char_traits<char>, std::allocator<char> > > >, std::less<std::basic_string<char, std::char_traits<char>, std::allocator<char> > >, std::allocator<std::pair<const std::basic_string<char, std::char_traits<char>, std::allocator<char> >, std::basic_string<char, std::char_traits<char>, std::allocator<char> > > > >::_M_end
FUNC 100cc 12 0 std::_Rb_tree<std::basic_string<char, std::char_traits<char>, std::allocator<char> >, std::pair<const std::basic_string<char, std::char_traits<char>, std::allocator<char> >, std::basic_string<char, std::char_traits<char>, std::allocator<char> > >, std::_Select1st<std::pair<const std::basic_string<char, std::char_traits<char>, std::allocator<char> >, std::basic_string<char, std::char_traits<char>, std::allocator<char> > > >, std::less<std::basic_string<char, std::char_traits<char>, std::allocator<char> > >, std::allocator<std::pair<const std::basic_string<char, std::char_traits<char>, std::allocator<char> >, std::basic_string<char, std::char_traits<char>, std::allocator<char> > > > >::_M_root
FUNC 100de 12 0 std::_Rb_tree<std::basic_string<char, std::char_traits<char>, std::allocator<char> >, std::pair<const std::basic_string<char, std::char_traits<char>, std::allocator<char> >, std::basic_string<char, std::char_traits<char>, std::allocator<char> > >, std::_Select1st<std::pair<const std::basic_string<char, std::char_traits<char>, std::allocator<char> >, std::basic_string<char, std::char_traits<char>, std::allocator<char> > > >, std::less<std::basic_string<char, std::char_traits<char>, std::allocator<char> > >, std::allocator<std::pair<const std::basic_string<char, std::char_traits<char>, std::allocator<char> >, std::basic_string<char, std::char_traits<char>, std::allocator<char> > > > >::_M_leftmost
FUNC 100f0 12 0 std::_Rb_tree<std::basic_string<char, std::char_traits<char>, std::allocator<char> >, std::pair<const std::basic_string<char, std::char_traits<char>, std::allocator<char> >, std::basic_string<char, std::char_traits<char>, std::allocator<char> > >, std::_Select1st<std::pair<const std::basic_string<char, std::char_traits<char>, std::allocator<char> >, std::basic_string<char, std::char_traits<char>, std::allocator<char> > > >, std::less<std::basic_string<char, std::char_traits<char>, std::allocator<char> > >, std::allocator<std::pair<const std::basic_string<char, std::char_traits<char>, std::allocator<char> >, std::basic_string<char, std::char_traits<char>, std::allocator<char> > > > >::_M_rightmost
FUNC 10102 8c 0 std::_Rb_tree<std::basic_string<char, std::char_traits<char>, std::allocator<char> >, std::pair<const std::basic_string<char, std::char_traits<char>, std::allocator<char> >, std::basic_string<char, std::char_traits<char>, std::allocator<char> > >, std::_Select1st<std::pair<const std::basic_string<char, std::char_traits<char>, std::allocator<char> >, std::basic_string<char, std::char_traits<char>, std::allocator<char> > > >, std::less<std::basic_string<char, std::char_traits<char>, std::allocator<char> > >, std::allocator<std::pair<const std::basic_string<char, std::char_traits<char>, std::allocator<char> >, std::basic_string<char, std::char_traits<char>, std::allocator<char> > > > >::_Rb_tree_impl<std::less<std::basic_string<char, std::char_traits<char>, std::allocator<char> > >, false>::_Rb_tree_impl
FUNC 1018e a 0 __gnu_cxx::new_allocator<std::_Rb_tree_node<std::pair<const std::basic_string<char, std::char_traits<char>, std::allocator<char> >, std::basic_string<char, std::char_traits<char>, std::allocator<char> > > > >::~new_allocator
FUNC 10198 12 0 std::_Rb_tree<std::basic_string<char, std::char_traits<char>, std::allocator<char> >, std::pair<const std::basic_string<char, std::char_traits<char>, std::allocator<char> >, std::basic_string<char, std::char_traits<char>, std::allocator<char> > >, std::_Select1st<std::pair<const std::basic_string<char, std::char_traits<char>, std::allocator<char> >, std::basic_string<char, std::char_traits<char>, std::allocator<char> > > >, std::less<std::basic_string<char, std::char_traits<char>, std::allocator<char> > >, std::allocator<std::pair<const std::basic_string<char, std::char_traits<char>, std::allocator<char> >, std::basic_string<char, std::char_traits<char>, std::allocator<char> > > > >::_S_right
FUNC 101aa 12 0 std::_Rb_tree<std::basic_string<char, std::char_traits<char>, std::allocator<char> >, std::pair<const std::basic_string<char, std::char_traits<char>, std::allocator<char> >, std::basic_string<char, std::char_traits<char>, std::allocator<char> > >, std::_Select1st<std::pair<const std::basic_string<char, std::char_traits<char>, std::allocator<char> >, std::basic_string<char, std::char_traits<char>, std::allocator<char> > > >, std::less<std::basic_string<char, std::char_traits<char>, std::allocator<char> > >, std::allocator<std::pair<const std::basic_string<char, std::char_traits<char>, std::allocator<char> >, std::basic_string<char, std::char_traits<char>, std::allocator<char> > > > >::_S_left
FUNC 101bc 86 0 std::_Rb_tree<std::basic_string<char, std::char_traits<char>, std::allocator<char> >, std::pair<const std::basic_string<char, std::char_traits<char>, std::allocator<char> >, std::basic_string<char, std::char_traits<char>, std::allocator<char> > >, std::_Select1st<std::pair<const std::basic_string<char, std::char_traits<char>, std::allocator<char> >, std::basic_string<char, std::char_traits<char>, std::allocator<char> > > >, std::less<std::basic_string<char, std::char_traits<char>, std::allocator<char> > >, std::allocator<std::pair<const std::basic_string<char, std::char_traits<char>, std::allocator<char> >, std::basic_string<char, std::char_traits<char>, std::allocator<char> > > > >::_M_destroy_node
FUNC 10242 3d 0 std::_Vector_base<short unsigned int, std::allocator<short unsigned int> >::_Vector_impl::_Vector_impl
FUNC 10280 1a 0 std::allocator<short unsigned int>::~allocator
FUNC 1029a 34 0 std::_Vector_base<short unsigned int, std::allocator<short unsigned int> >::_M_deallocate
FUNC 102ce 25 0 std::_Destroy<short unsigned int*>
FUNC 102f4 3d 0 std::_Vector_base<std::basic_string<char, std::char_traits<char>, std::allocator<char> >, std::allocator<std::basic_string<char, std::char_traits<char>, std::allocator<char> > > >::_Vector_impl::_Vector_impl
FUNC 10332 1a 0 std::allocator<std::basic_string<char, std::char_traits<char>, std::allocator<char> > >::~allocator
FUNC 1034c 25 0 std::_Destroy<std::basic_string<char, std::char_traits<char>, std::allocator<char> >*>
FUNC 10372 53 0 std::_Rb_tree<std::basic_string<char, std::char_traits<char>, std::allocator<char> >, std::pair<const std::basic_string<char, std::char_traits<char>, std::allocator<char> >, std::basic_string<char, std::char_traits<char>, std::allocator<char> > >, std::_Select1st<std::pair<const std::basic_string<char, std::char_traits<char>, std::allocator<char> >, std::basic_string<char, std::char_traits<char>, std::allocator<char> > > >, std::less<std::basic_string<char, std::char_traits<char>, std::allocator<char> > >, std::allocator<std::pair<const std::basic_string<char, std::char_traits<char>, std::allocator<char> >, std::basic_string<char, std::char_traits<char>, std::allocator<char> > > > >::lower_bound
FUNC 103c6 a 0 std::_Rb_tree<std::basic_string<char, std::char_traits<char>, std::allocator<char> >, std::pair<const std::basic_string<char, std::char_traits<char>, std::allocator<char> >, std::basic_string<char, std::char_traits<char>, std::allocator<char> > >, std::_Select1st<std::pair<const std::basic_string<char, std::char_traits<char>, std::allocator<char> >, std::basic_string<char, std::char_traits<char>, std::allocator<char> > > >, std::less<std::basic_string<char, std::char_traits<char>, std::allocator<char> > >, std::allocator<std::pair<const std::basic_string<char, std::char_traits<char>, std::allocator<char> >, std::basic_string<char, std::char_traits<char>, std::allocator<char> > > > >::key_comp
FUNC 103d0 28 0 std::operator< <char, std::char_traits<char>, std::allocator<char> >
FUNC 103f8 4c0 0 std::_Rb_tree<std::basic_string<char, std::char_traits<char>, std::allocator<char> >, std::pair<const std::basic_string<char, std::char_traits<char>, std::allocator<char> >, std::basic_string<char, std::char_traits<char>, std::allocator<char> > >, std::_Select1st<std::pair<const std::basic_string<char, std::char_traits<char>, std::allocator<char> >, std::basic_string<char, std::char_traits<char>, std::allocator<char> > > >, std::less<std::basic_string<char, std::char_traits<char>, std::allocator<char> > >, std::allocator<std::pair<const std::basic_string<char, std::char_traits<char>, std::allocator<char> >, std::basic_string<char, std::char_traits<char>, std::allocator<char> > > > >::_M_insert_unique_
FUNC 108b8 92 0 std::_Rb_tree<std::basic_string<char, std::char_traits<char>, std::allocator<char> >, std::pair<const std::basic_string<char, std::char_traits<char>, std::allocator<char> >, std::basic_string<char, std::char_traits<char>, std::allocator<char> > >, std::_Select1st<std::pair<const std::basic_string<char, std::char_traits<char>, std::allocator<char> >, std::basic_string<char, std::char_traits<char>, std::allocator<char> > > >, std::less<std::basic_string<char, std::char_traits<char>, std::allocator<char> > >, std::allocator<std::pair<const std::basic_string<char, std::char_traits<char>, std::allocator<char> >, std::basic_string<char, std::char_traits<char>, std::allocator<char> > > > >::_M_lower_bound
FUNC 1094a 2c 0 std::_Rb_tree<std::basic_string<char, std::char_traits<char>, std::allocator<char> >, std::pair<const std::basic_string<char, std::char_traits<char>, std::allocator<char> >, std::basic_string<char, std::char_traits<char>, std::allocator<char> > >, std::_Select1st<std::pair<const std::basic_string<char, std::char_traits<char>, std::allocator<char> >, std::basic_string<char, std::char_traits<char>, std::allocator<char> > > >, std::less<std::basic_string<char, std::char_traits<char>, std::allocator<char> > >, std::allocator<std::pair<const std::basic_string<char, std::char_traits<char>, std::allocator<char> >, std::basic_string<char, std::char_traits<char>, std::allocator<char> > > > >::_S_key
FUNC 10976 19 0 std::_Rb_tree_iterator<std::pair<const std::basic_string<char, std::char_traits<char>, std::allocator<char> >, std::basic_string<char, std::char_traits<char>, std::allocator<char> > > >::_Rb_tree_iterator
FUNC 10990 e 0 __gnu_cxx::__normal_iterator<short unsigned int*, std::vector<short unsigned int, std::allocator<short unsigned int> > >::base
FUNC 1099e 46 0 std::copy_backward<short unsigned int*, short unsigned int*>
FUNC 109e4 11 0 __gnu_cxx::__normal_iterator<short unsigned int*, std::vector<short unsigned int, std::allocator<short unsigned int> > >::operator*
FUNC 109f6 ca 0 std::vector<short unsigned int, std::allocator<short unsigned int> >::_M_check_len
FUNC 10ac0 25 0 std::vector<short unsigned int, std::allocator<short unsigned int> >::begin
FUNC 10ae5 45 0 __gnu_cxx::operator-<short unsigned int*, std::vector<short unsigned int, std::allocator<short unsigned int> > >
FUNC 10b2a 38 0 std::_Vector_base<short unsigned int, std::allocator<short unsigned int> >::_M_allocate
FUNC 10b62 3b 0 std::__uninitialized_move_a<short unsigned int*, short unsigned int*, std::allocator<short unsigned int> >
FUNC 10b9e e 0 __gnu_cxx::new_allocator<short unsigned int>::destroy
FUNC 10bac 1c 0 __gnu_cxx::__normal_iterator<short unsigned int*, std::vector<short unsigned int, std::allocator<short unsigned int> > >::__normal_iterator
FUNC 10bc8 1c 0 __gnu_cxx::__normal_iterator<const short unsigned int*, std::vector<short unsigned int, std::allocator<short unsigned int> > >::__normal_iterator
FUNC 10be4 e 0 __gnu_cxx::__normal_iterator<const short unsigned int*, std::vector<short unsigned int, std::allocator<short unsigned int> > >::base
FUNC 10bf2 1c 0 __gnu_cxx::__normal_iterator<const std::basic_string<char, std::char_traits<char>, std::allocator<char> >*, std::vector<std::basic_string<char, std::char_traits<char>, std::allocator<char> >, std::allocator<std::basic_string<char, std::char_traits<char>, std::allocator<char> > > > >::__normal_iterator
FUNC 10c0e 38 0 std::_Vector_base<std::basic_string<char, std::char_traits<char>, std::allocator<char> >, std::allocator<std::basic_string<char, std::char_traits<char>, std::allocator<char> > > >::_M_allocate
FUNC 10c46 22 0 __gnu_cxx::new_allocator<std::basic_string<char, std::char_traits<char>, std::allocator<char> > >::deallocate
FUNC 10c68 e 0 std::__miter_base<__gnu_cxx::__normal_iterator<const std::basic_string<char, std::char_traits<char>, std::allocator<char> >*, std::vector<std::basic_string<char, std::char_traits<char>, std::allocator<char> >, std::allocator<std::basic_string<char, std::char_traits<char>, std::allocator<char> > > > >, false>::__b
FUNC 10c76 73 0 std::__copy_move_a2<false, __gnu_cxx::__normal_iterator<const std::basic_string<char, std::char_traits<char>, std::allocator<char> >*, std::vector<std::basic_string<char, std::char_traits<char>, std::allocator<char> >, std::allocator<std::basic_string<char, std::char_traits<char>, std::allocator<char> > > > >, __gnu_cxx::__normal_iterator<std::basic_string<char, std::char_traits<char>, std::allocator<char> >*, std::vector<std::basic_string<char, std::char_traits<char>, std::allocator<char> >, std::allocator<std::basic_string<char, std::char_traits<char>, std::allocator<char> > > > > >
FUNC 10ce9 25 0 std::_Destroy<__gnu_cxx::__normal_iterator<std::basic_string<char, std::char_traits<char>, std::allocator<char> >*, std::vector<std::basic_string<char, std::char_traits<char>, std::allocator<char> >, std::allocator<std::basic_string<char, std::char_traits<char>, std::allocator<char> > > > > >
FUNC 10d0e e 0 std::__miter_base<std::basic_string<char, std::char_traits<char>, std::allocator<char> >*, false>::__b
FUNC 10d1c 58 0 std::__copy_move_a2<false, std::basic_string<char, std::char_traits<char>, std::allocator<char> >*, std::basic_string<char, std::char_traits<char>, std::allocator<char> >*>
FUNC 10d74 2d 0 std::uninitialized_copy<std::basic_string<char, std::char_traits<char>, std::allocator<char> >*, std::basic_string<char, std::char_traits<char>, std::allocator<char> >*>
FUNC 10da1 46 0 std::copy_backward<std::basic_string<char, std::char_traits<char>, std::allocator<char> >*, std::basic_string<char, std::char_traits<char>, std::allocator<char> >*>
FUNC 10de8 11 0 __gnu_cxx::__normal_iterator<std::basic_string<char, std::char_traits<char>, std::allocator<char> >*, std::vector<std::basic_string<char, std::char_traits<char>, std::allocator<char> >, std::allocator<std::basic_string<char, std::char_traits<char>, std::allocator<char> > > > >::operator*
FUNC 10dfa ca 0 std::vector<std::basic_string<char, std::char_traits<char>, std::allocator<char> >, std::allocator<std::basic_string<char, std::char_traits<char>, std::allocator<char> > > >::_M_check_len
FUNC 10ec4 46 0 __gnu_cxx::operator-<std::basic_string<char, std::char_traits<char>, std::allocator<char> >*, std::vector<std::basic_string<char, std::char_traits<char>, std::allocator<char> >, std::allocator<std::basic_string<char, std::char_traits<char>, std::allocator<char> > > > >
FUNC 10f0a 3b 0 std::__uninitialized_move_a<std::basic_string<char, std::char_traits<char>, std::allocator<char> >*, std::basic_string<char, std::char_traits<char>, std::allocator<char> >*, std::allocator<std::basic_string<char, std::char_traits<char>, std::allocator<char> > > >
FUNC 10f46 1e 0 __gnu_cxx::new_allocator<std::basic_string<char, std::char_traits<char>, std::allocator<char> > >::destroy
FUNC 10f64 2d 0 std::uninitialized_copy<__gnu_cxx::__normal_iterator<const std::basic_string<char, std::char_traits<char>, std::allocator<char> >*, std::vector<std::basic_string<char, std::char_traits<char>, std::allocator<char> >, std::allocator<std::basic_string<char, std::char_traits<char>, std::allocator<char> > > > >, std::basic_string<char, std::char_traits<char>, std::allocator<char> >*>
FUNC 10f91 12 0 std::_Rb_tree<std::basic_string<char, std::char_traits<char>, std::allocator<char> >, std::pair<const std::basic_string<char, std::char_traits<char>, std::allocator<char> >, std::basic_string<char, std::char_traits<char>, std::allocator<char> > >, std::_Select1st<std::pair<const std::basic_string<char, std::char_traits<char>, std::allocator<char> >, std::basic_string<char, std::char_traits<char>, std::allocator<char> > > >, std::less<std::basic_string<char, std::char_traits<char>, std::allocator<char> > >, std::allocator<std::pair<const std::basic_string<char, std::char_traits<char>, std::allocator<char> >, std::basic_string<char, std::char_traits<char>, std::allocator<char> > > > >::_S_right
FUNC 10fa4 1a 0 std::allocator<std::_Rb_tree_node<std::pair<const std::basic_string<char, std::char_traits<char>, std::allocator<char> >, std::basic_string<char, std::char_traits<char>, std::allocator<char> > > > >::allocator
FUNC 10fbe 41 0 std::_Rb_tree<std::basic_string<char, std::char_traits<char>, std::allocator<char> >, std::pair<const std::basic_string<char, std::char_traits<char>, std::allocator<char> >, std::basic_string<char, std::char_traits<char>, std::allocator<char> > >, std::_Select1st<std::pair<const std::basic_string<char, std::char_traits<char>, std::allocator<char> >, std::basic_string<char, std::char_traits<char>, std::allocator<char> > > >, std::less<std::basic_string<char, std::char_traits<char>, std::allocator<char> > >, std::allocator<std::pair<const std::basic_string<char, std::char_traits<char>, std::allocator<char> >, std::basic_string<char, std::char_traits<char>, std::allocator<char> > > > >::_Rb_tree_impl<std::less<std::basic_string<char, std::char_traits<char>, std::allocator<char> > >, false>::_M_initialize
FUNC 11000 3b 0 std::_Rb_tree<std::basic_string<char, std::char_traits<char>, std::allocator<char> >, std::pair<const std::basic_string<char, std::char_traits<char>, std::allocator<char> >, std::basic_string<char, std::char_traits<char>, std::allocator<char> > >, std::_Select1st<std::pair<const std::basic_string<char, std::char_traits<char>, std::allocator<char> >, std::basic_string<char, std::char_traits<char>, std::allocator<char> > > >, std::less<std::basic_string<char, std::char_traits<char>, std::allocator<char> > >, std::allocator<std::pair<const std::basic_string<char, std::char_traits<char>, std::allocator<char> >, std::basic_string<char, std::char_traits<char>, std::allocator<char> > > > >::get_allocator
FUNC 1103c 1a 0 std::allocator<std::pair<const std::basic_string<char, std::char_traits<char>, std::allocator<char> >, std::basic_string<char, std::char_traits<char>, std::allocator<char> > > >::~allocator
FUNC 11056 1e 0 __gnu_cxx::new_allocator<std::pair<const std::basic_string<char, std::char_traits<char>, std::allocator<char> >, std::basic_string<char, std::char_traits<char>, std::allocator<char> > > >::destroy
FUNC 11074 2a 0 std::_Rb_tree<std::basic_string<char, std::char_traits<char>, std::allocator<char> >, std::pair<const std::basic_string<char, std::char_traits<char>, std::allocator<char> >, std::basic_string<char, std::char_traits<char>, std::allocator<char> > >, std::_Select1st<std::pair<const std::basic_string<char, std::char_traits<char>, std::allocator<char> >, std::basic_string<char, std::char_traits<char>, std::allocator<char> > > >, std::less<std::basic_string<char, std::char_traits<char>, std::allocator<char> > >, std::allocator<std::pair<const std::basic_string<char, std::char_traits<char>, std::allocator<char> >, std::basic_string<char, std::char_traits<char>, std::allocator<char> > > > >::_M_put_node
FUNC 1109e 1a 0 std::allocator<short unsigned int>::allocator
FUNC 110b8 a 0 __gnu_cxx::new_allocator<short unsigned int>::~new_allocator
FUNC 110c2 22 0 __gnu_cxx::new_allocator<short unsigned int>::deallocate
FUNC 110e4 e 0 std::_Destroy_aux<true>::__destroy<short unsigned int*>
FUNC 110f2 1a 0 std::allocator<std::basic_string<char, std::char_traits<char>, std::allocator<char> > >::allocator
FUNC 1110c a 0 __gnu_cxx::new_allocator<std::basic_string<char, std::char_traits<char>, std::allocator<char> > >::~new_allocator
FUNC 11116 34 0 std::_Destroy_aux<false>::__destroy<std::basic_string<char, std::char_traits<char>, std::allocator<char> >*>
FUNC 1114a 12 0 std::_Select1st<std::pair<const std::basic_string<char, std::char_traits<char>, std::allocator<char> >, std::basic_string<char, std::char_traits<char>, std::allocator<char> > > >::operator()
FUNC 1115c 12 0 std::_Rb_tree<std::basic_string<char, std::char_traits<char>, std::allocator<char> >, std::pair<const std::basic_string<char, std::char_traits<char>, std::allocator<char> >, std::basic_string<char, std::char_traits<char>, std::allocator<char> > >, std::_Select1st<std::pair<const std::basic_string<char, std::char_traits<char>, std::allocator<char> >, std::basic_string<char, std::char_traits<char>, std::allocator<char> > > >, std::less<std::basic_string<char, std::char_traits<char>, std::allocator<char> > >, std::allocator<std::pair<const std::basic_string<char, std::char_traits<char>, std::allocator<char> >, std::basic_string<char, std::char_traits<char>, std::allocator<char> > > > >::size
FUNC 1116e e3 0 std::_Rb_tree<std::basic_string<char, std::char_traits<char>, std::allocator<char> >, std::pair<const std::basic_string<char, std::char_traits<char>, std::allocator<char> >, std::basic_string<char, std::char_traits<char>, std::allocator<char> > >, std::_Select1st<std::pair<const std::basic_string<char, std::char_traits<char>, std::allocator<char> >, std::basic_string<char, std::char_traits<char>, std::allocator<char> > > >, std::less<std::basic_string<char, std::char_traits<char>, std::allocator<char> > >, std::allocator<std::pair<const std::basic_string<char, std::char_traits<char>, std::allocator<char> >, std::basic_string<char, std::char_traits<char>, std::allocator<char> > > > >::_M_insert_
FUNC 11252 271 0 std::_Rb_tree<std::basic_string<char, std::char_traits<char>, std::allocator<char> >, std::pair<const std::basic_string<char, std::char_traits<char>, std::allocator<char> >, std::basic_string<char, std::char_traits<char>, std::allocator<char> > >, std::_Select1st<std::pair<const std::basic_string<char, std::char_traits<char>, std::allocator<char> >, std::basic_string<char, std::char_traits<char>, std::allocator<char> > > >, std::less<std::basic_string<char, std::char_traits<char>, std::allocator<char> > >, std::allocator<std::pair<const std::basic_string<char, std::char_traits<char>, std::allocator<char> >, std::basic_string<char, std::char_traits<char>, std::allocator<char> > > > >::_M_insert_unique
FUNC 114c4 28 0 std::_Rb_tree_const_iterator<std::pair<const std::basic_string<char, std::char_traits<char>, std::allocator<char> >, std::basic_string<char, std::char_traits<char>, std::allocator<char> > > >::operator--
FUNC 114ec 28 0 std::_Rb_tree_const_iterator<std::pair<const std::basic_string<char, std::char_traits<char>, std::allocator<char> >, std::basic_string<char, std::char_traits<char>, std::allocator<char> > > >::operator++
FUNC 11514 2c 0 std::_Rb_tree<std::basic_string<char, std::char_traits<char>, std::allocator<char> >, std::pair<const std::basic_string<char, std::char_traits<char>, std::allocator<char> >, std::basic_string<char, std::char_traits<char>, std::allocator<char> > >, std::_Select1st<std::pair<const std::basic_string<char, std::char_traits<char>, std::allocator<char> >, std::basic_string<char, std::char_traits<char>, std::allocator<char> > > >, std::less<std::basic_string<char, std::char_traits<char>, std::allocator<char> > >, std::allocator<std::pair<const std::basic_string<char, std::char_traits<char>, std::allocator<char> >, std::basic_string<char, std::char_traits<char>, std::allocator<char> > > > >::_S_key
FUNC 11540 12 0 std::_Rb_tree<std::basic_string<char, std::char_traits<char>, std::allocator<char> >, std::pair<const std::basic_string<char, std::char_traits<char>, std::allocator<char> >, std::basic_string<char, std::char_traits<char>, std::allocator<char> > >, std::_Select1st<std::pair<const std::basic_string<char, std::char_traits<char>, std::allocator<char> >, std::basic_string<char, std::char_traits<char>, std::allocator<char> > > >, std::less<std::basic_string<char, std::char_traits<char>, std::allocator<char> > >, std::allocator<std::pair<const std::basic_string<char, std::char_traits<char>, std::allocator<char> >, std::basic_string<char, std::char_traits<char>, std::allocator<char> > > > >::_S_value
FUNC 11552 e 0 std::__miter_base<short unsigned int*, false>::__b
FUNC 11560 58 0 std::__copy_move_backward_a2<false, short unsigned int*, short unsigned int*>
FUNC 115b8 28 0 std::vector<short unsigned int, std::allocator<short unsigned int> >::size
FUNC 115e0 22 0 std::vector<short unsigned int, std::allocator<short unsigned int> >::max_size
FUNC 11602 2b 0 std::max<size_t>
FUNC 1162e 4a 0 __gnu_cxx::new_allocator<short unsigned int>::allocate
FUNC 11678 31 0 std::__uninitialized_copy_a<short unsigned int*, short unsigned int*, short unsigned int>
FUNC 116aa 4b 0 __gnu_cxx::new_allocator<std::basic_string<char, std::char_traits<char>, std::allocator<char> > >::allocate
FUNC 116f5 1d 0 std::__niter_base<__gnu_cxx::__normal_iterator<const std::basic_string<char, std::char_traits<char>, std::allocator<char> >*, std::vector<std::basic_string<char, std::char_traits<char>, std::allocator<char> >, std::allocator<std::basic_string<char, std::char_traits<char>, std::allocator<char> > > > >, true>::__b
FUNC 11712 1d 0 std::__niter_base<__gnu_cxx::__normal_iterator<std::basic_string<char, std::char_traits<char>, std::allocator<char> >*, std::vector<std::basic_string<char, std::char_traits<char>, std::allocator<char> >, std::allocator<std::basic_string<char, std::char_traits<char>, std::allocator<char> > > > >, true>::__b
FUNC 1172f 31 0 std::__copy_move_a<false, const std::basic_string<char, std::char_traits<char>, std::allocator<char> >*, std::basic_string<char, std::char_traits<char>, std::allocator<char> >*>
FUNC 11760 4b 0 std::_Destroy_aux<false>::__destroy<__gnu_cxx::__normal_iterator<std::basic_string<char, std::char_traits<char>, std::allocator<char> >*, std::vector<std::basic_string<char, std::char_traits<char>, std::allocator<char> >, std::allocator<std::basic_string<char, std::char_traits<char>, std::allocator<char> > > > > >
FUNC 117ab e 0 std::__niter_base<std::basic_string<char, std::char_traits<char>, std::allocator<char> >*, false>::__b
FUNC 117b9 31 0 std::__copy_move_a<false, std::basic_string<char, std::char_traits<char>, std::allocator<char> >*, std::basic_string<char, std::char_traits<char>, std::allocator<char> >*>
FUNC 117ea 92 0 std::__uninitialized_copy<false>::uninitialized_copy<std::basic_string<char, std::char_traits<char>, std::allocator<char> >*, std::basic_string<char, std::char_traits<char>, std::allocator<char> >*>
FUNC 1187c 58 0 std::__copy_move_backward_a2<false, std::basic_string<char, std::char_traits<char>, std::allocator<char> >*, std::basic_string<char, std::char_traits<char>, std::allocator<char> >*>
FUNC 118d4 22 0 std::vector<std::basic_string<char, std::char_traits<char>, std::allocator<char> >, std::allocator<std::basic_string<char, std::char_traits<char>, std::allocator<char> > > >::max_size
FUNC 118f6 ac 0 std::__uninitialized_copy<false>::uninitialized_copy<__gnu_cxx::__normal_iterator<const std::basic_string<char, std::char_traits<char>, std::allocator<char> >*, std::vector<std::basic_string<char, std::char_traits<char>, std::allocator<char> >, std::allocator<std::basic_string<char, std::char_traits<char>, std::allocator<char> > > > >, std::basic_string<char, std::char_traits<char>, std::allocator<char> >*>
FUNC 119a2 bd 0 std::_Rb_tree<std::basic_string<char, std::char_traits<char>, std::allocator<char> >, std::pair<const std::basic_string<char, std::char_traits<char>, std::allocator<char> >, std::basic_string<char, std::char_traits<char>, std::allocator<char> > >, std::_Select1st<std::pair<const std::basic_string<char, std::char_traits<char>, std::allocator<char> >, std::basic_string<char, std::char_traits<char>, std::allocator<char> > > >, std::less<std::basic_string<char, std::char_traits<char>, std::allocator<char> > >, std::allocator<std::pair<const std::basic_string<char, std::char_traits<char>, std::allocator<char> >, std::basic_string<char, std::char_traits<char>, std::allocator<char> > > > >::_M_create_node
FUNC 11a60 a 0 __gnu_cxx::new_allocator<std::_Rb_tree_node<std::pair<const std::basic_string<char, std::char_traits<char>, std::allocator<char> >, std::basic_string<char, std::char_traits<char>, std::allocator<char> > > > >::new_allocator
FUNC 11a6a e 0 std::_Rb_tree<std::basic_string<char, std::char_traits<char>, std::allocator<char> >, std::pair<const std::basic_string<char, std::char_traits<char>, std::allocator<char> >, std::basic_string<char, std::char_traits<char>, std::allocator<char> > >, std::_Select1st<std::pair<const std::basic_string<char, std::char_traits<char>, std::allocator<char> >, std::basic_string<char, std::char_traits<char>, std::allocator<char> > > >, std::less<std::basic_string<char, std::char_traits<char>, std::allocator<char> > >, std::allocator<std::pair<const std::basic_string<char, std::char_traits<char>, std::allocator<char> >, std::basic_string<char, std::char_traits<char>, std::allocator<char> > > > >::_M_get_Node_allocator
FUNC 11a78 1e 0 std::allocator<std::pair<const std::basic_string<char, std::char_traits<char>, std::allocator<char> >, std::basic_string<char, std::char_traits<char>, std::allocator<char> > > >::allocator<std::_Rb_tree_node<std::pair<const std::basic_string<char, std::char_traits<char>, std::allocator<char> >, std::basic_string<char, std::char_traits<char>, std::allocator<char> > > > >
FUNC 11a96 a 0 __gnu_cxx::new_allocator<std::pair<const std::basic_string<char, std::char_traits<char>, std::allocator<char> >, std::basic_string<char, std::char_traits<char>, std::allocator<char> > > >::~new_allocator
FUNC 11aa0 22 0 __gnu_cxx::new_allocator<std::_Rb_tree_node<std::pair<const std::basic_string<char, std::char_traits<char>, std::allocator<char> >, std::basic_string<char, std::char_traits<char>, std::allocator<char> > > > >::deallocate
FUNC 11ac2 a 0 __gnu_cxx::new_allocator<short unsigned int>::new_allocator
FUNC 11acc a 0 __gnu_cxx::new_allocator<std::basic_string<char, std::char_traits<char>, std::allocator<char> > >::new_allocator
FUNC 11ad6 1a 0 std::_Destroy<std::basic_string<char, std::char_traits<char>, std::allocator<char> > >
FUNC 11af0 2c 0 std::_Rb_tree<std::basic_string<char, std::char_traits<char>, std::allocator<char> >, std::pair<const std::basic_string<char, std::char_traits<char>, std::allocator<char> >, std::basic_string<char, std::char_traits<char>, std::allocator<char> > >, std::_Select1st<std::pair<const std::basic_string<char, std::char_traits<char>, std::allocator<char> >, std::basic_string<char, std::char_traits<char>, std::allocator<char> > > >, std::less<std::basic_string<char, std::char_traits<char>, std::allocator<char> > >, std::allocator<std::pair<const std::basic_string<char, std::char_traits<char>, std::allocator<char> >, std::basic_string<char, std::char_traits<char>, std::allocator<char> > > > >::begin
FUNC 11b1c 2e 0 std::pair<std::_Rb_tree_iterator<std::pair<const std::basic_string<char, std::char_traits<char>, std::allocator<char> >, std::basic_string<char, std::char_traits<char>, std::allocator<char> > > >, bool>::pair
FUNC 11b4a 28 0 std::_Rb_tree_iterator<std::pair<const std::basic_string<char, std::char_traits<char>, std::allocator<char> >, std::basic_string<char, std::char_traits<char>, std::allocator<char> > > >::operator--
FUNC 11b72 12 0 std::_Rb_tree<std::basic_string<char, std::char_traits<char>, std::allocator<char> >, std::pair<const std::basic_string<char, std::char_traits<char>, std::allocator<char> >, std::basic_string<char, std::char_traits<char>, std::allocator<char> > >, std::_Select1st<std::pair<const std::basic_string<char, std::char_traits<char>, std::allocator<char> >, std::basic_string<char, std::char_traits<char>, std::allocator<char> > > >, std::less<std::basic_string<char, std::char_traits<char>, std::allocator<char> > >, std::allocator<std::pair<const std::basic_string<char, std::char_traits<char>, std::allocator<char> >, std::basic_string<char, std::char_traits<char>, std::allocator<char> > > > >::_S_value
FUNC 11b84 e 0 std::__niter_base<short unsigned int*, false>::__b
FUNC 11b92 31 0 std::__copy_move_backward_a<false, short unsigned int*, short unsigned int*>
FUNC 11bc4 e 0 std::_Vector_base<short unsigned int, std::allocator<short unsigned int> >::_M_get_Tp_allocator
FUNC 11bd2 14 0 __gnu_cxx::new_allocator<short unsigned int>::max_size
FUNC 11be6 2d 0 std::uninitialized_copy<short unsigned int*, short unsigned int*>
FUNC 11c14 14 0 __gnu_cxx::new_allocator<std::basic_string<char, std::char_traits<char>, std::allocator<char> > >::max_size
FUNC 11c28 63 0 std::__copy_move<false, false, std::random_access_iterator_tag>::__copy_m<const std::basic_string<char, std::char_traits<char>, std::allocator<char> >*, std::basic_string<char, std::char_traits<char>, std::allocator<char> >*>
FUNC 11c8b 3c 0 __gnu_cxx::operator!=<std::basic_string<char, std::char_traits<char>, std::allocator<char> >*, std::vector<std::basic_string<char, std::char_traits<char>, std::allocator<char> >, std::allocator<std::basic_string<char, std::char_traits<char>, std::allocator<char> > > > >
FUNC 11cc8 20 0 __gnu_cxx::__normal_iterator<std::basic_string<char, std::char_traits<char>, std::allocator<char> >*, std::vector<std::basic_string<char, std::char_traits<char>, std::allocator<char> >, std::allocator<std::basic_string<char, std::char_traits<char>, std::allocator<char> > > > >::operator++
FUNC 11ce8 63 0 std::__copy_move<false, false, std::random_access_iterator_tag>::__copy_m<std::basic_string<char, std::char_traits<char>, std::allocator<char> >*, std::basic_string<char, std::char_traits<char>, std::allocator<char> >*>
FUNC 11d4b 73 0 std::_Construct<std::basic_string<char, std::char_traits<char>, std::allocator<char> >, std::basic_string<char, std::char_traits<char>, std::allocator<char> > >
FUNC 11dbe 31 0 std::__copy_move_backward_a<false, std::basic_string<char, std::char_traits<char>, std::allocator<char> >*, std::basic_string<char, std::char_traits<char>, std::allocator<char> >*>
FUNC 11def 3c 0 __gnu_cxx::operator!=<const std::basic_string<char, std::char_traits<char>, std::allocator<char> >*, std::vector<std::basic_string<char, std::char_traits<char>, std::allocator<char> >, std::allocator<std::basic_string<char, std::char_traits<char>, std::allocator<char> > > > >
FUNC 11e2c 24 0 std::_Rb_tree<std::basic_string<char, std::char_traits<char>, std::allocator<char> >, std::pair<const std::basic_string<char, std::char_traits<char>, std::allocator<char> >, std::basic_string<char, std::char_traits<char>, std::allocator<char> > >, std::_Select1st<std::pair<const std::basic_string<char, std::char_traits<char>, std::allocator<char> >, std::basic_string<char, std::char_traits<char>, std::allocator<char> > > >, std::less<std::basic_string<char, std::char_traits<char>, std::allocator<char> > >, std::allocator<std::pair<const std::basic_string<char, std::char_traits<char>, std::allocator<char> >, std::basic_string<char, std::char_traits<char>, std::allocator<char> > > > >::_M_get_node
FUNC 11e50 6b 0 std::pair<const std::basic_string<char, std::char_traits<char>, std::allocator<char> >, std::basic_string<char, std::char_traits<char>, std::allocator<char> > >::pair
FUNC 11ebc 77 0 __gnu_cxx::new_allocator<std::pair<const std::basic_string<char, std::char_traits<char>, std::allocator<char> >, std::basic_string<char, std::char_traits<char>, std::allocator<char> > > >::construct
FUNC 11f34 a 0 __gnu_cxx::new_allocator<std::pair<const std::basic_string<char, std::char_traits<char>, std::allocator<char> >, std::basic_string<char, std::char_traits<char>, std::allocator<char> > > >::new_allocator
FUNC 11f3e 61 0 std::__copy_move_backward<false, true, std::random_access_iterator_tag>::__copy_move_b<short unsigned int>
FUNC 11f9f 2d 0 std::__uninitialized_copy<true>::uninitialized_copy<short unsigned int*, short unsigned int*>
FUNC 11fcc 63 0 std::__copy_move_backward<false, false, std::random_access_iterator_tag>::__copy_move_b<std::basic_string<char, std::char_traits<char>, std::allocator<char> >*, std::basic_string<char, std::char_traits<char>, std::allocator<char> >*>
FUNC 12030 54 0 __gnu_cxx::new_allocator<std::_Rb_tree_node<std::pair<const std::basic_string<char, std::char_traits<char>, std::allocator<char> >, std::basic_string<char, std::char_traits<char>, std::allocator<char> > > > >::allocate
FUNC 12084 46 0 std::copy<short unsigned int*, short unsigned int*>
FUNC 120ca 14 0 __gnu_cxx::new_allocator<std::_Rb_tree_node<std::pair<const std::basic_string<char, std::char_traits<char>, std::allocator<char> >, std::basic_string<char, std::char_traits<char>, std::allocator<char> > > > >::max_size
FUNC 120de 58 0 std::__copy_move_a2<false, short unsigned int*, short unsigned int*>
FUNC 12136 31 0 std::__copy_move_a<false, short unsigned int*, short unsigned int*>
FUNC 12167 5c 0 std::__copy_move<false, true, std::random_access_iterator_tag>::__copy_m<short unsigned int>
FUNC 121c4 119 0 EncapMysql::EncapMysql
FUNC 122de 102 0 EncapMysql::~EncapMysql
FUNC 123e0 74 0 EncapMysql::GetInstance
FUNC 12454 112 0 EncapMysql::Connect
FUNC 12566 31 0 EncapMysql::CloseConnect
FUNC 12598 402 0 EncapMysql::SelectQuery
FUNC 1299a 1e3 0 EncapMysql::ModifyQuery
FUNC 12b7e 4e 0 EncapMysql::FetchRow
FUNC 12bcc c3 0 EncapMysql::GetField
FUNC 12c90 3b 0 EncapMysql::GetField
FUNC 12ccc 40 0 EncapMysql::FreePreResult
FUNC 12d0c 12 0 EncapMysql::GetErrMsg
FUNC 12d1e 12 0 EncapMysql::IsConnected
FUNC 12d30 1a 0 EncapMysql::SetConnected
FUNC 12d4a 68 0 EncapMysql::SaveParam
FUNC 12db2 107 0 EncapMysql::ReConnect
FUNC 12eba 11 0 EncapMysql::SetUsed
FUNC 12ecc 11 0 EncapMysql::SetIdle
FUNC 12ede 14 0 EncapMysql::IsIdle
FUNC 12ef2 77 0 __static_initialization_and_destruction_0
FUNC 12f69 15 0 _GLOBAL__I_EncapMysql.cpp
FUNC 12f7e 1a 0 Mutex::WriterLock
FUNC 12f98 1a 0 Mutex::WriterUnlock
FUNC 12fb2 12 0 Mutex::SetIsSafe
FUNC 12fc4 50 0 Mutex::Mutex
FUNC 13014 3f 0 Mutex::~Mutex
FUNC 13054 3f 0 Mutex::Lock
FUNC 13094 3f 0 Mutex::Unlock
FUNC 130d4 2c 0 WriterMutexLock::WriterMutexLock
FUNC 13100 1d 0 WriterMutexLock::~WriterMutexLock
FUNC 1311e 1a 0 std::map<std::basic_string<char, std::char_traits<char>, std::allocator<char> >, int, std::less<std::basic_string<char, std::char_traits<char>, std::allocator<char> > >, std::allocator<std::pair<const std::basic_string<char, std::char_traits<char>, std::allocator<char> >, int> > >::~map
FUNC 13138 1a 0 std::map<std::basic_string<char, std::char_traits<char>, std::allocator<char> >, int, std::less<std::basic_string<char, std::char_traits<char>, std::allocator<char> > >, std::allocator<std::pair<const std::basic_string<char, std::char_traits<char>, std::allocator<char> >, int> > >::map
FUNC 13152 1a 0 std::_Rb_tree<std::basic_string<char, std::char_traits<char>, std::allocator<char> >, std::pair<const std::basic_string<char, std::char_traits<char>, std::allocator<char> >, int>, std::_Select1st<std::pair<const std::basic_string<char, std::char_traits<char>, std::allocator<char> >, int> >, std::less<std::basic_string<char, std::char_traits<char>, std::allocator<char> > >, std::allocator<std::pair<const std::basic_string<char, std::char_traits<char>, std::allocator<char> >, int> > >::_Rb_tree_impl<std::less<std::basic_string<char, std::char_traits<char>, std::allocator<char> > >, false>::~_Rb_tree_impl
FUNC 1316c 63 0 std::_Rb_tree<std::basic_string<char, std::char_traits<char>, std::allocator<char> >, std::pair<const std::basic_string<char, std::char_traits<char>, std::allocator<char> >, int>, std::_Select1st<std::pair<const std::basic_string<char, std::char_traits<char>, std::allocator<char> >, int> >, std::less<std::basic_string<char, std::char_traits<char>, std::allocator<char> > >, std::allocator<std::pair<const std::basic_string<char, std::char_traits<char>, std::allocator<char> >, int> > >::~_Rb_tree
FUNC 131d0 1a 0 std::map<std::basic_string<char, std::char_traits<char>, std::allocator<char> >, int, std::less<std::basic_string<char, std::char_traits<char>, std::allocator<char> > >, std::allocator<std::pair<const std::basic_string<char, std::char_traits<char>, std::allocator<char> >, int> > >::clear
FUNC 131ea 1a 0 std::pair<const std::basic_string<char, std::char_traits<char>, std::allocator<char> >, int>::~pair
FUNC 13204 118 0 std::map<std::basic_string<char, std::char_traits<char>, std::allocator<char> >, int, std::less<std::basic_string<char, std::char_traits<char>, std::allocator<char> > >, std::allocator<std::pair<const std::basic_string<char, std::char_traits<char>, std::allocator<char> >, int> > >::operator[]
FUNC 1331c 1a 0 std::_Rb_tree<std::basic_string<char, std::char_traits<char>, std::allocator<char> >, std::pair<const std::basic_string<char, std::char_traits<char>, std::allocator<char> >, int>, std::_Select1st<std::pair<const std::basic_string<char, std::char_traits<char>, std::allocator<char> >, int> >, std::less<std::basic_string<char, std::char_traits<char>, std::allocator<char> > >, std::allocator<std::pair<const std::basic_string<char, std::char_traits<char>, std::allocator<char> >, int> > >::_Rb_tree
FUNC 13336 1a 0 std::allocator<std::_Rb_tree_node<std::pair<const std::basic_string<char, std::char_traits<char>, std::allocator<char> >, int> > >::~allocator
FUNC 13350 69 0 std::_Rb_tree<std::basic_string<char, std::char_traits<char>, std::allocator<char> >, std::pair<const std::basic_string<char, std::char_traits<char>, std::allocator<char> >, int>, std::_Select1st<std::pair<const std::basic_string<char, std::char_traits<char>, std::allocator<char> >, int> >, std::less<std::basic_string<char, std::char_traits<char>, std::allocator<char> > >, std::allocator<std::pair<const std::basic_string<char, std::char_traits<char>, std::allocator<char> >, int> > >::_M_erase
FUNC 133ba 12 0 std::_Rb_tree<std::basic_string<char, std::char_traits<char>, std::allocator<char> >, std::pair<const std::basic_string<char, std::char_traits<char>, std::allocator<char> >, int>, std::_Select1st<std::pair<const std::basic_string<char, std::char_traits<char>, std::allocator<char> >, int> >, std::less<std::basic_string<char, std::char_traits<char>, std::allocator<char> > >, std::allocator<std::pair<const std::basic_string<char, std::char_traits<char>, std::allocator<char> >, int> > >::_M_begin
FUNC 133cc 8d 0 std::_Rb_tree<std::basic_string<char, std::char_traits<char>, std::allocator<char> >, std::pair<const std::basic_string<char, std::char_traits<char>, std::allocator<char> >, int>, std::_Select1st<std::pair<const std::basic_string<char, std::char_traits<char>, std::allocator<char> >, int> >, std::less<std::basic_string<char, std::char_traits<char>, std::allocator<char> > >, std::allocator<std::pair<const std::basic_string<char, std::char_traits<char>, std::allocator<char> >, int> > >::clear
FUNC 1345a 25 0 std::map<std::basic_string<char, std::char_traits<char>, std::allocator<char> >, int, std::less<std::basic_string<char, std::char_traits<char>, std::allocator<char> > >, std::allocator<std::pair<const std::basic_string<char, std::char_traits<char>, std::allocator<char> >, int> > >::lower_bound
FUNC 13480 1a 0 std::map<std::basic_string<char, std::char_traits<char>, std::allocator<char> >, int, std::less<std::basic_string<char, std::char_traits<char>, std::allocator<char> > >, std::allocator<std::pair<const std::basic_string<char, std::char_traits<char>, std::allocator<char> >, int> > >::key_comp
FUNC 1349a 15 0 std::_Rb_tree_iterator<std::pair<const std::basic_string<char, std::char_traits<char>, std::allocator<char> >, int> >::operator*
FUNC 134b0 1a 0 std::map<std::basic_string<char, std::char_traits<char>, std::allocator<char> >, int, std::less<std::basic_string<char, std::char_traits<char>, std::allocator<char> > >, std::allocator<std::pair<const std::basic_string<char, std::char_traits<char>, std::allocator<char> >, int> > >::end
FUNC 134ca 22 0 std::_Rb_tree_iterator<std::pair<const std::basic_string<char, std::char_traits<char>, std::allocator<char> >, int> >::operator==
FUNC 134ec 36 0 std::pair<const std::basic_string<char, std::char_traits<char>, std::allocator<char> >, int>::pair
FUNC 13522 40 0 std::map<std::basic_string<char, std::char_traits<char>, std::allocator<char> >, int, std::less<std::basic_string<char, std::char_traits<char>, std::allocator<char> > >, std::allocator<std::pair<const std::basic_string<char, std::char_traits<char>, std::allocator<char> >, int> > >::insert
FUNC 13562 8c 0 std::_Rb_tree<std::basic_string<char, std::char_traits<char>, std::allocator<char> >, std::pair<const std::basic_string<char, std::char_traits<char>, std::allocator<char> >, int>, std::_Select1st<std::pair<const std::basic_string<char, std::char_traits<char>, std::allocator<char> >, int> >, std::less<std::basic_string<char, std::char_traits<char>, std::allocator<char> > >, std::allocator<std::pair<const std::basic_string<char, std::char_traits<char>, std::allocator<char> >, int> > >::_Rb_tree_impl<std::less<std::basic_string<char, std::char_traits<char>, std::allocator<char> > >, false>::_Rb_tree_impl
FUNC 135ee a 0 __gnu_cxx::new_allocator<std::_Rb_tree_node<std::pair<const std::basic_string<char, std::char_traits<char>, std::allocator<char> >, int> > >::~new_allocator
FUNC 135f8 12 0 std::_Rb_tree<std::basic_string<char, std::char_traits<char>, std::allocator<char> >, std::pair<const std::basic_string<char, std::char_traits<char>, std::allocator<char> >, int>, std::_Select1st<std::pair<const std::basic_string<char, std::char_traits<char>, std::allocator<char> >, int> >, std::less<std::basic_string<char, std::char_traits<char>, std::allocator<char> > >, std::allocator<std::pair<const std::basic_string<char, std::char_traits<char>, std::allocator<char> >, int> > >::_S_right
FUNC 1360a 12 0 std::_Rb_tree<std::basic_string<char, std::char_traits<char>, std::allocator<char> >, std::pair<const std::basic_string<char, std::char_traits<char>, std::allocator<char> >, int>, std::_Select1st<std::pair<const std::basic_string<char, std::char_traits<char>, std::allocator<char> >, int> >, std::less<std::basic_string<char, std::char_traits<char>, std::allocator<char> > >, std::allocator<std::pair<const std::basic_string<char, std::char_traits<char>, std::allocator<char> >, int> > >::_S_left
FUNC 1361c 86 0 std::_Rb_tree<std::basic_string<char, std::char_traits<char>, std::allocator<char> >, std::pair<const std::basic_string<char, std::char_traits<char>, std::allocator<char> >, int>, std::_Select1st<std::pair<const std::basic_string<char, std::char_traits<char>, std::allocator<char> >, int> >, std::less<std::basic_string<char, std::char_traits<char>, std::allocator<char> > >, std::allocator<std::pair<const std::basic_string<char, std::char_traits<char>, std::allocator<char> >, int> > >::_M_destroy_node
FUNC 136a2 12 0 std::_Rb_tree<std::basic_string<char, std::char_traits<char>, std::allocator<char> >, std::pair<const std::basic_string<char, std::char_traits<char>, std::allocator<char> >, int>, std::_Select1st<std::pair<const std::basic_string<char, std::char_traits<char>, std::allocator<char> >, int> >, std::less<std::basic_string<char, std::char_traits<char>, std::allocator<char> > >, std::allocator<std::pair<const std::basic_string<char, std::char_traits<char>, std::allocator<char> >, int> > >::_M_end
FUNC 136b4 12 0 std::_Rb_tree<std::basic_string<char, std::char_traits<char>, std::allocator<char> >, std::pair<const std::basic_string<char, std::char_traits<char>, std::allocator<char> >, int>, std::_Select1st<std::pair<const std::basic_string<char, std::char_traits<char>, std::allocator<char> >, int> >, std::less<std::basic_string<char, std::char_traits<char>, std::allocator<char> > >, std::allocator<std::pair<const std::basic_string<char, std::char_traits<char>, std::allocator<char> >, int> > >::_M_leftmost
FUNC 136c6 12 0 std::_Rb_tree<std::basic_string<char, std::char_traits<char>, std::allocator<char> >, std::pair<const std::basic_string<char, std::char_traits<char>, std::allocator<char> >, int>, std::_Select1st<std::pair<const std::basic_string<char, std::char_traits<char>, std::allocator<char> >, int> >, std::less<std::basic_string<char, std::char_traits<char>, std::allocator<char> > >, std::allocator<std::pair<const std::basic_string<char, std::char_traits<char>, std::allocator<char> >, int> > >::_M_root
FUNC 136d8 12 0 std::_Rb_tree<std::basic_string<char, std::char_traits<char>, std::allocator<char> >, std::pair<const std::basic_string<char, std::char_traits<char>, std::allocator<char> >, int>, std::_Select1st<std::pair<const std::basic_string<char, std::char_traits<char>, std::allocator<char> >, int> >, std::less<std::basic_string<char, std::char_traits<char>, std::allocator<char> > >, std::allocator<std::pair<const std::basic_string<char, std::char_traits<char>, std::allocator<char> >, int> > >::_M_rightmost
FUNC 136ea 53 0 std::_Rb_tree<std::basic_string<char, std::char_traits<char>, std::allocator<char> >, std::pair<const std::basic_string<char, std::char_traits<char>, std::allocator<char> >, int>, std::_Select1st<std::pair<const std::basic_string<char, std::char_traits<char>, std::allocator<char> >, int> >, std::less<std::basic_string<char, std::char_traits<char>, std::allocator<char> > >, std::allocator<std::pair<const std::basic_string<char, std::char_traits<char>, std::allocator<char> >, int> > >::lower_bound
FUNC 1373e a 0 std::_Rb_tree<std::basic_string<char, std::char_traits<char>, std::allocator<char> >, std::pair<const std::basic_string<char, std::char_traits<char>, std::allocator<char> >, int>, std::_Select1st<std::pair<const std::basic_string<char, std::char_traits<char>, std::allocator<char> >, int> >, std::less<std::basic_string<char, std::char_traits<char>, std::allocator<char> > >, std::allocator<std::pair<const std::basic_string<char, std::char_traits<char>, std::allocator<char> >, int> > >::key_comp
FUNC 13748 2c 0 std::_Rb_tree<std::basic_string<char, std::char_traits<char>, std::allocator<char> >, std::pair<const std::basic_string<char, std::char_traits<char>, std::allocator<char> >, int>, std::_Select1st<std::pair<const std::basic_string<char, std::char_traits<char>, std::allocator<char> >, int> >, std::less<std::basic_string<char, std::char_traits<char>, std::allocator<char> > >, std::allocator<std::pair<const std::basic_string<char, std::char_traits<char>, std::allocator<char> >, int> > >::end
FUNC 13774 1c 0 std::_Rb_tree_const_iterator<std::pair<const std::basic_string<char, std::char_traits<char>, std::allocator<char> >, int> >::_Rb_tree_const_iterator
FUNC 13790 4c0 0 std::_Rb_tree<std::basic_string<char, std::char_traits<char>, std::allocator<char> >, std::pair<const std::basic_string<char, std::char_traits<char>, std::allocator<char> >, int>, std::_Select1st<std::pair<const std::basic_string<char, std::char_traits<char>, std::allocator<char> >, int> >, std::less<std::basic_string<char, std::char_traits<char>, std::allocator<char> > >, std::allocator<std::pair<const std::basic_string<char, std::char_traits<char>, std::allocator<char> >, int> > >::_M_insert_unique_
FUNC 13c50 1a 0 std::allocator<std::_Rb_tree_node<std::pair<const std::basic_string<char, std::char_traits<char>, std::allocator<char> >, int> > >::allocator
FUNC 13c6a 41 0 std::_Rb_tree<std::basic_string<char, std::char_traits<char>, std::allocator<char> >, std::pair<const std::basic_string<char, std::char_traits<char>, std::allocator<char> >, int>, std::_Select1st<std::pair<const std::basic_string<char, std::char_traits<char>, std::allocator<char> >, int> >, std::less<std::basic_string<char, std::char_traits<char>, std::allocator<char> > >, std::allocator<std::pair<const std::basic_string<char, std::char_traits<char>, std::allocator<char> >, int> > >::_Rb_tree_impl<std::less<std::basic_string<char, std::char_traits<char>, std::allocator<char> > >, false>::_M_initialize
FUNC 13cac 3b 0 std::_Rb_tree<std::basic_string<char, std::char_traits<char>, std::allocator<char> >, std::pair<const std::basic_string<char, std::char_traits<char>, std::allocator<char> >, int>, std::_Select1st<std::pair<const std::basic_string<char, std::char_traits<char>, std::allocator<char> >, int> >, std::less<std::basic_string<char, std::char_traits<char>, std::allocator<char> > >, std::allocator<std::pair<const std::basic_string<char, std::char_traits<char>, std::allocator<char> >, int> > >::get_allocator
FUNC 13ce8 1a 0 std::allocator<std::pair<const std::basic_string<char, std::char_traits<char>, std::allocator<char> >, int> >::~allocator
FUNC 13d02 1e 0 __gnu_cxx::new_allocator<std::pair<const std::basic_string<char, std::char_traits<char>, std::allocator<char> >, int> >::destroy
FUNC 13d20 2a 0 std::_Rb_tree<std::basic_string<char, std::char_traits<char>, std::allocator<char> >, std::pair<const std::basic_string<char, std::char_traits<char>, std::allocator<char> >, int>, std::_Select1st<std::pair<const std::basic_string<char, std::char_traits<char>, std::allocator<char> >, int> >, std::less<std::basic_string<char, std::char_traits<char>, std::allocator<char> > >, std::allocator<std::pair<const std::basic_string<char, std::char_traits<char>, std::allocator<char> >, int> > >::_M_put_node
FUNC 13d4a 92 0 std::_Rb_tree<std::basic_string<char, std::char_traits<char>, std::allocator<char> >, std::pair<const std::basic_string<char, std::char_traits<char>, std::allocator<char> >, int>, std::_Select1st<std::pair<const std::basic_string<char, std::char_traits<char>, std::allocator<char> >, int> >, std::less<std::basic_string<char, std::char_traits<char>, std::allocator<char> > >, std::allocator<std::pair<const std::basic_string<char, std::char_traits<char>, std::allocator<char> >, int> > >::_M_lower_bound
FUNC 13ddc 19 0 std::_Rb_tree_iterator<std::pair<const std::basic_string<char, std::char_traits<char>, std::allocator<char> >, int> >::_Rb_tree_iterator
FUNC 13df5 2c 0 std::_Rb_tree<std::basic_string<char, std::char_traits<char>, std::allocator<char> >, std::pair<const std::basic_string<char, std::char_traits<char>, std::allocator<char> >, int>, std::_Select1st<std::pair<const std::basic_string<char, std::char_traits<char>, std::allocator<char> >, int> >, std::less<std::basic_string<char, std::char_traits<char>, std::allocator<char> > >, std::allocator<std::pair<const std::basic_string<char, std::char_traits<char>, std::allocator<char> >, int> > >::_S_key
FUNC 13e22 12 0 std::_Select1st<std::pair<const std::basic_string<char, std::char_traits<char>, std::allocator<char> >, int> >::operator()
FUNC 13e34 12 0 std::_Rb_tree<std::basic_string<char, std::char_traits<char>, std::allocator<char> >, std::pair<const std::basic_string<char, std::char_traits<char>, std::allocator<char> >, int>, std::_Select1st<std::pair<const std::basic_string<char, std::char_traits<char>, std::allocator<char> >, int> >, std::less<std::basic_string<char, std::char_traits<char>, std::allocator<char> > >, std::allocator<std::pair<const std::basic_string<char, std::char_traits<char>, std::allocator<char> >, int> > >::size
FUNC 13e46 e3 0 std::_Rb_tree<std::basic_string<char, std::char_traits<char>, std::allocator<char> >, std::pair<const std::basic_string<char, std::char_traits<char>, std::allocator<char> >, int>, std::_Select1st<std::pair<const std::basic_string<char, std::char_traits<char>, std::allocator<char> >, int> >, std::less<std::basic_string<char, std::char_traits<char>, std::allocator<char> > >, std::allocator<std::pair<const std::basic_string<char, std::char_traits<char>, std::allocator<char> >, int> > >::_M_insert_
FUNC 13f2a 271 0 std::_Rb_tree<std::basic_string<char, std::char_traits<char>, std::allocator<char> >, std::pair<const std::basic_string<char, std::char_traits<char>, std::allocator<char> >, int>, std::_Select1st<std::pair<const std::basic_string<char, std::char_traits<char>, std::allocator<char> >, int> >, std::less<std::basic_string<char, std::char_traits<char>, std::allocator<char> > >, std::allocator<std::pair<const std::basic_string<char, std::char_traits<char>, std::allocator<char> >, int> > >::_M_insert_unique
FUNC 1419c 28 0 std::_Rb_tree_const_iterator<std::pair<const std::basic_string<char, std::char_traits<char>, std::allocator<char> >, int> >::operator--
FUNC 141c4 12 0 std::_Rb_tree<std::basic_string<char, std::char_traits<char>, std::allocator<char> >, std::pair<const std::basic_string<char, std::char_traits<char>, std::allocator<char> >, int>, std::_Select1st<std::pair<const std::basic_string<char, std::char_traits<char>, std::allocator<char> >, int> >, std::less<std::basic_string<char, std::char_traits<char>, std::allocator<char> > >, std::allocator<std::pair<const std::basic_string<char, std::char_traits<char>, std::allocator<char> >, int> > >::_S_right
FUNC 141d6 28 0 std::_Rb_tree_const_iterator<std::pair<const std::basic_string<char, std::char_traits<char>, std::allocator<char> >, int> >::operator++
FUNC 141fe a 0 __gnu_cxx::new_allocator<std::_Rb_tree_node<std::pair<const std::basic_string<char, std::char_traits<char>, std::allocator<char> >, int> > >::new_allocator
FUNC 14208 e 0 std::_Rb_tree<std::basic_string<char, std::char_traits<char>, std::allocator<char> >, std::pair<const std::basic_string<char, std::char_traits<char>, std::allocator<char> >, int>, std::_Select1st<std::pair<const std::basic_string<char, std::char_traits<char>, std::allocator<char> >, int> >, std::less<std::basic_string<char, std::char_traits<char>, std::allocator<char> > >, std::allocator<std::pair<const std::basic_string<char, std::char_traits<char>, std::allocator<char> >, int> > >::_M_get_Node_allocator
FUNC 14216 1e 0 std::allocator<std::pair<const std::basic_string<char, std::char_traits<char>, std::allocator<char> >, int> >::allocator<std::_Rb_tree_node<std::pair<const std::basic_string<char, std::char_traits<char>, std::allocator<char> >, int> > >
FUNC 14234 a 0 __gnu_cxx::new_allocator<std::pair<const std::basic_string<char, std::char_traits<char>, std::allocator<char> >, int> >::~new_allocator
FUNC 1423e 22 0 __gnu_cxx::new_allocator<std::_Rb_tree_node<std::pair<const std::basic_string<char, std::char_traits<char>, std::allocator<char> >, int> > >::deallocate
FUNC 14260 2c 0 std::_Rb_tree<std::basic_string<char, std::char_traits<char>, std::allocator<char> >, std::pair<const std::basic_string<char, std::char_traits<char>, std::allocator<char> >, int>, std::_Select1st<std::pair<const std::basic_string<char, std::char_traits<char>, std::allocator<char> >, int> >, std::less<std::basic_string<char, std::char_traits<char>, std::allocator<char> > >, std::allocator<std::pair<const std::basic_string<char, std::char_traits<char>, std::allocator<char> >, int> > >::_S_key
FUNC 1428c 12 0 std::_Rb_tree<std::basic_string<char, std::char_traits<char>, std::allocator<char> >, std::pair<const std::basic_string<char, std::char_traits<char>, std::allocator<char> >, int>, std::_Select1st<std::pair<const std::basic_string<char, std::char_traits<char>, std::allocator<char> >, int> >, std::less<std::basic_string<char, std::char_traits<char>, std::allocator<char> > >, std::allocator<std::pair<const std::basic_string<char, std::char_traits<char>, std::allocator<char> >, int> > >::_S_value
FUNC 1429e bd 0 std::_Rb_tree<std::basic_string<char, std::char_traits<char>, std::allocator<char> >, std::pair<const std::basic_string<char, std::char_traits<char>, std::allocator<char> >, int>, std::_Select1st<std::pair<const std::basic_string<char, std::char_traits<char>, std::allocator<char> >, int> >, std::less<std::basic_string<char, std::char_traits<char>, std::allocator<char> > >, std::allocator<std::pair<const std::basic_string<char, std::char_traits<char>, std::allocator<char> >, int> > >::_M_create_node
FUNC 1435c 2c 0 std::_Rb_tree<std::basic_string<char, std::char_traits<char>, std::allocator<char> >, std::pair<const std::basic_string<char, std::char_traits<char>, std::allocator<char> >, int>, std::_Select1st<std::pair<const std::basic_string<char, std::char_traits<char>, std::allocator<char> >, int> >, std::less<std::basic_string<char, std::char_traits<char>, std::allocator<char> > >, std::allocator<std::pair<const std::basic_string<char, std::char_traits<char>, std::allocator<char> >, int> > >::begin
FUNC 14388 2e 0 std::pair<std::_Rb_tree_iterator<std::pair<const std::basic_string<char, std::char_traits<char>, std::allocator<char> >, int> >, bool>::pair
FUNC 143b6 28 0 std::_Rb_tree_iterator<std::pair<const std::basic_string<char, std::char_traits<char>, std::allocator<char> >, int> >::operator--
FUNC 143de a 0 __gnu_cxx::new_allocator<std::pair<const std::basic_string<char, std::char_traits<char>, std::allocator<char> >, int> >::new_allocator
FUNC 143e8 12 0 std::_Rb_tree<std::basic_string<char, std::char_traits<char>, std::allocator<char> >, std::pair<const std::basic_string<char, std::char_traits<char>, std::allocator<char> >, int>, std::_Select1st<std::pair<const std::basic_string<char, std::char_traits<char>, std::allocator<char> >, int> >, std::less<std::basic_string<char, std::char_traits<char>, std::allocator<char> > >, std::allocator<std::pair<const std::basic_string<char, std::char_traits<char>, std::allocator<char> >, int> > >::_S_value
FUNC 143fa 24 0 std::_Rb_tree<std::basic_string<char, std::char_traits<char>, std::allocator<char> >, std::pair<const std::basic_string<char, std::char_traits<char>, std::allocator<char> >, int>, std::_Select1st<std::pair<const std::basic_string<char, std::char_traits<char>, std::allocator<char> >, int> >, std::less<std::basic_string<char, std::char_traits<char>, std::allocator<char> > >, std::allocator<std::pair<const std::basic_string<char, std::char_traits<char>, std::allocator<char> >, int> > >::_M_get_node
FUNC 1441e 33 0 std::pair<const std::basic_string<char, std::char_traits<char>, std::allocator<char> >, int>::pair
FUNC 14452 77 0 __gnu_cxx::new_allocator<std::pair<const std::basic_string<char, std::char_traits<char>, std::allocator<char> >, int> >::construct
FUNC 144ca 54 0 __gnu_cxx::new_allocator<std::_Rb_tree_node<std::pair<const std::basic_string<char, std::char_traits<char>, std::allocator<char> >, int> > >::allocate
FUNC 1451e 14 0 __gnu_cxx::new_allocator<std::_Rb_tree_node<std::pair<const std::basic_string<char, std::char_traits<char>, std::allocator<char> >, int> > >::max_size
FUNC 14534 28 0 IEC103Manager::IEC103Manager
FUNC 1455c 61 0 IEC103Manager::~IEC103Manager
FUNC 145be 26 0 IEC103Manager::~IEC103Manager
FUNC 145e4 7c3 0 IEC103Manager::Init
FUNC 14da8 2d 0 IEC103Manager::Start
FUNC 14dd6 1b 0 IEC103Manager::Stop
FUNC 14df2 62 0 IEC103Manager::SignalHandle
FUNC 14e54 ca 0 __static_initialization_and_destruction_0
FUNC 14f1e 15 0 _GLOBAL__I_IEC103Manager.cpp
FUNC 14f33 2e 0 std::_Rb_tree_node_base::_S_minimum
FUNC 14f61 2e 0 std::_Rb_tree_node_base::_S_maximum
FUNC 14f90 33 0 Config::GetChannelName
FUNC 14fc4 12 0 Config::GetNetType
FUNC 14fd6 36 0 Config::GetMysqlIp
FUNC 1500c 15 0 Config::GetMysqlPort
FUNC 15022 36 0 Config::GetMysqlUser
FUNC 15058 36 0 Config::GetMysqlPwd
FUNC 1508e 36 0 Config::GetMysqlDbname
FUNC 150c4 14 0 Config::GetLogLv
FUNC 150d8 14 0 Config::GetIec103RunType
FUNC 150ec 29 0 Config::SetParam
FUNC 15116 29 0 std::map<std::basic_string<char, std::char_traits<char>, std::allocator<char> >, std::basic_string<char, std::char_traits<char>, std::allocator<char> >, std::less<std::basic_string<char, std::char_traits<char>, std::allocator<char> > >, std::allocator<std::pair<const std::basic_string<char, std::char_traits<char>, std::allocator<char> >, std::basic_string<char, std::char_traits<char>, std::allocator<char> > > > >::operator=
FUNC 15140 25 0 std::map<std::basic_string<char, std::char_traits<char>, std::allocator<char> >, std::basic_string<char, std::char_traits<char>, std::allocator<char> >, std::less<std::basic_string<char, std::char_traits<char>, std::allocator<char> > >, std::allocator<std::pair<const std::basic_string<char, std::char_traits<char>, std::allocator<char> >, std::basic_string<char, std::char_traits<char>, std::allocator<char> > > > >::map
FUNC 15166 1a 0 std::map<std::basic_string<char, std::char_traits<char>, std::allocator<char> >, std::basic_string<char, std::char_traits<char>, std::allocator<char> >, std::less<std::basic_string<char, std::char_traits<char>, std::allocator<char> > >, std::allocator<std::pair<const std::basic_string<char, std::char_traits<char>, std::allocator<char> >, std::basic_string<char, std::char_traits<char>, std::allocator<char> > > > >::begin
FUNC 15180 22 0 std::_Rb_tree_iterator<std::pair<const std::basic_string<char, std::char_traits<char>, std::allocator<char> >, std::basic_string<char, std::char_traits<char>, std::allocator<char> > > >::operator!=
FUNC 151a2 28 0 std::_Rb_tree_iterator<std::pair<const std::basic_string<char, std::char_traits<char>, std::allocator<char> >, std::basic_string<char, std::char_traits<char>, std::allocator<char> > > >::operator++
FUNC 151ca 15 0 std::_Rb_tree_iterator<std::pair<const std::basic_string<char, std::char_traits<char>, std::allocator<char> >, std::basic_string<char, std::char_traits<char>, std::allocator<char> > > >::operator->
FUNC 151e0 1a 0 std::map<std::basic_string<char, std::char_traits<char>, std::allocator<char> >, std::basic_string<char, std::char_traits<char>, std::allocator<char> >, std::less<std::basic_string<char, std::char_traits<char>, std::allocator<char> > >, std::allocator<std::pair<const std::basic_string<char, std::char_traits<char>, std::allocator<char> >, std::basic_string<char, std::char_traits<char>, std::allocator<char> > > > >::size
FUNC 151fa f8 0 std::_Rb_tree<std::basic_string<char, std::char_traits<char>, std::allocator<char> >, std::pair<const std::basic_string<char, std::char_traits<char>, std::allocator<char> >, std::basic_string<char, std::char_traits<char>, std::allocator<char> > >, std::_Select1st<std::pair<const std::basic_string<char, std::char_traits<char>, std::allocator<char> >, std::basic_string<char, std::char_traits<char>, std::allocator<char> > > >, std::less<std::basic_string<char, std::char_traits<char>, std::allocator<char> > >, std::allocator<std::pair<const std::basic_string<char, std::char_traits<char>, std::allocator<char> >, std::basic_string<char, std::char_traits<char>, std::allocator<char> > > > >::operator=
FUNC 152f2 11d 0 std::_Rb_tree<std::basic_string<char, std::char_traits<char>, std::allocator<char> >, std::pair<const std::basic_string<char, std::char_traits<char>, std::allocator<char> >, std::basic_string<char, std::char_traits<char>, std::allocator<char> > >, std::_Select1st<std::pair<const std::basic_string<char, std::char_traits<char>, std::allocator<char> >, std::basic_string<char, std::char_traits<char>, std::allocator<char> > > >, std::less<std::basic_string<char, std::char_traits<char>, std::allocator<char> > >, std::allocator<std::pair<const std::basic_string<char, std::char_traits<char>, std::allocator<char> >, std::basic_string<char, std::char_traits<char>, std::allocator<char> > > > >::_Rb_tree
FUNC 15410 12 0 std::_Rb_tree<std::basic_string<char, std::char_traits<char>, std::allocator<char> >, std::pair<const std::basic_string<char, std::char_traits<char>, std::allocator<char> >, std::basic_string<char, std::char_traits<char>, std::allocator<char> > >, std::_Select1st<std::pair<const std::basic_string<char, std::char_traits<char>, std::allocator<char> >, std::basic_string<char, std::char_traits<char>, std::allocator<char> > > >, std::less<std::basic_string<char, std::char_traits<char>, std::allocator<char> > >, std::allocator<std::pair<const std::basic_string<char, std::char_traits<char>, std::allocator<char> >, std::basic_string<char, std::char_traits<char>, std::allocator<char> > > > >::_M_root
FUNC 15422 169 0 std::_Rb_tree<std::basic_string<char, std::char_traits<char>, std::allocator<char> >, std::pair<const std::basic_string<char, std::char_traits<char>, std::allocator<char> >, std::basic_string<char, std::char_traits<char>, std::allocator<char> > >, std::_Select1st<std::pair<const std::basic_string<char, std::char_traits<char>, std::allocator<char> >, std::basic_string<char, std::char_traits<char>, std::allocator<char> > > >, std::less<std::basic_string<char, std::char_traits<char>, std::allocator<char> > >, std::allocator<std::pair<const std::basic_string<char, std::char_traits<char>, std::allocator<char> >, std::basic_string<char, std::char_traits<char>, std::allocator<char> > > > >::_M_copy
FUNC 1558c 12 0 std::_Rb_tree<std::basic_string<char, std::char_traits<char>, std::allocator<char> >, std::pair<const std::basic_string<char, std::char_traits<char>, std::allocator<char> >, std::basic_string<char, std::char_traits<char>, std::allocator<char> > >, std::_Select1st<std::pair<const std::basic_string<char, std::char_traits<char>, std::allocator<char> >, std::basic_string<char, std::char_traits<char>, std::allocator<char> > > >, std::less<std::basic_string<char, std::char_traits<char>, std::allocator<char> > >, std::allocator<std::pair<const std::basic_string<char, std::char_traits<char>, std::allocator<char> >, std::basic_string<char, std::char_traits<char>, std::allocator<char> > > > >::_M_begin
FUNC 1559e 1a 0 std::_Rb_tree<std::basic_string<char, std::char_traits<char>, std::allocator<char> >, std::pair<const std::basic_string<char, std::char_traits<char>, std::allocator<char> >, std::basic_string<char, std::char_traits<char>, std::allocator<char> > >, std::_Select1st<std::pair<const std::basic_string<char, std::char_traits<char>, std::allocator<char> >, std::basic_string<char, std::char_traits<char>, std::allocator<char> > > >, std::less<std::basic_string<char, std::char_traits<char>, std::allocator<char> > >, std::allocator<std::pair<const std::basic_string<char, std::char_traits<char>, std::allocator<char> >, std::basic_string<char, std::char_traits<char>, std::allocator<char> > > > >::_S_minimum
FUNC 155b8 1a 0 std::_Rb_tree<std::basic_string<char, std::char_traits<char>, std::allocator<char> >, std::pair<const std::basic_string<char, std::char_traits<char>, std::allocator<char> >, std::basic_string<char, std::char_traits<char>, std::allocator<char> > >, std::_Select1st<std::pair<const std::basic_string<char, std::char_traits<char>, std::allocator<char> >, std::basic_string<char, std::char_traits<char>, std::allocator<char> > > >, std::less<std::basic_string<char, std::char_traits<char>, std::allocator<char> > >, std::allocator<std::pair<const std::basic_string<char, std::char_traits<char>, std::allocator<char> >, std::basic_string<char, std::char_traits<char>, std::allocator<char> > > > >::_S_maximum
FUNC 155d2 9b 0 std::_Rb_tree<std::basic_string<char, std::char_traits<char>, std::allocator<char> >, std::pair<const std::basic_string<char, std::char_traits<char>, std::allocator<char> >, std::basic_string<char, std::char_traits<char>, std::allocator<char> > >, std::_Select1st<std::pair<const std::basic_string<char, std::char_traits<char>, std::allocator<char> >, std::basic_string<char, std::char_traits<char>, std::allocator<char> > > >, std::less<std::basic_string<char, std::char_traits<char>, std::allocator<char> > >, std::allocator<std::pair<const std::basic_string<char, std::char_traits<char>, std::allocator<char> >, std::basic_string<char, std::char_traits<char>, std::allocator<char> > > > >::_Rb_tree_impl<std::less<std::basic_string<char, std::char_traits<char>, std::allocator<char> > >, false>::_Rb_tree_impl
FUNC 1566e 55 0 std::_Rb_tree<std::basic_string<char, std::char_traits<char>, std::allocator<char> >, std::pair<const std::basic_string<char, std::char_traits<char>, std::allocator<char> >, std::basic_string<char, std::char_traits<char>, std::allocator<char> > >, std::_Select1st<std::pair<const std::basic_string<char, std::char_traits<char>, std::allocator<char> >, std::basic_string<char, std::char_traits<char>, std::allocator<char> > > >, std::less<std::basic_string<char, std::char_traits<char>, std::allocator<char> > >, std::allocator<std::pair<const std::basic_string<char, std::char_traits<char>, std::allocator<char> >, std::basic_string<char, std::char_traits<char>, std::allocator<char> > > > >::_M_clone_node
FUNC 156c3 12 0 std::_Rb_tree<std::basic_string<char, std::char_traits<char>, std::allocator<char> >, std::pair<const std::basic_string<char, std::char_traits<char>, std::allocator<char> >, std::basic_string<char, std::char_traits<char>, std::allocator<char> > >, std::_Select1st<std::pair<const std::basic_string<char, std::char_traits<char>, std::allocator<char> >, std::basic_string<char, std::char_traits<char>, std::allocator<char> > > >, std::less<std::basic_string<char, std::char_traits<char>, std::allocator<char> > >, std::allocator<std::pair<const std::basic_string<char, std::char_traits<char>, std::allocator<char> >, std::basic_string<char, std::char_traits<char>, std::allocator<char> > > > >::_S_left
FUNC 156d6 25 0 std::allocator<std::_Rb_tree_node<std::pair<const std::basic_string<char, std::char_traits<char>, std::allocator<char> >, std::basic_string<char, std::char_traits<char>, std::allocator<char> > > > >::allocator
FUNC 156fc e 0 __gnu_cxx::new_allocator<std::_Rb_tree_node<std::pair<const std::basic_string<char, std::char_traits<char>, std::allocator<char> >, std::basic_string<char, std::char_traits<char>, std::allocator<char> > > > >::new_allocator
FUNC 1570c 27 0 Inet::Inet
FUNC 15734 35 0 Inet::~Inet
FUNC 1576a 26 0 Inet::~Inet
FUNC 15790 13d 0 combine_folder
FUNC 158cd 23e 0 InitPaths
FUNC 15b0b 31 0 InitLogging
FUNC 15b3c c8 0 GetLocalDate
FUNC 15c04 c8 0 GetCurTime
FUNC 15ccc 2a1 0 Logger::Logger
FUNC 15f6e 138 0 Logger::~Logger
FUNC 160a6 26 0 Logger::~Logger
FUNC 160cc 124 0 Logger::Debug
FUNC 161f0 20c 0 Logger::Debug
FUNC 163fc 125 0 Logger::Info
FUNC 16522 20d 0 Logger::Info
FUNC 16730 125 0 Logger::Warn
FUNC 16856 20d 0 Logger::Warn
FUNC 16a64 125 0 Logger::Error
FUNC 16b8a 20d 0 Logger::Error
FUNC 16d98 125 0 Logger::Fatal
FUNC 16ebe 20d 0 Logger::Fatal
FUNC 170cc bc 0 Logger::GetInstance
FUNC 17188 164 0 Logger::Log
FUNC 172ec 24a 0 Logger::Log
FUNC 17536 266 0 Logger::Log
FUNC 1779c b 0 Logger::GetInstancePtr
FUNC 177a8 354 0 Logger::Log
FUNC 17afc 85 0 LogMessage::LogMessage
FUNC 17b82 86 0 LogMessage::~LogMessage
FUNC 17c08 26 0 LogMessage::~LogMessage
FUNC 17c2e 4e 0 __static_initialization_and_destruction_0
FUNC 17c7c 15 0 _GLOBAL__I_Logger.cpp
FUNC 17c92 35 0 ILogger::~ILogger
FUNC 17cc8 26 0 ILogger::~ILogger
FUNC 17cee 12 0 Logger::stream
FUNC 17d00 12c 0 FileHelper::CreateDir
FUNC 17e2c 1c 0 ILogger::ILogger
FUNC 17e48 eb 0 MemCache::MemCache
FUNC 17f34 80 0 MemCache::~MemCache
FUNC 17fb4 26 0 MemCache::~MemCache
FUNC 17fda 74 0 MemCache::GetInstance
FUNC 1804e 4bc 0 MemCache::Init
FUNC 1850a af 0 MemCache::GetFunction
FUNC 185ba 1a2 0 MemCache::WritePointsValue_V
FUNC 1875c 2b 0 MemCache::Post
FUNC 18788 3c 0 MemCache::Free
FUNC 187c4 ca 0 __static_initialization_and_destruction_0
FUNC 1888e 15 0 _GLOBAL__I_MemCache.cpp
FUNC 188a4 14 0 Config::GetRedisPostName
FUNC 188b8 15 0 Config::GetRedisPostSize
FUNC 188ce 39 0 std::vector<Tag, std::allocator<Tag> >::operator[]
FUNC 18908 2d 0 std::vector<Tag, std::allocator<Tag> >::size
FUNC 18938 2c 0 Serial485ClientService::Serial485ClientService
FUNC 18964 41 0 Serial485ClientService::~Serial485ClientService
FUNC 189a6 26 0 Serial485ClientService::~Serial485ClientService
FUNC 189cc 141 0 Serial485ClientService::Start
FUNC 18b0e 385 0 Serial485ClientService::Read
FUNC 18e93 48 0 __static_initialization_and_destruction_0
FUNC 18edb 15 0 _GLOBAL__I_Serial485ClientService.cpp
FUNC 18ef0 109 0 SerialNet::SerialNet
FUNC 18ffa e3 0 SerialNet::~SerialNet
FUNC 190de 26 0 SerialNet::~SerialNet
FUNC 19104 485 0 SerialNet::Connect
FUNC 1958a af 0 SerialNet::GetFunction
FUNC 1963a 312 0 SerialNet::Read
FUNC 1994c b3 0 SerialNet::Write
FUNC 19a00 2c 0 SerialNet::DisConnect
FUNC 19a2c 2b2 0 SerialNet::SetSpeed
FUNC 19cde 35a 0 SerialNet::SetParity
FUNC 1a038 42 0 SerialNet::SumCheck
FUNC 1a07a 112 0 SerialNet::ToHexString
FUNC 1a18c 48 0 __static_initialization_and_destruction_0
FUNC 1a1d4 15 0 _GLOBAL__I_SerialNet.cpp
FUNC 1a1ec cd 0 SerialService::SerialService
FUNC 1a2ba b1 0 SerialService::~SerialService
FUNC 1a36c 26 0 SerialService::~SerialService
FUNC 1a392 221 0 SerialService::Start
FUNC 1a5b4 67e 0 SerialService::Write
FUNC 1ac32 57d 0 SerialService::Read
FUNC 1b1b0 9c 0 SerialService::ParseRecvData
FUNC 1b24c b0 0 SerialService::ParseFixedData
FUNC 1b2fc 213 0 SerialService::ParseVariableData
FUNC 1b510 189 0 SerialService::InitConfig
FUNC 1b699 48 0 __static_initialization_and_destruction_0
FUNC 1b6e1 15 0 _GLOBAL__I_SerialService.cpp
FUNC 1b6f6 33 0 Config::GetSerialPortPath
FUNC 1b72a 11 0 Config::GetSpeed
FUNC 1b73c 11 0 Config::GetDatabits
FUNC 1b74e 11 0 Config::GetStopbits
FUNC 1b760 12 0 Config::GetParity
FUNC 1b772 12 0 Config::GetClientAddr
FUNC 1b784 33 0 Config::GetIp
FUNC 1b7b8 12 0 Config::GetTcpPort
FUNC 1b7ca 15 0 Config::GetOutTime
FUNC 1b7e0 1a 0 std::vector<char, std::allocator<char> >::vector
FUNC 1b7fa 6e 0 std::vector<char, std::allocator<char> >::~vector
FUNC 1b868 229 0 std::vector<char, std::allocator<char> >::operator=
FUNC 1ba92 11 0 std::vector<char, std::allocator<char> >::data
FUNC 1baa4 25 0 std::vector<char, std::allocator<char> >::size
FUNC 1baca 1f 0 std::vector<short unsigned int, std::allocator<short unsigned int> >::operator[]
FUNC 1baea 1a 0 std::_Vector_base<char, std::allocator<char> >::_Vector_impl::~_Vector_impl
FUNC 1bb04 1a 0 std::_Vector_base<char, std::allocator<char> >::_Vector_base
FUNC 1bb1e 79 0 std::_Vector_base<char, std::allocator<char> >::~_Vector_base
FUNC 1bb98 e 0 std::_Vector_base<char, std::allocator<char> >::_M_get_Tp_allocator
FUNC 1bba6 29 0 std::_Destroy<char*, char>
FUNC 1bbd0 25 0 std::vector<char, std::allocator<char> >::capacity
FUNC 1bbf6 30 0 std::vector<char, std::allocator<char> >::begin
FUNC 1bc26 31 0 std::vector<char, std::allocator<char> >::end
FUNC 1bc58 a1 0 std::vector<char, std::allocator<char> >::_M_allocate_and_copy<__gnu_cxx::__normal_iterator<const char*, std::vector<char, std::allocator<char> > > >
FUNC 1bcfa 34 0 std::_Vector_base<char, std::allocator<char> >::_M_deallocate
FUNC 1bd2e 25 0 std::vector<char, std::allocator<char> >::begin
FUNC 1bd53 46 0 std::copy<__gnu_cxx::__normal_iterator<const char*, std::vector<char, std::allocator<char> > >, __gnu_cxx::__normal_iterator<char*, std::vector<char, std::allocator<char> > > >
FUNC 1bd9a 29 0 std::vector<char, std::allocator<char> >::end
FUNC 1bdc3 29 0 std::_Destroy<__gnu_cxx::__normal_iterator<char*, std::vector<char, std::allocator<char> > >, char>
FUNC 1bdec 46 0 std::copy<char*, char*>
FUNC 1be32 31 0 std::__uninitialized_copy_a<char*, char*, char>
FUNC 1be64 3d 0 std::_Vector_base<char, std::allocator<char> >::_Vector_impl::_Vector_impl
FUNC 1bea1 25 0 std::_Destroy<char*>
FUNC 1bec6 1c 0 __gnu_cxx::__normal_iterator<const char*, std::vector<char, std::allocator<char> > >::__normal_iterator
FUNC 1bee2 38 0 std::_Vector_base<char, std::allocator<char> >::_M_allocate
FUNC 1bf1a 31 0 std::__uninitialized_copy_a<__gnu_cxx::__normal_iterator<const char*, std::vector<char, std::allocator<char> > >, char*, char>
FUNC 1bf4c 22 0 __gnu_cxx::new_allocator<char>::deallocate
FUNC 1bf6e 1c 0 __gnu_cxx::__normal_iterator<char*, std::vector<char, std::allocator<char> > >::__normal_iterator
FUNC 1bf8a e 0 std::__miter_base<__gnu_cxx::__normal_iterator<const char*, std::vector<char, std::allocator<char> > >, false>::__b
FUNC 1bf98 73 0 std::__copy_move_a2<false, __gnu_cxx::__normal_iterator<const char*, std::vector<char, std::allocator<char> > >, __gnu_cxx::__normal_iterator<char*, std::vector<char, std::allocator<char> > > >
FUNC 1c00b 25 0 std::_Destroy<__gnu_cxx::__normal_iterator<char*, std::vector<char, std::allocator<char> > > >
FUNC 1c030 e 0 std::__miter_base<char*, false>::__b
FUNC 1c03e 58 0 std::__copy_move_a2<false, char*, char*>
FUNC 1c096 2d 0 std::uninitialized_copy<char*, char*>
FUNC 1c0c3 e 0 std::_Destroy_aux<true>::__destroy<char*>
FUNC 1c0d2 47 0 __gnu_cxx::new_allocator<char>::allocate
FUNC 1c119 2d 0 std::uninitialized_copy<__gnu_cxx::__normal_iterator<const char*, std::vector<char, std::allocator<char> > >, char*>
FUNC 1c146 1d 0 std::__niter_base<__gnu_cxx::__normal_iterator<const char*, std::vector<char, std::allocator<char> > >, true>::__b
FUNC 1c163 1d 0 std::__niter_base<__gnu_cxx::__normal_iterator<char*, std::vector<char, std::allocator<char> > >, true>::__b
FUNC 1c180 31 0 std::__copy_move_a<false, const char*, char*>
FUNC 1c1b1 e 0 std::_Destroy_aux<true>::__destroy<__gnu_cxx::__normal_iterator<char*, std::vector<char, std::allocator<char> > > >
FUNC 1c1bf e 0 std::__niter_base<char*, false>::__b
FUNC 1c1cd 31 0 std::__copy_move_a<false, char*, char*>
FUNC 1c1fe 2d 0 std::__uninitialized_copy<true>::uninitialized_copy<char*, char*>
FUNC 1c22c 11 0 __gnu_cxx::new_allocator<char>::max_size
FUNC 1c23d 2d 0 std::__uninitialized_copy<true>::uninitialized_copy<__gnu_cxx::__normal_iterator<const char*, std::vector<char, std::allocator<char> > >, char*>
FUNC 1c26a e 0 __gnu_cxx::__normal_iterator<const char*, std::vector<char, std::allocator<char> > >::base
FUNC 1c278 e 0 __gnu_cxx::__normal_iterator<char*, std::vector<char, std::allocator<char> > >::base
FUNC 1c286 52 0 std::__copy_move<false, true, std::random_access_iterator_tag>::__copy_m<char>
FUNC 1c2d8 46 0 std::copy<__gnu_cxx::__normal_iterator<const char*, std::vector<char, std::allocator<char> > >, char*>
FUNC 1c31e 58 0 std::__copy_move_a2<false, __gnu_cxx::__normal_iterator<const char*, std::vector<char, std::allocator<char> > >, char*>
FUNC 1c378 cf 0 Service::Service
FUNC 1c448 ad 0 Service::~Service
FUNC 1c4f6 26 0 Service::~Service
FUNC 1c51c a 0 Service::InitConfig
FUNC 1c526 2a 0 Service::Init
FUNC 1c550 1f2 0 Service::Start
FUNC 1c742 837 0 Service::Write
FUNC 1cf7a 494 0 Service::Read
FUNC 1d40e 177 0 Service::ParseRecvData
FUNC 1d586 6d 0 Service::ParseFixedData
FUNC 1d5f4 181 0 Service::ParseVariableData
FUNC 1d776 47 0 Service::CmdResetCon
FUNC 1d7be 47 0 Service::CmdResetNum
FUNC 1d806 4b 0 Service::CmdGetDataLv1
FUNC 1d852 4b 0 Service::CmdGetDataLv2
FUNC 1d89e 13a 0 Service::CmdFixedData
FUNC 1d9d8 3ad 0 Service::CmdSetTimeStamp
FUNC 1dd86 22c 0 Service::CmdResetEventAlarm
FUNC 1dfb2 347 0 Service::CmdSettingDownload
FUNC 1e2fa 347 0 Service::CmdSettingModify
FUNC 1e642 23f 0 Service::CmdGetAll
FUNC 1e882 26d 0 Service::CmdGetGroupValue
FUNC 1eaf0 273 0 Service::CmdGetEntryValue
FUNC 1ed64 42 0 Service::SumCheck
FUNC 1eda6 388 0 Service::ParseASDU44
FUNC 1f12e 2fe 0 Service::ParseASDU40
FUNC 1f42c 3c 0 Service::ParseASDU41
FUNC 1f468 33e 0 Service::ParseASDU42
FUNC 1f7a6 465 0 Service::ParseASDU50
FUNC 1fc0c 3fa 0 Service::ParseASDU1
FUNC 20006 470 0 Service::ParseASDU2
FUNC 20476 124 0 Service::GetGlobalAddrByPrivateAddr
FUNC 2059a a3 0 Service::GetRateByPrivateAddr
FUNC 2063e 112 0 Service::ToHexString
FUNC 20750 4dc 0 Service::InitPointAddrMap
FUNC 20c2c a4 0 Service::StartBreakHeart
FUNC 20cd0 db 0 Service::ThreadFunc
FUNC 20dac 1a7 0 Service::ParseASDU10
FUNC 20f54 491 0 Service::ParseASDU10AllValue
FUNC 213e5 ca 0 __static_initialization_and_destruction_0
FUNC 214af 15 0 _GLOBAL__I_Service.cpp
FUNC 214c4 15 0 Config::GetId
FUNC 214da 14 0 Config::GetIedName
FUNC 214ee 66 0 Tag::Tag
FUNC 21554 50 0 Tag::~Tag
FUNC 215a4 63 0 Tag::operator=
FUNC 21608 8b 0 Tag::ZeroTag
FUNC 21694 1a 0 std::map<std::basic_string<char, std::char_traits<char>, std::allocator<char> >, Service::Point103, std::less<std::basic_string<char, std::char_traits<char>, std::allocator<char> > >, std::allocator<std::pair<const std::basic_string<char, std::char_traits<char>, std::allocator<char> >, Service::Point103> > >::~map
FUNC 216ae 1e 0 Service::Point103::Point103
FUNC 216cc 1e 0 Service::Point103::~Point103
FUNC 216ea 39 0 Service::Point103::Point103
FUNC 21724 1e 0 std::pair<char*, Service::Point103>::~pair
FUNC 21742 55 0 std::pair<const std::basic_string<char, std::char_traits<char>, std::allocator<char> >, Service::Point103>::~pair
FUNC 21798 1a 0 std::vector<Tag, std::allocator<Tag> >::vector
FUNC 217b2 6e 0 std::vector<Tag, std::allocator<Tag> >::~vector
FUNC 21820 1a 0 std::map<std::basic_string<char, std::char_traits<char>, std::allocator<char> >, Service::Point103, std::less<std::basic_string<char, std::char_traits<char>, std::allocator<char> > >, std::allocator<std::pair<const std::basic_string<char, std::char_traits<char>, std::allocator<char> >, Service::Point103> > >::map
FUNC 2183a 1a 0 std::_Rb_tree<std::basic_string<char, std::char_traits<char>, std::allocator<char> >, std::pair<const std::basic_string<char, std::char_traits<char>, std::allocator<char> >, Service::Point103>, std::_Select1st<std::pair<const std::basic_string<char, std::char_traits<char>, std::allocator<char> >, Service::Point103> >, std::less<std::basic_string<char, std::char_traits<char>, std::allocator<char> > >, std::allocator<std::pair<const std::basic_string<char, std::char_traits<char>, std::allocator<char> >, Service::Point103> > >::_Rb_tree_impl<std::less<std::basic_string<char, std::char_traits<char>, std::allocator<char> > >, false>::~_Rb_tree_impl
FUNC 21854 63 0 std::_Rb_tree<std::basic_string<char, std::char_traits<char>, std::allocator<char> >, std::pair<const std::basic_string<char, std::char_traits<char>, std::allocator<char> >, Service::Point103>, std::_Select1st<std::pair<const std::basic_string<char, std::char_traits<char>, std::allocator<char> >, Service::Point103> >, std::less<std::basic_string<char, std::char_traits<char>, std::allocator<char> > >, std::allocator<std::pair<const std::basic_string<char, std::char_traits<char>, std::allocator<char> >, Service::Point103> > >::~_Rb_tree
FUNC 218b8 73 0 std::vector<char, std::allocator<char> >::vector
FUNC 2192c 19 0 std::vector<char, std::allocator<char> >::operator[]
FUNC 21946 7d 0 std::vector<Tag, std::allocator<Tag> >::push_back
FUNC 219c4 41 0 std::vector<Tag, std::allocator<Tag> >::empty
FUNC 21a06 25 0 std::map<std::basic_string<char, std::char_traits<char>, std::allocator<char> >, Service::Point103, std::less<std::basic_string<char, std::char_traits<char>, std::allocator<char> > >, std::allocator<std::pair<const std::basic_string<char, std::char_traits<char>, std::allocator<char> >, Service::Point103> > >::find
FUNC 21a2c 1c 0 std::_Rb_tree_const_iterator<std::pair<const std::basic_string<char, std::char_traits<char>, std::allocator<char> >, Service::Point103> >::_Rb_tree_const_iterator
FUNC 21a48 1a 0 std::map<std::basic_string<char, std::char_traits<char>, std::allocator<char> >, Service::Point103, std::less<std::basic_string<char, std::char_traits<char>, std::allocator<char> > >, std::allocator<std::pair<const std::basic_string<char, std::char_traits<char>, std::allocator<char> >, Service::Point103> > >::end
FUNC 21a62 22 0 std::_Rb_tree_const_iterator<std::pair<const std::basic_string<char, std::char_traits<char>, std::allocator<char> >, Service::Point103> >::operator!=
FUNC 21a84 15 0 std::_Rb_tree_const_iterator<std::pair<const std::basic_string<char, std::char_traits<char>, std::allocator<char> >, Service::Point103> >::operator->
FUNC 21a9a 1a 0 std::map<std::basic_string<char, std::char_traits<char>, std::allocator<char> >, Service::Point103, std::less<std::basic_string<char, std::char_traits<char>, std::allocator<char> > >, std::allocator<std::pair<const std::basic_string<char, std::char_traits<char>, std::allocator<char> >, Service::Point103> > >::clear
FUNC 21ab4 37 0 std::make_pair<char*, Service::Point103>
FUNC 21aec ab 0 std::pair<const std::basic_string<char, std::char_traits<char>, std::allocator<char> >, Service::Point103>::pair<char*, Service::Point103>
FUNC 21b98 47 0 std::map<std::basic_string<char, std::char_traits<char>, std::allocator<char> >, Service::Point103, std::less<std::basic_string<char, std::char_traits<char>, std::allocator<char> > >, std::allocator<std::pair<const std::basic_string<char, std::char_traits<char>, std::allocator<char> >, Service::Point103> > >::insert
FUNC 21be0 1a 0 std::map<std::basic_string<char, std::char_traits<char>, std::allocator<char> >, Service::Point103, std::less<std::basic_string<char, std::char_traits<char>, std::allocator<char> > >, std::allocator<std::pair<const std::basic_string<char, std::char_traits<char>, std::allocator<char> >, Service::Point103> > >::size
FUNC 21bfa 1a 0 std::_Vector_base<Tag, std::allocator<Tag> >::_Vector_impl::~_Vector_impl
FUNC 21c14 1a 0 std::_Vector_base<Tag, std::allocator<Tag> >::_Vector_base
FUNC 21c2e 81 0 std::_Vector_base<Tag, std::allocator<Tag> >::~_Vector_base
FUNC 21cb0 e 0 std::_Vector_base<Tag, std::allocator<Tag> >::_M_get_Tp_allocator
FUNC 21cbe 29 0 std::_Destroy<Tag*, Tag>
FUNC 21ce8 1a 0 std::_Rb_tree<std::basic_string<char, std::char_traits<char>, std::allocator<char> >, std::pair<const std::basic_string<char, std::char_traits<char>, std::allocator<char> >, Service::Point103>, std::_Select1st<std::pair<const std::basic_string<char, std::char_traits<char>, std::allocator<char> >, Service::Point103> >, std::less<std::basic_string<char, std::char_traits<char>, std::allocator<char> > >, std::allocator<std::pair<const std::basic_string<char, std::char_traits<char>, std::allocator<char> >, Service::Point103> > >::_Rb_tree
FUNC 21d02 1a 0 std::allocator<std::_Rb_tree_node<std::pair<const std::basic_string<char, std::char_traits<char>, std::allocator<char> >, Service::Point103> > >::~allocator
FUNC 21d1c 69 0 std::_Rb_tree<std::basic_string<char, std::char_traits<char>, std::allocator<char> >, std::pair<const std::basic_string<char, std::char_traits<char>, std::allocator<char> >, Service::Point103>, std::_Select1st<std::pair<const std::basic_string<char, std::char_traits<char>, std::allocator<char> >, Service::Point103> >, std::less<std::basic_string<char, std::char_traits<char>, std::allocator<char> > >, std::allocator<std::pair<const std::basic_string<char, std::char_traits<char>, std::allocator<char> >, Service::Point103> > >::_M_erase
FUNC 21d86 12 0 std::_Rb_tree<std::basic_string<char, std::char_traits<char>, std::allocator<char> >, std::pair<const std::basic_string<char, std::char_traits<char>, std::allocator<char> >, Service::Point103>, std::_Select1st<std::pair<const std::basic_string<char, std::char_traits<char>, std::allocator<char> >, Service::Point103> >, std::less<std::basic_string<char, std::char_traits<char>, std::allocator<char> > >, std::allocator<std::pair<const std::basic_string<char, std::char_traits<char>, std::allocator<char> >, Service::Point103> > >::_M_begin
FUNC 21d98 91 0 std::_Vector_base<char, std::allocator<char> >::_Vector_base
FUNC 21e2a 55 0 std::vector<char, std::allocator<char> >::_M_fill_initialize
FUNC 21e80 e2 0 __gnu_cxx::new_allocator<Tag>::construct
FUNC 21f62 42b 0 std::vector<Tag, std::allocator<Tag> >::_M_insert_aux
FUNC 2238e 29 0 std::vector<Tag, std::allocator<Tag> >::end
FUNC 223b8 31 0 std::vector<Tag, std::allocator<Tag> >::end
FUNC 223ea 30 0 std::vector<Tag, std::allocator<Tag> >::begin
FUNC 2241a 3c 0 __gnu_cxx::operator==<const Tag*, std::vector<Tag, std::allocator<Tag> > >
FUNC 22456 b6 0 std::_Rb_tree<std::basic_string<char, std::char_traits<char>, std::allocator<char> >, std::pair<const std::basic_string<char, std::char_traits<char>, std::allocator<char> >, Service::Point103>, std::_Select1st<std::pair<const std::basic_string<char, std::char_traits<char>, std::allocator<char> >, Service::Point103> >, std::less<std::basic_string<char, std::char_traits<char>, std::allocator<char> > >, std::allocator<std::pair<const std::basic_string<char, std::char_traits<char>, std::allocator<char> >, Service::Point103> > >::find
FUNC 2250c 2c 0 std::_Rb_tree<std::basic_string<char, std::char_traits<char>, std::allocator<char> >, std::pair<const std::basic_string<char, std::char_traits<char>, std::allocator<char> >, Service::Point103>, std::_Select1st<std::pair<const std::basic_string<char, std::char_traits<char>, std::allocator<char> >, Service::Point103> >, std::less<std::basic_string<char, std::char_traits<char>, std::allocator<char> > >, std::allocator<std::pair<const std::basic_string<char, std::char_traits<char>, std::allocator<char> >, Service::Point103> > >::end
FUNC 22538 8d 0 std::_Rb_tree<std::basic_string<char, std::char_traits<char>, std::allocator<char> >, std::pair<const std::basic_string<char, std::char_traits<char>, std::allocator<char> >, Service::Point103>, std::_Select1st<std::pair<const std::basic_string<char, std::char_traits<char>, std::allocator<char> >, Service::Point103> >, std::less<std::basic_string<char, std::char_traits<char>, std::allocator<char> > >, std::allocator<std::pair<const std::basic_string<char, std::char_traits<char>, std::allocator<char> >, Service::Point103> > >::clear
FUNC 225c6 3b 0 std::pair<char*, Service::Point103>::pair
FUNC 22602 271 0 std::_Rb_tree<std::basic_string<char, std::char_traits<char>, std::allocator<char> >, std::pair<const std::basic_string<char, std::char_traits<char>, std::allocator<char> >, Service::Point103>, std::_Select1st<std::pair<const std::basic_string<char, std::char_traits<char>, std::allocator<char> >, Service::Point103> >, std::less<std::basic_string<char, std::char_traits<char>, std::allocator<char> > >, std::allocator<std::pair<const std::basic_string<char, std::char_traits<char>, std::allocator<char> >, Service::Point103> > >::_M_insert_unique
FUNC 22874 12 0 std::_Rb_tree<std::basic_string<char, std::char_traits<char>, std::allocator<char> >, std::pair<const std::basic_string<char, std::char_traits<char>, std::allocator<char> >, Service::Point103>, std::_Select1st<std::pair<const std::basic_string<char, std::char_traits<char>, std::allocator<char> >, Service::Point103> >, std::less<std::basic_string<char, std::char_traits<char>, std::allocator<char> > >, std::allocator<std::pair<const std::basic_string<char, std::char_traits<char>, std::allocator<char> >, Service::Point103> > >::size
FUNC 22886 3d 0 std::_Vector_base<Tag, std::allocator<Tag> >::_Vector_impl::_Vector_impl
FUNC 228c4 1a 0 std::allocator<Tag>::~allocator
FUNC 228de 34 0 std::_Vector_base<Tag, std::allocator<Tag> >::_M_deallocate
FUNC 22912 25 0 std::_Destroy<Tag*>
FUNC 22938 8c 0 std::_Rb_tree<std::basic_string<char, std::char_traits<char>, std::allocator<char> >, std::pair<const std::basic_string<char, std::char_traits<char>, std::allocator<char> >, Service::Point103>, std::_Select1st<std::pair<const std::basic_string<char, std::char_traits<char>, std::allocator<char> >, Service::Point103> >, std::less<std::basic_string<char, std::char_traits<char>, std::allocator<char> > >, std::allocator<std::pair<const std::basic_string<char, std::char_traits<char>, std::allocator<char> >, Service::Point103> > >::_Rb_tree_impl<std::less<std::basic_string<char, std::char_traits<char>, std::allocator<char> > >, false>::_Rb_tree_impl
FUNC 229c4 a 0 __gnu_cxx::new_allocator<std::_Rb_tree_node<std::pair<const std::basic_string<char, std::char_traits<char>, std::allocator<char> >, Service::Point103> > >::~new_allocator
FUNC 229ce 12 0 std::_Rb_tree<std::basic_string<char, std::char_traits<char>, std::allocator<char> >, std::pair<const std::basic_string<char, std::char_traits<char>, std::allocator<char> >, Service::Point103>, std::_Select1st<std::pair<const std::basic_string<char, std::char_traits<char>, std::allocator<char> >, Service::Point103> >, std::less<std::basic_string<char, std::char_traits<char>, std::allocator<char> > >, std::allocator<std::pair<const std::basic_string<char, std::char_traits<char>, std::allocator<char> >, Service::Point103> > >::_S_right
FUNC 229e0 12 0 std::_Rb_tree<std::basic_string<char, std::char_traits<char>, std::allocator<char> >, std::pair<const std::basic_string<char, std::char_traits<char>, std::allocator<char> >, Service::Point103>, std::_Select1st<std::pair<const std::basic_string<char, std::char_traits<char>, std::allocator<char> >, Service::Point103> >, std::less<std::basic_string<char, std::char_traits<char>, std::allocator<char> > >, std::allocator<std::pair<const std::basic_string<char, std::char_traits<char>, std::allocator<char> >, Service::Point103> > >::_S_left
FUNC 229f2 86 0 std::_Rb_tree<std::basic_string<char, std::char_traits<char>, std::allocator<char> >, std::pair<const std::basic_string<char, std::char_traits<char>, std::allocator<char> >, Service::Point103>, std::_Select1st<std::pair<const std::basic_string<char, std::char_traits<char>, std::allocator<char> >, Service::Point103> >, std::less<std::basic_string<char, std::char_traits<char>, std::allocator<char> > >, std::allocator<std::pair<const std::basic_string<char, std::char_traits<char>, std::allocator<char> >, Service::Point103> > >::_M_destroy_node
FUNC 22a78 48 0 std::_Vector_base<char, std::allocator<char> >::_Vector_impl::_Vector_impl
FUNC 22ac0 31 0 std::__uninitialized_fill_n_a<char*, long unsigned int, char, char>
FUNC 22af2 e 0 __gnu_cxx::__normal_iterator<Tag*, std::vector<Tag, std::allocator<Tag> > >::base
FUNC 22b00 46 0 std::copy_backward<Tag*, Tag*>
FUNC 22b46 11 0 __gnu_cxx::__normal_iterator<Tag*, std::vector<Tag, std::allocator<Tag> > >::operator*
FUNC 22b58 ca 0 std::vector<Tag, std::allocator<Tag> >::_M_check_len
FUNC 22c22 25 0 std::vector<Tag, std::allocator<Tag> >::begin
FUNC 22c47 4d 0 __gnu_cxx::operator-<Tag*, std::vector<Tag, std::allocator<Tag> > >
FUNC 22c94 38 0 std::_Vector_base<Tag, std::allocator<Tag> >::_M_allocate
FUNC 22ccc 3b 0 std::__uninitialized_move_a<Tag*, Tag*, std::allocator<Tag> >
FUNC 22d08 1e 0 __gnu_cxx::new_allocator<Tag>::destroy
FUNC 22d26 1c 0 __gnu_cxx::__normal_iterator<Tag*, std::vector<Tag, std::allocator<Tag> > >::__normal_iterator
FUNC 22d42 1c 0 __gnu_cxx::__normal_iterator<const Tag*, std::vector<Tag, std::allocator<Tag> > >::__normal_iterator
FUNC 22d5e e 0 __gnu_cxx::__normal_iterator<const Tag*, std::vector<Tag, std::allocator<Tag> > >::base
FUNC 22d6c 12 0 std::_Rb_tree<std::basic_string<char, std::char_traits<char>, std::allocator<char> >, std::pair<const std::basic_string<char, std::char_traits<char>, std::allocator<char> >, Service::Point103>, std::_Select1st<std::pair<const std::basic_string<char, std::char_traits<char>, std::allocator<char> >, Service::Point103> >, std::less<std::basic_string<char, std::char_traits<char>, std::allocator<char> > >, std::allocator<std::pair<const std::basic_string<char, std::char_traits<char>, std::allocator<char> >, Service::Point103> > >::_M_end
FUNC 22d7e 92 0 std::_Rb_tree<std::basic_string<char, std::char_traits<char>, std::allocator<char> >, std::pair<const std::basic_string<char, std::char_traits<char>, std::allocator<char> >, Service::Point103>, std::_Select1st<std::pair<const std::basic_string<char, std::char_traits<char>, std::allocator<char> >, Service::Point103> >, std::less<std::basic_string<char, std::char_traits<char>, std::allocator<char> > >, std::allocator<std::pair<const std::basic_string<char, std::char_traits<char>, std::allocator<char> >, Service::Point103> > >::_M_lower_bound
FUNC 22e10 2c 0 std::_Rb_tree<std::basic_string<char, std::char_traits<char>, std::allocator<char> >, std::pair<const std::basic_string<char, std::char_traits<char>, std::allocator<char> >, Service::Point103>, std::_Select1st<std::pair<const std::basic_string<char, std::char_traits<char>, std::allocator<char> >, Service::Point103> >, std::less<std::basic_string<char, std::char_traits<char>, std::allocator<char> > >, std::allocator<std::pair<const std::basic_string<char, std::char_traits<char>, std::allocator<char> >, Service::Point103> > >::_S_key
FUNC 22e3c 22 0 std::_Rb_tree_iterator<std::pair<const std::basic_string<char, std::char_traits<char>, std::allocator<char> >, Service::Point103> >::operator==
FUNC 22e5e 19 0 std::_Rb_tree_iterator<std::pair<const std::basic_string<char, std::char_traits<char>, std::allocator<char> >, Service::Point103> >::_Rb_tree_iterator
FUNC 22e78 12 0 std::_Rb_tree<std::basic_string<char, std::char_traits<char>, std::allocator<char> >, std::pair<const std::basic_string<char, std::char_traits<char>, std::allocator<char> >, Service::Point103>, std::_Select1st<std::pair<const std::basic_string<char, std::char_traits<char>, std::allocator<char> >, Service::Point103> >, std::less<std::basic_string<char, std::char_traits<char>, std::allocator<char> > >, std::allocator<std::pair<const std::basic_string<char, std::char_traits<char>, std::allocator<char> >, Service::Point103> > >::_M_leftmost
FUNC 22e8a 12 0 std::_Rb_tree<std::basic_string<char, std::char_traits<char>, std::allocator<char> >, std::pair<const std::basic_string<char, std::char_traits<char>, std::allocator<char> >, Service::Point103>, std::_Select1st<std::pair<const std::basic_string<char, std::char_traits<char>, std::allocator<char> >, Service::Point103> >, std::less<std::basic_string<char, std::char_traits<char>, std::allocator<char> > >, std::allocator<std::pair<const std::basic_string<char, std::char_traits<char>, std::allocator<char> >, Service::Point103> > >::_M_root
FUNC 22e9c 12 0 std::_Rb_tree<std::basic_string<char, std::char_traits<char>, std::allocator<char> >, std::pair<const std::basic_string<char, std::char_traits<char>, std::allocator<char> >, Service::Point103>, std::_Select1st<std::pair<const std::basic_string<char, std::char_traits<char>, std::allocator<char> >, Service::Point103> >, std::less<std::basic_string<char, std::char_traits<char>, std::allocator<char> > >, std::allocator<std::pair<const std::basic_string<char, std::char_traits<char>, std::allocator<char> >, Service::Point103> > >::_M_rightmost
FUNC 22eae 12 0 std::_Select1st<std::pair<const std::basic_string<char, std::char_traits<char>, std::allocator<char> >, Service::Point103> >::operator()
FUNC 22ec0 2c 0 std::_Rb_tree<std::basic_string<char, std::char_traits<char>, std::allocator<char> >, std::pair<const std::basic_string<char, std::char_traits<char>, std::allocator<char> >, Service::Point103>, std::_Select1st<std::pair<const std::basic_string<char, std::char_traits<char>, std::allocator<char> >, Service::Point103> >, std::less<std::basic_string<char, std::char_traits<char>, std::allocator<char> > >, std::allocator<std::pair<const std::basic_string<char, std::char_traits<char>, std::allocator<char> >, Service::Point103> > >::_S_key
FUNC 22eec 2c 0 std::_Rb_tree<std::basic_string<char, std::char_traits<char>, std::allocator<char> >, std::pair<const std::basic_string<char, std::char_traits<char>, std::allocator<char> >, Service::Point103>, std::_Select1st<std::pair<const std::basic_string<char, std::char_traits<char>, std::allocator<char> >, Service::Point103> >, std::less<std::basic_string<char, std::char_traits<char>, std::allocator<char> > >, std::allocator<std::pair<const std::basic_string<char, std::char_traits<char>, std::allocator<char> >, Service::Point103> > >::begin
FUNC 22f18 e3 0 std::_Rb_tree<std::basic_string<char, std::char_traits<char>, std::allocator<char> >, std::pair<const std::basic_string<char, std::char_traits<char>, std::allocator<char> >, Service::Point103>, std::_Select1st<std::pair<const std::basic_string<char, std::char_traits<char>, std::allocator<char> >, Service::Point103> >, std::less<std::basic_string<char, std::char_traits<char>, std::allocator<char> > >, std::allocator<std::pair<const std::basic_string<char, std::char_traits<char>, std::allocator<char> >, Service::Point103> > >::_M_insert_
FUNC 22ffc 2e 0 std::pair<std::_Rb_tree_iterator<std::pair<const std::basic_string<char, std::char_traits<char>, std::allocator<char> >, Service::Point103> >, bool>::pair
FUNC 2302a 28 0 std::_Rb_tree_iterator<std::pair<const std::basic_string<char, std::char_traits<char>, std::allocator<char> >, Service::Point103> >::operator--
FUNC 23052 1a 0 std::allocator<Tag>::allocator
FUNC 2306c a 0 __gnu_cxx::new_allocator<Tag>::~new_allocator
FUNC 23076 22 0 __gnu_cxx::new_allocator<Tag>::deallocate
FUNC 23098 37 0 std::_Destroy_aux<false>::__destroy<Tag*>
FUNC 230d0 1a 0 std::allocator<std::_Rb_tree_node<std::pair<const std::basic_string<char, std::char_traits<char>, std::allocator<char> >, Service::Point103> > >::allocator
FUNC 230ea 41 0 std::_Rb_tree<std::basic_string<char, std::char_traits<char>, std::allocator<char> >, std::pair<const std::basic_string<char, std::char_traits<char>, std::allocator<char> >, Service::Point103>, std::_Select1st<std::pair<const std::basic_string<char, std::char_traits<char>, std::allocator<char> >, Service::Point103> >, std::less<std::basic_string<char, std::char_traits<char>, std::allocator<char> > >, std::allocator<std::pair<const std::basic_string<char, std::char_traits<char>, std::allocator<char> >, Service::Point103> > >::_Rb_tree_impl<std::less<std::basic_string<char, std::char_traits<char>, std::allocator<char> > >, false>::_M_initialize
FUNC 2312c 3b 0 std::_Rb_tree<std::basic_string<char, std::char_traits<char>, std::allocator<char> >, std::pair<const std::basic_string<char, std::char_traits<char>, std::allocator<char> >, Service::Point103>, std::_Select1st<std::pair<const std::basic_string<char, std::char_traits<char>, std::allocator<char> >, Service::Point103> >, std::less<std::basic_string<char, std::char_traits<char>, std::allocator<char> > >, std::allocator<std::pair<const std::basic_string<char, std::char_traits<char>, std::allocator<char> >, Service::Point103> > >::get_allocator
FUNC 23168 1a 0 std::allocator<std::pair<const std::basic_string<char, std::char_traits<char>, std::allocator<char> >, Service::Point103> >::~allocator
FUNC 23182 1e 0 __gnu_cxx::new_allocator<std::pair<const std::basic_string<char, std::char_traits<char>, std::allocator<char> >, Service::Point103> >::destroy
FUNC 231a0 2a 0 std::_Rb_tree<std::basic_string<char, std::char_traits<char>, std::allocator<char> >, std::pair<const std::basic_string<char, std::char_traits<char>, std::allocator<char> >, Service::Point103>, std::_Select1st<std::pair<const std::basic_string<char, std::char_traits<char>, std::allocator<char> >, Service::Point103> >, std::less<std::basic_string<char, std::char_traits<char>, std::allocator<char> > >, std::allocator<std::pair<const std::basic_string<char, std::char_traits<char>, std::allocator<char> >, Service::Point103> > >::_M_put_node
FUNC 231ca 2d 0 std::uninitialized_fill_n<char*, long unsigned int, char>
FUNC 231f7 e 0 std::__miter_base<Tag*, false>::__b
FUNC 23205 58 0 std::__copy_move_backward_a2<false, Tag*, Tag*>
FUNC 2325e 22 0 std::vector<Tag, std::allocator<Tag> >::max_size
FUNC 23280 63 0 __gnu_cxx::new_allocator<Tag>::allocate
FUNC 232e3 31 0 std::__uninitialized_copy_a<Tag*, Tag*, Tag>
FUNC 23314 12 0 std::_Rb_tree<std::basic_string<char, std::char_traits<char>, std::allocator<char> >, std::pair<const std::basic_string<char, std::char_traits<char>, std::allocator<char> >, Service::Point103>, std::_Select1st<std::pair<const std::basic_string<char, std::char_traits<char>, std::allocator<char> >, Service::Point103> >, std::less<std::basic_string<char, std::char_traits<char>, std::allocator<char> > >, std::allocator<std::pair<const std::basic_string<char, std::char_traits<char>, std::allocator<char> >, Service::Point103> > >::_S_value
FUNC 23326 12 0 std::_Rb_tree<std::basic_string<char, std::char_traits<char>, std::allocator<char> >, std::pair<const std::basic_string<char, std::char_traits<char>, std::allocator<char> >, Service::Point103>, std::_Select1st<std::pair<const std::basic_string<char, std::char_traits<char>, std::allocator<char> >, Service::Point103> >, std::less<std::basic_string<char, std::char_traits<char>, std::allocator<char> > >, std::allocator<std::pair<const std::basic_string<char, std::char_traits<char>, std::allocator<char> >, Service::Point103> > >::_S_value
FUNC 23338 bd 0 std::_Rb_tree<std::basic_string<char, std::char_traits<char>, std::allocator<char> >, std::pair<const std::basic_string<char, std::char_traits<char>, std::allocator<char> >, Service::Point103>, std::_Select1st<std::pair<const std::basic_string<char, std::char_traits<char>, std::allocator<char> >, Service::Point103> >, std::less<std::basic_string<char, std::char_traits<char>, std::allocator<char> > >, std::allocator<std::pair<const std::basic_string<char, std::char_traits<char>, std::allocator<char> >, Service::Point103> > >::_M_create_node
FUNC 233f6 a 0 __gnu_cxx::new_allocator<Tag>::new_allocator
FUNC 23400 1a 0 std::_Destroy<Tag>
FUNC 2341a a 0 __gnu_cxx::new_allocator<std::_Rb_tree_node<std::pair<const std::basic_string<char, std::char_traits<char>, std::allocator<char> >, Service::Point103> > >::new_allocator
FUNC 23424 e 0 std::_Rb_tree<std::basic_string<char, std::char_traits<char>, std::allocator<char> >, std::pair<const std::basic_string<char, std::char_traits<char>, std::allocator<char> >, Service::Point103>, std::_Select1st<std::pair<const std::basic_string<char, std::char_traits<char>, std::allocator<char> >, Service::Point103> >, std::less<std::basic_string<char, std::char_traits<char>, std::allocator<char> > >, std::allocator<std::pair<const std::basic_string<char, std::char_traits<char>, std::allocator<char> >, Service::Point103> > >::_M_get_Node_allocator
FUNC 23432 1e 0 std::allocator<std::pair<const std::basic_string<char, std::char_traits<char>, std::allocator<char> >, Service::Point103> >::allocator<std::_Rb_tree_node<std::pair<const std::basic_string<char, std::char_traits<char>, std::allocator<char> >, Service::Point103> > >
FUNC 23450 a 0 __gnu_cxx::new_allocator<std::pair<const std::basic_string<char, std::char_traits<char>, std::allocator<char> >, Service::Point103> >::~new_allocator
FUNC 2345a 22 0 __gnu_cxx::new_allocator<std::_Rb_tree_node<std::pair<const std::basic_string<char, std::char_traits<char>, std::allocator<char> >, Service::Point103> > >::deallocate
FUNC 2347c 2d 0 std::__uninitialized_fill_n<true>::uninitialized_fill_n<char*, long unsigned int, char>
FUNC 234a9 e 0 std::__niter_base<Tag*, false>::__b
FUNC 234b7 31 0 std::__copy_move_backward_a<false, Tag*, Tag*>
FUNC 234e8 e 0 std::_Vector_base<Tag, std::allocator<Tag> >::_M_get_Tp_allocator
FUNC 234f6 14 0 __gnu_cxx::new_allocator<Tag>::max_size
FUNC 2350a 2d 0 std::uninitialized_copy<Tag*, Tag*>
FUNC 23538 24 0 std::_Rb_tree<std::basic_string<char, std::char_traits<char>, std::allocator<char> >, std::pair<const std::basic_string<char, std::char_traits<char>, std::allocator<char> >, Service::Point103>, std::_Select1st<std::pair<const std::basic_string<char, std::char_traits<char>, std::allocator<char> >, Service::Point103> >, std::less<std::basic_string<char, std::char_traits<char>, std::allocator<char> > >, std::allocator<std::pair<const std::basic_string<char, std::char_traits<char>, std::allocator<char> >, Service::Point103> > >::_M_get_node
FUNC 2355c 6b 0 std::pair<const std::basic_string<char, std::char_traits<char>, std::allocator<char> >, Service::Point103>::pair
FUNC 235c8 77 0 __gnu_cxx::new_allocator<std::pair<const std::basic_string<char, std::char_traits<char>, std::allocator<char> >, Service::Point103> >::construct
FUNC 23640 a 0 __gnu_cxx::new_allocator<std::pair<const std::basic_string<char, std::char_traits<char>, std::allocator<char> >, Service::Point103> >::new_allocator
FUNC 2364a 35 0 std::fill_n<char*, long unsigned int, char>
FUNC 2367f 6d 0 std::__copy_move_backward<false, false, std::random_access_iterator_tag>::__copy_move_b<Tag*, Tag*>
FUNC 236ec 98 0 std::__uninitialized_copy<false>::uninitialized_copy<Tag*, Tag*>
FUNC 23784 5c 0 __gnu_cxx::new_allocator<std::_Rb_tree_node<std::pair<const std::basic_string<char, std::char_traits<char>, std::allocator<char> >, Service::Point103> > >::allocate
FUNC 237e0 41 0 std::__fill_n_a<long unsigned int, char>
FUNC 23821 de 0 std::_Construct<Tag, Tag>
FUNC 23900 14 0 __gnu_cxx::new_allocator<std::_Rb_tree_node<std::pair<const std::basic_string<char, std::char_traits<char>, std::allocator<char> >, Service::Point103> > >::max_size
FUNC 23914 49 0 std::__fill_a<char>
FUNC 23960 db 0 TcpNet::TcpNet
FUNC 23a3c 7c 0 TcpNet::~TcpNet
FUNC 23ab8 26 0 TcpNet::~TcpNet
FUNC 23ade 17d 0 TcpNet::Connect
FUNC 23c5c 15d 0 TcpNet::Read
FUNC 23dba e8 0 TcpNet::Write
FUNC 23ea2 2c 0 TcpNet::DisConnect
FUNC 23ece 48 0 __static_initialization_and_destruction_0
FUNC 23f16 15 0 _GLOBAL__I_TcpNet.cpp
FUNC 23f2c 91 0 TcpService::TcpService
FUNC 23fbe 7e 0 TcpService::~TcpService
FUNC 2403c 26 0 TcpService::~TcpService
FUNC 24062 18f 0 TcpService::Start
FUNC 241f2 622 0 TcpService::Write
FUNC 24814 581 0 TcpService::Read
FUNC 24d96 20b 0 TcpService::ParseRecvData
FUNC 24fa2 11f 0 TcpService::CmdConnection
FUNC 250c2 11f 0 TcpService::CmdGetTest1
FUNC 251e2 11f 0 TcpService::CmdGetTest2
FUNC 25302 2a7 0 TcpService::CmdGetAll
FUNC 255aa 2e1 0 TcpService::CmdGetGroupData
FUNC 2588c 15b 0 TcpService::ParseVariableData
FUNC 259e8 379 0 TcpService::ParseASDU1
FUNC 25d62 120 0 TcpService::ParseASDU10
FUNC 25e82 82f 0 TcpService::ParseASDU10AllValue
FUNC 266b2 2fe 0 TcpService::ParseASDU40
FUNC 269b0 3c 0 TcpService::ParseASDU41
FUNC 269ec 391 0 TcpService::ParseASDU42
FUNC 26d7e 388 0 TcpService::ParseASDU44
FUNC 27106 465 0 TcpService::ParseASDU50
FUNC 2756c 8e 0 TcpService::InitConfig
FUNC 275fa 14 0 TcpService::GetSendID
FUNC 2760e 14 0 TcpService::GetRecvID
FUNC 27622 ca 0 __static_initialization_and_destruction_0
FUNC 276ec 15 0 _GLOBAL__I_TcpService.cpp
FUNC 27704 107 0 UdpNet::UdpNet
FUNC 2780c 7c 0 UdpNet::~UdpNet
FUNC 27888 26 0 UdpNet::~UdpNet
FUNC 278ae 139 0 UdpNet::Connect
FUNC 279e8 c3 0 UdpNet::Read
FUNC 27aac ce 0 UdpNet::Write
FUNC 27b7a 2c 0 UdpNet::DisConnect
FUNC 27ba6 48 0 __static_initialization_and_destruction_0
FUNC 27bee 15 0 _GLOBAL__I_UdpNet.cpp
FUNC 27c04 1c 0 WarningLib::WarningLib
FUNC 27c20 35 0 WarningLib::~WarningLib
FUNC 27c56 26 0 WarningLib::~WarningLib
FUNC 27c7c 74 0 WarningLib::GetInstance
FUNC 27cf0 2f4 0 WarningLib::Init
FUNC 27fe4 96 0 WarningLib::GetFunction
FUNC 2807a 2b 0 WarningLib::Start
FUNC 280a6 36 0 WarningLib::WriteWarn
FUNC 280dc 63 0 WarningLib::WriteWarn2
FUNC 28140 2b 0 WarningLib::Stop
FUNC 2816c 550 0 WgjXml::WgjXml
FUNC 286bc 581 0 WgjXml::~WgjXml
FUNC 28c3e 6c 0 WgjXml::LoadXml
FUNC 28caa a1 0 WgjXml::Get_Point61850
FUNC 28d4c 1f1 0 WgjXml::GetTransmitChannel
FUNC 28f3e 96 0 WgjXml::Get_61850
FUNC 28fd4 1b8 0 WgjXml::GetRedisConnectionConfig
FUNC 2918c db 0 WgjXml::GetCollectionRedisInfo
FUNC 29268 72 0 WgjXml::GetPcapConfigInfo
FUNC 292da 6b 0 WgjXml::GetAllChannelName
FUNC 29346 f2 0 WgjXml::GetParseConfigInfo
FUNC 29438 be 0 WgjXml::GetIEC61850ServerPoint
FUNC 294f6 85 0 WgjXml::InitIEC103Xml
FUNC 2957c 36 0 WgjXml::GetIEC103Param
FUNC 295b2 36 0 WgjXml::GetIEC103Point
FUNC 295e8 bf 0 WgjXml::GetIEC104WFPoint
FUNC 296a8 89 0 WgjXml::GetIEC104WFParam
FUNC 29732 89 0 WgjXml::Get61850IP
FUNC 297bc 732 0 WgjXml::parse_61850
FUNC 29eee 68e 0 WgjXml::parse_Iec104
FUNC 2a57c 55e 0 WgjXml::parse_Iec104Param
FUNC 2aada 452 0 WgjXml::parse_Iec103
FUNC 2af2c 215 0 WgjXml::find_RedisInfo
FUNC 2b142 178 0 WgjXml::get_AllChannel
FUNC 2b2ba 62a 0 WgjXml::getParseConfigInfo
FUNC 2b8e4 2b0 0 WgjXml::GetDataStorageConfig
FUNC 2bb94 487 0 WgjXml::getPcapConfigInfo
FUNC 2c01c 35d 0 WgjXml::getIEC61850ServerPoint
FUNC 2c37a 314 0 WgjXml::parse_61850IP
FUNC 2c68e 40 0 __static_initialization_and_destruction_0
FUNC 2c6ce 15 0 _GLOBAL__I__ZN6WgjXmlC2Ev
FUNC 2c6e4 1a 0 TiXmlString::~TiXmlString
FUNC 2c6fe 15 0 TiXmlString::c_str
FUNC 2c714 38 0 TiXmlString::quit
FUNC 2c74c 1e 0 TiXmlNode::Value
FUNC 2c76a 1a 0 TiXmlNode::NextSiblingElement
FUNC 2c784 1a 0 TiXmlNode::FirstChildElement
FUNC 2c79e 18 0 TiXmlNode::NoChildren
FUNC 2c7b6 4a 0 TiXmlDocument::~TiXmlDocument
FUNC 2c800 26 0 TiXmlDocument::~TiXmlDocument
FUNC 2c826 1a 0 TiXmlDocument::RootElement
FUNC 2c840 1a 0 std::map<std::basic_string<char, std::char_traits<char>, std::allocator<char> >, IEC61850_STRUCT::IED_61850, std::less<std::basic_string<char, std::char_traits<char>, std::allocator<char> > >, std::allocator<std::pair<const std::basic_string<char, std::char_traits<char>, std::allocator<char> >, IEC61850_STRUCT::IED_61850> > >::~map
FUNC 2c85a 139 0 IEC61850_STRUCT::IED_61850::IED_61850
FUNC 2c994 140 0 IEC61850_STRUCT::IED_61850::~IED_61850
FUNC 2cad4 1a 0 std::list<std::basic_string<char, std::char_traits<char>, std::allocator<char> >, std::allocator<std::basic_string<char, std::char_traits<char>, std::allocator<char> > > >::~list
FUNC 2caee 1a 0 std::map<std::basic_string<char, std::char_traits<char>, std::allocator<char> >, std::map<int, std::map<int, IEC104WF::stPointTable, std::less<int>, std::allocator<std::pair<const int, IEC104WF::stPointTable> > >, std::less<int>, std::allocator<std::pair<const int, std::map<int, IEC104WF::stPointTable, std::less<int>, std::allocator<std::pair<const int, IEC104WF::stPointTable> > > > > >, std::less<std::basic_string<char, std::char_traits<char>, std::allocator<char> > >, std::allocator<std::pair<const std::basic_string<char, std::char_traits<char>, std::allocator<char> >, std::map<int, std::map<int, IEC104WF::stPointTable, std::less<int>, std::allocator<std::pair<const int, IEC104WF::stPointTable> > >, std::less<int>, std::allocator<std::pair<const int, std::map<int, IEC104WF::stPointTable, std::less<int>, std::allocator<std::pair<const int, IEC104WF::stPointTable> > > > > > > > >::~map
FUNC 2cb08 1a 0 std::map<int, std::map<int, IEC104WF::stPointTable, std::less<int>, std::allocator<std::pair<const int, IEC104WF::stPointTable> > >, std::less<int>, std::allocator<std::pair<const int, std::map<int, IEC104WF::stPointTable, std::less<int>, std::allocator<std::pair<const int, IEC104WF::stPointTable> > > > > >::~map
FUNC 2cb22 1a 0 std::map<int, IEC104WF::stPointTable, std::less<int>, std::allocator<std::pair<const int, IEC104WF::stPointTable> > >::~map
FUNC 2cb3c 1a 0 IEC104WF::stPointTable::stPointTable
FUNC 2cb56 1a 0 IEC104WF::stPointTable::~stPointTable
FUNC 2cb70 1a 0 std::map<std::basic_string<char, std::char_traits<char>, std::allocator<char> >, IEC103::stConfigParam, std::less<std::basic_string<char, std::char_traits<char>, std::allocator<char> > >, std::allocator<std::pair<const std::basic_string<char, std::char_traits<char>, std::allocator<char> >, IEC103::stConfigParam> > >::~map
FUNC 2cb8a 1a 0 std::map<std::basic_string<char, std::char_traits<char>, std::allocator<char> >, std::map<std::basic_string<char, std::char_traits<char>, std::allocator<char> >, std::basic_string<char, std::char_traits<char>, std::allocator<char> >, std::less<std::basic_string<char, std::char_traits<char>, std::allocator<char> > >, std::allocator<std::pair<const std::basic_string<char, std::char_traits<char>, std::allocator<char> >, std::basic_string<char, std::char_traits<char>, std::allocator<char> > > > >, std::less<std::basic_string<char, std::char_traits<char>, std::allocator<char> > >, std::allocator<std::pair<const std::basic_string<char, std::char_traits<char>, std::allocator<char> >, std::map<std::basic_string<char, std::char_traits<char>, std::allocator<char> >, std::basic_string<char, std::char_traits<char>, std::allocator<char> >, std::less<std::basic_string<char, std::char_traits<char>, std::allocator<char> > >, std::allocator<std::pair<const std::basic_string<char, std::char_traits<char>, std::allocator<char> >, std::basic_string<char, std::char_traits<char>, std::allocator<char> > > > > > > >::~map
FUNC 2cba4 82 0 IEC103::stConfigParam::stConfigParam
FUNC 2cc26 84 0 IEC103::stConfigParam::~stConfigParam
FUNC 2ccaa 121 0 IEC61850_STRUCT::IED_61850::operator=
FUNC 2cdcc 45 0 IEC104WF::stPointTable::operator=
FUNC 2ce12 7b 0 IEC103::stConfigParam::operator=
FUNC 2ce8e 1a 0 std::map<std::basic_string<char, std::char_traits<char>, std::allocator<char> >, IEC61850_STRUCT::IED_61850, std::less<std::basic_string<char, std::char_traits<char>, std::allocator<char> > >, std::allocator<std::pair<const std::basic_string<char, std::char_traits<char>, std::allocator<char> >, IEC61850_STRUCT::IED_61850> > >::map
FUNC 2cea8 1a 0 std::_Rb_tree<std::basic_string<char, std::char_traits<char>, std::allocator<char> >, std::pair<const std::basic_string<char, std::char_traits<char>, std::allocator<char> >, IEC61850_STRUCT::IED_61850>, std::_Select1st<std::pair<const std::basic_string<char, std::char_traits<char>, std::allocator<char> >, IEC61850_STRUCT::IED_61850> >, std::less<std::basic_string<char, std::char_traits<char>, std::allocator<char> > >, std::allocator<std::pair<const std::basic_string<char, std::char_traits<char>, std::allocator<char> >, IEC61850_STRUCT::IED_61850> > >::_Rb_tree_impl<std::less<std::basic_string<char, std::char_traits<char>, std::allocator<char> > >, false>::~_Rb_tree_impl
FUNC 2cec2 63 0 std::_Rb_tree<std::basic_string<char, std::char_traits<char>, std::allocator<char> >, std::pair<const std::basic_string<char, std::char_traits<char>, std::allocator<char> >, IEC61850_STRUCT::IED_61850>, std::_Select1st<std::pair<const std::basic_string<char, std::char_traits<char>, std::allocator<char> >, IEC61850_STRUCT::IED_61850> >, std::less<std::basic_string<char, std::char_traits<char>, std::allocator<char> > >, std::allocator<std::pair<const std::basic_string<char, std::char_traits<char>, std::allocator<char> >, IEC61850_STRUCT::IED_61850> > >::~_Rb_tree
FUNC 2cf26 1a 0 std::list<std::basic_string<char, std::char_traits<char>, std::allocator<char> >, std::allocator<std::basic_string<char, std::char_traits<char>, std::allocator<char> > > >::list
FUNC 2cf40 1a 0 std::_List_base<std::basic_string<char, std::char_traits<char>, std::allocator<char> >, std::allocator<std::basic_string<char, std::char_traits<char>, std::allocator<char> > > >::_List_impl::~_List_impl
FUNC 2cf5a 51 0 std::_List_base<std::basic_string<char, std::char_traits<char>, std::allocator<char> >, std::allocator<std::basic_string<char, std::char_traits<char>, std::allocator<char> > > >::~_List_base
FUNC 2cfac 1a 0 std::map<std::basic_string<char, std::char_traits<char>, std::allocator<char> >, std::map<int, std::map<int, IEC104WF::stPointTable, std::less<int>, std::allocator<std::pair<const int, IEC104WF::stPointTable> > >, std::less<int>, std::allocator<std::pair<const int, std::map<int, IEC104WF::stPointTable, std::less<int>, std::allocator<std::pair<const int, IEC104WF::stPointTable> > > > > >, std::less<std::basic_string<char, std::char_traits<char>, std::allocator<char> > >, std::allocator<std::pair<const std::basic_string<char, std::char_traits<char>, std::allocator<char> >, std::map<int, std::map<int, IEC104WF::stPointTable, std::less<int>, std::allocator<std::pair<const int, IEC104WF::stPointTable> > >, std::less<int>, std::allocator<std::pair<const int, std::map<int, IEC104WF::stPointTable, std::less<int>, std::allocator<std::pair<const int, IEC104WF::stPointTable> > > > > > > > >::map
FUNC 2cfc6 1a 0 std::_Rb_tree<std::basic_string<char, std::char_traits<char>, std::allocator<char> >, std::pair<const std::basic_string<char, std::char_traits<char>, std::allocator<char> >, std::map<int, std::map<int, IEC104WF::stPointTable, std::less<int>, std::allocator<std::pair<const int, IEC104WF::stPointTable> > >, std::less<int>, std::allocator<std::pair<const int, std::map<int, IEC104WF::stPointTable, std::less<int>, std::allocator<std::pair<const int, IEC104WF::stPointTable> > > > > > >, std::_Select1st<std::pair<const std::basic_string<char, std::char_traits<char>, std::allocator<char> >, std::map<int, std::map<int, IEC104WF::stPointTable, std::less<int>, std::allocator<std::pair<const int, IEC104WF::stPointTable> > >, std::less<int>, std::allocator<std::pair<const int, std::map<int, IEC104WF::stPointTable, std::less<int>, std::allocator<std::pair<const int, IEC104WF::stPointTable> > > > > > > >, std::less<std::basic_string<char, std::char_traits<char>, std::allocator<char> > >, std::allocator<std::pair<const std::basic_string<char, std::char_traits<char>, std::allocator<char> >, std::map<int, std::map<int, IEC104WF::stPointTable, std::less<int>, std::allocator<std::pair<const int, IEC104WF::stPointTable> > >, std::less<int>, std::allocator<std::pair<const int, std::map<int, IEC104WF::stPointTable, std::less<int>, std::allocator<std::pair<const int, IEC104WF::stPointTable> > > > > > > > >::_Rb_tree_impl<std::less<std::basic_string<char, std::char_traits<char>, std::allocator<char> > >, false>::~_Rb_tree_impl
FUNC 2cfe0 63 0 std::_Rb_tree<std::basic_string<char, std::char_traits<char>, std::allocator<char> >, std::pair<const std::basic_string<char, std::char_traits<char>, std::allocator<char> >, std::map<int, std::map<int, IEC104WF::stPointTable, std::less<int>, std::allocator<std::pair<const int, IEC104WF::stPointTable> > >, std::less<int>, std::allocator<std::pair<const int, std::map<int, IEC104WF::stPointTable, std::less<int>, std::allocator<std::pair<const int, IEC104WF::stPointTable> > > > > > >, std::_Select1st<std::pair<const std::basic_string<char, std::char_traits<char>, std::allocator<char> >, std::map<int, std::map<int, IEC104WF::stPointTable, std::less<int>, std::allocator<std::pair<const int, IEC104WF::stPointTable> > >, std::less<int>, std::allocator<std::pair<const int, std::map<int, IEC104WF::stPointTable, std::less<int>, std::allocator<std::pair<const int, IEC104WF::stPointTable> > > > > > > >, std::less<std::basic_string<char, std::char_traits<char>, std::allocator<char> > >, std::allocator<std::pair<const std::basic_string<char, std::char_traits<char>, std::allocator<char> >, std::map<int, std::map<int, IEC104WF::stPointTable, std::less<int>, std::allocator<std::pair<const int, IEC104WF::stPointTable> > >, std::less<int>, std::allocator<std::pair<const int, std::map<int, IEC104WF::stPointTable, std::less<int>, std::allocator<std::pair<const int, IEC104WF::stPointTable> > > > > > > > >::~_Rb_tree
FUNC 2d044 1a 0 std::map<int, std::map<int, IEC104WF::stPointTable, std::less<int>, std::allocator<std::pair<const int, IEC104WF::stPointTable> > >, std::less<int>, std::allocator<std::pair<const int, std::map<int, IEC104WF::stPointTable, std::less<int>, std::allocator<std::pair<const int, IEC104WF::stPointTable> > > > > >::map
FUNC 2d05e 1a 0 std::_Rb_tree<int, std::pair<const int, std::map<int, IEC104WF::stPointTable, std::less<int>, std::allocator<std::pair<const int, IEC104WF::stPointTable> > > >, std::_Select1st<std::pair<const int, std::map<int, IEC104WF::stPointTable, std::less<int>, std::allocator<std::pair<const int, IEC104WF::stPointTable> > > > >, std::less<int>, std::allocator<std::pair<const int, std::map<int, IEC104WF::stPointTable, std::less<int>, std::allocator<std::pair<const int, IEC104WF::stPointTable> > > > > >::_Rb_tree_impl<std::less<int>, false>::~_Rb_tree_impl
FUNC 2d078 63 0 std::_Rb_tree<int, std::pair<const int, std::map<int, IEC104WF::stPointTable, std::less<int>, std::allocator<std::pair<const int, IEC104WF::stPointTable> > > >, std::_Select1st<std::pair<const int, std::map<int, IEC104WF::stPointTable, std::less<int>, std::allocator<std::pair<const int, IEC104WF::stPointTable> > > > >, std::less<int>, std::allocator<std::pair<const int, std::map<int, IEC104WF::stPointTable, std::less<int>, std::allocator<std::pair<const int, IEC104WF::stPointTable> > > > > >::~_Rb_tree
FUNC 2d0dc 1a 0 std::map<int, IEC104WF::stPointTable, std::less<int>, std::allocator<std::pair<const int, IEC104WF::stPointTable> > >::map
FUNC 2d0f6 1a 0 std::_Rb_tree<int, std::pair<const int, IEC104WF::stPointTable>, std::_Select1st<std::pair<const int, IEC104WF::stPointTable> >, std::less<int>, std::allocator<std::pair<const int, IEC104WF::stPointTable> > >::_Rb_tree_impl<std::less<int>, false>::~_Rb_tree_impl
FUNC 2d110 63 0 std::_Rb_tree<int, std::pair<const int, IEC104WF::stPointTable>, std::_Select1st<std::pair<const int, IEC104WF::stPointTable> >, std::less<int>, std::allocator<std::pair<const int, IEC104WF::stPointTable> > >::~_Rb_tree
FUNC 2d174 1a 0 std::map<std::basic_string<char, std::char_traits<char>, std::allocator<char> >, IEC103::stConfigParam, std::less<std::basic_string<char, std::char_traits<char>, std::allocator<char> > >, std::allocator<std::pair<const std::basic_string<char, std::char_traits<char>, std::allocator<char> >, IEC103::stConfigParam> > >::map
FUNC 2d18e 1a 0 std::_Rb_tree<std::basic_string<char, std::char_traits<char>, std::allocator<char> >, std::pair<const std::basic_string<char, std::char_traits<char>, std::allocator<char> >, IEC103::stConfigParam>, std::_Select1st<std::pair<const std::basic_string<char, std::char_traits<char>, std::allocator<char> >, IEC103::stConfigParam> >, std::less<std::basic_string<char, std::char_traits<char>, std::allocator<char> > >, std::allocator<std::pair<const std::basic_string<char, std::char_traits<char>, std::allocator<char> >, IEC103::stConfigParam> > >::_Rb_tree_impl<std::less<std::basic_string<char, std::char_traits<char>, std::allocator<char> > >, false>::~_Rb_tree_impl
FUNC 2d1a8 63 0 std::_Rb_tree<std::basic_string<char, std::char_traits<char>, std::allocator<char> >, std::pair<const std::basic_string<char, std::char_traits<char>, std::allocator<char> >, IEC103::stConfigParam>, std::_Select1st<std::pair<const std::basic_string<char, std::char_traits<char>, std::allocator<char> >, IEC103::stConfigParam> >, std::less<std::basic_string<char, std::char_traits<char>, std::allocator<char> > >, std::allocator<std::pair<const std::basic_string<char, std::char_traits<char>, std::allocator<char> >, IEC103::stConfigParam> > >::~_Rb_tree
FUNC 2d20c 1a 0 std::map<std::basic_string<char, std::char_traits<char>, std::allocator<char> >, std::map<std::basic_string<char, std::char_traits<char>, std::allocator<char> >, std::basic_string<char, std::char_traits<char>, std::allocator<char> >, std::less<std::basic_string<char, std::char_traits<char>, std::allocator<char> > >, std::allocator<std::pair<const std::basic_string<char, std::char_traits<char>, std::allocator<char> >, std::basic_string<char, std::char_traits<char>, std::allocator<char> > > > >, std::less<std::basic_string<char, std::char_traits<char>, std::allocator<char> > >, std::allocator<std::pair<const std::basic_string<char, std::char_traits<char>, std::allocator<char> >, std::map<std::basic_string<char, std::char_traits<char>, std::allocator<char> >, std::basic_string<char, std::char_traits<char>, std::allocator<char> >, std::less<std::basic_string<char, std::char_traits<char>, std::allocator<char> > >, std::allocator<std::pair<const std::basic_string<char, std::char_traits<char>, std::allocator<char> >, std::basic_string<char, std::char_traits<char>, std::allocator<char> > > > > > > >::map
FUNC 2d226 1a 0 std::_Rb_tree<std::basic_string<char, std::char_traits<char>, std::allocator<char> >, std::pair<const std::basic_string<char, std::char_traits<char>, std::allocator<char> >, std::map<std::basic_string<char, std::char_traits<char>, std::allocator<char> >, std::basic_string<char, std::char_traits<char>, std::allocator<char> >, std::less<std::basic_string<char, std::char_traits<char>, std::allocator<char> > >, std::allocator<std::pair<const std::basic_string<char, std::char_traits<char>, std::allocator<char> >, std::basic_string<char, std::char_traits<char>, std::allocator<char> > > > > >, std::_Select1st<std::pair<const std::basic_string<char, std::char_traits<char>, std::allocator<char> >, std::map<std::basic_string<char, std::char_traits<char>, std::allocator<char> >, std::basic_string<char, std::char_traits<char>, std::allocator<char> >, std::less<std::basic_string<char, std::char_traits<char>, std::allocator<char> > >, std::allocator<std::pair<const std::basic_string<char, std::char_traits<char>, std::allocator<char> >, std::basic_string<char, std::char_traits<char>, std::allocator<char> > > > > > >, std::less<std::basic_string<char, std::char_traits<char>, std::allocator<char> > >, std::allocator<std::pair<const std::basic_string<char, std::char_traits<char>, std::allocator<char> >, std::map<std::basic_string<char, std::char_traits<char>, std::allocator<char> >, std::basic_string<char, std::char_traits<char>, std::allocator<char> >, std::less<std::basic_string<char, std::char_traits<char>, std::allocator<char> > >, std::allocator<std::pair<const std::basic_string<char, std::char_traits<char>, std::allocator<char> >, std::basic_string<char, std::char_traits<char>, std::allocator<char> > > > > > > >::_Rb_tree_impl<std::less<std::basic_string<char, std::char_traits<char>, std::allocator<char> > >, false>::~_Rb_tree_impl
FUNC 2d240 63 0 std::_Rb_tree<std::basic_string<char, std::char_traits<char>, std::allocator<char> >, std::pair<const std::basic_string<char, std::char_traits<char>, std::allocator<char> >, std::map<std::basic_string<char, std::char_traits<char>, std::allocator<char> >, std::basic_string<char, std::char_traits<char>, std::allocator<char> >, std::less<std::basic_string<char, std::char_traits<char>, std::allocator<char> > >, std::allocator<std::pair<const std::basic_string<char, std::char_traits<char>, std::allocator<char> >, std::basic_string<char, std::char_traits<char>, std::allocator<char> > > > > >, std::_Select1st<std::pair<const std::basic_string<char, std::char_traits<char>, std::allocator<char> >, std::map<std::basic_string<char, std::char_traits<char>, std::allocator<char> >, std::basic_string<char, std::char_traits<char>, std::allocator<char> >, std::less<std::basic_string<char, std::char_traits<char>, std::allocator<char> > >, std::allocator<std::pair<const std::basic_string<char, std::char_traits<char>, std::allocator<char> >, std::basic_string<char, std::char_traits<char>, std::allocator<char> > > > > > >, std::less<std::basic_string<char, std::char_traits<char>, std::allocator<char> > >, std::allocator<std::pair<const std::basic_string<char, std::char_traits<char>, std::allocator<char> >, std::map<std::basic_string<char, std::char_traits<char>, std::allocator<char> >, std::basic_string<char, std::char_traits<char>, std::allocator<char> >, std::less<std::basic_string<char, std::char_traits<char>, std::allocator<char> > >, std::allocator<std::pair<const std::basic_string<char, std::char_traits<char>, std::allocator<char> >, std::basic_string<char, std::char_traits<char>, std::allocator<char> > > > > > > >::~_Rb_tree
FUNC 2d2a4 b9 0 std::vector<std::basic_string<char, std::char_traits<char>, std::allocator<char> >, std::allocator<std::basic_string<char, std::char_traits<char>, std::allocator<char> > > >::vector
FUNC 2d35e 1a 0 std::map<std::basic_string<char, std::char_traits<char>, std::allocator<char> >, IEC61850_STRUCT::IED_61850, std::less<std::basic_string<char, std::char_traits<char>, std::allocator<char> > >, std::allocator<std::pair<const std::basic_string<char, std::char_traits<char>, std::allocator<char> >, IEC61850_STRUCT::IED_61850> > >::clear
FUNC 2d378 25 0 std::map<std::basic_string<char, std::char_traits<char>, std::allocator<char> >, IEC61850_STRUCT::IED_61850, std::less<std::basic_string<char, std::char_traits<char>, std::allocator<char> > >, std::allocator<std::pair<const std::basic_string<char, std::char_traits<char>, std::allocator<char> >, IEC61850_STRUCT::IED_61850> > >::map
FUNC 2d39d 2a 0 std::operator==<char, std::char_traits<char>, std::allocator<char> >
FUNC 2d3c8 1a 0 std::map<std::basic_string<char, std::char_traits<char>, std::allocator<char> >, IEC103::stConfigParam, std::less<std::basic_string<char, std::char_traits<char>, std::allocator<char> > >, std::allocator<std::pair<const std::basic_string<char, std::char_traits<char>, std::allocator<char> >, IEC103::stConfigParam> > >::clear
FUNC 2d3e2 1a 0 std::map<std::basic_string<char, std::char_traits<char>, std::allocator<char> >, std::map<std::basic_string<char, std::char_traits<char>, std::allocator<char> >, std::basic_string<char, std::char_traits<char>, std::allocator<char> >, std::less<std::basic_string<char, std::char_traits<char>, std::allocator<char> > >, std::allocator<std::pair<const std::basic_string<char, std::char_traits<char>, std::allocator<char> >, std::basic_string<char, std::char_traits<char>, std::allocator<char> > > > >, std::less<std::basic_string<char, std::char_traits<char>, std::allocator<char> > >, std::allocator<std::pair<const std::basic_string<char, std::char_traits<char>, std::allocator<char> >, std::map<std::basic_string<char, std::char_traits<char>, std::allocator<char> >, std::basic_string<char, std::char_traits<char>, std::allocator<char> >, std::less<std::basic_string<char, std::char_traits<char>, std::allocator<char> > >, std::allocator<std::pair<const std::basic_string<char, std::char_traits<char>, std::allocator<char> >, std::basic_string<char, std::char_traits<char>, std::allocator<char> > > > > > > >::clear
FUNC 2d3fc 25 0 std::map<std::basic_string<char, std::char_traits<char>, std::allocator<char> >, IEC103::stConfigParam, std::less<std::basic_string<char, std::char_traits<char>, std::allocator<char> > >, std::allocator<std::pair<const std::basic_string<char, std::char_traits<char>, std::allocator<char> >, IEC103::stConfigParam> > >::map
FUNC 2d422 25 0 std::map<std::basic_string<char, std::char_traits<char>, std::allocator<char> >, std::map<std::basic_string<char, std::char_traits<char>, std::allocator<char> >, std::basic_string<char, std::char_traits<char>, std::allocator<char> >, std::less<std::basic_string<char, std::char_traits<char>, std::allocator<char> > >, std::allocator<std::pair<const std::basic_string<char, std::char_traits<char>, std::allocator<char> >, std::basic_string<char, std::char_traits<char>, std::allocator<char> > > > >, std::less<std::basic_string<char, std::char_traits<char>, std::allocator<char> > >, std::allocator<std::pair<const std::basic_string<char, std::char_traits<char>, std::allocator<char> >, std::map<std::basic_string<char, std::char_traits<char>, std::allocator<char> >, std::basic_string<char, std::char_traits<char>, std::allocator<char> >, std::less<std::basic_string<char, std::char_traits<char>, std::allocator<char> > >, std::allocator<std::pair<const std::basic_string<char, std::char_traits<char>, std::allocator<char> >, std::basic_string<char, std::char_traits<char>, std::allocator<char> > > > > > > >::map
FUNC 2d448 1a 0 std::map<std::basic_string<char, std::char_traits<char>, std::allocator<char> >, std::map<int, std::map<int, IEC104WF::stPointTable, std::less<int>, std::allocator<std::pair<const int, IEC104WF::stPointTable> > >, std::less<int>, std::allocator<std::pair<const int, std::map<int, IEC104WF::stPointTable, std::less<int>, std::allocator<std::pair<const int, IEC104WF::stPointTable> > > > > >, std::less<std::basic_string<char, std::char_traits<char>, std::allocator<char> > >, std::allocator<std::pair<const std::basic_string<char, std::char_traits<char>, std::allocator<char> >, std::map<int, std::map<int, IEC104WF::stPointTable, std::less<int>, std::allocator<std::pair<const int, IEC104WF::stPointTable> > >, std::less<int>, std::allocator<std::pair<const int, std::map<int, IEC104WF::stPointTable, std::less<int>, std::allocator<std::pair<const int, IEC104WF::stPointTable> > > > > > > > >::clear
FUNC 2d462 1a 0 std::map<int, std::map<int, IEC104WF::stPointTable, std::less<int>, std::allocator<std::pair<const int, IEC104WF::stPointTable> > >, std::less<int>, std::allocator<std::pair<const int, std::map<int, IEC104WF::stPointTable, std::less<int>, std::allocator<std::pair<const int, IEC104WF::stPointTable> > > > > >::clear
FUNC 2d47c 1a 0 std::map<int, IEC104WF::stPointTable, std::less<int>, std::allocator<std::pair<const int, IEC104WF::stPointTable> > >::clear
FUNC 2d496 25 0 std::map<std::basic_string<char, std::char_traits<char>, std::allocator<char> >, std::map<int, std::map<int, IEC104WF::stPointTable, std::less<int>, std::allocator<std::pair<const int, IEC104WF::stPointTable> > >, std::less<int>, std::allocator<std::pair<const int, std::map<int, IEC104WF::stPointTable, std::less<int>, std::allocator<std::pair<const int, IEC104WF::stPointTable> > > > > >, std::less<std::basic_string<char, std::char_traits<char>, std::allocator<char> > >, std::allocator<std::pair<const std::basic_string<char, std::char_traits<char>, std::allocator<char> >, std::map<int, std::map<int, IEC104WF::stPointTable, std::less<int>, std::allocator<std::pair<const int, IEC104WF::stPointTable> > >, std::less<int>, std::allocator<std::pair<const int, std::map<int, IEC104WF::stPointTable, std::less<int>, std::allocator<std::pair<const int, IEC104WF::stPointTable> > > > > > > > >::map
FUNC 2d4bc 26 0 std::list<std::basic_string<char, std::char_traits<char>, std::allocator<char> >, std::allocator<std::basic_string<char, std::char_traits<char>, std::allocator<char> > > >::clear
FUNC 2d4e2 cf 0 std::list<std::basic_string<char, std::char_traits<char>, std::allocator<char> >, std::allocator<std::basic_string<char, std::char_traits<char>, std::allocator<char> > > >::list
FUNC 2d5b2 55 0 std::pair<const std::basic_string<char, std::char_traits<char>, std::allocator<char> >, IEC61850_STRUCT::IED_61850>::~pair
FUNC 2d608 1b7 0 std::map<std::basic_string<char, std::char_traits<char>, std::allocator<char> >, IEC61850_STRUCT::IED_61850, std::less<std::basic_string<char, std::char_traits<char>, std::allocator<char> > >, std::allocator<std::pair<const std::basic_string<char, std::char_traits<char>, std::allocator<char> >, IEC61850_STRUCT::IED_61850> > >::operator[]
FUNC 2d7c0 9e 0 WgjXml::stringToNum<float>
FUNC 2d85e 92 0 WgjXml::stringToNum<int>
FUNC 2d8f0 1e 0 std::pair<const int, IEC104WF::stPointTable>::~pair
FUNC 2d90e 15e 0 std::map<int, IEC104WF::stPointTable, std::less<int>, std::allocator<std::pair<const int, IEC104WF::stPointTable> > >::operator[]
FUNC 2da6c 1e 0 std::pair<const int, std::map<int, IEC104WF::stPointTable, std::less<int>, std::allocator<std::pair<const int, IEC104WF::stPointTable> > > >::~pair
FUNC 2da8a 185 0 std::map<int, std::map<int, IEC104WF::stPointTable, std::less<int>, std::allocator<std::pair<const int, IEC104WF::stPointTable> > >, std::less<int>, std::allocator<std::pair<const int, std::map<int, IEC104WF::stPointTable, std::less<int>, std::allocator<std::pair<const int, IEC104WF::stPointTable> > > > > >::operator[]
FUNC 2dc10 29 0 std::map<int, IEC104WF::stPointTable, std::less<int>, std::allocator<std::pair<const int, IEC104WF::stPointTable> > >::operator=
FUNC 2dc3a 55 0 std::pair<const std::basic_string<char, std::char_traits<char>, std::allocator<char> >, std::map<int, std::map<int, IEC104WF::stPointTable, std::less<int>, std::allocator<std::pair<const int, IEC104WF::stPointTable> > >, std::less<int>, std::allocator<std::pair<const int, std::map<int, IEC104WF::stPointTable, std::less<int>, std::allocator<std::pair<const int, IEC104WF::stPointTable> > > > > > >::~pair
FUNC 2dc90 185 0 std::map<std::basic_string<char, std::char_traits<char>, std::allocator<char> >, std::map<int, std::map<int, IEC104WF::stPointTable, std::less<int>, std::allocator<std::pair<const int, IEC104WF::stPointTable> > >, std::less<int>, std::allocator<std::pair<const int, std::map<int, IEC104WF::stPointTable, std::less<int>, std::allocator<std::pair<const int, IEC104WF::stPointTable> > > > > >, std::less<std::basic_string<char, std::char_traits<char>, std::allocator<char> > >, std::allocator<std::pair<const std::basic_string<char, std::char_traits<char>, std::allocator<char> >, std::map<int, std::map<int, IEC104WF::stPointTable, std::less<int>, std::allocator<std::pair<const int, IEC104WF::stPointTable> > >, std::less<int>, std::allocator<std::pair<const int, std::map<int, IEC104WF::stPointTable, std::less<int>, std::allocator<std::pair<const int, IEC104WF::stPointTable> > > > > > > > >::operator[]
FUNC 2de16 29 0 std::map<int, std::map<int, IEC104WF::stPointTable, std::less<int>, std::allocator<std::pair<const int, IEC104WF::stPointTable> > >, std::less<int>, std::allocator<std::pair<const int, std::map<int, IEC104WF::stPointTable, std::less<int>, std::allocator<std::pair<const int, IEC104WF::stPointTable> > > > > >::operator=
FUNC 2de3f 28 0 std::operator!=<char, std::char_traits<char>, std::allocator<char> >
FUNC 2de68 55 0 std::pair<const std::basic_string<char, std::char_traits<char>, std::allocator<char> >, IEC103::stConfigParam>::~pair
FUNC 2debe 187 0 std::map<std::basic_string<char, std::char_traits<char>, std::allocator<char> >, IEC103::stConfigParam, std::less<std::basic_string<char, std::char_traits<char>, std::allocator<char> > >, std::allocator<std::pair<const std::basic_string<char, std::char_traits<char>, std::allocator<char> >, IEC103::stConfigParam> > >::operator[]
FUNC 2e046 55 0 std::pair<const std::basic_string<char, std::char_traits<char>, std::allocator<char> >, std::map<std::basic_string<char, std::char_traits<char>, std::allocator<char> >, std::basic_string<char, std::char_traits<char>, std::allocator<char> >, std::less<std::basic_string<char, std::char_traits<char>, std::allocator<char> > >, std::allocator<std::pair<const std::basic_string<char, std::char_traits<char>, std::allocator<char> >, std::basic_string<char, std::char_traits<char>, std::allocator<char> > > > > >::~pair
FUNC 2e09c 185 0 std::map<std::basic_string<char, std::char_traits<char>, std::allocator<char> >, std::map<std::basic_string<char, std::char_traits<char>, std::allocator<char> >, std::basic_string<char, std::char_traits<char>, std::allocator<char> >, std::less<std::basic_string<char, std::char_traits<char>, std::allocator<char> > >, std::allocator<std::pair<const std::basic_string<char, std::char_traits<char>, std::allocator<char> >, std::basic_string<char, std::char_traits<char>, std::allocator<char> > > > >, std::less<std::basic_string<char, std::char_traits<char>, std::allocator<char> > >, std::allocator<std::pair<const std::basic_string<char, std::char_traits<char>, std::allocator<char> >, std::map<std::basic_string<char, std::char_traits<char>, std::allocator<char> >, std::basic_string<char, std::char_traits<char>, std::allocator<char> >, std::less<std::basic_string<char, std::char_traits<char>, std::allocator<char> > >, std::allocator<std::pair<const std::basic_string<char, std::char_traits<char>, std::allocator<char> >, std::basic_string<char, std::char_traits<char>, std::allocator<char> > > > > > > >::operator[]
FUNC 2e222 34 0 std::list<std::basic_string<char, std::char_traits<char>, std::allocator<char> >, std::allocator<std::basic_string<char, std::char_traits<char>, std::allocator<char> > > >::push_back
FUNC 2e256 1a 0 std::_Rb_tree<std::basic_string<char, std::char_traits<char>, std::allocator<char> >, std::pair<const std::basic_string<char, std::char_traits<char>, std::allocator<char> >, IEC61850_STRUCT::IED_61850>, std::_Select1st<std::pair<const std::basic_string<char, std::char_traits<char>, std::allocator<char> >, IEC61850_STRUCT::IED_61850> >, std::less<std::basic_string<char, std::char_traits<char>, std::allocator<char> > >, std::allocator<std::pair<const std::basic_string<char, std::char_traits<char>, std::allocator<char> >, IEC61850_STRUCT::IED_61850> > >::_Rb_tree
FUNC 2e270 1a 0 std::allocator<std::_Rb_tree_node<std::pair<const std::basic_string<char, std::char_traits<char>, std::allocator<char> >, IEC61850_STRUCT::IED_61850> > >::~allocator
FUNC 2e28a 69 0 std::_Rb_tree<std::basic_string<char, std::char_traits<char>, std::allocator<char> >, std::pair<const std::basic_string<char, std::char_traits<char>, std::allocator<char> >, IEC61850_STRUCT::IED_61850>, std::_Select1st<std::pair<const std::basic_string<char, std::char_traits<char>, std::allocator<char> >, IEC61850_STRUCT::IED_61850> >, std::less<std::basic_string<char, std::char_traits<char>, std::allocator<char> > >, std::allocator<std::pair<const std::basic_string<char, std::char_traits<char>, std::allocator<char> >, IEC61850_STRUCT::IED_61850> > >::_M_erase
FUNC 2e2f4 12 0 std::_Rb_tree<std::basic_string<char, std::char_traits<char>, std::allocator<char> >, std::pair<const std::basic_string<char, std::char_traits<char>, std::allocator<char> >, IEC61850_STRUCT::IED_61850>, std::_Select1st<std::pair<const std::basic_string<char, std::char_traits<char>, std::allocator<char> >, IEC61850_STRUCT::IED_61850> >, std::less<std::basic_string<char, std::char_traits<char>, std::allocator<char> > >, std::allocator<std::pair<const std::basic_string<char, std::char_traits<char>, std::allocator<char> >, IEC61850_STRUCT::IED_61850> > >::_M_begin
FUNC 2e306 26 0 std::_List_base<std::basic_string<char, std::char_traits<char>, std::allocator<char> >, std::allocator<std::basic_string<char, std::char_traits<char>, std::allocator<char> > > >::_List_base
FUNC 2e32c 1a 0 std::allocator<std::_List_node<std::basic_string<char, std::char_traits<char>, std::allocator<char> > > >::~allocator
FUNC 2e346 b8 0 std::_List_base<std::basic_string<char, std::char_traits<char>, std::allocator<char> >, std::allocator<std::basic_string<char, std::char_traits<char>, std::allocator<char> > > >::_M_clear
FUNC 2e3fe 1a 0 std::_Rb_tree<std::basic_string<char, std::char_traits<char>, std::allocator<char> >, std::pair<const std::basic_string<char, std::char_traits<char>, std::allocator<char> >, std::map<int, std::map<int, IEC104WF::stPointTable, std::less<int>, std::allocator<std::pair<const int, IEC104WF::stPointTable> > >, std::less<int>, std::allocator<std::pair<const int, std::map<int, IEC104WF::stPointTable, std::less<int>, std::allocator<std::pair<const int, IEC104WF::stPointTable> > > > > > >, std::_Select1st<std::pair<const std::basic_string<char, std::char_traits<char>, std::allocator<char> >, std::map<int, std::map<int, IEC104WF::stPointTable, std::less<int>, std::allocator<std::pair<const int, IEC104WF::stPointTable> > >, std::less<int>, std::allocator<std::pair<const int, std::map<int, IEC104WF::stPointTable, std::less<int>, std::allocator<std::pair<const int, IEC104WF::stPointTable> > > > > > > >, std::less<std::basic_string<char, std::char_traits<char>, std::allocator<char> > >, std::allocator<std::pair<const std::basic_string<char, std::char_traits<char>, std::allocator<char> >, std::map<int, std::map<int, IEC104WF::stPointTable, std::less<int>, std::allocator<std::pair<const int, IEC104WF::stPointTable> > >, std::less<int>, std::allocator<std::pair<const int, std::map<int, IEC104WF::stPointTable, std::less<int>, std::allocator<std::pair<const int, IEC104WF::stPointTable> > > > > > > > >::_Rb_tree
FUNC 2e418 1a 0 std::allocator<std::_Rb_tree_node<std::pair<const std::basic_string<char, std::char_traits<char>, std::allocator<char> >, std::map<int, std::map<int, IEC104WF::stPointTable, std::less<int>, std::allocator<std::pair<const int, IEC104WF::stPointTable> > >, std::less<int>, std::allocator<std::pair<const int, std::map<int, IEC104WF::stPointTable, std::less<int>, std::allocator<std::pair<const int, IEC104WF::stPointTable> > > > > > > > >::~allocator
FUNC 2e432 69 0 std::_Rb_tree<std::basic_string<char, std::char_traits<char>, std::allocator<char> >, std::pair<const std::basic_string<char, std::char_traits<char>, std::allocator<char> >, std::map<int, std::map<int, IEC104WF::stPointTable, std::less<int>, std::allocator<std::pair<const int, IEC104WF::stPointTable> > >, std::less<int>, std::allocator<std::pair<const int, std::map<int, IEC104WF::stPointTable, std::less<int>, std::allocator<std::pair<const int, IEC104WF::stPointTable> > > > > > >, std::_Select1st<std::pair<const std::basic_string<char, std::char_traits<char>, std::allocator<char> >, std::map<int, std::map<int, IEC104WF::stPointTable, std::less<int>, std::allocator<std::pair<const int, IEC104WF::stPointTable> > >, std::less<int>, std::allocator<std::pair<const int, std::map<int, IEC104WF::stPointTable, std::less<int>, std::allocator<std::pair<const int, IEC104WF::stPointTable> > > > > > > >, std::less<std::basic_string<char, std::char_traits<char>, std::allocator<char> > >, std::allocator<std::pair<const std::basic_string<char, std::char_traits<char>, std::allocator<char> >, std::map<int, std::map<int, IEC104WF::stPointTable, std::less<int>, std::allocator<std::pair<const int, IEC104WF::stPointTable> > >, std::less<int>, std::allocator<std::pair<const int, std::map<int, IEC104WF::stPointTable, std::less<int>, std::allocator<std::pair<const int, IEC104WF::stPointTable> > > > > > > > >::_M_erase
FUNC 2e49c 12 0 std::_Rb_tree<std::basic_string<char, std::char_traits<char>, std::allocator<char> >, std::pair<const std::basic_string<char, std::char_traits<char>, std::allocator<char> >, std::map<int, std::map<int, IEC104WF::stPointTable, std::less<int>, std::allocator<std::pair<const int, IEC104WF::stPointTable> > >, std::less<int>, std::allocator<std::pair<const int, std::map<int, IEC104WF::stPointTable, std::less<int>, std::allocator<std::pair<const int, IEC104WF::stPointTable> > > > > > >, std::_Select1st<std::pair<const std::basic_string<char, std::char_traits<char>, std::allocator<char> >, std::map<int, std::map<int, IEC104WF::stPointTable, std::less<int>, std::allocator<std::pair<const int, IEC104WF::stPointTable> > >, std::less<int>, std::allocator<std::pair<const int, std::map<int, IEC104WF::stPointTable, std::less<int>, std::allocator<std::pair<const int, IEC104WF::stPointTable> > > > > > > >, std::less<std::basic_string<char, std::char_traits<char>, std::allocator<char> > >, std::allocator<std::pair<const std::basic_string<char, std::char_traits<char>, std::allocator<char> >, std::map<int, std::map<int, IEC104WF::stPointTable, std::less<int>, std::allocator<std::pair<const int, IEC104WF::stPointTable> > >, std::less<int>, std::allocator<std::pair<const int, std::map<int, IEC104WF::stPointTable, std::less<int>, std::allocator<std::pair<const int, IEC104WF::stPointTable> > > > > > > > >::_M_begin
FUNC 2e4ae 1a 0 std::_Rb_tree<int, std::pair<const int, std::map<int, IEC104WF::stPointTable, std::less<int>, std::allocator<std::pair<const int, IEC104WF::stPointTable> > > >, std::_Select1st<std::pair<const int, std::map<int, IEC104WF::stPointTable, std::less<int>, std::allocator<std::pair<const int, IEC104WF::stPointTable> > > > >, std::less<int>, std::allocator<std::pair<const int, std::map<int, IEC104WF::stPointTable, std::less<int>, std::allocator<std::pair<const int, IEC104WF::stPointTable> > > > > >::_Rb_tree
FUNC 2e4c8 1a 0 std::allocator<std::_Rb_tree_node<std::pair<const int, std::map<int, IEC104WF::stPointTable, std::less<int>, std::allocator<std::pair<const int, IEC104WF::stPointTable> > > > > >::~allocator
FUNC 2e4e2 69 0 std::_Rb_tree<int, std::pair<const int, std::map<int, IEC104WF::stPointTable, std::less<int>, std::allocator<std::pair<const int, IEC104WF::stPointTable> > > >, std::_Select1st<std::pair<const int, std::map<int, IEC104WF::stPointTable, std::less<int>, std::allocator<std::pair<const int, IEC104WF::stPointTable> > > > >, std::less<int>, std::allocator<std::pair<const int, std::map<int, IEC104WF::stPointTable, std::less<int>, std::allocator<std::pair<const int, IEC104WF::stPointTable> > > > > >::_M_erase
FUNC 2e54c 12 0 std::_Rb_tree<int, std::pair<const int, std::map<int, IEC104WF::stPointTable, std::less<int>, std::allocator<std::pair<const int, IEC104WF::stPointTable> > > >, std::_Select1st<std::pair<const int, std::map<int, IEC104WF::stPointTable, std::less<int>, std::allocator<std::pair<const int, IEC104WF::stPointTable> > > > >, std::less<int>, std::allocator<std::pair<const int, std::map<int, IEC104WF::stPointTable, std::less<int>, std::allocator<std::pair<const int, IEC104WF::stPointTable> > > > > >::_M_begin
FUNC 2e55e 1a 0 std::_Rb_tree<int, std::pair<const int, IEC104WF::stPointTable>, std::_Select1st<std::pair<const int, IEC104WF::stPointTable> >, std::less<int>, std::allocator<std::pair<const int, IEC104WF::stPointTable> > >::_Rb_tree
FUNC 2e578 1a 0 std::allocator<std::_Rb_tree_node<std::pair<const int, IEC104WF::stPointTable> > >::~allocator
FUNC 2e592 69 0 std::_Rb_tree<int, std::pair<const int, IEC104WF::stPointTable>, std::_Select1st<std::pair<const int, IEC104WF::stPointTable> >, std::less<int>, std::allocator<std::pair<const int, IEC104WF::stPointTable> > >::_M_erase
FUNC 2e5fc 12 0 std::_Rb_tree<int, std::pair<const int, IEC104WF::stPointTable>, std::_Select1st<std::pair<const int, IEC104WF::stPointTable> >, std::less<int>, std::allocator<std::pair<const int, IEC104WF::stPointTable> > >::_M_begin
FUNC 2e60e 1a 0 std::_Rb_tree<std::basic_string<char, std::char_traits<char>, std::allocator<char> >, std::pair<const std::basic_string<char, std::char_traits<char>, std::allocator<char> >, IEC103::stConfigParam>, std::_Select1st<std::pair<const std::basic_string<char, std::char_traits<char>, std::allocator<char> >, IEC103::stConfigParam> >, std::less<std::basic_string<char, std::char_traits<char>, std::allocator<char> > >, std::allocator<std::pair<const std::basic_string<char, std::char_traits<char>, std::allocator<char> >, IEC103::stConfigParam> > >::_Rb_tree
FUNC 2e628 1a 0 std::allocator<std::_Rb_tree_node<std::pair<const std::basic_string<char, std::char_traits<char>, std::allocator<char> >, IEC103::stConfigParam> > >::~allocator
FUNC 2e642 69 0 std::_Rb_tree<std::basic_string<char, std::char_traits<char>, std::allocator<char> >, std::pair<const std::basic_string<char, std::char_traits<char>, std::allocator<char> >, IEC103::stConfigParam>, std::_Select1st<std::pair<const std::basic_string<char, std::char_traits<char>, std::allocator<char> >, IEC103::stConfigParam> >, std::less<std::basic_string<char, std::char_traits<char>, std::allocator<char> > >, std::allocator<std::pair<const std::basic_string<char, std::char_traits<char>, std::allocator<char> >, IEC103::stConfigParam> > >::_M_erase
FUNC 2e6ac 12 0 std::_Rb_tree<std::basic_string<char, std::char_traits<char>, std::allocator<char> >, std::pair<const std::basic_string<char, std::char_traits<char>, std::allocator<char> >, IEC103::stConfigParam>, std::_Select1st<std::pair<const std::basic_string<char, std::char_traits<char>, std::allocator<char> >, IEC103::stConfigParam> >, std::less<std::basic_string<char, std::char_traits<char>, std::allocator<char> > >, std::allocator<std::pair<const std::basic_string<char, std::char_traits<char>, std::allocator<char> >, IEC103::stConfigParam> > >::_M_begin
FUNC 2e6be 1a 0 std::_Rb_tree<std::basic_string<char, std::char_traits<char>, std::allocator<char> >, std::pair<const std::basic_string<char, std::char_traits<char>, std::allocator<char> >, std::map<std::basic_string<char, std::char_traits<char>, std::allocator<char> >, std::basic_string<char, std::char_traits<char>, std::allocator<char> >, std::less<std::basic_string<char, std::char_traits<char>, std::allocator<char> > >, std::allocator<std::pair<const std::basic_string<char, std::char_traits<char>, std::allocator<char> >, std::basic_string<char, std::char_traits<char>, std::allocator<char> > > > > >, std::_Select1st<std::pair<const std::basic_string<char, std::char_traits<char>, std::allocator<char> >, std::map<std::basic_string<char, std::char_traits<char>, std::allocator<char> >, std::basic_string<char, std::char_traits<char>, std::allocator<char> >, std::less<std::basic_string<char, std::char_traits<char>, std::allocator<char> > >, std::allocator<std::pair<const std::basic_string<char, std::char_traits<char>, std::allocator<char> >, std::basic_string<char, std::char_traits<char>, std::allocator<char> > > > > > >, std::less<std::basic_string<char, std::char_traits<char>, std::allocator<char> > >, std::allocator<std::pair<const std::basic_string<char, std::char_traits<char>, std::allocator<char> >, std::map<std::basic_string<char, std::char_traits<char>, std::allocator<char> >, std::basic_string<char, std::char_traits<char>, std::allocator<char> >, std::less<std::basic_string<char, std::char_traits<char>, std::allocator<char> > >, std::allocator<std::pair<const std::basic_string<char, std::char_traits<char>, std::allocator<char> >, std::basic_string<char, std::char_traits<char>, std::allocator<char> > > > > > > >::_Rb_tree
FUNC 2e6d8 1a 0 std::allocator<std::_Rb_tree_node<std::pair<const std::basic_string<char, std::char_traits<char>, std::allocator<char> >, std::map<std::basic_string<char, std::char_traits<char>, std::allocator<char> >, std::basic_string<char, std::char_traits<char>, std::allocator<char> >, std::less<std::basic_string<char, std::char_traits<char>, std::allocator<char> > >, std::allocator<std::pair<const std::basic_string<char, std::char_traits<char>, std::allocator<char> >, std::basic_string<char, std::char_traits<char>, std::allocator<char> > > > > > > >::~allocator
FUNC 2e6f2 69 0 std::_Rb_tree<std::basic_string<char, std::char_traits<char>, std::allocator<char> >, std::pair<const std::basic_string<char, std::char_traits<char>, std::allocator<char> >, std::map<std::basic_string<char, std::char_traits<char>, std::allocator<char> >, std::basic_string<char, std::char_traits<char>, std::allocator<char> >, std::less<std::basic_string<char, std::char_traits<char>, std::allocator<char> > >, std::allocator<std::pair<const std::basic_string<char, std::char_traits<char>, std::allocator<char> >, std::basic_string<char, std::char_traits<char>, std::allocator<char> > > > > >, std::_Select1st<std::pair<const std::basic_string<char, std::char_traits<char>, std::allocator<char> >, std::map<std::basic_string<char, std::char_traits<char>, std::allocator<char> >, std::basic_string<char, std::char_traits<char>, std::allocator<char> >, std::less<std::basic_string<char, std::char_traits<char>, std::allocator<char> > >, std::allocator<std::pair<const std::basic_string<char, std::char_traits<char>, std::allocator<char> >, std::basic_string<char, std::char_traits<char>, std::allocator<char> > > > > > >, std::less<std::basic_string<char, std::char_traits<char>, std::allocator<char> > >, std::allocator<std::pair<const std::basic_string<char, std::char_traits<char>, std::allocator<char> >, std::map<std::basic_string<char, std::char_traits<char>, std::allocator<char> >, std::basic_string<char, std::char_traits<char>, std::allocator<char> >, std::less<std::basic_string<char, std::char_traits<char>, std::allocator<char> > >, std::allocator<std::pair<const std::basic_string<char, std::char_traits<char>, std::allocator<char> >, std::basic_string<char, std::char_traits<char>, std::allocator<char> > > > > > > >::_M_erase
FUNC 2e75c 12 0 std::_Rb_tree<std::basic_string<char, std::char_traits<char>, std::allocator<char> >, std::pair<const std::basic_string<char, std::char_traits<char>, std::allocator<char> >, std::map<std::basic_string<char, std::char_traits<char>, std::allocator<char> >, std::basic_string<char, std::char_traits<char>, std::allocator<char> >, std::less<std::basic_string<char, std::char_traits<char>, std::allocator<char> > >, std::allocator<std::pair<const std::basic_string<char, std::char_traits<char>, std::allocator<char> >, std::basic_string<char, std::char_traits<char>, std::allocator<char> > > > > >, std::_Select1st<std::pair<const std::basic_string<char, std::char_traits<char>, std::allocator<char> >, std::map<std::basic_string<char, std::char_traits<char>, std::allocator<char> >, std::basic_string<char, std::char_traits<char>, std::allocator<char> >, std::less<std::basic_string<char, std::char_traits<char>, std::allocator<char> > >, std::allocator<std::pair<const std::basic_string<char, std::char_traits<char>, std::allocator<char> >, std::basic_string<char, std::char_traits<char>, std::allocator<char> > > > > > >, std::less<std::basic_string<char, std::char_traits<char>, std::allocator<char> > >, std::allocator<std::pair<const std::basic_string<char, std::char_traits<char>, std::allocator<char> >, std::map<std::basic_string<char, std::char_traits<char>, std::allocator<char> >, std::basic_string<char, std::char_traits<char>, std::allocator<char> >, std::less<std::basic_string<char, std::char_traits<char>, std::allocator<char> > >, std::allocator<std::pair<const std::basic_string<char, std::char_traits<char>, std::allocator<char> >, std::basic_string<char, std::char_traits<char>, std::allocator<char> > > > > > > >::_M_begin
FUNC 2e76e 96 0 std::_Vector_base<std::basic_string<char, std::char_traits<char>, std::allocator<char> >, std::allocator<std::basic_string<char, std::char_traits<char>, std::allocator<char> > > >::_Vector_base
FUNC 2e804 8d 0 std::_Rb_tree<std::basic_string<char, std::char_traits<char>, std::allocator<char> >, std::pair<const std::basic_string<char, std::char_traits<char>, std::allocator<char> >, IEC61850_STRUCT::IED_61850>, std::_Select1st<std::pair<const std::basic_string<char, std::char_traits<char>, std::allocator<char> >, IEC61850_STRUCT::IED_61850> >, std::less<std::basic_string<char, std::char_traits<char>, std::allocator<char> > >, std::allocator<std::pair<const std::basic_string<char, std::char_traits<char>, std::allocator<char> >, IEC61850_STRUCT::IED_61850> > >::clear
FUNC 2e892 11d 0 std::_Rb_tree<std::basic_string<char, std::char_traits<char>, std::allocator<char> >, std::pair<const std::basic_string<char, std::char_traits<char>, std::allocator<char> >, IEC61850_STRUCT::IED_61850>, std::_Select1st<std::pair<const std::basic_string<char, std::char_traits<char>, std::allocator<char> >, IEC61850_STRUCT::IED_61850> >, std::less<std::basic_string<char, std::char_traits<char>, std::allocator<char> > >, std::allocator<std::pair<const std::basic_string<char, std::char_traits<char>, std::allocator<char> >, IEC61850_STRUCT::IED_61850> > >::_Rb_tree
FUNC 2e9b0 8d 0 std::_Rb_tree<std::basic_string<char, std::char_traits<char>, std::allocator<char> >, std::pair<const std::basic_string<char, std::char_traits<char>, std::allocator<char> >, IEC103::stConfigParam>, std::_Select1st<std::pair<const std::basic_string<char, std::char_traits<char>, std::allocator<char> >, IEC103::stConfigParam> >, std::less<std::basic_string<char, std::char_traits<char>, std::allocator<char> > >, std::allocator<std::pair<const std::basic_string<char, std::char_traits<char>, std::allocator<char> >, IEC103::stConfigParam> > >::clear
FUNC 2ea3e 8d 0 std::_Rb_tree<std::basic_string<char, std::char_traits<char>, std::allocator<char> >, std::pair<const std::basic_string<char, std::char_traits<char>, std::allocator<char> >, std::map<std::basic_string<char, std::char_traits<char>, std::allocator<char> >, std::basic_string<char, std::char_traits<char>, std::allocator<char> >, std::less<std::basic_string<char, std::char_traits<char>, std::allocator<char> > >, std::allocator<std::pair<const std::basic_string<char, std::char_traits<char>, std::allocator<char> >, std::basic_string<char, std::char_traits<char>, std::allocator<char> > > > > >, std::_Select1st<std::pair<const std::basic_string<char, std::char_traits<char>, std::allocator<char> >, std::map<std::basic_string<char, std::char_traits<char>, std::allocator<char> >, std::basic_string<char, std::char_traits<char>, std::allocator<char> >, std::less<std::basic_string<char, std::char_traits<char>, std::allocator<char> > >, std::allocator<std::pair<const std::basic_string<char, std::char_traits<char>, std::allocator<char> >, std::basic_string<char, std::char_traits<char>, std::allocator<char> > > > > > >, std::less<std::basic_string<char, std::char_traits<char>, std::allocator<char> > >, std::allocator<std::pair<const std::basic_string<char, std::char_traits<char>, std::allocator<char> >, std::map<std::basic_string<char, std::char_traits<char>, std::allocator<char> >, std::basic_string<char, std::char_traits<char>, std::allocator<char> >, std::less<std::basic_string<char, std::char_traits<char>, std::allocator<char> > >, std::allocator<std::pair<const std::basic_string<char, std::char_traits<char>, std::allocator<char> >, std::basic_string<char, std::char_traits<char>, std::allocator<char> > > > > > > >::clear
FUNC 2eacc 11d 0 std::_Rb_tree<std::basic_string<char, std::char_traits<char>, std::allocator<char> >, std::pair<const std::basic_string<char, std::char_traits<char>, std::allocator<char> >, IEC103::stConfigParam>, std::_Select1st<std::pair<const std::basic_string<char, std::char_traits<char>, std::allocator<char> >, IEC103::stConfigParam> >, std::less<std::basic_string<char, std::char_traits<char>, std::allocator<char> > >, std::allocator<std::pair<const std::basic_string<char, std::char_traits<char>, std::allocator<char> >, IEC103::stConfigParam> > >::_Rb_tree
FUNC 2ebea 11d 0 std::_Rb_tree<std::basic_string<char, std::char_traits<char>, std::allocator<char> >, std::pair<const std::basic_string<char, std::char_traits<char>, std::allocator<char> >, std::map<std::basic_string<char, std::char_traits<char>, std::allocator<char> >, std::basic_string<char, std::char_traits<char>, std::allocator<char> >, std::less<std::basic_string<char, std::char_traits<char>, std::allocator<char> > >, std::allocator<std::pair<const std::basic_string<char, std::char_traits<char>, std::allocator<char> >, std::basic_string<char, std::char_traits<char>, std::allocator<char> > > > > >, std::_Select1st<std::pair<const std::basic_string<char, std::char_traits<char>, std::allocator<char> >, std::map<std::basic_string<char, std::char_traits<char>, std::allocator<char> >, std::basic_string<char, std::char_traits<char>, std::allocator<char> >, std::less<std::basic_string<char, std::char_traits<char>, std::allocator<char> > >, std::allocator<std::pair<const std::basic_string<char, std::char_traits<char>, std::allocator<char> >, std::basic_string<char, std::char_traits<char>, std::allocator<char> > > > > > >, std::less<std::basic_string<char, std::char_traits<char>, std::allocator<char> > >, std::allocator<std::pair<const std::basic_string<char, std::char_traits<char>, std::allocator<char> >, std::map<std::basic_string<char, std::char_traits<char>, std::allocator<char> >, std::basic_string<char, std::char_traits<char>, std::allocator<char> >, std::less<std::basic_string<char, std::char_traits<char>, std::allocator<char> > >, std::allocator<std::pair<const std::basic_string<char, std::char_traits<char>, std::allocator<char> >, std::basic_string<char, std::char_traits<char>, std::allocator<char> > > > > > > >::_Rb_tree
FUNC 2ed08 8d 0 std::_Rb_tree<std::basic_string<char, std::char_traits<char>, std::allocator<char> >, std::pair<const std::basic_string<char, std::char_traits<char>, std::allocator<char> >, std::map<int, std::map<int, IEC104WF::stPointTable, std::less<int>, std::allocator<std::pair<const int, IEC104WF::stPointTable> > >, std::less<int>, std::allocator<std::pair<const int, std::map<int, IEC104WF::stPointTable, std::less<int>, std::allocator<std::pair<const int, IEC104WF::stPointTable> > > > > > >, std::_Select1st<std::pair<const std::basic_string<char, std::char_traits<char>, std::allocator<char> >, std::map<int, std::map<int, IEC104WF::stPointTable, std::less<int>, std::allocator<std::pair<const int, IEC104WF::stPointTable> > >, std::less<int>, std::allocator<std::pair<const int, std::map<int, IEC104WF::stPointTable, std::less<int>, std::allocator<std::pair<const int, IEC104WF::stPointTable> > > > > > > >, std::less<std::basic_string<char, std::char_traits<char>, std::allocator<char> > >, std::allocator<std::pair<const std::basic_string<char, std::char_traits<char>, std::allocator<char> >, std::map<int, std::map<int, IEC104WF::stPointTable, std::less<int>, std::allocator<std::pair<const int, IEC104WF::stPointTable> > >, std::less<int>, std::allocator<std::pair<const int, std::map<int, IEC104WF::stPointTable, std::less<int>, std::allocator<std::pair<const int, IEC104WF::stPointTable> > > > > > > > >::clear
FUNC 2ed96 8d 0 std::_Rb_tree<int, std::pair<const int, std::map<int, IEC104WF::stPointTable, std::less<int>, std::allocator<std::pair<const int, IEC104WF::stPointTable> > > >, std::_Select1st<std::pair<const int, std::map<int, IEC104WF::stPointTable, std::less<int>, std::allocator<std::pair<const int, IEC104WF::stPointTable> > > > >, std::less<int>, std::allocator<std::pair<const int, std::map<int, IEC104WF::stPointTable, std::less<int>, std::allocator<std::pair<const int, IEC104WF::stPointTable> > > > > >::clear
FUNC 2ee24 8d 0 std::_Rb_tree<int, std::pair<const int, IEC104WF::stPointTable>, std::_Select1st<std::pair<const int, IEC104WF::stPointTable> >, std::less<int>, std::allocator<std::pair<const int, IEC104WF::stPointTable> > >::clear
FUNC 2eeb2 11d 0 std::_Rb_tree<std::basic_string<char, std::char_traits<char>, std::allocator<char> >, std::pair<const std::basic_string<char, std::char_traits<char>, std::allocator<char> >, std::map<int, std::map<int, IEC104WF::stPointTable, std::less<int>, std::allocator<std::pair<const int, IEC104WF::stPointTable> > >, std::less<int>, std::allocator<std::pair<const int, std::map<int, IEC104WF::stPointTable, std::less<int>, std::allocator<std::pair<const int, IEC104WF::stPointTable> > > > > > >, std::_Select1st<std::pair<const std::basic_string<char, std::char_traits<char>, std::allocator<char> >, std::map<int, std::map<int, IEC104WF::stPointTable, std::less<int>, std::allocator<std::pair<const int, IEC104WF::stPointTable> > >, std::less<int>, std::allocator<std::pair<const int, std::map<int, IEC104WF::stPointTable, std::less<int>, std::allocator<std::pair<const int, IEC104WF::stPointTable> > > > > > > >, std::less<std::basic_string<char, std::char_traits<char>, std::allocator<char> > >, std::allocator<std::pair<const std::basic_string<char, std::char_traits<char>, std::allocator<char> >, std::map<int, std::map<int, IEC104WF::stPointTable, std::less<int>, std::allocator<std::pair<const int, IEC104WF::stPointTable> > >, std::less<int>, std::allocator<std::pair<const int, std::map<int, IEC104WF::stPointTable, std::less<int>, std::allocator<std::pair<const int, IEC104WF::stPointTable> > > > > > > > >::_Rb_tree
FUNC 2efd0 21 0 std::_List_base<std::basic_string<char, std::char_traits<char>, std::allocator<char> >, std::allocator<std::basic_string<char, std::char_traits<char>, std::allocator<char> > > >::_M_init
FUNC 2eff2 e 0 std::_List_base<std::basic_string<char, std::char_traits<char>, std::allocator<char> >, std::allocator<std::basic_string<char, std::char_traits<char>, std::allocator<char> > > >::_M_get_Node_allocator
FUNC 2f000 1e 0 std::allocator<std::basic_string<char, std::char_traits<char>, std::allocator<char> > >::allocator<std::_List_node<std::basic_string<char, std::char_traits<char>, std::allocator<char> > > >
FUNC 2f01e 50 0 std::_List_base<std::basic_string<char, std::char_traits<char>, std::allocator<char> >, std::allocator<std::basic_string<char, std::char_traits<char>, std::allocator<char> > > >::_List_base
FUNC 2f06e 28 0 std::list<std::basic_string<char, std::char_traits<char>, std::allocator<char> >, std::allocator<std::basic_string<char, std::char_traits<char>, std::allocator<char> > > >::begin
FUNC 2f096 25 0 std::list<std::basic_string<char, std::char_traits<char>, std::allocator<char> >, std::allocator<std::basic_string<char, std::char_traits<char>, std::allocator<char> > > >::end
FUNC 2f0bc 59 0 std::list<std::basic_string<char, std::char_traits<char>, std::allocator<char> >, std::allocator<std::basic_string<char, std::char_traits<char>, std::allocator<char> > > >::_M_initialize_dispatch<std::_List_const_iterator<std::basic_string<char, std::char_traits<char>, std::allocator<char> > > >
FUNC 2f116 25 0 std::map<std::basic_string<char, std::char_traits<char>, std::allocator<char> >, IEC61850_STRUCT::IED_61850, std::less<std::basic_string<char, std::char_traits<char>, std::allocator<char> > >, std::allocator<std::pair<const std::basic_string<char, std::char_traits<char>, std::allocator<char> >, IEC61850_STRUCT::IED_61850> > >::lower_bound
FUNC 2f13c 1a 0 std::map<std::basic_string<char, std::char_traits<char>, std::allocator<char> >, IEC61850_STRUCT::IED_61850, std::less<std::basic_string<char, std::char_traits<char>, std::allocator<char> > >, std::allocator<std::pair<const std::basic_string<char, std::char_traits<char>, std::allocator<char> >, IEC61850_STRUCT::IED_61850> > >::key_comp
FUNC 2f156 15 0 std::_Rb_tree_iterator<std::pair<const std::basic_string<char, std::char_traits<char>, std::allocator<char> >, IEC61850_STRUCT::IED_61850> >::operator*
FUNC 2f16c 1a 0 std::map<std::basic_string<char, std::char_traits<char>, std::allocator<char> >, IEC61850_STRUCT::IED_61850, std::less<std::basic_string<char, std::char_traits<char>, std::allocator<char> > >, std::allocator<std::pair<const std::basic_string<char, std::char_traits<char>, std::allocator<char> >, IEC61850_STRUCT::IED_61850> > >::end
FUNC 2f186 22 0 std::_Rb_tree_iterator<std::pair<const std::basic_string<char, std::char_traits<char>, std::allocator<char> >, IEC61850_STRUCT::IED_61850> >::operator==
FUNC 2f1a8 1dc 0 IEC61850_STRUCT::IED_61850::IED_61850
FUNC 2f384 6b 0 std::pair<const std::basic_string<char, std::char_traits<char>, std::allocator<char> >, IEC61850_STRUCT::IED_61850>::pair
FUNC 2f3f0 40 0 std::map<std::basic_string<char, std::char_traits<char>, std::allocator<char> >, IEC61850_STRUCT::IED_61850, std::less<std::basic_string<char, std::char_traits<char>, std::allocator<char> > >, std::allocator<std::pair<const std::basic_string<char, std::char_traits<char>, std::allocator<char> >, IEC61850_STRUCT::IED_61850> > >::insert
FUNC 2f430 25 0 std::map<int, IEC104WF::stPointTable, std::less<int>, std::allocator<std::pair<const int, IEC104WF::stPointTable> > >::lower_bound
FUNC 2f456 1a 0 std::map<int, IEC104WF::stPointTable, std::less<int>, std::allocator<std::pair<const int, IEC104WF::stPointTable> > >::key_comp
FUNC 2f470 15 0 std::_Rb_tree_iterator<std::pair<const int, IEC104WF::stPointTable> >::operator*
FUNC 2f486 23 0 std::less<int>::operator()
FUNC 2f4aa 1a 0 std::map<int, IEC104WF::stPointTable, std::less<int>, std::allocator<std::pair<const int, IEC104WF::stPointTable> > >::end
FUNC 2f4c4 22 0 std::_Rb_tree_iterator<std::pair<const int, IEC104WF::stPointTable> >::operator==
FUNC 2f4e6 41 0 IEC104WF::stPointTable::stPointTable
FUNC 2f528 39 0 std::pair<const int, IEC104WF::stPointTable>::pair
FUNC 2f562 40 0 std::map<int, IEC104WF::stPointTable, std::less<int>, std::allocator<std::pair<const int, IEC104WF::stPointTable> > >::insert
FUNC 2f5a2 25 0 std::map<int, std::map<int, IEC104WF::stPointTable, std::less<int>, std::allocator<std::pair<const int, IEC104WF::stPointTable> > >, std::less<int>, std::allocator<std::pair<const int, std::map<int, IEC104WF::stPointTable, std::less<int>, std::allocator<std::pair<const int, IEC104WF::stPointTable> > > > > >::lower_bound
FUNC 2f5c8 1a 0 std::map<int, std::map<int, IEC104WF::stPointTable, std::less<int>, std::allocator<std::pair<const int, IEC104WF::stPointTable> > >, std::less<int>, std::allocator<std::pair<const int, std::map<int, IEC104WF::stPointTable, std::less<int>, std::allocator<std::pair<const int, IEC104WF::stPointTable> > > > > >::key_comp
FUNC 2f5e2 15 0 std::_Rb_tree_iterator<std::pair<const int, std::map<int, IEC104WF::stPointTable, std::less<int>, std::allocator<std::pair<const int, IEC104WF::stPointTable> > > > >::operator*
FUNC 2f5f8 1a 0 std::map<int, std::map<int, IEC104WF::stPointTable, std::less<int>, std::allocator<std::pair<const int, IEC104WF::stPointTable> > >, std::less<int>, std::allocator<std::pair<const int, std::map<int, IEC104WF::stPointTable, std::less<int>, std::allocator<std::pair<const int, IEC104WF::stPointTable> > > > > >::end
FUNC 2f612 22 0 std::_Rb_tree_iterator<std::pair<const int, std::map<int, IEC104WF::stPointTable, std::less<int>, std::allocator<std::pair<const int, IEC104WF::stPointTable> > > > >::operator==
FUNC 2f634 39 0 std::pair<const int, std::map<int, IEC104WF::stPointTable, std::less<int>, std::allocator<std::pair<const int, IEC104WF::stPointTable> > > >::pair
FUNC 2f66e 40 0 std::map<int, std::map<int, IEC104WF::stPointTable, std::less<int>, std::allocator<std::pair<const int, IEC104WF::stPointTable> > >, std::less<int>, std::allocator<std::pair<const int, std::map<int, IEC104WF::stPointTable, std::less<int>, std::allocator<std::pair<const int, IEC104WF::stPointTable> > > > > >::insert
FUNC 2f6ae f8 0 std::_Rb_tree<int, std::pair<const int, IEC104WF::stPointTable>, std::_Select1st<std::pair<const int, IEC104WF::stPointTable> >, std::less<int>, std::allocator<std::pair<const int, IEC104WF::stPointTable> > >::operator=
FUNC 2f7a6 25 0 std::map<std::basic_string<char, std::char_traits<char>, std::allocator<char> >, std::map<int, std::map<int, IEC104WF::stPointTable, std::less<int>, std::allocator<std::pair<const int, IEC104WF::stPointTable> > >, std::less<int>, std::allocator<std::pair<const int, std::map<int, IEC104WF::stPointTable, std::less<int>, std::allocator<std::pair<const int, IEC104WF::stPointTable> > > > > >, std::less<std::basic_string<char, std::char_traits<char>, std::allocator<char> > >, std::allocator<std::pair<const std::basic_string<char, std::char_traits<char>, std::allocator<char> >, std::map<int, std::map<int, IEC104WF::stPointTable, std::less<int>, std::allocator<std::pair<const int, IEC104WF::stPointTable> > >, std::less<int>, std::allocator<std::pair<const int, std::map<int, IEC104WF::stPointTable, std::less<int>, std::allocator<std::pair<const int, IEC104WF::stPointTable> > > > > > > > >::lower_bound
FUNC 2f7cc 1a 0 std::map<std::basic_string<char, std::char_traits<char>, std::allocator<char> >, std::map<int, std::map<int, IEC104WF::stPointTable, std::less<int>, std::allocator<std::pair<const int, IEC104WF::stPointTable> > >, std::less<int>, std::allocator<std::pair<const int, std::map<int, IEC104WF::stPointTable, std::less<int>, std::allocator<std::pair<const int, IEC104WF::stPointTable> > > > > >, std::less<std::basic_string<char, std::char_traits<char>, std::allocator<char> > >, std::allocator<std::pair<const std::basic_string<char, std::char_traits<char>, std::allocator<char> >, std::map<int, std::map<int, IEC104WF::stPointTable, std::less<int>, std::allocator<std::pair<const int, IEC104WF::stPointTable> > >, std::less<int>, std::allocator<std::pair<const int, std::map<int, IEC104WF::stPointTable, std::less<int>, std::allocator<std::pair<const int, IEC104WF::stPointTable> > > > > > > > >::key_comp
FUNC 2f7e6 15 0 std::_Rb_tree_iterator<std::pair<const std::basic_string<char, std::char_traits<char>, std::allocator<char> >, std::map<int, std::map<int, IEC104WF::stPointTable, std::less<int>, std::allocator<std::pair<const int, IEC104WF::stPointTable> > >, std::less<int>, std::allocator<std::pair<const int, std::map<int, IEC104WF::stPointTable, std::less<int>, std::allocator<std::pair<const int, IEC104WF::stPointTable> > > > > > > >::operator*
FUNC 2f7fc 1a 0 std::map<std::basic_string<char, std::char_traits<char>, std::allocator<char> >, std::map<int, std::map<int, IEC104WF::stPointTable, std::less<int>, std::allocator<std::pair<const int, IEC104WF::stPointTable> > >, std::less<int>, std::allocator<std::pair<const int, std::map<int, IEC104WF::stPointTable, std::less<int>, std::allocator<std::pair<const int, IEC104WF::stPointTable> > > > > >, std::less<std::basic_string<char, std::char_traits<char>, std::allocator<char> > >, std::allocator<std::pair<const std::basic_string<char, std::char_traits<char>, std::allocator<char> >, std::map<int, std::map<int, IEC104WF::stPointTable, std::less<int>, std::allocator<std::pair<const int, IEC104WF::stPointTable> > >, std::less<int>, std::allocator<std::pair<const int, std::map<int, IEC104WF::stPointTable, std::less<int>, std::allocator<std::pair<const int, IEC104WF::stPointTable> > > > > > > > >::end
FUNC 2f816 22 0 std::_Rb_tree_iterator<std::pair<const std::basic_string<char, std::char_traits<char>, std::allocator<char> >, std::map<int, std::map<int, IEC104WF::stPointTable, std::less<int>, std::allocator<std::pair<const int, IEC104WF::stPointTable> > >, std::less<int>, std::allocator<std::pair<const int, std::map<int, IEC104WF::stPointTable, std::less<int>, std::allocator<std::pair<const int, IEC104WF::stPointTable> > > > > > > >::operator==
FUNC 2f838 6b 0 std::pair<const std::basic_string<char, std::char_traits<char>, std::allocator<char> >, std::map<int, std::map<int, IEC104WF::stPointTable, std::less<int>, std::allocator<std::pair<const int, IEC104WF::stPointTable> > >, std::less<int>, std::allocator<std::pair<const int, std::map<int, IEC104WF::stPointTable, std::less<int>, std::allocator<std::pair<const int, IEC104WF::stPointTable> > > > > > >::pair
FUNC 2f8a4 40 0 std::map<std::basic_string<char, std::char_traits<char>, std::allocator<char> >, std::map<int, std::map<int, IEC104WF::stPointTable, std::less<int>, std::allocator<std::pair<const int, IEC104WF::stPointTable> > >, std::less<int>, std::allocator<std::pair<const int, std::map<int, IEC104WF::stPointTable, std::less<int>, std::allocator<std::pair<const int, IEC104WF::stPointTable> > > > > >, std::less<std::basic_string<char, std::char_traits<char>, std::allocator<char> > >, std::allocator<std::pair<const std::basic_string<char, std::char_traits<char>, std::allocator<char> >, std::map<int, std::map<int, IEC104WF::stPointTable, std::less<int>, std::allocator<std::pair<const int, IEC104WF::stPointTable> > >, std::less<int>, std::allocator<std::pair<const int, std::map<int, IEC104WF::stPointTable, std::less<int>, std::allocator<std::pair<const int, IEC104WF::stPointTable> > > > > > > > >::insert
FUNC 2f8e4 f8 0 std::_Rb_tree<int, std::pair<const int, std::map<int, IEC104WF::stPointTable, std::less<int>, std::allocator<std::pair<const int, IEC104WF::stPointTable> > > >, std::_Select1st<std::pair<const int, std::map<int, IEC104WF::stPointTable, std::less<int>, std::allocator<std::pair<const int, IEC104WF::stPointTable> > > > >, std::less<int>, std::allocator<std::pair<const int, std::map<int, IEC104WF::stPointTable, std::less<int>, std::allocator<std::pair<const int, IEC104WF::stPointTable> > > > > >::operator=
FUNC 2f9dc 25 0 std::map<std::basic_string<char, std::char_traits<char>, std::allocator<char> >, IEC103::stConfigParam, std::less<std::basic_string<char, std::char_traits<char>, std::allocator<char> > >, std::allocator<std::pair<const std::basic_string<char, std::char_traits<char>, std::allocator<char> >, IEC103::stConfigParam> > >::lower_bound
FUNC 2fa02 1a 0 std::map<std::basic_string<char, std::char_traits<char>, std::allocator<char> >, IEC103::stConfigParam, std::less<std::basic_string<char, std::char_traits<char>, std::allocator<char> > >, std::allocator<std::pair<const std::basic_string<char, std::char_traits<char>, std::allocator<char> >, IEC103::stConfigParam> > >::key_comp
FUNC 2fa1c 15 0 std::_Rb_tree_iterator<std::pair<const std::basic_string<char, std::char_traits<char>, std::allocator<char> >, IEC103::stConfigParam> >::operator*
FUNC 2fa32 1a 0 std::map<std::basic_string<char, std::char_traits<char>, std::allocator<char> >, IEC103::stConfigParam, std::less<std::basic_string<char, std::char_traits<char>, std::allocator<char> > >, std::allocator<std::pair<const std::basic_string<char, std::char_traits<char>, std::allocator<char> >, IEC103::stConfigParam> > >::end
FUNC 2fa4c 22 0 std::_Rb_tree_iterator<std::pair<const std::basic_string<char, std::char_traits<char>, std::allocator<char> >, IEC103::stConfigParam> >::operator==
FUNC 2fa6e bf 0 IEC103::stConfigParam::stConfigParam
FUNC 2fb2e 6b 0 std::pair<const std::basic_string<char, std::char_traits<char>, std::allocator<char> >, IEC103::stConfigParam>::pair
FUNC 2fb9a 40 0 std::map<std::basic_string<char, std::char_traits<char>, std::allocator<char> >, IEC103::stConfigParam, std::less<std::basic_string<char, std::char_traits<char>, std::allocator<char> > >, std::allocator<std::pair<const std::basic_string<char, std::char_traits<char>, std::allocator<char> >, IEC103::stConfigParam> > >::insert
FUNC 2fbda 25 0 std::map<std::basic_string<char, std::char_traits<char>, std::allocator<char> >, std::map<std::basic_string<char, std::char_traits<char>, std::allocator<char> >, std::basic_string<char, std::char_traits<char>, std::allocator<char> >, std::less<std::basic_string<char, std::char_traits<char>, std::allocator<char> > >, std::allocator<std::pair<const std::basic_string<char, std::char_traits<char>, std::allocator<char> >, std::basic_string<char, std::char_traits<char>, std::allocator<char> > > > >, std::less<std::basic_string<char, std::char_traits<char>, std::allocator<char> > >, std::allocator<std::pair<const std::basic_string<char, std::char_traits<char>, std::allocator<char> >, std::map<std::basic_string<char, std::char_traits<char>, std::allocator<char> >, std::basic_string<char, std::char_traits<char>, std::allocator<char> >, std::less<std::basic_string<char, std::char_traits<char>, std::allocator<char> > >, std::allocator<std::pair<const std::basic_string<char, std::char_traits<char>, std::allocator<char> >, std::basic_string<char, std::char_traits<char>, std::allocator<char> > > > > > > >::lower_bound
FUNC 2fc00 1a 0 std::map<std::basic_string<char, std::char_traits<char>, std::allocator<char> >, std::map<std::basic_string<char, std::char_traits<char>, std::allocator<char> >, std::basic_string<char, std::char_traits<char>, std::allocator<char> >, std::less<std::basic_string<char, std::char_traits<char>, std::allocator<char> > >, std::allocator<std::pair<const std::basic_string<char, std::char_traits<char>, std::allocator<char> >, std::basic_string<char, std::char_traits<char>, std::allocator<char> > > > >, std::less<std::basic_string<char, std::char_traits<char>, std::allocator<char> > >, std::allocator<std::pair<const std::basic_string<char, std::char_traits<char>, std::allocator<char> >, std::map<std::basic_string<char, std::char_traits<char>, std::allocator<char> >, std::basic_string<char, std::char_traits<char>, std::allocator<char> >, std::less<std::basic_string<char, std::char_traits<char>, std::allocator<char> > >, std::allocator<std::pair<const std::basic_string<char, std::char_traits<char>, std::allocator<char> >, std::basic_string<char, std::char_traits<char>, std::allocator<char> > > > > > > >::key_comp
FUNC 2fc1a 15 0 std::_Rb_tree_iterator<std::pair<const std::basic_string<char, std::char_traits<char>, std::allocator<char> >, std::map<std::basic_string<char, std::char_traits<char>, std::allocator<char> >, std::basic_string<char, std::char_traits<char>, std::allocator<char> >, std::less<std::basic_string<char, std::char_traits<char>, std::allocator<char> > >, std::allocator<std::pair<const std::basic_string<char, std::char_traits<char>, std::allocator<char> >, std::basic_string<char, std::char_traits<char>, std::allocator<char> > > > > > >::operator*
FUNC 2fc30 1a 0 std::map<std::basic_string<char, std::char_traits<char>, std::allocator<char> >, std::map<std::basic_string<char, std::char_traits<char>, std::allocator<char> >, std::basic_string<char, std::char_traits<char>, std::allocator<char> >, std::less<std::basic_string<char, std::char_traits<char>, std::allocator<char> > >, std::allocator<std::pair<const std::basic_string<char, std::char_traits<char>, std::allocator<char> >, std::basic_string<char, std::char_traits<char>, std::allocator<char> > > > >, std::less<std::basic_string<char, std::char_traits<char>, std::allocator<char> > >, std::allocator<std::pair<const std::basic_string<char, std::char_traits<char>, std::allocator<char> >, std::map<std::basic_string<char, std::char_traits<char>, std::allocator<char> >, std::basic_string<char, std::char_traits<char>, std::allocator<char> >, std::less<std::basic_string<char, std::char_traits<char>, std::allocator<char> > >, std::allocator<std::pair<const std::basic_string<char, std::char_traits<char>, std::allocator<char> >, std::basic_string<char, std::char_traits<char>, std::allocator<char> > > > > > > >::end
FUNC 2fc4a 22 0 std::_Rb_tree_iterator<std::pair<const std::basic_string<char, std::char_traits<char>, std::allocator<char> >, std::map<std::basic_string<char, std::char_traits<char>, std::allocator<char> >, std::basic_string<char, std::char_traits<char>, std::allocator<char> >, std::less<std::basic_string<char, std::char_traits<char>, std::allocator<char> > >, std::allocator<std::pair<const std::basic_string<char, std::char_traits<char>, std::allocator<char> >, std::basic_string<char, std::char_traits<char>, std::allocator<char> > > > > > >::operator==
FUNC 2fc6c 6b 0 std::pair<const std::basic_string<char, std::char_traits<char>, std::allocator<char> >, std::map<std::basic_string<char, std::char_traits<char>, std::allocator<char> >, std::basic_string<char, std::char_traits<char>, std::allocator<char> >, std::less<std::basic_string<char, std::char_traits<char>, std::allocator<char> > >, std::allocator<std::pair<const std::basic_string<char, std::char_traits<char>, std::allocator<char> >, std::basic_string<char, std::char_traits<char>, std::allocator<char> > > > > >::pair
FUNC 2fcd8 40 0 std::map<std::basic_string<char, std::char_traits<char>, std::allocator<char> >, std::map<std::basic_string<char, std::char_traits<char>, std::allocator<char> >, std::basic_string<char, std::char_traits<char>, std::allocator<char> >, std::less<std::basic_string<char, std::char_traits<char>, std::allocator<char> > >, std::allocator<std::pair<const std::basic_string<char, std::char_traits<char>, std::allocator<char> >, std::basic_string<char, std::char_traits<char>, std::allocator<char> > > > >, std::less<std::basic_string<char, std::char_traits<char>, std::allocator<char> > >, std::allocator<std::pair<const std::basic_string<char, std::char_traits<char>, std::allocator<char> >, std::map<std::basic_string<char, std::char_traits<char>, std::allocator<char> >, std::basic_string<char, std::char_traits<char>, std::allocator<char> >, std::less<std::basic_string<char, std::char_traits<char>, std::allocator<char> > >, std::allocator<std::pair<const std::basic_string<char, std::char_traits<char>, std::allocator<char> >, std::basic_string<char, std::char_traits<char>, std::allocator<char> > > > > > > >::insert
FUNC 2fd18 25 0 std::list<std::basic_string<char, std::char_traits<char>, std::allocator<char> >, std::allocator<std::basic_string<char, std::char_traits<char>, std::allocator<char> > > >::end
FUNC 2fd3e 40 0 std::list<std::basic_string<char, std::char_traits<char>, std::allocator<char> >, std::allocator<std::basic_string<char, std::char_traits<char>, std::allocator<char> > > >::_M_insert
FUNC 2fd7e 61 0 std::_Rb_tree<std::basic_string<char, std::char_traits<char>, std::allocator<char> >, std::pair<const std::basic_string<char, std::char_traits<char>, std::allocator<char> >, IEC61850_STRUCT::IED_61850>, std::_Select1st<std::pair<const std::basic_string<char, std::char_traits<char>, std::allocator<char> >, IEC61850_STRUCT::IED_61850> >, std::less<std::basic_string<char, std::char_traits<char>, std::allocator<char> > >, std::allocator<std::pair<const std::basic_string<char, std::char_traits<char>, std::allocator<char> >, IEC61850_STRUCT::IED_61850> > >::_Rb_tree_impl<std::less<std::basic_string<char, std::char_traits<char>, std::allocator<char> > >, false>::_Rb_tree_impl
FUNC 2fde0 a 0 __gnu_cxx::new_allocator<std::_Rb_tree_node<std::pair<const std::basic_string<char, std::char_traits<char>, std::allocator<char> >, IEC61850_STRUCT::IED_61850> > >::~new_allocator
FUNC 2fdea 12 0 std::_Rb_tree<std::basic_string<char, std::char_traits<char>, std::allocator<char> >, std::pair<const std::basic_string<char, std::char_traits<char>, std::allocator<char> >, IEC61850_STRUCT::IED_61850>, std::_Select1st<std::pair<const std::basic_string<char, std::char_traits<char>, std::allocator<char> >, IEC61850_STRUCT::IED_61850> >, std::less<std::basic_string<char, std::char_traits<char>, std::allocator<char> > >, std::allocator<std::pair<const std::basic_string<char, std::char_traits<char>, std::allocator<char> >, IEC61850_STRUCT::IED_61850> > >::_S_right
FUNC 2fdfc 12 0 std::_Rb_tree<std::basic_string<char, std::char_traits<char>, std::allocator<char> >, std::pair<const std::basic_string<char, std::char_traits<char>, std::allocator<char> >, IEC61850_STRUCT::IED_61850>, std::_Select1st<std::pair<const std::basic_string<char, std::char_traits<char>, std::allocator<char> >, IEC61850_STRUCT::IED_61850> >, std::less<std::basic_string<char, std::char_traits<char>, std::allocator<char> > >, std::allocator<std::pair<const std::basic_string<char, std::char_traits<char>, std::allocator<char> >, IEC61850_STRUCT::IED_61850> > >::_S_left
FUNC 2fe0e 86 0 std::_Rb_tree<std::basic_string<char, std::char_traits<char>, std::allocator<char> >, std::pair<const std::basic_string<char, std::char_traits<char>, std::allocator<char> >, IEC61850_STRUCT::IED_61850>, std::_Select1st<std::pair<const std::basic_string<char, std::char_traits<char>, std::allocator<char> >, IEC61850_STRUCT::IED_61850> >, std::less<std::basic_string<char, std::char_traits<char>, std::allocator<char> > >, std::allocator<std::pair<const std::basic_string<char, std::char_traits<char>, std::allocator<char> >, IEC61850_STRUCT::IED_61850> > >::_M_destroy_node
FUNC 2fe94 31 0 std::_List_base<std::basic_string<char, std::char_traits<char>, std::allocator<char> >, std::allocator<std::basic_string<char, std::char_traits<char>, std::allocator<char> > > >::_List_impl::_List_impl
FUNC 2fec6 a 0 __gnu_cxx::new_allocator<std::_List_node<std::basic_string<char, std::char_traits<char>, std::allocator<char> > > >::~new_allocator
FUNC 2fed0 3b 0 std::_List_base<std::basic_string<char, std::char_traits<char>, std::allocator<char> >, std::allocator<std::basic_string<char, std::char_traits<char>, std::allocator<char> > > >::_M_get_Tp_allocator
FUNC 2ff0c 2a 0 std::_List_base<std::basic_string<char, std::char_traits<char>, std::allocator<char> >, std::allocator<std::basic_string<char, std::char_traits<char>, std::allocator<char> > > >::_M_put_node
FUNC 2ff36 61 0 std::_Rb_tree<std::basic_string<char, std::char_traits<char>, std::allocator<char> >, std::pair<const std::basic_string<char, std::char_traits<char>, std::allocator<char> >, std::map<int, std::map<int, IEC104WF::stPointTable, std::less<int>, std::allocator<std::pair<const int, IEC104WF::stPointTable> > >, std::less<int>, std::allocator<std::pair<const int, std::map<int, IEC104WF::stPointTable, std::less<int>, std::allocator<std::pair<const int, IEC104WF::stPointTable> > > > > > >, std::_Select1st<std::pair<const std::basic_string<char, std::char_traits<char>, std::allocator<char> >, std::map<int, std::map<int, IEC104WF::stPointTable, std::less<int>, std::allocator<std::pair<const int, IEC104WF::stPointTable> > >, std::less<int>, std::allocator<std::pair<const int, std::map<int, IEC104WF::stPointTable, std::less<int>, std::allocator<std::pair<const int, IEC104WF::stPointTable> > > > > > > >, std::less<std::basic_string<char, std::char_traits<char>, std::allocator<char> > >, std::allocator<std::pair<const std::basic_string<char, std::char_traits<char>, std::allocator<char> >, std::map<int, std::map<int, IEC104WF::stPointTable, std::less<int>, std::allocator<std::pair<const int, IEC104WF::stPointTable> > >, std::less<int>, std::allocator<std::pair<const int, std::map<int, IEC104WF::stPointTable, std::less<int>, std::allocator<std::pair<const int, IEC104WF::stPointTable> > > > > > > > >::_Rb_tree_impl<std::less<std::basic_string<char, std::char_traits<char>, std::allocator<char> > >, false>::_Rb_tree_impl
FUNC 2ff98 a 0 __gnu_cxx::new_allocator<std::_Rb_tree_node<std::pair<const std::basic_string<char, std::char_traits<char>, std::allocator<char> >, std::map<int, std::map<int, IEC104WF::stPointTable, std::less<int>, std::allocator<std::pair<const int, IEC104WF::stPointTable> > >, std::less<int>, std::allocator<std::pair<const int, std::map<int, IEC104WF::stPointTable, std::less<int>, std::allocator<std::pair<const int, IEC104WF::stPointTable> > > > > > > > >::~new_allocator
FUNC 2ffa2 12 0 std::_Rb_tree<std::basic_string<char, std::char_traits<char>, std::allocator<char> >, std::pair<const std::basic_string<char, std::char_traits<char>, std::allocator<char> >, std::map<int, std::map<int, IEC104WF::stPointTable, std::less<int>, std::allocator<std::pair<const int, IEC104WF::stPointTable> > >, std::less<int>, std::allocator<std::pair<const int, std::map<int, IEC104WF::stPointTable, std::less<int>, std::allocator<std::pair<const int, IEC104WF::stPointTable> > > > > > >, std::_Select1st<std::pair<const std::basic_string<char, std::char_traits<char>, std::allocator<char> >, std::map<int, std::map<int, IEC104WF::stPointTable, std::less<int>, std::allocator<std::pair<const int, IEC104WF::stPointTable> > >, std::less<int>, std::allocator<std::pair<const int, std::map<int, IEC104WF::stPointTable, std::less<int>, std::allocator<std::pair<const int, IEC104WF::stPointTable> > > > > > > >, std::less<std::basic_string<char, std::char_traits<char>, std::allocator<char> > >, std::allocator<std::pair<const std::basic_string<char, std::char_traits<char>, std::allocator<char> >, std::map<int, std::map<int, IEC104WF::stPointTable, std::less<int>, std::allocator<std::pair<const int, IEC104WF::stPointTable> > >, std::less<int>, std::allocator<std::pair<const int, std::map<int, IEC104WF::stPointTable, std::less<int>, std::allocator<std::pair<const int, IEC104WF::stPointTable> > > > > > > > >::_S_right
FUNC 2ffb4 12 0 std::_Rb_tree<std::basic_string<char, std::char_traits<char>, std::allocator<char> >, std::pair<const std::basic_string<char, std::char_traits<char>, std::allocator<char> >, std::map<int, std::map<int, IEC104WF::stPointTable, std::less<int>, std::allocator<std::pair<const int, IEC104WF::stPointTable> > >, std::less<int>, std::allocator<std::pair<const int, std::map<int, IEC104WF::stPointTable, std::less<int>, std::allocator<std::pair<const int, IEC104WF::stPointTable> > > > > > >, std::_Select1st<std::pair<const std::basic_string<char, std::char_traits<char>, std::allocator<char> >, std::map<int, std::map<int, IEC104WF::stPointTable, std::less<int>, std::allocator<std::pair<const int, IEC104WF::stPointTable> > >, std::less<int>, std::allocator<std::pair<const int, std::map<int, IEC104WF::stPointTable, std::less<int>, std::allocator<std::pair<const int, IEC104WF::stPointTable> > > > > > > >, std::less<std::basic_string<char, std::char_traits<char>, std::allocator<char> > >, std::allocator<std::pair<const std::basic_string<char, std::char_traits<char>, std::allocator<char> >, std::map<int, std::map<int, IEC104WF::stPointTable, std::less<int>, std::allocator<std::pair<const int, IEC104WF::stPointTable> > >, std::less<int>, std::allocator<std::pair<const int, std::map<int, IEC104WF::stPointTable, std::less<int>, std::allocator<std::pair<const int, IEC104WF::stPointTable> > > > > > > > >::_S_left
FUNC 2ffc6 86 0 std::_Rb_tree<std::basic_string<char, std::char_traits<char>, std::allocator<char> >, std::pair<const std::basic_string<char, std::char_traits<char>, std::allocator<char> >, std::map<int, std::map<int, IEC104WF::stPointTable, std::less<int>, std::allocator<std::pair<const int, IEC104WF::stPointTable> > >, std::less<int>, std::allocator<std::pair<const int, std::map<int, IEC104WF::stPointTable, std::less<int>, std::allocator<std::pair<const int, IEC104WF::stPointTable> > > > > > >, std::_Select1st<std::pair<const std::basic_string<char, std::char_traits<char>, std::allocator<char> >, std::map<int, std::map<int, IEC104WF::stPointTable, std::less<int>, std::allocator<std::pair<const int, IEC104WF::stPointTable> > >, std::less<int>, std::allocator<std::pair<const int, std::map<int, IEC104WF::stPointTable, std::less<int>, std::allocator<std::pair<const int, IEC104WF::stPointTable> > > > > > > >, std::less<std::basic_string<char, std::char_traits<char>, std::allocator<char> > >, std::allocator<std::pair<const std::basic_string<char, std::char_traits<char>, std::allocator<char> >, std::map<int, std::map<int, IEC104WF::stPointTable, std::less<int>, std::allocator<std::pair<const int, IEC104WF::stPointTable> > >, std::less<int>, std::allocator<std::pair<const int, std::map<int, IEC104WF::stPointTable, std::less<int>, std::allocator<std::pair<const int, IEC104WF::stPointTable> > > > > > > > >::_M_destroy_node
FUNC 3004c 61 0 std::_Rb_tree<int, std::pair<const int, std::map<int, IEC104WF::stPointTable, std::less<int>, std::allocator<std::pair<const int, IEC104WF::stPointTable> > > >, std::_Select1st<std::pair<const int, std::map<int, IEC104WF::stPointTable, std::less<int>, std::allocator<std::pair<const int, IEC104WF::stPointTable> > > > >, std::less<int>, std::allocator<std::pair<const int, std::map<int, IEC104WF::stPointTable, std::less<int>, std::allocator<std::pair<const int, IEC104WF::stPointTable> > > > > >::_Rb_tree_impl<std::less<int>, false>::_Rb_tree_impl
FUNC 300ae a 0 __gnu_cxx::new_allocator<std::_Rb_tree_node<std::pair<const int, std::map<int, IEC104WF::stPointTable, std::less<int>, std::allocator<std::pair<const int, IEC104WF::stPointTable> > > > > >::~new_allocator
FUNC 300b8 12 0 std::_Rb_tree<int, std::pair<const int, std::map<int, IEC104WF::stPointTable, std::less<int>, std::allocator<std::pair<const int, IEC104WF::stPointTable> > > >, std::_Select1st<std::pair<const int, std::map<int, IEC104WF::stPointTable, std::less<int>, std::allocator<std::pair<const int, IEC104WF::stPointTable> > > > >, std::less<int>, std::allocator<std::pair<const int, std::map<int, IEC104WF::stPointTable, std::less<int>, std::allocator<std::pair<const int, IEC104WF::stPointTable> > > > > >::_S_right
FUNC 300ca 12 0 std::_Rb_tree<int, std::pair<const int, std::map<int, IEC104WF::stPointTable, std::less<int>, std::allocator<std::pair<const int, IEC104WF::stPointTable> > > >, std::_Select1st<std::pair<const int, std::map<int, IEC104WF::stPointTable, std::less<int>, std::allocator<std::pair<const int, IEC104WF::stPointTable> > > > >, std::less<int>, std::allocator<std::pair<const int, std::map<int, IEC104WF::stPointTable, std::less<int>, std::allocator<std::pair<const int, IEC104WF::stPointTable> > > > > >::_S_left
FUNC 300dc 86 0 std::_Rb_tree<int, std::pair<const int, std::map<int, IEC104WF::stPointTable, std::less<int>, std::allocator<std::pair<const int, IEC104WF::stPointTable> > > >, std::_Select1st<std::pair<const int, std::map<int, IEC104WF::stPointTable, std::less<int>, std::allocator<std::pair<const int, IEC104WF::stPointTable> > > > >, std::less<int>, std::allocator<std::pair<const int, std::map<int, IEC104WF::stPointTable, std::less<int>, std::allocator<std::pair<const int, IEC104WF::stPointTable> > > > > >::_M_destroy_node
FUNC 30162 61 0 std::_Rb_tree<int, std::pair<const int, IEC104WF::stPointTable>, std::_Select1st<std::pair<const int, IEC104WF::stPointTable> >, std::less<int>, std::allocator<std::pair<const int, IEC104WF::stPointTable> > >::_Rb_tree_impl<std::less<int>, false>::_Rb_tree_impl
FUNC 301c4 a 0 __gnu_cxx::new_allocator<std::_Rb_tree_node<std::pair<const int, IEC104WF::stPointTable> > >::~new_allocator
FUNC 301ce 12 0 std::_Rb_tree<int, std::pair<const int, IEC104WF::stPointTable>, std::_Select1st<std::pair<const int, IEC104WF::stPointTable> >, std::less<int>, std::allocator<std::pair<const int, IEC104WF::stPointTable> > >::_S_right
FUNC 301e0 12 0 std::_Rb_tree<int, std::pair<const int, IEC104WF::stPointTable>, std::_Select1st<std::pair<const int, IEC104WF::stPointTable> >, std::less<int>, std::allocator<std::pair<const int, IEC104WF::stPointTable> > >::_S_left
FUNC 301f2 86 0 std::_Rb_tree<int, std::pair<const int, IEC104WF::stPointTable>, std::_Select1st<std::pair<const int, IEC104WF::stPointTable> >, std::less<int>, std::allocator<std::pair<const int, IEC104WF::stPointTable> > >::_M_destroy_node
FUNC 30278 61 0 std::_Rb_tree<std::basic_string<char, std::char_traits<char>, std::allocator<char> >, std::pair<const std::basic_string<char, std::char_traits<char>, std::allocator<char> >, IEC103::stConfigParam>, std::_Select1st<std::pair<const std::basic_string<char, std::char_traits<char>, std::allocator<char> >, IEC103::stConfigParam> >, std::less<std::basic_string<char, std::char_traits<char>, std::allocator<char> > >, std::allocator<std::pair<const std::basic_string<char, std::char_traits<char>, std::allocator<char> >, IEC103::stConfigParam> > >::_Rb_tree_impl<std::less<std::basic_string<char, std::char_traits<char>, std::allocator<char> > >, false>::_Rb_tree_impl
FUNC 302da a 0 __gnu_cxx::new_allocator<std::_Rb_tree_node<std::pair<const std::basic_string<char, std::char_traits<char>, std::allocator<char> >, IEC103::stConfigParam> > >::~new_allocator
FUNC 302e4 12 0 std::_Rb_tree<std::basic_string<char, std::char_traits<char>, std::allocator<char> >, std::pair<const std::basic_string<char, std::char_traits<char>, std::allocator<char> >, IEC103::stConfigParam>, std::_Select1st<std::pair<const std::basic_string<char, std::char_traits<char>, std::allocator<char> >, IEC103::stConfigParam> >, std::less<std::basic_string<char, std::char_traits<char>, std::allocator<char> > >, std::allocator<std::pair<const std::basic_string<char, std::char_traits<char>, std::allocator<char> >, IEC103::stConfigParam> > >::_S_right
FUNC 302f6 12 0 std::_Rb_tree<std::basic_string<char, std::char_traits<char>, std::allocator<char> >, std::pair<const std::basic_string<char, std::char_traits<char>, std::allocator<char> >, IEC103::stConfigParam>, std::_Select1st<std::pair<const std::basic_string<char, std::char_traits<char>, std::allocator<char> >, IEC103::stConfigParam> >, std::less<std::basic_string<char, std::char_traits<char>, std::allocator<char> > >, std::allocator<std::pair<const std::basic_string<char, std::char_traits<char>, std::allocator<char> >, IEC103::stConfigParam> > >::_S_left
FUNC 30308 86 0 std::_Rb_tree<std::basic_string<char, std::char_traits<char>, std::allocator<char> >, std::pair<const std::basic_string<char, std::char_traits<char>, std::allocator<char> >, IEC103::stConfigParam>, std::_Select1st<std::pair<const std::basic_string<char, std::char_traits<char>, std::allocator<char> >, IEC103::stConfigParam> >, std::less<std::basic_string<char, std::char_traits<char>, std::allocator<char> > >, std::allocator<std::pair<const std::basic_string<char, std::char_traits<char>, std::allocator<char> >, IEC103::stConfigParam> > >::_M_destroy_node
FUNC 3038e 61 0 std::_Rb_tree<std::basic_string<char, std::char_traits<char>, std::allocator<char> >, std::pair<const std::basic_string<char, std::char_traits<char>, std::allocator<char> >, std::map<std::basic_string<char, std::char_traits<char>, std::allocator<char> >, std::basic_string<char, std::char_traits<char>, std::allocator<char> >, std::less<std::basic_string<char, std::char_traits<char>, std::allocator<char> > >, std::allocator<std::pair<const std::basic_string<char, std::char_traits<char>, std::allocator<char> >, std::basic_string<char, std::char_traits<char>, std::allocator<char> > > > > >, std::_Select1st<std::pair<const std::basic_string<char, std::char_traits<char>, std::allocator<char> >, std::map<std::basic_string<char, std::char_traits<char>, std::allocator<char> >, std::basic_string<char, std::char_traits<char>, std::allocator<char> >, std::less<std::basic_string<char, std::char_traits<char>, std::allocator<char> > >, std::allocator<std::pair<const std::basic_string<char, std::char_traits<char>, std::allocator<char> >, std::basic_string<char, std::char_traits<char>, std::allocator<char> > > > > > >, std::less<std::basic_string<char, std::char_traits<char>, std::allocator<char> > >, std::allocator<std::pair<const std::basic_string<char, std::char_traits<char>, std::allocator<char> >, std::map<std::basic_string<char, std::char_traits<char>, std::allocator<char> >, std::basic_string<char, std::char_traits<char>, std::allocator<char> >, std::less<std::basic_string<char, std::char_traits<char>, std::allocator<char> > >, std::allocator<std::pair<const std::basic_string<char, std::char_traits<char>, std::allocator<char> >, std::basic_string<char, std::char_traits<char>, std::allocator<char> > > > > > > >::_Rb_tree_impl<std::less<std::basic_string<char, std::char_traits<char>, std::allocator<char> > >, false>::_Rb_tree_impl
FUNC 303f0 a 0 __gnu_cxx::new_allocator<std::_Rb_tree_node<std::pair<const std::basic_string<char, std::char_traits<char>, std::allocator<char> >, std::map<std::basic_string<char, std::char_traits<char>, std::allocator<char> >, std::basic_string<char, std::char_traits<char>, std::allocator<char> >, std::less<std::basic_string<char, std::char_traits<char>, std::allocator<char> > >, std::allocator<std::pair<const std::basic_string<char, std::char_traits<char>, std::allocator<char> >, std::basic_string<char, std::char_traits<char>, std::allocator<char> > > > > > > >::~new_allocator
FUNC 303fa 12 0 std::_Rb_tree<std::basic_string<char, std::char_traits<char>, std::allocator<char> >, std::pair<const std::basic_string<char, std::char_traits<char>, std::allocator<char> >, std::map<std::basic_string<char, std::char_traits<char>, std::allocator<char> >, std::basic_string<char, std::char_traits<char>, std::allocator<char> >, std::less<std::basic_string<char, std::char_traits<char>, std::allocator<char> > >, std::allocator<std::pair<const std::basic_string<char, std::char_traits<char>, std::allocator<char> >, std::basic_string<char, std::char_traits<char>, std::allocator<char> > > > > >, std::_Select1st<std::pair<const std::basic_string<char, std::char_traits<char>, std::allocator<char> >, std::map<std::basic_string<char, std::char_traits<char>, std::allocator<char> >, std::basic_string<char, std::char_traits<char>, std::allocator<char> >, std::less<std::basic_string<char, std::char_traits<char>, std::allocator<char> > >, std::allocator<std::pair<const std::basic_string<char, std::char_traits<char>, std::allocator<char> >, std::basic_string<char, std::char_traits<char>, std::allocator<char> > > > > > >, std::less<std::basic_string<char, std::char_traits<char>, std::allocator<char> > >, std::allocator<std::pair<const std::basic_string<char, std::char_traits<char>, std::allocator<char> >, std::map<std::basic_string<char, std::char_traits<char>, std::allocator<char> >, std::basic_string<char, std::char_traits<char>, std::allocator<char> >, std::less<std::basic_string<char, std::char_traits<char>, std::allocator<char> > >, std::allocator<std::pair<const std::basic_string<char, std::char_traits<char>, std::allocator<char> >, std::basic_string<char, std::char_traits<char>, std::allocator<char> > > > > > > >::_S_right
FUNC 3040c 12 0 std::_Rb_tree<std::basic_string<char, std::char_traits<char>, std::allocator<char> >, std::pair<const std::basic_string<char, std::char_traits<char>, std::allocator<char> >, std::map<std::basic_string<char, std::char_traits<char>, std::allocator<char> >, std::basic_string<char, std::char_traits<char>, std::allocator<char> >, std::less<std::basic_string<char, std::char_traits<char>, std::allocator<char> > >, std::allocator<std::pair<const std::basic_string<char, std::char_traits<char>, std::allocator<char> >, std::basic_string<char, std::char_traits<char>, std::allocator<char> > > > > >, std::_Select1st<std::pair<const std::basic_string<char, std::char_traits<char>, std::allocator<char> >, std::map<std::basic_string<char, std::char_traits<char>, std::allocator<char> >, std::basic_string<char, std::char_traits<char>, std::allocator<char> >, std::less<std::basic_string<char, std::char_traits<char>, std::allocator<char> > >, std::allocator<std::pair<const std::basic_string<char, std::char_traits<char>, std::allocator<char> >, std::basic_string<char, std::char_traits<char>, std::allocator<char> > > > > > >, std::less<std::basic_string<char, std::char_traits<char>, std::allocator<char> > >, std::allocator<std::pair<const std::basic_string<char, std::char_traits<char>, std::allocator<char> >, std::map<std::basic_string<char, std::char_traits<char>, std::allocator<char> >, std::basic_string<char, std::char_traits<char>, std::allocator<char> >, std::less<std::basic_string<char, std::char_traits<char>, std::allocator<char> > >, std::allocator<std::pair<const std::basic_string<char, std::char_traits<char>, std::allocator<char> >, std::basic_string<char, std::char_traits<char>, std::allocator<char> > > > > > > >::_S_left
FUNC 3041e 86 0 std::_Rb_tree<std::basic_string<char, std::char_traits<char>, std::allocator<char> >, std::pair<const std::basic_string<char, std::char_traits<char>, std::allocator<char> >, std::map<std::basic_string<char, std::char_traits<char>, std::allocator<char> >, std::basic_string<char, std::char_traits<char>, std::allocator<char> >, std::less<std::basic_string<char, std::char_traits<char>, std::allocator<char> > >, std::allocator<std::pair<const std::basic_string<char, std::char_traits<char>, std::allocator<char> >, std::basic_string<char, std::char_traits<char>, std::allocator<char> > > > > >, std::_Select1st<std::pair<const std::basic_string<char, std::char_traits<char>, std::allocator<char> >, std::map<std::basic_string<char, std::char_traits<char>, std::allocator<char> >, std::basic_string<char, std::char_traits<char>, std::allocator<char> >, std::less<std::basic_string<char, std::char_traits<char>, std::allocator<char> > >, std::allocator<std::pair<const std::basic_string<char, std::char_traits<char>, std::allocator<char> >, std::basic_string<char, std::char_traits<char>, std::allocator<char> > > > > > >, std::less<std::basic_string<char, std::char_traits<char>, std::allocator<char> > >, std::allocator<std::pair<const std::basic_string<char, std::char_traits<char>, std::allocator<char> >, std::map<std::basic_string<char, std::char_traits<char>, std::allocator<char> >, std::basic_string<char, std::char_traits<char>, std::allocator<char> >, std::less<std::basic_string<char, std::char_traits<char>, std::allocator<char> > >, std::allocator<std::pair<const std::basic_string<char, std::char_traits<char>, std::allocator<char> >, std::basic_string<char, std::char_traits<char>, std::allocator<char> > > > > > > >::_M_destroy_node
FUNC 304a4 48 0 std::_Vector_base<std::basic_string<char, std::char_traits<char>, std::allocator<char> >, std::allocator<std::basic_string<char, std::char_traits<char>, std::allocator<char> > > >::_Vector_impl::_Vector_impl
FUNC 304ec 12 0 std::_Rb_tree<std::basic_string<char, std::char_traits<char>, std::allocator<char> >, std::pair<const std::basic_string<char, std::char_traits<char>, std::allocator<char> >, IEC61850_STRUCT::IED_61850>, std::_Select1st<std::pair<const std::basic_string<char, std::char_traits<char>, std::allocator<char> >, IEC61850_STRUCT::IED_61850> >, std::less<std::basic_string<char, std::char_traits<char>, std::allocator<char> > >, std::allocator<std::pair<const std::basic_string<char, std::char_traits<char>, std::allocator<char> >, IEC61850_STRUCT::IED_61850> > >::_M_end
FUNC 304fe 12 0 std::_Rb_tree<std::basic_string<char, std::char_traits<char>, std::allocator<char> >, std::pair<const std::basic_string<char, std::char_traits<char>, std::allocator<char> >, IEC61850_STRUCT::IED_61850>, std::_Select1st<std::pair<const std::basic_string<char, std::char_traits<char>, std::allocator<char> >, IEC61850_STRUCT::IED_61850> >, std::less<std::basic_string<char, std::char_traits<char>, std::allocator<char> > >, std::allocator<std::pair<const std::basic_string<char, std::char_traits<char>, std::allocator<char> >, IEC61850_STRUCT::IED_61850> > >::_M_leftmost
FUNC 30510 12 0 std::_Rb_tree<std::basic_string<char, std::char_traits<char>, std::allocator<char> >, std::pair<const std::basic_string<char, std::char_traits<char>, std::allocator<char> >, IEC61850_STRUCT::IED_61850>, std::_Select1st<std::pair<const std::basic_string<char, std::char_traits<char>, std::allocator<char> >, IEC61850_STRUCT::IED_61850> >, std::less<std::basic_string<char, std::char_traits<char>, std::allocator<char> > >, std::allocator<std::pair<const std::basic_string<char, std::char_traits<char>, std::allocator<char> >, IEC61850_STRUCT::IED_61850> > >::_M_root
FUNC 30522 12 0 std::_Rb_tree<std::basic_string<char, std::char_traits<char>, std::allocator<char> >, std::pair<const std::basic_string<char, std::char_traits<char>, std::allocator<char> >, IEC61850_STRUCT::IED_61850>, std::_Select1st<std::pair<const std::basic_string<char, std::char_traits<char>, std::allocator<char> >, IEC61850_STRUCT::IED_61850> >, std::less<std::basic_string<char, std::char_traits<char>, std::allocator<char> > >, std::allocator<std::pair<const std::basic_string<char, std::char_traits<char>, std::allocator<char> >, IEC61850_STRUCT::IED_61850> > >::_M_rightmost
FUNC 30534 e 0 std::_Rb_tree<std::basic_string<char, std::char_traits<char>, std::allocator<char> >, std::pair<const std::basic_string<char, std::char_traits<char>, std::allocator<char> >, IEC61850_STRUCT::IED_61850>, std::_Select1st<std::pair<const std::basic_string<char, std::char_traits<char>, std::allocator<char> >, IEC61850_STRUCT::IED_61850> >, std::less<std::basic_string<char, std::char_traits<char>, std::allocator<char> > >, std::allocator<std::pair<const std::basic_string<char, std::char_traits<char>, std::allocator<char> >, IEC61850_STRUCT::IED_61850> > >::_M_get_Node_allocator
FUNC 30542 70 0 std::_Rb_tree<std::basic_string<char, std::char_traits<char>, std::allocator<char> >, std::pair<const std::basic_string<char, std::char_traits<char>, std::allocator<char> >, IEC61850_STRUCT::IED_61850>, std::_Select1st<std::pair<const std::basic_string<char, std::char_traits<char>, std::allocator<char> >, IEC61850_STRUCT::IED_61850> >, std::less<std::basic_string<char, std::char_traits<char>, std::allocator<char> > >, std::allocator<std::pair<const std::basic_string<char, std::char_traits<char>, std::allocator<char> >, IEC61850_STRUCT::IED_61850> > >::_Rb_tree_impl<std::less<std::basic_string<char, std::char_traits<char>, std::allocator<char> > >, false>::_Rb_tree_impl
FUNC 305b2 12 0 std::_Rb_tree<std::basic_string<char, std::char_traits<char>, std::allocator<char> >, std::pair<const std::basic_string<char, std::char_traits<char>, std::allocator<char> >, IEC61850_STRUCT::IED_61850>, std::_Select1st<std::pair<const std::basic_string<char, std::char_traits<char>, std::allocator<char> >, IEC61850_STRUCT::IED_61850> >, std::less<std::basic_string<char, std::char_traits<char>, std::allocator<char> > >, std::allocator<std::pair<const std::basic_string<char, std::char_traits<char>, std::allocator<char> >, IEC61850_STRUCT::IED_61850> > >::_M_root
FUNC 305c4 169 0 std::_Rb_tree<std::basic_string<char, std::char_traits<char>, std::allocator<char> >, std::pair<const std::basic_string<char, std::char_traits<char>, std::allocator<char> >, IEC61850_STRUCT::IED_61850>, std::_Select1st<std::pair<const std::basic_string<char, std::char_traits<char>, std::allocator<char> >, IEC61850_STRUCT::IED_61850> >, std::less<std::basic_string<char, std::char_traits<char>, std::allocator<char> > >, std::allocator<std::pair<const std::basic_string<char, std::char_traits<char>, std::allocator<char> >, IEC61850_STRUCT::IED_61850> > >::_M_copy
FUNC 3072e 12 0 std::_Rb_tree<std::basic_string<char, std::char_traits<char>, std::allocator<char> >, std::pair<const std::basic_string<char, std::char_traits<char>, std::allocator<char> >, IEC61850_STRUCT::IED_61850>, std::_Select1st<std::pair<const std::basic_string<char, std::char_traits<char>, std::allocator<char> >, IEC61850_STRUCT::IED_61850> >, std::less<std::basic_string<char, std::char_traits<char>, std::allocator<char> > >, std::allocator<std::pair<const std::basic_string<char, std::char_traits<char>, std::allocator<char> >, IEC61850_STRUCT::IED_61850> > >::_M_begin
FUNC 30740 1a 0 std::_Rb_tree<std::basic_string<char, std::char_traits<char>, std::allocator<char> >, std::pair<const std::basic_string<char, std::char_traits<char>, std::allocator<char> >, IEC61850_STRUCT::IED_61850>, std::_Select1st<std::pair<const std::basic_string<char, std::char_traits<char>, std::allocator<char> >, IEC61850_STRUCT::IED_61850> >, std::less<std::basic_string<char, std::char_traits<char>, std::allocator<char> > >, std::allocator<std::pair<const std::basic_string<char, std::char_traits<char>, std::allocator<char> >, IEC61850_STRUCT::IED_61850> > >::_S_minimum
FUNC 3075a 1a 0 std::_Rb_tree<std::basic_string<char, std::char_traits<char>, std::allocator<char> >, std::pair<const std::basic_string<char, std::char_traits<char>, std::allocator<char> >, IEC61850_STRUCT::IED_61850>, std::_Select1st<std::pair<const std::basic_string<char, std::char_traits<char>, std::allocator<char> >, IEC61850_STRUCT::IED_61850> >, std::less<std::basic_string<char, std::char_traits<char>, std::allocator<char> > >, std::allocator<std::pair<const std::basic_string<char, std::char_traits<char>, std::allocator<char> >, IEC61850_STRUCT::IED_61850> > >::_S_maximum
FUNC 30774 12 0 std::_Rb_tree<std::basic_string<char, std::char_traits<char>, std::allocator<char> >, std::pair<const std::basic_string<char, std::char_traits<char>, std::allocator<char> >, IEC103::stConfigParam>, std::_Select1st<std::pair<const std::basic_string<char, std::char_traits<char>, std::allocator<char> >, IEC103::stConfigParam> >, std::less<std::basic_string<char, std::char_traits<char>, std::allocator<char> > >, std::allocator<std::pair<const std::basic_string<char, std::char_traits<char>, std::allocator<char> >, IEC103::stConfigParam> > >::_M_end
FUNC 30786 12 0 std::_Rb_tree<std::basic_string<char, std::char_traits<char>, std::allocator<char> >, std::pair<const std::basic_string<char, std::char_traits<char>, std::allocator<char> >, IEC103::stConfigParam>, std::_Select1st<std::pair<const std::basic_string<char, std::char_traits<char>, std::allocator<char> >, IEC103::stConfigParam> >, std::less<std::basic_string<char, std::char_traits<char>, std::allocator<char> > >, std::allocator<std::pair<const std::basic_string<char, std::char_traits<char>, std::allocator<char> >, IEC103::stConfigParam> > >::_M_leftmost
FUNC 30798 12 0 std::_Rb_tree<std::basic_string<char, std::char_traits<char>, std::allocator<char> >, std::pair<const std::basic_string<char, std::char_traits<char>, std::allocator<char> >, IEC103::stConfigParam>, std::_Select1st<std::pair<const std::basic_string<char, std::char_traits<char>, std::allocator<char> >, IEC103::stConfigParam> >, std::less<std::basic_string<char, std::char_traits<char>, std::allocator<char> > >, std::allocator<std::pair<const std::basic_string<char, std::char_traits<char>, std::allocator<char> >, IEC103::stConfigParam> > >::_M_root
FUNC 307aa 12 0 std::_Rb_tree<std::basic_string<char, std::char_traits<char>, std::allocator<char> >, std::pair<const std::basic_string<char, std::char_traits<char>, std::allocator<char> >, IEC103::stConfigParam>, std::_Select1st<std::pair<const std::basic_string<char, std::char_traits<char>, std::allocator<char> >, IEC103::stConfigParam> >, std::less<std::basic_string<char, std::char_traits<char>, std::allocator<char> > >, std::allocator<std::pair<const std::basic_string<char, std::char_traits<char>, std::allocator<char> >, IEC103::stConfigParam> > >::_M_rightmost
FUNC 307bc 12 0 std::_Rb_tree<std::basic_string<char, std::char_traits<char>, std::allocator<char> >, std::pair<const std::basic_string<char, std::char_traits<char>, std::allocator<char> >, std::map<std::basic_string<char, std::char_traits<char>, std::allocator<char> >, std::basic_string<char, std::char_traits<char>, std::allocator<char> >, std::less<std::basic_string<char, std::char_traits<char>, std::allocator<char> > >, std::allocator<std::pair<const std::basic_string<char, std::char_traits<char>, std::allocator<char> >, std::basic_string<char, std::char_traits<char>, std::allocator<char> > > > > >, std::_Select1st<std::pair<const std::basic_string<char, std::char_traits<char>, std::allocator<char> >, std::map<std::basic_string<char, std::char_traits<char>, std::allocator<char> >, std::basic_string<char, std::char_traits<char>, std::allocator<char> >, std::less<std::basic_string<char, std::char_traits<char>, std::allocator<char> > >, std::allocator<std::pair<const std::basic_string<char, std::char_traits<char>, std::allocator<char> >, std::basic_string<char, std::char_traits<char>, std::allocator<char> > > > > > >, std::less<std::basic_string<char, std::char_traits<char>, std::allocator<char> > >, std::allocator<std::pair<const std::basic_string<char, std::char_traits<char>, std::allocator<char> >, std::map<std::basic_string<char, std::char_traits<char>, std::allocator<char> >, std::basic_string<char, std::char_traits<char>, std::allocator<char> >, std::less<std::basic_string<char, std::char_traits<char>, std::allocator<char> > >, std::allocator<std::pair<const std::basic_string<char, std::char_traits<char>, std::allocator<char> >, std::basic_string<char, std::char_traits<char>, std::allocator<char> > > > > > > >::_M_end
FUNC 307ce 12 0 std::_Rb_tree<std::basic_string<char, std::char_traits<char>, std::allocator<char> >, std::pair<const std::basic_string<char, std::char_traits<char>, std::allocator<char> >, std::map<std::basic_string<char, std::char_traits<char>, std::allocator<char> >, std::basic_string<char, std::char_traits<char>, std::allocator<char> >, std::less<std::basic_string<char, std::char_traits<char>, std::allocator<char> > >, std::allocator<std::pair<const std::basic_string<char, std::char_traits<char>, std::allocator<char> >, std::basic_string<char, std::char_traits<char>, std::allocator<char> > > > > >, std::_Select1st<std::pair<const std::basic_string<char, std::char_traits<char>, std::allocator<char> >, std::map<std::basic_string<char, std::char_traits<char>, std::allocator<char> >, std::basic_string<char, std::char_traits<char>, std::allocator<char> >, std::less<std::basic_string<char, std::char_traits<char>, std::allocator<char> > >, std::allocator<std::pair<const std::basic_string<char, std::char_traits<char>, std::allocator<char> >, std::basic_string<char, std::char_traits<char>, std::allocator<char> > > > > > >, std::less<std::basic_string<char, std::char_traits<char>, std::allocator<char> > >, std::allocator<std::pair<const std::basic_string<char, std::char_traits<char>, std::allocator<char> >, std::map<std::basic_string<char, std::char_traits<char>, std::allocator<char> >, std::basic_string<char, std::char_traits<char>, std::allocator<char> >, std::less<std::basic_string<char, std::char_traits<char>, std::allocator<char> > >, std::allocator<std::pair<const std::basic_string<char, std::char_traits<char>, std::allocator<char> >, std::basic_string<char, std::char_traits<char>, std::allocator<char> > > > > > > >::_M_leftmost
FUNC 307e0 12 0 std::_Rb_tree<std::basic_string<char, std::char_traits<char>, std::allocator<char> >, std::pair<const std::basic_string<char, std::char_traits<char>, std::allocator<char> >, std::map<std::basic_string<char, std::char_traits<char>, std::allocator<char> >, std::basic_string<char, std::char_traits<char>, std::allocator<char> >, std::less<std::basic_string<char, std::char_traits<char>, std::allocator<char> > >, std::allocator<std::pair<const std::basic_string<char, std::char_traits<char>, std::allocator<char> >, std::basic_string<char, std::char_traits<char>, std::allocator<char> > > > > >, std::_Select1st<std::pair<const std::basic_string<char, std::char_traits<char>, std::allocator<char> >, std::map<std::basic_string<char, std::char_traits<char>, std::allocator<char> >, std::basic_string<char, std::char_traits<char>, std::allocator<char> >, std::less<std::basic_string<char, std::char_traits<char>, std::allocator<char> > >, std::allocator<std::pair<const std::basic_string<char, std::char_traits<char>, std::allocator<char> >, std::basic_string<char, std::char_traits<char>, std::allocator<char> > > > > > >, std::less<std::basic_string<char, std::char_traits<char>, std::allocator<char> > >, std::allocator<std::pair<const std::basic_string<char, std::char_traits<char>, std::allocator<char> >, std::map<std::basic_string<char, std::char_traits<char>, std::allocator<char> >, std::basic_string<char, std::char_traits<char>, std::allocator<char> >, std::less<std::basic_string<char, std::char_traits<char>, std::allocator<char> > >, std::allocator<std::pair<const std::basic_string<char, std::char_traits<char>, std::allocator<char> >, std::basic_string<char, std::char_traits<char>, std::allocator<char> > > > > > > >::_M_root
FUNC 307f2 12 0 std::_Rb_tree<std::basic_string<char, std::char_traits<char>, std::allocator<char> >, std::pair<const std::basic_string<char, std::char_traits<char>, std::allocator<char> >, std::map<std::basic_string<char, std::char_traits<char>, std::allocator<char> >, std::basic_string<char, std::char_traits<char>, std::allocator<char> >, std::less<std::basic_string<char, std::char_traits<char>, std::allocator<char> > >, std::allocator<std::pair<const std::basic_string<char, std::char_traits<char>, std::allocator<char> >, std::basic_string<char, std::char_traits<char>, std::allocator<char> > > > > >, std::_Select1st<std::pair<const std::basic_string<char, std::char_traits<char>, std::allocator<char> >, std::map<std::basic_string<char, std::char_traits<char>, std::allocator<char> >, std::basic_string<char, std::char_traits<char>, std::allocator<char> >, std::less<std::basic_string<char, std::char_traits<char>, std::allocator<char> > >, std::allocator<std::pair<const std::basic_string<char, std::char_traits<char>, std::allocator<char> >, std::basic_string<char, std::char_traits<char>, std::allocator<char> > > > > > >, std::less<std::basic_string<char, std::char_traits<char>, std::allocator<char> > >, std::allocator<std::pair<const std::basic_string<char, std::char_traits<char>, std::allocator<char> >, std::map<std::basic_string<char, std::char_traits<char>, std::allocator<char> >, std::basic_string<char, std::char_traits<char>, std::allocator<char> >, std::less<std::basic_string<char, std::char_traits<char>, std::allocator<char> > >, std::allocator<std::pair<const std::basic_string<char, std::char_traits<char>, std::allocator<char> >, std::basic_string<char, std::char_traits<char>, std::allocator<char> > > > > > > >::_M_rightmost
FUNC 30804 e 0 std::_Rb_tree<std::basic_string<char, std::char_traits<char>, std::allocator<char> >, std::pair<const std::basic_string<char, std::char_traits<char>, std::allocator<char> >, IEC103::stConfigParam>, std::_Select1st<std::pair<const std::basic_string<char, std::char_traits<char>, std::allocator<char> >, IEC103::stConfigParam> >, std::less<std::basic_string<char, std::char_traits<char>, std::allocator<char> > >, std::allocator<std::pair<const std::basic_string<char, std::char_traits<char>, std::allocator<char> >, IEC103::stConfigParam> > >::_M_get_Node_allocator
FUNC 30812 70 0 std::_Rb_tree<std::basic_string<char, std::char_traits<char>, std::allocator<char> >, std::pair<const std::basic_string<char, std::char_traits<char>, std::allocator<char> >, IEC103::stConfigParam>, std::_Select1st<std::pair<const std::basic_string<char, std::char_traits<char>, std::allocator<char> >, IEC103::stConfigParam> >, std::less<std::basic_string<char, std::char_traits<char>, std::allocator<char> > >, std::allocator<std::pair<const std::basic_string<char, std::char_traits<char>, std::allocator<char> >, IEC103::stConfigParam> > >::_Rb_tree_impl<std::less<std::basic_string<char, std::char_traits<char>, std::allocator<char> > >, false>::_Rb_tree_impl
FUNC 30882 12 0 std::_Rb_tree<std::basic_string<char, std::char_traits<char>, std::allocator<char> >, std::pair<const std::basic_string<char, std::char_traits<char>, std::allocator<char> >, IEC103::stConfigParam>, std::_Select1st<std::pair<const std::basic_string<char, std::char_traits<char>, std::allocator<char> >, IEC103::stConfigParam> >, std::less<std::basic_string<char, std::char_traits<char>, std::allocator<char> > >, std::allocator<std::pair<const std::basic_string<char, std::char_traits<char>, std::allocator<char> >, IEC103::stConfigParam> > >::_M_root
FUNC 30894 169 0 std::_Rb_tree<std::basic_string<char, std::char_traits<char>, std::allocator<char> >, std::pair<const std::basic_string<char, std::char_traits<char>, std::allocator<char> >, IEC103::stConfigParam>, std::_Select1st<std::pair<const std::basic_string<char, std::char_traits<char>, std::allocator<char> >, IEC103::stConfigParam> >, std::less<std::basic_string<char, std::char_traits<char>, std::allocator<char> > >, std::allocator<std::pair<const std::basic_string<char, std::char_traits<char>, std::allocator<char> >, IEC103::stConfigParam> > >::_M_copy
FUNC 309fe 12 0 std::_Rb_tree<std::basic_string<char, std::char_traits<char>, std::allocator<char> >, std::pair<const std::basic_string<char, std::char_traits<char>, std::allocator<char> >, IEC103::stConfigParam>, std::_Select1st<std::pair<const std::basic_string<char, std::char_traits<char>, std::allocator<char> >, IEC103::stConfigParam> >, std::less<std::basic_string<char, std::char_traits<char>, std::allocator<char> > >, std::allocator<std::pair<const std::basic_string<char, std::char_traits<char>, std::allocator<char> >, IEC103::stConfigParam> > >::_M_begin
FUNC 30a10 1a 0 std::_Rb_tree<std::basic_string<char, std::char_traits<char>, std::allocator<char> >, std::pair<const std::basic_string<char, std::char_traits<char>, std::allocator<char> >, IEC103::stConfigParam>, std::_Select1st<std::pair<const std::basic_string<char, std::char_traits<char>, std::allocator<char> >, IEC103::stConfigParam> >, std::less<std::basic_string<char, std::char_traits<char>, std::allocator<char> > >, std::allocator<std::pair<const std::basic_string<char, std::char_traits<char>, std::allocator<char> >, IEC103::stConfigParam> > >::_S_minimum
FUNC 30a2a 1a 0 std::_Rb_tree<std::basic_string<char, std::char_traits<char>, std::allocator<char> >, std::pair<const std::basic_string<char, std::char_traits<char>, std::allocator<char> >, IEC103::stConfigParam>, std::_Select1st<std::pair<const std::basic_string<char, std::char_traits<char>, std::allocator<char> >, IEC103::stConfigParam> >, std::less<std::basic_string<char, std::char_traits<char>, std::allocator<char> > >, std::allocator<std::pair<const std::basic_string<char, std::char_traits<char>, std::allocator<char> >, IEC103::stConfigParam> > >::_S_maximum
FUNC 30a44 e 0 std::_Rb_tree<std::basic_string<char, std::char_traits<char>, std::allocator<char> >, std::pair<const std::basic_string<char, std::char_traits<char>, std::allocator<char> >, std::map<std::basic_string<char, std::char_traits<char>, std::allocator<char> >, std::basic_string<char, std::char_traits<char>, std::allocator<char> >, std::less<std::basic_string<char, std::char_traits<char>, std::allocator<char> > >, std::allocator<std::pair<const std::basic_string<char, std::char_traits<char>, std::allocator<char> >, std::basic_string<char, std::char_traits<char>, std::allocator<char> > > > > >, std::_Select1st<std::pair<const std::basic_string<char, std::char_traits<char>, std::allocator<char> >, std::map<std::basic_string<char, std::char_traits<char>, std::allocator<char> >, std::basic_string<char, std::char_traits<char>, std::allocator<char> >, std::less<std::basic_string<char, std::char_traits<char>, std::allocator<char> > >, std::allocator<std::pair<const std::basic_string<char, std::char_traits<char>, std::allocator<char> >, std::basic_string<char, std::char_traits<char>, std::allocator<char> > > > > > >, std::less<std::basic_string<char, std::char_traits<char>, std::allocator<char> > >, std::allocator<std::pair<const std::basic_string<char, std::char_traits<char>, std::allocator<char> >, std::map<std::basic_string<char, std::char_traits<char>, std::allocator<char> >, std::basic_string<char, std::char_traits<char>, std::allocator<char> >, std::less<std::basic_string<char, std::char_traits<char>, std::allocator<char> > >, std::allocator<std::pair<const std::basic_string<char, std::char_traits<char>, std::allocator<char> >, std::basic_string<char, std::char_traits<char>, std::allocator<char> > > > > > > >::_M_get_Node_allocator
FUNC 30a52 70 0 std::_Rb_tree<std::basic_string<char, std::char_traits<char>, std::allocator<char> >, std::pair<const std::basic_string<char, std::char_traits<char>, std::allocator<char> >, std::map<std::basic_string<char, std::char_traits<char>, std::allocator<char> >, std::basic_string<char, std::char_traits<char>, std::allocator<char> >, std::less<std::basic_string<char, std::char_traits<char>, std::allocator<char> > >, std::allocator<std::pair<const std::basic_string<char, std::char_traits<char>, std::allocator<char> >, std::basic_string<char, std::char_traits<char>, std::allocator<char> > > > > >, std::_Select1st<std::pair<const std::basic_string<char, std::char_traits<char>, std::allocator<char> >, std::map<std::basic_string<char, std::char_traits<char>, std::allocator<char> >, std::basic_string<char, std::char_traits<char>, std::allocator<char> >, std::less<std::basic_string<char, std::char_traits<char>, std::allocator<char> > >, std::allocator<std::pair<const std::basic_string<char, std::char_traits<char>, std::allocator<char> >, std::basic_string<char, std::char_traits<char>, std::allocator<char> > > > > > >, std::less<std::basic_string<char, std::char_traits<char>, std::allocator<char> > >, std::allocator<std::pair<const std::basic_string<char, std::char_traits<char>, std::allocator<char> >, std::map<std::basic_string<char, std::char_traits<char>, std::allocator<char> >, std::basic_string<char, std::char_traits<char>, std::allocator<char> >, std::less<std::basic_string<char, std::char_traits<char>, std::allocator<char> > >, std::allocator<std::pair<const std::basic_string<char, std::char_traits<char>, std::allocator<char> >, std::basic_string<char, std::char_traits<char>, std::allocator<char> > > > > > > >::_Rb_tree_impl<std::less<std::basic_string<char, std::char_traits<char>, std::allocator<char> > >, false>::_Rb_tree_impl
FUNC 30ac2 12 0 std::_Rb_tree<std::basic_string<char, std::char_traits<char>, std::allocator<char> >, std::pair<const std::basic_string<char, std::char_traits<char>, std::allocator<char> >, std::map<std::basic_string<char, std::char_traits<char>, std::allocator<char> >, std::basic_string<char, std::char_traits<char>, std::allocator<char> >, std::less<std::basic_string<char, std::char_traits<char>, std::allocator<char> > >, std::allocator<std::pair<const std::basic_string<char, std::char_traits<char>, std::allocator<char> >, std::basic_string<char, std::char_traits<char>, std::allocator<char> > > > > >, std::_Select1st<std::pair<const std::basic_string<char, std::char_traits<char>, std::allocator<char> >, std::map<std::basic_string<char, std::char_traits<char>, std::allocator<char> >, std::basic_string<char, std::char_traits<char>, std::allocator<char> >, std::less<std::basic_string<char, std::char_traits<char>, std::allocator<char> > >, std::allocator<std::pair<const std::basic_string<char, std::char_traits<char>, std::allocator<char> >, std::basic_string<char, std::char_traits<char>, std::allocator<char> > > > > > >, std::less<std::basic_string<char, std::char_traits<char>, std::allocator<char> > >, std::allocator<std::pair<const std::basic_string<char, std::char_traits<char>, std::allocator<char> >, std::map<std::basic_string<char, std::char_traits<char>, std::allocator<char> >, std::basic_string<char, std::char_traits<char>, std::allocator<char> >, std::less<std::basic_string<char, std::char_traits<char>, std::allocator<char> > >, std::allocator<std::pair<const std::basic_string<char, std::char_traits<char>, std::allocator<char> >, std::basic_string<char, std::char_traits<char>, std::allocator<char> > > > > > > >::_M_root
FUNC 30ad4 169 0 std::_Rb_tree<std::basic_string<char, std::char_traits<char>, std::allocator<char> >, std::pair<const std::basic_string<char, std::char_traits<char>, std::allocator<char> >, std::map<std::basic_string<char, std::char_traits<char>, std::allocator<char> >, std::basic_string<char, std::char_traits<char>, std::allocator<char> >, std::less<std::basic_string<char, std::char_traits<char>, std::allocator<char> > >, std::allocator<std::pair<const std::basic_string<char, std::char_traits<char>, std::allocator<char> >, std::basic_string<char, std::char_traits<char>, std::allocator<char> > > > > >, std::_Select1st<std::pair<const std::basic_string<char, std::char_traits<char>, std::allocator<char> >, std::map<std::basic_string<char, std::char_traits<char>, std::allocator<char> >, std::basic_string<char, std::char_traits<char>, std::allocator<char> >, std::less<std::basic_string<char, std::char_traits<char>, std::allocator<char> > >, std::allocator<std::pair<const std::basic_string<char, std::char_traits<char>, std::allocator<char> >, std::basic_string<char, std::char_traits<char>, std::allocator<char> > > > > > >, std::less<std::basic_string<char, std::char_traits<char>, std::allocator<char> > >, std::allocator<std::pair<const std::basic_string<char, std::char_traits<char>, std::allocator<char> >, std::map<std::basic_string<char, std::char_traits<char>, std::allocator<char> >, std::basic_string<char, std::char_traits<char>, std::allocator<char> >, std::less<std::basic_string<char, std::char_traits<char>, std::allocator<char> > >, std::allocator<std::pair<const std::basic_string<char, std::char_traits<char>, std::allocator<char> >, std::basic_string<char, std::char_traits<char>, std::allocator<char> > > > > > > >::_M_copy
FUNC 30c3e 12 0 std::_Rb_tree<std::basic_string<char, std::char_traits<char>, std::allocator<char> >, std::pair<const std::basic_string<char, std::char_traits<char>, std::allocator<char> >, std::map<std::basic_string<char, std::char_traits<char>, std::allocator<char> >, std::basic_string<char, std::char_traits<char>, std::allocator<char> >, std::less<std::basic_string<char, std::char_traits<char>, std::allocator<char> > >, std::allocator<std::pair<const std::basic_string<char, std::char_traits<char>, std::allocator<char> >, std::basic_string<char, std::char_traits<char>, std::allocator<char> > > > > >, std::_Select1st<std::pair<const std::basic_string<char, std::char_traits<char>, std::allocator<char> >, std::map<std::basic_string<char, std::char_traits<char>, std::allocator<char> >, std::basic_string<char, std::char_traits<char>, std::allocator<char> >, std::less<std::basic_string<char, std::char_traits<char>, std::allocator<char> > >, std::allocator<std::pair<const std::basic_string<char, std::char_traits<char>, std::allocator<char> >, std::basic_string<char, std::char_traits<char>, std::allocator<char> > > > > > >, std::less<std::basic_string<char, std::char_traits<char>, std::allocator<char> > >, std::allocator<std::pair<const std::basic_string<char, std::char_traits<char>, std::allocator<char> >, std::map<std::basic_string<char, std::char_traits<char>, std::allocator<char> >, std::basic_string<char, std::char_traits<char>, std::allocator<char> >, std::less<std::basic_string<char, std::char_traits<char>, std::allocator<char> > >, std::allocator<std::pair<const std::basic_string<char, std::char_traits<char>, std::allocator<char> >, std::basic_string<char, std::char_traits<char>, std::allocator<char> > > > > > > >::_M_begin
FUNC 30c50 1a 0 std::_Rb_tree<std::basic_string<char, std::char_traits<char>, std::allocator<char> >, std::pair<const std::basic_string<char, std::char_traits<char>, std::allocator<char> >, std::map<std::basic_string<char, std::char_traits<char>, std::allocator<char> >, std::basic_string<char, std::char_traits<char>, std::allocator<char> >, std::less<std::basic_string<char, std::char_traits<char>, std::allocator<char> > >, std::allocator<std::pair<const std::basic_string<char, std::char_traits<char>, std::allocator<char> >, std::basic_string<char, std::char_traits<char>, std::allocator<char> > > > > >, std::_Select1st<std::pair<const std::basic_string<char, std::char_traits<char>, std::allocator<char> >, std::map<std::basic_string<char, std::char_traits<char>, std::allocator<char> >, std::basic_string<char, std::char_traits<char>, std::allocator<char> >, std::less<std::basic_string<char, std::char_traits<char>, std::allocator<char> > >, std::allocator<std::pair<const std::basic_string<char, std::char_traits<char>, std::allocator<char> >, std::basic_string<char, std::char_traits<char>, std::allocator<char> > > > > > >, std::less<std::basic_string<char, std::char_traits<char>, std::allocator<char> > >, std::allocator<std::pair<const std::basic_string<char, std::char_traits<char>, std::allocator<char> >, std::map<std::basic_string<char, std::char_traits<char>, std::allocator<char> >, std::basic_string<char, std::char_traits<char>, std::allocator<char> >, std::less<std::basic_string<char, std::char_traits<char>, std::allocator<char> > >, std::allocator<std::pair<const std::basic_string<char, std::char_traits<char>, std::allocator<char> >, std::basic_string<char, std::char_traits<char>, std::allocator<char> > > > > > > >::_S_minimum
FUNC 30c6a 1a 0 std::_Rb_tree<std::basic_string<char, std::char_traits<char>, std::allocator<char> >, std::pair<const std::basic_string<char, std::char_traits<char>, std::allocator<char> >, std::map<std::basic_string<char, std::char_traits<char>, std::allocator<char> >, std::basic_string<char, std::char_traits<char>, std::allocator<char> >, std::less<std::basic_string<char, std::char_traits<char>, std::allocator<char> > >, std::allocator<std::pair<const std::basic_string<char, std::char_traits<char>, std::allocator<char> >, std::basic_string<char, std::char_traits<char>, std::allocator<char> > > > > >, std::_Select1st<std::pair<const std::basic_string<char, std::char_traits<char>, std::allocator<char> >, std::map<std::basic_string<char, std::char_traits<char>, std::allocator<char> >, std::basic_string<char, std::char_traits<char>, std::allocator<char> >, std::less<std::basic_string<char, std::char_traits<char>, std::allocator<char> > >, std::allocator<std::pair<const std::basic_string<char, std::char_traits<char>, std::allocator<char> >, std::basic_string<char, std::char_traits<char>, std::allocator<char> > > > > > >, std::less<std::basic_string<char, std::char_traits<char>, std::allocator<char> > >, std::allocator<std::pair<const std::basic_string<char, std::char_traits<char>, std::allocator<char> >, std::map<std::basic_string<char, std::char_traits<char>, std::allocator<char> >, std::basic_string<char, std::char_traits<char>, std::allocator<char> >, std::less<std::basic_string<char, std::char_traits<char>, std::allocator<char> > >, std::allocator<std::pair<const std::basic_string<char, std::char_traits<char>, std::allocator<char> >, std::basic_string<char, std::char_traits<char>, std::allocator<char> > > > > > > >::_S_maximum
FUNC 30c84 12 0 std::_Rb_tree<std::basic_string<char, std::char_traits<char>, std::allocator<char> >, std::pair<const std::basic_string<char, std::char_traits<char>, std::allocator<char> >, std::map<int, std::map<int, IEC104WF::stPointTable, std::less<int>, std::allocator<std::pair<const int, IEC104WF::stPointTable> > >, std::less<int>, std::allocator<std::pair<const int, std::map<int, IEC104WF::stPointTable, std::less<int>, std::allocator<std::pair<const int, IEC104WF::stPointTable> > > > > > >, std::_Select1st<std::pair<const std::basic_string<char, std::char_traits<char>, std::allocator<char> >, std::map<int, std::map<int, IEC104WF::stPointTable, std::less<int>, std::allocator<std::pair<const int, IEC104WF::stPointTable> > >, std::less<int>, std::allocator<std::pair<const int, std::map<int, IEC104WF::stPointTable, std::less<int>, std::allocator<std::pair<const int, IEC104WF::stPointTable> > > > > > > >, std::less<std::basic_string<char, std::char_traits<char>, std::allocator<char> > >, std::allocator<std::pair<const std::basic_string<char, std::char_traits<char>, std::allocator<char> >, std::map<int, std::map<int, IEC104WF::stPointTable, std::less<int>, std::allocator<std::pair<const int, IEC104WF::stPointTable> > >, std::less<int>, std::allocator<std::pair<const int, std::map<int, IEC104WF::stPointTable, std::less<int>, std::allocator<std::pair<const int, IEC104WF::stPointTable> > > > > > > > >::_M_end
FUNC 30c96 12 0 std::_Rb_tree<std::basic_string<char, std::char_traits<char>, std::allocator<char> >, std::pair<const std::basic_string<char, std::char_traits<char>, std::allocator<char> >, std::map<int, std::map<int, IEC104WF::stPointTable, std::less<int>, std::allocator<std::pair<const int, IEC104WF::stPointTable> > >, std::less<int>, std::allocator<std::pair<const int, std::map<int, IEC104WF::stPointTable, std::less<int>, std::allocator<std::pair<const int, IEC104WF::stPointTable> > > > > > >, std::_Select1st<std::pair<const std::basic_string<char, std::char_traits<char>, std::allocator<char> >, std::map<int, std::map<int, IEC104WF::stPointTable, std::less<int>, std::allocator<std::pair<const int, IEC104WF::stPointTable> > >, std::less<int>, std::allocator<std::pair<const int, std::map<int, IEC104WF::stPointTable, std::less<int>, std::allocator<std::pair<const int, IEC104WF::stPointTable> > > > > > > >, std::less<std::basic_string<char, std::char_traits<char>, std::allocator<char> > >, std::allocator<std::pair<const std::basic_string<char, std::char_traits<char>, std::allocator<char> >, std::map<int, std::map<int, IEC104WF::stPointTable, std::less<int>, std::allocator<std::pair<const int, IEC104WF::stPointTable> > >, std::less<int>, std::allocator<std::pair<const int, std::map<int, IEC104WF::stPointTable, std::less<int>, std::allocator<std::pair<const int, IEC104WF::stPointTable> > > > > > > > >::_M_leftmost
FUNC 30ca8 12 0 std::_Rb_tree<std::basic_string<char, std::char_traits<char>, std::allocator<char> >, std::pair<const std::basic_string<char, std::char_traits<char>, std::allocator<char> >, std::map<int, std::map<int, IEC104WF::stPointTable, std::less<int>, std::allocator<std::pair<const int, IEC104WF::stPointTable> > >, std::less<int>, std::allocator<std::pair<const int, std::map<int, IEC104WF::stPointTable, std::less<int>, std::allocator<std::pair<const int, IEC104WF::stPointTable> > > > > > >, std::_Select1st<std::pair<const std::basic_string<char, std::char_traits<char>, std::allocator<char> >, std::map<int, std::map<int, IEC104WF::stPointTable, std::less<int>, std::allocator<std::pair<const int, IEC104WF::stPointTable> > >, std::less<int>, std::allocator<std::pair<const int, std::map<int, IEC104WF::stPointTable, std::less<int>, std::allocator<std::pair<const int, IEC104WF::stPointTable> > > > > > > >, std::less<std::basic_string<char, std::char_traits<char>, std::allocator<char> > >, std::allocator<std::pair<const std::basic_string<char, std::char_traits<char>, std::allocator<char> >, std::map<int, std::map<int, IEC104WF::stPointTable, std::less<int>, std::allocator<std::pair<const int, IEC104WF::stPointTable> > >, std::less<int>, std::allocator<std::pair<const int, std::map<int, IEC104WF::stPointTable, std::less<int>, std::allocator<std::pair<const int, IEC104WF::stPointTable> > > > > > > > >::_M_root
FUNC 30cba 12 0 std::_Rb_tree<std::basic_string<char, std::char_traits<char>, std::allocator<char> >, std::pair<const std::basic_string<char, std::char_traits<char>, std::allocator<char> >, std::map<int, std::map<int, IEC104WF::stPointTable, std::less<int>, std::allocator<std::pair<const int, IEC104WF::stPointTable> > >, std::less<int>, std::allocator<std::pair<const int, std::map<int, IEC104WF::stPointTable, std::less<int>, std::allocator<std::pair<const int, IEC104WF::stPointTable> > > > > > >, std::_Select1st<std::pair<const std::basic_string<char, std::char_traits<char>, std::allocator<char> >, std::map<int, std::map<int, IEC104WF::stPointTable, std::less<int>, std::allocator<std::pair<const int, IEC104WF::stPointTable> > >, std::less<int>, std::allocator<std::pair<const int, std::map<int, IEC104WF::stPointTable, std::less<int>, std::allocator<std::pair<const int, IEC104WF::stPointTable> > > > > > > >, std::less<std::basic_string<char, std::char_traits<char>, std::allocator<char> > >, std::allocator<std::pair<const std::basic_string<char, std::char_traits<char>, std::allocator<char> >, std::map<int, std::map<int, IEC104WF::stPointTable, std::less<int>, std::allocator<std::pair<const int, IEC104WF::stPointTable> > >, std::less<int>, std::allocator<std::pair<const int, std::map<int, IEC104WF::stPointTable, std::less<int>, std::allocator<std::pair<const int, IEC104WF::stPointTable> > > > > > > > >::_M_rightmost
FUNC 30ccc 12 0 std::_Rb_tree<int, std::pair<const int, std::map<int, IEC104WF::stPointTable, std::less<int>, std::allocator<std::pair<const int, IEC104WF::stPointTable> > > >, std::_Select1st<std::pair<const int, std::map<int, IEC104WF::stPointTable, std::less<int>, std::allocator<std::pair<const int, IEC104WF::stPointTable> > > > >, std::less<int>, std::allocator<std::pair<const int, std::map<int, IEC104WF::stPointTable, std::less<int>, std::allocator<std::pair<const int, IEC104WF::stPointTable> > > > > >::_M_end
FUNC 30cde 12 0 std::_Rb_tree<int, std::pair<const int, std::map<int, IEC104WF::stPointTable, std::less<int>, std::allocator<std::pair<const int, IEC104WF::stPointTable> > > >, std::_Select1st<std::pair<const int, std::map<int, IEC104WF::stPointTable, std::less<int>, std::allocator<std::pair<const int, IEC104WF::stPointTable> > > > >, std::less<int>, std::allocator<std::pair<const int, std::map<int, IEC104WF::stPointTable, std::less<int>, std::allocator<std::pair<const int, IEC104WF::stPointTable> > > > > >::_M_leftmost
FUNC 30cf0 12 0 std::_Rb_tree<int, std::pair<const int, std::map<int, IEC104WF::stPointTable, std::less<int>, std::allocator<std::pair<const int, IEC104WF::stPointTable> > > >, std::_Select1st<std::pair<const int, std::map<int, IEC104WF::stPointTable, std::less<int>, std::allocator<std::pair<const int, IEC104WF::stPointTable> > > > >, std::less<int>, std::allocator<std::pair<const int, std::map<int, IEC104WF::stPointTable, std::less<int>, std::allocator<std::pair<const int, IEC104WF::stPointTable> > > > > >::_M_root
FUNC 30d02 12 0 std::_Rb_tree<int, std::pair<const int, std::map<int, IEC104WF::stPointTable, std::less<int>, std::allocator<std::pair<const int, IEC104WF::stPointTable> > > >, std::_Select1st<std::pair<const int, std::map<int, IEC104WF::stPointTable, std::less<int>, std::allocator<std::pair<const int, IEC104WF::stPointTable> > > > >, std::less<int>, std::allocator<std::pair<const int, std::map<int, IEC104WF::stPointTable, std::less<int>, std::allocator<std::pair<const int, IEC104WF::stPointTable> > > > > >::_M_rightmost
FUNC 30d14 12 0 std::_Rb_tree<int, std::pair<const int, IEC104WF::stPointTable>, std::_Select1st<std::pair<const int, IEC104WF::stPointTable> >, std::less<int>, std::allocator<std::pair<const int, IEC104WF::stPointTable> > >::_M_end
FUNC 30d26 12 0 std::_Rb_tree<int, std::pair<const int, IEC104WF::stPointTable>, std::_Select1st<std::pair<const int, IEC104WF::stPointTable> >, std::less<int>, std::allocator<std::pair<const int, IEC104WF::stPointTable> > >::_M_leftmost
FUNC 30d38 12 0 std::_Rb_tree<int, std::pair<const int, IEC104WF::stPointTable>, std::_Select1st<std::pair<const int, IEC104WF::stPointTable> >, std::less<int>, std::allocator<std::pair<const int, IEC104WF::stPointTable> > >::_M_root
FUNC 30d4a 12 0 std::_Rb_tree<int, std::pair<const int, IEC104WF::stPointTable>, std::_Select1st<std::pair<const int, IEC104WF::stPointTable> >, std::less<int>, std::allocator<std::pair<const int, IEC104WF::stPointTable> > >::_M_rightmost
FUNC 30d5c e 0 std::_Rb_tree<std::basic_string<char, std::char_traits<char>, std::allocator<char> >, std::pair<const std::basic_string<char, std::char_traits<char>, std::allocator<char> >, std::map<int, std::map<int, IEC104WF::stPointTable, std::less<int>, std::allocator<std::pair<const int, IEC104WF::stPointTable> > >, std::less<int>, std::allocator<std::pair<const int, std::map<int, IEC104WF::stPointTable, std::less<int>, std::allocator<std::pair<const int, IEC104WF::stPointTable> > > > > > >, std::_Select1st<std::pair<const std::basic_string<char, std::char_traits<char>, std::allocator<char> >, std::map<int, std::map<int, IEC104WF::stPointTable, std::less<int>, std::allocator<std::pair<const int, IEC104WF::stPointTable> > >, std::less<int>, std::allocator<std::pair<const int, std::map<int, IEC104WF::stPointTable, std::less<int>, std::allocator<std::pair<const int, IEC104WF::stPointTable> > > > > > > >, std::less<std::basic_string<char, std::char_traits<char>, std::allocator<char> > >, std::allocator<std::pair<const std::basic_string<char, std::char_traits<char>, std::allocator<char> >, std::map<int, std::map<int, IEC104WF::stPointTable, std::less<int>, std::allocator<std::pair<const int, IEC104WF::stPointTable> > >, std::less<int>, std::allocator<std::pair<const int, std::map<int, IEC104WF::stPointTable, std::less<int>, std::allocator<std::pair<const int, IEC104WF::stPointTable> > > > > > > > >::_M_get_Node_allocator
FUNC 30d6a 70 0 std::_Rb_tree<std::basic_string<char, std::char_traits<char>, std::allocator<char> >, std::pair<const std::basic_string<char, std::char_traits<char>, std::allocator<char> >, std::map<int, std::map<int, IEC104WF::stPointTable, std::less<int>, std::allocator<std::pair<const int, IEC104WF::stPointTable> > >, std::less<int>, std::allocator<std::pair<const int, std::map<int, IEC104WF::stPointTable, std::less<int>, std::allocator<std::pair<const int, IEC104WF::stPointTable> > > > > > >, std::_Select1st<std::pair<const std::basic_string<char, std::char_traits<char>, std::allocator<char> >, std::map<int, std::map<int, IEC104WF::stPointTable, std::less<int>, std::allocator<std::pair<const int, IEC104WF::stPointTable> > >, std::less<int>, std::allocator<std::pair<const int, std::map<int, IEC104WF::stPointTable, std::less<int>, std::allocator<std::pair<const int, IEC104WF::stPointTable> > > > > > > >, std::less<std::basic_string<char, std::char_traits<char>, std::allocator<char> > >, std::allocator<std::pair<const std::basic_string<char, std::char_traits<char>, std::allocator<char> >, std::map<int, std::map<int, IEC104WF::stPointTable, std::less<int>, std::allocator<std::pair<const int, IEC104WF::stPointTable> > >, std::less<int>, std::allocator<std::pair<const int, std::map<int, IEC104WF::stPointTable, std::less<int>, std::allocator<std::pair<const int, IEC104WF::stPointTable> > > > > > > > >::_Rb_tree_impl<std::less<std::basic_string<char, std::char_traits<char>, std::allocator<char> > >, false>::_Rb_tree_impl
FUNC 30dda 12 0 std::_Rb_tree<std::basic_string<char, std::char_traits<char>, std::allocator<char> >, std::pair<const std::basic_string<char, std::char_traits<char>, std::allocator<char> >, std::map<int, std::map<int, IEC104WF::stPointTable, std::less<int>, std::allocator<std::pair<const int, IEC104WF::stPointTable> > >, std::less<int>, std::allocator<std::pair<const int, std::map<int, IEC104WF::stPointTable, std::less<int>, std::allocator<std::pair<const int, IEC104WF::stPointTable> > > > > > >, std::_Select1st<std::pair<const std::basic_string<char, std::char_traits<char>, std::allocator<char> >, std::map<int, std::map<int, IEC104WF::stPointTable, std::less<int>, std::allocator<std::pair<const int, IEC104WF::stPointTable> > >, std::less<int>, std::allocator<std::pair<const int, std::map<int, IEC104WF::stPointTable, std::less<int>, std::allocator<std::pair<const int, IEC104WF::stPointTable> > > > > > > >, std::less<std::basic_string<char, std::char_traits<char>, std::allocator<char> > >, std::allocator<std::pair<const std::basic_string<char, std::char_traits<char>, std::allocator<char> >, std::map<int, std::map<int, IEC104WF::stPointTable, std::less<int>, std::allocator<std::pair<const int, IEC104WF::stPointTable> > >, std::less<int>, std::allocator<std::pair<const int, std::map<int, IEC104WF::stPointTable, std::less<int>, std::allocator<std::pair<const int, IEC104WF::stPointTable> > > > > > > > >::_M_root
FUNC 30dec 169 0 std::_Rb_tree<std::basic_string<char, std::char_traits<char>, std::allocator<char> >, std::pair<const std::basic_string<char, std::char_traits<char>, std::allocator<char> >, std::map<int, std::map<int, IEC104WF::stPointTable, std::less<int>, std::allocator<std::pair<const int, IEC104WF::stPointTable> > >, std::less<int>, std::allocator<std::pair<const int, std::map<int, IEC104WF::stPointTable, std::less<int>, std::allocator<std::pair<const int, IEC104WF::stPointTable> > > > > > >, std::_Select1st<std::pair<const std::basic_string<char, std::char_traits<char>, std::allocator<char> >, std::map<int, std::map<int, IEC104WF::stPointTable, std::less<int>, std::allocator<std::pair<const int, IEC104WF::stPointTable> > >, std::less<int>, std::allocator<std::pair<const int, std::map<int, IEC104WF::stPointTable, std::less<int>, std::allocator<std::pair<const int, IEC104WF::stPointTable> > > > > > > >, std::less<std::basic_string<char, std::char_traits<char>, std::allocator<char> > >, std::allocator<std::pair<const std::basic_string<char, std::char_traits<char>, std::allocator<char> >, std::map<int, std::map<int, IEC104WF::stPointTable, std::less<int>, std::allocator<std::pair<const int, IEC104WF::stPointTable> > >, std::less<int>, std::allocator<std::pair<const int, std::map<int, IEC104WF::stPointTable, std::less<int>, std::allocator<std::pair<const int, IEC104WF::stPointTable> > > > > > > > >::_M_copy
FUNC 30f56 12 0 std::_Rb_tree<std::basic_string<char, std::char_traits<char>, std::allocator<char> >, std::pair<const std::basic_string<char, std::char_traits<char>, std::allocator<char> >, std::map<int, std::map<int, IEC104WF::stPointTable, std::less<int>, std::allocator<std::pair<const int, IEC104WF::stPointTable> > >, std::less<int>, std::allocator<std::pair<const int, std::map<int, IEC104WF::stPointTable, std::less<int>, std::allocator<std::pair<const int, IEC104WF::stPointTable> > > > > > >, std::_Select1st<std::pair<const std::basic_string<char, std::char_traits<char>, std::allocator<char> >, std::map<int, std::map<int, IEC104WF::stPointTable, std::less<int>, std::allocator<std::pair<const int, IEC104WF::stPointTable> > >, std::less<int>, std::allocator<std::pair<const int, std::map<int, IEC104WF::stPointTable, std::less<int>, std::allocator<std::pair<const int, IEC104WF::stPointTable> > > > > > > >, std::less<std::basic_string<char, std::char_traits<char>, std::allocator<char> > >, std::allocator<std::pair<const std::basic_string<char, std::char_traits<char>, std::allocator<char> >, std::map<int, std::map<int, IEC104WF::stPointTable, std::less<int>, std::allocator<std::pair<const int, IEC104WF::stPointTable> > >, std::less<int>, std::allocator<std::pair<const int, std::map<int, IEC104WF::stPointTable, std::less<int>, std::allocator<std::pair<const int, IEC104WF::stPointTable> > > > > > > > >::_M_begin
FUNC 30f68 1a 0 std::_Rb_tree<std::basic_string<char, std::char_traits<char>, std::allocator<char> >, std::pair<const std::basic_string<char, std::char_traits<char>, std::allocator<char> >, std::map<int, std::map<int, IEC104WF::stPointTable, std::less<int>, std::allocator<std::pair<const int, IEC104WF::stPointTable> > >, std::less<int>, std::allocator<std::pair<const int, std::map<int, IEC104WF::stPointTable, std::less<int>, std::allocator<std::pair<const int, IEC104WF::stPointTable> > > > > > >, std::_Select1st<std::pair<const std::basic_string<char, std::char_traits<char>, std::allocator<char> >, std::map<int, std::map<int, IEC104WF::stPointTable, std::less<int>, std::allocator<std::pair<const int, IEC104WF::stPointTable> > >, std::less<int>, std::allocator<std::pair<const int, std::map<int, IEC104WF::stPointTable, std::less<int>, std::allocator<std::pair<const int, IEC104WF::stPointTable> > > > > > > >, std::less<std::basic_string<char, std::char_traits<char>, std::allocator<char> > >, std::allocator<std::pair<const std::basic_string<char, std::char_traits<char>, std::allocator<char> >, std::map<int, std::map<int, IEC104WF::stPointTable, std::less<int>, std::allocator<std::pair<const int, IEC104WF::stPointTable> > >, std::less<int>, std::allocator<std::pair<const int, std::map<int, IEC104WF::stPointTable, std::less<int>, std::allocator<std::pair<const int, IEC104WF::stPointTable> > > > > > > > >::_S_minimum
FUNC 30f82 1a 0 std::_Rb_tree<std::basic_string<char, std::char_traits<char>, std::allocator<char> >, std::pair<const std::basic_string<char, std::char_traits<char>, std::allocator<char> >, std::map<int, std::map<int, IEC104WF::stPointTable, std::less<int>, std::allocator<std::pair<const int, IEC104WF::stPointTable> > >, std::less<int>, std::allocator<std::pair<const int, std::map<int, IEC104WF::stPointTable, std::less<int>, std::allocator<std::pair<const int, IEC104WF::stPointTable> > > > > > >, std::_Select1st<std::pair<const std::basic_string<char, std::char_traits<char>, std::allocator<char> >, std::map<int, std::map<int, IEC104WF::stPointTable, std::less<int>, std::allocator<std::pair<const int, IEC104WF::stPointTable> > >, std::less<int>, std::allocator<std::pair<const int, std::map<int, IEC104WF::stPointTable, std::less<int>, std::allocator<std::pair<const int, IEC104WF::stPointTable> > > > > > > >, std::less<std::basic_string<char, std::char_traits<char>, std::allocator<char> > >, std::allocator<std::pair<const std::basic_string<char, std::char_traits<char>, std::allocator<char> >, std::map<int, std::map<int, IEC104WF::stPointTable, std::less<int>, std::allocator<std::pair<const int, IEC104WF::stPointTable> > >, std::less<int>, std::allocator<std::pair<const int, std::map<int, IEC104WF::stPointTable, std::less<int>, std::allocator<std::pair<const int, IEC104WF::stPointTable> > > > > > > > >::_S_maximum
FUNC 30f9c 1e 0 std::allocator<std::_List_node<std::basic_string<char, std::char_traits<char>, std::allocator<char> > > >::allocator<std::basic_string<char, std::char_traits<char>, std::allocator<char> > >
FUNC 30fba 3c 0 std::_List_base<std::basic_string<char, std::char_traits<char>, std::allocator<char> >, std::allocator<std::basic_string<char, std::char_traits<char>, std::allocator<char> > > >::_List_impl::_List_impl
FUNC 30ff6 19 0 std::_List_const_iterator<std::basic_string<char, std::char_traits<char>, std::allocator<char> > >::_List_const_iterator
FUNC 31010 22 0 std::_List_const_iterator<std::basic_string<char, std::char_traits<char>, std::allocator<char> > >::operator!=
FUNC 31032 1f 0 std::_List_const_iterator<std::basic_string<char, std::char_traits<char>, std::allocator<char> > >::operator++
FUNC 31052 15 0 std::_List_const_iterator<std::basic_string<char, std::char_traits<char>, std::allocator<char> > >::operator*
FUNC 31068 53 0 std::_Rb_tree<std::basic_string<char, std::char_traits<char>, std::allocator<char> >, std::pair<const std::basic_string<char, std::char_traits<char>, std::allocator<char> >, IEC61850_STRUCT::IED_61850>, std::_Select1st<std::pair<const std::basic_string<char, std::char_traits<char>, std::allocator<char> >, IEC61850_STRUCT::IED_61850> >, std::less<std::basic_string<char, std::char_traits<char>, std::allocator<char> > >, std::allocator<std::pair<const std::basic_string<char, std::char_traits<char>, std::allocator<char> >, IEC61850_STRUCT::IED_61850> > >::lower_bound
FUNC 310bc a 0 std::_Rb_tree<std::basic_string<char, std::char_traits<char>, std::allocator<char> >, std::pair<const std::basic_string<char, std::char_traits<char>, std::allocator<char> >, IEC61850_STRUCT::IED_61850>, std::_Select1st<std::pair<const std::basic_string<char, std::char_traits<char>, std::allocator<char> >, IEC61850_STRUCT::IED_61850> >, std::less<std::basic_string<char, std::char_traits<char>, std::allocator<char> > >, std::allocator<std::pair<const std::basic_string<char, std::char_traits<char>, std::allocator<char> >, IEC61850_STRUCT::IED_61850> > >::key_comp
FUNC 310c6 2c 0 std::_Rb_tree<std::basic_string<char, std::char_traits<char>, std::allocator<char> >, std::pair<const std::basic_string<char, std::char_traits<char>, std::allocator<char> >, IEC61850_STRUCT::IED_61850>, std::_Select1st<std::pair<const std::basic_string<char, std::char_traits<char>, std::allocator<char> >, IEC61850_STRUCT::IED_61850> >, std::less<std::basic_string<char, std::char_traits<char>, std::allocator<char> > >, std::allocator<std::pair<const std::basic_string<char, std::char_traits<char>, std::allocator<char> >, IEC61850_STRUCT::IED_61850> > >::end
FUNC 310f2 1c 0 std::_Rb_tree_const_iterator<std::pair<const std::basic_string<char, std::char_traits<char>, std::allocator<char> >, IEC61850_STRUCT::IED_61850> >::_Rb_tree_const_iterator
FUNC 3110e 4c0 0 std::_Rb_tree<std::basic_string<char, std::char_traits<char>, std::allocator<char> >, std::pair<const std::basic_string<char, std::char_traits<char>, std::allocator<char> >, IEC61850_STRUCT::IED_61850>, std::_Select1st<std::pair<const std::basic_string<char, std::char_traits<char>, std::allocator<char> >, IEC61850_STRUCT::IED_61850> >, std::less<std::basic_string<char, std::char_traits<char>, std::allocator<char> > >, std::allocator<std::pair<const std::basic_string<char, std::char_traits<char>, std::allocator<char> >, IEC61850_STRUCT::IED_61850> > >::_M_insert_unique_
FUNC 315ce 53 0 std::_Rb_tree<int, std::pair<const int, IEC104WF::stPointTable>, std::_Select1st<std::pair<const int, IEC104WF::stPointTable> >, std::less<int>, std::allocator<std::pair<const int, IEC104WF::stPointTable> > >::lower_bound
FUNC 31622 a 0 std::_Rb_tree<int, std::pair<const int, IEC104WF::stPointTable>, std::_Select1st<std::pair<const int, IEC104WF::stPointTable> >, std::less<int>, std::allocator<std::pair<const int, IEC104WF::stPointTable> > >::key_comp
FUNC 3162c 2c 0 std::_Rb_tree<int, std::pair<const int, IEC104WF::stPointTable>, std::_Select1st<std::pair<const int, IEC104WF::stPointTable> >, std::less<int>, std::allocator<std::pair<const int, IEC104WF::stPointTable> > >::end
FUNC 31658 1c 0 std::_Rb_tree_const_iterator<std::pair<const int, IEC104WF::stPointTable> >::_Rb_tree_const_iterator
FUNC 31674 4c0 0 std::_Rb_tree<int, std::pair<const int, IEC104WF::stPointTable>, std::_Select1st<std::pair<const int, IEC104WF::stPointTable> >, std::less<int>, std::allocator<std::pair<const int, IEC104WF::stPointTable> > >::_M_insert_unique_
FUNC 31b34 53 0 std::_Rb_tree<int, std::pair<const int, std::map<int, IEC104WF::stPointTable, std::less<int>, std::allocator<std::pair<const int, IEC104WF::stPointTable> > > >, std::_Select1st<std::pair<const int, std::map<int, IEC104WF::stPointTable, std::less<int>, std::allocator<std::pair<const int, IEC104WF::stPointTable> > > > >, std::less<int>, std::allocator<std::pair<const int, std::map<int, IEC104WF::stPointTable, std::less<int>, std::allocator<std::pair<const int, IEC104WF::stPointTable> > > > > >::lower_bound
FUNC 31b88 a 0 std::_Rb_tree<int, std::pair<const int, std::map<int, IEC104WF::stPointTable, std::less<int>, std::allocator<std::pair<const int, IEC104WF::stPointTable> > > >, std::_Select1st<std::pair<const int, std::map<int, IEC104WF::stPointTable, std::less<int>, std::allocator<std::pair<const int, IEC104WF::stPointTable> > > > >, std::less<int>, std::allocator<std::pair<const int, std::map<int, IEC104WF::stPointTable, std::less<int>, std::allocator<std::pair<const int, IEC104WF::stPointTable> > > > > >::key_comp
FUNC 31b92 2c 0 std::_Rb_tree<int, std::pair<const int, std::map<int, IEC104WF::stPointTable, std::less<int>, std::allocator<std::pair<const int, IEC104WF::stPointTable> > > >, std::_Select1st<std::pair<const int, std::map<int, IEC104WF::stPointTable, std::less<int>, std::allocator<std::pair<const int, IEC104WF::stPointTable> > > > >, std::less<int>, std::allocator<std::pair<const int, std::map<int, IEC104WF::stPointTable, std::less<int>, std::allocator<std::pair<const int, IEC104WF::stPointTable> > > > > >::end
FUNC 31bbe 25 0 std::map<int, IEC104WF::stPointTable, std::less<int>, std::allocator<std::pair<const int, IEC104WF::stPointTable> > >::map
FUNC 31be4 1c 0 std::_Rb_tree_const_iterator<std::pair<const int, std::map<int, IEC104WF::stPointTable, std::less<int>, std::allocator<std::pair<const int, IEC104WF::stPointTable> > > > >::_Rb_tree_const_iterator
FUNC 31c00 4c0 0 std::_Rb_tree<int, std::pair<const int, std::map<int, IEC104WF::stPointTable, std::less<int>, std::allocator<std::pair<const int, IEC104WF::stPointTable> > > >, std::_Select1st<std::pair<const int, std::map<int, IEC104WF::stPointTable, std::less<int>, std::allocator<std::pair<const int, IEC104WF::stPointTable> > > > >, std::less<int>, std::allocator<std::pair<const int, std::map<int, IEC104WF::stPointTable, std::less<int>, std::allocator<std::pair<const int, IEC104WF::stPointTable> > > > > >::_M_insert_unique_
FUNC 320c0 12 0 std::_Rb_tree<int, std::pair<const int, IEC104WF::stPointTable>, std::_Select1st<std::pair<const int, IEC104WF::stPointTable> >, std::less<int>, std::allocator<std::pair<const int, IEC104WF::stPointTable> > >::_M_root
FUNC 320d2 169 0 std::_Rb_tree<int, std::pair<const int, IEC104WF::stPointTable>, std::_Select1st<std::pair<const int, IEC104WF::stPointTable> >, std::less<int>, std::allocator<std::pair<const int, IEC104WF::stPointTable> > >::_M_copy
FUNC 3223c 12 0 std::_Rb_tree<int, std::pair<const int, IEC104WF::stPointTable>, std::_Select1st<std::pair<const int, IEC104WF::stPointTable> >, std::less<int>, std::allocator<std::pair<const int, IEC104WF::stPointTable> > >::_M_begin
FUNC 3224e 1a 0 std::_Rb_tree<int, std::pair<const int, IEC104WF::stPointTable>, std::_Select1st<std::pair<const int, IEC104WF::stPointTable> >, std::less<int>, std::allocator<std::pair<const int, IEC104WF::stPointTable> > >::_S_minimum
FUNC 32268 1a 0 std::_Rb_tree<int, std::pair<const int, IEC104WF::stPointTable>, std::_Select1st<std::pair<const int, IEC104WF::stPointTable> >, std::less<int>, std::allocator<std::pair<const int, IEC104WF::stPointTable> > >::_S_maximum
FUNC 32282 53 0 std::_Rb_tree<std::basic_string<char, std::char_traits<char>, std::allocator<char> >, std::pair<const std::basic_string<char, std::char_traits<char>, std::allocator<char> >, std::map<int, std::map<int, IEC104WF::stPointTable, std::less<int>, std::allocator<std::pair<const int, IEC104WF::stPointTable> > >, std::less<int>, std::allocator<std::pair<const int, std::map<int, IEC104WF::stPointTable, std::less<int>, std::allocator<std::pair<const int, IEC104WF::stPointTable> > > > > > >, std::_Select1st<std::pair<const std::basic_string<char, std::char_traits<char>, std::allocator<char> >, std::map<int, std::map<int, IEC104WF::stPointTable, std::less<int>, std::allocator<std::pair<const int, IEC104WF::stPointTable> > >, std::less<int>, std::allocator<std::pair<const int, std::map<int, IEC104WF::stPointTable, std::less<int>, std::allocator<std::pair<const int, IEC104WF::stPointTable> > > > > > > >, std::less<std::basic_string<char, std::char_traits<char>, std::allocator<char> > >, std::allocator<std::pair<const std::basic_string<char, std::char_traits<char>, std::allocator<char> >, std::map<int, std::map<int, IEC104WF::stPointTable, std::less<int>, std::allocator<std::pair<const int, IEC104WF::stPointTable> > >, std::less<int>, std::allocator<std::pair<const int, std::map<int, IEC104WF::stPointTable, std::less<int>, std::allocator<std::pair<const int, IEC104WF::stPointTable> > > > > > > > >::lower_bound
FUNC 322d6 a 0 std::_Rb_tree<std::basic_string<char, std::char_traits<char>, std::allocator<char> >, std::pair<const std::basic_string<char, std::char_traits<char>, std::allocator<char> >, std::map<int, std::map<int, IEC104WF::stPointTable, std::less<int>, std::allocator<std::pair<const int, IEC104WF::stPointTable> > >, std::less<int>, std::allocator<std::pair<const int, std::map<int, IEC104WF::stPointTable, std::less<int>, std::allocator<std::pair<const int, IEC104WF::stPointTable> > > > > > >, std::_Select1st<std::pair<const std::basic_string<char, std::char_traits<char>, std::allocator<char> >, std::map<int, std::map<int, IEC104WF::stPointTable, std::less<int>, std::allocator<std::pair<const int, IEC104WF::stPointTable> > >, std::less<int>, std::allocator<std::pair<const int, std::map<int, IEC104WF::stPointTable, std::less<int>, std::allocator<std::pair<const int, IEC104WF::stPointTable> > > > > > > >, std::less<std::basic_string<char, std::char_traits<char>, std::allocator<char> > >, std::allocator<std::pair<const std::basic_string<char, std::char_traits<char>, std::allocator<char> >, std::map<int, std::map<int, IEC104WF::stPointTable, std::less<int>, std::allocator<std::pair<const int, IEC104WF::stPointTable> > >, std::less<int>, std::allocator<std::pair<const int, std::map<int, IEC104WF::stPointTable, std::less<int>, std::allocator<std::pair<const int, IEC104WF::stPointTable> > > > > > > > >::key_comp
FUNC 322e0 2c 0 std::_Rb_tree<std::basic_string<char, std::char_traits<char>, std::allocator<char> >, std::pair<const std::basic_string<char, std::char_traits<char>, std::allocator<char> >, std::map<int, std::map<int, IEC104WF::stPointTable, std::less<int>, std::allocator<std::pair<const int, IEC104WF::stPointTable> > >, std::less<int>, std::allocator<std::pair<const int, std::map<int, IEC104WF::stPointTable, std::less<int>, std::allocator<std::pair<const int, IEC104WF::stPointTable> > > > > > >, std::_Select1st<std::pair<const std::basic_string<char, std::char_traits<char>, std::allocator<char> >, std::map<int, std::map<int, IEC104WF::stPointTable, std::less<int>, std::allocator<std::pair<const int, IEC104WF::stPointTable> > >, std::less<int>, std::allocator<std::pair<const int, std::map<int, IEC104WF::stPointTable, std::less<int>, std::allocator<std::pair<const int, IEC104WF::stPointTable> > > > > > > >, std::less<std::basic_string<char, std::char_traits<char>, std::allocator<char> > >, std::allocator<std::pair<const std::basic_string<char, std::char_traits<char>, std::allocator<char> >, std::map<int, std::map<int, IEC104WF::stPointTable, std::less<int>, std::allocator<std::pair<const int, IEC104WF::stPointTable> > >, std::less<int>, std::allocator<std::pair<const int, std::map<int, IEC104WF::stPointTable, std::less<int>, std::allocator<std::pair<const int, IEC104WF::stPointTable> > > > > > > > >::end
FUNC 3230c 25 0 std::map<int, std::map<int, IEC104WF::stPointTable, std::less<int>, std::allocator<std::pair<const int, IEC104WF::stPointTable> > >, std::less<int>, std::allocator<std::pair<const int, std::map<int, IEC104WF::stPointTable, std::less<int>, std::allocator<std::pair<const int, IEC104WF::stPointTable> > > > > >::map
FUNC 32332 1c 0 std::_Rb_tree_const_iterator<std::pair<const std::basic_string<char, std::char_traits<char>, std::allocator<char> >, std::map<int, std::map<int, IEC104WF::stPointTable, std::less<int>, std::allocator<std::pair<const int, IEC104WF::stPointTable> > >, std::less<int>, std::allocator<std::pair<const int, std::map<int, IEC104WF::stPointTable, std::less<int>, std::allocator<std::pair<const int, IEC104WF::stPointTable> > > > > > > >::_Rb_tree_const_iterator
FUNC 3234e 4c0 0 std::_Rb_tree<std::basic_string<char, std::char_traits<char>, std::allocator<char> >, std::pair<const std::basic_string<char, std::char_traits<char>, std::allocator<char> >, std::map<int, std::map<int, IEC104WF::stPointTable, std::less<int>, std::allocator<std::pair<const int, IEC104WF::stPointTable> > >, std::less<int>, std::allocator<std::pair<const int, std::map<int, IEC104WF::stPointTable, std::less<int>, std::allocator<std::pair<const int, IEC104WF::stPointTable> > > > > > >, std::_Select1st<std::pair<const std::basic_string<char, std::char_traits<char>, std::allocator<char> >, std::map<int, std::map<int, IEC104WF::stPointTable, std::less<int>, std::allocator<std::pair<const int, IEC104WF::stPointTable> > >, std::less<int>, std::allocator<std::pair<const int, std::map<int, IEC104WF::stPointTable, std::less<int>, std::allocator<std::pair<const int, IEC104WF::stPointTable> > > > > > > >, std::less<std::basic_string<char, std::char_traits<char>, std::allocator<char> > >, std::allocator<std::pair<const std::basic_string<char, std::char_traits<char>, std::allocator<char> >, std::map<int, std::map<int, IEC104WF::stPointTable, std::less<int>, std::allocator<std::pair<const int, IEC104WF::stPointTable> > >, std::less<int>, std::allocator<std::pair<const int, std::map<int, IEC104WF::stPointTable, std::less<int>, std::allocator<std::pair<const int, IEC104WF::stPointTable> > > > > > > > >::_M_insert_unique_
FUNC 3280e 12 0 std::_Rb_tree<int, std::pair<const int, std::map<int, IEC104WF::stPointTable, std::less<int>, std::allocator<std::pair<const int, IEC104WF::stPointTable> > > >, std::_Select1st<std::pair<const int, std::map<int, IEC104WF::stPointTable, std::less<int>, std::allocator<std::pair<const int, IEC104WF::stPointTable> > > > >, std::less<int>, std::allocator<std::pair<const int, std::map<int, IEC104WF::stPointTable, std::less<int>, std::allocator<std::pair<const int, IEC104WF::stPointTable> > > > > >::_M_root
FUNC 32820 169 0 std::_Rb_tree<int, std::pair<const int, std::map<int, IEC104WF::stPointTable, std::less<int>, std::allocator<std::pair<const int, IEC104WF::stPointTable> > > >, std::_Select1st<std::pair<const int, std::map<int, IEC104WF::stPointTable, std::less<int>, std::allocator<std::pair<const int, IEC104WF::stPointTable> > > > >, std::less<int>, std::allocator<std::pair<const int, std::map<int, IEC104WF::stPointTable, std::less<int>, std::allocator<std::pair<const int, IEC104WF::stPointTable> > > > > >::_M_copy
FUNC 3298a 12 0 std::_Rb_tree<int, std::pair<const int, std::map<int, IEC104WF::stPointTable, std::less<int>, std::allocator<std::pair<const int, IEC104WF::stPointTable> > > >, std::_Select1st<std::pair<const int, std::map<int, IEC104WF::stPointTable, std::less<int>, std::allocator<std::pair<const int, IEC104WF::stPointTable> > > > >, std::less<int>, std::allocator<std::pair<const int, std::map<int, IEC104WF::stPointTable, std::less<int>, std::allocator<std::pair<const int, IEC104WF::stPointTable> > > > > >::_M_begin
FUNC 3299c 1a 0 std::_Rb_tree<int, std::pair<const int, std::map<int, IEC104WF::stPointTable, std::less<int>, std::allocator<std::pair<const int, IEC104WF::stPointTable> > > >, std::_Select1st<std::pair<const int, std::map<int, IEC104WF::stPointTable, std::less<int>, std::allocator<std::pair<const int, IEC104WF::stPointTable> > > > >, std::less<int>, std::allocator<std::pair<const int, std::map<int, IEC104WF::stPointTable, std::less<int>, std::allocator<std::pair<const int, IEC104WF::stPointTable> > > > > >::_S_minimum
FUNC 329b6 1a 0 std::_Rb_tree<int, std::pair<const int, std::map<int, IEC104WF::stPointTable, std::less<int>, std::allocator<std::pair<const int, IEC104WF::stPointTable> > > >, std::_Select1st<std::pair<const int, std::map<int, IEC104WF::stPointTable, std::less<int>, std::allocator<std::pair<const int, IEC104WF::stPointTable> > > > >, std::less<int>, std::allocator<std::pair<const int, std::map<int, IEC104WF::stPointTable, std::less<int>, std::allocator<std::pair<const int, IEC104WF::stPointTable> > > > > >::_S_maximum
FUNC 329d0 53 0 std::_Rb_tree<std::basic_string<char, std::char_traits<char>, std::allocator<char> >, std::pair<const std::basic_string<char, std::char_traits<char>, std::allocator<char> >, IEC103::stConfigParam>, std::_Select1st<std::pair<const std::basic_string<char, std::char_traits<char>, std::allocator<char> >, IEC103::stConfigParam> >, std::less<std::basic_string<char, std::char_traits<char>, std::allocator<char> > >, std::allocator<std::pair<const std::basic_string<char, std::char_traits<char>, std::allocator<char> >, IEC103::stConfigParam> > >::lower_bound
FUNC 32a24 a 0 std::_Rb_tree<std::basic_string<char, std::char_traits<char>, std::allocator<char> >, std::pair<const std::basic_string<char, std::char_traits<char>, std::allocator<char> >, IEC103::stConfigParam>, std::_Select1st<std::pair<const std::basic_string<char, std::char_traits<char>, std::allocator<char> >, IEC103::stConfigParam> >, std::less<std::basic_string<char, std::char_traits<char>, std::allocator<char> > >, std::allocator<std::pair<const std::basic_string<char, std::char_traits<char>, std::allocator<char> >, IEC103::stConfigParam> > >::key_comp
FUNC 32a2e 2c 0 std::_Rb_tree<std::basic_string<char, std::char_traits<char>, std::allocator<char> >, std::pair<const std::basic_string<char, std::char_traits<char>, std::allocator<char> >, IEC103::stConfigParam>, std::_Select1st<std::pair<const std::basic_string<char, std::char_traits<char>, std::allocator<char> >, IEC103::stConfigParam> >, std::less<std::basic_string<char, std::char_traits<char>, std::allocator<char> > >, std::allocator<std::pair<const std::basic_string<char, std::char_traits<char>, std::allocator<char> >, IEC103::stConfigParam> > >::end
FUNC 32a5a 1c 0 std::_Rb_tree_const_iterator<std::pair<const std::basic_string<char, std::char_traits<char>, std::allocator<char> >, IEC103::stConfigParam> >::_Rb_tree_const_iterator
FUNC 32a76 4c0 0 std::_Rb_tree<std::basic_string<char, std::char_traits<char>, std::allocator<char> >, std::pair<const std::basic_string<char, std::char_traits<char>, std::allocator<char> >, IEC103::stConfigParam>, std::_Select1st<std::pair<const std::basic_string<char, std::char_traits<char>, std::allocator<char> >, IEC103::stConfigParam> >, std::less<std::basic_string<char, std::char_traits<char>, std::allocator<char> > >, std::allocator<std::pair<const std::basic_string<char, std::char_traits<char>, std::allocator<char> >, IEC103::stConfigParam> > >::_M_insert_unique_
FUNC 32f36 53 0 std::_Rb_tree<std::basic_string<char, std::char_traits<char>, std::allocator<char> >, std::pair<const std::basic_string<char, std::char_traits<char>, std::allocator<char> >, std::map<std::basic_string<char, std::char_traits<char>, std::allocator<char> >, std::basic_string<char, std::char_traits<char>, std::allocator<char> >, std::less<std::basic_string<char, std::char_traits<char>, std::allocator<char> > >, std::allocator<std::pair<const std::basic_string<char, std::char_traits<char>, std::allocator<char> >, std::basic_string<char, std::char_traits<char>, std::allocator<char> > > > > >, std::_Select1st<std::pair<const std::basic_string<char, std::char_traits<char>, std::allocator<char> >, std::map<std::basic_string<char, std::char_traits<char>, std::allocator<char> >, std::basic_string<char, std::char_traits<char>, std::allocator<char> >, std::less<std::basic_string<char, std::char_traits<char>, std::allocator<char> > >, std::allocator<std::pair<const std::basic_string<char, std::char_traits<char>, std::allocator<char> >, std::basic_string<char, std::char_traits<char>, std::allocator<char> > > > > > >, std::less<std::basic_string<char, std::char_traits<char>, std::allocator<char> > >, std::allocator<std::pair<const std::basic_string<char, std::char_traits<char>, std::allocator<char> >, std::map<std::basic_string<char, std::char_traits<char>, std::allocator<char> >, std::basic_string<char, std::char_traits<char>, std::allocator<char> >, std::less<std::basic_string<char, std::char_traits<char>, std::allocator<char> > >, std::allocator<std::pair<const std::basic_string<char, std::char_traits<char>, std::allocator<char> >, std::basic_string<char, std::char_traits<char>, std::allocator<char> > > > > > > >::lower_bound
FUNC 32f8a a 0 std::_Rb_tree<std::basic_string<char, std::char_traits<char>, std::allocator<char> >, std::pair<const std::basic_string<char, std::char_traits<char>, std::allocator<char> >, std::map<std::basic_string<char, std::char_traits<char>, std::allocator<char> >, std::basic_string<char, std::char_traits<char>, std::allocator<char> >, std::less<std::basic_string<char, std::char_traits<char>, std::allocator<char> > >, std::allocator<std::pair<const std::basic_string<char, std::char_traits<char>, std::allocator<char> >, std::basic_string<char, std::char_traits<char>, std::allocator<char> > > > > >, std::_Select1st<std::pair<const std::basic_string<char, std::char_traits<char>, std::allocator<char> >, std::map<std::basic_string<char, std::char_traits<char>, std::allocator<char> >, std::basic_string<char, std::char_traits<char>, std::allocator<char> >, std::less<std::basic_string<char, std::char_traits<char>, std::allocator<char> > >, std::allocator<std::pair<const std::basic_string<char, std::char_traits<char>, std::allocator<char> >, std::basic_string<char, std::char_traits<char>, std::allocator<char> > > > > > >, std::less<std::basic_string<char, std::char_traits<char>, std::allocator<char> > >, std::allocator<std::pair<const std::basic_string<char, std::char_traits<char>, std::allocator<char> >, std::map<std::basic_string<char, std::char_traits<char>, std::allocator<char> >, std::basic_string<char, std::char_traits<char>, std::allocator<char> >, std::less<std::basic_string<char, std::char_traits<char>, std::allocator<char> > >, std::allocator<std::pair<const std::basic_string<char, std::char_traits<char>, std::allocator<char> >, std::basic_string<char, std::char_traits<char>, std::allocator<char> > > > > > > >::key_comp
FUNC 32f94 2c 0 std::_Rb_tree<std::basic_string<char, std::char_traits<char>, std::allocator<char> >, std::pair<const std::basic_string<char, std::char_traits<char>, std::allocator<char> >, std::map<std::basic_string<char, std::char_traits<char>, std::allocator<char> >, std::basic_string<char, std::char_traits<char>, std::allocator<char> >, std::less<std::basic_string<char, std::char_traits<char>, std::allocator<char> > >, std::allocator<std::pair<const std::basic_string<char, std::char_traits<char>, std::allocator<char> >, std::basic_string<char, std::char_traits<char>, std::allocator<char> > > > > >, std::_Select1st<std::pair<const std::basic_string<char, std::char_traits<char>, std::allocator<char> >, std::map<std::basic_string<char, std::char_traits<char>, std::allocator<char> >, std::basic_string<char, std::char_traits<char>, std::allocator<char> >, std::less<std::basic_string<char, std::char_traits<char>, std::allocator<char> > >, std::allocator<std::pair<const std::basic_string<char, std::char_traits<char>, std::allocator<char> >, std::basic_string<char, std::char_traits<char>, std::allocator<char> > > > > > >, std::less<std::basic_string<char, std::char_traits<char>, std::allocator<char> > >, std::allocator<std::pair<const std::basic_string<char, std::char_traits<char>, std::allocator<char> >, std::map<std::basic_string<char, std::char_traits<char>, std::allocator<char> >, std::basic_string<char, std::char_traits<char>, std::allocator<char> >, std::less<std::basic_string<char, std::char_traits<char>, std::allocator<char> > >, std::allocator<std::pair<const std::basic_string<char, std::char_traits<char>, std::allocator<char> >, std::basic_string<char, std::char_traits<char>, std::allocator<char> > > > > > > >::end
FUNC 32fc0 1c 0 std::_Rb_tree_const_iterator<std::pair<const std::basic_string<char, std::char_traits<char>, std::allocator<char> >, std::map<std::basic_string<char, std::char_traits<char>, std::allocator<char> >, std::basic_string<char, std::char_traits<char>, std::allocator<char> >, std::less<std::basic_string<char, std::char_traits<char>, std::allocator<char> > >, std::allocator<std::pair<const std::basic_string<char, std::char_traits<char>, std::allocator<char> >, std::basic_string<char, std::char_traits<char>, std::allocator<char> > > > > > >::_Rb_tree_const_iterator
FUNC 32fdc 4c0 0 std::_Rb_tree<std::basic_string<char, std::char_traits<char>, std::allocator<char> >, std::pair<const std::basic_string<char, std::char_traits<char>, std::allocator<char> >, std::map<std::basic_string<char, std::char_traits<char>, std::allocator<char> >, std::basic_string<char, std::char_traits<char>, std::allocator<char> >, std::less<std::basic_string<char, std::char_traits<char>, std::allocator<char> > >, std::allocator<std::pair<const std::basic_string<char, std::char_traits<char>, std::allocator<char> >, std::basic_string<char, std::char_traits<char>, std::allocator<char> > > > > >, std::_Select1st<std::pair<const std::basic_string<char, std::char_traits<char>, std::allocator<char> >, std::map<std::basic_string<char, std::char_traits<char>, std::allocator<char> >, std::basic_string<char, std::char_traits<char>, std::allocator<char> >, std::less<std::basic_string<char, std::char_traits<char>, std::allocator<char> > >, std::allocator<std::pair<const std::basic_string<char, std::char_traits<char>, std::allocator<char> >, std::basic_string<char, std::char_traits<char>, std::allocator<char> > > > > > >, std::less<std::basic_string<char, std::char_traits<char>, std::allocator<char> > >, std::allocator<std::pair<const std::basic_string<char, std::char_traits<char>, std::allocator<char> >, std::map<std::basic_string<char, std::char_traits<char>, std::allocator<char> >, std::basic_string<char, std::char_traits<char>, std::allocator<char> >, std::less<std::basic_string<char, std::char_traits<char>, std::allocator<char> > >, std::allocator<std::pair<const std::basic_string<char, std::char_traits<char>, std::allocator<char> >, std::basic_string<char, std::char_traits<char>, std::allocator<char> > > > > > > >::_M_insert_unique_
FUNC 3349c 19 0 std::_List_iterator<std::basic_string<char, std::char_traits<char>, std::allocator<char> > >::_List_iterator
FUNC 334b6 bb 0 std::list<std::basic_string<char, std::char_traits<char>, std::allocator<char> >, std::allocator<std::basic_string<char, std::char_traits<char>, std::allocator<char> > > >::_M_create_node
FUNC 33572 1a 0 std::allocator<std::_Rb_tree_node<std::pair<const std::basic_string<char, std::char_traits<char>, std::allocator<char> >, IEC61850_STRUCT::IED_61850> > >::allocator
FUNC 3358c 41 0 std::_Rb_tree<std::basic_string<char, std::char_traits<char>, std::allocator<char> >, std::pair<const std::basic_string<char, std::char_traits<char>, std::allocator<char> >, IEC61850_STRUCT::IED_61850>, std::_Select1st<std::pair<const std::basic_string<char, std::char_traits<char>, std::allocator<char> >, IEC61850_STRUCT::IED_61850> >, std::less<std::basic_string<char, std::char_traits<char>, std::allocator<char> > >, std::allocator<std::pair<const std::basic_string<char, std::char_traits<char>, std::allocator<char> >, IEC61850_STRUCT::IED_61850> > >::_Rb_tree_impl<std::less<std::basic_string<char, std::char_traits<char>, std::allocator<char> > >, false>::_M_initialize
FUNC 335ce 3b 0 std::_Rb_tree<std::basic_string<char, std::char_traits<char>, std::allocator<char> >, std::pair<const std::basic_string<char, std::char_traits<char>, std::allocator<char> >, IEC61850_STRUCT::IED_61850>, std::_Select1st<std::pair<const std::basic_string<char, std::char_traits<char>, std::allocator<char> >, IEC61850_STRUCT::IED_61850> >, std::less<std::basic_string<char, std::char_traits<char>, std::allocator<char> > >, std::allocator<std::pair<const std::basic_string<char, std::char_traits<char>, std::allocator<char> >, IEC61850_STRUCT::IED_61850> > >::get_allocator
FUNC 3360a 1a 0 std::allocator<std::pair<const std::basic_string<char, std::char_traits<char>, std::allocator<char> >, IEC61850_STRUCT::IED_61850> >::~allocator
FUNC 33624 1e 0 __gnu_cxx::new_allocator<std::pair<const std::basic_string<char, std::char_traits<char>, std::allocator<char> >, IEC61850_STRUCT::IED_61850> >::destroy
FUNC 33642 2a 0 std::_Rb_tree<std::basic_string<char, std::char_traits<char>, std::allocator<char> >, std::pair<const std::basic_string<char, std::char_traits<char>, std::allocator<char> >, IEC61850_STRUCT::IED_61850>, std::_Select1st<std::pair<const std::basic_string<char, std::char_traits<char>, std::allocator<char> >, IEC61850_STRUCT::IED_61850> >, std::less<std::basic_string<char, std::char_traits<char>, std::allocator<char> > >, std::allocator<std::pair<const std::basic_string<char, std::char_traits<char>, std::allocator<char> >, IEC61850_STRUCT::IED_61850> > >::_M_put_node
FUNC 3366c 1a 0 std::allocator<std::_List_node<std::basic_string<char, std::char_traits<char>, std::allocator<char> > > >::allocator
FUNC 33686 25 0 std::allocator<std::basic_string<char, std::char_traits<char>, std::allocator<char> > >::allocator
FUNC 336ac 22 0 __gnu_cxx::new_allocator<std::_List_node<std::basic_string<char, std::char_traits<char>, std::allocator<char> > > >::deallocate
FUNC 336ce 1a 0 std::allocator<std::_Rb_tree_node<std::pair<const std::basic_string<char, std::char_traits<char>, std::allocator<char> >, std::map<int, std::map<int, IEC104WF::stPointTable, std::less<int>, std::allocator<std::pair<const int, IEC104WF::stPointTable> > >, std::less<int>, std::allocator<std::pair<const int, std::map<int, IEC104WF::stPointTable, std::less<int>, std::allocator<std::pair<const int, IEC104WF::stPointTable> > > > > > > > >::allocator
FUNC 336e8 41 0 std::_Rb_tree<std::basic_string<char, std::char_traits<char>, std::allocator<char> >, std::pair<const std::basic_string<char, std::char_traits<char>, std::allocator<char> >, std::map<int, std::map<int, IEC104WF::stPointTable, std::less<int>, std::allocator<std::pair<const int, IEC104WF::stPointTable> > >, std::less<int>, std::allocator<std::pair<const int, std::map<int, IEC104WF::stPointTable, std::less<int>, std::allocator<std::pair<const int, IEC104WF::stPointTable> > > > > > >, std::_Select1st<std::pair<const std::basic_string<char, std::char_traits<char>, std::allocator<char> >, std::map<int, std::map<int, IEC104WF::stPointTable, std::less<int>, std::allocator<std::pair<const int, IEC104WF::stPointTable> > >, std::less<int>, std::allocator<std::pair<const int, std::map<int, IEC104WF::stPointTable, std::less<int>, std::allocator<std::pair<const int, IEC104WF::stPointTable> > > > > > > >, std::less<std::basic_string<char, std::char_traits<char>, std::allocator<char> > >, std::allocator<std::pair<const std::basic_string<char, std::char_traits<char>, std::allocator<char> >, std::map<int, std::map<int, IEC104WF::stPointTable, std::less<int>, std::allocator<std::pair<const int, IEC104WF::stPointTable> > >, std::less<int>, std::allocator<std::pair<const int, std::map<int, IEC104WF::stPointTable, std::less<int>, std::allocator<std::pair<const int, IEC104WF::stPointTable> > > > > > > > >::_Rb_tree_impl<std::less<std::basic_string<char, std::char_traits<char>, std::allocator<char> > >, false>::_M_initialize
FUNC 3372a 3b 0 std::_Rb_tree<std::basic_string<char, std::char_traits<char>, std::allocator<char> >, std::pair<const std::basic_string<char, std::char_traits<char>, std::allocator<char> >, std::map<int, std::map<int, IEC104WF::stPointTable, std::less<int>, std::allocator<std::pair<const int, IEC104WF::stPointTable> > >, std::less<int>, std::allocator<std::pair<const int, std::map<int, IEC104WF::stPointTable, std::less<int>, std::allocator<std::pair<const int, IEC104WF::stPointTable> > > > > > >, std::_Select1st<std::pair<const std::basic_string<char, std::char_traits<char>, std::allocator<char> >, std::map<int, std::map<int, IEC104WF::stPointTable, std::less<int>, std::allocator<std::pair<const int, IEC104WF::stPointTable> > >, std::less<int>, std::allocator<std::pair<const int, std::map<int, IEC104WF::stPointTable, std::less<int>, std::allocator<std::pair<const int, IEC104WF::stPointTable> > > > > > > >, std::less<std::basic_string<char, std::char_traits<char>, std::allocator<char> > >, std::allocator<std::pair<const std::basic_string<char, std::char_traits<char>, std::allocator<char> >, std::map<int, std::map<int, IEC104WF::stPointTable, std::less<int>, std::allocator<std::pair<const int, IEC104WF::stPointTable> > >, std::less<int>, std::allocator<std::pair<const int, std::map<int, IEC104WF::stPointTable, std::less<int>, std::allocator<std::pair<const int, IEC104WF::stPointTable> > > > > > > > >::get_allocator
FUNC 33766 1a 0 std::allocator<std::pair<const std::basic_string<char, std::char_traits<char>, std::allocator<char> >, std::map<int, std::map<int, IEC104WF::stPointTable, std::less<int>, std::allocator<std::pair<const int, IEC104WF::stPointTable> > >, std::less<int>, std::allocator<std::pair<const int, std::map<int, IEC104WF::stPointTable, std::less<int>, std::allocator<std::pair<const int, IEC104WF::stPointTable> > > > > > > >::~allocator
FUNC 33780 1e 0 __gnu_cxx::new_allocator<std::pair<const std::basic_string<char, std::char_traits<char>, std::allocator<char> >, std::map<int, std::map<int, IEC104WF::stPointTable, std::less<int>, std::allocator<std::pair<const int, IEC104WF::stPointTable> > >, std::less<int>, std::allocator<std::pair<const int, std::map<int, IEC104WF::stPointTable, std::less<int>, std::allocator<std::pair<const int, IEC104WF::stPointTable> > > > > > > >::destroy
FUNC 3379e 2a 0 std::_Rb_tree<std::basic_string<char, std::char_traits<char>, std::allocator<char> >, std::pair<const std::basic_string<char, std::char_traits<char>, std::allocator<char> >, std::map<int, std::map<int, IEC104WF::stPointTable, std::less<int>, std::allocator<std::pair<const int, IEC104WF::stPointTable> > >, std::less<int>, std::allocator<std::pair<const int, std::map<int, IEC104WF::stPointTable, std::less<int>, std::allocator<std::pair<const int, IEC104WF::stPointTable> > > > > > >, std::_Select1st<std::pair<const std::basic_string<char, std::char_traits<char>, std::allocator<char> >, std::map<int, std::map<int, IEC104WF::stPointTable, std::less<int>, std::allocator<std::pair<const int, IEC104WF::stPointTable> > >, std::less<int>, std::allocator<std::pair<const int, std::map<int, IEC104WF::stPointTable, std::less<int>, std::allocator<std::pair<const int, IEC104WF::stPointTable> > > > > > > >, std::less<std::basic_string<char, std::char_traits<char>, std::allocator<char> > >, std::allocator<std::pair<const std::basic_string<char, std::char_traits<char>, std::allocator<char> >, std::map<int, std::map<int, IEC104WF::stPointTable, std::less<int>, std::allocator<std::pair<const int, IEC104WF::stPointTable> > >, std::less<int>, std::allocator<std::pair<const int, std::map<int, IEC104WF::stPointTable, std::less<int>, std::allocator<std::pair<const int, IEC104WF::stPointTable> > > > > > > > >::_M_put_node
FUNC 337c8 1a 0 std::allocator<std::_Rb_tree_node<std::pair<const int, std::map<int, IEC104WF::stPointTable, std::less<int>, std::allocator<std::pair<const int, IEC104WF::stPointTable> > > > > >::allocator
FUNC 337e2 41 0 std::_Rb_tree<int, std::pair<const int, std::map<int, IEC104WF::stPointTable, std::less<int>, std::allocator<std::pair<const int, IEC104WF::stPointTable> > > >, std::_Select1st<std::pair<const int, std::map<int, IEC104WF::stPointTable, std::less<int>, std::allocator<std::pair<const int, IEC104WF::stPointTable> > > > >, std::less<int>, std::allocator<std::pair<const int, std::map<int, IEC104WF::stPointTable, std::less<int>, std::allocator<std::pair<const int, IEC104WF::stPointTable> > > > > >::_Rb_tree_impl<std::less<int>, false>::_M_initialize
FUNC 33824 3b 0 std::_Rb_tree<int, std::pair<const int, std::map<int, IEC104WF::stPointTable, std::less<int>, std::allocator<std::pair<const int, IEC104WF::stPointTable> > > >, std::_Select1st<std::pair<const int, std::map<int, IEC104WF::stPointTable, std::less<int>, std::allocator<std::pair<const int, IEC104WF::stPointTable> > > > >, std::less<int>, std::allocator<std::pair<const int, std::map<int, IEC104WF::stPointTable, std::less<int>, std::allocator<std::pair<const int, IEC104WF::stPointTable> > > > > >::get_allocator
FUNC 33860 1a 0 std::allocator<std::pair<const int, std::map<int, IEC104WF::stPointTable, std::less<int>, std::allocator<std::pair<const int, IEC104WF::stPointTable> > > > >::~allocator
FUNC 3387a 1e 0 __gnu_cxx::new_allocator<std::pair<const int, std::map<int, IEC104WF::stPointTable, std::less<int>, std::allocator<std::pair<const int, IEC104WF::stPointTable> > > > >::destroy
FUNC 33898 2a 0 std::_Rb_tree<int, std::pair<const int, std::map<int, IEC104WF::stPointTable, std::less<int>, std::allocator<std::pair<const int, IEC104WF::stPointTable> > > >, std::_Select1st<std::pair<const int, std::map<int, IEC104WF::stPointTable, std::less<int>, std::allocator<std::pair<const int, IEC104WF::stPointTable> > > > >, std::less<int>, std::allocator<std::pair<const int, std::map<int, IEC104WF::stPointTable, std::less<int>, std::allocator<std::pair<const int, IEC104WF::stPointTable> > > > > >::_M_put_node
FUNC 338c2 1a 0 std::allocator<std::_Rb_tree_node<std::pair<const int, IEC104WF::stPointTable> > >::allocator
FUNC 338dc 41 0 std::_Rb_tree<int, std::pair<const int, IEC104WF::stPointTable>, std::_Select1st<std::pair<const int, IEC104WF::stPointTable> >, std::less<int>, std::allocator<std::pair<const int, IEC104WF::stPointTable> > >::_Rb_tree_impl<std::less<int>, false>::_M_initialize
FUNC 3391e 3b 0 std::_Rb_tree<int, std::pair<const int, IEC104WF::stPointTable>, std::_Select1st<std::pair<const int, IEC104WF::stPointTable> >, std::less<int>, std::allocator<std::pair<const int, IEC104WF::stPointTable> > >::get_allocator
FUNC 3395a 1a 0 std::allocator<std::pair<const int, IEC104WF::stPointTable> >::~allocator
FUNC 33974 1e 0 __gnu_cxx::new_allocator<std::pair<const int, IEC104WF::stPointTable> >::destroy
FUNC 33992 2a 0 std::_Rb_tree<int, std::pair<const int, IEC104WF::stPointTable>, std::_Select1st<std::pair<const int, IEC104WF::stPointTable> >, std::less<int>, std::allocator<std::pair<const int, IEC104WF::stPointTable> > >::_M_put_node
FUNC 339bc 1a 0 std::allocator<std::_Rb_tree_node<std::pair<const std::basic_string<char, std::char_traits<char>, std::allocator<char> >, IEC103::stConfigParam> > >::allocator
FUNC 339d6 41 0 std::_Rb_tree<std::basic_string<char, std::char_traits<char>, std::allocator<char> >, std::pair<const std::basic_string<char, std::char_traits<char>, std::allocator<char> >, IEC103::stConfigParam>, std::_Select1st<std::pair<const std::basic_string<char, std::char_traits<char>, std::allocator<char> >, IEC103::stConfigParam> >, std::less<std::basic_string<char, std::char_traits<char>, std::allocator<char> > >, std::allocator<std::pair<const std::basic_string<char, std::char_traits<char>, std::allocator<char> >, IEC103::stConfigParam> > >::_Rb_tree_impl<std::less<std::basic_string<char, std::char_traits<char>, std::allocator<char> > >, false>::_M_initialize
FUNC 33a18 3b 0 std::_Rb_tree<std::basic_string<char, std::char_traits<char>, std::allocator<char> >, std::pair<const std::basic_string<char, std::char_traits<char>, std::allocator<char> >, IEC103::stConfigParam>, std::_Select1st<std::pair<const std::basic_string<char, std::char_traits<char>, std::allocator<char> >, IEC103::stConfigParam> >, std::less<std::basic_string<char, std::char_traits<char>, std::allocator<char> > >, std::allocator<std::pair<const std::basic_string<char, std::char_traits<char>, std::allocator<char> >, IEC103::stConfigParam> > >::get_allocator
FUNC 33a54 1a 0 std::allocator<std::pair<const std::basic_string<char, std::char_traits<char>, std::allocator<char> >, IEC103::stConfigParam> >::~allocator
FUNC 33a6e 1e 0 __gnu_cxx::new_allocator<std::pair<const std::basic_string<char, std::char_traits<char>, std::allocator<char> >, IEC103::stConfigParam> >::destroy
FUNC 33a8c 2a 0 std::_Rb_tree<std::basic_string<char, std::char_traits<char>, std::allocator<char> >, std::pair<const std::basic_string<char, std::char_traits<char>, std::allocator<char> >, IEC103::stConfigParam>, std::_Select1st<std::pair<const std::basic_string<char, std::char_traits<char>, std::allocator<char> >, IEC103::stConfigParam> >, std::less<std::basic_string<char, std::char_traits<char>, std::allocator<char> > >, std::allocator<std::pair<const std::basic_string<char, std::char_traits<char>, std::allocator<char> >, IEC103::stConfigParam> > >::_M_put_node
FUNC 33ab6 1a 0 std::allocator<std::_Rb_tree_node<std::pair<const std::basic_string<char, std::char_traits<char>, std::allocator<char> >, std::map<std::basic_string<char, std::char_traits<char>, std::allocator<char> >, std::basic_string<char, std::char_traits<char>, std::allocator<char> >, std::less<std::basic_string<char, std::char_traits<char>, std::allocator<char> > >, std::allocator<std::pair<const std::basic_string<char, std::char_traits<char>, std::allocator<char> >, std::basic_string<char, std::char_traits<char>, std::allocator<char> > > > > > > >::allocator
FUNC 33ad0 41 0 std::_Rb_tree<std::basic_string<char, std::char_traits<char>, std::allocator<char> >, std::pair<const std::basic_string<char, std::char_traits<char>, std::allocator<char> >, std::map<std::basic_string<char, std::char_traits<char>, std::allocator<char> >, std::basic_string<char, std::char_traits<char>, std::allocator<char> >, std::less<std::basic_string<char, std::char_traits<char>, std::allocator<char> > >, std::allocator<std::pair<const std::basic_string<char, std::char_traits<char>, std::allocator<char> >, std::basic_string<char, std::char_traits<char>, std::allocator<char> > > > > >, std::_Select1st<std::pair<const std::basic_string<char, std::char_traits<char>, std::allocator<char> >, std::map<std::basic_string<char, std::char_traits<char>, std::allocator<char> >, std::basic_string<char, std::char_traits<char>, std::allocator<char> >, std::less<std::basic_string<char, std::char_traits<char>, std::allocator<char> > >, std::allocator<std::pair<const std::basic_string<char, std::char_traits<char>, std::allocator<char> >, std::basic_string<char, std::char_traits<char>, std::allocator<char> > > > > > >, std::less<std::basic_string<char, std::char_traits<char>, std::allocator<char> > >, std::allocator<std::pair<const std::basic_string<char, std::char_traits<char>, std::allocator<char> >, std::map<std::basic_string<char, std::char_traits<char>, std::allocator<char> >, std::basic_string<char, std::char_traits<char>, std::allocator<char> >, std::less<std::basic_string<char, std::char_traits<char>, std::allocator<char> > >, std::allocator<std::pair<const std::basic_string<char, std::char_traits<char>, std::allocator<char> >, std::basic_string<char, std::char_traits<char>, std::allocator<char> > > > > > > >::_Rb_tree_impl<std::less<std::basic_string<char, std::char_traits<char>, std::allocator<char> > >, false>::_M_initialize
FUNC 33b12 3b 0 std::_Rb_tree<std::basic_string<char, std::char_traits<char>, std::allocator<char> >, std::pair<const std::basic_string<char, std::char_traits<char>, std::allocator<char> >, std::map<std::basic_string<char, std::char_traits<char>, std::allocator<char> >, std::basic_string<char, std::char_traits<char>, std::allocator<char> >, std::less<std::basic_string<char, std::char_traits<char>, std::allocator<char> > >, std::allocator<std::pair<const std::basic_string<char, std::char_traits<char>, std::allocator<char> >, std::basic_string<char, std::char_traits<char>, std::allocator<char> > > > > >, std::_Select1st<std::pair<const std::basic_string<char, std::char_traits<char>, std::allocator<char> >, std::map<std::basic_string<char, std::char_traits<char>, std::allocator<char> >, std::basic_string<char, std::char_traits<char>, std::allocator<char> >, std::less<std::basic_string<char, std::char_traits<char>, std::allocator<char> > >, std::allocator<std::pair<const std::basic_string<char, std::char_traits<char>, std::allocator<char> >, std::basic_string<char, std::char_traits<char>, std::allocator<char> > > > > > >, std::less<std::basic_string<char, std::char_traits<char>, std::allocator<char> > >, std::allocator<std::pair<const std::basic_string<char, std::char_traits<char>, std::allocator<char> >, std::map<std::basic_string<char, std::char_traits<char>, std::allocator<char> >, std::basic_string<char, std::char_traits<char>, std::allocator<char> >, std::less<std::basic_string<char, std::char_traits<char>, std::allocator<char> > >, std::allocator<std::pair<const std::basic_string<char, std::char_traits<char>, std::allocator<char> >, std::basic_string<char, std::char_traits<char>, std::allocator<char> > > > > > > >::get_allocator
FUNC 33b4e 1a 0 std::allocator<std::pair<const std::basic_string<char, std::char_traits<char>, std::allocator<char> >, std::map<std::basic_string<char, std::char_traits<char>, std::allocator<char> >, std::basic_string<char, std::char_traits<char>, std::allocator<char> >, std::less<std::basic_string<char, std::char_traits<char>, std::allocator<char> > >, std::allocator<std::pair<const std::basic_string<char, std::char_traits<char>, std::allocator<char> >, std::basic_string<char, std::char_traits<char>, std::allocator<char> > > > > > >::~allocator
FUNC 33b68 1e 0 __gnu_cxx::new_allocator<std::pair<const std::basic_string<char, std::char_traits<char>, std::allocator<char> >, std::map<std::basic_string<char, std::char_traits<char>, std::allocator<char> >, std::basic_string<char, std::char_traits<char>, std::allocator<char> >, std::less<std::basic_string<char, std::char_traits<char>, std::allocator<char> > >, std::allocator<std::pair<const std::basic_string<char, std::char_traits<char>, std::allocator<char> >, std::basic_string<char, std::char_traits<char>, std::allocator<char> > > > > > >::destroy
FUNC 33b86 2a 0 std::_Rb_tree<std::basic_string<char, std::char_traits<char>, std::allocator<char> >, std::pair<const std::basic_string<char, std::char_traits<char>, std::allocator<char> >, std::map<std::basic_string<char, std::char_traits<char>, std::allocator<char> >, std::basic_string<char, std::char_traits<char>, std::allocator<char> >, std::less<std::basic_string<char, std::char_traits<char>, std::allocator<char> > >, std::allocator<std::pair<const std::basic_string<char, std::char_traits<char>, std::allocator<char> >, std::basic_string<char, std::char_traits<char>, std::allocator<char> > > > > >, std::_Select1st<std::pair<const std::basic_string<char, std::char_traits<char>, std::allocator<char> >, std::map<std::basic_string<char, std::char_traits<char>, std::allocator<char> >, std::basic_string<char, std::char_traits<char>, std::allocator<char> >, std::less<std::basic_string<char, std::char_traits<char>, std::allocator<char> > >, std::allocator<std::pair<const std::basic_string<char, std::char_traits<char>, std::allocator<char> >, std::basic_string<char, std::char_traits<char>, std::allocator<char> > > > > > >, std::less<std::basic_string<char, std::char_traits<char>, std::allocator<char> > >, std::allocator<std::pair<const std::basic_string<char, std::char_traits<char>, std::allocator<char> >, std::map<std::basic_string<char, std::char_traits<char>, std::allocator<char> >, std::basic_string<char, std::char_traits<char>, std::allocator<char> >, std::less<std::basic_string<char, std::char_traits<char>, std::allocator<char> > >, std::allocator<std::pair<const std::basic_string<char, std::char_traits<char>, std::allocator<char> >, std::basic_string<char, std::char_traits<char>, std::allocator<char> > > > > > > >::_M_put_node
FUNC 33bb0 25 0 std::allocator<std::_Rb_tree_node<std::pair<const std::basic_string<char, std::char_traits<char>, std::allocator<char> >, IEC61850_STRUCT::IED_61850> > >::allocator
FUNC 33bd6 55 0 std::_Rb_tree<std::basic_string<char, std::char_traits<char>, std::allocator<char> >, std::pair<const std::basic_string<char, std::char_traits<char>, std::allocator<char> >, IEC61850_STRUCT::IED_61850>, std::_Select1st<std::pair<const std::basic_string<char, std::char_traits<char>, std::allocator<char> >, IEC61850_STRUCT::IED_61850> >, std::less<std::basic_string<char, std::char_traits<char>, std::allocator<char> > >, std::allocator<std::pair<const std::basic_string<char, std::char_traits<char>, std::allocator<char> >, IEC61850_STRUCT::IED_61850> > >::_M_clone_node
FUNC 33c2b 12 0 std::_Rb_tree<std::basic_string<char, std::char_traits<char>, std::allocator<char> >, std::pair<const std::basic_string<char, std::char_traits<char>, std::allocator<char> >, IEC61850_STRUCT::IED_61850>, std::_Select1st<std::pair<const std::basic_string<char, std::char_traits<char>, std::allocator<char> >, IEC61850_STRUCT::IED_61850> >, std::less<std::basic_string<char, std::char_traits<char>, std::allocator<char> > >, std::allocator<std::pair<const std::basic_string<char, std::char_traits<char>, std::allocator<char> >, IEC61850_STRUCT::IED_61850> > >::_S_right
FUNC 33c3d 12 0 std::_Rb_tree<std::basic_string<char, std::char_traits<char>, std::allocator<char> >, std::pair<const std::basic_string<char, std::char_traits<char>, std::allocator<char> >, IEC61850_STRUCT::IED_61850>, std::_Select1st<std::pair<const std::basic_string<char, std::char_traits<char>, std::allocator<char> >, IEC61850_STRUCT::IED_61850> >, std::less<std::basic_string<char, std::char_traits<char>, std::allocator<char> > >, std::allocator<std::pair<const std::basic_string<char, std::char_traits<char>, std::allocator<char> >, IEC61850_STRUCT::IED_61850> > >::_S_left
FUNC 33c50 25 0 std::allocator<std::_Rb_tree_node<std::pair<const std::basic_string<char, std::char_traits<char>, std::allocator<char> >, IEC103::stConfigParam> > >::allocator
FUNC 33c76 55 0 std::_Rb_tree<std::basic_string<char, std::char_traits<char>, std::allocator<char> >, std::pair<const std::basic_string<char, std::char_traits<char>, std::allocator<char> >, IEC103::stConfigParam>, std::_Select1st<std::pair<const std::basic_string<char, std::char_traits<char>, std::allocator<char> >, IEC103::stConfigParam> >, std::less<std::basic_string<char, std::char_traits<char>, std::allocator<char> > >, std::allocator<std::pair<const std::basic_string<char, std::char_traits<char>, std::allocator<char> >, IEC103::stConfigParam> > >::_M_clone_node
FUNC 33ccb 12 0 std::_Rb_tree<std::basic_string<char, std::char_traits<char>, std::allocator<char> >, std::pair<const std::basic_string<char, std::char_traits<char>, std::allocator<char> >, IEC103::stConfigParam>, std::_Select1st<std::pair<const std::basic_string<char, std::char_traits<char>, std::allocator<char> >, IEC103::stConfigParam> >, std::less<std::basic_string<char, std::char_traits<char>, std::allocator<char> > >, std::allocator<std::pair<const std::basic_string<char, std::char_traits<char>, std::allocator<char> >, IEC103::stConfigParam> > >::_S_right
FUNC 33cdd 12 0 std::_Rb_tree<std::basic_string<char, std::char_traits<char>, std::allocator<char> >, std::pair<const std::basic_string<char, std::char_traits<char>, std::allocator<char> >, IEC103::stConfigParam>, std::_Select1st<std::pair<const std::basic_string<char, std::char_traits<char>, std::allocator<char> >, IEC103::stConfigParam> >, std::less<std::basic_string<char, std::char_traits<char>, std::allocator<char> > >, std::allocator<std::pair<const std::basic_string<char, std::char_traits<char>, std::allocator<char> >, IEC103::stConfigParam> > >::_S_left
FUNC 33cf0 25 0 std::allocator<std::_Rb_tree_node<std::pair<const std::basic_string<char, std::char_traits<char>, std::allocator<char> >, std::map<std::basic_string<char, std::char_traits<char>, std::allocator<char> >, std::basic_string<char, std::char_traits<char>, std::allocator<char> >, std::less<std::basic_string<char, std::char_traits<char>, std::allocator<char> > >, std::allocator<std::pair<const std::basic_string<char, std::char_traits<char>, std::allocator<char> >, std::basic_string<char, std::char_traits<char>, std::allocator<char> > > > > > > >::allocator
FUNC 33d16 55 0 std::_Rb_tree<std::basic_string<char, std::char_traits<char>, std::allocator<char> >, std::pair<const std::basic_string<char, std::char_traits<char>, std::allocator<char> >, std::map<std::basic_string<char, std::char_traits<char>, std::allocator<char> >, std::basic_string<char, std::char_traits<char>, std::allocator<char> >, std::less<std::basic_string<char, std::char_traits<char>, std::allocator<char> > >, std::allocator<std::pair<const std::basic_string<char, std::char_traits<char>, std::allocator<char> >, std::basic_string<char, std::char_traits<char>, std::allocator<char> > > > > >, std::_Select1st<std::pair<const std::basic_string<char, std::char_traits<char>, std::allocator<char> >, std::map<std::basic_string<char, std::char_traits<char>, std::allocator<char> >, std::basic_string<char, std::char_traits<char>, std::allocator<char> >, std::less<std::basic_string<char, std::char_traits<char>, std::allocator<char> > >, std::allocator<std::pair<const std::basic_string<char, std::char_traits<char>, std::allocator<char> >, std::basic_string<char, std::char_traits<char>, std::allocator<char> > > > > > >, std::less<std::basic_string<char, std::char_traits<char>, std::allocator<char> > >, std::allocator<std::pair<const std::basic_string<char, std::char_traits<char>, std::allocator<char> >, std::map<std::basic_string<char, std::char_traits<char>, std::allocator<char> >, std::basic_string<char, std::char_traits<char>, std::allocator<char> >, std::less<std::basic_string<char, std::char_traits<char>, std::allocator<char> > >, std::allocator<std::pair<const std::basic_string<char, std::char_traits<char>, std::allocator<char> >, std::basic_string<char, std::char_traits<char>, std::allocator<char> > > > > > > >::_M_clone_node
FUNC 33d6b 12 0 std::_Rb_tree<std::basic_string<char, std::char_traits<char>, std::allocator<char> >, std::pair<const std::basic_string<char, std::char_traits<char>, std::allocator<char> >, std::map<std::basic_string<char, std::char_traits<char>, std::allocator<char> >, std::basic_string<char, std::char_traits<char>, std::allocator<char> >, std::less<std::basic_string<char, std::char_traits<char>, std::allocator<char> > >, std::allocator<std::pair<const std::basic_string<char, std::char_traits<char>, std::allocator<char> >, std::basic_string<char, std::char_traits<char>, std::allocator<char> > > > > >, std::_Select1st<std::pair<const std::basic_string<char, std::char_traits<char>, std::allocator<char> >, std::map<std::basic_string<char, std::char_traits<char>, std::allocator<char> >, std::basic_string<char, std::char_traits<char>, std::allocator<char> >, std::less<std::basic_string<char, std::char_traits<char>, std::allocator<char> > >, std::allocator<std::pair<const std::basic_string<char, std::char_traits<char>, std::allocator<char> >, std::basic_string<char, std::char_traits<char>, std::allocator<char> > > > > > >, std::less<std::basic_string<char, std::char_traits<char>, std::allocator<char> > >, std::allocator<std::pair<const std::basic_string<char, std::char_traits<char>, std::allocator<char> >, std::map<std::basic_string<char, std::char_traits<char>, std::allocator<char> >, std::basic_string<char, std::char_traits<char>, std::allocator<char> >, std::less<std::basic_string<char, std::char_traits<char>, std::allocator<char> > >, std::allocator<std::pair<const std::basic_string<char, std::char_traits<char>, std::allocator<char> >, std::basic_string<char, std::char_traits<char>, std::allocator<char> > > > > > > >::_S_right
FUNC 33d7d 12 0 std::_Rb_tree<std::basic_string<char, std::char_traits<char>, std::allocator<char> >, std::pair<const std::basic_string<char, std::char_traits<char>, std::allocator<char> >, std::map<std::basic_string<char, std::char_traits<char>, std::allocator<char> >, std::basic_string<char, std::char_traits<char>, std::allocator<char> >, std::less<std::basic_string<char, std::char_traits<char>, std::allocator<char> > >, std::allocator<std::pair<const std::basic_string<char, std::char_traits<char>, std::allocator<char> >, std::basic_string<char, std::char_traits<char>, std::allocator<char> > > > > >, std::_Select1st<std::pair<const std::basic_string<char, std::char_traits<char>, std::allocator<char> >, std::map<std::basic_string<char, std::char_traits<char>, std::allocator<char> >, std::basic_string<char, std::char_traits<char>, std::allocator<char> >, std::less<std::basic_string<char, std::char_traits<char>, std::allocator<char> > >, std::allocator<std::pair<const std::basic_string<char, std::char_traits<char>, std::allocator<char> >, std::basic_string<char, std::char_traits<char>, std::allocator<char> > > > > > >, std::less<std::basic_string<char, std::char_traits<char>, std::allocator<char> > >, std::allocator<std::pair<const std::basic_string<char, std::char_traits<char>, std::allocator<char> >, std::map<std::basic_string<char, std::char_traits<char>, std::allocator<char> >, std::basic_string<char, std::char_traits<char>, std::allocator<char> >, std::less<std::basic_string<char, std::char_traits<char>, std::allocator<char> > >, std::allocator<std::pair<const std::basic_string<char, std::char_traits<char>, std::allocator<char> >, std::basic_string<char, std::char_traits<char>, std::allocator<char> > > > > > > >::_S_left
FUNC 33d90 25 0 std::allocator<std::_Rb_tree_node<std::pair<const std::basic_string<char, std::char_traits<char>, std::allocator<char> >, std::map<int, std::map<int, IEC104WF::stPointTable, std::less<int>, std::allocator<std::pair<const int, IEC104WF::stPointTable> > >, std::less<int>, std::allocator<std::pair<const int, std::map<int, IEC104WF::stPointTable, std::less<int>, std::allocator<std::pair<const int, IEC104WF::stPointTable> > > > > > > > >::allocator
FUNC 33db6 55 0 std::_Rb_tree<std::basic_string<char, std::char_traits<char>, std::allocator<char> >, std::pair<const std::basic_string<char, std::char_traits<char>, std::allocator<char> >, std::map<int, std::map<int, IEC104WF::stPointTable, std::less<int>, std::allocator<std::pair<const int, IEC104WF::stPointTable> > >, std::less<int>, std::allocator<std::pair<const int, std::map<int, IEC104WF::stPointTable, std::less<int>, std::allocator<std::pair<const int, IEC104WF::stPointTable> > > > > > >, std::_Select1st<std::pair<const std::basic_string<char, std::char_traits<char>, std::allocator<char> >, std::map<int, std::map<int, IEC104WF::stPointTable, std::less<int>, std::allocator<std::pair<const int, IEC104WF::stPointTable> > >, std::less<int>, std::allocator<std::pair<const int, std::map<int, IEC104WF::stPointTable, std::less<int>, std::allocator<std::pair<const int, IEC104WF::stPointTable> > > > > > > >, std::less<std::basic_string<char, std::char_traits<char>, std::allocator<char> > >, std::allocator<std::pair<const std::basic_string<char, std::char_traits<char>, std::allocator<char> >, std::map<int, std::map<int, IEC104WF::stPointTable, std::less<int>, std::allocator<std::pair<const int, IEC104WF::stPointTable> > >, std::less<int>, std::allocator<std::pair<const int, std::map<int, IEC104WF::stPointTable, std::less<int>, std::allocator<std::pair<const int, IEC104WF::stPointTable> > > > > > > > >::_M_clone_node
FUNC 33e0b 12 0 std::_Rb_tree<std::basic_string<char, std::char_traits<char>, std::allocator<char> >, std::pair<const std::basic_string<char, std::char_traits<char>, std::allocator<char> >, std::map<int, std::map<int, IEC104WF::stPointTable, std::less<int>, std::allocator<std::pair<const int, IEC104WF::stPointTable> > >, std::less<int>, std::allocator<std::pair<const int, std::map<int, IEC104WF::stPointTable, std::less<int>, std::allocator<std::pair<const int, IEC104WF::stPointTable> > > > > > >, std::_Select1st<std::pair<const std::basic_string<char, std::char_traits<char>, std::allocator<char> >, std::map<int, std::map<int, IEC104WF::stPointTable, std::less<int>, std::allocator<std::pair<const int, IEC104WF::stPointTable> > >, std::less<int>, std::allocator<std::pair<const int, std::map<int, IEC104WF::stPointTable, std::less<int>, std::allocator<std::pair<const int, IEC104WF::stPointTable> > > > > > > >, std::less<std::basic_string<char, std::char_traits<char>, std::allocator<char> > >, std::allocator<std::pair<const std::basic_string<char, std::char_traits<char>, std::allocator<char> >, std::map<int, std::map<int, IEC104WF::stPointTable, std::less<int>, std::allocator<std::pair<const int, IEC104WF::stPointTable> > >, std::less<int>, std::allocator<std::pair<const int, std::map<int, IEC104WF::stPointTable, std::less<int>, std::allocator<std::pair<const int, IEC104WF::stPointTable> > > > > > > > >::_S_right
FUNC 33e1d 12 0 std::_Rb_tree<std::basic_string<char, std::char_traits<char>, std::allocator<char> >, std::pair<const std::basic_string<char, std::char_traits<char>, std::allocator<char> >, std::map<int, std::map<int, IEC104WF::stPointTable, std::less<int>, std::allocator<std::pair<const int, IEC104WF::stPointTable> > >, std::less<int>, std::allocator<std::pair<const int, std::map<int, IEC104WF::stPointTable, std::less<int>, std::allocator<std::pair<const int, IEC104WF::stPointTable> > > > > > >, std::_Select1st<std::pair<const std::basic_string<char, std::char_traits<char>, std::allocator<char> >, std::map<int, std::map<int, IEC104WF::stPointTable, std::less<int>, std::allocator<std::pair<const int, IEC104WF::stPointTable> > >, std::less<int>, std::allocator<std::pair<const int, std::map<int, IEC104WF::stPointTable, std::less<int>, std::allocator<std::pair<const int, IEC104WF::stPointTable> > > > > > > >, std::less<std::basic_string<char, std::char_traits<char>, std::allocator<char> > >, std::allocator<std::pair<const std::basic_string<char, std::char_traits<char>, std::allocator<char> >, std::map<int, std::map<int, IEC104WF::stPointTable, std::less<int>, std::allocator<std::pair<const int, IEC104WF::stPointTable> > >, std::less<int>, std::allocator<std::pair<const int, std::map<int, IEC104WF::stPointTable, std::less<int>, std::allocator<std::pair<const int, IEC104WF::stPointTable> > > > > > > > >::_S_left
FUNC 33e30 a 0 __gnu_cxx::new_allocator<std::_List_node<std::basic_string<char, std::char_traits<char>, std::allocator<char> > > >::new_allocator
FUNC 33e3a 25 0 std::allocator<std::_List_node<std::basic_string<char, std::char_traits<char>, std::allocator<char> > > >::allocator
FUNC 33e60 92 0 std::_Rb_tree<std::basic_string<char, std::char_traits<char>, std::allocator<char> >, std::pair<const std::basic_string<char, std::char_traits<char>, std::allocator<char> >, IEC61850_STRUCT::IED_61850>, std::_Select1st<std::pair<const std::basic_string<char, std::char_traits<char>, std::allocator<char> >, IEC61850_STRUCT::IED_61850> >, std::less<std::basic_string<char, std::char_traits<char>, std::allocator<char> > >, std::allocator<std::pair<const std::basic_string<char, std::char_traits<char>, std::allocator<char> >, IEC61850_STRUCT::IED_61850> > >::_M_lower_bound
FUNC 33ef2 19 0 std::_Rb_tree_iterator<std::pair<const std::basic_string<char, std::char_traits<char>, std::allocator<char> >, IEC61850_STRUCT::IED_61850> >::_Rb_tree_iterator
FUNC 33f0b 2c 0 std::_Rb_tree<std::basic_string<char, std::char_traits<char>, std::allocator<char> >, std::pair<const std::basic_string<char, std::char_traits<char>, std::allocator<char> >, IEC61850_STRUCT::IED_61850>, std::_Select1st<std::pair<const std::basic_string<char, std::char_traits<char>, std::allocator<char> >, IEC61850_STRUCT::IED_61850> >, std::less<std::basic_string<char, std::char_traits<char>, std::allocator<char> > >, std::allocator<std::pair<const std::basic_string<char, std::char_traits<char>, std::allocator<char> >, IEC61850_STRUCT::IED_61850> > >::_S_key
FUNC 33f38 12 0 std::_Select1st<std::pair<const std::basic_string<char, std::char_traits<char>, std::allocator<char> >, IEC61850_STRUCT::IED_61850> >::operator()
FUNC 33f4a 12 0 std::_Rb_tree<std::basic_string<char, std::char_traits<char>, std::allocator<char> >, std::pair<const std::basic_string<char, std::char_traits<char>, std::allocator<char> >, IEC61850_STRUCT::IED_61850>, std::_Select1st<std::pair<const std::basic_string<char, std::char_traits<char>, std::allocator<char> >, IEC61850_STRUCT::IED_61850> >, std::less<std::basic_string<char, std::char_traits<char>, std::allocator<char> > >, std::allocator<std::pair<const std::basic_string<char, std::char_traits<char>, std::allocator<char> >, IEC61850_STRUCT::IED_61850> > >::size
FUNC 33f5c e3 0 std::_Rb_tree<std::basic_string<char, std::char_traits<char>, std::allocator<char> >, std::pair<const std::basic_string<char, std::char_traits<char>, std::allocator<char> >, IEC61850_STRUCT::IED_61850>, std::_Select1st<std::pair<const std::basic_string<char, std::char_traits<char>, std::allocator<char> >, IEC61850_STRUCT::IED_61850> >, std::less<std::basic_string<char, std::char_traits<char>, std::allocator<char> > >, std::allocator<std::pair<const std::basic_string<char, std::char_traits<char>, std::allocator<char> >, IEC61850_STRUCT::IED_61850> > >::_M_insert_
FUNC 34040 271 0 std::_Rb_tree<std::basic_string<char, std::char_traits<char>, std::allocator<char> >, std::pair<const std::basic_string<char, std::char_traits<char>, std::allocator<char> >, IEC61850_STRUCT::IED_61850>, std::_Select1st<std::pair<const std::basic_string<char, std::char_traits<char>, std::allocator<char> >, IEC61850_STRUCT::IED_61850> >, std::less<std::basic_string<char, std::char_traits<char>, std::allocator<char> > >, std::allocator<std::pair<const std::basic_string<char, std::char_traits<char>, std::allocator<char> >, IEC61850_STRUCT::IED_61850> > >::_M_insert_unique
FUNC 342b2 28 0 std::_Rb_tree_const_iterator<std::pair<const std::basic_string<char, std::char_traits<char>, std::allocator<char> >, IEC61850_STRUCT::IED_61850> >::operator--
FUNC 342da 28 0 std::_Rb_tree_const_iterator<std::pair<const std::basic_string<char, std::char_traits<char>, std::allocator<char> >, IEC61850_STRUCT::IED_61850> >::operator++
FUNC 34302 92 0 std::_Rb_tree<int, std::pair<const int, IEC104WF::stPointTable>, std::_Select1st<std::pair<const int, IEC104WF::stPointTable> >, std::less<int>, std::allocator<std::pair<const int, IEC104WF::stPointTable> > >::_M_lower_bound
FUNC 34394 19 0 std::_Rb_tree_iterator<std::pair<const int, IEC104WF::stPointTable> >::_Rb_tree_iterator
FUNC 343ad 2c 0 std::_Rb_tree<int, std::pair<const int, IEC104WF::stPointTable>, std::_Select1st<std::pair<const int, IEC104WF::stPointTable> >, std::less<int>, std::allocator<std::pair<const int, IEC104WF::stPointTable> > >::_S_key
FUNC 343da 12 0 std::_Select1st<std::pair<const int, IEC104WF::stPointTable> >::operator()
FUNC 343ec 12 0 std::_Rb_tree<int, std::pair<const int, IEC104WF::stPointTable>, std::_Select1st<std::pair<const int, IEC104WF::stPointTable> >, std::less<int>, std::allocator<std::pair<const int, IEC104WF::stPointTable> > >::size
FUNC 343fe e3 0 std::_Rb_tree<int, std::pair<const int, IEC104WF::stPointTable>, std::_Select1st<std::pair<const int, IEC104WF::stPointTable> >, std::less<int>, std::allocator<std::pair<const int, IEC104WF::stPointTable> > >::_M_insert_
FUNC 344e2 271 0 std::_Rb_tree<int, std::pair<const int, IEC104WF::stPointTable>, std::_Select1st<std::pair<const int, IEC104WF::stPointTable> >, std::less<int>, std::allocator<std::pair<const int, IEC104WF::stPointTable> > >::_M_insert_unique
FUNC 34754 28 0 std::_Rb_tree_const_iterator<std::pair<const int, IEC104WF::stPointTable> >::operator--
FUNC 3477c 12 0 std::_Rb_tree<int, std::pair<const int, IEC104WF::stPointTable>, std::_Select1st<std::pair<const int, IEC104WF::stPointTable> >, std::less<int>, std::allocator<std::pair<const int, IEC104WF::stPointTable> > >::_S_right
FUNC 3478e 28 0 std::_Rb_tree_const_iterator<std::pair<const int, IEC104WF::stPointTable> >::operator++
FUNC 347b6 92 0 std::_Rb_tree<int, std::pair<const int, std::map<int, IEC104WF::stPointTable, std::less<int>, std::allocator<std::pair<const int, IEC104WF::stPointTable> > > >, std::_Select1st<std::pair<const int, std::map<int, IEC104WF::stPointTable, std::less<int>, std::allocator<std::pair<const int, IEC104WF::stPointTable> > > > >, std::less<int>, std::allocator<std::pair<const int, std::map<int, IEC104WF::stPointTable, std::less<int>, std::allocator<std::pair<const int, IEC104WF::stPointTable> > > > > >::_M_lower_bound
FUNC 34848 19 0 std::_Rb_tree_iterator<std::pair<const int, std::map<int, IEC104WF::stPointTable, std::less<int>, std::allocator<std::pair<const int, IEC104WF::stPointTable> > > > >::_Rb_tree_iterator
FUNC 34862 11d 0 std::_Rb_tree<int, std::pair<const int, IEC104WF::stPointTable>, std::_Select1st<std::pair<const int, IEC104WF::stPointTable> >, std::less<int>, std::allocator<std::pair<const int, IEC104WF::stPointTable> > >::_Rb_tree
FUNC 3497f 2c 0 std::_Rb_tree<int, std::pair<const int, std::map<int, IEC104WF::stPointTable, std::less<int>, std::allocator<std::pair<const int, IEC104WF::stPointTable> > > >, std::_Select1st<std::pair<const int, std::map<int, IEC104WF::stPointTable, std::less<int>, std::allocator<std::pair<const int, IEC104WF::stPointTable> > > > >, std::less<int>, std::allocator<std::pair<const int, std::map<int, IEC104WF::stPointTable, std::less<int>, std::allocator<std::pair<const int, IEC104WF::stPointTable> > > > > >::_S_key
FUNC 349ac 12 0 std::_Select1st<std::pair<const int, std::map<int, IEC104WF::stPointTable, std::less<int>, std::allocator<std::pair<const int, IEC104WF::stPointTable> > > > >::operator()
FUNC 349be 12 0 std::_Rb_tree<int, std::pair<const int, std::map<int, IEC104WF::stPointTable, std::less<int>, std::allocator<std::pair<const int, IEC104WF::stPointTable> > > >, std::_Select1st<std::pair<const int, std::map<int, IEC104WF::stPointTable, std::less<int>, std::allocator<std::pair<const int, IEC104WF::stPointTable> > > > >, std::less<int>, std::allocator<std::pair<const int, std::map<int, IEC104WF::stPointTable, std::less<int>, std::allocator<std::pair<const int, IEC104WF::stPointTable> > > > > >::size
FUNC 349d0 e3 0 std::_Rb_tree<int, std::pair<const int, std::map<int, IEC104WF::stPointTable, std::less<int>, std::allocator<std::pair<const int, IEC104WF::stPointTable> > > >, std::_Select1st<std::pair<const int, std::map<int, IEC104WF::stPointTable, std::less<int>, std::allocator<std::pair<const int, IEC104WF::stPointTable> > > > >, std::less<int>, std::allocator<std::pair<const int, std::map<int, IEC104WF::stPointTable, std::less<int>, std::allocator<std::pair<const int, IEC104WF::stPointTable> > > > > >::_M_insert_
FUNC 34ab4 271 0 std::_Rb_tree<int, std::pair<const int, std::map<int, IEC104WF::stPointTable, std::less<int>, std::allocator<std::pair<const int, IEC104WF::stPointTable> > > >, std::_Select1st<std::pair<const int, std::map<int, IEC104WF::stPointTable, std::less<int>, std::allocator<std::pair<const int, IEC104WF::stPointTable> > > > >, std::less<int>, std::allocator<std::pair<const int, std::map<int, IEC104WF::stPointTable, std::less<int>, std::allocator<std::pair<const int, IEC104WF::stPointTable> > > > > >::_M_insert_unique
FUNC 34d26 28 0 std::_Rb_tree_const_iterator<std::pair<const int, std::map<int, IEC104WF::stPointTable, std::less<int>, std::allocator<std::pair<const int, IEC104WF::stPointTable> > > > >::operator--
FUNC 34d4e 12 0 std::_Rb_tree<int, std::pair<const int, std::map<int, IEC104WF::stPointTable, std::less<int>, std::allocator<std::pair<const int, IEC104WF::stPointTable> > > >, std::_Select1st<std::pair<const int, std::map<int, IEC104WF::stPointTable, std::less<int>, std::allocator<std::pair<const int, IEC104WF::stPointTable> > > > >, std::less<int>, std::allocator<std::pair<const int, std::map<int, IEC104WF::stPointTable, std::less<int>, std::allocator<std::pair<const int, IEC104WF::stPointTable> > > > > >::_S_right
FUNC 34d60 28 0 std::_Rb_tree_const_iterator<std::pair<const int, std::map<int, IEC104WF::stPointTable, std::less<int>, std::allocator<std::pair<const int, IEC104WF::stPointTable> > > > >::operator++
FUNC 34d88 55 0 std::_Rb_tree<int, std::pair<const int, IEC104WF::stPointTable>, std::_Select1st<std::pair<const int, IEC104WF::stPointTable> >, std::less<int>, std::allocator<std::pair<const int, IEC104WF::stPointTable> > >::_M_clone_node
FUNC 34ddd 12 0 std::_Rb_tree<int, std::pair<const int, IEC104WF::stPointTable>, std::_Select1st<std::pair<const int, IEC104WF::stPointTable> >, std::less<int>, std::allocator<std::pair<const int, IEC104WF::stPointTable> > >::_S_left
FUNC 34df0 92 0 std::_Rb_tree<std::basic_string<char, std::char_traits<char>, std::allocator<char> >, std::pair<const std::basic_string<char, std::char_traits<char>, std::allocator<char> >, std::map<int, std::map<int, IEC104WF::stPointTable, std::less<int>, std::allocator<std::pair<const int, IEC104WF::stPointTable> > >, std::less<int>, std::allocator<std::pair<const int, std::map<int, IEC104WF::stPointTable, std::less<int>, std::allocator<std::pair<const int, IEC104WF::stPointTable> > > > > > >, std::_Select1st<std::pair<const std::basic_string<char, std::char_traits<char>, std::allocator<char> >, std::map<int, std::map<int, IEC104WF::stPointTable, std::less<int>, std::allocator<std::pair<const int, IEC104WF::stPointTable> > >, std::less<int>, std::allocator<std::pair<const int, std::map<int, IEC104WF::stPointTable, std::less<int>, std::allocator<std::pair<const int, IEC104WF::stPointTable> > > > > > > >, std::less<std::basic_string<char, std::char_traits<char>, std::allocator<char> > >, std::allocator<std::pair<const std::basic_string<char, std::char_traits<char>, std::allocator<char> >, std::map<int, std::map<int, IEC104WF::stPointTable, std::less<int>, std::allocator<std::pair<const int, IEC104WF::stPointTable> > >, std::less<int>, std::allocator<std::pair<const int, std::map<int, IEC104WF::stPointTable, std::less<int>, std::allocator<std::pair<const int, IEC104WF::stPointTable> > > > > > > > >::_M_lower_bound
FUNC 34e82 19 0 std::_Rb_tree_iterator<std::pair<const std::basic_string<char, std::char_traits<char>, std::allocator<char> >, std::map<int, std::map<int, IEC104WF::stPointTable, std::less<int>, std::allocator<std::pair<const int, IEC104WF::stPointTable> > >, std::less<int>, std::allocator<std::pair<const int, std::map<int, IEC104WF::stPointTable, std::less<int>, std::allocator<std::pair<const int, IEC104WF::stPointTable> > > > > > > >::_Rb_tree_iterator
FUNC 34e9c 11d 0 std::_Rb_tree<int, std::pair<const int, std::map<int, IEC104WF::stPointTable, std::less<int>, std::allocator<std::pair<const int, IEC104WF::stPointTable> > > >, std::_Select1st<std::pair<const int, std::map<int, IEC104WF::stPointTable, std::less<int>, std::allocator<std::pair<const int, IEC104WF::stPointTable> > > > >, std::less<int>, std::allocator<std::pair<const int, std::map<int, IEC104WF::stPointTable, std::less<int>, std::allocator<std::pair<const int, IEC104WF::stPointTable> > > > > >::_Rb_tree
FUNC 34fb9 2c 0 std::_Rb_tree<std::basic_string<char, std::char_traits<char>, std::allocator<char> >, std::pair<const std::basic_string<char, std::char_traits<char>, std::allocator<char> >, std::map<int, std::map<int, IEC104WF::stPointTable, std::less<int>, std::allocator<std::pair<const int, IEC104WF::stPointTable> > >, std::less<int>, std::allocator<std::pair<const int, std::map<int, IEC104WF::stPointTable, std::less<int>, std::allocator<std::pair<const int, IEC104WF::stPointTable> > > > > > >, std::_Select1st<std::pair<const std::basic_string<char, std::char_traits<char>, std::allocator<char> >, std::map<int, std::map<int, IEC104WF::stPointTable, std::less<int>, std::allocator<std::pair<const int, IEC104WF::stPointTable> > >, std::less<int>, std::allocator<std::pair<const int, std::map<int, IEC104WF::stPointTable, std::less<int>, std::allocator<std::pair<const int, IEC104WF::stPointTable> > > > > > > >, std::less<std::basic_string<char, std::char_traits<char>, std::allocator<char> > >, std::allocator<std::pair<const std::basic_string<char, std::char_traits<char>, std::allocator<char> >, std::map<int, std::map<int, IEC104WF::stPointTable, std::less<int>, std::allocator<std::pair<const int, IEC104WF::stPointTable> > >, std::less<int>, std::allocator<std::pair<const int, std::map<int, IEC104WF::stPointTable, std::less<int>, std::allocator<std::pair<const int, IEC104WF::stPointTable> > > > > > > > >::_S_key
FUNC 34fe6 12 0 std::_Select1st<std::pair<const std::basic_string<char, std::char_traits<char>, std::allocator<char> >, std::map<int, std::map<int, IEC104WF::stPointTable, std::less<int>, std::allocator<std::pair<const int, IEC104WF::stPointTable> > >, std::less<int>, std::allocator<std::pair<const int, std::map<int, IEC104WF::stPointTable, std::less<int>, std::allocator<std::pair<const int, IEC104WF::stPointTable> > > > > > > >::operator()
FUNC 34ff8 12 0 std::_Rb_tree<std::basic_string<char, std::char_traits<char>, std::allocator<char> >, std::pair<const std::basic_string<char, std::char_traits<char>, std::allocator<char> >, std::map<int, std::map<int, IEC104WF::stPointTable, std::less<int>, std::allocator<std::pair<const int, IEC104WF::stPointTable> > >, std::less<int>, std::allocator<std::pair<const int, std::map<int, IEC104WF::stPointTable, std::less<int>, std::allocator<std::pair<const int, IEC104WF::stPointTable> > > > > > >, std::_Select1st<std::pair<const std::basic_string<char, std::char_traits<char>, std::allocator<char> >, std::map<int, std::map<int, IEC104WF::stPointTable, std::less<int>, std::allocator<std::pair<const int, IEC104WF::stPointTable> > >, std::less<int>, std::allocator<std::pair<const int, std::map<int, IEC104WF::stPointTable, std::less<int>, std::allocator<std::pair<const int, IEC104WF::stPointTable> > > > > > > >, std::less<std::basic_string<char, std::char_traits<char>, std::allocator<char> > >, std::allocator<std::pair<const std::basic_string<char, std::char_traits<char>, std::allocator<char> >, std::map<int, std::map<int, IEC104WF::stPointTable, std::less<int>, std::allocator<std::pair<const int, IEC104WF::stPointTable> > >, std::less<int>, std::allocator<std::pair<const int, std::map<int, IEC104WF::stPointTable, std::less<int>, std::allocator<std::pair<const int, IEC104WF::stPointTable> > > > > > > > >::size
FUNC 3500a e3 0 std::_Rb_tree<std::basic_string<char, std::char_traits<char>, std::allocator<char> >, std::pair<const std::basic_string<char, std::char_traits<char>, std::allocator<char> >, std::map<int, std::map<int, IEC104WF::stPointTable, std::less<int>, std::allocator<std::pair<const int, IEC104WF::stPointTable> > >, std::less<int>, std::allocator<std::pair<const int, std::map<int, IEC104WF::stPointTable, std::less<int>, std::allocator<std::pair<const int, IEC104WF::stPointTable> > > > > > >, std::_Select1st<std::pair<const std::basic_string<char, std::char_traits<char>, std::allocator<char> >, std::map<int, std::map<int, IEC104WF::stPointTable, std::less<int>, std::allocator<std::pair<const int, IEC104WF::stPointTable> > >, std::less<int>, std::allocator<std::pair<const int, std::map<int, IEC104WF::stPointTable, std::less<int>, std::allocator<std::pair<const int, IEC104WF::stPointTable> > > > > > > >, std::less<std::basic_string<char, std::char_traits<char>, std::allocator<char> > >, std::allocator<std::pair<const std::basic_string<char, std::char_traits<char>, std::allocator<char> >, std::map<int, std::map<int, IEC104WF::stPointTable, std::less<int>, std::allocator<std::pair<const int, IEC104WF::stPointTable> > >, std::less<int>, std::allocator<std::pair<const int, std::map<int, IEC104WF::stPointTable, std::less<int>, std::allocator<std::pair<const int, IEC104WF::stPointTable> > > > > > > > >::_M_insert_
FUNC 350ee 271 0 std::_Rb_tree<std::basic_string<char, std::char_traits<char>, std::allocator<char> >, std::pair<const std::basic_string<char, std::char_traits<char>, std::allocator<char> >, std::map<int, std::map<int, IEC104WF::stPointTable, std::less<int>, std::allocator<std::pair<const int, IEC104WF::stPointTable> > >, std::less<int>, std::allocator<std::pair<const int, std::map<int, IEC104WF::stPointTable, std::less<int>, std::allocator<std::pair<const int, IEC104WF::stPointTable> > > > > > >, std::_Select1st<std::pair<const std::basic_string<char, std::char_traits<char>, std::allocator<char> >, std::map<int, std::map<int, IEC104WF::stPointTable, std::less<int>, std::allocator<std::pair<const int, IEC104WF::stPointTable> > >, std::less<int>, std::allocator<std::pair<const int, std::map<int, IEC104WF::stPointTable, std::less<int>, std::allocator<std::pair<const int, IEC104WF::stPointTable> > > > > > > >, std::less<std::basic_string<char, std::char_traits<char>, std::allocator<char> > >, std::allocator<std::pair<const std::basic_string<char, std::char_traits<char>, std::allocator<char> >, std::map<int, std::map<int, IEC104WF::stPointTable, std::less<int>, std::allocator<std::pair<const int, IEC104WF::stPointTable> > >, std::less<int>, std::allocator<std::pair<const int, std::map<int, IEC104WF::stPointTable, std::less<int>, std::allocator<std::pair<const int, IEC104WF::stPointTable> > > > > > > > >::_M_insert_unique
FUNC 35360 28 0 std::_Rb_tree_const_iterator<std::pair<const std::basic_string<char, std::char_traits<char>, std::allocator<char> >, std::map<int, std::map<int, IEC104WF::stPointTable, std::less<int>, std::allocator<std::pair<const int, IEC104WF::stPointTable> > >, std::less<int>, std::allocator<std::pair<const int, std::map<int, IEC104WF::stPointTable, std::less<int>, std::allocator<std::pair<const int, IEC104WF::stPointTable> > > > > > > >::operator--
FUNC 35388 28 0 std::_Rb_tree_const_iterator<std::pair<const std::basic_string<char, std::char_traits<char>, std::allocator<char> >, std::map<int, std::map<int, IEC104WF::stPointTable, std::less<int>, std::allocator<std::pair<const int, IEC104WF::stPointTable> > >, std::less<int>, std::allocator<std::pair<const int, std::map<int, IEC104WF::stPointTable, std::less<int>, std::allocator<std::pair<const int, IEC104WF::stPointTable> > > > > > > >::operator++
FUNC 353b0 55 0 std::_Rb_tree<int, std::pair<const int, std::map<int, IEC104WF::stPointTable, std::less<int>, std::allocator<std::pair<const int, IEC104WF::stPointTable> > > >, std::_Select1st<std::pair<const int, std::map<int, IEC104WF::stPointTable, std::less<int>, std::allocator<std::pair<const int, IEC104WF::stPointTable> > > > >, std::less<int>, std::allocator<std::pair<const int, std::map<int, IEC104WF::stPointTable, std::less<int>, std::allocator<std::pair<const int, IEC104WF::stPointTable> > > > > >::_M_clone_node
FUNC 35405 12 0 std::_Rb_tree<int, std::pair<const int, std::map<int, IEC104WF::stPointTable, std::less<int>, std::allocator<std::pair<const int, IEC104WF::stPointTable> > > >, std::_Select1st<std::pair<const int, std::map<int, IEC104WF::stPointTable, std::less<int>, std::allocator<std::pair<const int, IEC104WF::stPointTable> > > > >, std::less<int>, std::allocator<std::pair<const int, std::map<int, IEC104WF::stPointTable, std::less<int>, std::allocator<std::pair<const int, IEC104WF::stPointTable> > > > > >::_S_left
FUNC 35418 92 0 std::_Rb_tree<std::basic_string<char, std::char_traits<char>, std::allocator<char> >, std::pair<const std::basic_string<char, std::char_traits<char>, std::allocator<char> >, IEC103::stConfigParam>, std::_Select1st<std::pair<const std::basic_string<char, std::char_traits<char>, std::allocator<char> >, IEC103::stConfigParam> >, std::less<std::basic_string<char, std::char_traits<char>, std::allocator<char> > >, std::allocator<std::pair<const std::basic_string<char, std::char_traits<char>, std::allocator<char> >, IEC103::stConfigParam> > >::_M_lower_bound
FUNC 354aa 19 0 std::_Rb_tree_iterator<std::pair<const std::basic_string<char, std::char_traits<char>, std::allocator<char> >, IEC103::stConfigParam> >::_Rb_tree_iterator
FUNC 354c3 2c 0 std::_Rb_tree<std::basic_string<char, std::char_traits<char>, std::allocator<char> >, std::pair<const std::basic_string<char, std::char_traits<char>, std::allocator<char> >, IEC103::stConfigParam>, std::_Select1st<std::pair<const std::basic_string<char, std::char_traits<char>, std::allocator<char> >, IEC103::stConfigParam> >, std::less<std::basic_string<char, std::char_traits<char>, std::allocator<char> > >, std::allocator<std::pair<const std::basic_string<char, std::char_traits<char>, std::allocator<char> >, IEC103::stConfigParam> > >::_S_key
FUNC 354f0 12 0 std::_Select1st<std::pair<const std::basic_string<char, std::char_traits<char>, std::allocator<char> >, IEC103::stConfigParam> >::operator()
FUNC 35502 12 0 std::_Rb_tree<std::basic_string<char, std::char_traits<char>, std::allocator<char> >, std::pair<const std::basic_string<char, std::char_traits<char>, std::allocator<char> >, IEC103::stConfigParam>, std::_Select1st<std::pair<const std::basic_string<char, std::char_traits<char>, std::allocator<char> >, IEC103::stConfigParam> >, std::less<std::basic_string<char, std::char_traits<char>, std::allocator<char> > >, std::allocator<std::pair<const std::basic_string<char, std::char_traits<char>, std::allocator<char> >, IEC103::stConfigParam> > >::size
FUNC 35514 e3 0 std::_Rb_tree<std::basic_string<char, std::char_traits<char>, std::allocator<char> >, std::pair<const std::basic_string<char, std::char_traits<char>, std::allocator<char> >, IEC103::stConfigParam>, std::_Select1st<std::pair<const std::basic_string<char, std::char_traits<char>, std::allocator<char> >, IEC103::stConfigParam> >, std::less<std::basic_string<char, std::char_traits<char>, std::allocator<char> > >, std::allocator<std::pair<const std::basic_string<char, std::char_traits<char>, std::allocator<char> >, IEC103::stConfigParam> > >::_M_insert_
FUNC 355f8 271 0 std::_Rb_tree<std::basic_string<char, std::char_traits<char>, std::allocator<char> >, std::pair<const std::basic_string<char, std::char_traits<char>, std::allocator<char> >, IEC103::stConfigParam>, std::_Select1st<std::pair<const std::basic_string<char, std::char_traits<char>, std::allocator<char> >, IEC103::stConfigParam> >, std::less<std::basic_string<char, std::char_traits<char>, std::allocator<char> > >, std::allocator<std::pair<const std::basic_string<char, std::char_traits<char>, std::allocator<char> >, IEC103::stConfigParam> > >::_M_insert_unique
FUNC 3586a 28 0 std::_Rb_tree_const_iterator<std::pair<const std::basic_string<char, std::char_traits<char>, std::allocator<char> >, IEC103::stConfigParam> >::operator--
FUNC 35892 28 0 std::_Rb_tree_const_iterator<std::pair<const std::basic_string<char, std::char_traits<char>, std::allocator<char> >, IEC103::stConfigParam> >::operator++
FUNC 358ba 92 0 std::_Rb_tree<std::basic_string<char, std::char_traits<char>, std::allocator<char> >, std::pair<const std::basic_string<char, std::char_traits<char>, std::allocator<char> >, std::map<std::basic_string<char, std::char_traits<char>, std::allocator<char> >, std::basic_string<char, std::char_traits<char>, std::allocator<char> >, std::less<std::basic_string<char, std::char_traits<char>, std::allocator<char> > >, std::allocator<std::pair<const std::basic_string<char, std::char_traits<char>, std::allocator<char> >, std::basic_string<char, std::char_traits<char>, std::allocator<char> > > > > >, std::_Select1st<std::pair<const std::basic_string<char, std::char_traits<char>, std::allocator<char> >, std::map<std::basic_string<char, std::char_traits<char>, std::allocator<char> >, std::basic_string<char, std::char_traits<char>, std::allocator<char> >, std::less<std::basic_string<char, std::char_traits<char>, std::allocator<char> > >, std::allocator<std::pair<const std::basic_string<char, std::char_traits<char>, std::allocator<char> >, std::basic_string<char, std::char_traits<char>, std::allocator<char> > > > > > >, std::less<std::basic_string<char, std::char_traits<char>, std::allocator<char> > >, std::allocator<std::pair<const std::basic_string<char, std::char_traits<char>, std::allocator<char> >, std::map<std::basic_string<char, std::char_traits<char>, std::allocator<char> >, std::basic_string<char, std::char_traits<char>, std::allocator<char> >, std::less<std::basic_string<char, std::char_traits<char>, std::allocator<char> > >, std::allocator<std::pair<const std::basic_string<char, std::char_traits<char>, std::allocator<char> >, std::basic_string<char, std::char_traits<char>, std::allocator<char> > > > > > > >::_M_lower_bound
FUNC 3594c 19 0 std::_Rb_tree_iterator<std::pair<const std::basic_string<char, std::char_traits<char>, std::allocator<char> >, std::map<std::basic_string<char, std::char_traits<char>, std::allocator<char> >, std::basic_string<char, std::char_traits<char>, std::allocator<char> >, std::less<std::basic_string<char, std::char_traits<char>, std::allocator<char> > >, std::allocator<std::pair<const std::basic_string<char, std::char_traits<char>, std::allocator<char> >, std::basic_string<char, std::char_traits<char>, std::allocator<char> > > > > > >::_Rb_tree_iterator
FUNC 35965 2c 0 std::_Rb_tree<std::basic_string<char, std::char_traits<char>, std::allocator<char> >, std::pair<const std::basic_string<char, std::char_traits<char>, std::allocator<char> >, std::map<std::basic_string<char, std::char_traits<char>, std::allocator<char> >, std::basic_string<char, std::char_traits<char>, std::allocator<char> >, std::less<std::basic_string<char, std::char_traits<char>, std::allocator<char> > >, std::allocator<std::pair<const std::basic_string<char, std::char_traits<char>, std::allocator<char> >, std::basic_string<char, std::char_traits<char>, std::allocator<char> > > > > >, std::_Select1st<std::pair<const std::basic_string<char, std::char_traits<char>, std::allocator<char> >, std::map<std::basic_string<char, std::char_traits<char>, std::allocator<char> >, std::basic_string<char, std::char_traits<char>, std::allocator<char> >, std::less<std::basic_string<char, std::char_traits<char>, std::allocator<char> > >, std::allocator<std::pair<const std::basic_string<char, std::char_traits<char>, std::allocator<char> >, std::basic_string<char, std::char_traits<char>, std::allocator<char> > > > > > >, std::less<std::basic_string<char, std::char_traits<char>, std::allocator<char> > >, std::allocator<std::pair<const std::basic_string<char, std::char_traits<char>, std::allocator<char> >, std::map<std::basic_string<char, std::char_traits<char>, std::allocator<char> >, std::basic_string<char, std::char_traits<char>, std::allocator<char> >, std::less<std::basic_string<char, std::char_traits<char>, std::allocator<char> > >, std::allocator<std::pair<const std::basic_string<char, std::char_traits<char>, std::allocator<char> >, std::basic_string<char, std::char_traits<char>, std::allocator<char> > > > > > > >::_S_key
FUNC 35992 12 0 std::_Select1st<std::pair<const std::basic_string<char, std::char_traits<char>, std::allocator<char> >, std::map<std::basic_string<char, std::char_traits<char>, std::allocator<char> >, std::basic_string<char, std::char_traits<char>, std::allocator<char> >, std::less<std::basic_string<char, std::char_traits<char>, std::allocator<char> > >, std::allocator<std::pair<const std::basic_string<char, std::char_traits<char>, std::allocator<char> >, std::basic_string<char, std::char_traits<char>, std::allocator<char> > > > > > >::operator()
FUNC 359a4 12 0 std::_Rb_tree<std::basic_string<char, std::char_traits<char>, std::allocator<char> >, std::pair<const std::basic_string<char, std::char_traits<char>, std::allocator<char> >, std::map<std::basic_string<char, std::char_traits<char>, std::allocator<char> >, std::basic_string<char, std::char_traits<char>, std::allocator<char> >, std::less<std::basic_string<char, std::char_traits<char>, std::allocator<char> > >, std::allocator<std::pair<const std::basic_string<char, std::char_traits<char>, std::allocator<char> >, std::basic_string<char, std::char_traits<char>, std::allocator<char> > > > > >, std::_Select1st<std::pair<const std::basic_string<char, std::char_traits<char>, std::allocator<char> >, std::map<std::basic_string<char, std::char_traits<char>, std::allocator<char> >, std::basic_string<char, std::char_traits<char>, std::allocator<char> >, std::less<std::basic_string<char, std::char_traits<char>, std::allocator<char> > >, std::allocator<std::pair<const std::basic_string<char, std::char_traits<char>, std::allocator<char> >, std::basic_string<char, std::char_traits<char>, std::allocator<char> > > > > > >, std::less<std::basic_string<char, std::char_traits<char>, std::allocator<char> > >, std::allocator<std::pair<const std::basic_string<char, std::char_traits<char>, std::allocator<char> >, std::map<std::basic_string<char, std::char_traits<char>, std::allocator<char> >, std::basic_string<char, std::char_traits<char>, std::allocator<char> >, std::less<std::basic_string<char, std::char_traits<char>, std::allocator<char> > >, std::allocator<std::pair<const std::basic_string<char, std::char_traits<char>, std::allocator<char> >, std::basic_string<char, std::char_traits<char>, std::allocator<char> > > > > > > >::size
FUNC 359b6 e3 0 std::_Rb_tree<std::basic_string<char, std::char_traits<char>, std::allocator<char> >, std::pair<const std::basic_string<char, std::char_traits<char>, std::allocator<char> >, std::map<std::basic_string<char, std::char_traits<char>, std::allocator<char> >, std::basic_string<char, std::char_traits<char>, std::allocator<char> >, std::less<std::basic_string<char, std::char_traits<char>, std::allocator<char> > >, std::allocator<std::pair<const std::basic_string<char, std::char_traits<char>, std::allocator<char> >, std::basic_string<char, std::char_traits<char>, std::allocator<char> > > > > >, std::_Select1st<std::pair<const std::basic_string<char, std::char_traits<char>, std::allocator<char> >, std::map<std::basic_string<char, std::char_traits<char>, std::allocator<char> >, std::basic_string<char, std::char_traits<char>, std::allocator<char> >, std::less<std::basic_string<char, std::char_traits<char>, std::allocator<char> > >, std::allocator<std::pair<const std::basic_string<char, std::char_traits<char>, std::allocator<char> >, std::basic_string<char, std::char_traits<char>, std::allocator<char> > > > > > >, std::less<std::basic_string<char, std::char_traits<char>, std::allocator<char> > >, std::allocator<std::pair<const std::basic_string<char, std::char_traits<char>, std::allocator<char> >, std::map<std::basic_string<char, std::char_traits<char>, std::allocator<char> >, std::basic_string<char, std::char_traits<char>, std::allocator<char> >, std::less<std::basic_string<char, std::char_traits<char>, std::allocator<char> > >, std::allocator<std::pair<const std::basic_string<char, std::char_traits<char>, std::allocator<char> >, std::basic_string<char, std::char_traits<char>, std::allocator<char> > > > > > > >::_M_insert_
FUNC 35a9a 271 0 std::_Rb_tree<std::basic_string<char, std::char_traits<char>, std::allocator<char> >, std::pair<const std::basic_string<char, std::char_traits<char>, std::allocator<char> >, std::map<std::basic_string<char, std::char_traits<char>, std::allocator<char> >, std::basic_string<char, std::char_traits<char>, std::allocator<char> >, std::less<std::basic_string<char, std::char_traits<char>, std::allocator<char> > >, std::allocator<std::pair<const std::basic_string<char, std::char_traits<char>, std::allocator<char> >, std::basic_string<char, std::char_traits<char>, std::allocator<char> > > > > >, std::_Select1st<std::pair<const std::basic_string<char, std::char_traits<char>, std::allocator<char> >, std::map<std::basic_string<char, std::char_traits<char>, std::allocator<char> >, std::basic_string<char, std::char_traits<char>, std::allocator<char> >, std::less<std::basic_string<char, std::char_traits<char>, std::allocator<char> > >, std::allocator<std::pair<const std::basic_string<char, std::char_traits<char>, std::allocator<char> >, std::basic_string<char, std::char_traits<char>, std::allocator<char> > > > > > >, std::less<std::basic_string<char, std::char_traits<char>, std::allocator<char> > >, std::allocator<std::pair<const std::basic_string<char, std::char_traits<char>, std::allocator<char> >, std::map<std::basic_string<char, std::char_traits<char>, std::allocator<char> >, std::basic_string<char, std::char_traits<char>, std::allocator<char> >, std::less<std::basic_string<char, std::char_traits<char>, std::allocator<char> > >, std::allocator<std::pair<const std::basic_string<char, std::char_traits<char>, std::allocator<char> >, std::basic_string<char, std::char_traits<char>, std::allocator<char> > > > > > > >::_M_insert_unique
FUNC 35d0c 28 0 std::_Rb_tree_const_iterator<std::pair<const std::basic_string<char, std::char_traits<char>, std::allocator<char> >, std::map<std::basic_string<char, std::char_traits<char>, std::allocator<char> >, std::basic_string<char, std::char_traits<char>, std::allocator<char> >, std::less<std::basic_string<char, std::char_traits<char>, std::allocator<char> > >, std::allocator<std::pair<const std::basic_string<char, std::char_traits<char>, std::allocator<char> >, std::basic_string<char, std::char_traits<char>, std::allocator<char> > > > > > >::operator--
FUNC 35d34 28 0 std::_Rb_tree_const_iterator<std::pair<const std::basic_string<char, std::char_traits<char>, std::allocator<char> >, std::map<std::basic_string<char, std::char_traits<char>, std::allocator<char> >, std::basic_string<char, std::char_traits<char>, std::allocator<char> >, std::less<std::basic_string<char, std::char_traits<char>, std::allocator<char> > >, std::allocator<std::pair<const std::basic_string<char, std::char_traits<char>, std::allocator<char> >, std::basic_string<char, std::char_traits<char>, std::allocator<char> > > > > > >::operator++
FUNC 35d5c 24 0 std::_List_base<std::basic_string<char, std::char_traits<char>, std::allocator<char> >, std::allocator<std::basic_string<char, std::char_traits<char>, std::allocator<char> > > >::_M_get_node
FUNC 35d80 a 0 __gnu_cxx::new_allocator<std::_Rb_tree_node<std::pair<const std::basic_string<char, std::char_traits<char>, std::allocator<char> >, IEC61850_STRUCT::IED_61850> > >::new_allocator
FUNC 35d8a 1e 0 std::allocator<std::pair<const std::basic_string<char, std::char_traits<char>, std::allocator<char> >, IEC61850_STRUCT::IED_61850> >::allocator<std::_Rb_tree_node<std::pair<const std::basic_string<char, std::char_traits<char>, std::allocator<char> >, IEC61850_STRUCT::IED_61850> > >
FUNC 35da8 a 0 __gnu_cxx::new_allocator<std::pair<const std::basic_string<char, std::char_traits<char>, std::allocator<char> >, IEC61850_STRUCT::IED_61850> >::~new_allocator
FUNC 35db2 22 0 __gnu_cxx::new_allocator<std::_Rb_tree_node<std::pair<const std::basic_string<char, std::char_traits<char>, std::allocator<char> >, IEC61850_STRUCT::IED_61850> > >::deallocate
FUNC 35dd4 e 0 __gnu_cxx::new_allocator<std::basic_string<char, std::char_traits<char>, std::allocator<char> > >::new_allocator
FUNC 35de2 a 0 __gnu_cxx::new_allocator<std::_Rb_tree_node<std::pair<const std::basic_string<char, std::char_traits<char>, std::allocator<char> >, std::map<int, std::map<int, IEC104WF::stPointTable, std::less<int>, std::allocator<std::pair<const int, IEC104WF::stPointTable> > >, std::less<int>, std::allocator<std::pair<const int, std::map<int, IEC104WF::stPointTable, std::less<int>, std::allocator<std::pair<const int, IEC104WF::stPointTable> > > > > > > > >::new_allocator
FUNC 35dec 1e 0 std::allocator<std::pair<const std::basic_string<char, std::char_traits<char>, std::allocator<char> >, std::map<int, std::map<int, IEC104WF::stPointTable, std::less<int>, std::allocator<std::pair<const int, IEC104WF::stPointTable> > >, std::less<int>, std::allocator<std::pair<const int, std::map<int, IEC104WF::stPointTable, std::less<int>, std::allocator<std::pair<const int, IEC104WF::stPointTable> > > > > > > >::allocator<std::_Rb_tree_node<std::pair<const std::basic_string<char, std::char_traits<char>, std::allocator<char> >, std::map<int, std::map<int, IEC104WF::stPointTable, std::less<int>, std::allocator<std::pair<const int, IEC104WF::stPointTable> > >, std::less<int>, std::allocator<std::pair<const int, std::map<int, IEC104WF::stPointTable, std::less<int>, std::allocator<std::pair<const int, IEC104WF::stPointTable> > > > > > > > >
FUNC 35e0a a 0 __gnu_cxx::new_allocator<std::pair<const std::basic_string<char, std::char_traits<char>, std::allocator<char> >, std::map<int, std::map<int, IEC104WF::stPointTable, std::less<int>, std::allocator<std::pair<const int, IEC104WF::stPointTable> > >, std::less<int>, std::allocator<std::pair<const int, std::map<int, IEC104WF::stPointTable, std::less<int>, std::allocator<std::pair<const int, IEC104WF::stPointTable> > > > > > > >::~new_allocator
FUNC 35e14 22 0 __gnu_cxx::new_allocator<std::_Rb_tree_node<std::pair<const std::basic_string<char, std::char_traits<char>, std::allocator<char> >, std::map<int, std::map<int, IEC104WF::stPointTable, std::less<int>, std::allocator<std::pair<const int, IEC104WF::stPointTable> > >, std::less<int>, std::allocator<std::pair<const int, std::map<int, IEC104WF::stPointTable, std::less<int>, std::allocator<std::pair<const int, IEC104WF::stPointTable> > > > > > > > >::deallocate
FUNC 35e36 a 0 __gnu_cxx::new_allocator<std::_Rb_tree_node<std::pair<const int, std::map<int, IEC104WF::stPointTable, std::less<int>, std::allocator<std::pair<const int, IEC104WF::stPointTable> > > > > >::new_allocator
FUNC 35e40 e 0 std::_Rb_tree<int, std::pair<const int, std::map<int, IEC104WF::stPointTable, std::less<int>, std::allocator<std::pair<const int, IEC104WF::stPointTable> > > >, std::_Select1st<std::pair<const int, std::map<int, IEC104WF::stPointTable, std::less<int>, std::allocator<std::pair<const int, IEC104WF::stPointTable> > > > >, std::less<int>, std::allocator<std::pair<const int, std::map<int, IEC104WF::stPointTable, std::less<int>, std::allocator<std::pair<const int, IEC104WF::stPointTable> > > > > >::_M_get_Node_allocator
FUNC 35e4e 1e 0 std::allocator<std::pair<const int, std::map<int, IEC104WF::stPointTable, std::less<int>, std::allocator<std::pair<const int, IEC104WF::stPointTable> > > > >::allocator<std::_Rb_tree_node<std::pair<const int, std::map<int, IEC104WF::stPointTable, std::less<int>, std::allocator<std::pair<const int, IEC104WF::stPointTable> > > > > >
FUNC 35e6c a 0 __gnu_cxx::new_allocator<std::pair<const int, std::map<int, IEC104WF::stPointTable, std::less<int>, std::allocator<std::pair<const int, IEC104WF::stPointTable> > > > >::~new_allocator
FUNC 35e76 22 0 __gnu_cxx::new_allocator<std::_Rb_tree_node<std::pair<const int, std::map<int, IEC104WF::stPointTable, std::less<int>, std::allocator<std::pair<const int, IEC104WF::stPointTable> > > > > >::deallocate
FUNC 35e98 a 0 __gnu_cxx::new_allocator<std::_Rb_tree_node<std::pair<const int, IEC104WF::stPointTable> > >::new_allocator
FUNC 35ea2 e 0 std::_Rb_tree<int, std::pair<const int, IEC104WF::stPointTable>, std::_Select1st<std::pair<const int, IEC104WF::stPointTable> >, std::less<int>, std::allocator<std::pair<const int, IEC104WF::stPointTable> > >::_M_get_Node_allocator
FUNC 35eb0 1e 0 std::allocator<std::pair<const int, IEC104WF::stPointTable> >::allocator<std::_Rb_tree_node<std::pair<const int, IEC104WF::stPointTable> > >
FUNC 35ece a 0 __gnu_cxx::new_allocator<std::pair<const int, IEC104WF::stPointTable> >::~new_allocator
FUNC 35ed8 22 0 __gnu_cxx::new_allocator<std::_Rb_tree_node<std::pair<const int, IEC104WF::stPointTable> > >::deallocate
FUNC 35efa a 0 __gnu_cxx::new_allocator<std::_Rb_tree_node<std::pair<const std::basic_string<char, std::char_traits<char>, std::allocator<char> >, IEC103::stConfigParam> > >::new_allocator
FUNC 35f04 1e 0 std::allocator<std::pair<const std::basic_string<char, std::char_traits<char>, std::allocator<char> >, IEC103::stConfigParam> >::allocator<std::_Rb_tree_node<std::pair<const std::basic_string<char, std::char_traits<char>, std::allocator<char> >, IEC103::stConfigParam> > >
FUNC 35f22 a 0 __gnu_cxx::new_allocator<std::pair<const std::basic_string<char, std::char_traits<char>, std::allocator<char> >, IEC103::stConfigParam> >::~new_allocator
FUNC 35f2c 22 0 __gnu_cxx::new_allocator<std::_Rb_tree_node<std::pair<const std::basic_string<char, std::char_traits<char>, std::allocator<char> >, IEC103::stConfigParam> > >::deallocate
FUNC 35f4e a 0 __gnu_cxx::new_allocator<std::_Rb_tree_node<std::pair<const std::basic_string<char, std::char_traits<char>, std::allocator<char> >, std::map<std::basic_string<char, std::char_traits<char>, std::allocator<char> >, std::basic_string<char, std::char_traits<char>, std::allocator<char> >, std::less<std::basic_string<char, std::char_traits<char>, std::allocator<char> > >, std::allocator<std::pair<const std::basic_string<char, std::char_traits<char>, std::allocator<char> >, std::basic_string<char, std::char_traits<char>, std::allocator<char> > > > > > > >::new_allocator
FUNC 35f58 1e 0 std::allocator<std::pair<const std::basic_string<char, std::char_traits<char>, std::allocator<char> >, std::map<std::basic_string<char, std::char_traits<char>, std::allocator<char> >, std::basic_string<char, std::char_traits<char>, std::allocator<char> >, std::less<std::basic_string<char, std::char_traits<char>, std::allocator<char> > >, std::allocator<std::pair<const std::basic_string<char, std::char_traits<char>, std::allocator<char> >, std::basic_string<char, std::char_traits<char>, std::allocator<char> > > > > > >::allocator<std::_Rb_tree_node<std::pair<const std::basic_string<char, std::char_traits<char>, std::allocator<char> >, std::map<std::basic_string<char, std::char_traits<char>, std::allocator<char> >, std::basic_string<char, std::char_traits<char>, std::allocator<char> >, std::less<std::basic_string<char, std::char_traits<char>, std::allocator<char> > >, std::allocator<std::pair<const std::basic_string<char, std::char_traits<char>, std::allocator<char> >, std::basic_string<char, std::char_traits<char>, std::allocator<char> > > > > > > >
FUNC 35f76 a 0 __gnu_cxx::new_allocator<std::pair<const std::basic_string<char, std::char_traits<char>, std::allocator<char> >, std::map<std::basic_string<char, std::char_traits<char>, std::allocator<char> >, std::basic_string<char, std::char_traits<char>, std::allocator<char> >, std::less<std::basic_string<char, std::char_traits<char>, std::allocator<char> > >, std::allocator<std::pair<const std::basic_string<char, std::char_traits<char>, std::allocator<char> >, std::basic_string<char, std::char_traits<char>, std::allocator<char> > > > > > >::~new_allocator
FUNC 35f80 22 0 __gnu_cxx::new_allocator<std::_Rb_tree_node<std::pair<const std::basic_string<char, std::char_traits<char>, std::allocator<char> >, std::map<std::basic_string<char, std::char_traits<char>, std::allocator<char> >, std::basic_string<char, std::char_traits<char>, std::allocator<char> >, std::less<std::basic_string<char, std::char_traits<char>, std::allocator<char> > >, std::allocator<std::pair<const std::basic_string<char, std::char_traits<char>, std::allocator<char> >, std::basic_string<char, std::char_traits<char>, std::allocator<char> > > > > > > >::deallocate
FUNC 35fa2 e 0 __gnu_cxx::new_allocator<std::_Rb_tree_node<std::pair<const std::basic_string<char, std::char_traits<char>, std::allocator<char> >, IEC61850_STRUCT::IED_61850> > >::new_allocator
FUNC 35fb0 bb 0 std::_Rb_tree<std::basic_string<char, std::char_traits<char>, std::allocator<char> >, std::pair<const std::basic_string<char, std::char_traits<char>, std::allocator<char> >, IEC61850_STRUCT::IED_61850>, std::_Select1st<std::pair<const std::basic_string<char, std::char_traits<char>, std::allocator<char> >, IEC61850_STRUCT::IED_61850> >, std::less<std::basic_string<char, std::char_traits<char>, std::allocator<char> > >, std::allocator<std::pair<const std::basic_string<char, std::char_traits<char>, std::allocator<char> >, IEC61850_STRUCT::IED_61850> > >::_M_create_node
FUNC 3606c e 0 __gnu_cxx::new_allocator<std::_Rb_tree_node<std::pair<const std::basic_string<char, std::char_traits<char>, std::allocator<char> >, IEC103::stConfigParam> > >::new_allocator
FUNC 3607a bb 0 std::_Rb_tree<std::basic_string<char, std::char_traits<char>, std::allocator<char> >, std::pair<const std::basic_string<char, std::char_traits<char>, std::allocator<char> >, IEC103::stConfigParam>, std::_Select1st<std::pair<const std::basic_string<char, std::char_traits<char>, std::allocator<char> >, IEC103::stConfigParam> >, std::less<std::basic_string<char, std::char_traits<char>, std::allocator<char> > >, std::allocator<std::pair<const std::basic_string<char, std::char_traits<char>, std::allocator<char> >, IEC103::stConfigParam> > >::_M_create_node
FUNC 36136 e 0 __gnu_cxx::new_allocator<std::_Rb_tree_node<std::pair<const std::basic_string<char, std::char_traits<char>, std::allocator<char> >, std::map<std::basic_string<char, std::char_traits<char>, std::allocator<char> >, std::basic_string<char, std::char_traits<char>, std::allocator<char> >, std::less<std::basic_string<char, std::char_traits<char>, std::allocator<char> > >, std::allocator<std::pair<const std::basic_string<char, std::char_traits<char>, std::allocator<char> >, std::basic_string<char, std::char_traits<char>, std::allocator<char> > > > > > > >::new_allocator
FUNC 36144 bb 0 std::_Rb_tree<std::basic_string<char, std::char_traits<char>, std::allocator<char> >, std::pair<const std::basic_string<char, std::char_traits<char>, std::allocator<char> >, std::map<std::basic_string<char, std::char_traits<char>, std::allocator<char> >, std::basic_string<char, std::char_traits<char>, std::allocator<char> >, std::less<std::basic_string<char, std::char_traits<char>, std::allocator<char> > >, std::allocator<std::pair<const std::basic_string<char, std::char_traits<char>, std::allocator<char> >, std::basic_string<char, std::char_traits<char>, std::allocator<char> > > > > >, std::_Select1st<std::pair<const std::basic_string<char, std::char_traits<char>, std::allocator<char> >, std::map<std::basic_string<char, std::char_traits<char>, std::allocator<char> >, std::basic_string<char, std::char_traits<char>, std::allocator<char> >, std::less<std::basic_string<char, std::char_traits<char>, std::allocator<char> > >, std::allocator<std::pair<const std::basic_string<char, std::char_traits<char>, std::allocator<char> >, std::basic_string<char, std::char_traits<char>, std::allocator<char> > > > > > >, std::less<std::basic_string<char, std::char_traits<char>, std::allocator<char> > >, std::allocator<std::pair<const std::basic_string<char, std::char_traits<char>, std::allocator<char> >, std::map<std::basic_string<char, std::char_traits<char>, std::allocator<char> >, std::basic_string<char, std::char_traits<char>, std::allocator<char> >, std::less<std::basic_string<char, std::char_traits<char>, std::allocator<char> > >, std::allocator<std::pair<const std::basic_string<char, std::char_traits<char>, std::allocator<char> >, std::basic_string<char, std::char_traits<char>, std::allocator<char> > > > > > > >::_M_create_node
FUNC 36200 e 0 __gnu_cxx::new_allocator<std::_Rb_tree_node<std::pair<const std::basic_string<char, std::char_traits<char>, std::allocator<char> >, std::map<int, std::map<int, IEC104WF::stPointTable, std::less<int>, std::allocator<std::pair<const int, IEC104WF::stPointTable> > >, std::less<int>, std::allocator<std::pair<const int, std::map<int, IEC104WF::stPointTable, std::less<int>, std::allocator<std::pair<const int, IEC104WF::stPointTable> > > > > > > > >::new_allocator
FUNC 3620e bb 0 std::_Rb_tree<std::basic_string<char, std::char_traits<char>, std::allocator<char> >, std::pair<const std::basic_string<char, std::char_traits<char>, std::allocator<char> >, std::map<int, std::map<int, IEC104WF::stPointTable, std::less<int>, std::allocator<std::pair<const int, IEC104WF::stPointTable> > >, std::less<int>, std::allocator<std::pair<const int, std::map<int, IEC104WF::stPointTable, std::less<int>, std::allocator<std::pair<const int, IEC104WF::stPointTable> > > > > > >, std::_Select1st<std::pair<const std::basic_string<char, std::char_traits<char>, std::allocator<char> >, std::map<int, std::map<int, IEC104WF::stPointTable, std::less<int>, std::allocator<std::pair<const int, IEC104WF::stPointTable> > >, std::less<int>, std::allocator<std::pair<const int, std::map<int, IEC104WF::stPointTable, std::less<int>, std::allocator<std::pair<const int, IEC104WF::stPointTable> > > > > > > >, std::less<std::basic_string<char, std::char_traits<char>, std::allocator<char> > >, std::allocator<std::pair<const std::basic_string<char, std::char_traits<char>, std::allocator<char> >, std::map<int, std::map<int, IEC104WF::stPointTable, std::less<int>, std::allocator<std::pair<const int, IEC104WF::stPointTable> > >, std::less<int>, std::allocator<std::pair<const int, std::map<int, IEC104WF::stPointTable, std::less<int>, std::allocator<std::pair<const int, IEC104WF::stPointTable> > > > > > > > >::_M_create_node
FUNC 362ca e 0 __gnu_cxx::new_allocator<std::_List_node<std::basic_string<char, std::char_traits<char>, std::allocator<char> > > >::new_allocator
FUNC 362d8 2c 0 std::_Rb_tree<std::basic_string<char, std::char_traits<char>, std::allocator<char> >, std::pair<const std::basic_string<char, std::char_traits<char>, std::allocator<char> >, IEC61850_STRUCT::IED_61850>, std::_Select1st<std::pair<const std::basic_string<char, std::char_traits<char>, std::allocator<char> >, IEC61850_STRUCT::IED_61850> >, std::less<std::basic_string<char, std::char_traits<char>, std::allocator<char> > >, std::allocator<std::pair<const std::basic_string<char, std::char_traits<char>, std::allocator<char> >, IEC61850_STRUCT::IED_61850> > >::_S_key
FUNC 36304 12 0 std::_Rb_tree<std::basic_string<char, std::char_traits<char>, std::allocator<char> >, std::pair<const std::basic_string<char, std::char_traits<char>, std::allocator<char> >, IEC61850_STRUCT::IED_61850>, std::_Select1st<std::pair<const std::basic_string<char, std::char_traits<char>, std::allocator<char> >, IEC61850_STRUCT::IED_61850> >, std::less<std::basic_string<char, std::char_traits<char>, std::allocator<char> > >, std::allocator<std::pair<const std::basic_string<char, std::char_traits<char>, std::allocator<char> >, IEC61850_STRUCT::IED_61850> > >::_S_value
FUNC 36316 2c 0 std::_Rb_tree<std::basic_string<char, std::char_traits<char>, std::allocator<char> >, std::pair<const std::basic_string<char, std::char_traits<char>, std::allocator<char> >, IEC61850_STRUCT::IED_61850>, std::_Select1st<std::pair<const std::basic_string<char, std::char_traits<char>, std::allocator<char> >, IEC61850_STRUCT::IED_61850> >, std::less<std::basic_string<char, std::char_traits<char>, std::allocator<char> > >, std::allocator<std::pair<const std::basic_string<char, std::char_traits<char>, std::allocator<char> >, IEC61850_STRUCT::IED_61850> > >::begin
FUNC 36342 2e 0 std::pair<std::_Rb_tree_iterator<std::pair<const std::basic_string<char, std::char_traits<char>, std::allocator<char> >, IEC61850_STRUCT::IED_61850> >, bool>::pair
FUNC 36370 28 0 std::_Rb_tree_iterator<std::pair<const std::basic_string<char, std::char_traits<char>, std::allocator<char> >, IEC61850_STRUCT::IED_61850> >::operator--
FUNC 36398 2c 0 std::_Rb_tree<int, std::pair<const int, IEC104WF::stPointTable>, std::_Select1st<std::pair<const int, IEC104WF::stPointTable> >, std::less<int>, std::allocator<std::pair<const int, IEC104WF::stPointTable> > >::_S_key
FUNC 363c4 12 0 std::_Rb_tree<int, std::pair<const int, IEC104WF::stPointTable>, std::_Select1st<std::pair<const int, IEC104WF::stPointTable> >, std::less<int>, std::allocator<std::pair<const int, IEC104WF::stPointTable> > >::_S_value
FUNC 363d6 bb 0 std::_Rb_tree<int, std::pair<const int, IEC104WF::stPointTable>, std::_Select1st<std::pair<const int, IEC104WF::stPointTable> >, std::less<int>, std::allocator<std::pair<const int, IEC104WF::stPointTable> > >::_M_create_node
FUNC 36492 2c 0 std::_Rb_tree<int, std::pair<const int, IEC104WF::stPointTable>, std::_Select1st<std::pair<const int, IEC104WF::stPointTable> >, std::less<int>, std::allocator<std::pair<const int, IEC104WF::stPointTable> > >::begin
FUNC 364be 2e 0 std::pair<std::_Rb_tree_iterator<std::pair<const int, IEC104WF::stPointTable> >, bool>::pair
FUNC 364ec 28 0 std::_Rb_tree_iterator<std::pair<const int, IEC104WF::stPointTable> >::operator--
FUNC 36514 2c 0 std::_Rb_tree<int, std::pair<const int, std::map<int, IEC104WF::stPointTable, std::less<int>, std::allocator<std::pair<const int, IEC104WF::stPointTable> > > >, std::_Select1st<std::pair<const int, std::map<int, IEC104WF::stPointTable, std::less<int>, std::allocator<std::pair<const int, IEC104WF::stPointTable> > > > >, std::less<int>, std::allocator<std::pair<const int, std::map<int, IEC104WF::stPointTable, std::less<int>, std::allocator<std::pair<const int, IEC104WF::stPointTable> > > > > >::_S_key
FUNC 36540 70 0 std::_Rb_tree<int, std::pair<const int, IEC104WF::stPointTable>, std::_Select1st<std::pair<const int, IEC104WF::stPointTable> >, std::less<int>, std::allocator<std::pair<const int, IEC104WF::stPointTable> > >::_Rb_tree_impl<std::less<int>, false>::_Rb_tree_impl
FUNC 365b0 12 0 std::_Rb_tree<int, std::pair<const int, std::map<int, IEC104WF::stPointTable, std::less<int>, std::allocator<std::pair<const int, IEC104WF::stPointTable> > > >, std::_Select1st<std::pair<const int, std::map<int, IEC104WF::stPointTable, std::less<int>, std::allocator<std::pair<const int, IEC104WF::stPointTable> > > > >, std::less<int>, std::allocator<std::pair<const int, std::map<int, IEC104WF::stPointTable, std::less<int>, std::allocator<std::pair<const int, IEC104WF::stPointTable> > > > > >::_S_value
FUNC 365c2 bb 0 std::_Rb_tree<int, std::pair<const int, std::map<int, IEC104WF::stPointTable, std::less<int>, std::allocator<std::pair<const int, IEC104WF::stPointTable> > > >, std::_Select1st<std::pair<const int, std::map<int, IEC104WF::stPointTable, std::less<int>, std::allocator<std::pair<const int, IEC104WF::stPointTable> > > > >, std::less<int>, std::allocator<std::pair<const int, std::map<int, IEC104WF::stPointTable, std::less<int>, std::allocator<std::pair<const int, IEC104WF::stPointTable> > > > > >::_M_create_node
FUNC 3667e 2c 0 std::_Rb_tree<int, std::pair<const int, std::map<int, IEC104WF::stPointTable, std::less<int>, std::allocator<std::pair<const int, IEC104WF::stPointTable> > > >, std::_Select1st<std::pair<const int, std::map<int, IEC104WF::stPointTable, std::less<int>, std::allocator<std::pair<const int, IEC104WF::stPointTable> > > > >, std::less<int>, std::allocator<std::pair<const int, std::map<int, IEC104WF::stPointTable, std::less<int>, std::allocator<std::pair<const int, IEC104WF::stPointTable> > > > > >::begin
FUNC 366aa 2e 0 std::pair<std::_Rb_tree_iterator<std::pair<const int, std::map<int, IEC104WF::stPointTable, std::less<int>, std::allocator<std::pair<const int, IEC104WF::stPointTable> > > > >, bool>::pair
FUNC 366d8 28 0 std::_Rb_tree_iterator<std::pair<const int, std::map<int, IEC104WF::stPointTable, std::less<int>, std::allocator<std::pair<const int, IEC104WF::stPointTable> > > > >::operator--
FUNC 36700 2c 0 std::_Rb_tree<std::basic_string<char, std::char_traits<char>, std::allocator<char> >, std::pair<const std::basic_string<char, std::char_traits<char>, std::allocator<char> >, std::map<int, std::map<int, IEC104WF::stPointTable, std::less<int>, std::allocator<std::pair<const int, IEC104WF::stPointTable> > >, std::less<int>, std::allocator<std::pair<const int, std::map<int, IEC104WF::stPointTable, std::less<int>, std::allocator<std::pair<const int, IEC104WF::stPointTable> > > > > > >, std::_Select1st<std::pair<const std::basic_string<char, std::char_traits<char>, std::allocator<char> >, std::map<int, std::map<int, IEC104WF::stPointTable, std::less<int>, std::allocator<std::pair<const int, IEC104WF::stPointTable> > >, std::less<int>, std::allocator<std::pair<const int, std::map<int, IEC104WF::stPointTable, std::less<int>, std::allocator<std::pair<const int, IEC104WF::stPointTable> > > > > > > >, std::less<std::basic_string<char, std::char_traits<char>, std::allocator<char> > >, std::allocator<std::pair<const std::basic_string<char, std::char_traits<char>, std::allocator<char> >, std::map<int, std::map<int, IEC104WF::stPointTable, std::less<int>, std::allocator<std::pair<const int, IEC104WF::stPointTable> > >, std::less<int>, std::allocator<std::pair<const int, std::map<int, IEC104WF::stPointTable, std::less<int>, std::allocator<std::pair<const int, IEC104WF::stPointTable> > > > > > > > >::_S_key
FUNC 3672c 70 0 std::_Rb_tree<int, std::pair<const int, std::map<int, IEC104WF::stPointTable, std::less<int>, std::allocator<std::pair<const int, IEC104WF::stPointTable> > > >, std::_Select1st<std::pair<const int, std::map<int, IEC104WF::stPointTable, std::less<int>, std::allocator<std::pair<const int, IEC104WF::stPointTable> > > > >, std::less<int>, std::allocator<std::pair<const int, std::map<int, IEC104WF::stPointTable, std::less<int>, std::allocator<std::pair<const int, IEC104WF::stPointTable> > > > > >::_Rb_tree_impl<std::less<int>, false>::_Rb_tree_impl
FUNC 3679c 12 0 std::_Rb_tree<std::basic_string<char, std::char_traits<char>, std::allocator<char> >, std::pair<const std::basic_string<char, std::char_traits<char>, std::allocator<char> >, std::map<int, std::map<int, IEC104WF::stPointTable, std::less<int>, std::allocator<std::pair<const int, IEC104WF::stPointTable> > >, std::less<int>, std::allocator<std::pair<const int, std::map<int, IEC104WF::stPointTable, std::less<int>, std::allocator<std::pair<const int, IEC104WF::stPointTable> > > > > > >, std::_Select1st<std::pair<const std::basic_string<char, std::char_traits<char>, std::allocator<char> >, std::map<int, std::map<int, IEC104WF::stPointTable, std::less<int>, std::allocator<std::pair<const int, IEC104WF::stPointTable> > >, std::less<int>, std::allocator<std::pair<const int, std::map<int, IEC104WF::stPointTable, std::less<int>, std::allocator<std::pair<const int, IEC104WF::stPointTable> > > > > > > >, std::less<std::basic_string<char, std::char_traits<char>, std::allocator<char> > >, std::allocator<std::pair<const std::basic_string<char, std::char_traits<char>, std::allocator<char> >, std::map<int, std::map<int, IEC104WF::stPointTable, std::less<int>, std::allocator<std::pair<const int, IEC104WF::stPointTable> > >, std::less<int>, std::allocator<std::pair<const int, std::map<int, IEC104WF::stPointTable, std::less<int>, std::allocator<std::pair<const int, IEC104WF::stPointTable> > > > > > > > >::_S_value
FUNC 367ae 2c 0 std::_Rb_tree<std::basic_string<char, std::char_traits<char>, std::allocator<char> >, std::pair<const std::basic_string<char, std::char_traits<char>, std::allocator<char> >, std::map<int, std::map<int, IEC104WF::stPointTable, std::less<int>, std::allocator<std::pair<const int, IEC104WF::stPointTable> > >, std::less<int>, std::allocator<std::pair<const int, std::map<int, IEC104WF::stPointTable, std::less<int>, std::allocator<std::pair<const int, IEC104WF::stPointTable> > > > > > >, std::_Select1st<std::pair<const std::basic_string<char, std::char_traits<char>, std::allocator<char> >, std::map<int, std::map<int, IEC104WF::stPointTable, std::less<int>, std::allocator<std::pair<const int, IEC104WF::stPointTable> > >, std::less<int>, std::allocator<std::pair<const int, std::map<int, IEC104WF::stPointTable, std::less<int>, std::allocator<std::pair<const int, IEC104WF::stPointTable> > > > > > > >, std::less<std::basic_string<char, std::char_traits<char>, std::allocator<char> > >, std::allocator<std::pair<const std::basic_string<char, std::char_traits<char>, std::allocator<char> >, std::map<int, std::map<int, IEC104WF::stPointTable, std::less<int>, std::allocator<std::pair<const int, IEC104WF::stPointTable> > >, std::less<int>, std::allocator<std::pair<const int, std::map<int, IEC104WF::stPointTable, std::less<int>, std::allocator<std::pair<const int, IEC104WF::stPointTable> > > > > > > > >::begin
FUNC 367da 2e 0 std::pair<std::_Rb_tree_iterator<std::pair<const std::basic_string<char, std::char_traits<char>, std::allocator<char> >, std::map<int, std::map<int, IEC104WF::stPointTable, std::less<int>, std::allocator<std::pair<const int, IEC104WF::stPointTable> > >, std::less<int>, std::allocator<std::pair<const int, std::map<int, IEC104WF::stPointTable, std::less<int>, std::allocator<std::pair<const int, IEC104WF::stPointTable> > > > > > > >, bool>::pair
FUNC 36808 28 0 std::_Rb_tree_iterator<std::pair<const std::basic_string<char, std::char_traits<char>, std::allocator<char> >, std::map<int, std::map<int, IEC104WF::stPointTable, std::less<int>, std::allocator<std::pair<const int, IEC104WF::stPointTable> > >, std::less<int>, std::allocator<std::pair<const int, std::map<int, IEC104WF::stPointTable, std::less<int>, std::allocator<std::pair<const int, IEC104WF::stPointTable> > > > > > > >::operator--
FUNC 36830 2c 0 std::_Rb_tree<std::basic_string<char, std::char_traits<char>, std::allocator<char> >, std::pair<const std::basic_string<char, std::char_traits<char>, std::allocator<char> >, IEC103::stConfigParam>, std::_Select1st<std::pair<const std::basic_string<char, std::char_traits<char>, std::allocator<char> >, IEC103::stConfigParam> >, std::less<std::basic_string<char, std::char_traits<char>, std::allocator<char> > >, std::allocator<std::pair<const std::basic_string<char, std::char_traits<char>, std::allocator<char> >, IEC103::stConfigParam> > >::_S_key
FUNC 3685c 12 0 std::_Rb_tree<std::basic_string<char, std::char_traits<char>, std::allocator<char> >, std::pair<const std::basic_string<char, std::char_traits<char>, std::allocator<char> >, IEC103::stConfigParam>, std::_Select1st<std::pair<const std::basic_string<char, std::char_traits<char>, std::allocator<char> >, IEC103::stConfigParam> >, std::less<std::basic_string<char, std::char_traits<char>, std::allocator<char> > >, std::allocator<std::pair<const std::basic_string<char, std::char_traits<char>, std::allocator<char> >, IEC103::stConfigParam> > >::_S_value
FUNC 3686e 2c 0 std::_Rb_tree<std::basic_string<char, std::char_traits<char>, std::allocator<char> >, std::pair<const std::basic_string<char, std::char_traits<char>, std::allocator<char> >, IEC103::stConfigParam>, std::_Select1st<std::pair<const std::basic_string<char, std::char_traits<char>, std::allocator<char> >, IEC103::stConfigParam> >, std::less<std::basic_string<char, std::char_traits<char>, std::allocator<char> > >, std::allocator<std::pair<const std::basic_string<char, std::char_traits<char>, std::allocator<char> >, IEC103::stConfigParam> > >::begin
FUNC 3689a 2e 0 std::pair<std::_Rb_tree_iterator<std::pair<const std::basic_string<char, std::char_traits<char>, std::allocator<char> >, IEC103::stConfigParam> >, bool>::pair
FUNC 368c8 28 0 std::_Rb_tree_iterator<std::pair<const std::basic_string<char, std::char_traits<char>, std::allocator<char> >, IEC103::stConfigParam> >::operator--
FUNC 368f0 2c 0 std::_Rb_tree<std::basic_string<char, std::char_traits<char>, std::allocator<char> >, std::pair<const std::basic_string<char, std::char_traits<char>, std::allocator<char> >, std::map<std::basic_string<char, std::char_traits<char>, std::allocator<char> >, std::basic_string<char, std::char_traits<char>, std::allocator<char> >, std::less<std::basic_string<char, std::char_traits<char>, std::allocator<char> > >, std::allocator<std::pair<const std::basic_string<char, std::char_traits<char>, std::allocator<char> >, std::basic_string<char, std::char_traits<char>, std::allocator<char> > > > > >, std::_Select1st<std::pair<const std::basic_string<char, std::char_traits<char>, std::allocator<char> >, std::map<std::basic_string<char, std::char_traits<char>, std::allocator<char> >, std::basic_string<char, std::char_traits<char>, std::allocator<char> >, std::less<std::basic_string<char, std::char_traits<char>, std::allocator<char> > >, std::allocator<std::pair<const std::basic_string<char, std::char_traits<char>, std::allocator<char> >, std::basic_string<char, std::char_traits<char>, std::allocator<char> > > > > > >, std::less<std::basic_string<char, std::char_traits<char>, std::allocator<char> > >, std::allocator<std::pair<const std::basic_string<char, std::char_traits<char>, std::allocator<char> >, std::map<std::basic_string<char, std::char_traits<char>, std::allocator<char> >, std::basic_string<char, std::char_traits<char>, std::allocator<char> >, std::less<std::basic_string<char, std::char_traits<char>, std::allocator<char> > >, std::allocator<std::pair<const std::basic_string<char, std::char_traits<char>, std::allocator<char> >, std::basic_string<char, std::char_traits<char>, std::allocator<char> > > > > > > >::_S_key
FUNC 3691c 12 0 std::_Rb_tree<std::basic_string<char, std::char_traits<char>, std::allocator<char> >, std::pair<const std::basic_string<char, std::char_traits<char>, std::allocator<char> >, std::map<std::basic_string<char, std::char_traits<char>, std::allocator<char> >, std::basic_string<char, std::char_traits<char>, std::allocator<char> >, std::less<std::basic_string<char, std::char_traits<char>, std::allocator<char> > >, std::allocator<std::pair<const std::basic_string<char, std::char_traits<char>, std::allocator<char> >, std::basic_string<char, std::char_traits<char>, std::allocator<char> > > > > >, std::_Select1st<std::pair<const std::basic_string<char, std::char_traits<char>, std::allocator<char> >, std::map<std::basic_string<char, std::char_traits<char>, std::allocator<char> >, std::basic_string<char, std::char_traits<char>, std::allocator<char> >, std::less<std::basic_string<char, std::char_traits<char>, std::allocator<char> > >, std::allocator<std::pair<const std::basic_string<char, std::char_traits<char>, std::allocator<char> >, std::basic_string<char, std::char_traits<char>, std::allocator<char> > > > > > >, std::less<std::basic_string<char, std::char_traits<char>, std::allocator<char> > >, std::allocator<std::pair<const std::basic_string<char, std::char_traits<char>, std::allocator<char> >, std::map<std::basic_string<char, std::char_traits<char>, std::allocator<char> >, std::basic_string<char, std::char_traits<char>, std::allocator<char> >, std::less<std::basic_string<char, std::char_traits<char>, std::allocator<char> > >, std::allocator<std::pair<const std::basic_string<char, std::char_traits<char>, std::allocator<char> >, std::basic_string<char, std::char_traits<char>, std::allocator<char> > > > > > > >::_S_value
FUNC 3692e 2c 0 std::_Rb_tree<std::basic_string<char, std::char_traits<char>, std::allocator<char> >, std::pair<const std::basic_string<char, std::char_traits<char>, std::allocator<char> >, std::map<std::basic_string<char, std::char_traits<char>, std::allocator<char> >, std::basic_string<char, std::char_traits<char>, std::allocator<char> >, std::less<std::basic_string<char, std::char_traits<char>, std::allocator<char> > >, std::allocator<std::pair<const std::basic_string<char, std::char_traits<char>, std::allocator<char> >, std::basic_string<char, std::char_traits<char>, std::allocator<char> > > > > >, std::_Select1st<std::pair<const std::basic_string<char, std::char_traits<char>, std::allocator<char> >, std::map<std::basic_string<char, std::char_traits<char>, std::allocator<char> >, std::basic_string<char, std::char_traits<char>, std::allocator<char> >, std::less<std::basic_string<char, std::char_traits<char>, std::allocator<char> > >, std::allocator<std::pair<const std::basic_string<char, std::char_traits<char>, std::allocator<char> >, std::basic_string<char, std::char_traits<char>, std::allocator<char> > > > > > >, std::less<std::basic_string<char, std::char_traits<char>, std::allocator<char> > >, std::allocator<std::pair<const std::basic_string<char, std::char_traits<char>, std::allocator<char> >, std::map<std::basic_string<char, std::char_traits<char>, std::allocator<char> >, std::basic_string<char, std::char_traits<char>, std::allocator<char> >, std::less<std::basic_string<char, std::char_traits<char>, std::allocator<char> > >, std::allocator<std::pair<const std::basic_string<char, std::char_traits<char>, std::allocator<char> >, std::basic_string<char, std::char_traits<char>, std::allocator<char> > > > > > > >::begin
FUNC 3695a 2e 0 std::pair<std::_Rb_tree_iterator<std::pair<const std::basic_string<char, std::char_traits<char>, std::allocator<char> >, std::map<std::basic_string<char, std::char_traits<char>, std::allocator<char> >, std::basic_string<char, std::char_traits<char>, std::allocator<char> >, std::less<std::basic_string<char, std::char_traits<char>, std::allocator<char> > >, std::allocator<std::pair<const std::basic_string<char, std::char_traits<char>, std::allocator<char> >, std::basic_string<char, std::char_traits<char>, std::allocator<char> > > > > > >, bool>::pair
FUNC 36988 28 0 std::_Rb_tree_iterator<std::pair<const std::basic_string<char, std::char_traits<char>, std::allocator<char> >, std::map<std::basic_string<char, std::char_traits<char>, std::allocator<char> >, std::basic_string<char, std::char_traits<char>, std::allocator<char> >, std::less<std::basic_string<char, std::char_traits<char>, std::allocator<char> > >, std::allocator<std::pair<const std::basic_string<char, std::char_traits<char>, std::allocator<char> >, std::basic_string<char, std::char_traits<char>, std::allocator<char> > > > > > >::operator--
FUNC 369b0 54 0 __gnu_cxx::new_allocator<std::_List_node<std::basic_string<char, std::char_traits<char>, std::allocator<char> > > >::allocate
FUNC 36a04 a 0 __gnu_cxx::new_allocator<std::pair<const std::basic_string<char, std::char_traits<char>, std::allocator<char> >, IEC61850_STRUCT::IED_61850> >::new_allocator
FUNC 36a0e a 0 __gnu_cxx::new_allocator<std::pair<const std::basic_string<char, std::char_traits<char>, std::allocator<char> >, std::map<int, std::map<int, IEC104WF::stPointTable, std::less<int>, std::allocator<std::pair<const int, IEC104WF::stPointTable> > >, std::less<int>, std::allocator<std::pair<const int, std::map<int, IEC104WF::stPointTable, std::less<int>, std::allocator<std::pair<const int, IEC104WF::stPointTable> > > > > > > >::new_allocator
FUNC 36a18 a 0 __gnu_cxx::new_allocator<std::pair<const int, std::map<int, IEC104WF::stPointTable, std::less<int>, std::allocator<std::pair<const int, IEC104WF::stPointTable> > > > >::new_allocator
FUNC 36a22 a 0 __gnu_cxx::new_allocator<std::pair<const int, IEC104WF::stPointTable> >::new_allocator
FUNC 36a2c a 0 __gnu_cxx::new_allocator<std::pair<const std::basic_string<char, std::char_traits<char>, std::allocator<char> >, IEC103::stConfigParam> >::new_allocator
FUNC 36a36 a 0 __gnu_cxx::new_allocator<std::pair<const std::basic_string<char, std::char_traits<char>, std::allocator<char> >, std::map<std::basic_string<char, std::char_traits<char>, std::allocator<char> >, std::basic_string<char, std::char_traits<char>, std::allocator<char> >, std::less<std::basic_string<char, std::char_traits<char>, std::allocator<char> > >, std::allocator<std::pair<const std::basic_string<char, std::char_traits<char>, std::allocator<char> >, std::basic_string<char, std::char_traits<char>, std::allocator<char> > > > > > >::new_allocator
FUNC 36a40 24 0 std::_Rb_tree<std::basic_string<char, std::char_traits<char>, std::allocator<char> >, std::pair<const std::basic_string<char, std::char_traits<char>, std::allocator<char> >, IEC61850_STRUCT::IED_61850>, std::_Select1st<std::pair<const std::basic_string<char, std::char_traits<char>, std::allocator<char> >, IEC61850_STRUCT::IED_61850> >, std::less<std::basic_string<char, std::char_traits<char>, std::allocator<char> > >, std::allocator<std::pair<const std::basic_string<char, std::char_traits<char>, std::allocator<char> >, IEC61850_STRUCT::IED_61850> > >::_M_get_node
FUNC 36a64 6b 0 std::pair<const std::basic_string<char, std::char_traits<char>, std::allocator<char> >, IEC61850_STRUCT::IED_61850>::pair
FUNC 36ad0 77 0 __gnu_cxx::new_allocator<std::pair<const std::basic_string<char, std::char_traits<char>, std::allocator<char> >, IEC61850_STRUCT::IED_61850> >::construct
FUNC 36b48 24 0 std::_Rb_tree<std::basic_string<char, std::char_traits<char>, std::allocator<char> >, std::pair<const std::basic_string<char, std::char_traits<char>, std::allocator<char> >, IEC103::stConfigParam>, std::_Select1st<std::pair<const std::basic_string<char, std::char_traits<char>, std::allocator<char> >, IEC103::stConfigParam> >, std::less<std::basic_string<char, std::char_traits<char>, std::allocator<char> > >, std::allocator<std::pair<const std::basic_string<char, std::char_traits<char>, std::allocator<char> >, IEC103::stConfigParam> > >::_M_get_node
FUNC 36b6c 6b 0 std::pair<const std::basic_string<char, std::char_traits<char>, std::allocator<char> >, IEC103::stConfigParam>::pair
FUNC 36bd8 77 0 __gnu_cxx::new_allocator<std::pair<const std::basic_string<char, std::char_traits<char>, std::allocator<char> >, IEC103::stConfigParam> >::construct
FUNC 36c50 24 0 std::_Rb_tree<std::basic_string<char, std::char_traits<char>, std::allocator<char> >, std::pair<const std::basic_string<char, std::char_traits<char>, std::allocator<char> >, std::map<std::basic_string<char, std::char_traits<char>, std::allocator<char> >, std::basic_string<char, std::char_traits<char>, std::allocator<char> >, std::less<std::basic_string<char, std::char_traits<char>, std::allocator<char> > >, std::allocator<std::pair<const std::basic_string<char, std::char_traits<char>, std::allocator<char> >, std::basic_string<char, std::char_traits<char>, std::allocator<char> > > > > >, std::_Select1st<std::pair<const std::basic_string<char, std::char_traits<char>, std::allocator<char> >, std::map<std::basic_string<char, std::char_traits<char>, std::allocator<char> >, std::basic_string<char, std::char_traits<char>, std::allocator<char> >, std::less<std::basic_string<char, std::char_traits<char>, std::allocator<char> > >, std::allocator<std::pair<const std::basic_string<char, std::char_traits<char>, std::allocator<char> >, std::basic_string<char, std::char_traits<char>, std::allocator<char> > > > > > >, std::less<std::basic_string<char, std::char_traits<char>, std::allocator<char> > >, std::allocator<std::pair<const std::basic_string<char, std::char_traits<char>, std::allocator<char> >, std::map<std::basic_string<char, std::char_traits<char>, std::allocator<char> >, std::basic_string<char, std::char_traits<char>, std::allocator<char> >, std::less<std::basic_string<char, std::char_traits<char>, std::allocator<char> > >, std::allocator<std::pair<const std::basic_string<char, std::char_traits<char>, std::allocator<char> >, std::basic_string<char, std::char_traits<char>, std::allocator<char> > > > > > > >::_M_get_node
FUNC 36c74 6b 0 std::pair<const std::basic_string<char, std::char_traits<char>, std::allocator<char> >, std::map<std::basic_string<char, std::char_traits<char>, std::allocator<char> >, std::basic_string<char, std::char_traits<char>, std::allocator<char> >, std::less<std::basic_string<char, std::char_traits<char>, std::allocator<char> > >, std::allocator<std::pair<const std::basic_string<char, std::char_traits<char>, std::allocator<char> >, std::basic_string<char, std::char_traits<char>, std::allocator<char> > > > > >::pair
FUNC 36ce0 77 0 __gnu_cxx::new_allocator<std::pair<const std::basic_string<char, std::char_traits<char>, std::allocator<char> >, std::map<std::basic_string<char, std::char_traits<char>, std::allocator<char> >, std::basic_string<char, std::char_traits<char>, std::allocator<char> >, std::less<std::basic_string<char, std::char_traits<char>, std::allocator<char> > >, std::allocator<std::pair<const std::basic_string<char, std::char_traits<char>, std::allocator<char> >, std::basic_string<char, std::char_traits<char>, std::allocator<char> > > > > > >::construct
FUNC 36d58 24 0 std::_Rb_tree<std::basic_string<char, std::char_traits<char>, std::allocator<char> >, std::pair<const std::basic_string<char, std::char_traits<char>, std::allocator<char> >, std::map<int, std::map<int, IEC104WF::stPointTable, std::less<int>, std::allocator<std::pair<const int, IEC104WF::stPointTable> > >, std::less<int>, std::allocator<std::pair<const int, std::map<int, IEC104WF::stPointTable, std::less<int>, std::allocator<std::pair<const int, IEC104WF::stPointTable> > > > > > >, std::_Select1st<std::pair<const std::basic_string<char, std::char_traits<char>, std::allocator<char> >, std::map<int, std::map<int, IEC104WF::stPointTable, std::less<int>, std::allocator<std::pair<const int, IEC104WF::stPointTable> > >, std::less<int>, std::allocator<std::pair<const int, std::map<int, IEC104WF::stPointTable, std::less<int>, std::allocator<std::pair<const int, IEC104WF::stPointTable> > > > > > > >, std::less<std::basic_string<char, std::char_traits<char>, std::allocator<char> > >, std::allocator<std::pair<const std::basic_string<char, std::char_traits<char>, std::allocator<char> >, std::map<int, std::map<int, IEC104WF::stPointTable, std::less<int>, std::allocator<std::pair<const int, IEC104WF::stPointTable> > >, std::less<int>, std::allocator<std::pair<const int, std::map<int, IEC104WF::stPointTable, std::less<int>, std::allocator<std::pair<const int, IEC104WF::stPointTable> > > > > > > > >::_M_get_node
FUNC 36d7c 6b 0 std::pair<const std::basic_string<char, std::char_traits<char>, std::allocator<char> >, std::map<int, std::map<int, IEC104WF::stPointTable, std::less<int>, std::allocator<std::pair<const int, IEC104WF::stPointTable> > >, std::less<int>, std::allocator<std::pair<const int, std::map<int, IEC104WF::stPointTable, std::less<int>, std::allocator<std::pair<const int, IEC104WF::stPointTable> > > > > > >::pair
FUNC 36de8 77 0 __gnu_cxx::new_allocator<std::pair<const std::basic_string<char, std::char_traits<char>, std::allocator<char> >, std::map<int, std::map<int, IEC104WF::stPointTable, std::less<int>, std::allocator<std::pair<const int, IEC104WF::stPointTable> > >, std::less<int>, std::allocator<std::pair<const int, std::map<int, IEC104WF::stPointTable, std::less<int>, std::allocator<std::pair<const int, IEC104WF::stPointTable> > > > > > > >::construct
FUNC 36e5f 12 0 std::_Rb_tree<std::basic_string<char, std::char_traits<char>, std::allocator<char> >, std::pair<const std::basic_string<char, std::char_traits<char>, std::allocator<char> >, IEC61850_STRUCT::IED_61850>, std::_Select1st<std::pair<const std::basic_string<char, std::char_traits<char>, std::allocator<char> >, IEC61850_STRUCT::IED_61850> >, std::less<std::basic_string<char, std::char_traits<char>, std::allocator<char> > >, std::allocator<std::pair<const std::basic_string<char, std::char_traits<char>, std::allocator<char> >, IEC61850_STRUCT::IED_61850> > >::_S_value
FUNC 36e71 12 0 std::_Rb_tree<int, std::pair<const int, IEC104WF::stPointTable>, std::_Select1st<std::pair<const int, IEC104WF::stPointTable> >, std::less<int>, std::allocator<std::pair<const int, IEC104WF::stPointTable> > >::_S_value
FUNC 36e84 24 0 std::_Rb_tree<int, std::pair<const int, IEC104WF::stPointTable>, std::_Select1st<std::pair<const int, IEC104WF::stPointTable> >, std::less<int>, std::allocator<std::pair<const int, IEC104WF::stPointTable> > >::_M_get_node
FUNC 36ea8 39 0 std::pair<const int, IEC104WF::stPointTable>::pair
FUNC 36ee2 77 0 __gnu_cxx::new_allocator<std::pair<const int, IEC104WF::stPointTable> >::construct
FUNC 36f59 12 0 std::_Rb_tree<int, std::pair<const int, std::map<int, IEC104WF::stPointTable, std::less<int>, std::allocator<std::pair<const int, IEC104WF::stPointTable> > > >, std::_Select1st<std::pair<const int, std::map<int, IEC104WF::stPointTable, std::less<int>, std::allocator<std::pair<const int, IEC104WF::stPointTable> > > > >, std::less<int>, std::allocator<std::pair<const int, std::map<int, IEC104WF::stPointTable, std::less<int>, std::allocator<std::pair<const int, IEC104WF::stPointTable> > > > > >::_S_value
FUNC 36f6c 25 0 std::allocator<std::_Rb_tree_node<std::pair<const int, IEC104WF::stPointTable> > >::allocator
FUNC 36f92 24 0 std::_Rb_tree<int, std::pair<const int, std::map<int, IEC104WF::stPointTable, std::less<int>, std::allocator<std::pair<const int, IEC104WF::stPointTable> > > >, std::_Select1st<std::pair<const int, std::map<int, IEC104WF::stPointTable, std::less<int>, std::allocator<std::pair<const int, IEC104WF::stPointTable> > > > >, std::less<int>, std::allocator<std::pair<const int, std::map<int, IEC104WF::stPointTable, std::less<int>, std::allocator<std::pair<const int, IEC104WF::stPointTable> > > > > >::_M_get_node
FUNC 36fb6 39 0 std::pair<const int, std::map<int, IEC104WF::stPointTable, std::less<int>, std::allocator<std::pair<const int, IEC104WF::stPointTable> > > >::pair
FUNC 36ff0 77 0 __gnu_cxx::new_allocator<std::pair<const int, std::map<int, IEC104WF::stPointTable, std::less<int>, std::allocator<std::pair<const int, IEC104WF::stPointTable> > > > >::construct
FUNC 37067 12 0 std::_Rb_tree<std::basic_string<char, std::char_traits<char>, std::allocator<char> >, std::pair<const std::basic_string<char, std::char_traits<char>, std::allocator<char> >, std::map<int, std::map<int, IEC104WF::stPointTable, std::less<int>, std::allocator<std::pair<const int, IEC104WF::stPointTable> > >, std::less<int>, std::allocator<std::pair<const int, std::map<int, IEC104WF::stPointTable, std::less<int>, std::allocator<std::pair<const int, IEC104WF::stPointTable> > > > > > >, std::_Select1st<std::pair<const std::basic_string<char, std::char_traits<char>, std::allocator<char> >, std::map<int, std::map<int, IEC104WF::stPointTable, std::less<int>, std::allocator<std::pair<const int, IEC104WF::stPointTable> > >, std::less<int>, std::allocator<std::pair<const int, std::map<int, IEC104WF::stPointTable, std::less<int>, std::allocator<std::pair<const int, IEC104WF::stPointTable> > > > > > > >, std::less<std::basic_string<char, std::char_traits<char>, std::allocator<char> > >, std::allocator<std::pair<const std::basic_string<char, std::char_traits<char>, std::allocator<char> >, std::map<int, std::map<int, IEC104WF::stPointTable, std::less<int>, std::allocator<std::pair<const int, IEC104WF::stPointTable> > >, std::less<int>, std::allocator<std::pair<const int, std::map<int, IEC104WF::stPointTable, std::less<int>, std::allocator<std::pair<const int, IEC104WF::stPointTable> > > > > > > > >::_S_value
FUNC 3707a 25 0 std::allocator<std::_Rb_tree_node<std::pair<const int, std::map<int, IEC104WF::stPointTable, std::less<int>, std::allocator<std::pair<const int, IEC104WF::stPointTable> > > > > >::allocator
FUNC 3709f 12 0 std::_Rb_tree<std::basic_string<char, std::char_traits<char>, std::allocator<char> >, std::pair<const std::basic_string<char, std::char_traits<char>, std::allocator<char> >, IEC103::stConfigParam>, std::_Select1st<std::pair<const std::basic_string<char, std::char_traits<char>, std::allocator<char> >, IEC103::stConfigParam> >, std::less<std::basic_string<char, std::char_traits<char>, std::allocator<char> > >, std::allocator<std::pair<const std::basic_string<char, std::char_traits<char>, std::allocator<char> >, IEC103::stConfigParam> > >::_S_value
FUNC 370b1 12 0 std::_Rb_tree<std::basic_string<char, std::char_traits<char>, std::allocator<char> >, std::pair<const std::basic_string<char, std::char_traits<char>, std::allocator<char> >, std::map<std::basic_string<char, std::char_traits<char>, std::allocator<char> >, std::basic_string<char, std::char_traits<char>, std::allocator<char> >, std::less<std::basic_string<char, std::char_traits<char>, std::allocator<char> > >, std::allocator<std::pair<const std::basic_string<char, std::char_traits<char>, std::allocator<char> >, std::basic_string<char, std::char_traits<char>, std::allocator<char> > > > > >, std::_Select1st<std::pair<const std::basic_string<char, std::char_traits<char>, std::allocator<char> >, std::map<std::basic_string<char, std::char_traits<char>, std::allocator<char> >, std::basic_string<char, std::char_traits<char>, std::allocator<char> >, std::less<std::basic_string<char, std::char_traits<char>, std::allocator<char> > >, std::allocator<std::pair<const std::basic_string<char, std::char_traits<char>, std::allocator<char> >, std::basic_string<char, std::char_traits<char>, std::allocator<char> > > > > > >, std::less<std::basic_string<char, std::char_traits<char>, std::allocator<char> > >, std::allocator<std::pair<const std::basic_string<char, std::char_traits<char>, std::allocator<char> >, std::map<std::basic_string<char, std::char_traits<char>, std::allocator<char> >, std::basic_string<char, std::char_traits<char>, std::allocator<char> >, std::less<std::basic_string<char, std::char_traits<char>, std::allocator<char> > >, std::allocator<std::pair<const std::basic_string<char, std::char_traits<char>, std::allocator<char> >, std::basic_string<char, std::char_traits<char>, std::allocator<char> > > > > > > >::_S_value
FUNC 370c4 14 0 __gnu_cxx::new_allocator<std::_List_node<std::basic_string<char, std::char_traits<char>, std::allocator<char> > > >::max_size
FUNC 370d8 55 0 __gnu_cxx::new_allocator<std::_Rb_tree_node<std::pair<const std::basic_string<char, std::char_traits<char>, std::allocator<char> >, IEC61850_STRUCT::IED_61850> > >::allocate
FUNC 3712e 55 0 __gnu_cxx::new_allocator<std::_Rb_tree_node<std::pair<const std::basic_string<char, std::char_traits<char>, std::allocator<char> >, IEC103::stConfigParam> > >::allocate
FUNC 37184 5b 0 __gnu_cxx::new_allocator<std::_Rb_tree_node<std::pair<const std::basic_string<char, std::char_traits<char>, std::allocator<char> >, std::map<std::basic_string<char, std::char_traits<char>, std::allocator<char> >, std::basic_string<char, std::char_traits<char>, std::allocator<char> >, std::less<std::basic_string<char, std::char_traits<char>, std::allocator<char> > >, std::allocator<std::pair<const std::basic_string<char, std::char_traits<char>, std::allocator<char> >, std::basic_string<char, std::char_traits<char>, std::allocator<char> > > > > > > >::allocate
FUNC 371e0 5b 0 __gnu_cxx::new_allocator<std::_Rb_tree_node<std::pair<const std::basic_string<char, std::char_traits<char>, std::allocator<char> >, std::map<int, std::map<int, IEC104WF::stPointTable, std::less<int>, std::allocator<std::pair<const int, IEC104WF::stPointTable> > >, std::less<int>, std::allocator<std::pair<const int, std::map<int, IEC104WF::stPointTable, std::less<int>, std::allocator<std::pair<const int, IEC104WF::stPointTable> > > > > > > > >::allocate
FUNC 3723c 5c 0 __gnu_cxx::new_allocator<std::_Rb_tree_node<std::pair<const int, IEC104WF::stPointTable> > >::allocate
FUNC 37298 e 0 __gnu_cxx::new_allocator<std::_Rb_tree_node<std::pair<const int, IEC104WF::stPointTable> > >::new_allocator
FUNC 372a6 5b 0 __gnu_cxx::new_allocator<std::_Rb_tree_node<std::pair<const int, std::map<int, IEC104WF::stPointTable, std::less<int>, std::allocator<std::pair<const int, IEC104WF::stPointTable> > > > > >::allocate
FUNC 37302 e 0 __gnu_cxx::new_allocator<std::_Rb_tree_node<std::pair<const int, std::map<int, IEC104WF::stPointTable, std::less<int>, std::allocator<std::pair<const int, IEC104WF::stPointTable> > > > > >::new_allocator
FUNC 37310 14 0 __gnu_cxx::new_allocator<std::_Rb_tree_node<std::pair<const std::basic_string<char, std::char_traits<char>, std::allocator<char> >, IEC61850_STRUCT::IED_61850> > >::max_size
FUNC 37324 14 0 __gnu_cxx::new_allocator<std::_Rb_tree_node<std::pair<const std::basic_string<char, std::char_traits<char>, std::allocator<char> >, IEC103::stConfigParam> > >::max_size
FUNC 37338 14 0 __gnu_cxx::new_allocator<std::_Rb_tree_node<std::pair<const std::basic_string<char, std::char_traits<char>, std::allocator<char> >, std::map<std::basic_string<char, std::char_traits<char>, std::allocator<char> >, std::basic_string<char, std::char_traits<char>, std::allocator<char> >, std::less<std::basic_string<char, std::char_traits<char>, std::allocator<char> > >, std::allocator<std::pair<const std::basic_string<char, std::char_traits<char>, std::allocator<char> >, std::basic_string<char, std::char_traits<char>, std::allocator<char> > > > > > > >::max_size
FUNC 3734c 14 0 __gnu_cxx::new_allocator<std::_Rb_tree_node<std::pair<const std::basic_string<char, std::char_traits<char>, std::allocator<char> >, std::map<int, std::map<int, IEC104WF::stPointTable, std::less<int>, std::allocator<std::pair<const int, IEC104WF::stPointTable> > >, std::less<int>, std::allocator<std::pair<const int, std::map<int, IEC104WF::stPointTable, std::less<int>, std::allocator<std::pair<const int, IEC104WF::stPointTable> > > > > > > > >::max_size
FUNC 37360 14 0 __gnu_cxx::new_allocator<std::_Rb_tree_node<std::pair<const int, IEC104WF::stPointTable> > >::max_size
FUNC 37374 14 0 __gnu_cxx::new_allocator<std::_Rb_tree_node<std::pair<const int, std::map<int, IEC104WF::stPointTable, std::less<int>, std::allocator<std::pair<const int, IEC104WF::stPointTable> > > > > >::max_size
FUNC 37390 d 0 mysql_get_parameters
FUNC 373a0 6 0 mysql_debug
FUNC 373b0 6 0 my_pipe_sig_handler
FUNC 373c0 29 0 mysql_set_local_infile_handler
FUNC 373f0 3e 0 mysql_set_local_infile_default
FUNC 37430 29 0 mysql_fetch_field
FUNC 37460 47 0 mysql_data_seek
FUNC 374b0 16 0 mysql_row_seek
FUNC 374d0 12 0 mysql_field_seek
FUNC 374f0 3e 0 mysql_shutdown
FUNC 37530 3e 0 mysql_refresh
FUNC 37570 55 0 mysql_kill
FUNC 375d0 3e 0 mysql_set_server_option
FUNC 37610 36 0 mysql_dump_debug_info
FUNC 37650 66 0 mysql_stat
FUNC 376c0 36 0 mysql_ping
FUNC 37700 d 0 mysql_get_server_info
FUNC 37710 d 0 mysql_get_host_info
FUNC 37720 c 0 mysql_get_proto_info
FUNC 37730 d 0 mysql_get_client_info
FUNC 37740 b 0 mysql_get_client_version
FUNC 37750 d 0 mysql_eof
FUNC 37760 10 0 mysql_fetch_field_direct
FUNC 37770 a 0 mysql_fetch_fields
FUNC 37780 a 0 mysql_row_tell
FUNC 37790 c 0 mysql_field_tell
FUNC 377a0 c 0 mysql_field_count
FUNC 377b0 d 0 mysql_affected_rows
FUNC 377c0 d 0 mysql_insert_id
FUNC 377d0 24 0 mysql_sqlstate
FUNC 37800 c 0 mysql_warning_count
FUNC 37810 d 0 mysql_info
FUNC 37820 d 0 mysql_thread_id
FUNC 37830 11 0 mysql_character_set_name
FUNC 37850 90 0 mysql_get_character_set_info
FUNC 378e0 b 0 mysql_thread_safe
FUNC 378f0 8 0 mysql_embedded
FUNC 37900 67 0 mysql_hex_string
FUNC 37970 1e0 0 myodbc_remove_escape
FUNC 37b50 8 0 mysql_stmt_param_metadata
FUNC 37b60 1b 0 store_param_tinyint
FUNC 37b80 19 0 store_param_short
FUNC 37ba0 17 0 store_param_int32
FUNC 37bc0 19 0 store_param_int64
FUNC 37be0 17 0 store_param_float
FUNC 37c00 19 0 store_param_double
FUNC 37c20 3e 0 stmt_read_row_buffered
FUNC 37c60 b 0 stmt_read_row_no_data
FUNC 37c70 4e 0 mysql_stmt_attr_get
FUNC 37cc0 c 0 mysql_stmt_param_count
FUNC 37cd0 d 0 mysql_stmt_affected_rows
FUNC 37ce0 c 0 mysql_stmt_field_count
FUNC 37cf0 d 0 mysql_stmt_insert_id
FUNC 37d00 34 0 fetch_result_tinyint
FUNC 37d40 35 0 fetch_result_short
FUNC 37d80 33 0 fetch_result_int32
FUNC 37dc0 c 0 skip_result_fixed
FUNC 37dd0 488 0 setup_one_fetch_function
FUNC 38260 180 0 mysql_stmt_fetch
FUNC 383e0 14 0 mysql_stmt_row_seek
FUNC 38400 d 0 mysql_stmt_row_tell
FUNC 38410 55 0 mysql_stmt_data_seek
FUNC 38470 d 0 mysql_stmt_num_rows
FUNC 38480 c 0 mysql_stmt_errno
FUNC 38490 d 0 mysql_stmt_sqlstate
FUNC 384a0 d 0 mysql_stmt_error
FUNC 384b0 12 0 mysql_more_results
FUNC 384d0 12 0 mysql_use_result
FUNC 384f0 11 0 mysql_read_query_result
FUNC 38510 5c 0 set_stmt_errmsg
FUNC 38570 167 0 stmt_read_row_from_cursor
FUNC 386e0 1f0 0 reset_stmt_handle
FUNC 388d0 f 0 mysql_stmt_free_result
FUNC 388e0 70 0 set_stmt_error
FUNC 38950 21 0 stmt_read_row_no_result_set
FUNC 38980 111 0 stmt_read_row_unbuffered
FUNC 38aa0 3d 0 mysql_stmt_reset
FUNC 38ae0 7b 0 mysql_stmt_attr_set
FUNC 38b60 1fb 0 mysql_stmt_prepare
FUNC 38d60 239 0 alloc_stmt_fields
FUNC 38fa0 52 0 cli_read_statistics
FUNC 39000 70 0 mysql_next_result
FUNC 39070 26 0 mysql_autocommit
FUNC 390a0 17 0 mysql_rollback
FUNC 390c0 17 0 mysql_commit
FUNC 390e0 151 0 mysql_stmt_close
FUNC 39240 1f 0 fetch_result_double
FUNC 39260 1b 0 fetch_result_float
FUNC 39280 3a 0 fetch_result_int64
FUNC 392c0 ad 0 store_param_datetime
FUNC 39370 a5 0 store_param_time
FUNC 39420 180 0 cli_read_binary_rows
FUNC 395a0 4b 0 cli_unbuffered_fetch
FUNC 395f0 37 0 skip_result_string
FUNC 39630 1e 0 skip_result_with_length
FUNC 39650 7c 0 fetch_result_str
FUNC 396d0 6e 0 fetch_result_bin
FUNC 39740 361 0 fetch_string_with_conversion
FUNC 39ab0 35b 0 fetch_long_with_conversion
FUNC 39e10 32a 0 fetch_float_with_conversion
FUNC 3a140 1ca 0 fetch_datetime_with_conversion
FUNC 3a310 39e 0 fetch_result_with_conversion
FUNC 3a6b0 110 0 mysql_stmt_fetch_column
FUNC 3a7c0 1d3 0 mysql_stmt_bind_result
FUNC 3a9a0 35a 0 mysql_stmt_store_result
FUNC 3ad00 165 0 mysql_stmt_next_result
FUNC 3ae70 1f5 0 mysql_stmt_execute
FUNC 3b070 161 0 mysql_stmt_send_long_data
FUNC 3b1e0 3a8 0 mysql_stmt_bind_param
FUNC 3b590 61 0 store_param_str
FUNC 3b600 88 0 mysql_stmt_result_metadata
FUNC 3b690 113 0 mysql_stmt_init
FUNC 3b7b0 133 0 cli_read_prepare_result
FUNC 3b8f0 3d 0 mysql_real_escape_string
FUNC 3b930 22 0 mysql_escape_string
FUNC 3b960 62 0 my_net_local_init
FUNC 3b9d0 e6 0 mysql_list_processes
FUNC 3bac0 148 0 mysql_list_fields
FUNC 3bc10 4c 0 default_local_infile_error
FUNC 3bc60 67 0 cli_list_fields
FUNC 3bcd0 35 0 mysql_query
FUNC 3bd10 e7 0 mysql_list_dbs
FUNC 3be00 37 0 default_local_infile_end
FUNC 3be40 9c 0 default_local_infile_read
FUNC 3bee0 e6 0 default_local_infile_init
FUNC 3bfd0 1dd 0 handle_local_infile
FUNC 3c1b0 af 0 read_user_name
FUNC 3c260 18e 0 mysql_change_user
FUNC 3c3f0 a 0 mysql_thread_end
FUNC 3c400 a 0 mysql_thread_init
FUNC 3c410 51 0 mysql_server_end
FUNC 3c470 115 0 mysql_server_init
FUNC 3c590 c9 0 store_param_date
FUNC 3c660 d7 0 mysql_list_tables
FUNC 3c740 8c 0 fetch_result_date
FUNC 3c7d0 a1 0 fetch_result_time
FUNC 3c880 a1 0 fetch_result_datetime
FUNC 3c930 786 0 cli_stmt_execute
FUNC 3d0c0 27 0 mysql_plugin_options
FUNC 3d0f0 139 0 do_add_plugin
FUNC 3d230 98 0 add_plugin_noargs
FUNC 3d2d0 d1 0 mysql_client_plugin_deinit
FUNC 3d3b0 349 0 mysql_load_plugin_v
FUNC 3d700 98 0 mysql_load_plugin
FUNC 3d7a0 12b 0 mysql_client_find_plugin
FUNC 3d8d0 219 0 mysql_client_plugin_init
FUNC 3daf0 1a8 0 mysql_client_register_plugin
FUNC 3dca0 4f 0 calc_days_in_year
FUNC 3dcf0 1b 0 set_max_hhmmss
FUNC 3dd10 d9 0 check_date
FUNC 3ddf0 27 0 check_time_mmssff_range
FUNC 3de20 4a 0 check_time_range_quick
FUNC 3de70 57 0 check_datetime_range
FUNC 3ded0 46 0 adjust_time_range
FUNC 3df20 1a 0 year_2000_handling
FUNC 3df40 a8 0 calc_daynr
FUNC 3dff0 4f 0 TIME_to_ulonglong_datetime
FUNC 3e040 25 0 TIME_to_ulonglong_date
FUNC 3e070 26 0 TIME_to_ulonglong_time
FUNC 3e0a0 4e 0 TIME_set_yymmdd
FUNC 3e0f0 4f 0 TIME_set_hhmmss
FUNC 3e140 36 0 TIME_to_ulonglong
FUNC 3e180 3f 0 TIME_to_longlong_time_packed
FUNC 3e1c0 7d 0 TIME_from_longlong_time_packed
FUNC 3e240 e 0 my_time_binary_length
FUNC 3e250 13f 0 my_time_packed_to_binary
FUNC 3e390 125 0 my_time_packed_from_binary
FUNC 3e4c0 45 0 TIME_to_longlong_datetime_packed
FUNC 3e510 1b 0 TIME_to_longlong_date_packed
FUNC 3e530 12 0 year_to_longlong_datetime_packed
FUNC 3e550 d3 0 TIME_from_longlong_datetime_packed
FUNC 3e630 1f 0 TIME_from_longlong_date_packed
FUNC 3e650 e 0 my_datetime_binary_length
FUNC 3e660 e4 0 my_datetime_packed_from_binary
FUNC 3e750 10f 0 my_datetime_packed_to_binary
FUNC 3e860 e 0 my_timestamp_binary_length
FUNC 3e870 e0 0 my_timestamp_from_binary
FUNC 3e950 b4 0 my_timestamp_to_binary
FUNC 3ea10 36 0 TIME_to_longlong_packed
FUNC 3ea50 2ca 0 number_to_datetime
FUNC 3ed20 30 0 set_zero_time
FUNC 3ed50 995 0 str_to_datetime
FUNC 3f6f0 37 0 set_max_time
FUNC 3f730 1a5 0 number_to_time
FUNC 3f8e0 187 0 my_datetime_to_str
FUNC 3fa70 22 0 my_date_to_str
FUNC 3faa0 461 0 my_system_gmt_sec
FUNC 3ff10 80 0 my_init_time
FUNC 3ff90 68e 0 str_to_time
FUNC 40620 ab 0 my_time_to_str
FUNC 406d0 66 0 my_TIME_to_str
FUNC 40740 8a 0 my_timeval_to_str
FUNC 407d0 e 0 my_net_is_inited
FUNC 407e0 62 0 cli_fetch_lengths
FUNC 40850 36 0 mysql_send_query
FUNC 40890 32 0 mysql_real_query
FUNC 408d0 3a 0 mysql_fetch_lengths
FUNC 40910 10 0 get_attr_key
FUNC 40920 9 0 mysql_num_rows
FUNC 40930 c 0 mysql_num_fields
FUNC 40940 23 0 mysql_errno
FUNC 40970 18 0 mysql_error
FUNC 40990 3e 0 clear_password_auth_client
FUNC 409d0 44 0 write_string
FUNC 40a20 c1 0 native_password_auth_client
FUNC 40af0 60 0 write_length_encoded_string4
FUNC 40b50 89 0 mysql_select_db
FUNC 40be0 89 0 add_init_command
FUNC 40c70 7b 0 set_ssl_option_unpack_path
FUNC 40cf0 7e9 0 mysql_options
FUNC 414e0 b5 0 mysql_ssl_set
FUNC 415a0 245 0 mysql_close_free_options
FUNC 417f0 92 0 mysql_detach_stmt_list
FUNC 41890 2c 0 net_clear_error
FUNC 418c0 c0 0 set_mysql_error
FUNC 41980 11c 0 old_password_auth_client
FUNC 41aa0 b4 0 mysql_get_server_version
FUNC 41b60 2b3 0 mysql_options4
FUNC 41e20 1be 0 mysql_store_result
FUNC 41fe0 18d 0 cli_use_result
FUNC 42170 d2 0 mpvio_info
FUNC 42250 11 0 client_mpvio_info
FUNC 42270 105 0 send_client_connect_attrs
FUNC 42380 1d1 0 send_change_user_packet
FUNC 42560 22 0 mysql_get_ssl_cipher
FUNC 42590 cb 0 mysql_init
FUNC 42660 767 0 mysql_read_default_options
FUNC 42dd0 72 0 free_old_query
FUNC 42e50 37 0 free_rows
FUNC 42e90 523 0 unpack_fields
FUNC 433c0 cd 0 mysql_free_result
FUNC 43490 103 0 end_server
FUNC 435a0 15e 0 cli_safe_read
FUNC 43700 245 0 mysql_fetch_row
FUNC 43950 b 0 cli_read_change_user_result
FUNC 43960 354 0 cli_read_rows
FUNC 43cc0 1f8 0 cli_read_query_result
FUNC 43ec0 9b 0 opt_flush_ok_packet
FUNC 43f60 64 0 flush_one_result
FUNC 43fd0 62 0 cli_flush_use_result
FUNC 44040 c6 0 set_mysql_extended_error
FUNC 44110 481 0 run_plugin_auth
FUNC 445a0 7cf 0 send_client_reply_packet
FUNC 44d70 c7 0 client_mpvio_write_packet
FUNC 44e40 2b5 0 mysql_init_character_set
FUNC 45100 1ac 0 mysql_set_character_set
FUNC 452b0 106f 0 mysql_real_connect
FUNC 46320 16b 0 client_mpvio_read_packet
FUNC 46490 12e 0 mysql_close
FUNC 465c0 222 0 mysql_reconnect
FUNC 467f0 219 0 cli_advanced_command
FUNC 46a10 71 0 net_field_length
FUNC 46a90 71 0 net_field_length_ll
FUNC 46b10 71 0 net_store_length
FUNC 46b90 c8 0 int10_to_str
FUNC 46c60 11d 0 int2str
FUNC 46d80 28 0 bmove_upp
FUNC 46db0 13 0 my_coll_init_8bit_bin
FUNC 46dd0 9 0 my_lengthsp_binary
FUNC 46de0 95 0 my_strnncollsp_8bit_bin
FUNC 46e80 8 0 my_case_str_bin
FUNC 46e90 9 0 my_case_bin
FUNC 46ea0 b 0 my_mbcharlen_8bit
FUNC 46eb0 1b 0 my_mb_wc_bin
FUNC 46ed0 20 0 my_wc_mb_bin
FUNC 46ef0 c2 0 my_hash_sort_8bit_bin
FUNC 46fc0 4a 0 my_hash_sort_bin
FUNC 47010 231 0 my_wildcmp_bin_impl
FUNC 47250 24 0 my_wildcmp_bin
FUNC 47280 127 0 my_instr_bin
FUNC 473b0 36 0 my_strnncoll_binary
FUNC 473f0 36 0 my_strnncoll_8bit_bin
FUNC 47430 10 0 my_strcasecmp_bin
FUNC 47440 8f 0 my_strnxfrm_8bit_bin
FUNC 474d0 2b 0 my_strnncollsp_binary
FUNC 47500 87 0 Balloc
FUNC 47590 36 0 Bfree
FUNC 475d0 391 0 d2b
FUNC 47970 262 0 lshift
FUNC 47be0 166 0 multadd
FUNC 47d50 915 0 pow5mult
FUNC 48670 1d46 0 my_strtod
FUNC 4a3c0 22 0 my_atof
FUNC 4a3f0 20fd 0 dtoa
FUNC 4c4f0 32d 0 my_fcvt
FUNC 4c820 6d9 0 my_gcvt
FUNC 4cf00 1e 0 strend
FUNC 4cf20 9e 0 strxnmov
FUNC 4cfc0 3c4 0 my_strtoll10
FUNC 4d390 16e 0 process_str_arg
FUNC 4d500 1db 0 process_int_arg
FUNC 4d6e0 848 0 process_args
FUNC 4df30 5cc 0 my_vsnprintf_ex
FUNC 4e500 1d 0 my_vsnprintf
FUNC 4e520 96 0 my_snprintf
FUNC 4e5c0 1d 0 my_strnxfrmlen_simple
FUNC 4e5e0 71 0 my_strnncoll_simple
FUNC 4e660 c2 0 my_strnncollsp_simple
FUNC 4e730 39 0 my_caseup_str_8bit
FUNC 4e770 39 0 my_casedn_str_8bit
FUNC 4e7b0 2c 0 my_caseup_8bit
FUNC 4e7e0 2c 0 my_casedn_8bit
FUNC 4e810 4c 0 my_strcasecmp_8bit
FUNC 4e860 32 0 my_mb_wc_8bit
FUNC 4e8a0 66 0 my_wc_mb_8bit
FUNC 4e910 cf 0 my_hash_sort_simple
FUNC 4e9e0 203 0 my_strntol_8bit
FUNC 4ebf0 1b0 0 my_strntoul_8bit
FUNC 4eda0 219 0 my_strntoll_8bit
FUNC 4efc0 1d5 0 my_strntoull_8bit
FUNC 4f1a0 267 0 my_wildcmp_8bit_impl
FUNC 4f410 24 0 my_wildcmp_8bit
FUNC 4f440 281 0 my_like_range_simple
FUNC 4f6d0 80 0 my_scan_8bit
FUNC 4f750 c 0 my_numchars_8bit
FUNC 4f760 c 0 my_numcells_8bit
FUNC 4f770 9 0 my_charpos_8bit
FUNC 4f780 1a 0 my_well_formed_len_8bit
FUNC 4f7a0 147 0 my_instr_simple
FUNC 4f8f0 16 0 pcmp
FUNC 4f910 54 0 my_coll_init_simple
FUNC 4f970 2d 0 my_mb_ctype_8bit
FUNC 4f9a0 4b5 0 my_strntoull10rnd_8bit
FUNC 4fe60 b 0 my_propagate_simple
FUNC 4fe70 8 0 my_propagate_complex
FUNC 4fe80 155 0 my_strxfrm_flag_normalize
FUNC 4ffe0 145 0 my_strxfrm_desc_and_reverse
FUNC 50130 fc 0 my_strxfrm_pad_desc_and_reverse
FUNC 50230 b5 0 my_strnxfrm_simple
FUNC 502f0 f 0 my_fill_8bit
FUNC 50300 267 0 create_fromuni
FUNC 50570 1f 0 my_cset_init_8bit
FUNC 50590 13 0 my_strtoll10_8bit
FUNC 505b0 117 0 my_longlong10_to_str_8bit
FUNC 506d0 e2 0 my_long10_to_str_8bit
FUNC 507c0 2a 0 my_strntod_8bit
FUNC 507f0 9a 0 my_snprintf_8bit
FUNC 50890 b3 0 my_lengthsp_8bit
FUNC 50950 35 0 strmake
FUNC 50990 90 0 my_string_repertoire
FUNC 50a20 19 0 my_charset_repertoire
FUNC 50a40 4a 0 my_charset_is_ascii_based
FUNC 50a90 37 0 my_charset_is_8bit_pure_ascii
FUNC 50ad0 37 0 my_charset_is_ascii_compatible
FUNC 50b10 c5 0 tailoring_append
FUNC 50be0 15c 0 my_parse_charset_xml
FUNC 50d40 d9 0 fill_uchar
FUNC 50e20 22b 0 cs_leave
FUNC 51050 2c4 0 my_convert
FUNC 51320 abf 0 cs_value
FUNC 51de0 1c1 0 cs_enter
FUNC 51fb0 22 0 strcend
FUNC 51fe0 19 0 my_strnxfrmlen_unicode_full_bin
FUNC 52000 c9 0 my_utf8_uni
FUNC 520d0 a6 0 my_uni_utf8
FUNC 52180 15a 0 my_casedn_str_utf8
FUNC 522e0 1e 0 my_strnxfrmlen_utf8
FUNC 52300 2e 0 my_mbcharlen_utf8
FUNC 52330 131 0 my_mb_wc_filename
FUNC 52470 184 0 my_wc_mb_filename
FUNC 52600 179 0 my_mb_wc_utf8mb4
FUNC 52780 d4 0 my_wc_mb_utf8mb4
FUNC 52860 f 0 my_strnxfrmlen_utf8mb4
FUNC 52870 e5 0 my_ismbchar_utf8mb4
FUNC 52960 38 0 my_mbcharlen_utf8mb4
FUNC 529a0 1c1 0 my_strnxfrm_unicode_full_bin
FUNC 52b70 1ba 0 my_hash_sort_utf8mb4
FUNC 52d30 299 0 my_strnncollsp_utf8mb4
FUNC 52fd0 25a 0 my_strnncoll_utf8mb4
FUNC 53230 351 0 my_strnxfrm_unicode
FUNC 53590 15a 0 my_caseup_str_utf8
FUNC 536f0 eb 0 my_well_formed_len_utf8
FUNC 537e0 177 0 my_well_formed_len_utf8mb4
FUNC 53960 175 0 my_caseup_utf8mb4
FUNC 53ae0 175 0 my_casedn_utf8mb4
FUNC 53c60 235 0 my_casedn_str_utf8mb4
FUNC 53ea0 235 0 my_caseup_str_utf8mb4
FUNC 540e0 7d 0 my_ismbchar_utf8
FUNC 54160 3cb 0 my_strnncollsp_utf8
FUNC 54530 396 0 my_strnncoll_utf8
FUNC 548d0 1c7 0 my_caseup_utf8
FUNC 54aa0 1c7 0 my_hash_sort_utf8
FUNC 54c70 1c7 0 my_casedn_utf8
FUNC 54e40 34e 0 my_strcasecmp_utf8mb4
FUNC 55190 21c 0 my_strcasecmp_utf8
FUNC 553b0 4de 0 my_wildcmp_unicode_impl
FUNC 55890 2d 0 my_wildcmp_unicode
FUNC 558c0 25 0 my_wildcmp_utf8
FUNC 558f0 25 0 my_wildcmp_utf8mb4
FUNC 55920 35 0 my_mb_wc_latin1
FUNC 55960 51 0 my_wc_mb_latin1
FUNC 559c0 c4 0 my_strnncoll_latin1_de
FUNC 55a90 109 0 my_strnncollsp_latin1_de
FUNC 55ba0 111 0 my_hash_sort_latin1_de
FUNC 55cc0 bd 0 my_strnxfrm_latin1_de
FUNC 55d80 17 0 vio_buff_has_data
FUNC 55da0 c 0 vio_type
FUNC 55db0 8 0 vio_fd
FUNC 55dc0 c 0 vio_is_no_name_error
FUNC 55dd0 41 0 vio_getnameinfo
FUNC 55e20 d 0 vio_errno
FUNC 55e30 11 0 vio_was_timeout
FUNC 55e50 11 0 vio_should_retry
FUNC 55e70 bc 0 vio_io_wait
FUNC 55f30 90 0 vio_is_connected
FUNC 55fc0 35 0 vio_socket_io_wait
FUNC 56000 240 0 vio_peer_addr
FUNC 56240 4d 0 vio_description
FUNC 56290 175 0 vio_shutdown
FUNC 56410 12a 0 vio_write
FUNC 56540 11a 0 vio_read
FUNC 56660 ee 0 vio_read_buff
FUNC 56750 272 0 vio_socket_connect
FUNC 569d0 195 0 vio_fastsend
FUNC 56b70 ca 0 vio_get_normalized_ip_string
FUNC 56c40 101 0 vio_keepalive
FUNC 56d50 ab 0 vio_socket_timeout
FUNC 56e00 8 0 has_no_data
FUNC 56e10 63 0 vio_timeout
FUNC 56e80 c 0 vio_end
FUNC 56e90 47 0 vio_delete
FUNC 56ee0 326 0 mysql_socket_vio_new
FUNC 57210 32 0 vio_new
FUNC 57250 39e 0 vio_reset
FUNC 575f0 13 0 sslGetErrString
FUNC 57610 22 0 free_vio_ssl_acceptor_fd
FUNC 57640 43 0 report_errors
FUNC 57690 45 0 ssl_start
FUNC 576e0 361 0 new_VioSSLFd
FUNC 57a50 65 0 new_VioSSLAcceptorFd
FUNC 57ac0 75 0 new_VioSSLConnectorFd
FUNC 57b40 17 0 vio_ssl_has_data
FUNC 57b60 a 0 yassl_send
FUNC 57b70 a 0 yassl_recv
FUNC 57b80 46 0 vio_ssl_shutdown
FUNC 57bd0 57 0 vio_ssl_delete
FUNC 57c30 ac 0 vio_ssl_write
FUNC 57ce0 ac 0 vio_ssl_read
FUNC 57d90 19c 0 ssl_do
FUNC 57f30 14 0 sslconnect
FUNC 57f50 14 0 sslaccept
FUNC 57f70 b8 0 my_realpath
FUNC 58030 3c 0 my_is_symlink
FUNC 58070 c3 0 my_symlink
FUNC 58140 cc 0 my_readlink
FUNC 58210 1f 0 pop_dynamic
FUNC 58230 5c 0 freeze_size
FUNC 58290 2b 0 delete_dynamic_element
FUNC 582c0 3e 0 delete_dynamic
FUNC 58300 36 0 get_dynamic
FUNC 58340 bd 0 allocate_dynamic
FUNC 58400 87 0 set_dynamic
FUNC 58490 b7 0 alloc_dynamic
FUNC 58550 54 0 insert_dynamic
FUNC 585b0 a9 0 init_dynamic_array2
FUNC 58660 11 0 init_dynamic_array
FUNC 58680 14e 0 my_multi_malloc
FUNC 587d0 51a 0 my_read
FUNC 58cf0 6 0 init_glob_errs
FUNC 58d00 d 0 get_global_errmsgs
FUNC 58d10 8f 0 wait_for_free_space
FUNC 58da0 3d 0 list_add
FUNC 58de0 39 0 list_delete
FUNC 58e20 2b 0 list_reverse
FUNC 58e50 1e 0 list_length
FUNC 58e70 42 0 list_walk
FUNC 58ec0 53 0 list_cons
FUNC 58f20 57 0 list_free
FUNC 58f80 5e 0 set_prealloc_root
FUNC 58fe0 121 0 free_root
FUNC 59110 138 0 alloc_root
FUNC 59250 49 0 memdup_root
FUNC 592a0 4f 0 strmake_root
FUNC 592f0 36 0 strdup_root
FUNC 59330 146 0 multi_alloc_root
FUNC 59480 cd 0 reset_root_defaults
FUNC 59550 a3 0 init_alloc_root
FUNC 59600 7c 0 my_init_mysys_psi_keys
FUNC 59680 1fb 0 my_end
FUNC 59880 1a4 0 my_init
FUNC 59a30 79 0 intern_filename
FUNC 59ab0 20 0 system_filename
FUNC 59ad0 380 0 cleanup_dirname
FUNC 59e50 9b 0 normalize_dirname
FUNC 59ef0 180 0 unpack_dirname
FUNC 5a070 a1 0 unpack_filename
FUNC 5a120 24d 0 pack_dirname
FUNC 5a370 6b 0 my_get_err_msg
FUNC 5a3e0 11 0 my_message
FUNC 5a400 48 0 my_error_unregister_all
FUNC 5a450 69 0 my_error_unregister
FUNC 5a4c0 a9 0 my_error_register
FUNC 5a570 54 0 my_printv_error
FUNC 5a5d0 cd 0 my_printf_warning
FUNC 5a6a0 df 0 my_printf_error
FUNC 5a780 10f 0 my_error
FUNC 5a890 89 0 my_strerror
FUNC 5a920 29 0 get_type
FUNC 5a950 145 0 copy_typelib
FUNC 5aaa0 3c 0 make_type
FUNC 5aae0 21c 0 find_type
FUNC 5ad00 1bf 0 find_set_from_flags
FUNC 5aec0 e2 0 find_typeset
FUNC 5afb0 e2 0 find_type_or_exit
FUNC 5b0a0 33 0 cset_hash_sort_adapter
FUNC 5b0e0 6a 0 my_hash_reset
FUNC 5b150 14 0 my_calc_hash
FUNC 5b170 180 0 my_hash_next
FUNC 5b2f0 1b 0 my_hash_element
FUNC 5b310 1c 0 my_hash_replace
FUNC 5b330 74 0 my_hash_free
FUNC 5b3b0 66 0 _my_hash_init
FUNC 5b420 1a2 0 my_hash_first_from_hash_value
FUNC 5b5d0 87 0 my_hash_first
FUNC 5b660 13 0 my_hash_search
FUNC 5b680 13 0 my_hash_search_using_hash_value
FUNC 5b6a0 304 0 my_hash_update
FUNC 5b9b0 4e0 0 my_hash_insert
FUNC 5be90 3fc 0 my_hash_delete
FUNC 5c290 6 0 proc_info_dummy
FUNC 5c2a0 58 0 strlength
FUNC 5c300 307 0 fn_format
FUNC 5c610 33 0 dirname_length
FUNC 5c650 6d 0 convert_dirname
FUNC 5c6c0 5a 0 dirname_part
FUNC 5c720 a 0 my_free
FUNC 5c730 c6 0 my_malloc
FUNC 5c800 51 0 my_strndup
FUNC 5c860 53 0 my_strdup
FUNC 5c8c0 4b 0 my_memdup
FUNC 5c910 ba 0 my_realloc
FUNC 5c9d0 49 0 my_filename
FUNC 5ca20 3d 0 my_once_free
FUNC 5ca60 118 0 my_once_alloc
FUNC 5cb80 4b 0 my_once_memdup
FUNC 5cbd0 53 0 my_once_strdup
FUNC 5cc30 46 0 test_if_hard_path
FUNC 5cc80 16 0 has_path
FUNC 5cca0 125 0 my_setwd
FUNC 5cdd0 f7 0 my_getwd
FUNC 5ced0 6 0 default_reporter
FUNC 5cee0 60 0 my_charset_loader_init_mysys
FUNC 5cf40 1a 0 add_compiled_collation
FUNC 5cf60 10 0 free_charsets
FUNC 5cf70 2de 0 escape_string_for_mysql
FUNC 5d250 213 0 escape_quotes_for_mysql
FUNC 5d470 60 0 get_charset_name
FUNC 5d4d0 14d 0 get_charset_number
FUNC 5d620 f 0 my_malloc_c
FUNC 5d630 2f3 0 my_read_charset_file
FUNC 5d930 1a5 0 init_state_maps
FUNC 5dae0 f 0 my_once_alloc_c
FUNC 5daf0 c6 0 get_charsets_dir
FUNC 5dbc0 1cf 0 get_internal_charset
FUNC 5dd90 bd 0 my_charset_get_by_name
FUNC 5de50 56 0 get_charset_by_csname
FUNC 5deb0 58 0 resolve_charset
FUNC 5df10 aa 0 init_available_charsets
FUNC 5dfc0 e9 0 get_charset
FUNC 5e0b0 22 0 my_charset_same
FUNC 5e0e0 74e 0 add_collation
FUNC 5e830 f 0 my_realloc_c
FUNC 5e840 139 0 get_collation_number
FUNC 5e980 c5 0 my_collation_get_by_name
FUNC 5ea50 48 0 get_charset_by_name
FUNC 5eaa0 42 0 resolve_collation
FUNC 5eaf0 1ad 0 my_close
FUNC 5eca0 29c 0 my_register_filename
FUNC 5ef40 47 0 my_open
FUNC 5ef90 15c 0 my_load_path
FUNC 5f0f0 96 0 my_message_stderr
FUNC 5f190 14 0 thr_set_sync_wait_callback
FUNC 5f1b0 128 0 my_sync
FUNC 5f2e0 7c 0 my_sync_dir
FUNC 5f360 41 0 my_sync_dir_by_file
FUNC 5f3b0 d 0 my_thread_name
FUNC 5f3c0 2a 0 set_mysys_var
FUNC 5f3f0 27 0 _my_thread_var
FUNC 5f420 12 0 my_thread_dbug_id
FUNC 5f440 3c 0 inline_mysql_mutex_init
FUNC 5f480 2d 0 inline_mysql_cond_init
FUNC 5f4b0 15b 0 my_thread_init
FUNC 5f610 31c 0 my_thread_global_reinit
FUNC 5f930 434 0 my_thread_global_end
FUNC 5fd70 215 0 my_thread_global_init
FUNC 5ff90 15a 0 my_thread_end
FUNC 600f0 6 0 register_mutex_noop
FUNC 60100 6 0 register_rwlock_noop
FUNC 60110 6 0 register_cond_noop
FUNC 60120 6 0 register_thread_noop
FUNC 60130 6 0 register_file_noop
FUNC 60140 6 0 register_stage_noop
FUNC 60150 6 0 register_statement_noop
FUNC 60160 6 0 register_socket_noop
FUNC 60170 8 0 init_mutex_noop
FUNC 60180 6 0 destroy_mutex_noop
FUNC 60190 8 0 init_rwlock_noop
FUNC 601a0 6 0 destroy_rwlock_noop
FUNC 601b0 8 0 init_cond_noop
FUNC 601c0 6 0 destroy_cond_noop
FUNC 601d0 8 0 init_socket_noop
FUNC 601e0 6 0 destroy_socket_noop
FUNC 601f0 8 0 get_table_share_noop
FUNC 60200 6 0 release_table_share_noop
FUNC 60210 6 0 drop_table_share_noop
FUNC 60220 8 0 open_table_noop
FUNC 60230 6 0 unbind_table_noop
FUNC 60240 8 0 rebind_table_noop
FUNC 60250 6 0 close_table_noop
FUNC 60260 6 0 create_file_noop
FUNC 60270 8 0 new_thread_noop
FUNC 60280 6 0 set_thread_id_noop
FUNC 60290 8 0 get_thread_noop
FUNC 602a0 6 0 set_thread_user_noop
FUNC 602b0 6 0 set_thread_user_host_noop
FUNC 602c0 6 0 set_thread_db_noop
FUNC 602d0 6 0 set_thread_command_noop
FUNC 602e0 6 0 set_thread_start_time_noop
FUNC 602f0 6 0 set_thread_state_noop
FUNC 60300 6 0 set_thread_info_noop
FUNC 60310 6 0 set_thread_noop
FUNC 60320 6 0 delete_current_thread_noop
FUNC 60330 6 0 delete_thread_noop
FUNC 60340 8 0 get_thread_file_name_locker_noop
FUNC 60350 8 0 get_thread_file_stream_locker_noop
FUNC 60360 8 0 get_thread_file_descriptor_locker_noop
FUNC 60370 6 0 unlock_mutex_noop
FUNC 60380 6 0 unlock_rwlock_noop
FUNC 60390 6 0 signal_cond_noop
FUNC 603a0 6 0 broadcast_cond_noop
FUNC 603b0 8 0 start_idle_wait_noop
FUNC 603c0 6 0 end_idle_wait_noop
FUNC 603d0 8 0 start_mutex_wait_noop
FUNC 603e0 6 0 end_mutex_wait_noop
FUNC 603f0 8 0 start_rwlock_rdwait_noop
FUNC 60400 6 0 end_rwlock_rdwait_noop
FUNC 60410 8 0 start_rwlock_wrwait_noop
FUNC 60420 6 0 end_rwlock_wrwait_noop
FUNC 60430 8 0 start_cond_wait_noop
FUNC 60440 6 0 end_cond_wait_noop
FUNC 60450 8 0 start_table_io_wait_noop
FUNC 60460 6 0 end_table_io_wait_noop
FUNC 60470 8 0 start_table_lock_wait_noop
FUNC 60480 6 0 end_table_lock_wait_noop
FUNC 60490 6 0 start_file_open_wait_noop
FUNC 604a0 8 0 end_file_open_wait_noop
FUNC 604b0 6 0 end_file_open_wait_and_bind_to_descriptor_noop
FUNC 604c0 6 0 start_file_wait_noop
FUNC 604d0 6 0 end_file_wait_noop
FUNC 604e0 6 0 start_file_close_wait_noop
FUNC 604f0 6 0 end_file_close_wait_noop
FUNC 60500 6 0 start_stage_noop
FUNC 60510 6 0 end_stage_noop
FUNC 60520 8 0 get_thread_statement_locker_noop
FUNC 60530 8 0 refine_statement_noop
FUNC 60540 6 0 start_statement_noop
FUNC 60550 6 0 set_statement_text_noop
FUNC 60560 6 0 set_statement_lock_time_noop
FUNC 60570 6 0 set_statement_rows_sent_noop
FUNC 60580 6 0 set_statement_rows_examined_noop
FUNC 60590 6 0 inc_statement_created_tmp_disk_tables_noop
FUNC 605a0 6 0 inc_statement_created_tmp_tables_noop
FUNC 605b0 6 0 inc_statement_select_full_join_noop
FUNC 605c0 6 0 inc_statement_select_full_range_join_noop
FUNC 605d0 6 0 inc_statement_select_range_noop
FUNC 605e0 6 0 inc_statement_select_range_check_noop
FUNC 605f0 6 0 inc_statement_select_scan_noop
FUNC 60600 6 0 inc_statement_sort_merge_passes_noop
FUNC 60610 6 0 inc_statement_sort_range_noop
FUNC 60620 6 0 inc_statement_sort_rows_noop
FUNC 60630 6 0 inc_statement_sort_scan_noop
FUNC 60640 6 0 set_statement_no_index_used_noop
FUNC 60650 6 0 set_statement_no_good_index_used_noop
FUNC 60660 6 0 end_statement_noop
FUNC 60670 8 0 start_socket_wait_noop
FUNC 60680 6 0 end_socket_wait_noop
FUNC 60690 6 0 set_socket_state_noop
FUNC 606a0 6 0 set_socket_info_noop
FUNC 606b0 6 0 set_socket_thread_owner_noop
FUNC 606c0 8 0 digest_start_noop
FUNC 606d0 6 0 digest_end_noop
FUNC 606e0 8 0 set_thread_connect_attrs_noop
FUNC 606f0 10 0 set_psi_server
FUNC 60700 16 0 spawn_thread_noop
FUNC 60720 1d 0 my_time_possible_from_micro
FUNC 60740 42 0 my_micro_time_and_time
FUNC 60790 34 0 my_micro_time
FUNC 607d0 51 0 my_time
FUNC 60830 3d 0 my_getsystime
FUNC 60870 10 0 my_getopt_is_args_separator
FUNC 60880 ac 0 check_file_permissions
FUNC 60930 a1 0 my_default_get_login_file
FUNC 609e0 64 0 add_directory
FUNC 60a50 da 0 init_default_directories
FUNC 60b30 1e6 0 my_print_default_files
FUNC 60d20 be 0 print_defaults
FUNC 60de0 50 0 free_defaults
FUNC 60e30 90 0 handle_default_option
FUNC 60ec0 1ba 0 get_defaults_options
FUNC 61080 70 0 fn_expand
FUNC 610f0 d9 0 inline_mysql_file_fread
FUNC 611d0 f6c 0 search_default_file_with_ext
FUNC 62140 66b 0 my_search_option_files
FUNC 627b0 471 0 my_load_defaults
FUNC 62c30 11 0 load_defaults
FUNC 62c50 c 0 my_aes_get_size
FUNC 62c60 c 0 my_aes_needs_iv
FUNC 62c70 955 0 my_aes_encrypt
FUNC 635d0 980 0 my_aes_decrypt
FUNC 63f50 10 0 TaoCrypt::Mode_BASE::~Mode_BASE
FUNC 63f60 15b 0 TaoCrypt::Mode_BASE::Process
FUNC 640c0 14 0 TaoCrypt::Mode_BASE::~Mode_BASE
FUNC 640e0 6c 0 my_aes_create_key
FUNC 64150 8 0 __cxa_pure_virtual
FUNC 64160 19 0 yaSSL::c32to24
FUNC 64180 23 0 yaSSL::c24to32
FUNC 641b0 1b 0 yaSSL::c24to32
FUNC 641d0 1a 0 yaSSL::ato16
FUNC 641f0 19 0 yaSSL::ato24
FUNC 64210 12 0 yaSSL::c16toa
FUNC 64230 19 0 yaSSL::c24toa
FUNC 64250 21 0 yaSSL::c32toa
FUNC 64280 5a 0 yaSSL::States::States
FUNC 642e0 9 0 yaSSL::States::getRecord
FUNC 642f0 a 0 yaSSL::States::getHandShake
FUNC 64300 a 0 yaSSL::States::getClient
FUNC 64310 a 0 yaSSL::States::getServer
FUNC 64320 a 0 yaSSL::States::GetConnect
FUNC 64330 a 0 yaSSL::States::GetAccept
FUNC 64340 a 0 yaSSL::States::getString
FUNC 64350 9 0 yaSSL::States::What
FUNC 64360 9 0 yaSSL::States::useRecord
FUNC 64370 a 0 yaSSL::States::useHandShake
FUNC 64380 a 0 yaSSL::States::useClient
FUNC 64390 a 0 yaSSL::States::useServer
FUNC 643a0 a 0 yaSSL::States::UseConnect
FUNC 643b0 a 0 yaSSL::States::UseAccept
FUNC 643c0 a 0 yaSSL::States::useString
FUNC 643d0 9 0 yaSSL::States::SetError
FUNC 643e0 117 0 yaSSL::States::SetMessageRecvd
FUNC 64500 9 0 yaSSL::sslFactory::getMessage
FUNC 64510 a 0 yaSSL::sslFactory::getHandShake
FUNC 64520 a 0 yaSSL::sslFactory::getServerKey
FUNC 64530 a 0 yaSSL::sslFactory::getClientKey
FUNC 64540 b 0 yaSSL::SSL::SetCompression
FUNC 64550 d 0 yaSSL::SSL::UnSetCompression
FUNC 64560 d 0 yaSSL::SSL::CompressionOn
FUNC 64570 c 0 yaSSL::SSL::SetError
FUNC 64580 d 0 yaSSL::SSL::SetQuietShutdown
FUNC 64590 d 0 yaSSL::SSL::useBuffers
FUNC 645a0 10 0 yaSSL::SSL::order_error
FUNC 645b0 89 0 yaSSL::SSL::setKeys
FUNC 64640 31 0 yaSSL::SSL::get_SEQIncrement
FUNC 64680 36 0 yaSSL::SSL::get_macSecret
FUNC 646c0 50 0 yaSSL::SSL::verifyState
FUNC 64710 22 0 yaSSL::SSL::verifyState
FUNC 64740 24 0 yaSSL::SSL::verifyState
FUNC 64770 25 0 yaSSL::SSL::verfiyHandShakeComplete
FUNC 647a0 a1 0 yaSSL::SSL::verifyClientState
FUNC 64850 84 0 yaSSL::SSL::verifyServerState
FUNC 648e0 b0 0 yaSSL::SSL::matchSuite
FUNC 64990 9 0 yaSSL::SSL::getCrypto
FUNC 649a0 d 0 yaSSL::SSL::getSecurity
FUNC 649b0 d 0 yaSSL::SSL::getStates
FUNC 649c0 d 0 yaSSL::SSL::getHashes
FUNC 649d0 d 0 yaSSL::SSL::getSocket
FUNC 649e0 c 0 yaSSL::SSL::GetError
FUNC 649f0 d 0 yaSSL::SSL::GetQuietShutdown
FUNC 64a00 14 0 yaSSL::SSL::GetMultiProtocol
FUNC 64a20 9 0 yaSSL::SSL::useCrypto
FUNC 64a30 d 0 yaSSL::SSL::useSecurity
FUNC 64a40 d 0 yaSSL::SSL::useStates
FUNC 64a50 d 0 yaSSL::SSL::useHashes
FUNC 64a60 d 0 yaSSL::SSL::useSocket
FUNC 64a70 d 0 yaSSL::SSL::useLog
FUNC 64a80 d 0 yaSSL::SSL::isTLS
FUNC 64a90 d 0 yaSSL::SSL::isTLSv1_1
FUNC 64aa0 d 0 yaSSL::SSL::HasData
FUNC 64ab0 9 0 yaSSL::SSL_SESSION::GetID
FUNC 64ac0 a 0 yaSSL::SSL_SESSION::GetSecret
FUNC 64ad0 a 0 yaSSL::SSL_SESSION::GetSuite
FUNC 64ae0 a 0 yaSSL::SSL_SESSION::GetPeerX509
FUNC 64af0 9 0 yaSSL::SSL_SESSION::GetBornOn
FUNC 64b00 9 0 yaSSL::SSL_SESSION::GetTimeOut
FUNC 64b10 9 0 yaSSL::SSL_SESSION::SetTimeOut
FUNC 64b20 1b 0 yaSSL::SSL_METHOD::SSL_METHOD
FUNC 64b40 9 0 yaSSL::SSL_METHOD::getVersion
FUNC 64b50 9 0 yaSSL::SSL_METHOD::getSide
FUNC 64b60 a 0 yaSSL::SSL_METHOD::setVerifyPeer
FUNC 64b70 a 0 yaSSL::SSL_METHOD::setVerifyNone
FUNC 64b80 a 0 yaSSL::SSL_METHOD::setFailNoCert
FUNC 64b90 a 0 yaSSL::SSL_METHOD::verifyPeer
FUNC 64ba0 a 0 yaSSL::SSL_METHOD::verifyNone
FUNC 64bb0 a 0 yaSSL::SSL_METHOD::failNoCert
FUNC 64bc0 a 0 yaSSL::SSL_METHOD::multipleProtocol
FUNC 64bd0 a 0 yaSSL::SSL_CTX::GetCA_List
FUNC 64be0 d 0 yaSSL::SSL_CTX::getVerifyCallback
FUNC 64bf0 a 0 yaSSL::SSL_CTX::getCert
FUNC 64c00 a 0 yaSSL::SSL_CTX::getKey
FUNC 64c10 9 0 yaSSL::SSL_CTX::getMethod
FUNC 64c20 a 0 yaSSL::SSL_CTX::GetCiphers
FUNC 64c30 d 0 yaSSL::SSL_CTX::GetDH_Parms
FUNC 64c40 d 0 yaSSL::SSL_CTX::GetStats
FUNC 64c50 d 0 yaSSL::SSL_CTX::GetPasswordCb
FUNC 64c60 d 0 yaSSL::SSL_CTX::SetPasswordCb
FUNC 64c70 d 0 yaSSL::SSL_CTX::GetUserData
FUNC 64c80 d 0 yaSSL::SSL_CTX::GetSessionCacheOff
FUNC 64c90 d 0 yaSSL::SSL_CTX::GetSessionCacheFlushOff
FUNC 64ca0 d 0 yaSSL::SSL_CTX::SetUserData
FUNC 64cb0 d 0 yaSSL::SSL_CTX::SetSessionCacheOff
FUNC 64cc0 d 0 yaSSL::SSL_CTX::SetSessionCacheFlushOff
FUNC 64cd0 d 0 yaSSL::SSL_CTX::setVerifyPeer
FUNC 64ce0 d 0 yaSSL::SSL_CTX::setVerifyNone
FUNC 64cf0 d 0 yaSSL::SSL_CTX::setFailNoCert
FUNC 64d00 d 0 yaSSL::SSL_CTX::setVerifyCallback
FUNC 64d10 9 0 yaSSL::Crypto::get_digest
FUNC 64d20 a 0 yaSSL::Crypto::get_cipher
FUNC 64d30 a 0 yaSSL::Crypto::get_dh
FUNC 64d40 a 0 yaSSL::Crypto::get_random
FUNC 64d50 a 0 yaSSL::Crypto::get_certManager
FUNC 64d60 9 0 yaSSL::Crypto::use_digest
FUNC 64d70 a 0 yaSSL::Crypto::use_cipher
FUNC 64d80 a 0 yaSSL::Crypto::use_dh
FUNC 64d90 a 0 yaSSL::Crypto::use_random
FUNC 64da0 a 0 yaSSL::Crypto::use_certManager
FUNC 64db0 a 0 yaSSL::Crypto::SetDH
FUNC 64dc0 e 0 yaSSL::Crypto::DhSet
FUNC 64dd0 9 0 yaSSL::Crypto::setDigest
FUNC 64de0 a 0 yaSSL::Crypto::setCipher
FUNC 64df0 9 0 yaSSL::sslHashes::get_MD5
FUNC 64e00 a 0 yaSSL::sslHashes::get_SHA
FUNC 64e10 a 0 yaSSL::sslHashes::get_verify
FUNC 64e20 a 0 yaSSL::sslHashes::get_certVerify
FUNC 64e30 9 0 yaSSL::sslHashes::use_MD5
FUNC 64e40 a 0 yaSSL::sslHashes::use_SHA
FUNC 64e50 a 0 yaSSL::sslHashes::use_verify
FUNC 64e60 a 0 yaSSL::sslHashes::use_certVerify
FUNC 64e70 53 0 yaSSL::Buffers::Buffers
FUNC 64ed0 a 0 yaSSL::Buffers::SetOutput
FUNC 64ee0 a 0 yaSSL::Buffers::SetRawInput
FUNC 64ef0 12 0 yaSSL::Buffers::TakeRawInput
FUNC 64f10 12 0 yaSSL::Buffers::TakeOutput
FUNC 64f30 a 0 yaSSL::Buffers::getData
FUNC 64f40 a 0 yaSSL::Buffers::getHandShake
FUNC 64f50 a 0 yaSSL::Buffers::useData
FUNC 64f60 a 0 yaSSL::Buffers::useHandShake
FUNC 64f70 9 0 yaSSL::Security::get_connection
FUNC 64f80 d 0 yaSSL::Security::GetContext
FUNC 64f90 d 0 yaSSL::Security::get_parms
FUNC 64fa0 d 0 yaSSL::Security::get_resume
FUNC 64fb0 d 0 yaSSL::Security::get_resuming
FUNC 64fc0 9 0 yaSSL::Security::use_connection
FUNC 64fd0 d 0 yaSSL::Security::use_parms
FUNC 64fe0 d 0 yaSSL::Security::use_resume
FUNC 64ff0 d 0 yaSSL::Security::set_resuming
FUNC 65000 9 0 yaSSL::X509_NAME::GetName
FUNC 65010 a 0 yaSSL::X509_NAME::GetLength
FUNC 65020 9 0 yaSSL::X509::GetIssuer
FUNC 65030 a 0 yaSSL::X509::GetSubject
FUNC 65040 a 0 yaSSL::X509::GetBefore
FUNC 65050 a 0 yaSSL::X509::GetAfter
FUNC 65060 9 0 yaSSL::StringHolder::GetString
FUNC 65070 b 0 yaSSL::Compress
FUNC 65080 b 0 yaSSL::DeCompress
FUNC 65090 66 0 yaSSL::SSL_CTX::AddCA
FUNC 65100 79 0 yaSSL::SSL::addBuffer
FUNC 65180 89 0 yaSSL::SSL::addData
FUNC 65210 61 0 yaSSL::StringHolder::StringHolder
FUNC 65280 98 0 yaSSL::X509_NAME::GetEntry
FUNC 65320 55 0 yaSSL::X509_NAME::X509_NAME
FUNC 65380 a1 0 yaSSL::::setPrefix
FUNC 65430 36 0 yaSSL::SSL::set_sessionID
FUNC 65470 3f 0 yaSSL::SSL::set_masterSecret
FUNC 654b0 4b 0 yaSSL::SSL::set_random
FUNC 65500 6e 0 yaSSL::Crypto::SetDH
FUNC 65570 78 0 yaSSL::Crypto::~Crypto
FUNC 655f0 5e 0 yaSSL::Crypto::Crypto
FUNC 65650 15d 0 yaSSL::SSL_CTX::IncrementStats
FUNC 657b0 162 0 yaSSL::SSL_CTX::SetCipherList
FUNC 65920 4d 0 yaSSL::SSL_CTX::SetDH
FUNC 65970 9b 0 yaSSL::GetErrors
FUNC 65a10 9f 0 yaSSL::Session_initialize
FUNC 65ab0 a 0 yaSSL::c_session_initialize
FUNC 65ac0 193 0 yaSSL::SSL_CTX::SSL_CTX
FUNC 65c60 a1 0 yaSSL::default_password_callback
FUNC 65d10 14 0 yaSSL::yassl_mysql_strdup
FUNC 65d30 a 0 yaSSL::yassl_int_cpp_local2::GetSelf
FUNC 65d40 20 0 yaSSL::GetSessions
FUNC 65d60 59 0 yaSSL::SSL_SESSION::SSL_SESSION
FUNC 65dc0 b9 0 yaSSL::SSL::Send
FUNC 65e80 3d 0 yaSSL::SSL::bufferedData
FUNC 65ec0 a7 0 yaSSL::SSL::set_preMaster
FUNC 65f70 ff5 0 yaSSL::SSL::set_pending
FUNC 66f70 eb 0 yaSSL::sslFactory::sslFactory
FUNC 67060 70 0 yaSSL::GetSSL_Factory
FUNC 670d0 164 0 yaSSL::SSL::PeekData
FUNC 67240 1f0 0 yaSSL::SSL::fillData
FUNC 67430 1a 0 yaSSL::StringHolder::~StringHolder
FUNC 67450 37 0 yaSSL::X509_NAME::~X509_NAME
FUNC 67490 135 0 yaSSL::Buffers::~Buffers
FUNC 675d0 16e 0 yaSSL::X509::X509
FUNC 67740 de 0 yaSSL::SSL_SESSION::CopyX509
FUNC 67820 70 0 yaSSL::SSL::getFactory
FUNC 67890 10f 0 yaSSL::Errors::Lookup
FUNC 679a0 fd 0 yaSSL::Security::Security
FUNC 67aa0 2d 0 yaSSL::SSL_SESSION::~SSL_SESSION
FUNC 67ad0 da 0 yaSSL::Sessions::~Sessions
FUNC 67bb0 b8 0 yayaSSL_CleanUp
FUNC 67c70 151 0 yaSSL::Sessions::Flush
FUNC 67dd0 41a 0 yaSSL::SSL::SSL
FUNC 681f0 129 0 yaSSL::SSL_CTX::~SSL_CTX
FUNC 68320 168 0 yaSSL::SSL_SESSION::operator=
FUNC 68490 161 0 yaSSL::Sessions::lookup
FUNC 68600 8b 0 yaSSL::SSL::set_session
FUNC 68690 17a 0 yaSSL::SSL_SESSION::SSL_SESSION
FUNC 68810 105 0 yaSSL::Sessions::add
FUNC 68920 169 0 yaSSL::SSL::storeKeys
FUNC 68a90 134 0 yaSSL::SSL::deriveTLSKeys
FUNC 68bd0 ae 0 yaSSL::SSL::makeTLSMasterSecret
FUNC 68c80 2fa 0 yaSSL::SSL::deriveKeys
FUNC 68f80 f5 0 yaSSL::Errors::Remove
FUNC 69080 b8 0 yaSSL::Errors::Add
FUNC 69140 139 0 yaSSL::Sessions::remove
FUNC 69280 10e 0 yaSSL::SSL::SendWriteBuffered
FUNC 69390 1f7 0 yaSSL::SSL::flushBuffer
FUNC 69590 4f1 0 yaSSL::SSL::makeMasterSecret
FUNC 69a90 1f0 0 yaSSL::SSL::verifyState
FUNC 69c80 10 0 yaSSL::HandShakeBase::~HandShakeBase
FUNC 69c90 14 0 yaSSL::HandShakeBase::~HandShakeBase
FUNC 69cb0 12 0 yaSSL::ysArrayDelete<unsigned char>
FUNC 69cd0 3b 0 yaSSL::DH_Parms::~DH_Parms
FUNC 69d10 67 0 yaSSL::ysDelete<yaSSL::sslFactory>
FUNC 69d80 7f 0 yaSSL::ysDelete<yaSSL::X509>
FUNC 69e00 8 0 __cxa_pure_virtual
FUNC 69e10 18 0 yaSSL::lowResTimer
FUNC 69e30 2d 0 yaSSL::timer
FUNC 69e60 8 0 __cxa_pure_virtual
FUNC 69e70 6 0 yaSSL::Log::Log
FUNC 69e80 6 0 yaSSL::Log::~Log
FUNC 69e90 6 0 yaSSL::Log::Trace
FUNC 69ea0 6 0 yaSSL::Log::ShowTCP
FUNC 69eb0 6 0 yaSSL::Log::ShowData
FUNC 69ec0 8 0 __cxa_pure_virtual
FUNC 69ed0 b 0 yaSSL::MD5::get_digestSize
FUNC 69ee0 b 0 yaSSL::MD5::get_padSize
FUNC 69ef0 b 0 yaSSL::SHA::get_digestSize
FUNC 69f00 b 0 yaSSL::SHA::get_padSize
FUNC 69f10 b 0 yaSSL::RMD::get_digestSize
FUNC 69f20 b 0 yaSSL::RMD::get_padSize
FUNC 69f30 b 0 yaSSL::HMAC_MD5::get_digestSize
FUNC 69f40 b 0 yaSSL::HMAC_MD5::get_padSize
FUNC 69f50 b 0 yaSSL::HMAC_SHA::get_digestSize
FUNC 69f60 b 0 yaSSL::HMAC_SHA::get_padSize
FUNC 69f70 b 0 yaSSL::HMAC_RMD::get_digestSize
FUNC 69f80 b 0 yaSSL::HMAC_RMD::get_padSize
FUNC 69f90 10 0 yaSSL::AES::get_keySize
FUNC 69fa0 c 0 yaSSL::RandomPool::GetError
FUNC 69fb0 d 0 yaSSL::DiffieHellman::get_agreedKey
FUNC 69fc0 c 0 yaSSL::DiffieHellman::get_publicKeyLength
FUNC 69fd0 d 0 yaSSL::DiffieHellman::get_publicKey
FUNC 69fe0 46 0 yaSSL::AES::~AES
FUNC 6a030 30 0 yaSSL::RC4::~RC4
FUNC 6a060 46 0 yaSSL::DES_EDE::~DES_EDE
FUNC 6a0b0 46 0 yaSSL::DES::~DES
FUNC 6a100 40 0 yaSSL::HMAC_RMD::~HMAC_RMD
FUNC 6a140 40 0 yaSSL::HMAC_SHA::~HMAC_SHA
FUNC 6a180 40 0 yaSSL::HMAC_MD5::~HMAC_MD5
FUNC 6a1c0 3f 0 yaSSL::RMD::~RMD
FUNC 6a200 3f 0 yaSSL::SHA::~SHA
FUNC 6a240 3f 0 yaSSL::MD5::~MD5
FUNC 6a280 b7 0 yaSSL::AES::AES
FUNC 6a340 3d 0 yaSSL::RC4::RC4
FUNC 6a380 b1 0 yaSSL::DES_EDE::DES_EDE
FUNC 6a440 b1 0 yaSSL::DES::DES
FUNC 6a500 58 0 yaSSL::Integer::Integer
FUNC 6a560 d 0 yaSSL::DiffieHellman::get_agreedKeyLength
FUNC 6a570 e 0 yaSSL::RSA::get_cipherLength
FUNC 6a580 e 0 yaSSL::RSA::get_signatureLength
FUNC 6a590 1b 0 yaSSL::DiffieHellman::makeAgreement
FUNC 6a5b0 4a 0 yaSSL::Integer::Integer
FUNC 6a600 21 0 yaSSL::Integer::operator=
FUNC 6a630 e 0 yaSSL::DSS::get_signatureLength
FUNC 6a640 d 0 yaSSL::RandomPool::Fill
FUNC 6a650 37 0 yaSSL::RandomPool::~RandomPool
FUNC 6a690 4a 0 yaSSL::RandomPool::RandomPool
FUNC 6a6e0 50 0 yaSSL::AES::set_decryptKey
FUNC 6a730 43 0 yaSSL::AES::set_encryptKey
FUNC 6a780 15 0 yaSSL::RC4::decrypt
FUNC 6a7a0 e 0 yaSSL::RC4::encrypt
FUNC 6a7b0 1a 0 yaSSL::RC4::set_decryptKey
FUNC 6a7d0 13 0 yaSSL::RC4::set_encryptKey
FUNC 6a7f0 43 0 yaSSL::DES_EDE::set_decryptKey
FUNC 6a840 39 0 yaSSL::DES_EDE::set_encryptKey
FUNC 6a880 4d 0 yaSSL::DES::set_decryptKey
FUNC 6a8d0 41 0 yaSSL::DES::set_encryptKey
FUNC 6a920 e 0 yaSSL::RMD::update
FUNC 6a930 e 0 yaSSL::SHA::update
FUNC 6a940 e 0 yaSSL::MD5::update
FUNC 6a950 d1 0 yaSSL::HMAC_RMD::get_digest
FUNC 6aa30 d1 0 yaSSL::HMAC_SHA::get_digest
FUNC 6ab10 d1 0 yaSSL::HMAC_MD5::get_digest
FUNC 6abf0 e 0 yaSSL::RMD::get_digest
FUNC 6ac00 3a 0 yaSSL::RMD::get_digest
FUNC 6ac40 e 0 yaSSL::SHA::get_digest
FUNC 6ac50 3a 0 yaSSL::SHA::get_digest
FUNC 6ac90 e 0 yaSSL::MD5::get_digest
FUNC 6aca0 3a 0 yaSSL::MD5::get_digest
FUNC 6ace0 15a 0 yaSSL::HMAC_RMD::HMAC_RMD
FUNC 6ae40 15a 0 yaSSL::HMAC_SHA::HMAC_SHA
FUNC 6afa0 15a 0 yaSSL::HMAC_MD5::HMAC_MD5
FUNC 6b100 23 0 yaSSL::RMD::operator=
FUNC 6b130 71 0 yaSSL::RMD::RMD
FUNC 6b1b0 23 0 yaSSL::SHA::operator=
FUNC 6b1e0 71 0 yaSSL::SHA::SHA
FUNC 6b260 23 0 yaSSL::MD5::operator=
FUNC 6b290 71 0 yaSSL::MD5::MD5
FUNC 6b310 37 0 yaSSL::RC4::~RC4
FUNC 6b350 46 0 yaSSL::MD5::~MD5
FUNC 6b3a0 46 0 yaSSL::SHA::~SHA
FUNC 6b3f0 46 0 yaSSL::RMD::~RMD
FUNC 6b440 47 0 yaSSL::HMAC_MD5::~HMAC_MD5
FUNC 6b490 47 0 yaSSL::HMAC_SHA::~HMAC_SHA
FUNC 6b4e0 47 0 yaSSL::HMAC_RMD::~HMAC_RMD
FUNC 6b530 4d 0 yaSSL::DES::~DES
FUNC 6b580 4d 0 yaSSL::DES_EDE::~DES_EDE
FUNC 6b5d0 4d 0 yaSSL::AES::~AES
FUNC 6b620 62 0 yaSSL::HMAC_SHA::update
FUNC 6b690 62 0 yaSSL::HMAC_MD5::update
FUNC 6b700 62 0 yaSSL::HMAC_RMD::update
FUNC 6b770 92 0 yaSSL::SHA::SHA
FUNC 6b810 92 0 yaSSL::RMD::RMD
FUNC 6b8b0 92 0 yaSSL::MD5::MD5
FUNC 6b950 698 0 yaSSL::PemToDer
FUNC 6bff0 90 0 yaSSL::RSA::RSAImpl::SetPublic
FUNC 6c080 90 0 yaSSL::DSS::DSSImpl::SetPublic
FUNC 6c110 110 0 yaSSL::DiffieHellman::DiffieHellman
FUNC 6c220 84 0 yaSSL::HMAC_SHA::get_digest
FUNC 6c2b0 84 0 yaSSL::HMAC_RMD::get_digest
FUNC 6c340 84 0 yaSSL::HMAC_MD5::get_digest
FUNC 6c3d0 1b 0 yaSSL::RSA::verify
FUNC 6c3f0 e3 0 yaSSL::DiffieHellman::DiffieHellman
FUNC 6c4e0 10d 0 yaSSL::DiffieHellman::get_parms
FUNC 6c5f0 17b 0 yaSSL::DiffieHellman::DiffieHellman
FUNC 6c770 66 0 yaSSL::Integer::assign
FUNC 6c7e0 e9 0 yaSSL::DiffieHellman::set_sizes
FUNC 6c8d0 5b 0 yaSSL::Integer::~Integer
FUNC 6c930 df 0 yaSSL::DSS::verify
FUNC 6ca10 29 0 yaSSL::RSA::encrypt
FUNC 6ca40 eb 0 yaSSL::DSS::sign
FUNC 6cb30 2d 0 yaSSL::RSA::decrypt
FUNC 6cb60 ea 0 yaSSL::DiffieHellman::operator=
FUNC 6cc50 95 0 yaSSL::DiffieHellman::~DiffieHellman
FUNC 6ccf0 183 0 yaSSL::DES::decrypt
FUNC 6ce80 15b 0 yaSSL::DES::encrypt
FUNC 6cfe0 183 0 yaSSL::AES::decrypt
FUNC 6d170 15b 0 yaSSL::AES::encrypt
FUNC 6d2d0 183 0 yaSSL::DES_EDE::decrypt
FUNC 6d460 15b 0 yaSSL::DES_EDE::encrypt
FUNC 6d5c0 2d 0 yaSSL::RSA::sign
FUNC 6d5f0 1c4 0 yaSSL::RSA::RSAImpl::SetPrivate
FUNC 6d7c0 1ad 0 yaSSL::RSA::RSA
FUNC 6d970 30 0 yaSSL::RSA::~RSA
FUNC 6d9a0 37 0 yaSSL::RSA::~RSA
FUNC 6d9e0 163 0 yaSSL::DSS::DSSImpl::SetPrivate
FUNC 6db50 17e 0 yaSSL::DSS::DSS
FUNC 6dcd0 30 0 yaSSL::DSS::~DSS
FUNC 6dd00 37 0 yaSSL::DSS::~DSS
FUNC 6dd40 10 0 yaSSL::Digest::~Digest
FUNC 6dd50 10 0 yaSSL::BulkCipher::~BulkCipher
FUNC 6dd60 b 0 yaSSL::DES::get_blockSize
FUNC 6dd70 b 0 yaSSL::DES::get_keySize
FUNC 6dd80 b 0 yaSSL::DES::get_ivSize
FUNC 6dd90 b 0 yaSSL::DES_EDE::get_blockSize
FUNC 6dda0 b 0 yaSSL::DES_EDE::get_keySize
FUNC 6ddb0 b 0 yaSSL::DES_EDE::get_ivSize
FUNC 6ddc0 8 0 yaSSL::RC4::get_blockSize
FUNC 6ddd0 b 0 yaSSL::RC4::get_keySize
FUNC 6dde0 8 0 yaSSL::RC4::get_ivSize
FUNC 6ddf0 b 0 yaSSL::AES::get_blockSize
FUNC 6de00 b 0 yaSSL::AES::get_ivSize
FUNC 6de10 10 0 yaSSL::Auth::~Auth
FUNC 6de20 10 0 TaoCrypt::HASH::~HASH
FUNC 6de30 14 0 yaSSL::Auth::~Auth
FUNC 6de50 14 0 yaSSL::BulkCipher::~BulkCipher
FUNC 6de70 14 0 TaoCrypt::HASH::~HASH
FUNC 6de90 14 0 yaSSL::Digest::~Digest
FUNC 6deb0 3f 0 TaoCrypt::Integer::~Integer
FUNC 6def0 37 0 mySTL::auto_ptr<yaSSL::x509>::~auto_ptr
FUNC 6df30 37 0 TaoCrypt::Block<unsigned char, TaoCrypt::AllocatorWithCleanup<unsigned char> >::~Block
FUNC 6df70 ea 0 TaoCrypt::RSA_Encryptor<TaoCrypt::RSA_BlockType2>::SSL_Verify
FUNC 6e060 5d 0 TaoCrypt::DH::~DH
FUNC 6e0c0 5d 0 TaoCrypt::RSA_PublicKey::~RSA_PublicKey
FUNC 6e120 a5 0 TaoCrypt::DSA_PublicKey::~DSA_PublicKey
FUNC 6e1d0 1b6 0 TaoCrypt::RSA_Encryptor<TaoCrypt::RSA_BlockType2>::Encrypt
FUNC 6e390 1b6 0 TaoCrypt::RSA_Encryptor<TaoCrypt::RSA_BlockType1>::Encrypt
FUNC 6e550 1ce 0 TaoCrypt::RSA_Decryptor<TaoCrypt::RSA_BlockType2>::Decrypt
FUNC 6e720 f7 0 TaoCrypt::RSA_Decryptor<TaoCrypt::RSA_BlockType2>::SSL_Sign
FUNC 6e820 1b3 0 yaSSL::ysDelete<yaSSL::RSA::RSAImpl>
FUNC 6e9e0 183 0 yaSSL::ysDelete<yaSSL::DSS::DSSImpl>
FUNC 6eb70 8 0 __cxa_pure_virtual
FUNC 6eb80 1e 0 yaSSL::x509::Swap
FUNC 6eba0 8 0 yaSSL::x509::get_length
FUNC 6ebb0 a 0 yaSSL::x509::get_buffer
FUNC 6ebc0 a 0 yaSSL::x509::use_buffer
FUNC 6ebd0 d 0 yaSSL::CertManager::verifyPeer
FUNC 6ebe0 d 0 yaSSL::CertManager::verifyNone
FUNC 6ebf0 d 0 yaSSL::CertManager::failNoCert
FUNC 6ec00 d 0 yaSSL::CertManager::sendVerify
FUNC 6ec10 d 0 yaSSL::CertManager::setVerifyPeer
FUNC 6ec20 d 0 yaSSL::CertManager::setVerifyNone
FUNC 6ec30 d 0 yaSSL::CertManager::sendBlankCert
FUNC 6ec40 d 0 yaSSL::CertManager::setFailNoCert
FUNC 6ec50 d 0 yaSSL::CertManager::setSendVerify
FUNC 6ec60 d 0 yaSSL::CertManager::setSendBlankCert
FUNC 6ec70 d 0 yaSSL::CertManager::setVerifyCallback
FUNC 6ec80 14 0 yaSSL::CertManager::get_cert
FUNC 6eca0 a 0 yaSSL::CertManager::get_peerX509
FUNC 6ecb0 a 0 yaSSL::CertManager::get_selfX509
FUNC 6ecc0 c 0 yaSSL::CertManager::get_peerKeyType
FUNC 6ecd0 c 0 yaSSL::CertManager::get_keyType
FUNC 6ece0 128 0 yaSSL::CertManager::setPeerX509
FUNC 6ee10 66 0 yaSSL::CertManager::AddPeerCert
FUNC 6ee80 3c 0 yaSSL::x509::x509
FUNC 6eec0 20 0 yaSSL::x509::x509
FUNC 6eee0 1a 0 yaSSL::x509::~x509
FUNC 6ef00 e 0 yaSSL::CertManager::get_privateKeyLength
FUNC 6ef10 e 0 yaSSL::CertManager::get_peerKeyLength
FUNC 6ef20 e 0 yaSSL::CertManager::get_privateKey
FUNC 6ef30 e 0 yaSSL::CertManager::get_peerKey
FUNC 6ef40 70 0 yaSSL::x509::operator=
FUNC 6efb0 b0 0 yaSSL::CertManager::CopySelfCert
FUNC 6f060 196 0 yaSSL::CertManager::CopyCaCert
FUNC 6f200 302 0 yaSSL::CertManager::SetPrivateKey
FUNC 6f510 56e 0 yaSSL::CertManager::Validate
FUNC 6fa80 1cb 0 yaSSL::CertManager::~CertManager
FUNC 6fc50 118 0 yaSSL::CertManager::CertManager
FUNC 6fd70 8 0 __cxa_pure_virtual
FUNC 6fd80 d 0 yaSSL::Mutex::Lock::~Lock
FUNC 6fd90 10 0 yaSSL::Mutex::Lock::Lock
FUNC 6fda0 a 0 yaSSL::Mutex::~Mutex
FUNC 6fdb0 c 0 yaSSL::Mutex::Mutex
FUNC 6fdc0 8 0 __cxa_pure_virtual
FUNC 6fdd0 2a 0 yaSSL::Socket::Socket
FUNC 6fe00 8 0 yaSSL::Socket::set_fd
FUNC 6fe10 8 0 yaSSL::Socket::get_fd
FUNC 6fe20 6 0 yaSSL::Socket::~Socket
FUNC 6fe30 a 0 yaSSL::Socket::set_transport_ptr
FUNC 6fe40 a 0 yaSSL::Socket::set_transport_recv_function
FUNC 6fe50 a 0 yaSSL::Socket::set_transport_send_function
FUNC 6fe60 a 0 yaSSL::Socket::WouldBlock
FUNC 6fe70 a 0 yaSSL::Socket::IsNonBlocking
FUNC 6fe80 19 0 yaSSL::Socket::set_lastError
FUNC 6fea0 d 0 yaSSL::Socket::get_lastError
FUNC 6feb0 56 0 yaSSL::Socket::receive
FUNC 6ff10 9d 0 yaSSL::Socket::send
FUNC 6ffb0 c 0 yaSSL::Socket::shutDown
FUNC 6ffc0 26 0 yaSSL::Socket::get_ready
FUNC 6fff0 25 0 yaSSL::Socket::closeSocket
FUNC 70020 e 0 system_send
FUNC 70030 e 0 system_recv
FUNC 70040 8 0 __cxa_pure_virtual
FUNC 70050 b 0 yaSSL::yaSSL_get_default_timeout
FUNC 70060 d 0 yaSSL::yaSSLeay_version
FUNC 70070 6 0 yaSSL::yaX509_free
FUNC 70080 a 0 yaSSL::yaX509_STORE_CTX_get_current_cert
FUNC 70090 8 0 yaSSL::yaX509_STORE_CTX_get_error
FUNC 700a0 9 0 yaSSL::yaX509_STORE_CTX_get_error_depth
FUNC 700b0 6 0 yaSSL::yaSSL_load_error_strings
FUNC 700c0 6 0 yaSSL::yaSSL_set_connect_state
FUNC 700d0 8 0 yaSSL::yaSSL_get_verify_result
FUNC 700e0 8 0 yaSSL::yaSSL_CTX_sess_set_cache_size
FUNC 700f0 8 0 yaSSL::yaSSL_CTX_get_session_cache_mode
FUNC 70100 b 0 yaSSL::yaSSL_CTX_set_default_verify_paths
FUNC 70110 b 0 yaSSL::yaSSL_CTX_set_session_id_context
FUNC 70120 b 0 yaSSL::yaSSL_CTX_check_private_key
FUNC 70130 b 0 yaSSL::yaSSL_CTX_set_options
FUNC 70140 6 0 yaSSL::yaSSL_CTX_set_info_callback
FUNC 70150 6 0 yaSSL::yaOpenSSL_add_all_algorithms
FUNC 70160 b 0 yaSSL::yaSSL_library_init
FUNC 70170 8 0 yaSSL::yaERR_get_error_line_data
FUNC 70180 6 0 yaSSL::yaERR_print_errors_fp
FUNC 70190 d 0 yaSSL::yaX509_verify_cert_error_string
FUNC 701a0 d 0 yaSSL::yaEVP_md5
FUNC 701b0 d 0 yaSSL::yaEVP_des_ede3_cbc
FUNC 701c0 b 0 yaSSL::yaRAND_status
FUNC 701d0 6 0 yaSSL::yaDES_set_odd_parity
FUNC 701e0 8 0 yaSSL::yaSSL_get_privatekey
FUNC 701f0 6 0 yaSSL::yaSSL_SESSION_free
FUNC 70200 8 0 yaSSL::yaX509_get_pubkey
FUNC 70210 8 0 yaSSL::yaEVP_PKEY_copy_parameters
FUNC 70220 6 0 yaSSL::yaEVP_PKEY_free
FUNC 70230 6 0 yaSSL::yaERR_free_strings
FUNC 70240 6 0 yaSSL::yaEVP_cleanup
FUNC 70250 8 0 yaSSL::yaSSLv2_client_method
FUNC 70260 6 0 yaSSL::yaGENERAL_NAMES_free
FUNC 70270 8 0 yaSSL::yask_GENERAL_NAME_num
FUNC 70280 8 0 yaSSL::yask_GENERAL_NAME_value
FUNC 70290 11 0 yaSSL::yaASN1_STRING_data
FUNC 702b0 10 0 yaSSL::yaASN1_STRING_length
FUNC 702c0 f 0 yaSSL::yaASN1_STRING_type
FUNC 702d0 19 0 yaSSL::yaX509_NAME_get_index_by_NID
FUNC 702f0 9 0 yaSSL::yaX509_NAME_ENTRY_get_data
FUNC 70300 8 0 yaSSL::yaX509_get_ext_d2i
FUNC 70310 e 0 yaSSL::yaMD4_Update
FUNC 70320 17 0 yaSSL::yaMD4_Final
FUNC 70340 e 0 yaSSL::yaMD5_Update
FUNC 70350 17 0 yaSSL::yaMD5_Final
FUNC 70370 b 0 yaSSL::yaSSLeay_add_ssl_algorithms
FUNC 70380 d 0 yaSSL::yaERR_GET_REASON
FUNC 70390 6 0 yaSSL::yaRAND_screen
FUNC 703a0 8 0 yaSSL::yaRAND_file_name
FUNC 703b0 8 0 yaSSL::yaRAND_write_file
FUNC 703c0 8 0 yaSSL::yaRAND_load_file
FUNC 703d0 6 0 yaSSL::yaRSA_free
FUNC 703e0 8 0 yaSSL::yaRSA_generate_key
FUNC 703f0 b 0 yaSSL::yaX509_LOOKUP_add_dir
FUNC 70400 b 0 yaSSL::yaX509_LOOKUP_load_file
FUNC 70410 8 0 yaSSL::yaX509_LOOKUP_hash_dir
FUNC 70420 8 0 yaSSL::yaX509_LOOKUP_file
FUNC 70430 8 0 yaSSL::yaX509_STORE_add_lookup
FUNC 70440 b 0 yaSSL::yaX509_STORE_get_by_subject
FUNC 70450 8 0 yaSSL::yaX509_STORE_new
FUNC 70460 8 0 yaSSL::yaSSL_alert_type_string_long
FUNC 70470 8 0 yaSSL::yaSSL_alert_desc_string_long
FUNC 70480 8 0 yaSSL::yaSSL_state_string_long
FUNC 70490 6 0 yaSSL::yaSSL_CTX_set_tmp_rsa_callback
FUNC 704a0 b 0 yaSSL::yaSSL_CTX_set_timeout
FUNC 704b0 b 0 yaSSL::yaSSL_CTX_use_certificate_chain_file
FUNC 704c0 b 0 yaSSL::yaSSL_CTX_use_RSAPrivateKey_file
FUNC 704d0 b 0 yaSSL::yaSSL_set_rfd
FUNC 704e0 b 0 yaSSL::yaSSL_set_wfd
FUNC 704f0 8 0 yaSSL::yaSSL_want_read
FUNC 70500 8 0 yaSSL::yaSSL_want_write
FUNC 70510 6 0 yaSSL::yaSSL_set_shutdown
FUNC 70520 8 0 yaSSL::yaSSL_get_current_cipher
FUNC 70530 8 0 yaSSL::yaSSL_CIPHER_description
FUNC 70540 22 0 yaSSL::yaSSL_transport_set_send_function
FUNC 70570 22 0 yaSSL::yaSSL_transport_set_recv_function
FUNC 705a0 22 0 yaSSL::yaSSL_transport_set_ptr
FUNC 705d0 71 0 yaSSL::ya_SSL_ASN1_TIME_to_string
FUNC 70650 38 0 yaSSL::err_helper
FUNC 70690 12 0 yaSSL::yaERR_remove_state
FUNC 706b0 18 0 yaSSL::yaSSL_clear
FUNC 706d0 a 0 yaSSL::yaSSL_CTX_set_default_passwd_cb
FUNC 706e0 58 0 yaSSL::yaSSL_peek
FUNC 70740 55 0 yaSSL::yaSSL_read
FUNC 707a0 7d 0 yaSSL::yaRAND_bytes
FUNC 70820 4c 0 yaSSL::yaMD5_Init
FUNC 70870 4c 0 yaSSL::yaMD4_Init
FUNC 708c0 5e 0 yaSSL::yaASN1_STRING_to_UTF8
FUNC 70920 11 0 yaSSL::yaDES_set_key
FUNC 70940 c 0 yaSSL::yaDES_set_key_unchecked
FUNC 70950 a 0 yaSSL::yaX509_NAME_get_entry
FUNC 70960 14 0 yaSSL::yaX509_get_notAfter
FUNC 70980 14 0 yaSSL::yaX509_get_notBefore
FUNC 709a0 1a 0 yaSSL::yaSSL_get_certificate
FUNC 709c0 a 0 yaSSL::yaSSL_CTX_set_default_passwd_cb_userdata
FUNC 709d0 b5 0 yaSSL::yaDES_ecb_encrypt
FUNC 70a90 d2 0 yaSSL::yaDES_ede3_cbc_encrypt
FUNC 70b70 2d4 0 yaSSL::yaEVP_BytesToKey
FUNC 70e50 31 0 yaSSL::yaERR_error_string
FUNC 70e90 24 0 yaSSL::yaDH_new
FUNC 70ec0 1e 0 yaSSL::yaSSL_get_verify_depth
FUNC 70ee0 e 0 yaSSL::yaSSL_CTX_get_verify_depth
FUNC 70ef0 1e 0 yaSSL::yaSSL_get_verify_mode
FUNC 70f10 e 0 yaSSL::yaSSL_CTX_get_verify_mode
FUNC 70f20 f 0 yaSSL::yaSSL_CTX_sess_get_cache_size
FUNC 70f30 f 0 yaSSL::yaSSL_CTX_sess_number
FUNC 70f40 f 0 yaSSL::yaSSL_CTX_sess_timeouts
FUNC 70f50 f 0 yaSSL::yaSSL_CTX_sess_misses
FUNC 70f60 f 0 yaSSL::yaSSL_CTX_sess_cache_full
FUNC 70f70 f 0 yaSSL::yaSSL_CTX_sess_cb_hits
FUNC 70f80 f 0 yaSSL::yaSSL_CTX_sess_hits
FUNC 70f90 f 0 yaSSL::yaSSL_CTX_sess_connect_renegotiate
FUNC 70fa0 f 0 yaSSL::yaSSL_CTX_sess_accept_renegotiate
FUNC 70fb0 f 0 yaSSL::yaSSL_CTX_sess_connect_good
FUNC 70fc0 f 0 yaSSL::yaSSL_CTX_sess_accept_good
FUNC 70fd0 f 0 yaSSL::yaSSL_CTX_sess_connect
FUNC 70fe0 e 0 yaSSL::yaSSL_CTX_sess_accept
FUNC 70ff0 17 0 yaSSL::yaSSL_get_shared_ciphers
FUNC 71010 6d 0 yaSSL::yaSSL_CTX_set_verify
FUNC 71080 e 0 yaSSL::yaSSL_CTX_set_tmp_dh
FUNC 71090 19 0 yaSSL::yaSSL_set_accept_state
FUNC 710b0 a 0 yaSSL::yaX509_get_subject_name
FUNC 710c0 a 0 yaSSL::yaX509_get_issuer_name
FUNC 710d0 aa 0 yaSSL::yaX509_NAME_oneline
FUNC 71180 1a 0 yaSSL::yaSSL_get_peer_certificate
FUNC 711a0 a 0 yaSSL::yaSSL_set_compression
FUNC 711b0 12 0 yaSSL::yaSSL_get_error
FUNC 711d0 29 0 yaSSL::yaSSL_get_version
FUNC 71200 e 0 yaSSL::yaSSL_CTX_set_cipher_list
FUNC 71210 6b 0 yaSSL::yaSSL_get_cipher_list
FUNC 71280 19 0 yaSSL::yaSSL_get_cipher
FUNC 712a0 1e 0 yaSSL::yaSSL_flush_sessions
FUNC 712c0 17 0 yaSSL::yaSSL_SESSION_set_timeout
FUNC 712e0 16 0 yaSSL::yaSSL_session_reused
FUNC 71300 4e 0 yaSSL::yaSSL_set_session
FUNC 71350 5c 0 yaSSL::yaSSL_get_session
FUNC 713b0 a 0 yaSSL::yaSSL_get1_session
FUNC 713c0 3c 0 yaSSL::yaSSL_CTX_set_session_cache_mode
FUNC 71400 e 0 yaSSL::yaSSL_get_quiet_shutdown
FUNC 71410 14 0 yaSSL::yaSSL_set_quiet_shutdown
FUNC 71430 12 0 yaSSL::yaSSL_get_fd
FUNC 71450 8e 0 yaSSL::yaSSL_shutdown
FUNC 714e0 349 0 yaSSL::yaSSL_accept
FUNC 71830 a 0 yaSSL::yaSSL_write
FUNC 71840 37e 0 yaSSL::yaSSL_connect
FUNC 71bc0 3e 0 yaSSL::yaSSL_do_handshake
FUNC 71c00 26 0 yaSSL::yaSSL_set_fd
FUNC 71c30 4c 0 yaSSL::yaSSL_new
FUNC 71c80 2f 0 yaSSL::yaSSL_CTX_free
FUNC 71cb0 4c 0 yaSSL::yaSSL_CTX_new
FUNC 71d00 61 0 yaSSL::yaSSLv23_client_method
FUNC 71d70 5e 0 yaSSL::yaSSLv23_server_method
FUNC 71dd0 5e 0 yaSSL::yaTLSv1_1_client_method
FUNC 71e30 5b 0 yaSSL::yaTLSv1_1_server_method
FUNC 71e90 5e 0 yaSSL::yaTLSv1_client_method
FUNC 71ef0 5b 0 yaSSL::yaTLSv1_server_method
FUNC 71f50 5b 0 yaSSL::yaSSLv3_client_method
FUNC 71fb0 58 0 yaSSL::yaSSLv3_server_method
FUNC 72010 5d 0 yaSSL::yaSSL_pending
FUNC 72070 1b 0 yaSSL::yaERR_error_string_n
FUNC 72090 19 0 yaSSL::yaSSL_get_cipher_name
FUNC 720b0 2b 0 yaSSL::yaERR_get_error
FUNC 720e0 2e 0 yaSSL::yaERR_peek_error
FUNC 72110 56 0 yaSSL::yaDH_free
FUNC 72170 5b 0 yaSSL::yaSSLv3_method
FUNC 721d0 a 0 yaSSL::yaSSL_free
FUNC 721e0 d1 0 yaSSL::yaBN_bin2bn
FUNC 722c0 868 0 yaSSL::read_file
FUNC 72b30 247 0 yaSSL::yaSSL_CTX_load_verify_locations
FUNC 72d80 f 0 yaSSL::yaSSL_CTX_use_PrivateKey_file
FUNC 72d90 c 0 yaSSL::yaSSL_CTX_use_certificate_file
FUNC 72da0 10 0 yaSSL::Message::~Message
FUNC 72db0 37 0 mySTL::auto_ptr<yaSSL::BulkCipher>::reset
FUNC 72df0 14 0 yaSSL::Message::~Message
FUNC 72e10 4c 0 TaoCrypt::Source::Source
FUNC 72e60 37 0 TaoCrypt::AllocatorWithCleanup<unsigned char>::deallocate
FUNC 72ea0 2f 0 yaSSL::ysDelete<yaSSL::x509>
FUNC 72ed0 118 0 yaSSL::ysDelete<yaSSL::SSL>
FUNC 72ff0 135 0 TaoCrypt::RSA_PrivateKey::~RSA_PrivateKey
FUNC 73130 c5 0 TaoCrypt::DSA_PrivateKey::~DSA_PrivateKey
FUNC 73200 8 0 __cxa_pure_virtual
FUNC 73210 b4 0 yaSSL::::hashHandShake
FUNC 732d0 22c 0 yaSSL::sendCertificateVerify
FUNC 73500 94 0 yaSSL::hashHandShake
FUNC 735a0 5a9 0 yaSSL::build_certHashes
FUNC 73b50 1f4 0 yaSSL::hmac
FUNC 73d50 317 0 yaSSL::ProcessOldClientHello
FUNC 74070 10c 0 yaSSL::buildClientHello
FUNC 74180 140 0 yaSSL::buildServerHello
FUNC 742c0 1d3 0 yaSSL::hmac
FUNC 744a0 600 0 yaSSL::DoProcessReply
FUNC 74aa0 73 0 yaSSL::processReply
FUNC 74b20 115 0 yaSSL::receiveData
FUNC 74c40 234 0 yaSSL::::p_hash
FUNC 74e80 21e 0 yaSSL::PRF
FUNC 750a0 95c 0 yaSSL::buildFinished
FUNC 75a00 1e2 0 yaSSL::TLS_hmac
FUNC 75bf0 1d4 0 yaSSL::TLS_hmac
FUNC 75dd0 440 0 yaSSL::::buildMessage
FUNC 76210 2ff 0 yaSSL::sendData
FUNC 76510 136 0 yaSSL::sendAlert
FUNC 76650 1d8 0 yaSSL::sendChangeCipher
FUNC 76830 667 0 yaSSL::sendFinished
FUNC 76ea0 25f 0 yaSSL::sendServerHello
FUNC 77100 1de 0 yaSSL::sendClientHello
FUNC 772e0 214 0 yaSSL::sendClientKeyExchange
FUNC 77500 204 0 yaSSL::sendCertificateRequest
FUNC 77710 1e6 0 yaSSL::sendCertificate
FUNC 77900 1c6 0 yaSSL::sendServerHelloDone
FUNC 77ad0 214 0 yaSSL::sendServerKeyExchange
FUNC 77cf0 37 0 mySTL::auto_ptr<yaSSL::output_buffer>::~auto_ptr
FUNC 77d30 8 0 __cxa_pure_virtual
FUNC 77d40 c 0 yaSSL::ProtocolVersion::ProtocolVersion
