MODULE Linux x86_64 19E5299A791AE2A1DC4C5D8332F32B950 IEC103_SFIEC103
FUNC b664 1b0 0 main
FUNC b814 ca 0 __static_initialization_and_destruction_0
FUNC b8de 15 0 _GLOBAL__I_IEC103.cpp
FUNC b8f4 29 0 Config::setChannelName
FUNC b920 570 0 Config::Config
FUNC be90 74 0 Config::GetInstance
FUNC bf04 2a3 0 Config::~Config
FUNC c1a8 26 0 Config::~Config
FUNC c1ce cbf 0 Config::Init
FUNC ce8e 27 0 Config::IsSpace
FUNC ceb6 24 0 Config::IsCommentChar
FUNC ceda 173 0 Config::Trim
FUNC d04e 21d 0 Config::AnalyseLine
FUNC d26c 238 0 Config::ReadConfig
FUNC d4a4 ad 0 Config::GetStrValueByKey
FUNC d552 d03 0 Config::InitMysqlParams
FUNC e256 134 0 Config::Split
FUNC e38a 48 0 __static_initialization_and_destruction_0
FUNC e3d2 15 0 _GLOBAL__I_Config.cpp
FUNC e3e7 12 0 operator new
FUNC e3f9 e 0 operator delete
FUNC e407 14 0 std::operator|
FUNC e41c 1a 0 std::map<std::basic_string<char, std::char_traits<char>, std::allocator<char> >, std::basic_string<char, std::char_traits<char>, std::allocator<char> >, std::less<std::basic_string<char, std::char_traits<char>, std::allocator<char> > >, std::allocator<std::pair<const std::basic_string<char, std::char_traits<char>, std::allocator<char> >, std::basic_string<char, std::char_traits<char>, std::allocator<char> > > > >::~map
FUNC e436 1a 0 std::map<std::basic_string<char, std::char_traits<char>, std::allocator<char> >, std::basic_string<char, std::char_traits<char>, std::allocator<char> >, std::less<std::basic_string<char, std::char_traits<char>, std::allocator<char> > >, std::allocator<std::pair<const std::basic_string<char, std::char_traits<char>, std::allocator<char> >, std::basic_string<char, std::char_traits<char>, std::allocator<char> > > > >::map
FUNC e450 1a 0 std::_Rb_tree<std::basic_string<char, std::char_traits<char>, std::allocator<char> >, std::pair<const std::basic_string<char, std::char_traits<char>, std::allocator<char> >, std::basic_string<char, std::char_traits<char>, std::allocator<char> > >, std::_Select1st<std::pair<const std::basic_string<char, std::char_traits<char>, std::allocator<char> >, std::basic_string<char, std::char_traits<char>, std::allocator<char> > > >, std::less<std::basic_string<char, std::char_traits<char>, std::allocator<char> > >, std::allocator<std::pair<const std::basic_string<char, std::char_traits<char>, std::allocator<char> >, std::basic_string<char, std::char_traits<char>, std::allocator<char> > > > >::_Rb_tree_impl<std::less<std::basic_string<char, std::char_traits<char>, std::allocator<char> > >, false>::~_Rb_tree_impl
FUNC e46a 63 0 std::_Rb_tree<std::basic_string<char, std::char_traits<char>, std::allocator<char> >, std::pair<const std::basic_string<char, std::char_traits<char>, std::allocator<char> >, std::basic_string<char, std::char_traits<char>, std::allocator<char> > >, std::_Select1st<std::pair<const std::basic_string<char, std::char_traits<char>, std::allocator<char> >, std::basic_string<char, std::char_traits<char>, std::allocator<char> > > >, std::less<std::basic_string<char, std::char_traits<char>, std::allocator<char> > >, std::allocator<std::pair<const std::basic_string<char, std::char_traits<char>, std::allocator<char> >, std::basic_string<char, std::char_traits<char>, std::allocator<char> > > > >::~_Rb_tree
FUNC e4ce 1a 0 std::vector<short unsigned int, std::allocator<short unsigned int> >::vector
FUNC e4e8 6e 0 std::vector<short unsigned int, std::allocator<short unsigned int> >::~vector
FUNC e556 1a 0 std::vector<std::basic_string<char, std::char_traits<char>, std::allocator<char> >, std::allocator<std::basic_string<char, std::char_traits<char>, std::allocator<char> > > >::vector
FUNC e570 6e 0 std::vector<std::basic_string<char, std::char_traits<char>, std::allocator<char> >, std::allocator<std::basic_string<char, std::char_traits<char>, std::allocator<char> > > >::~vector
FUNC e5de 24 0 std::vector<short unsigned int, std::allocator<short unsigned int> >::clear
FUNC e602 24 0 std::vector<std::basic_string<char, std::char_traits<char>, std::allocator<char> >, std::allocator<std::basic_string<char, std::char_traits<char>, std::allocator<char> > > >::clear
FUNC e626 16d 0 Config::GetValueByKey<int32_t>
FUNC e794 16d 0 Config::GetValueByKey<uint16_t>
FUNC e902 1a 0 std::map<std::basic_string<char, std::char_traits<char>, std::allocator<char> >, std::basic_string<char, std::char_traits<char>, std::allocator<char> >, std::less<std::basic_string<char, std::char_traits<char>, std::allocator<char> > >, std::allocator<std::pair<const std::basic_string<char, std::char_traits<char>, std::allocator<char> >, std::basic_string<char, std::char_traits<char>, std::allocator<char> > > > >::clear
FUNC e91c 55 0 std::pair<const std::basic_string<char, std::char_traits<char>, std::allocator<char> >, std::basic_string<char, std::char_traits<char>, std::allocator<char> > >::~pair
FUNC e972 146 0 std::map<std::basic_string<char, std::char_traits<char>, std::allocator<char> >, std::basic_string<char, std::char_traits<char>, std::allocator<char> >, std::less<std::basic_string<char, std::char_traits<char>, std::allocator<char> > >, std::allocator<std::pair<const std::basic_string<char, std::char_traits<char>, std::allocator<char> >, std::basic_string<char, std::char_traits<char>, std::allocator<char> > > > >::operator[]
FUNC eab8 25 0 std::map<std::basic_string<char, std::char_traits<char>, std::allocator<char> >, std::basic_string<char, std::char_traits<char>, std::allocator<char> >, std::less<std::basic_string<char, std::char_traits<char>, std::allocator<char> > >, std::allocator<std::pair<const std::basic_string<char, std::char_traits<char>, std::allocator<char> >, std::basic_string<char, std::char_traits<char>, std::allocator<char> > > > >::find
FUNC eade 1c 0 std::_Rb_tree_const_iterator<std::pair<const std::basic_string<char, std::char_traits<char>, std::allocator<char> >, std::basic_string<char, std::char_traits<char>, std::allocator<char> > > >::_Rb_tree_const_iterator
FUNC eafa 1a 0 std::map<std::basic_string<char, std::char_traits<char>, std::allocator<char> >, std::basic_string<char, std::char_traits<char>, std::allocator<char> >, std::less<std::basic_string<char, std::char_traits<char>, std::allocator<char> > >, std::allocator<std::pair<const std::basic_string<char, std::char_traits<char>, std::allocator<char> >, std::basic_string<char, std::char_traits<char>, std::allocator<char> > > > >::end
FUNC eb14 22 0 std::_Rb_tree_const_iterator<std::pair<const std::basic_string<char, std::char_traits<char>, std::allocator<char> >, std::basic_string<char, std::char_traits<char>, std::allocator<char> > > >::operator!=
FUNC eb36 15 0 std::_Rb_tree_const_iterator<std::pair<const std::basic_string<char, std::char_traits<char>, std::allocator<char> >, std::basic_string<char, std::char_traits<char>, std::allocator<char> > > >::operator->
FUNC eb4c 20 0 std::vector<std::basic_string<char, std::char_traits<char>, std::allocator<char> >, std::allocator<std::basic_string<char, std::char_traits<char>, std::allocator<char> > > >::operator[]
FUNC eb6c f3 0 Config::String2Int<uint16_t>
FUNC ec60 25 0 std::vector<std::basic_string<char, std::char_traits<char>, std::allocator<char> >, std::allocator<std::basic_string<char, std::char_traits<char>, std::allocator<char> > > >::begin
FUNC ec86 28 0 __gnu_cxx::__normal_iterator<const std::basic_string<char, std::char_traits<char>, std::allocator<char> >*, std::vector<std::basic_string<char, std::char_traits<char>, std::allocator<char> >, std::allocator<std::basic_string<char, std::char_traits<char>, std::allocator<char> > > > >::__normal_iterator<std::basic_string<char, std::char_traits<char>, std::allocator<char> >*>
FUNC ecae 29 0 std::vector<std::basic_string<char, std::char_traits<char>, std::allocator<char> >, std::allocator<std::basic_string<char, std::char_traits<char>, std::allocator<char> > > >::end
FUNC ecd7 3c 0 __gnu_cxx::operator!=<const std::basic_string<char, std::char_traits<char>, std::allocator<char> >*, std::basic_string<char, std::char_traits<char>, std::allocator<char> >*, std::vector<std::basic_string<char, std::char_traits<char>, std::allocator<char> >, std::allocator<std::basic_string<char, std::char_traits<char>, std::allocator<char> > > > >
FUNC ed14 20 0 __gnu_cxx::__normal_iterator<const std::basic_string<char, std::char_traits<char>, std::allocator<char> >*, std::vector<std::basic_string<char, std::char_traits<char>, std::allocator<char> >, std::allocator<std::basic_string<char, std::char_traits<char>, std::allocator<char> > > > >::operator++
FUNC ed34 11 0 __gnu_cxx::__normal_iterator<const std::basic_string<char, std::char_traits<char>, std::allocator<char> >*, std::vector<std::basic_string<char, std::char_traits<char>, std::allocator<char> >, std::allocator<std::basic_string<char, std::char_traits<char>, std::allocator<char> > > > >::operator*
FUNC ed46 7a 0 std::vector<short unsigned int, std::allocator<short unsigned int> >::push_back
FUNC edc0 41 0 std::vector<short unsigned int, std::allocator<short unsigned int> >::empty
FUNC ee02 1f 0 std::vector<short unsigned int, std::allocator<short unsigned int> >::operator[]
FUNC ee22 f3 0 Config::String2Int<int32_t>
FUNC ef16 242 0 std::vector<std::basic_string<char, std::char_traits<char>, std::allocator<char> >, std::allocator<std::basic_string<char, std::char_traits<char>, std::allocator<char> > > >::operator=
FUNC f158 29 0 std::vector<std::basic_string<char, std::char_traits<char>, std::allocator<char> >, std::allocator<std::basic_string<char, std::char_traits<char>, std::allocator<char> > > >::size
FUNC f182 7a 0 std::vector<std::basic_string<char, std::char_traits<char>, std::allocator<char> >, std::allocator<std::basic_string<char, std::char_traits<char>, std::allocator<char> > > >::push_back
FUNC f1fc 1a 0 std::_Rb_tree<std::basic_string<char, std::char_traits<char>, std::allocator<char> >, std::pair<const std::basic_string<char, std::char_traits<char>, std::allocator<char> >, std::basic_string<char, std::char_traits<char>, std::allocator<char> > >, std::_Select1st<std::pair<const std::basic_string<char, std::char_traits<char>, std::allocator<char> >, std::basic_string<char, std::char_traits<char>, std::allocator<char> > > >, std::less<std::basic_string<char, std::char_traits<char>, std::allocator<char> > >, std::allocator<std::pair<const std::basic_string<char, std::char_traits<char>, std::allocator<char> >, std::basic_string<char, std::char_traits<char>, std::allocator<char> > > > >::_Rb_tree
FUNC f216 1a 0 std::allocator<std::_Rb_tree_node<std::pair<const std::basic_string<char, std::char_traits<char>, std::allocator<char> >, std::basic_string<char, std::char_traits<char>, std::allocator<char> > > > >::~allocator
FUNC f230 69 0 std::_Rb_tree<std::basic_string<char, std::char_traits<char>, std::allocator<char> >, std::pair<const std::basic_string<char, std::char_traits<char>, std::allocator<char> >, std::basic_string<char, std::char_traits<char>, std::allocator<char> > >, std::_Select1st<std::pair<const std::basic_string<char, std::char_traits<char>, std::allocator<char> >, std::basic_string<char, std::char_traits<char>, std::allocator<char> > > >, std::less<std::basic_string<char, std::char_traits<char>, std::allocator<char> > >, std::allocator<std::pair<const std::basic_string<char, std::char_traits<char>, std::allocator<char> >, std::basic_string<char, std::char_traits<char>, std::allocator<char> > > > >::_M_erase
FUNC f29a 12 0 std::_Rb_tree<std::basic_string<char, std::char_traits<char>, std::allocator<char> >, std::pair<const std::basic_string<char, std::char_traits<char>, std::allocator<char> >, std::basic_string<char, std::char_traits<char>, std::allocator<char> > >, std::_Select1st<std::pair<const std::basic_string<char, std::char_traits<char>, std::allocator<char> >, std::basic_string<char, std::char_traits<char>, std::allocator<char> > > >, std::less<std::basic_string<char, std::char_traits<char>, std::allocator<char> > >, std::allocator<std::pair<const std::basic_string<char, std::char_traits<char>, std::allocator<char> >, std::basic_string<char, std::char_traits<char>, std::allocator<char> > > > >::_M_begin
FUNC f2ac 1a 0 std::_Vector_base<short unsigned int, std::allocator<short unsigned int> >::_Vector_impl::~_Vector_impl
FUNC f2c6 1a 0 std::_Vector_base<short unsigned int, std::allocator<short unsigned int> >::_Vector_base
FUNC f2e0 7c 0 std::_Vector_base<short unsigned int, std::allocator<short unsigned int> >::~_Vector_base
FUNC f35c e 0 std::_Vector_base<short unsigned int, std::allocator<short unsigned int> >::_M_get_Tp_allocator
FUNC f36a 29 0 std::_Destroy<short unsigned int*, short unsigned int>
FUNC f394 1a 0 std::_Vector_base<std::basic_string<char, std::char_traits<char>, std::allocator<char> >, std::allocator<std::basic_string<char, std::char_traits<char>, std::allocator<char> > > >::_Vector_impl::~_Vector_impl
FUNC f3ae 1a 0 std::_Vector_base<std::basic_string<char, std::char_traits<char>, std::allocator<char> >, std::allocator<std::basic_string<char, std::char_traits<char>, std::allocator<char> > > >::_Vector_base
FUNC f3c8 7d 0 std::_Vector_base<std::basic_string<char, std::char_traits<char>, std::allocator<char> >, std::allocator<std::basic_string<char, std::char_traits<char>, std::allocator<char> > > >::~_Vector_base
FUNC f446 e 0 std::_Vector_base<std::basic_string<char, std::char_traits<char>, std::allocator<char> >, std::allocator<std::basic_string<char, std::char_traits<char>, std::allocator<char> > > >::_M_get_Tp_allocator
FUNC f454 29 0 std::_Destroy<std::basic_string<char, std::char_traits<char>, std::allocator<char> >*, std::basic_string<char, std::char_traits<char>, std::allocator<char> > >
FUNC f47e 44 0 std::vector<short unsigned int, std::allocator<short unsigned int> >::_M_erase_at_end
FUNC f4c2 44 0 std::vector<std::basic_string<char, std::char_traits<char>, std::allocator<char> >, std::allocator<std::basic_string<char, std::char_traits<char>, std::allocator<char> > > >::_M_erase_at_end
FUNC f506 8d 0 std::_Rb_tree<std::basic_string<char, std::char_traits<char>, std::allocator<char> >, std::pair<const std::basic_string<char, std::char_traits<char>, std::allocator<char> >, std::basic_string<char, std::char_traits<char>, std::allocator<char> > >, std::_Select1st<std::pair<const std::basic_string<char, std::char_traits<char>, std::allocator<char> >, std::basic_string<char, std::char_traits<char>, std::allocator<char> > > >, std::less<std::basic_string<char, std::char_traits<char>, std::allocator<char> > >, std::allocator<std::pair<const std::basic_string<char, std::char_traits<char>, std::allocator<char> >, std::basic_string<char, std::char_traits<char>, std::allocator<char> > > > >::clear
FUNC f594 25 0 std::map<std::basic_string<char, std::char_traits<char>, std::allocator<char> >, std::basic_string<char, std::char_traits<char>, std::allocator<char> >, std::less<std::basic_string<char, std::char_traits<char>, std::allocator<char> > >, std::allocator<std::pair<const std::basic_string<char, std::char_traits<char>, std::allocator<char> >, std::basic_string<char, std::char_traits<char>, std::allocator<char> > > > >::lower_bound
FUNC f5ba 1a 0 std::map<std::basic_string<char, std::char_traits<char>, std::allocator<char> >, std::basic_string<char, std::char_traits<char>, std::allocator<char> >, std::less<std::basic_string<char, std::char_traits<char>, std::allocator<char> > >, std::allocator<std::pair<const std::basic_string<char, std::char_traits<char>, std::allocator<char> >, std::basic_string<char, std::char_traits<char>, std::allocator<char> > > > >::key_comp
FUNC f5d4 15 0 std::_Rb_tree_iterator<std::pair<const std::basic_string<char, std::char_traits<char>, std::allocator<char> >, std::basic_string<char, std::char_traits<char>, std::allocator<char> > > >::operator*
FUNC f5ea 29 0 std::less<std::basic_string<char, std::char_traits<char>, std::allocator<char> > >::operator()
FUNC f614 22 0 std::_Rb_tree_iterator<std::pair<const std::basic_string<char, std::char_traits<char>, std::allocator<char> >, std::basic_string<char, std::char_traits<char>, std::allocator<char> > > >::operator==
FUNC f636 6b 0 std::pair<const std::basic_string<char, std::char_traits<char>, std::allocator<char> >, std::basic_string<char, std::char_traits<char>, std::allocator<char> > >::pair
FUNC f6a2 40 0 std::map<std::basic_string<char, std::char_traits<char>, std::allocator<char> >, std::basic_string<char, std::char_traits<char>, std::allocator<char> >, std::less<std::basic_string<char, std::char_traits<char>, std::allocator<char> > >, std::allocator<std::pair<const std::basic_string<char, std::char_traits<char>, std::allocator<char> >, std::basic_string<char, std::char_traits<char>, std::allocator<char> > > > >::insert
FUNC f6e2 b6 0 std::_Rb_tree<std::basic_string<char, std::char_traits<char>, std::allocator<char> >, std::pair<const std::basic_string<char, std::char_traits<char>, std::allocator<char> >, std::basic_string<char, std::char_traits<char>, std::allocator<char> > >, std::_Select1st<std::pair<const std::basic_string<char, std::char_traits<char>, std::allocator<char> >, std::basic_string<char, std::char_traits<char>, std::allocator<char> > > >, std::less<std::basic_string<char, std::char_traits<char>, std::allocator<char> > >, std::allocator<std::pair<const std::basic_string<char, std::char_traits<char>, std::allocator<char> >, std::basic_string<char, std::char_traits<char>, std::allocator<char> > > > >::find
FUNC f798 2c 0 std::_Rb_tree<std::basic_string<char, std::char_traits<char>, std::allocator<char> >, std::pair<const std::basic_string<char, std::char_traits<char>, std::allocator<char> >, std::basic_string<char, std::char_traits<char>, std::allocator<char> > >, std::_Select1st<std::pair<const std::basic_string<char, std::char_traits<char>, std::allocator<char> >, std::basic_string<char, std::char_traits<char>, std::allocator<char> > > >, std::less<std::basic_string<char, std::char_traits<char>, std::allocator<char> > >, std::allocator<std::pair<const std::basic_string<char, std::char_traits<char>, std::allocator<char> >, std::basic_string<char, std::char_traits<char>, std::allocator<char> > > > >::end
FUNC f7c4 1c 0 __gnu_cxx::__normal_iterator<std::basic_string<char, std::char_traits<char>, std::allocator<char> >*, std::vector<std::basic_string<char, std::char_traits<char>, std::allocator<char> >, std::allocator<std::basic_string<char, std::char_traits<char>, std::allocator<char> > > > >::__normal_iterator
FUNC f7e0 e 0 __gnu_cxx::__normal_iterator<std::basic_string<char, std::char_traits<char>, std::allocator<char> >*, std::vector<std::basic_string<char, std::char_traits<char>, std::allocator<char> >, std::allocator<std::basic_string<char, std::char_traits<char>, std::allocator<char> > > > >::base
FUNC f7ee e 0 __gnu_cxx::__normal_iterator<const std::basic_string<char, std::char_traits<char>, std::allocator<char> >*, std::vector<std::basic_string<char, std::char_traits<char>, std::allocator<char> >, std::allocator<std::basic_string<char, std::char_traits<char>, std::allocator<char> > > > >::base
FUNC f7fc 39 0 __gnu_cxx::new_allocator<short unsigned int>::construct
FUNC f836 2e5 0 std::vector<short unsigned int, std::allocator<short unsigned int> >::_M_insert_aux
FUNC fb1c 29 0 std::vector<short unsigned int, std::allocator<short unsigned int> >::end
FUNC fb46 31 0 std::vector<short unsigned int, std::allocator<short unsigned int> >::end
FUNC fb78 30 0 std::vector<short unsigned int, std::allocator<short unsigned int> >::begin
FUNC fba8 3c 0 __gnu_cxx::operator==<const short unsigned int*, std::vector<short unsigned int, std::allocator<short unsigned int> > >
FUNC fbe4 29 0 std::vector<std::basic_string<char, std::char_traits<char>, std::allocator<char> >, std::allocator<std::basic_string<char, std::char_traits<char>, std::allocator<char> > > >::capacity
FUNC fc0e 30 0 std::vector<std::basic_string<char, std::char_traits<char>, std::allocator<char> >, std::allocator<std::basic_string<char, std::char_traits<char>, std::allocator<char> > > >::begin
FUNC fc3e 31 0 std::vector<std::basic_string<char, std::char_traits<char>, std::allocator<char> >, std::allocator<std::basic_string<char, std::char_traits<char>, std::allocator<char> > > >::end
FUNC fc70 a1 0 std::vector<std::basic_string<char, std::char_traits<char>, std::allocator<char> >, std::allocator<std::basic_string<char, std::char_traits<char>, std::allocator<char> > > >::_M_allocate_and_copy<__gnu_cxx::__normal_iterator<const std::basic_string<char, std::char_traits<char>, std::allocator<char> >*, std::vector<std::basic_string<char, std::char_traits<char>, std::allocator<char> >, std::allocator<std::basic_string<char, std::char_traits<char>, std::allocator<char> > > > > >
FUNC fd12 34 0 std::_Vector_base<std::basic_string<char, std::char_traits<char>, std::allocator<char> >, std::allocator<std::basic_string<char, std::char_traits<char>, std::allocator<char> > > >::_M_deallocate
FUNC fd46 46 0 std::copy<__gnu_cxx::__normal_iterator<const std::basic_string<char, std::char_traits<char>, std::allocator<char> >*, std::vector<std::basic_string<char, std::char_traits<char>, std::allocator<char> >, std::allocator<std::basic_string<char, std::char_traits<char>, std::allocator<char> > > > >, __gnu_cxx::__normal_iterator<std::basic_string<char, std::char_traits<char>, std::allocator<char> >*, std::vector<std::basic_string<char, std::char_traits<char>, std::allocator<char> >, std::allocator<std::basic_string<char, std::char_traits<char>, std::allocator<char> > > > > >
FUNC fd8c 29 0 std::_Destroy<__gnu_cxx::__normal_iterator<std::basic_string<char, std::char_traits<char>, std::allocator<char> >*, std::vector<std::basic_string<char, std::char_traits<char>, std::allocator<char> >, std::allocator<std::basic_string<char, std::char_traits<char>, std::allocator<char> > > > >, std::basic_string<char, std::char_traits<char>, std::allocator<char> > >
FUNC fdb5 46 0 std::copy<std::basic_string<char, std::char_traits<char>, std::allocator<char> >*, std::basic_string<char, std::char_traits<char>, std::allocator<char> >*>
FUNC fdfb 31 0 std::__uninitialized_copy_a<std::basic_string<char, std::char_traits<char>, std::allocator<char> >*, std::basic_string<char, std::char_traits<char>, std::allocator<char> >*, std::basic_string<char, std::char_traits<char>, std::allocator<char> > >
FUNC fe2c 77 0 __gnu_cxx::new_allocator<std::basic_string<char, std::char_traits<char>, std::allocator<char> > >::construct
FUNC fea4 326 0 std::vector<std::basic_string<char, std::char_traits<char>, std::allocator<char> >, std::allocator<std::basic_string<char, std::char_traits<char>, std::allocator<char> > > >::_M_insert_aux
FUNC 101ca e 0 std::_Vector_base<std::basic_string<char, std::char_traits<char>, std::allocator<char> >, std::allocator<std::basic_string<char, std::char_traits<char>, std::allocator<char> > > >::_M_get_Tp_allocator
FUNC 101d8 31 0 std::__uninitialized_copy_a<__gnu_cxx::__normal_iterator<const std::basic_string<char, std::char_traits<char>, std::allocator<char> >*, std::vector<std::basic_string<char, std::char_traits<char>, std::allocator<char> >, std::allocator<std::basic_string<char, std::char_traits<char>, std::allocator<char> > > > >, std::basic_string<char, std::char_traits<char>, std::allocator<char> >*, std::basic_string<char, std::char_traits<char>, std::allocator<char> > >
FUNC 1020a 12 0 std::_Rb_tree<std::basic_string<char, std::char_traits<char>, std::allocator<char> >, std::pair<const std::basic_string<char, std::char_traits<char>, std::allocator<char> >, std::basic_string<char, std::char_traits<char>, std::allocator<char> > >, std::_Select1st<std::pair<const std::basic_string<char, std::char_traits<char>, std::allocator<char> >, std::basic_string<char, std::char_traits<char>, std::allocator<char> > > >, std::less<std::basic_string<char, std::char_traits<char>, std::allocator<char> > >, std::allocator<std::pair<const std::basic_string<char, std::char_traits<char>, std::allocator<char> >, std::basic_string<char, std::char_traits<char>, std::allocator<char> > > > >::_M_end
FUNC 1021c 12 0 std::_Rb_tree<std::basic_string<char, std::char_traits<char>, std::allocator<char> >, std::pair<const std::basic_string<char, std::char_traits<char>, std::allocator<char> >, std::basic_string<char, std::char_traits<char>, std::allocator<char> > >, std::_Select1st<std::pair<const std::basic_string<char, std::char_traits<char>, std::allocator<char> >, std::basic_string<char, std::char_traits<char>, std::allocator<char> > > >, std::less<std::basic_string<char, std::char_traits<char>, std::allocator<char> > >, std::allocator<std::pair<const std::basic_string<char, std::char_traits<char>, std::allocator<char> >, std::basic_string<char, std::char_traits<char>, std::allocator<char> > > > >::_M_root
FUNC 1022e 12 0 std::_Rb_tree<std::basic_string<char, std::char_traits<char>, std::allocator<char> >, std::pair<const std::basic_string<char, std::char_traits<char>, std::allocator<char> >, std::basic_string<char, std::char_traits<char>, std::allocator<char> > >, std::_Select1st<std::pair<const std::basic_string<char, std::char_traits<char>, std::allocator<char> >, std::basic_string<char, std::char_traits<char>, std::allocator<char> > > >, std::less<std::basic_string<char, std::char_traits<char>, std::allocator<char> > >, std::allocator<std::pair<const std::basic_string<char, std::char_traits<char>, std::allocator<char> >, std::basic_string<char, std::char_traits<char>, std::allocator<char> > > > >::_M_leftmost
FUNC 10240 12 0 std::_Rb_tree<std::basic_string<char, std::char_traits<char>, std::allocator<char> >, std::pair<const std::basic_string<char, std::char_traits<char>, std::allocator<char> >, std::basic_string<char, std::char_traits<char>, std::allocator<char> > >, std::_Select1st<std::pair<const std::basic_string<char, std::char_traits<char>, std::allocator<char> >, std::basic_string<char, std::char_traits<char>, std::allocator<char> > > >, std::less<std::basic_string<char, std::char_traits<char>, std::allocator<char> > >, std::allocator<std::pair<const std::basic_string<char, std::char_traits<char>, std::allocator<char> >, std::basic_string<char, std::char_traits<char>, std::allocator<char> > > > >::_M_rightmost
FUNC 10252 8c 0 std::_Rb_tree<std::basic_string<char, std::char_traits<char>, std::allocator<char> >, std::pair<const std::basic_string<char, std::char_traits<char>, std::allocator<char> >, std::basic_string<char, std::char_traits<char>, std::allocator<char> > >, std::_Select1st<std::pair<const std::basic_string<char, std::char_traits<char>, std::allocator<char> >, std::basic_string<char, std::char_traits<char>, std::allocator<char> > > >, std::less<std::basic_string<char, std::char_traits<char>, std::allocator<char> > >, std::allocator<std::pair<const std::basic_string<char, std::char_traits<char>, std::allocator<char> >, std::basic_string<char, std::char_traits<char>, std::allocator<char> > > > >::_Rb_tree_impl<std::less<std::basic_string<char, std::char_traits<char>, std::allocator<char> > >, false>::_Rb_tree_impl
FUNC 102de a 0 __gnu_cxx::new_allocator<std::_Rb_tree_node<std::pair<const std::basic_string<char, std::char_traits<char>, std::allocator<char> >, std::basic_string<char, std::char_traits<char>, std::allocator<char> > > > >::~new_allocator
FUNC 102e8 12 0 std::_Rb_tree<std::basic_string<char, std::char_traits<char>, std::allocator<char> >, std::pair<const std::basic_string<char, std::char_traits<char>, std::allocator<char> >, std::basic_string<char, std::char_traits<char>, std::allocator<char> > >, std::_Select1st<std::pair<const std::basic_string<char, std::char_traits<char>, std::allocator<char> >, std::basic_string<char, std::char_traits<char>, std::allocator<char> > > >, std::less<std::basic_string<char, std::char_traits<char>, std::allocator<char> > >, std::allocator<std::pair<const std::basic_string<char, std::char_traits<char>, std::allocator<char> >, std::basic_string<char, std::char_traits<char>, std::allocator<char> > > > >::_S_right
FUNC 102fa 12 0 std::_Rb_tree<std::basic_string<char, std::char_traits<char>, std::allocator<char> >, std::pair<const std::basic_string<char, std::char_traits<char>, std::allocator<char> >, std::basic_string<char, std::char_traits<char>, std::allocator<char> > >, std::_Select1st<std::pair<const std::basic_string<char, std::char_traits<char>, std::allocator<char> >, std::basic_string<char, std::char_traits<char>, std::allocator<char> > > >, std::less<std::basic_string<char, std::char_traits<char>, std::allocator<char> > >, std::allocator<std::pair<const std::basic_string<char, std::char_traits<char>, std::allocator<char> >, std::basic_string<char, std::char_traits<char>, std::allocator<char> > > > >::_S_left
FUNC 1030c 86 0 std::_Rb_tree<std::basic_string<char, std::char_traits<char>, std::allocator<char> >, std::pair<const std::basic_string<char, std::char_traits<char>, std::allocator<char> >, std::basic_string<char, std::char_traits<char>, std::allocator<char> > >, std::_Select1st<std::pair<const std::basic_string<char, std::char_traits<char>, std::allocator<char> >, std::basic_string<char, std::char_traits<char>, std::allocator<char> > > >, std::less<std::basic_string<char, std::char_traits<char>, std::allocator<char> > >, std::allocator<std::pair<const std::basic_string<char, std::char_traits<char>, std::allocator<char> >, std::basic_string<char, std::char_traits<char>, std::allocator<char> > > > >::_M_destroy_node
FUNC 10392 3d 0 std::_Vector_base<short unsigned int, std::allocator<short unsigned int> >::_Vector_impl::_Vector_impl
FUNC 103d0 1a 0 std::allocator<short unsigned int>::~allocator
FUNC 103ea 34 0 std::_Vector_base<short unsigned int, std::allocator<short unsigned int> >::_M_deallocate
FUNC 1041e 25 0 std::_Destroy<short unsigned int*>
FUNC 10444 3d 0 std::_Vector_base<std::basic_string<char, std::char_traits<char>, std::allocator<char> >, std::allocator<std::basic_string<char, std::char_traits<char>, std::allocator<char> > > >::_Vector_impl::_Vector_impl
FUNC 10482 1a 0 std::allocator<std::basic_string<char, std::char_traits<char>, std::allocator<char> > >::~allocator
FUNC 1049c 25 0 std::_Destroy<std::basic_string<char, std::char_traits<char>, std::allocator<char> >*>
FUNC 104c2 53 0 std::_Rb_tree<std::basic_string<char, std::char_traits<char>, std::allocator<char> >, std::pair<const std::basic_string<char, std::char_traits<char>, std::allocator<char> >, std::basic_string<char, std::char_traits<char>, std::allocator<char> > >, std::_Select1st<std::pair<const std::basic_string<char, std::char_traits<char>, std::allocator<char> >, std::basic_string<char, std::char_traits<char>, std::allocator<char> > > >, std::less<std::basic_string<char, std::char_traits<char>, std::allocator<char> > >, std::allocator<std::pair<const std::basic_string<char, std::char_traits<char>, std::allocator<char> >, std::basic_string<char, std::char_traits<char>, std::allocator<char> > > > >::lower_bound
FUNC 10516 a 0 std::_Rb_tree<std::basic_string<char, std::char_traits<char>, std::allocator<char> >, std::pair<const std::basic_string<char, std::char_traits<char>, std::allocator<char> >, std::basic_string<char, std::char_traits<char>, std::allocator<char> > >, std::_Select1st<std::pair<const std::basic_string<char, std::char_traits<char>, std::allocator<char> >, std::basic_string<char, std::char_traits<char>, std::allocator<char> > > >, std::less<std::basic_string<char, std::char_traits<char>, std::allocator<char> > >, std::allocator<std::pair<const std::basic_string<char, std::char_traits<char>, std::allocator<char> >, std::basic_string<char, std::char_traits<char>, std::allocator<char> > > > >::key_comp
FUNC 10520 28 0 std::operator< <char, std::char_traits<char>, std::allocator<char> >
FUNC 10548 4c0 0 std::_Rb_tree<std::basic_string<char, std::char_traits<char>, std::allocator<char> >, std::pair<const std::basic_string<char, std::char_traits<char>, std::allocator<char> >, std::basic_string<char, std::char_traits<char>, std::allocator<char> > >, std::_Select1st<std::pair<const std::basic_string<char, std::char_traits<char>, std::allocator<char> >, std::basic_string<char, std::char_traits<char>, std::allocator<char> > > >, std::less<std::basic_string<char, std::char_traits<char>, std::allocator<char> > >, std::allocator<std::pair<const std::basic_string<char, std::char_traits<char>, std::allocator<char> >, std::basic_string<char, std::char_traits<char>, std::allocator<char> > > > >::_M_insert_unique_
FUNC 10a08 92 0 std::_Rb_tree<std::basic_string<char, std::char_traits<char>, std::allocator<char> >, std::pair<const std::basic_string<char, std::char_traits<char>, std::allocator<char> >, std::basic_string<char, std::char_traits<char>, std::allocator<char> > >, std::_Select1st<std::pair<const std::basic_string<char, std::char_traits<char>, std::allocator<char> >, std::basic_string<char, std::char_traits<char>, std::allocator<char> > > >, std::less<std::basic_string<char, std::char_traits<char>, std::allocator<char> > >, std::allocator<std::pair<const std::basic_string<char, std::char_traits<char>, std::allocator<char> >, std::basic_string<char, std::char_traits<char>, std::allocator<char> > > > >::_M_lower_bound
FUNC 10a9a 2c 0 std::_Rb_tree<std::basic_string<char, std::char_traits<char>, std::allocator<char> >, std::pair<const std::basic_string<char, std::char_traits<char>, std::allocator<char> >, std::basic_string<char, std::char_traits<char>, std::allocator<char> > >, std::_Select1st<std::pair<const std::basic_string<char, std::char_traits<char>, std::allocator<char> >, std::basic_string<char, std::char_traits<char>, std::allocator<char> > > >, std::less<std::basic_string<char, std::char_traits<char>, std::allocator<char> > >, std::allocator<std::pair<const std::basic_string<char, std::char_traits<char>, std::allocator<char> >, std::basic_string<char, std::char_traits<char>, std::allocator<char> > > > >::_S_key
FUNC 10ac6 19 0 std::_Rb_tree_iterator<std::pair<const std::basic_string<char, std::char_traits<char>, std::allocator<char> >, std::basic_string<char, std::char_traits<char>, std::allocator<char> > > >::_Rb_tree_iterator
FUNC 10ae0 e 0 __gnu_cxx::__normal_iterator<short unsigned int*, std::vector<short unsigned int, std::allocator<short unsigned int> > >::base
FUNC 10aee 46 0 std::copy_backward<short unsigned int*, short unsigned int*>
FUNC 10b34 11 0 __gnu_cxx::__normal_iterator<short unsigned int*, std::vector<short unsigned int, std::allocator<short unsigned int> > >::operator*
FUNC 10b46 ca 0 std::vector<short unsigned int, std::allocator<short unsigned int> >::_M_check_len
FUNC 10c10 25 0 std::vector<short unsigned int, std::allocator<short unsigned int> >::begin
FUNC 10c35 45 0 __gnu_cxx::operator-<short unsigned int*, std::vector<short unsigned int, std::allocator<short unsigned int> > >
FUNC 10c7a 38 0 std::_Vector_base<short unsigned int, std::allocator<short unsigned int> >::_M_allocate
FUNC 10cb2 3b 0 std::__uninitialized_move_a<short unsigned int*, short unsigned int*, std::allocator<short unsigned int> >
FUNC 10cee e 0 __gnu_cxx::new_allocator<short unsigned int>::destroy
FUNC 10cfc 1c 0 __gnu_cxx::__normal_iterator<short unsigned int*, std::vector<short unsigned int, std::allocator<short unsigned int> > >::__normal_iterator
FUNC 10d18 1c 0 __gnu_cxx::__normal_iterator<const short unsigned int*, std::vector<short unsigned int, std::allocator<short unsigned int> > >::__normal_iterator
FUNC 10d34 e 0 __gnu_cxx::__normal_iterator<const short unsigned int*, std::vector<short unsigned int, std::allocator<short unsigned int> > >::base
FUNC 10d42 1c 0 __gnu_cxx::__normal_iterator<const std::basic_string<char, std::char_traits<char>, std::allocator<char> >*, std::vector<std::basic_string<char, std::char_traits<char>, std::allocator<char> >, std::allocator<std::basic_string<char, std::char_traits<char>, std::allocator<char> > > > >::__normal_iterator
FUNC 10d5e 38 0 std::_Vector_base<std::basic_string<char, std::char_traits<char>, std::allocator<char> >, std::allocator<std::basic_string<char, std::char_traits<char>, std::allocator<char> > > >::_M_allocate
FUNC 10d96 22 0 __gnu_cxx::new_allocator<std::basic_string<char, std::char_traits<char>, std::allocator<char> > >::deallocate
FUNC 10db8 e 0 std::__miter_base<__gnu_cxx::__normal_iterator<const std::basic_string<char, std::char_traits<char>, std::allocator<char> >*, std::vector<std::basic_string<char, std::char_traits<char>, std::allocator<char> >, std::allocator<std::basic_string<char, std::char_traits<char>, std::allocator<char> > > > >, false>::__b
FUNC 10dc6 73 0 std::__copy_move_a2<false, __gnu_cxx::__normal_iterator<const std::basic_string<char, std::char_traits<char>, std::allocator<char> >*, std::vector<std::basic_string<char, std::char_traits<char>, std::allocator<char> >, std::allocator<std::basic_string<char, std::char_traits<char>, std::allocator<char> > > > >, __gnu_cxx::__normal_iterator<std::basic_string<char, std::char_traits<char>, std::allocator<char> >*, std::vector<std::basic_string<char, std::char_traits<char>, std::allocator<char> >, std::allocator<std::basic_string<char, std::char_traits<char>, std::allocator<char> > > > > >
FUNC 10e39 25 0 std::_Destroy<__gnu_cxx::__normal_iterator<std::basic_string<char, std::char_traits<char>, std::allocator<char> >*, std::vector<std::basic_string<char, std::char_traits<char>, std::allocator<char> >, std::allocator<std::basic_string<char, std::char_traits<char>, std::allocator<char> > > > > >
FUNC 10e5e e 0 std::__miter_base<std::basic_string<char, std::char_traits<char>, std::allocator<char> >*, false>::__b
FUNC 10e6c 58 0 std::__copy_move_a2<false, std::basic_string<char, std::char_traits<char>, std::allocator<char> >*, std::basic_string<char, std::char_traits<char>, std::allocator<char> >*>
FUNC 10ec4 2d 0 std::uninitialized_copy<std::basic_string<char, std::char_traits<char>, std::allocator<char> >*, std::basic_string<char, std::char_traits<char>, std::allocator<char> >*>
FUNC 10ef1 46 0 std::copy_backward<std::basic_string<char, std::char_traits<char>, std::allocator<char> >*, std::basic_string<char, std::char_traits<char>, std::allocator<char> >*>
FUNC 10f38 11 0 __gnu_cxx::__normal_iterator<std::basic_string<char, std::char_traits<char>, std::allocator<char> >*, std::vector<std::basic_string<char, std::char_traits<char>, std::allocator<char> >, std::allocator<std::basic_string<char, std::char_traits<char>, std::allocator<char> > > > >::operator*
FUNC 10f4a ca 0 std::vector<std::basic_string<char, std::char_traits<char>, std::allocator<char> >, std::allocator<std::basic_string<char, std::char_traits<char>, std::allocator<char> > > >::_M_check_len
FUNC 11014 46 0 __gnu_cxx::operator-<std::basic_string<char, std::char_traits<char>, std::allocator<char> >*, std::vector<std::basic_string<char, std::char_traits<char>, std::allocator<char> >, std::allocator<std::basic_string<char, std::char_traits<char>, std::allocator<char> > > > >
FUNC 1105a 3b 0 std::__uninitialized_move_a<std::basic_string<char, std::char_traits<char>, std::allocator<char> >*, std::basic_string<char, std::char_traits<char>, std::allocator<char> >*, std::allocator<std::basic_string<char, std::char_traits<char>, std::allocator<char> > > >
FUNC 11096 1e 0 __gnu_cxx::new_allocator<std::basic_string<char, std::char_traits<char>, std::allocator<char> > >::destroy
FUNC 110b4 2d 0 std::uninitialized_copy<__gnu_cxx::__normal_iterator<const std::basic_string<char, std::char_traits<char>, std::allocator<char> >*, std::vector<std::basic_string<char, std::char_traits<char>, std::allocator<char> >, std::allocator<std::basic_string<char, std::char_traits<char>, std::allocator<char> > > > >, std::basic_string<char, std::char_traits<char>, std::allocator<char> >*>
FUNC 110e1 12 0 std::_Rb_tree<std::basic_string<char, std::char_traits<char>, std::allocator<char> >, std::pair<const std::basic_string<char, std::char_traits<char>, std::allocator<char> >, std::basic_string<char, std::char_traits<char>, std::allocator<char> > >, std::_Select1st<std::pair<const std::basic_string<char, std::char_traits<char>, std::allocator<char> >, std::basic_string<char, std::char_traits<char>, std::allocator<char> > > >, std::less<std::basic_string<char, std::char_traits<char>, std::allocator<char> > >, std::allocator<std::pair<const std::basic_string<char, std::char_traits<char>, std::allocator<char> >, std::basic_string<char, std::char_traits<char>, std::allocator<char> > > > >::_S_right
FUNC 110f4 1a 0 std::allocator<std::_Rb_tree_node<std::pair<const std::basic_string<char, std::char_traits<char>, std::allocator<char> >, std::basic_string<char, std::char_traits<char>, std::allocator<char> > > > >::allocator
FUNC 1110e 41 0 std::_Rb_tree<std::basic_string<char, std::char_traits<char>, std::allocator<char> >, std::pair<const std::basic_string<char, std::char_traits<char>, std::allocator<char> >, std::basic_string<char, std::char_traits<char>, std::allocator<char> > >, std::_Select1st<std::pair<const std::basic_string<char, std::char_traits<char>, std::allocator<char> >, std::basic_string<char, std::char_traits<char>, std::allocator<char> > > >, std::less<std::basic_string<char, std::char_traits<char>, std::allocator<char> > >, std::allocator<std::pair<const std::basic_string<char, std::char_traits<char>, std::allocator<char> >, std::basic_string<char, std::char_traits<char>, std::allocator<char> > > > >::_Rb_tree_impl<std::less<std::basic_string<char, std::char_traits<char>, std::allocator<char> > >, false>::_M_initialize
FUNC 11150 3b 0 std::_Rb_tree<std::basic_string<char, std::char_traits<char>, std::allocator<char> >, std::pair<const std::basic_string<char, std::char_traits<char>, std::allocator<char> >, std::basic_string<char, std::char_traits<char>, std::allocator<char> > >, std::_Select1st<std::pair<const std::basic_string<char, std::char_traits<char>, std::allocator<char> >, std::basic_string<char, std::char_traits<char>, std::allocator<char> > > >, std::less<std::basic_string<char, std::char_traits<char>, std::allocator<char> > >, std::allocator<std::pair<const std::basic_string<char, std::char_traits<char>, std::allocator<char> >, std::basic_string<char, std::char_traits<char>, std::allocator<char> > > > >::get_allocator
FUNC 1118c 1a 0 std::allocator<std::pair<const std::basic_string<char, std::char_traits<char>, std::allocator<char> >, std::basic_string<char, std::char_traits<char>, std::allocator<char> > > >::~allocator
FUNC 111a6 1e 0 __gnu_cxx::new_allocator<std::pair<const std::basic_string<char, std::char_traits<char>, std::allocator<char> >, std::basic_string<char, std::char_traits<char>, std::allocator<char> > > >::destroy
FUNC 111c4 2a 0 std::_Rb_tree<std::basic_string<char, std::char_traits<char>, std::allocator<char> >, std::pair<const std::basic_string<char, std::char_traits<char>, std::allocator<char> >, std::basic_string<char, std::char_traits<char>, std::allocator<char> > >, std::_Select1st<std::pair<const std::basic_string<char, std::char_traits<char>, std::allocator<char> >, std::basic_string<char, std::char_traits<char>, std::allocator<char> > > >, std::less<std::basic_string<char, std::char_traits<char>, std::allocator<char> > >, std::allocator<std::pair<const std::basic_string<char, std::char_traits<char>, std::allocator<char> >, std::basic_string<char, std::char_traits<char>, std::allocator<char> > > > >::_M_put_node
FUNC 111ee 1a 0 std::allocator<short unsigned int>::allocator
FUNC 11208 a 0 __gnu_cxx::new_allocator<short unsigned int>::~new_allocator
FUNC 11212 22 0 __gnu_cxx::new_allocator<short unsigned int>::deallocate
FUNC 11234 e 0 std::_Destroy_aux<true>::__destroy<short unsigned int*>
FUNC 11242 1a 0 std::allocator<std::basic_string<char, std::char_traits<char>, std::allocator<char> > >::allocator
FUNC 1125c a 0 __gnu_cxx::new_allocator<std::basic_string<char, std::char_traits<char>, std::allocator<char> > >::~new_allocator
FUNC 11266 34 0 std::_Destroy_aux<false>::__destroy<std::basic_string<char, std::char_traits<char>, std::allocator<char> >*>
FUNC 1129a 12 0 std::_Select1st<std::pair<const std::basic_string<char, std::char_traits<char>, std::allocator<char> >, std::basic_string<char, std::char_traits<char>, std::allocator<char> > > >::operator()
FUNC 112ac 12 0 std::_Rb_tree<std::basic_string<char, std::char_traits<char>, std::allocator<char> >, std::pair<const std::basic_string<char, std::char_traits<char>, std::allocator<char> >, std::basic_string<char, std::char_traits<char>, std::allocator<char> > >, std::_Select1st<std::pair<const std::basic_string<char, std::char_traits<char>, std::allocator<char> >, std::basic_string<char, std::char_traits<char>, std::allocator<char> > > >, std::less<std::basic_string<char, std::char_traits<char>, std::allocator<char> > >, std::allocator<std::pair<const std::basic_string<char, std::char_traits<char>, std::allocator<char> >, std::basic_string<char, std::char_traits<char>, std::allocator<char> > > > >::size
FUNC 112be e3 0 std::_Rb_tree<std::basic_string<char, std::char_traits<char>, std::allocator<char> >, std::pair<const std::basic_string<char, std::char_traits<char>, std::allocator<char> >, std::basic_string<char, std::char_traits<char>, std::allocator<char> > >, std::_Select1st<std::pair<const std::basic_string<char, std::char_traits<char>, std::allocator<char> >, std::basic_string<char, std::char_traits<char>, std::allocator<char> > > >, std::less<std::basic_string<char, std::char_traits<char>, std::allocator<char> > >, std::allocator<std::pair<const std::basic_string<char, std::char_traits<char>, std::allocator<char> >, std::basic_string<char, std::char_traits<char>, std::allocator<char> > > > >::_M_insert_
FUNC 113a2 271 0 std::_Rb_tree<std::basic_string<char, std::char_traits<char>, std::allocator<char> >, std::pair<const std::basic_string<char, std::char_traits<char>, std::allocator<char> >, std::basic_string<char, std::char_traits<char>, std::allocator<char> > >, std::_Select1st<std::pair<const std::basic_string<char, std::char_traits<char>, std::allocator<char> >, std::basic_string<char, std::char_traits<char>, std::allocator<char> > > >, std::less<std::basic_string<char, std::char_traits<char>, std::allocator<char> > >, std::allocator<std::pair<const std::basic_string<char, std::char_traits<char>, std::allocator<char> >, std::basic_string<char, std::char_traits<char>, std::allocator<char> > > > >::_M_insert_unique
FUNC 11614 28 0 std::_Rb_tree_const_iterator<std::pair<const std::basic_string<char, std::char_traits<char>, std::allocator<char> >, std::basic_string<char, std::char_traits<char>, std::allocator<char> > > >::operator--
FUNC 1163c 28 0 std::_Rb_tree_const_iterator<std::pair<const std::basic_string<char, std::char_traits<char>, std::allocator<char> >, std::basic_string<char, std::char_traits<char>, std::allocator<char> > > >::operator++
FUNC 11664 2c 0 std::_Rb_tree<std::basic_string<char, std::char_traits<char>, std::allocator<char> >, std::pair<const std::basic_string<char, std::char_traits<char>, std::allocator<char> >, std::basic_string<char, std::char_traits<char>, std::allocator<char> > >, std::_Select1st<std::pair<const std::basic_string<char, std::char_traits<char>, std::allocator<char> >, std::basic_string<char, std::char_traits<char>, std::allocator<char> > > >, std::less<std::basic_string<char, std::char_traits<char>, std::allocator<char> > >, std::allocator<std::pair<const std::basic_string<char, std::char_traits<char>, std::allocator<char> >, std::basic_string<char, std::char_traits<char>, std::allocator<char> > > > >::_S_key
FUNC 11690 12 0 std::_Rb_tree<std::basic_string<char, std::char_traits<char>, std::allocator<char> >, std::pair<const std::basic_string<char, std::char_traits<char>, std::allocator<char> >, std::basic_string<char, std::char_traits<char>, std::allocator<char> > >, std::_Select1st<std::pair<const std::basic_string<char, std::char_traits<char>, std::allocator<char> >, std::basic_string<char, std::char_traits<char>, std::allocator<char> > > >, std::less<std::basic_string<char, std::char_traits<char>, std::allocator<char> > >, std::allocator<std::pair<const std::basic_string<char, std::char_traits<char>, std::allocator<char> >, std::basic_string<char, std::char_traits<char>, std::allocator<char> > > > >::_S_value
FUNC 116a2 e 0 std::__miter_base<short unsigned int*, false>::__b
FUNC 116b0 58 0 std::__copy_move_backward_a2<false, short unsigned int*, short unsigned int*>
FUNC 11708 28 0 std::vector<short unsigned int, std::allocator<short unsigned int> >::size
FUNC 11730 22 0 std::vector<short unsigned int, std::allocator<short unsigned int> >::max_size
FUNC 11752 2b 0 std::max<size_t>
FUNC 1177e 4a 0 __gnu_cxx::new_allocator<short unsigned int>::allocate
FUNC 117c8 31 0 std::__uninitialized_copy_a<short unsigned int*, short unsigned int*, short unsigned int>
FUNC 117fa 4b 0 __gnu_cxx::new_allocator<std::basic_string<char, std::char_traits<char>, std::allocator<char> > >::allocate
FUNC 11845 1d 0 std::__niter_base<__gnu_cxx::__normal_iterator<const std::basic_string<char, std::char_traits<char>, std::allocator<char> >*, std::vector<std::basic_string<char, std::char_traits<char>, std::allocator<char> >, std::allocator<std::basic_string<char, std::char_traits<char>, std::allocator<char> > > > >, true>::__b
FUNC 11862 1d 0 std::__niter_base<__gnu_cxx::__normal_iterator<std::basic_string<char, std::char_traits<char>, std::allocator<char> >*, std::vector<std::basic_string<char, std::char_traits<char>, std::allocator<char> >, std::allocator<std::basic_string<char, std::char_traits<char>, std::allocator<char> > > > >, true>::__b
FUNC 1187f 31 0 std::__copy_move_a<false, const std::basic_string<char, std::char_traits<char>, std::allocator<char> >*, std::basic_string<char, std::char_traits<char>, std::allocator<char> >*>
FUNC 118b0 4b 0 std::_Destroy_aux<false>::__destroy<__gnu_cxx::__normal_iterator<std::basic_string<char, std::char_traits<char>, std::allocator<char> >*, std::vector<std::basic_string<char, std::char_traits<char>, std::allocator<char> >, std::allocator<std::basic_string<char, std::char_traits<char>, std::allocator<char> > > > > >
FUNC 118fb e 0 std::__niter_base<std::basic_string<char, std::char_traits<char>, std::allocator<char> >*, false>::__b
FUNC 11909 31 0 std::__copy_move_a<false, std::basic_string<char, std::char_traits<char>, std::allocator<char> >*, std::basic_string<char, std::char_traits<char>, std::allocator<char> >*>
FUNC 1193a 92 0 std::__uninitialized_copy<false>::uninitialized_copy<std::basic_string<char, std::char_traits<char>, std::allocator<char> >*, std::basic_string<char, std::char_traits<char>, std::allocator<char> >*>
FUNC 119cc 58 0 std::__copy_move_backward_a2<false, std::basic_string<char, std::char_traits<char>, std::allocator<char> >*, std::basic_string<char, std::char_traits<char>, std::allocator<char> >*>
FUNC 11a24 22 0 std::vector<std::basic_string<char, std::char_traits<char>, std::allocator<char> >, std::allocator<std::basic_string<char, std::char_traits<char>, std::allocator<char> > > >::max_size
FUNC 11a46 ac 0 std::__uninitialized_copy<false>::uninitialized_copy<__gnu_cxx::__normal_iterator<const std::basic_string<char, std::char_traits<char>, std::allocator<char> >*, std::vector<std::basic_string<char, std::char_traits<char>, std::allocator<char> >, std::allocator<std::basic_string<char, std::char_traits<char>, std::allocator<char> > > > >, std::basic_string<char, std::char_traits<char>, std::allocator<char> >*>
FUNC 11af2 bd 0 std::_Rb_tree<std::basic_string<char, std::char_traits<char>, std::allocator<char> >, std::pair<const std::basic_string<char, std::char_traits<char>, std::allocator<char> >, std::basic_string<char, std::char_traits<char>, std::allocator<char> > >, std::_Select1st<std::pair<const std::basic_string<char, std::char_traits<char>, std::allocator<char> >, std::basic_string<char, std::char_traits<char>, std::allocator<char> > > >, std::less<std::basic_string<char, std::char_traits<char>, std::allocator<char> > >, std::allocator<std::pair<const std::basic_string<char, std::char_traits<char>, std::allocator<char> >, std::basic_string<char, std::char_traits<char>, std::allocator<char> > > > >::_M_create_node
FUNC 11bb0 a 0 __gnu_cxx::new_allocator<std::_Rb_tree_node<std::pair<const std::basic_string<char, std::char_traits<char>, std::allocator<char> >, std::basic_string<char, std::char_traits<char>, std::allocator<char> > > > >::new_allocator
FUNC 11bba e 0 std::_Rb_tree<std::basic_string<char, std::char_traits<char>, std::allocator<char> >, std::pair<const std::basic_string<char, std::char_traits<char>, std::allocator<char> >, std::basic_string<char, std::char_traits<char>, std::allocator<char> > >, std::_Select1st<std::pair<const std::basic_string<char, std::char_traits<char>, std::allocator<char> >, std::basic_string<char, std::char_traits<char>, std::allocator<char> > > >, std::less<std::basic_string<char, std::char_traits<char>, std::allocator<char> > >, std::allocator<std::pair<const std::basic_string<char, std::char_traits<char>, std::allocator<char> >, std::basic_string<char, std::char_traits<char>, std::allocator<char> > > > >::_M_get_Node_allocator
FUNC 11bc8 1e 0 std::allocator<std::pair<const std::basic_string<char, std::char_traits<char>, std::allocator<char> >, std::basic_string<char, std::char_traits<char>, std::allocator<char> > > >::allocator<std::_Rb_tree_node<std::pair<const std::basic_string<char, std::char_traits<char>, std::allocator<char> >, std::basic_string<char, std::char_traits<char>, std::allocator<char> > > > >
FUNC 11be6 a 0 __gnu_cxx::new_allocator<std::pair<const std::basic_string<char, std::char_traits<char>, std::allocator<char> >, std::basic_string<char, std::char_traits<char>, std::allocator<char> > > >::~new_allocator
FUNC 11bf0 22 0 __gnu_cxx::new_allocator<std::_Rb_tree_node<std::pair<const std::basic_string<char, std::char_traits<char>, std::allocator<char> >, std::basic_string<char, std::char_traits<char>, std::allocator<char> > > > >::deallocate
FUNC 11c12 a 0 __gnu_cxx::new_allocator<short unsigned int>::new_allocator
FUNC 11c1c a 0 __gnu_cxx::new_allocator<std::basic_string<char, std::char_traits<char>, std::allocator<char> > >::new_allocator
FUNC 11c26 1a 0 std::_Destroy<std::basic_string<char, std::char_traits<char>, std::allocator<char> > >
FUNC 11c40 2c 0 std::_Rb_tree<std::basic_string<char, std::char_traits<char>, std::allocator<char> >, std::pair<const std::basic_string<char, std::char_traits<char>, std::allocator<char> >, std::basic_string<char, std::char_traits<char>, std::allocator<char> > >, std::_Select1st<std::pair<const std::basic_string<char, std::char_traits<char>, std::allocator<char> >, std::basic_string<char, std::char_traits<char>, std::allocator<char> > > >, std::less<std::basic_string<char, std::char_traits<char>, std::allocator<char> > >, std::allocator<std::pair<const std::basic_string<char, std::char_traits<char>, std::allocator<char> >, std::basic_string<char, std::char_traits<char>, std::allocator<char> > > > >::begin
FUNC 11c6c 2e 0 std::pair<std::_Rb_tree_iterator<std::pair<const std::basic_string<char, std::char_traits<char>, std::allocator<char> >, std::basic_string<char, std::char_traits<char>, std::allocator<char> > > >, bool>::pair
FUNC 11c9a 28 0 std::_Rb_tree_iterator<std::pair<const std::basic_string<char, std::char_traits<char>, std::allocator<char> >, std::basic_string<char, std::char_traits<char>, std::allocator<char> > > >::operator--
FUNC 11cc2 12 0 std::_Rb_tree<std::basic_string<char, std::char_traits<char>, std::allocator<char> >, std::pair<const std::basic_string<char, std::char_traits<char>, std::allocator<char> >, std::basic_string<char, std::char_traits<char>, std::allocator<char> > >, std::_Select1st<std::pair<const std::basic_string<char, std::char_traits<char>, std::allocator<char> >, std::basic_string<char, std::char_traits<char>, std::allocator<char> > > >, std::less<std::basic_string<char, std::char_traits<char>, std::allocator<char> > >, std::allocator<std::pair<const std::basic_string<char, std::char_traits<char>, std::allocator<char> >, std::basic_string<char, std::char_traits<char>, std::allocator<char> > > > >::_S_value
FUNC 11cd4 e 0 std::__niter_base<short unsigned int*, false>::__b
FUNC 11ce2 31 0 std::__copy_move_backward_a<false, short unsigned int*, short unsigned int*>
FUNC 11d14 e 0 std::_Vector_base<short unsigned int, std::allocator<short unsigned int> >::_M_get_Tp_allocator
FUNC 11d22 14 0 __gnu_cxx::new_allocator<short unsigned int>::max_size
FUNC 11d36 2d 0 std::uninitialized_copy<short unsigned int*, short unsigned int*>
FUNC 11d64 14 0 __gnu_cxx::new_allocator<std::basic_string<char, std::char_traits<char>, std::allocator<char> > >::max_size
FUNC 11d78 63 0 std::__copy_move<false, false, std::random_access_iterator_tag>::__copy_m<const std::basic_string<char, std::char_traits<char>, std::allocator<char> >*, std::basic_string<char, std::char_traits<char>, std::allocator<char> >*>
FUNC 11ddb 3c 0 __gnu_cxx::operator!=<std::basic_string<char, std::char_traits<char>, std::allocator<char> >*, std::vector<std::basic_string<char, std::char_traits<char>, std::allocator<char> >, std::allocator<std::basic_string<char, std::char_traits<char>, std::allocator<char> > > > >
FUNC 11e18 20 0 __gnu_cxx::__normal_iterator<std::basic_string<char, std::char_traits<char>, std::allocator<char> >*, std::vector<std::basic_string<char, std::char_traits<char>, std::allocator<char> >, std::allocator<std::basic_string<char, std::char_traits<char>, std::allocator<char> > > > >::operator++
FUNC 11e38 63 0 std::__copy_move<false, false, std::random_access_iterator_tag>::__copy_m<std::basic_string<char, std::char_traits<char>, std::allocator<char> >*, std::basic_string<char, std::char_traits<char>, std::allocator<char> >*>
FUNC 11e9b 73 0 std::_Construct<std::basic_string<char, std::char_traits<char>, std::allocator<char> >, std::basic_string<char, std::char_traits<char>, std::allocator<char> > >
FUNC 11f0e 31 0 std::__copy_move_backward_a<false, std::basic_string<char, std::char_traits<char>, std::allocator<char> >*, std::basic_string<char, std::char_traits<char>, std::allocator<char> >*>
FUNC 11f3f 3c 0 __gnu_cxx::operator!=<const std::basic_string<char, std::char_traits<char>, std::allocator<char> >*, std::vector<std::basic_string<char, std::char_traits<char>, std::allocator<char> >, std::allocator<std::basic_string<char, std::char_traits<char>, std::allocator<char> > > > >
FUNC 11f7c 24 0 std::_Rb_tree<std::basic_string<char, std::char_traits<char>, std::allocator<char> >, std::pair<const std::basic_string<char, std::char_traits<char>, std::allocator<char> >, std::basic_string<char, std::char_traits<char>, std::allocator<char> > >, std::_Select1st<std::pair<const std::basic_string<char, std::char_traits<char>, std::allocator<char> >, std::basic_string<char, std::char_traits<char>, std::allocator<char> > > >, std::less<std::basic_string<char, std::char_traits<char>, std::allocator<char> > >, std::allocator<std::pair<const std::basic_string<char, std::char_traits<char>, std::allocator<char> >, std::basic_string<char, std::char_traits<char>, std::allocator<char> > > > >::_M_get_node
FUNC 11fa0 6b 0 std::pair<const std::basic_string<char, std::char_traits<char>, std::allocator<char> >, std::basic_string<char, std::char_traits<char>, std::allocator<char> > >::pair
FUNC 1200c 77 0 __gnu_cxx::new_allocator<std::pair<const std::basic_string<char, std::char_traits<char>, std::allocator<char> >, std::basic_string<char, std::char_traits<char>, std::allocator<char> > > >::construct
FUNC 12084 a 0 __gnu_cxx::new_allocator<std::pair<const std::basic_string<char, std::char_traits<char>, std::allocator<char> >, std::basic_string<char, std::char_traits<char>, std::allocator<char> > > >::new_allocator
FUNC 1208e 61 0 std::__copy_move_backward<false, true, std::random_access_iterator_tag>::__copy_move_b<short unsigned int>
FUNC 120ef 2d 0 std::__uninitialized_copy<true>::uninitialized_copy<short unsigned int*, short unsigned int*>
FUNC 1211c 63 0 std::__copy_move_backward<false, false, std::random_access_iterator_tag>::__copy_move_b<std::basic_string<char, std::char_traits<char>, std::allocator<char> >*, std::basic_string<char, std::char_traits<char>, std::allocator<char> >*>
FUNC 12180 54 0 __gnu_cxx::new_allocator<std::_Rb_tree_node<std::pair<const std::basic_string<char, std::char_traits<char>, std::allocator<char> >, std::basic_string<char, std::char_traits<char>, std::allocator<char> > > > >::allocate
FUNC 121d4 46 0 std::copy<short unsigned int*, short unsigned int*>
FUNC 1221a 14 0 __gnu_cxx::new_allocator<std::_Rb_tree_node<std::pair<const std::basic_string<char, std::char_traits<char>, std::allocator<char> >, std::basic_string<char, std::char_traits<char>, std::allocator<char> > > > >::max_size
FUNC 1222e 58 0 std::__copy_move_a2<false, short unsigned int*, short unsigned int*>
FUNC 12286 31 0 std::__copy_move_a<false, short unsigned int*, short unsigned int*>
FUNC 122b7 5c 0 std::__copy_move<false, true, std::random_access_iterator_tag>::__copy_m<short unsigned int>
FUNC 12314 119 0 EncapMysql::EncapMysql
FUNC 1242e 102 0 EncapMysql::~EncapMysql
FUNC 12530 74 0 EncapMysql::GetInstance
FUNC 125a4 112 0 EncapMysql::Connect
FUNC 126b6 31 0 EncapMysql::CloseConnect
FUNC 126e8 402 0 EncapMysql::SelectQuery
FUNC 12aea 1e3 0 EncapMysql::ModifyQuery
FUNC 12cce 4e 0 EncapMysql::FetchRow
FUNC 12d1c c3 0 EncapMysql::GetField
FUNC 12de0 3b 0 EncapMysql::GetField
FUNC 12e1c 40 0 EncapMysql::FreePreResult
FUNC 12e5c 12 0 EncapMysql::GetErrMsg
FUNC 12e6e 12 0 EncapMysql::IsConnected
FUNC 12e80 1a 0 EncapMysql::SetConnected
FUNC 12e9a 68 0 EncapMysql::SaveParam
FUNC 12f02 107 0 EncapMysql::ReConnect
FUNC 1300a 11 0 EncapMysql::SetUsed
FUNC 1301c 11 0 EncapMysql::SetIdle
FUNC 1302e 14 0 EncapMysql::IsIdle
FUNC 13042 77 0 __static_initialization_and_destruction_0
FUNC 130b9 15 0 _GLOBAL__I_EncapMysql.cpp
FUNC 130ce 1a 0 Mutex::WriterLock
FUNC 130e8 1a 0 Mutex::WriterUnlock
FUNC 13102 12 0 Mutex::SetIsSafe
FUNC 13114 50 0 Mutex::Mutex
FUNC 13164 3f 0 Mutex::~Mutex
FUNC 131a4 3f 0 Mutex::Lock
FUNC 131e4 3f 0 Mutex::Unlock
FUNC 13224 2c 0 WriterMutexLock::WriterMutexLock
FUNC 13250 1d 0 WriterMutexLock::~WriterMutexLock
FUNC 1326e 1a 0 std::map<std::basic_string<char, std::char_traits<char>, std::allocator<char> >, int, std::less<std::basic_string<char, std::char_traits<char>, std::allocator<char> > >, std::allocator<std::pair<const std::basic_string<char, std::char_traits<char>, std::allocator<char> >, int> > >::~map
FUNC 13288 1a 0 std::map<std::basic_string<char, std::char_traits<char>, std::allocator<char> >, int, std::less<std::basic_string<char, std::char_traits<char>, std::allocator<char> > >, std::allocator<std::pair<const std::basic_string<char, std::char_traits<char>, std::allocator<char> >, int> > >::map
FUNC 132a2 1a 0 std::_Rb_tree<std::basic_string<char, std::char_traits<char>, std::allocator<char> >, std::pair<const std::basic_string<char, std::char_traits<char>, std::allocator<char> >, int>, std::_Select1st<std::pair<const std::basic_string<char, std::char_traits<char>, std::allocator<char> >, int> >, std::less<std::basic_string<char, std::char_traits<char>, std::allocator<char> > >, std::allocator<std::pair<const std::basic_string<char, std::char_traits<char>, std::allocator<char> >, int> > >::_Rb_tree_impl<std::less<std::basic_string<char, std::char_traits<char>, std::allocator<char> > >, false>::~_Rb_tree_impl
FUNC 132bc 63 0 std::_Rb_tree<std::basic_string<char, std::char_traits<char>, std::allocator<char> >, std::pair<const std::basic_string<char, std::char_traits<char>, std::allocator<char> >, int>, std::_Select1st<std::pair<const std::basic_string<char, std::char_traits<char>, std::allocator<char> >, int> >, std::less<std::basic_string<char, std::char_traits<char>, std::allocator<char> > >, std::allocator<std::pair<const std::basic_string<char, std::char_traits<char>, std::allocator<char> >, int> > >::~_Rb_tree
FUNC 13320 1a 0 std::map<std::basic_string<char, std::char_traits<char>, std::allocator<char> >, int, std::less<std::basic_string<char, std::char_traits<char>, std::allocator<char> > >, std::allocator<std::pair<const std::basic_string<char, std::char_traits<char>, std::allocator<char> >, int> > >::clear
FUNC 1333a 1a 0 std::pair<const std::basic_string<char, std::char_traits<char>, std::allocator<char> >, int>::~pair
FUNC 13354 118 0 std::map<std::basic_string<char, std::char_traits<char>, std::allocator<char> >, int, std::less<std::basic_string<char, std::char_traits<char>, std::allocator<char> > >, std::allocator<std::pair<const std::basic_string<char, std::char_traits<char>, std::allocator<char> >, int> > >::operator[]
FUNC 1346c 1a 0 std::_Rb_tree<std::basic_string<char, std::char_traits<char>, std::allocator<char> >, std::pair<const std::basic_string<char, std::char_traits<char>, std::allocator<char> >, int>, std::_Select1st<std::pair<const std::basic_string<char, std::char_traits<char>, std::allocator<char> >, int> >, std::less<std::basic_string<char, std::char_traits<char>, std::allocator<char> > >, std::allocator<std::pair<const std::basic_string<char, std::char_traits<char>, std::allocator<char> >, int> > >::_Rb_tree
FUNC 13486 1a 0 std::allocator<std::_Rb_tree_node<std::pair<const std::basic_string<char, std::char_traits<char>, std::allocator<char> >, int> > >::~allocator
FUNC 134a0 69 0 std::_Rb_tree<std::basic_string<char, std::char_traits<char>, std::allocator<char> >, std::pair<const std::basic_string<char, std::char_traits<char>, std::allocator<char> >, int>, std::_Select1st<std::pair<const std::basic_string<char, std::char_traits<char>, std::allocator<char> >, int> >, std::less<std::basic_string<char, std::char_traits<char>, std::allocator<char> > >, std::allocator<std::pair<const std::basic_string<char, std::char_traits<char>, std::allocator<char> >, int> > >::_M_erase
FUNC 1350a 12 0 std::_Rb_tree<std::basic_string<char, std::char_traits<char>, std::allocator<char> >, std::pair<const std::basic_string<char, std::char_traits<char>, std::allocator<char> >, int>, std::_Select1st<std::pair<const std::basic_string<char, std::char_traits<char>, std::allocator<char> >, int> >, std::less<std::basic_string<char, std::char_traits<char>, std::allocator<char> > >, std::allocator<std::pair<const std::basic_string<char, std::char_traits<char>, std::allocator<char> >, int> > >::_M_begin
FUNC 1351c 8d 0 std::_Rb_tree<std::basic_string<char, std::char_traits<char>, std::allocator<char> >, std::pair<const std::basic_string<char, std::char_traits<char>, std::allocator<char> >, int>, std::_Select1st<std::pair<const std::basic_string<char, std::char_traits<char>, std::allocator<char> >, int> >, std::less<std::basic_string<char, std::char_traits<char>, std::allocator<char> > >, std::allocator<std::pair<const std::basic_string<char, std::char_traits<char>, std::allocator<char> >, int> > >::clear
FUNC 135aa 25 0 std::map<std::basic_string<char, std::char_traits<char>, std::allocator<char> >, int, std::less<std::basic_string<char, std::char_traits<char>, std::allocator<char> > >, std::allocator<std::pair<const std::basic_string<char, std::char_traits<char>, std::allocator<char> >, int> > >::lower_bound
FUNC 135d0 1a 0 std::map<std::basic_string<char, std::char_traits<char>, std::allocator<char> >, int, std::less<std::basic_string<char, std::char_traits<char>, std::allocator<char> > >, std::allocator<std::pair<const std::basic_string<char, std::char_traits<char>, std::allocator<char> >, int> > >::key_comp
FUNC 135ea 15 0 std::_Rb_tree_iterator<std::pair<const std::basic_string<char, std::char_traits<char>, std::allocator<char> >, int> >::operator*
FUNC 13600 1a 0 std::map<std::basic_string<char, std::char_traits<char>, std::allocator<char> >, int, std::less<std::basic_string<char, std::char_traits<char>, std::allocator<char> > >, std::allocator<std::pair<const std::basic_string<char, std::char_traits<char>, std::allocator<char> >, int> > >::end
FUNC 1361a 22 0 std::_Rb_tree_iterator<std::pair<const std::basic_string<char, std::char_traits<char>, std::allocator<char> >, int> >::operator==
FUNC 1363c 36 0 std::pair<const std::basic_string<char, std::char_traits<char>, std::allocator<char> >, int>::pair
FUNC 13672 40 0 std::map<std::basic_string<char, std::char_traits<char>, std::allocator<char> >, int, std::less<std::basic_string<char, std::char_traits<char>, std::allocator<char> > >, std::allocator<std::pair<const std::basic_string<char, std::char_traits<char>, std::allocator<char> >, int> > >::insert
FUNC 136b2 8c 0 std::_Rb_tree<std::basic_string<char, std::char_traits<char>, std::allocator<char> >, std::pair<const std::basic_string<char, std::char_traits<char>, std::allocator<char> >, int>, std::_Select1st<std::pair<const std::basic_string<char, std::char_traits<char>, std::allocator<char> >, int> >, std::less<std::basic_string<char, std::char_traits<char>, std::allocator<char> > >, std::allocator<std::pair<const std::basic_string<char, std::char_traits<char>, std::allocator<char> >, int> > >::_Rb_tree_impl<std::less<std::basic_string<char, std::char_traits<char>, std::allocator<char> > >, false>::_Rb_tree_impl
FUNC 1373e a 0 __gnu_cxx::new_allocator<std::_Rb_tree_node<std::pair<const std::basic_string<char, std::char_traits<char>, std::allocator<char> >, int> > >::~new_allocator
FUNC 13748 12 0 std::_Rb_tree<std::basic_string<char, std::char_traits<char>, std::allocator<char> >, std::pair<const std::basic_string<char, std::char_traits<char>, std::allocator<char> >, int>, std::_Select1st<std::pair<const std::basic_string<char, std::char_traits<char>, std::allocator<char> >, int> >, std::less<std::basic_string<char, std::char_traits<char>, std::allocator<char> > >, std::allocator<std::pair<const std::basic_string<char, std::char_traits<char>, std::allocator<char> >, int> > >::_S_right
FUNC 1375a 12 0 std::_Rb_tree<std::basic_string<char, std::char_traits<char>, std::allocator<char> >, std::pair<const std::basic_string<char, std::char_traits<char>, std::allocator<char> >, int>, std::_Select1st<std::pair<const std::basic_string<char, std::char_traits<char>, std::allocator<char> >, int> >, std::less<std::basic_string<char, std::char_traits<char>, std::allocator<char> > >, std::allocator<std::pair<const std::basic_string<char, std::char_traits<char>, std::allocator<char> >, int> > >::_S_left
FUNC 1376c 86 0 std::_Rb_tree<std::basic_string<char, std::char_traits<char>, std::allocator<char> >, std::pair<const std::basic_string<char, std::char_traits<char>, std::allocator<char> >, int>, std::_Select1st<std::pair<const std::basic_string<char, std::char_traits<char>, std::allocator<char> >, int> >, std::less<std::basic_string<char, std::char_traits<char>, std::allocator<char> > >, std::allocator<std::pair<const std::basic_string<char, std::char_traits<char>, std::allocator<char> >, int> > >::_M_destroy_node
FUNC 137f2 12 0 std::_Rb_tree<std::basic_string<char, std::char_traits<char>, std::allocator<char> >, std::pair<const std::basic_string<char, std::char_traits<char>, std::allocator<char> >, int>, std::_Select1st<std::pair<const std::basic_string<char, std::char_traits<char>, std::allocator<char> >, int> >, std::less<std::basic_string<char, std::char_traits<char>, std::allocator<char> > >, std::allocator<std::pair<const std::basic_string<char, std::char_traits<char>, std::allocator<char> >, int> > >::_M_end
FUNC 13804 12 0 std::_Rb_tree<std::basic_string<char, std::char_traits<char>, std::allocator<char> >, std::pair<const std::basic_string<char, std::char_traits<char>, std::allocator<char> >, int>, std::_Select1st<std::pair<const std::basic_string<char, std::char_traits<char>, std::allocator<char> >, int> >, std::less<std::basic_string<char, std::char_traits<char>, std::allocator<char> > >, std::allocator<std::pair<const std::basic_string<char, std::char_traits<char>, std::allocator<char> >, int> > >::_M_leftmost
FUNC 13816 12 0 std::_Rb_tree<std::basic_string<char, std::char_traits<char>, std::allocator<char> >, std::pair<const std::basic_string<char, std::char_traits<char>, std::allocator<char> >, int>, std::_Select1st<std::pair<const std::basic_string<char, std::char_traits<char>, std::allocator<char> >, int> >, std::less<std::basic_string<char, std::char_traits<char>, std::allocator<char> > >, std::allocator<std::pair<const std::basic_string<char, std::char_traits<char>, std::allocator<char> >, int> > >::_M_root
FUNC 13828 12 0 std::_Rb_tree<std::basic_string<char, std::char_traits<char>, std::allocator<char> >, std::pair<const std::basic_string<char, std::char_traits<char>, std::allocator<char> >, int>, std::_Select1st<std::pair<const std::basic_string<char, std::char_traits<char>, std::allocator<char> >, int> >, std::less<std::basic_string<char, std::char_traits<char>, std::allocator<char> > >, std::allocator<std::pair<const std::basic_string<char, std::char_traits<char>, std::allocator<char> >, int> > >::_M_rightmost
FUNC 1383a 53 0 std::_Rb_tree<std::basic_string<char, std::char_traits<char>, std::allocator<char> >, std::pair<const std::basic_string<char, std::char_traits<char>, std::allocator<char> >, int>, std::_Select1st<std::pair<const std::basic_string<char, std::char_traits<char>, std::allocator<char> >, int> >, std::less<std::basic_string<char, std::char_traits<char>, std::allocator<char> > >, std::allocator<std::pair<const std::basic_string<char, std::char_traits<char>, std::allocator<char> >, int> > >::lower_bound
FUNC 1388e a 0 std::_Rb_tree<std::basic_string<char, std::char_traits<char>, std::allocator<char> >, std::pair<const std::basic_string<char, std::char_traits<char>, std::allocator<char> >, int>, std::_Select1st<std::pair<const std::basic_string<char, std::char_traits<char>, std::allocator<char> >, int> >, std::less<std::basic_string<char, std::char_traits<char>, std::allocator<char> > >, std::allocator<std::pair<const std::basic_string<char, std::char_traits<char>, std::allocator<char> >, int> > >::key_comp
FUNC 13898 2c 0 std::_Rb_tree<std::basic_string<char, std::char_traits<char>, std::allocator<char> >, std::pair<const std::basic_string<char, std::char_traits<char>, std::allocator<char> >, int>, std::_Select1st<std::pair<const std::basic_string<char, std::char_traits<char>, std::allocator<char> >, int> >, std::less<std::basic_string<char, std::char_traits<char>, std::allocator<char> > >, std::allocator<std::pair<const std::basic_string<char, std::char_traits<char>, std::allocator<char> >, int> > >::end
FUNC 138c4 1c 0 std::_Rb_tree_const_iterator<std::pair<const std::basic_string<char, std::char_traits<char>, std::allocator<char> >, int> >::_Rb_tree_const_iterator
FUNC 138e0 4c0 0 std::_Rb_tree<std::basic_string<char, std::char_traits<char>, std::allocator<char> >, std::pair<const std::basic_string<char, std::char_traits<char>, std::allocator<char> >, int>, std::_Select1st<std::pair<const std::basic_string<char, std::char_traits<char>, std::allocator<char> >, int> >, std::less<std::basic_string<char, std::char_traits<char>, std::allocator<char> > >, std::allocator<std::pair<const std::basic_string<char, std::char_traits<char>, std::allocator<char> >, int> > >::_M_insert_unique_
FUNC 13da0 1a 0 std::allocator<std::_Rb_tree_node<std::pair<const std::basic_string<char, std::char_traits<char>, std::allocator<char> >, int> > >::allocator
FUNC 13dba 41 0 std::_Rb_tree<std::basic_string<char, std::char_traits<char>, std::allocator<char> >, std::pair<const std::basic_string<char, std::char_traits<char>, std::allocator<char> >, int>, std::_Select1st<std::pair<const std::basic_string<char, std::char_traits<char>, std::allocator<char> >, int> >, std::less<std::basic_string<char, std::char_traits<char>, std::allocator<char> > >, std::allocator<std::pair<const std::basic_string<char, std::char_traits<char>, std::allocator<char> >, int> > >::_Rb_tree_impl<std::less<std::basic_string<char, std::char_traits<char>, std::allocator<char> > >, false>::_M_initialize
FUNC 13dfc 3b 0 std::_Rb_tree<std::basic_string<char, std::char_traits<char>, std::allocator<char> >, std::pair<const std::basic_string<char, std::char_traits<char>, std::allocator<char> >, int>, std::_Select1st<std::pair<const std::basic_string<char, std::char_traits<char>, std::allocator<char> >, int> >, std::less<std::basic_string<char, std::char_traits<char>, std::allocator<char> > >, std::allocator<std::pair<const std::basic_string<char, std::char_traits<char>, std::allocator<char> >, int> > >::get_allocator
FUNC 13e38 1a 0 std::allocator<std::pair<const std::basic_string<char, std::char_traits<char>, std::allocator<char> >, int> >::~allocator
FUNC 13e52 1e 0 __gnu_cxx::new_allocator<std::pair<const std::basic_string<char, std::char_traits<char>, std::allocator<char> >, int> >::destroy
FUNC 13e70 2a 0 std::_Rb_tree<std::basic_string<char, std::char_traits<char>, std::allocator<char> >, std::pair<const std::basic_string<char, std::char_traits<char>, std::allocator<char> >, int>, std::_Select1st<std::pair<const std::basic_string<char, std::char_traits<char>, std::allocator<char> >, int> >, std::less<std::basic_string<char, std::char_traits<char>, std::allocator<char> > >, std::allocator<std::pair<const std::basic_string<char, std::char_traits<char>, std::allocator<char> >, int> > >::_M_put_node
FUNC 13e9a 92 0 std::_Rb_tree<std::basic_string<char, std::char_traits<char>, std::allocator<char> >, std::pair<const std::basic_string<char, std::char_traits<char>, std::allocator<char> >, int>, std::_Select1st<std::pair<const std::basic_string<char, std::char_traits<char>, std::allocator<char> >, int> >, std::less<std::basic_string<char, std::char_traits<char>, std::allocator<char> > >, std::allocator<std::pair<const std::basic_string<char, std::char_traits<char>, std::allocator<char> >, int> > >::_M_lower_bound
FUNC 13f2c 19 0 std::_Rb_tree_iterator<std::pair<const std::basic_string<char, std::char_traits<char>, std::allocator<char> >, int> >::_Rb_tree_iterator
FUNC 13f45 2c 0 std::_Rb_tree<std::basic_string<char, std::char_traits<char>, std::allocator<char> >, std::pair<const std::basic_string<char, std::char_traits<char>, std::allocator<char> >, int>, std::_Select1st<std::pair<const std::basic_string<char, std::char_traits<char>, std::allocator<char> >, int> >, std::less<std::basic_string<char, std::char_traits<char>, std::allocator<char> > >, std::allocator<std::pair<const std::basic_string<char, std::char_traits<char>, std::allocator<char> >, int> > >::_S_key
FUNC 13f72 12 0 std::_Select1st<std::pair<const std::basic_string<char, std::char_traits<char>, std::allocator<char> >, int> >::operator()
FUNC 13f84 12 0 std::_Rb_tree<std::basic_string<char, std::char_traits<char>, std::allocator<char> >, std::pair<const std::basic_string<char, std::char_traits<char>, std::allocator<char> >, int>, std::_Select1st<std::pair<const std::basic_string<char, std::char_traits<char>, std::allocator<char> >, int> >, std::less<std::basic_string<char, std::char_traits<char>, std::allocator<char> > >, std::allocator<std::pair<const std::basic_string<char, std::char_traits<char>, std::allocator<char> >, int> > >::size
FUNC 13f96 e3 0 std::_Rb_tree<std::basic_string<char, std::char_traits<char>, std::allocator<char> >, std::pair<const std::basic_string<char, std::char_traits<char>, std::allocator<char> >, int>, std::_Select1st<std::pair<const std::basic_string<char, std::char_traits<char>, std::allocator<char> >, int> >, std::less<std::basic_string<char, std::char_traits<char>, std::allocator<char> > >, std::allocator<std::pair<const std::basic_string<char, std::char_traits<char>, std::allocator<char> >, int> > >::_M_insert_
FUNC 1407a 271 0 std::_Rb_tree<std::basic_string<char, std::char_traits<char>, std::allocator<char> >, std::pair<const std::basic_string<char, std::char_traits<char>, std::allocator<char> >, int>, std::_Select1st<std::pair<const std::basic_string<char, std::char_traits<char>, std::allocator<char> >, int> >, std::less<std::basic_string<char, std::char_traits<char>, std::allocator<char> > >, std::allocator<std::pair<const std::basic_string<char, std::char_traits<char>, std::allocator<char> >, int> > >::_M_insert_unique
FUNC 142ec 28 0 std::_Rb_tree_const_iterator<std::pair<const std::basic_string<char, std::char_traits<char>, std::allocator<char> >, int> >::operator--
FUNC 14314 12 0 std::_Rb_tree<std::basic_string<char, std::char_traits<char>, std::allocator<char> >, std::pair<const std::basic_string<char, std::char_traits<char>, std::allocator<char> >, int>, std::_Select1st<std::pair<const std::basic_string<char, std::char_traits<char>, std::allocator<char> >, int> >, std::less<std::basic_string<char, std::char_traits<char>, std::allocator<char> > >, std::allocator<std::pair<const std::basic_string<char, std::char_traits<char>, std::allocator<char> >, int> > >::_S_right
FUNC 14326 28 0 std::_Rb_tree_const_iterator<std::pair<const std::basic_string<char, std::char_traits<char>, std::allocator<char> >, int> >::operator++
FUNC 1434e a 0 __gnu_cxx::new_allocator<std::_Rb_tree_node<std::pair<const std::basic_string<char, std::char_traits<char>, std::allocator<char> >, int> > >::new_allocator
FUNC 14358 e 0 std::_Rb_tree<std::basic_string<char, std::char_traits<char>, std::allocator<char> >, std::pair<const std::basic_string<char, std::char_traits<char>, std::allocator<char> >, int>, std::_Select1st<std::pair<const std::basic_string<char, std::char_traits<char>, std::allocator<char> >, int> >, std::less<std::basic_string<char, std::char_traits<char>, std::allocator<char> > >, std::allocator<std::pair<const std::basic_string<char, std::char_traits<char>, std::allocator<char> >, int> > >::_M_get_Node_allocator
FUNC 14366 1e 0 std::allocator<std::pair<const std::basic_string<char, std::char_traits<char>, std::allocator<char> >, int> >::allocator<std::_Rb_tree_node<std::pair<const std::basic_string<char, std::char_traits<char>, std::allocator<char> >, int> > >
FUNC 14384 a 0 __gnu_cxx::new_allocator<std::pair<const std::basic_string<char, std::char_traits<char>, std::allocator<char> >, int> >::~new_allocator
FUNC 1438e 22 0 __gnu_cxx::new_allocator<std::_Rb_tree_node<std::pair<const std::basic_string<char, std::char_traits<char>, std::allocator<char> >, int> > >::deallocate
FUNC 143b0 2c 0 std::_Rb_tree<std::basic_string<char, std::char_traits<char>, std::allocator<char> >, std::pair<const std::basic_string<char, std::char_traits<char>, std::allocator<char> >, int>, std::_Select1st<std::pair<const std::basic_string<char, std::char_traits<char>, std::allocator<char> >, int> >, std::less<std::basic_string<char, std::char_traits<char>, std::allocator<char> > >, std::allocator<std::pair<const std::basic_string<char, std::char_traits<char>, std::allocator<char> >, int> > >::_S_key
FUNC 143dc 12 0 std::_Rb_tree<std::basic_string<char, std::char_traits<char>, std::allocator<char> >, std::pair<const std::basic_string<char, std::char_traits<char>, std::allocator<char> >, int>, std::_Select1st<std::pair<const std::basic_string<char, std::char_traits<char>, std::allocator<char> >, int> >, std::less<std::basic_string<char, std::char_traits<char>, std::allocator<char> > >, std::allocator<std::pair<const std::basic_string<char, std::char_traits<char>, std::allocator<char> >, int> > >::_S_value
FUNC 143ee bd 0 std::_Rb_tree<std::basic_string<char, std::char_traits<char>, std::allocator<char> >, std::pair<const std::basic_string<char, std::char_traits<char>, std::allocator<char> >, int>, std::_Select1st<std::pair<const std::basic_string<char, std::char_traits<char>, std::allocator<char> >, int> >, std::less<std::basic_string<char, std::char_traits<char>, std::allocator<char> > >, std::allocator<std::pair<const std::basic_string<char, std::char_traits<char>, std::allocator<char> >, int> > >::_M_create_node
FUNC 144ac 2c 0 std::_Rb_tree<std::basic_string<char, std::char_traits<char>, std::allocator<char> >, std::pair<const std::basic_string<char, std::char_traits<char>, std::allocator<char> >, int>, std::_Select1st<std::pair<const std::basic_string<char, std::char_traits<char>, std::allocator<char> >, int> >, std::less<std::basic_string<char, std::char_traits<char>, std::allocator<char> > >, std::allocator<std::pair<const std::basic_string<char, std::char_traits<char>, std::allocator<char> >, int> > >::begin
FUNC 144d8 2e 0 std::pair<std::_Rb_tree_iterator<std::pair<const std::basic_string<char, std::char_traits<char>, std::allocator<char> >, int> >, bool>::pair
FUNC 14506 28 0 std::_Rb_tree_iterator<std::pair<const std::basic_string<char, std::char_traits<char>, std::allocator<char> >, int> >::operator--
FUNC 1452e a 0 __gnu_cxx::new_allocator<std::pair<const std::basic_string<char, std::char_traits<char>, std::allocator<char> >, int> >::new_allocator
FUNC 14538 12 0 std::_Rb_tree<std::basic_string<char, std::char_traits<char>, std::allocator<char> >, std::pair<const std::basic_string<char, std::char_traits<char>, std::allocator<char> >, int>, std::_Select1st<std::pair<const std::basic_string<char, std::char_traits<char>, std::allocator<char> >, int> >, std::less<std::basic_string<char, std::char_traits<char>, std::allocator<char> > >, std::allocator<std::pair<const std::basic_string<char, std::char_traits<char>, std::allocator<char> >, int> > >::_S_value
FUNC 1454a 24 0 std::_Rb_tree<std::basic_string<char, std::char_traits<char>, std::allocator<char> >, std::pair<const std::basic_string<char, std::char_traits<char>, std::allocator<char> >, int>, std::_Select1st<std::pair<const std::basic_string<char, std::char_traits<char>, std::allocator<char> >, int> >, std::less<std::basic_string<char, std::char_traits<char>, std::allocator<char> > >, std::allocator<std::pair<const std::basic_string<char, std::char_traits<char>, std::allocator<char> >, int> > >::_M_get_node
FUNC 1456e 33 0 std::pair<const std::basic_string<char, std::char_traits<char>, std::allocator<char> >, int>::pair
FUNC 145a2 77 0 __gnu_cxx::new_allocator<std::pair<const std::basic_string<char, std::char_traits<char>, std::allocator<char> >, int> >::construct
FUNC 1461a 54 0 __gnu_cxx::new_allocator<std::_Rb_tree_node<std::pair<const std::basic_string<char, std::char_traits<char>, std::allocator<char> >, int> > >::allocate
FUNC 1466e 14 0 __gnu_cxx::new_allocator<std::_Rb_tree_node<std::pair<const std::basic_string<char, std::char_traits<char>, std::allocator<char> >, int> > >::max_size
FUNC 14684 28 0 IEC103Manager::IEC103Manager
FUNC 146ac 61 0 IEC103Manager::~IEC103Manager
FUNC 1470e 26 0 IEC103Manager::~IEC103Manager
FUNC 14734 769 0 IEC103Manager::Init
FUNC 14e9e 2d 0 IEC103Manager::Start
FUNC 14ecc 1b 0 IEC103Manager::Stop
FUNC 14ee8 62 0 IEC103Manager::SignalHandle
FUNC 14f4a ca 0 __static_initialization_and_destruction_0
FUNC 15014 15 0 _GLOBAL__I_IEC103Manager.cpp
FUNC 15029 1a 0 std::char_traits<char>::length
FUNC 15043 2e 0 std::_Rb_tree_node_base::_S_minimum
FUNC 15071 2e 0 std::_Rb_tree_node_base::_S_maximum
FUNC 150a0 33 0 Config::GetChannelName
FUNC 150d4 12 0 Config::GetNetType
FUNC 150e6 29 0 Config::SetIp
FUNC 15110 1a 0 Config::SetUdpPort
FUNC 1512a 14 0 Config::GetLogLv
FUNC 1513e 14 0 Config::GetIec103RunType
FUNC 15152 1a 0 std::map<std::basic_string<char, std::char_traits<char>, std::allocator<char> >, IEC103::stConfigParam, std::less<std::basic_string<char, std::char_traits<char>, std::allocator<char> > >, std::allocator<std::pair<const std::basic_string<char, std::char_traits<char>, std::allocator<char> >, IEC103::stConfigParam> > >::~map
FUNC 1516c 1a 0 std::map<std::basic_string<char, std::char_traits<char>, std::allocator<char> >, std::map<std::basic_string<char, std::char_traits<char>, std::allocator<char> >, std::basic_string<char, std::char_traits<char>, std::allocator<char> >, std::less<std::basic_string<char, std::char_traits<char>, std::allocator<char> > >, std::allocator<std::pair<const std::basic_string<char, std::char_traits<char>, std::allocator<char> >, std::basic_string<char, std::char_traits<char>, std::allocator<char> > > > >, std::less<std::basic_string<char, std::char_traits<char>, std::allocator<char> > >, std::allocator<std::pair<const std::basic_string<char, std::char_traits<char>, std::allocator<char> >, std::map<std::basic_string<char, std::char_traits<char>, std::allocator<char> >, std::basic_string<char, std::char_traits<char>, std::allocator<char> >, std::less<std::basic_string<char, std::char_traits<char>, std::allocator<char> > >, std::allocator<std::pair<const std::basic_string<char, std::char_traits<char>, std::allocator<char> >, std::basic_string<char, std::char_traits<char>, std::allocator<char> > > > > > > >::~map
FUNC 15186 ae 0 std::operator+<char, std::char_traits<char>, std::allocator<char> >
FUNC 15234 6e 0 std::operator+<char, std::char_traits<char>, std::allocator<char> >
FUNC 152a2 1a 0 std::_Rb_tree<std::basic_string<char, std::char_traits<char>, std::allocator<char> >, std::pair<const std::basic_string<char, std::char_traits<char>, std::allocator<char> >, IEC103::stConfigParam>, std::_Select1st<std::pair<const std::basic_string<char, std::char_traits<char>, std::allocator<char> >, IEC103::stConfigParam> >, std::less<std::basic_string<char, std::char_traits<char>, std::allocator<char> > >, std::allocator<std::pair<const std::basic_string<char, std::char_traits<char>, std::allocator<char> >, IEC103::stConfigParam> > >::_Rb_tree_impl<std::less<std::basic_string<char, std::char_traits<char>, std::allocator<char> > >, false>::~_Rb_tree_impl
FUNC 152bc 63 0 std::_Rb_tree<std::basic_string<char, std::char_traits<char>, std::allocator<char> >, std::pair<const std::basic_string<char, std::char_traits<char>, std::allocator<char> >, IEC103::stConfigParam>, std::_Select1st<std::pair<const std::basic_string<char, std::char_traits<char>, std::allocator<char> >, IEC103::stConfigParam> >, std::less<std::basic_string<char, std::char_traits<char>, std::allocator<char> > >, std::allocator<std::pair<const std::basic_string<char, std::char_traits<char>, std::allocator<char> >, IEC103::stConfigParam> > >::~_Rb_tree
FUNC 15320 1a 0 std::map<std::basic_string<char, std::char_traits<char>, std::allocator<char> >, IEC103::stConfigParam, std::less<std::basic_string<char, std::char_traits<char>, std::allocator<char> > >, std::allocator<std::pair<const std::basic_string<char, std::char_traits<char>, std::allocator<char> >, IEC103::stConfigParam> > >::size
FUNC 1533a 1a 0 std::map<std::basic_string<char, std::char_traits<char>, std::allocator<char> >, IEC103::stConfigParam, std::less<std::basic_string<char, std::char_traits<char>, std::allocator<char> > >, std::allocator<std::pair<const std::basic_string<char, std::char_traits<char>, std::allocator<char> >, IEC103::stConfigParam> > >::begin
FUNC 15354 15 0 std::_Rb_tree_iterator<std::pair<const std::basic_string<char, std::char_traits<char>, std::allocator<char> >, IEC103::stConfigParam> >::operator->
FUNC 1536a 1a 0 std::_Rb_tree<std::basic_string<char, std::char_traits<char>, std::allocator<char> >, std::pair<const std::basic_string<char, std::char_traits<char>, std::allocator<char> >, std::map<std::basic_string<char, std::char_traits<char>, std::allocator<char> >, std::basic_string<char, std::char_traits<char>, std::allocator<char> >, std::less<std::basic_string<char, std::char_traits<char>, std::allocator<char> > >, std::allocator<std::pair<const std::basic_string<char, std::char_traits<char>, std::allocator<char> >, std::basic_string<char, std::char_traits<char>, std::allocator<char> > > > > >, std::_Select1st<std::pair<const std::basic_string<char, std::char_traits<char>, std::allocator<char> >, std::map<std::basic_string<char, std::char_traits<char>, std::allocator<char> >, std::basic_string<char, std::char_traits<char>, std::allocator<char> >, std::less<std::basic_string<char, std::char_traits<char>, std::allocator<char> > >, std::allocator<std::pair<const std::basic_string<char, std::char_traits<char>, std::allocator<char> >, std::basic_string<char, std::char_traits<char>, std::allocator<char> > > > > > >, std::less<std::basic_string<char, std::char_traits<char>, std::allocator<char> > >, std::allocator<std::pair<const std::basic_string<char, std::char_traits<char>, std::allocator<char> >, std::map<std::basic_string<char, std::char_traits<char>, std::allocator<char> >, std::basic_string<char, std::char_traits<char>, std::allocator<char> >, std::less<std::basic_string<char, std::char_traits<char>, std::allocator<char> > >, std::allocator<std::pair<const std::basic_string<char, std::char_traits<char>, std::allocator<char> >, std::basic_string<char, std::char_traits<char>, std::allocator<char> > > > > > > >::_Rb_tree_impl<std::less<std::basic_string<char, std::char_traits<char>, std::allocator<char> > >, false>::~_Rb_tree_impl
FUNC 15384 63 0 std::_Rb_tree<std::basic_string<char, std::char_traits<char>, std::allocator<char> >, std::pair<const std::basic_string<char, std::char_traits<char>, std::allocator<char> >, std::map<std::basic_string<char, std::char_traits<char>, std::allocator<char> >, std::basic_string<char, std::char_traits<char>, std::allocator<char> >, std::less<std::basic_string<char, std::char_traits<char>, std::allocator<char> > >, std::allocator<std::pair<const std::basic_string<char, std::char_traits<char>, std::allocator<char> >, std::basic_string<char, std::char_traits<char>, std::allocator<char> > > > > >, std::_Select1st<std::pair<const std::basic_string<char, std::char_traits<char>, std::allocator<char> >, std::map<std::basic_string<char, std::char_traits<char>, std::allocator<char> >, std::basic_string<char, std::char_traits<char>, std::allocator<char> >, std::less<std::basic_string<char, std::char_traits<char>, std::allocator<char> > >, std::allocator<std::pair<const std::basic_string<char, std::char_traits<char>, std::allocator<char> >, std::basic_string<char, std::char_traits<char>, std::allocator<char> > > > > > >, std::less<std::basic_string<char, std::char_traits<char>, std::allocator<char> > >, std::allocator<std::pair<const std::basic_string<char, std::char_traits<char>, std::allocator<char> >, std::map<std::basic_string<char, std::char_traits<char>, std::allocator<char> >, std::basic_string<char, std::char_traits<char>, std::allocator<char> >, std::less<std::basic_string<char, std::char_traits<char>, std::allocator<char> > >, std::allocator<std::pair<const std::basic_string<char, std::char_traits<char>, std::allocator<char> >, std::basic_string<char, std::char_traits<char>, std::allocator<char> > > > > > > >::~_Rb_tree
FUNC 153e8 1a 0 std::map<std::basic_string<char, std::char_traits<char>, std::allocator<char> >, std::map<std::basic_string<char, std::char_traits<char>, std::allocator<char> >, std::basic_string<char, std::char_traits<char>, std::allocator<char> >, std::less<std::basic_string<char, std::char_traits<char>, std::allocator<char> > >, std::allocator<std::pair<const std::basic_string<char, std::char_traits<char>, std::allocator<char> >, std::basic_string<char, std::char_traits<char>, std::allocator<char> > > > >, std::less<std::basic_string<char, std::char_traits<char>, std::allocator<char> > >, std::allocator<std::pair<const std::basic_string<char, std::char_traits<char>, std::allocator<char> >, std::map<std::basic_string<char, std::char_traits<char>, std::allocator<char> >, std::basic_string<char, std::char_traits<char>, std::allocator<char> >, std::less<std::basic_string<char, std::char_traits<char>, std::allocator<char> > >, std::allocator<std::pair<const std::basic_string<char, std::char_traits<char>, std::allocator<char> >, std::basic_string<char, std::char_traits<char>, std::allocator<char> > > > > > > >::begin
FUNC 15402 15 0 std::_Rb_tree_iterator<std::pair<const std::basic_string<char, std::char_traits<char>, std::allocator<char> >, std::map<std::basic_string<char, std::char_traits<char>, std::allocator<char> >, std::basic_string<char, std::char_traits<char>, std::allocator<char> >, std::less<std::basic_string<char, std::char_traits<char>, std::allocator<char> > >, std::allocator<std::pair<const std::basic_string<char, std::char_traits<char>, std::allocator<char> >, std::basic_string<char, std::char_traits<char>, std::allocator<char> > > > > > >::operator->
FUNC 15418 25 0 std::map<std::basic_string<char, std::char_traits<char>, std::allocator<char> >, std::basic_string<char, std::char_traits<char>, std::allocator<char> >, std::less<std::basic_string<char, std::char_traits<char>, std::allocator<char> > >, std::allocator<std::pair<const std::basic_string<char, std::char_traits<char>, std::allocator<char> >, std::basic_string<char, std::char_traits<char>, std::allocator<char> > > > >::map
FUNC 1543e 1a 0 std::allocator<std::_Rb_tree_node<std::pair<const std::basic_string<char, std::char_traits<char>, std::allocator<char> >, IEC103::stConfigParam> > >::~allocator
FUNC 15458 69 0 std::_Rb_tree<std::basic_string<char, std::char_traits<char>, std::allocator<char> >, std::pair<const std::basic_string<char, std::char_traits<char>, std::allocator<char> >, IEC103::stConfigParam>, std::_Select1st<std::pair<const std::basic_string<char, std::char_traits<char>, std::allocator<char> >, IEC103::stConfigParam> >, std::less<std::basic_string<char, std::char_traits<char>, std::allocator<char> > >, std::allocator<std::pair<const std::basic_string<char, std::char_traits<char>, std::allocator<char> >, IEC103::stConfigParam> > >::_M_erase
FUNC 154c2 12 0 std::_Rb_tree<std::basic_string<char, std::char_traits<char>, std::allocator<char> >, std::pair<const std::basic_string<char, std::char_traits<char>, std::allocator<char> >, IEC103::stConfigParam>, std::_Select1st<std::pair<const std::basic_string<char, std::char_traits<char>, std::allocator<char> >, IEC103::stConfigParam> >, std::less<std::basic_string<char, std::char_traits<char>, std::allocator<char> > >, std::allocator<std::pair<const std::basic_string<char, std::char_traits<char>, std::allocator<char> >, IEC103::stConfigParam> > >::_M_begin
FUNC 154d4 12 0 std::_Rb_tree<std::basic_string<char, std::char_traits<char>, std::allocator<char> >, std::pair<const std::basic_string<char, std::char_traits<char>, std::allocator<char> >, IEC103::stConfigParam>, std::_Select1st<std::pair<const std::basic_string<char, std::char_traits<char>, std::allocator<char> >, IEC103::stConfigParam> >, std::less<std::basic_string<char, std::char_traits<char>, std::allocator<char> > >, std::allocator<std::pair<const std::basic_string<char, std::char_traits<char>, std::allocator<char> >, IEC103::stConfigParam> > >::size
FUNC 154e6 2c 0 std::_Rb_tree<std::basic_string<char, std::char_traits<char>, std::allocator<char> >, std::pair<const std::basic_string<char, std::char_traits<char>, std::allocator<char> >, IEC103::stConfigParam>, std::_Select1st<std::pair<const std::basic_string<char, std::char_traits<char>, std::allocator<char> >, IEC103::stConfigParam> >, std::less<std::basic_string<char, std::char_traits<char>, std::allocator<char> > >, std::allocator<std::pair<const std::basic_string<char, std::char_traits<char>, std::allocator<char> >, IEC103::stConfigParam> > >::begin
FUNC 15512 1a 0 std::allocator<std::_Rb_tree_node<std::pair<const std::basic_string<char, std::char_traits<char>, std::allocator<char> >, std::map<std::basic_string<char, std::char_traits<char>, std::allocator<char> >, std::basic_string<char, std::char_traits<char>, std::allocator<char> >, std::less<std::basic_string<char, std::char_traits<char>, std::allocator<char> > >, std::allocator<std::pair<const std::basic_string<char, std::char_traits<char>, std::allocator<char> >, std::basic_string<char, std::char_traits<char>, std::allocator<char> > > > > > > >::~allocator
FUNC 1552c 69 0 std::_Rb_tree<std::basic_string<char, std::char_traits<char>, std::allocator<char> >, std::pair<const std::basic_string<char, std::char_traits<char>, std::allocator<char> >, std::map<std::basic_string<char, std::char_traits<char>, std::allocator<char> >, std::basic_string<char, std::char_traits<char>, std::allocator<char> >, std::less<std::basic_string<char, std::char_traits<char>, std::allocator<char> > >, std::allocator<std::pair<const std::basic_string<char, std::char_traits<char>, std::allocator<char> >, std::basic_string<char, std::char_traits<char>, std::allocator<char> > > > > >, std::_Select1st<std::pair<const std::basic_string<char, std::char_traits<char>, std::allocator<char> >, std::map<std::basic_string<char, std::char_traits<char>, std::allocator<char> >, std::basic_string<char, std::char_traits<char>, std::allocator<char> >, std::less<std::basic_string<char, std::char_traits<char>, std::allocator<char> > >, std::allocator<std::pair<const std::basic_string<char, std::char_traits<char>, std::allocator<char> >, std::basic_string<char, std::char_traits<char>, std::allocator<char> > > > > > >, std::less<std::basic_string<char, std::char_traits<char>, std::allocator<char> > >, std::allocator<std::pair<const std::basic_string<char, std::char_traits<char>, std::allocator<char> >, std::map<std::basic_string<char, std::char_traits<char>, std::allocator<char> >, std::basic_string<char, std::char_traits<char>, std::allocator<char> >, std::less<std::basic_string<char, std::char_traits<char>, std::allocator<char> > >, std::allocator<std::pair<const std::basic_string<char, std::char_traits<char>, std::allocator<char> >, std::basic_string<char, std::char_traits<char>, std::allocator<char> > > > > > > >::_M_erase
FUNC 15596 12 0 std::_Rb_tree<std::basic_string<char, std::char_traits<char>, std::allocator<char> >, std::pair<const std::basic_string<char, std::char_traits<char>, std::allocator<char> >, std::map<std::basic_string<char, std::char_traits<char>, std::allocator<char> >, std::basic_string<char, std::char_traits<char>, std::allocator<char> >, std::less<std::basic_string<char, std::char_traits<char>, std::allocator<char> > >, std::allocator<std::pair<const std::basic_string<char, std::char_traits<char>, std::allocator<char> >, std::basic_string<char, std::char_traits<char>, std::allocator<char> > > > > >, std::_Select1st<std::pair<const std::basic_string<char, std::char_traits<char>, std::allocator<char> >, std::map<std::basic_string<char, std::char_traits<char>, std::allocator<char> >, std::basic_string<char, std::char_traits<char>, std::allocator<char> >, std::less<std::basic_string<char, std::char_traits<char>, std::allocator<char> > >, std::allocator<std::pair<const std::basic_string<char, std::char_traits<char>, std::allocator<char> >, std::basic_string<char, std::char_traits<char>, std::allocator<char> > > > > > >, std::less<std::basic_string<char, std::char_traits<char>, std::allocator<char> > >, std::allocator<std::pair<const std::basic_string<char, std::char_traits<char>, std::allocator<char> >, std::map<std::basic_string<char, std::char_traits<char>, std::allocator<char> >, std::basic_string<char, std::char_traits<char>, std::allocator<char> >, std::less<std::basic_string<char, std::char_traits<char>, std::allocator<char> > >, std::allocator<std::pair<const std::basic_string<char, std::char_traits<char>, std::allocator<char> >, std::basic_string<char, std::char_traits<char>, std::allocator<char> > > > > > > >::_M_begin
FUNC 155a8 2c 0 std::_Rb_tree<std::basic_string<char, std::char_traits<char>, std::allocator<char> >, std::pair<const std::basic_string<char, std::char_traits<char>, std::allocator<char> >, std::map<std::basic_string<char, std::char_traits<char>, std::allocator<char> >, std::basic_string<char, std::char_traits<char>, std::allocator<char> >, std::less<std::basic_string<char, std::char_traits<char>, std::allocator<char> > >, std::allocator<std::pair<const std::basic_string<char, std::char_traits<char>, std::allocator<char> >, std::basic_string<char, std::char_traits<char>, std::allocator<char> > > > > >, std::_Select1st<std::pair<const std::basic_string<char, std::char_traits<char>, std::allocator<char> >, std::map<std::basic_string<char, std::char_traits<char>, std::allocator<char> >, std::basic_string<char, std::char_traits<char>, std::allocator<char> >, std::less<std::basic_string<char, std::char_traits<char>, std::allocator<char> > >, std::allocator<std::pair<const std::basic_string<char, std::char_traits<char>, std::allocator<char> >, std::basic_string<char, std::char_traits<char>, std::allocator<char> > > > > > >, std::less<std::basic_string<char, std::char_traits<char>, std::allocator<char> > >, std::allocator<std::pair<const std::basic_string<char, std::char_traits<char>, std::allocator<char> >, std::map<std::basic_string<char, std::char_traits<char>, std::allocator<char> >, std::basic_string<char, std::char_traits<char>, std::allocator<char> >, std::less<std::basic_string<char, std::char_traits<char>, std::allocator<char> > >, std::allocator<std::pair<const std::basic_string<char, std::char_traits<char>, std::allocator<char> >, std::basic_string<char, std::char_traits<char>, std::allocator<char> > > > > > > >::begin
FUNC 155d4 11d 0 std::_Rb_tree<std::basic_string<char, std::char_traits<char>, std::allocator<char> >, std::pair<const std::basic_string<char, std::char_traits<char>, std::allocator<char> >, std::basic_string<char, std::char_traits<char>, std::allocator<char> > >, std::_Select1st<std::pair<const std::basic_string<char, std::char_traits<char>, std::allocator<char> >, std::basic_string<char, std::char_traits<char>, std::allocator<char> > > >, std::less<std::basic_string<char, std::char_traits<char>, std::allocator<char> > >, std::allocator<std::pair<const std::basic_string<char, std::char_traits<char>, std::allocator<char> >, std::basic_string<char, std::char_traits<char>, std::allocator<char> > > > >::_Rb_tree
FUNC 156f2 12 0 std::_Rb_tree<std::basic_string<char, std::char_traits<char>, std::allocator<char> >, std::pair<const std::basic_string<char, std::char_traits<char>, std::allocator<char> >, std::basic_string<char, std::char_traits<char>, std::allocator<char> > >, std::_Select1st<std::pair<const std::basic_string<char, std::char_traits<char>, std::allocator<char> >, std::basic_string<char, std::char_traits<char>, std::allocator<char> > > >, std::less<std::basic_string<char, std::char_traits<char>, std::allocator<char> > >, std::allocator<std::pair<const std::basic_string<char, std::char_traits<char>, std::allocator<char> >, std::basic_string<char, std::char_traits<char>, std::allocator<char> > > > >::_M_root
FUNC 15704 169 0 std::_Rb_tree<std::basic_string<char, std::char_traits<char>, std::allocator<char> >, std::pair<const std::basic_string<char, std::char_traits<char>, std::allocator<char> >, std::basic_string<char, std::char_traits<char>, std::allocator<char> > >, std::_Select1st<std::pair<const std::basic_string<char, std::char_traits<char>, std::allocator<char> >, std::basic_string<char, std::char_traits<char>, std::allocator<char> > > >, std::less<std::basic_string<char, std::char_traits<char>, std::allocator<char> > >, std::allocator<std::pair<const std::basic_string<char, std::char_traits<char>, std::allocator<char> >, std::basic_string<char, std::char_traits<char>, std::allocator<char> > > > >::_M_copy
FUNC 1586e 12 0 std::_Rb_tree<std::basic_string<char, std::char_traits<char>, std::allocator<char> >, std::pair<const std::basic_string<char, std::char_traits<char>, std::allocator<char> >, std::basic_string<char, std::char_traits<char>, std::allocator<char> > >, std::_Select1st<std::pair<const std::basic_string<char, std::char_traits<char>, std::allocator<char> >, std::basic_string<char, std::char_traits<char>, std::allocator<char> > > >, std::less<std::basic_string<char, std::char_traits<char>, std::allocator<char> > >, std::allocator<std::pair<const std::basic_string<char, std::char_traits<char>, std::allocator<char> >, std::basic_string<char, std::char_traits<char>, std::allocator<char> > > > >::_M_begin
FUNC 15880 1a 0 std::_Rb_tree<std::basic_string<char, std::char_traits<char>, std::allocator<char> >, std::pair<const std::basic_string<char, std::char_traits<char>, std::allocator<char> >, std::basic_string<char, std::char_traits<char>, std::allocator<char> > >, std::_Select1st<std::pair<const std::basic_string<char, std::char_traits<char>, std::allocator<char> >, std::basic_string<char, std::char_traits<char>, std::allocator<char> > > >, std::less<std::basic_string<char, std::char_traits<char>, std::allocator<char> > >, std::allocator<std::pair<const std::basic_string<char, std::char_traits<char>, std::allocator<char> >, std::basic_string<char, std::char_traits<char>, std::allocator<char> > > > >::_S_minimum
FUNC 1589a 1a 0 std::_Rb_tree<std::basic_string<char, std::char_traits<char>, std::allocator<char> >, std::pair<const std::basic_string<char, std::char_traits<char>, std::allocator<char> >, std::basic_string<char, std::char_traits<char>, std::allocator<char> > >, std::_Select1st<std::pair<const std::basic_string<char, std::char_traits<char>, std::allocator<char> >, std::basic_string<char, std::char_traits<char>, std::allocator<char> > > >, std::less<std::basic_string<char, std::char_traits<char>, std::allocator<char> > >, std::allocator<std::pair<const std::basic_string<char, std::char_traits<char>, std::allocator<char> >, std::basic_string<char, std::char_traits<char>, std::allocator<char> > > > >::_S_maximum
FUNC 158b4 a 0 __gnu_cxx::new_allocator<std::_Rb_tree_node<std::pair<const std::basic_string<char, std::char_traits<char>, std::allocator<char> >, IEC103::stConfigParam> > >::~new_allocator
FUNC 158be 12 0 std::_Rb_tree<std::basic_string<char, std::char_traits<char>, std::allocator<char> >, std::pair<const std::basic_string<char, std::char_traits<char>, std::allocator<char> >, IEC103::stConfigParam>, std::_Select1st<std::pair<const std::basic_string<char, std::char_traits<char>, std::allocator<char> >, IEC103::stConfigParam> >, std::less<std::basic_string<char, std::char_traits<char>, std::allocator<char> > >, std::allocator<std::pair<const std::basic_string<char, std::char_traits<char>, std::allocator<char> >, IEC103::stConfigParam> > >::_S_right
FUNC 158d0 12 0 std::_Rb_tree<std::basic_string<char, std::char_traits<char>, std::allocator<char> >, std::pair<const std::basic_string<char, std::char_traits<char>, std::allocator<char> >, IEC103::stConfigParam>, std::_Select1st<std::pair<const std::basic_string<char, std::char_traits<char>, std::allocator<char> >, IEC103::stConfigParam> >, std::less<std::basic_string<char, std::char_traits<char>, std::allocator<char> > >, std::allocator<std::pair<const std::basic_string<char, std::char_traits<char>, std::allocator<char> >, IEC103::stConfigParam> > >::_S_left
FUNC 158e2 86 0 std::_Rb_tree<std::basic_string<char, std::char_traits<char>, std::allocator<char> >, std::pair<const std::basic_string<char, std::char_traits<char>, std::allocator<char> >, IEC103::stConfigParam>, std::_Select1st<std::pair<const std::basic_string<char, std::char_traits<char>, std::allocator<char> >, IEC103::stConfigParam> >, std::less<std::basic_string<char, std::char_traits<char>, std::allocator<char> > >, std::allocator<std::pair<const std::basic_string<char, std::char_traits<char>, std::allocator<char> >, IEC103::stConfigParam> > >::_M_destroy_node
FUNC 15968 e 0 std::_Rb_tree<std::basic_string<char, std::char_traits<char>, std::allocator<char> >, std::pair<const std::basic_string<char, std::char_traits<char>, std::allocator<char> >, IEC103::stConfigParam>, std::_Select1st<std::pair<const std::basic_string<char, std::char_traits<char>, std::allocator<char> >, IEC103::stConfigParam> >, std::less<std::basic_string<char, std::char_traits<char>, std::allocator<char> > >, std::allocator<std::pair<const std::basic_string<char, std::char_traits<char>, std::allocator<char> >, IEC103::stConfigParam> > >::_M_get_Node_allocator
FUNC 15976 19 0 std::_Rb_tree_iterator<std::pair<const std::basic_string<char, std::char_traits<char>, std::allocator<char> >, IEC103::stConfigParam> >::_Rb_tree_iterator
FUNC 15990 a 0 __gnu_cxx::new_allocator<std::_Rb_tree_node<std::pair<const std::basic_string<char, std::char_traits<char>, std::allocator<char> >, std::map<std::basic_string<char, std::char_traits<char>, std::allocator<char> >, std::basic_string<char, std::char_traits<char>, std::allocator<char> >, std::less<std::basic_string<char, std::char_traits<char>, std::allocator<char> > >, std::allocator<std::pair<const std::basic_string<char, std::char_traits<char>, std::allocator<char> >, std::basic_string<char, std::char_traits<char>, std::allocator<char> > > > > > > >::~new_allocator
FUNC 1599a 12 0 std::_Rb_tree<std::basic_string<char, std::char_traits<char>, std::allocator<char> >, std::pair<const std::basic_string<char, std::char_traits<char>, std::allocator<char> >, std::map<std::basic_string<char, std::char_traits<char>, std::allocator<char> >, std::basic_string<char, std::char_traits<char>, std::allocator<char> >, std::less<std::basic_string<char, std::char_traits<char>, std::allocator<char> > >, std::allocator<std::pair<const std::basic_string<char, std::char_traits<char>, std::allocator<char> >, std::basic_string<char, std::char_traits<char>, std::allocator<char> > > > > >, std::_Select1st<std::pair<const std::basic_string<char, std::char_traits<char>, std::allocator<char> >, std::map<std::basic_string<char, std::char_traits<char>, std::allocator<char> >, std::basic_string<char, std::char_traits<char>, std::allocator<char> >, std::less<std::basic_string<char, std::char_traits<char>, std::allocator<char> > >, std::allocator<std::pair<const std::basic_string<char, std::char_traits<char>, std::allocator<char> >, std::basic_string<char, std::char_traits<char>, std::allocator<char> > > > > > >, std::less<std::basic_string<char, std::char_traits<char>, std::allocator<char> > >, std::allocator<std::pair<const std::basic_string<char, std::char_traits<char>, std::allocator<char> >, std::map<std::basic_string<char, std::char_traits<char>, std::allocator<char> >, std::basic_string<char, std::char_traits<char>, std::allocator<char> >, std::less<std::basic_string<char, std::char_traits<char>, std::allocator<char> > >, std::allocator<std::pair<const std::basic_string<char, std::char_traits<char>, std::allocator<char> >, std::basic_string<char, std::char_traits<char>, std::allocator<char> > > > > > > >::_S_right
FUNC 159ac 12 0 std::_Rb_tree<std::basic_string<char, std::char_traits<char>, std::allocator<char> >, std::pair<const std::basic_string<char, std::char_traits<char>, std::allocator<char> >, std::map<std::basic_string<char, std::char_traits<char>, std::allocator<char> >, std::basic_string<char, std::char_traits<char>, std::allocator<char> >, std::less<std::basic_string<char, std::char_traits<char>, std::allocator<char> > >, std::allocator<std::pair<const std::basic_string<char, std::char_traits<char>, std::allocator<char> >, std::basic_string<char, std::char_traits<char>, std::allocator<char> > > > > >, std::_Select1st<std::pair<const std::basic_string<char, std::char_traits<char>, std::allocator<char> >, std::map<std::basic_string<char, std::char_traits<char>, std::allocator<char> >, std::basic_string<char, std::char_traits<char>, std::allocator<char> >, std::less<std::basic_string<char, std::char_traits<char>, std::allocator<char> > >, std::allocator<std::pair<const std::basic_string<char, std::char_traits<char>, std::allocator<char> >, std::basic_string<char, std::char_traits<char>, std::allocator<char> > > > > > >, std::less<std::basic_string<char, std::char_traits<char>, std::allocator<char> > >, std::allocator<std::pair<const std::basic_string<char, std::char_traits<char>, std::allocator<char> >, std::map<std::basic_string<char, std::char_traits<char>, std::allocator<char> >, std::basic_string<char, std::char_traits<char>, std::allocator<char> >, std::less<std::basic_string<char, std::char_traits<char>, std::allocator<char> > >, std::allocator<std::pair<const std::basic_string<char, std::char_traits<char>, std::allocator<char> >, std::basic_string<char, std::char_traits<char>, std::allocator<char> > > > > > > >::_S_left
FUNC 159be 86 0 std::_Rb_tree<std::basic_string<char, std::char_traits<char>, std::allocator<char> >, std::pair<const std::basic_string<char, std::char_traits<char>, std::allocator<char> >, std::map<std::basic_string<char, std::char_traits<char>, std::allocator<char> >, std::basic_string<char, std::char_traits<char>, std::allocator<char> >, std::less<std::basic_string<char, std::char_traits<char>, std::allocator<char> > >, std::allocator<std::pair<const std::basic_string<char, std::char_traits<char>, std::allocator<char> >, std::basic_string<char, std::char_traits<char>, std::allocator<char> > > > > >, std::_Select1st<std::pair<const std::basic_string<char, std::char_traits<char>, std::allocator<char> >, std::map<std::basic_string<char, std::char_traits<char>, std::allocator<char> >, std::basic_string<char, std::char_traits<char>, std::allocator<char> >, std::less<std::basic_string<char, std::char_traits<char>, std::allocator<char> > >, std::allocator<std::pair<const std::basic_string<char, std::char_traits<char>, std::allocator<char> >, std::basic_string<char, std::char_traits<char>, std::allocator<char> > > > > > >, std::less<std::basic_string<char, std::char_traits<char>, std::allocator<char> > >, std::allocator<std::pair<const std::basic_string<char, std::char_traits<char>, std::allocator<char> >, std::map<std::basic_string<char, std::char_traits<char>, std::allocator<char> >, std::basic_string<char, std::char_traits<char>, std::allocator<char> >, std::less<std::basic_string<char, std::char_traits<char>, std::allocator<char> > >, std::allocator<std::pair<const std::basic_string<char, std::char_traits<char>, std::allocator<char> >, std::basic_string<char, std::char_traits<char>, std::allocator<char> > > > > > > >::_M_destroy_node
FUNC 15a44 e 0 std::_Rb_tree<std::basic_string<char, std::char_traits<char>, std::allocator<char> >, std::pair<const std::basic_string<char, std::char_traits<char>, std::allocator<char> >, std::map<std::basic_string<char, std::char_traits<char>, std::allocator<char> >, std::basic_string<char, std::char_traits<char>, std::allocator<char> >, std::less<std::basic_string<char, std::char_traits<char>, std::allocator<char> > >, std::allocator<std::pair<const std::basic_string<char, std::char_traits<char>, std::allocator<char> >, std::basic_string<char, std::char_traits<char>, std::allocator<char> > > > > >, std::_Select1st<std::pair<const std::basic_string<char, std::char_traits<char>, std::allocator<char> >, std::map<std::basic_string<char, std::char_traits<char>, std::allocator<char> >, std::basic_string<char, std::char_traits<char>, std::allocator<char> >, std::less<std::basic_string<char, std::char_traits<char>, std::allocator<char> > >, std::allocator<std::pair<const std::basic_string<char, std::char_traits<char>, std::allocator<char> >, std::basic_string<char, std::char_traits<char>, std::allocator<char> > > > > > >, std::less<std::basic_string<char, std::char_traits<char>, std::allocator<char> > >, std::allocator<std::pair<const std::basic_string<char, std::char_traits<char>, std::allocator<char> >, std::map<std::basic_string<char, std::char_traits<char>, std::allocator<char> >, std::basic_string<char, std::char_traits<char>, std::allocator<char> >, std::less<std::basic_string<char, std::char_traits<char>, std::allocator<char> > >, std::allocator<std::pair<const std::basic_string<char, std::char_traits<char>, std::allocator<char> >, std::basic_string<char, std::char_traits<char>, std::allocator<char> > > > > > > >::_M_get_Node_allocator
FUNC 15a52 19 0 std::_Rb_tree_iterator<std::pair<const std::basic_string<char, std::char_traits<char>, std::allocator<char> >, std::map<std::basic_string<char, std::char_traits<char>, std::allocator<char> >, std::basic_string<char, std::char_traits<char>, std::allocator<char> >, std::less<std::basic_string<char, std::char_traits<char>, std::allocator<char> > >, std::allocator<std::pair<const std::basic_string<char, std::char_traits<char>, std::allocator<char> >, std::basic_string<char, std::char_traits<char>, std::allocator<char> > > > > > >::_Rb_tree_iterator
FUNC 15a6c 9b 0 std::_Rb_tree<std::basic_string<char, std::char_traits<char>, std::allocator<char> >, std::pair<const std::basic_string<char, std::char_traits<char>, std::allocator<char> >, std::basic_string<char, std::char_traits<char>, std::allocator<char> > >, std::_Select1st<std::pair<const std::basic_string<char, std::char_traits<char>, std::allocator<char> >, std::basic_string<char, std::char_traits<char>, std::allocator<char> > > >, std::less<std::basic_string<char, std::char_traits<char>, std::allocator<char> > >, std::allocator<std::pair<const std::basic_string<char, std::char_traits<char>, std::allocator<char> >, std::basic_string<char, std::char_traits<char>, std::allocator<char> > > > >::_Rb_tree_impl<std::less<std::basic_string<char, std::char_traits<char>, std::allocator<char> > >, false>::_Rb_tree_impl
FUNC 15b08 55 0 std::_Rb_tree<std::basic_string<char, std::char_traits<char>, std::allocator<char> >, std::pair<const std::basic_string<char, std::char_traits<char>, std::allocator<char> >, std::basic_string<char, std::char_traits<char>, std::allocator<char> > >, std::_Select1st<std::pair<const std::basic_string<char, std::char_traits<char>, std::allocator<char> >, std::basic_string<char, std::char_traits<char>, std::allocator<char> > > >, std::less<std::basic_string<char, std::char_traits<char>, std::allocator<char> > >, std::allocator<std::pair<const std::basic_string<char, std::char_traits<char>, std::allocator<char> >, std::basic_string<char, std::char_traits<char>, std::allocator<char> > > > >::_M_clone_node
FUNC 15b5d 12 0 std::_Rb_tree<std::basic_string<char, std::char_traits<char>, std::allocator<char> >, std::pair<const std::basic_string<char, std::char_traits<char>, std::allocator<char> >, std::basic_string<char, std::char_traits<char>, std::allocator<char> > >, std::_Select1st<std::pair<const std::basic_string<char, std::char_traits<char>, std::allocator<char> >, std::basic_string<char, std::char_traits<char>, std::allocator<char> > > >, std::less<std::basic_string<char, std::char_traits<char>, std::allocator<char> > >, std::allocator<std::pair<const std::basic_string<char, std::char_traits<char>, std::allocator<char> >, std::basic_string<char, std::char_traits<char>, std::allocator<char> > > > >::_S_left
FUNC 15b70 3b 0 std::_Rb_tree<std::basic_string<char, std::char_traits<char>, std::allocator<char> >, std::pair<const std::basic_string<char, std::char_traits<char>, std::allocator<char> >, IEC103::stConfigParam>, std::_Select1st<std::pair<const std::basic_string<char, std::char_traits<char>, std::allocator<char> >, IEC103::stConfigParam> >, std::less<std::basic_string<char, std::char_traits<char>, std::allocator<char> > >, std::allocator<std::pair<const std::basic_string<char, std::char_traits<char>, std::allocator<char> >, IEC103::stConfigParam> > >::get_allocator
FUNC 15bac 1a 0 std::allocator<std::pair<const std::basic_string<char, std::char_traits<char>, std::allocator<char> >, IEC103::stConfigParam> >::~allocator
FUNC 15bc6 84 0 IEC103::stConfigParam::~stConfigParam
FUNC 15c4a 55 0 std::pair<const std::basic_string<char, std::char_traits<char>, std::allocator<char> >, IEC103::stConfigParam>::~pair
FUNC 15ca0 1e 0 __gnu_cxx::new_allocator<std::pair<const std::basic_string<char, std::char_traits<char>, std::allocator<char> >, IEC103::stConfigParam> >::destroy
FUNC 15cbe 2a 0 std::_Rb_tree<std::basic_string<char, std::char_traits<char>, std::allocator<char> >, std::pair<const std::basic_string<char, std::char_traits<char>, std::allocator<char> >, IEC103::stConfigParam>, std::_Select1st<std::pair<const std::basic_string<char, std::char_traits<char>, std::allocator<char> >, IEC103::stConfigParam> >, std::less<std::basic_string<char, std::char_traits<char>, std::allocator<char> > >, std::allocator<std::pair<const std::basic_string<char, std::char_traits<char>, std::allocator<char> >, IEC103::stConfigParam> > >::_M_put_node
FUNC 15ce8 3b 0 std::_Rb_tree<std::basic_string<char, std::char_traits<char>, std::allocator<char> >, std::pair<const std::basic_string<char, std::char_traits<char>, std::allocator<char> >, std::map<std::basic_string<char, std::char_traits<char>, std::allocator<char> >, std::basic_string<char, std::char_traits<char>, std::allocator<char> >, std::less<std::basic_string<char, std::char_traits<char>, std::allocator<char> > >, std::allocator<std::pair<const std::basic_string<char, std::char_traits<char>, std::allocator<char> >, std::basic_string<char, std::char_traits<char>, std::allocator<char> > > > > >, std::_Select1st<std::pair<const std::basic_string<char, std::char_traits<char>, std::allocator<char> >, std::map<std::basic_string<char, std::char_traits<char>, std::allocator<char> >, std::basic_string<char, std::char_traits<char>, std::allocator<char> >, std::less<std::basic_string<char, std::char_traits<char>, std::allocator<char> > >, std::allocator<std::pair<const std::basic_string<char, std::char_traits<char>, std::allocator<char> >, std::basic_string<char, std::char_traits<char>, std::allocator<char> > > > > > >, std::less<std::basic_string<char, std::char_traits<char>, std::allocator<char> > >, std::allocator<std::pair<const std::basic_string<char, std::char_traits<char>, std::allocator<char> >, std::map<std::basic_string<char, std::char_traits<char>, std::allocator<char> >, std::basic_string<char, std::char_traits<char>, std::allocator<char> >, std::less<std::basic_string<char, std::char_traits<char>, std::allocator<char> > >, std::allocator<std::pair<const std::basic_string<char, std::char_traits<char>, std::allocator<char> >, std::basic_string<char, std::char_traits<char>, std::allocator<char> > > > > > > >::get_allocator
FUNC 15d24 1a 0 std::allocator<std::pair<const std::basic_string<char, std::char_traits<char>, std::allocator<char> >, std::map<std::basic_string<char, std::char_traits<char>, std::allocator<char> >, std::basic_string<char, std::char_traits<char>, std::allocator<char> >, std::less<std::basic_string<char, std::char_traits<char>, std::allocator<char> > >, std::allocator<std::pair<const std::basic_string<char, std::char_traits<char>, std::allocator<char> >, std::basic_string<char, std::char_traits<char>, std::allocator<char> > > > > > >::~allocator
FUNC 15d3e 55 0 std::pair<const std::basic_string<char, std::char_traits<char>, std::allocator<char> >, std::map<std::basic_string<char, std::char_traits<char>, std::allocator<char> >, std::basic_string<char, std::char_traits<char>, std::allocator<char> >, std::less<std::basic_string<char, std::char_traits<char>, std::allocator<char> > >, std::allocator<std::pair<const std::basic_string<char, std::char_traits<char>, std::allocator<char> >, std::basic_string<char, std::char_traits<char>, std::allocator<char> > > > > >::~pair
FUNC 15d94 1e 0 __gnu_cxx::new_allocator<std::pair<const std::basic_string<char, std::char_traits<char>, std::allocator<char> >, std::map<std::basic_string<char, std::char_traits<char>, std::allocator<char> >, std::basic_string<char, std::char_traits<char>, std::allocator<char> >, std::less<std::basic_string<char, std::char_traits<char>, std::allocator<char> > >, std::allocator<std::pair<const std::basic_string<char, std::char_traits<char>, std::allocator<char> >, std::basic_string<char, std::char_traits<char>, std::allocator<char> > > > > > >::destroy
FUNC 15db2 2a 0 std::_Rb_tree<std::basic_string<char, std::char_traits<char>, std::allocator<char> >, std::pair<const std::basic_string<char, std::char_traits<char>, std::allocator<char> >, std::map<std::basic_string<char, std::char_traits<char>, std::allocator<char> >, std::basic_string<char, std::char_traits<char>, std::allocator<char> >, std::less<std::basic_string<char, std::char_traits<char>, std::allocator<char> > >, std::allocator<std::pair<const std::basic_string<char, std::char_traits<char>, std::allocator<char> >, std::basic_string<char, std::char_traits<char>, std::allocator<char> > > > > >, std::_Select1st<std::pair<const std::basic_string<char, std::char_traits<char>, std::allocator<char> >, std::map<std::basic_string<char, std::char_traits<char>, std::allocator<char> >, std::basic_string<char, std::char_traits<char>, std::allocator<char> >, std::less<std::basic_string<char, std::char_traits<char>, std::allocator<char> > >, std::allocator<std::pair<const std::basic_string<char, std::char_traits<char>, std::allocator<char> >, std::basic_string<char, std::char_traits<char>, std::allocator<char> > > > > > >, std::less<std::basic_string<char, std::char_traits<char>, std::allocator<char> > >, std::allocator<std::pair<const std::basic_string<char, std::char_traits<char>, std::allocator<char> >, std::map<std::basic_string<char, std::char_traits<char>, std::allocator<char> >, std::basic_string<char, std::char_traits<char>, std::allocator<char> >, std::less<std::basic_string<char, std::char_traits<char>, std::allocator<char> > >, std::allocator<std::pair<const std::basic_string<char, std::char_traits<char>, std::allocator<char> >, std::basic_string<char, std::char_traits<char>, std::allocator<char> > > > > > > >::_M_put_node
FUNC 15ddc 25 0 std::allocator<std::_Rb_tree_node<std::pair<const std::basic_string<char, std::char_traits<char>, std::allocator<char> >, std::basic_string<char, std::char_traits<char>, std::allocator<char> > > > >::allocator
FUNC 15e02 1e 0 std::allocator<std::pair<const std::basic_string<char, std::char_traits<char>, std::allocator<char> >, IEC103::stConfigParam> >::allocator<std::_Rb_tree_node<std::pair<const std::basic_string<char, std::char_traits<char>, std::allocator<char> >, IEC103::stConfigParam> > >
FUNC 15e20 a 0 __gnu_cxx::new_allocator<std::pair<const std::basic_string<char, std::char_traits<char>, std::allocator<char> >, IEC103::stConfigParam> >::~new_allocator
FUNC 15e2a 22 0 __gnu_cxx::new_allocator<std::_Rb_tree_node<std::pair<const std::basic_string<char, std::char_traits<char>, std::allocator<char> >, IEC103::stConfigParam> > >::deallocate
FUNC 15e4c 1e 0 std::allocator<std::pair<const std::basic_string<char, std::char_traits<char>, std::allocator<char> >, std::map<std::basic_string<char, std::char_traits<char>, std::allocator<char> >, std::basic_string<char, std::char_traits<char>, std::allocator<char> >, std::less<std::basic_string<char, std::char_traits<char>, std::allocator<char> > >, std::allocator<std::pair<const std::basic_string<char, std::char_traits<char>, std::allocator<char> >, std::basic_string<char, std::char_traits<char>, std::allocator<char> > > > > > >::allocator<std::_Rb_tree_node<std::pair<const std::basic_string<char, std::char_traits<char>, std::allocator<char> >, std::map<std::basic_string<char, std::char_traits<char>, std::allocator<char> >, std::basic_string<char, std::char_traits<char>, std::allocator<char> >, std::less<std::basic_string<char, std::char_traits<char>, std::allocator<char> > >, std::allocator<std::pair<const std::basic_string<char, std::char_traits<char>, std::allocator<char> >, std::basic_string<char, std::char_traits<char>, std::allocator<char> > > > > > > >
FUNC 15e6a a 0 __gnu_cxx::new_allocator<std::pair<const std::basic_string<char, std::char_traits<char>, std::allocator<char> >, std::map<std::basic_string<char, std::char_traits<char>, std::allocator<char> >, std::basic_string<char, std::char_traits<char>, std::allocator<char> >, std::less<std::basic_string<char, std::char_traits<char>, std::allocator<char> > >, std::allocator<std::pair<const std::basic_string<char, std::char_traits<char>, std::allocator<char> >, std::basic_string<char, std::char_traits<char>, std::allocator<char> > > > > > >::~new_allocator
FUNC 15e74 22 0 __gnu_cxx::new_allocator<std::_Rb_tree_node<std::pair<const std::basic_string<char, std::char_traits<char>, std::allocator<char> >, std::map<std::basic_string<char, std::char_traits<char>, std::allocator<char> >, std::basic_string<char, std::char_traits<char>, std::allocator<char> >, std::less<std::basic_string<char, std::char_traits<char>, std::allocator<char> > >, std::allocator<std::pair<const std::basic_string<char, std::char_traits<char>, std::allocator<char> >, std::basic_string<char, std::char_traits<char>, std::allocator<char> > > > > > > >::deallocate
FUNC 15e96 e 0 __gnu_cxx::new_allocator<std::_Rb_tree_node<std::pair<const std::basic_string<char, std::char_traits<char>, std::allocator<char> >, std::basic_string<char, std::char_traits<char>, std::allocator<char> > > > >::new_allocator
FUNC 15ea4 a 0 __gnu_cxx::new_allocator<std::pair<const std::basic_string<char, std::char_traits<char>, std::allocator<char> >, IEC103::stConfigParam> >::new_allocator
FUNC 15eae a 0 __gnu_cxx::new_allocator<std::pair<const std::basic_string<char, std::char_traits<char>, std::allocator<char> >, std::map<std::basic_string<char, std::char_traits<char>, std::allocator<char> >, std::basic_string<char, std::char_traits<char>, std::allocator<char> >, std::less<std::basic_string<char, std::char_traits<char>, std::allocator<char> > >, std::allocator<std::pair<const std::basic_string<char, std::char_traits<char>, std::allocator<char> >, std::basic_string<char, std::char_traits<char>, std::allocator<char> > > > > > >::new_allocator
FUNC 15eb8 27 0 Inet::Inet
FUNC 15ee0 35 0 Inet::~Inet
FUNC 15f16 26 0 Inet::~Inet
FUNC 15f3c 13d 0 combine_folder
FUNC 16079 23e 0 InitPaths
FUNC 162b7 31 0 InitLogging
FUNC 162e8 c8 0 GetLocalDate
FUNC 163b0 c8 0 GetCurTime
FUNC 16478 2a1 0 Logger::Logger
FUNC 1671a 138 0 Logger::~Logger
FUNC 16852 26 0 Logger::~Logger
FUNC 16878 124 0 Logger::Debug
FUNC 1699c 20c 0 Logger::Debug
FUNC 16ba8 125 0 Logger::Info
FUNC 16cce 20d 0 Logger::Info
FUNC 16edc 125 0 Logger::Warn
FUNC 17002 20d 0 Logger::Warn
FUNC 17210 125 0 Logger::Error
FUNC 17336 20d 0 Logger::Error
FUNC 17544 125 0 Logger::Fatal
FUNC 1766a 20d 0 Logger::Fatal
FUNC 17878 bc 0 Logger::GetInstance
FUNC 17934 164 0 Logger::Log
FUNC 17a98 24a 0 Logger::Log
FUNC 17ce2 266 0 Logger::Log
FUNC 17f48 b 0 Logger::GetInstancePtr
FUNC 17f54 354 0 Logger::Log
FUNC 182a8 85 0 LogMessage::LogMessage
FUNC 1832e 86 0 LogMessage::~LogMessage
FUNC 183b4 26 0 LogMessage::~LogMessage
FUNC 183da 4e 0 __static_initialization_and_destruction_0
FUNC 18428 15 0 _GLOBAL__I_Logger.cpp
FUNC 1843e 35 0 ILogger::~ILogger
FUNC 18474 26 0 ILogger::~ILogger
FUNC 1849a 12 0 Logger::stream
FUNC 184ac 12c 0 FileHelper::CreateDir
FUNC 185d8 1c 0 ILogger::ILogger
FUNC 185f4 eb 0 MemCache::MemCache
FUNC 186e0 80 0 MemCache::~MemCache
FUNC 18760 26 0 MemCache::~MemCache
FUNC 18786 74 0 MemCache::GetInstance
FUNC 187fa 4bc 0 MemCache::Init
FUNC 18cb6 af 0 MemCache::GetFunction
FUNC 18d66 1a2 0 MemCache::WritePointsValue_V
FUNC 18f08 2b 0 MemCache::Post
FUNC 18f34 3c 0 MemCache::Free
FUNC 18f70 ca 0 __static_initialization_and_destruction_0
FUNC 1903a 15 0 _GLOBAL__I_MemCache.cpp
FUNC 19050 14 0 Config::GetRedisPostName
FUNC 19064 15 0 Config::GetRedisPostSize
FUNC 1907a 39 0 std::vector<Tag, std::allocator<Tag> >::operator[]
FUNC 190b4 2d 0 std::vector<Tag, std::allocator<Tag> >::size
FUNC 190e4 2c 0 Serial485ClientService::Serial485ClientService
FUNC 19110 41 0 Serial485ClientService::~Serial485ClientService
FUNC 19152 26 0 Serial485ClientService::~Serial485ClientService
FUNC 19178 141 0 Serial485ClientService::Start
FUNC 192ba 385 0 Serial485ClientService::Read
FUNC 1963f 48 0 __static_initialization_and_destruction_0
FUNC 19687 15 0 _GLOBAL__I_Serial485ClientService.cpp
FUNC 1969c 109 0 SerialNet::SerialNet
FUNC 197a6 e3 0 SerialNet::~SerialNet
FUNC 1988a 26 0 SerialNet::~SerialNet
FUNC 198b0 485 0 SerialNet::Connect
FUNC 19d36 af 0 SerialNet::GetFunction
FUNC 19de6 312 0 SerialNet::Read
FUNC 1a0f8 b3 0 SerialNet::Write
FUNC 1a1ac 2c 0 SerialNet::DisConnect
FUNC 1a1d8 2b2 0 SerialNet::SetSpeed
FUNC 1a48a 35a 0 SerialNet::SetParity
FUNC 1a7e4 42 0 SerialNet::SumCheck
FUNC 1a826 112 0 SerialNet::ToHexString
FUNC 1a938 48 0 __static_initialization_and_destruction_0
FUNC 1a980 15 0 _GLOBAL__I_SerialNet.cpp
FUNC 1a998 cd 0 SerialService::SerialService
FUNC 1aa66 b1 0 SerialService::~SerialService
FUNC 1ab18 26 0 SerialService::~SerialService
FUNC 1ab3e 221 0 SerialService::Start
FUNC 1ad60 67e 0 SerialService::Write
FUNC 1b3de 57d 0 SerialService::Read
FUNC 1b95c 9c 0 SerialService::ParseRecvData
FUNC 1b9f8 b0 0 SerialService::ParseFixedData
FUNC 1baa8 213 0 SerialService::ParseVariableData
FUNC 1bcbc 189 0 SerialService::InitConfig
FUNC 1be45 48 0 __static_initialization_and_destruction_0
FUNC 1be8d 15 0 _GLOBAL__I_SerialService.cpp
FUNC 1bea2 33 0 Config::GetSerialPortPath
FUNC 1bed6 11 0 Config::GetSpeed
FUNC 1bee8 11 0 Config::GetDatabits
FUNC 1befa 11 0 Config::GetStopbits
FUNC 1bf0c 12 0 Config::GetParity
FUNC 1bf1e 12 0 Config::GetClientAddr
FUNC 1bf30 33 0 Config::GetIp
FUNC 1bf64 12 0 Config::GetTcpPort
FUNC 1bf76 15 0 Config::GetOutTime
FUNC 1bf8c 1a 0 std::vector<char, std::allocator<char> >::vector
FUNC 1bfa6 6e 0 std::vector<char, std::allocator<char> >::~vector
FUNC 1c014 229 0 std::vector<char, std::allocator<char> >::operator=
FUNC 1c23e 11 0 std::vector<char, std::allocator<char> >::data
FUNC 1c250 25 0 std::vector<char, std::allocator<char> >::size
FUNC 1c276 1f 0 std::vector<short unsigned int, std::allocator<short unsigned int> >::operator[]
FUNC 1c296 1a 0 std::_Vector_base<char, std::allocator<char> >::_Vector_impl::~_Vector_impl
FUNC 1c2b0 1a 0 std::_Vector_base<char, std::allocator<char> >::_Vector_base
FUNC 1c2ca 79 0 std::_Vector_base<char, std::allocator<char> >::~_Vector_base
FUNC 1c344 e 0 std::_Vector_base<char, std::allocator<char> >::_M_get_Tp_allocator
FUNC 1c352 29 0 std::_Destroy<char*, char>
FUNC 1c37c 25 0 std::vector<char, std::allocator<char> >::capacity
FUNC 1c3a2 30 0 std::vector<char, std::allocator<char> >::begin
FUNC 1c3d2 31 0 std::vector<char, std::allocator<char> >::end
FUNC 1c404 a1 0 std::vector<char, std::allocator<char> >::_M_allocate_and_copy<__gnu_cxx::__normal_iterator<const char*, std::vector<char, std::allocator<char> > > >
FUNC 1c4a6 34 0 std::_Vector_base<char, std::allocator<char> >::_M_deallocate
FUNC 1c4da 25 0 std::vector<char, std::allocator<char> >::begin
FUNC 1c4ff 46 0 std::copy<__gnu_cxx::__normal_iterator<const char*, std::vector<char, std::allocator<char> > >, __gnu_cxx::__normal_iterator<char*, std::vector<char, std::allocator<char> > > >
FUNC 1c546 29 0 std::vector<char, std::allocator<char> >::end
FUNC 1c56f 29 0 std::_Destroy<__gnu_cxx::__normal_iterator<char*, std::vector<char, std::allocator<char> > >, char>
FUNC 1c598 46 0 std::copy<char*, char*>
FUNC 1c5de 31 0 std::__uninitialized_copy_a<char*, char*, char>
FUNC 1c610 3d 0 std::_Vector_base<char, std::allocator<char> >::_Vector_impl::_Vector_impl
FUNC 1c64d 25 0 std::_Destroy<char*>
FUNC 1c672 1c 0 __gnu_cxx::__normal_iterator<const char*, std::vector<char, std::allocator<char> > >::__normal_iterator
FUNC 1c68e 38 0 std::_Vector_base<char, std::allocator<char> >::_M_allocate
FUNC 1c6c6 31 0 std::__uninitialized_copy_a<__gnu_cxx::__normal_iterator<const char*, std::vector<char, std::allocator<char> > >, char*, char>
FUNC 1c6f8 22 0 __gnu_cxx::new_allocator<char>::deallocate
FUNC 1c71a 1c 0 __gnu_cxx::__normal_iterator<char*, std::vector<char, std::allocator<char> > >::__normal_iterator
FUNC 1c736 e 0 std::__miter_base<__gnu_cxx::__normal_iterator<const char*, std::vector<char, std::allocator<char> > >, false>::__b
FUNC 1c744 73 0 std::__copy_move_a2<false, __gnu_cxx::__normal_iterator<const char*, std::vector<char, std::allocator<char> > >, __gnu_cxx::__normal_iterator<char*, std::vector<char, std::allocator<char> > > >
FUNC 1c7b7 25 0 std::_Destroy<__gnu_cxx::__normal_iterator<char*, std::vector<char, std::allocator<char> > > >
FUNC 1c7dc e 0 std::__miter_base<char*, false>::__b
FUNC 1c7ea 58 0 std::__copy_move_a2<false, char*, char*>
FUNC 1c842 2d 0 std::uninitialized_copy<char*, char*>
FUNC 1c86f e 0 std::_Destroy_aux<true>::__destroy<char*>
FUNC 1c87e 47 0 __gnu_cxx::new_allocator<char>::allocate
FUNC 1c8c5 2d 0 std::uninitialized_copy<__gnu_cxx::__normal_iterator<const char*, std::vector<char, std::allocator<char> > >, char*>
FUNC 1c8f2 1d 0 std::__niter_base<__gnu_cxx::__normal_iterator<const char*, std::vector<char, std::allocator<char> > >, true>::__b
FUNC 1c90f 1d 0 std::__niter_base<__gnu_cxx::__normal_iterator<char*, std::vector<char, std::allocator<char> > >, true>::__b
FUNC 1c92c 31 0 std::__copy_move_a<false, const char*, char*>
FUNC 1c95d e 0 std::_Destroy_aux<true>::__destroy<__gnu_cxx::__normal_iterator<char*, std::vector<char, std::allocator<char> > > >
FUNC 1c96b e 0 std::__niter_base<char*, false>::__b
FUNC 1c979 31 0 std::__copy_move_a<false, char*, char*>
FUNC 1c9aa 2d 0 std::__uninitialized_copy<true>::uninitialized_copy<char*, char*>
FUNC 1c9d8 11 0 __gnu_cxx::new_allocator<char>::max_size
FUNC 1c9e9 2d 0 std::__uninitialized_copy<true>::uninitialized_copy<__gnu_cxx::__normal_iterator<const char*, std::vector<char, std::allocator<char> > >, char*>
FUNC 1ca16 e 0 __gnu_cxx::__normal_iterator<const char*, std::vector<char, std::allocator<char> > >::base
FUNC 1ca24 e 0 __gnu_cxx::__normal_iterator<char*, std::vector<char, std::allocator<char> > >::base
FUNC 1ca32 52 0 std::__copy_move<false, true, std::random_access_iterator_tag>::__copy_m<char>
FUNC 1ca84 46 0 std::copy<__gnu_cxx::__normal_iterator<const char*, std::vector<char, std::allocator<char> > >, char*>
FUNC 1caca 58 0 std::__copy_move_a2<false, __gnu_cxx::__normal_iterator<const char*, std::vector<char, std::allocator<char> > >, char*>
FUNC 1cb24 c7 0 Service::Service
FUNC 1cbec ad 0 Service::~Service
FUNC 1cc9a 26 0 Service::~Service
FUNC 1ccc0 a 0 Service::InitConfig
FUNC 1ccca 2a 0 Service::Init
FUNC 1ccf4 f2 0 Service::setPointAddrMap
FUNC 1cde6 285 0 Service::Start
FUNC 1d06c 837 0 Service::Write
FUNC 1d8a4 476 0 Service::Read
FUNC 1dd1a 15e 0 Service::ParseRecvData
FUNC 1de78 6d 0 Service::ParseFixedData
FUNC 1dee6 181 0 Service::ParseVariableData
FUNC 1e068 47 0 Service::CmdResetCon
FUNC 1e0b0 47 0 Service::CmdResetNum
FUNC 1e0f8 4b 0 Service::CmdGetDataLv1
FUNC 1e144 4b 0 Service::CmdGetDataLv2
FUNC 1e190 13a 0 Service::CmdFixedData
FUNC 1e2ca 3ad 0 Service::CmdSetTimeStamp
FUNC 1e678 22c 0 Service::CmdResetEventAlarm
FUNC 1e8a4 347 0 Service::CmdSettingDownload
FUNC 1ebec 347 0 Service::CmdSettingModify
FUNC 1ef34 23f 0 Service::CmdGetAll
FUNC 1f174 26d 0 Service::CmdGetGroupValue
FUNC 1f3e2 273 0 Service::CmdGetEntryValue
FUNC 1f656 42 0 Service::SumCheck
FUNC 1f698 381 0 Service::ParseASDU44
FUNC 1fa1a 2f7 0 Service::ParseASDU40
FUNC 1fd12 3c 0 Service::ParseASDU41
FUNC 1fd4e 337 0 Service::ParseASDU42
FUNC 20086 45e 0 Service::ParseASDU50
FUNC 204e4 3f3 0 Service::ParseASDU1
FUNC 208d8 469 0 Service::ParseASDU2
FUNC 20d42 124 0 Service::GetGlobalAddrByPrivateAddr
FUNC 20e66 a3 0 Service::GetRateByPrivateAddr
FUNC 20f0a 112 0 Service::ToHexString
FUNC 2101c 4dc 0 Service::InitPointAddrMap
FUNC 214f8 a4 0 Service::StartBreakHeart
FUNC 2159c db 0 Service::ThreadFunc
FUNC 21678 1a7 0 Service::ParseASDU10
FUNC 21820 491 0 Service::ParseASDU10AllValue
FUNC 21cb1 ca 0 __static_initialization_and_destruction_0
FUNC 21d7b 15 0 _GLOBAL__I_Service.cpp
FUNC 21d90 12 0 Config::GetUdpPort
FUNC 21da2 15 0 Config::GetId
FUNC 21db8 14 0 Config::GetIedName
FUNC 21dcc 66 0 Tag::Tag
FUNC 21e32 50 0 Tag::~Tag
FUNC 21e82 63 0 Tag::operator=
FUNC 21ee6 8b 0 Tag::ZeroTag
FUNC 21f72 1a 0 std::map<std::basic_string<char, std::char_traits<char>, std::allocator<char> >, Service::Point103, std::less<std::basic_string<char, std::char_traits<char>, std::allocator<char> > >, std::allocator<std::pair<const std::basic_string<char, std::char_traits<char>, std::allocator<char> >, Service::Point103> > >::~map
FUNC 21f8c 1e 0 Service::Point103::Point103
FUNC 21faa 1e 0 Service::Point103::~Point103
FUNC 21fc8 3d 0 Service::Point103::operator=
FUNC 22006 39 0 Service::Point103::Point103
FUNC 22040 1e 0 std::pair<char*, Service::Point103>::~pair
FUNC 2205e 55 0 std::pair<const std::basic_string<char, std::char_traits<char>, std::allocator<char> >, Service::Point103>::~pair
FUNC 220b4 1a 0 std::vector<Tag, std::allocator<Tag> >::vector
FUNC 220ce 6e 0 std::vector<Tag, std::allocator<Tag> >::~vector
FUNC 2213c 1a 0 std::map<std::basic_string<char, std::char_traits<char>, std::allocator<char> >, Service::Point103, std::less<std::basic_string<char, std::char_traits<char>, std::allocator<char> > >, std::allocator<std::pair<const std::basic_string<char, std::char_traits<char>, std::allocator<char> >, Service::Point103> > >::map
FUNC 22156 1a 0 std::_Rb_tree<std::basic_string<char, std::char_traits<char>, std::allocator<char> >, std::pair<const std::basic_string<char, std::char_traits<char>, std::allocator<char> >, Service::Point103>, std::_Select1st<std::pair<const std::basic_string<char, std::char_traits<char>, std::allocator<char> >, Service::Point103> >, std::less<std::basic_string<char, std::char_traits<char>, std::allocator<char> > >, std::allocator<std::pair<const std::basic_string<char, std::char_traits<char>, std::allocator<char> >, Service::Point103> > >::_Rb_tree_impl<std::less<std::basic_string<char, std::char_traits<char>, std::allocator<char> > >, false>::~_Rb_tree_impl
FUNC 22170 63 0 std::_Rb_tree<std::basic_string<char, std::char_traits<char>, std::allocator<char> >, std::pair<const std::basic_string<char, std::char_traits<char>, std::allocator<char> >, Service::Point103>, std::_Select1st<std::pair<const std::basic_string<char, std::char_traits<char>, std::allocator<char> >, Service::Point103> >, std::less<std::basic_string<char, std::char_traits<char>, std::allocator<char> > >, std::allocator<std::pair<const std::basic_string<char, std::char_traits<char>, std::allocator<char> >, Service::Point103> > >::~_Rb_tree
FUNC 221d4 1a 0 std::map<std::basic_string<char, std::char_traits<char>, std::allocator<char> >, std::basic_string<char, std::char_traits<char>, std::allocator<char> >, std::less<std::basic_string<char, std::char_traits<char>, std::allocator<char> > >, std::allocator<std::pair<const std::basic_string<char, std::char_traits<char>, std::allocator<char> >, std::basic_string<char, std::char_traits<char>, std::allocator<char> > > > >::begin
FUNC 221ee 22 0 std::_Rb_tree_iterator<std::pair<const std::basic_string<char, std::char_traits<char>, std::allocator<char> >, std::basic_string<char, std::char_traits<char>, std::allocator<char> > > >::operator!=
FUNC 22210 28 0 std::_Rb_tree_iterator<std::pair<const std::basic_string<char, std::char_traits<char>, std::allocator<char> >, std::basic_string<char, std::char_traits<char>, std::allocator<char> > > >::operator++
FUNC 22238 15 0 std::_Rb_tree_iterator<std::pair<const std::basic_string<char, std::char_traits<char>, std::allocator<char> >, std::basic_string<char, std::char_traits<char>, std::allocator<char> > > >::operator->
FUNC 2224e 156 0 std::map<std::basic_string<char, std::char_traits<char>, std::allocator<char> >, Service::Point103, std::less<std::basic_string<char, std::char_traits<char>, std::allocator<char> > >, std::allocator<std::pair<const std::basic_string<char, std::char_traits<char>, std::allocator<char> >, Service::Point103> > >::operator[]
FUNC 223a4 73 0 std::vector<char, std::allocator<char> >::vector
FUNC 22418 19 0 std::vector<char, std::allocator<char> >::operator[]
FUNC 22432 7d 0 std::vector<Tag, std::allocator<Tag> >::push_back
FUNC 224b0 41 0 std::vector<Tag, std::allocator<Tag> >::empty
FUNC 224f2 25 0 std::map<std::basic_string<char, std::char_traits<char>, std::allocator<char> >, Service::Point103, std::less<std::basic_string<char, std::char_traits<char>, std::allocator<char> > >, std::allocator<std::pair<const std::basic_string<char, std::char_traits<char>, std::allocator<char> >, Service::Point103> > >::find
FUNC 22518 1c 0 std::_Rb_tree_const_iterator<std::pair<const std::basic_string<char, std::char_traits<char>, std::allocator<char> >, Service::Point103> >::_Rb_tree_const_iterator
FUNC 22534 1a 0 std::map<std::basic_string<char, std::char_traits<char>, std::allocator<char> >, Service::Point103, std::less<std::basic_string<char, std::char_traits<char>, std::allocator<char> > >, std::allocator<std::pair<const std::basic_string<char, std::char_traits<char>, std::allocator<char> >, Service::Point103> > >::end
FUNC 2254e 22 0 std::_Rb_tree_const_iterator<std::pair<const std::basic_string<char, std::char_traits<char>, std::allocator<char> >, Service::Point103> >::operator!=
FUNC 22570 15 0 std::_Rb_tree_const_iterator<std::pair<const std::basic_string<char, std::char_traits<char>, std::allocator<char> >, Service::Point103> >::operator->
FUNC 22586 1a 0 std::map<std::basic_string<char, std::char_traits<char>, std::allocator<char> >, Service::Point103, std::less<std::basic_string<char, std::char_traits<char>, std::allocator<char> > >, std::allocator<std::pair<const std::basic_string<char, std::char_traits<char>, std::allocator<char> >, Service::Point103> > >::clear
FUNC 225a0 37 0 std::make_pair<char*, Service::Point103>
FUNC 225d8 ab 0 std::pair<const std::basic_string<char, std::char_traits<char>, std::allocator<char> >, Service::Point103>::pair<char*, Service::Point103>
FUNC 22684 47 0 std::map<std::basic_string<char, std::char_traits<char>, std::allocator<char> >, Service::Point103, std::less<std::basic_string<char, std::char_traits<char>, std::allocator<char> > >, std::allocator<std::pair<const std::basic_string<char, std::char_traits<char>, std::allocator<char> >, Service::Point103> > >::insert
FUNC 226cc 1a 0 std::map<std::basic_string<char, std::char_traits<char>, std::allocator<char> >, Service::Point103, std::less<std::basic_string<char, std::char_traits<char>, std::allocator<char> > >, std::allocator<std::pair<const std::basic_string<char, std::char_traits<char>, std::allocator<char> >, Service::Point103> > >::size
FUNC 226e6 1a 0 std::_Vector_base<Tag, std::allocator<Tag> >::_Vector_impl::~_Vector_impl
FUNC 22700 1a 0 std::_Vector_base<Tag, std::allocator<Tag> >::_Vector_base
FUNC 2271a 81 0 std::_Vector_base<Tag, std::allocator<Tag> >::~_Vector_base
FUNC 2279c e 0 std::_Vector_base<Tag, std::allocator<Tag> >::_M_get_Tp_allocator
FUNC 227aa 29 0 std::_Destroy<Tag*, Tag>
FUNC 227d4 1a 0 std::_Rb_tree<std::basic_string<char, std::char_traits<char>, std::allocator<char> >, std::pair<const std::basic_string<char, std::char_traits<char>, std::allocator<char> >, Service::Point103>, std::_Select1st<std::pair<const std::basic_string<char, std::char_traits<char>, std::allocator<char> >, Service::Point103> >, std::less<std::basic_string<char, std::char_traits<char>, std::allocator<char> > >, std::allocator<std::pair<const std::basic_string<char, std::char_traits<char>, std::allocator<char> >, Service::Point103> > >::_Rb_tree
FUNC 227ee 1a 0 std::allocator<std::_Rb_tree_node<std::pair<const std::basic_string<char, std::char_traits<char>, std::allocator<char> >, Service::Point103> > >::~allocator
FUNC 22808 69 0 std::_Rb_tree<std::basic_string<char, std::char_traits<char>, std::allocator<char> >, std::pair<const std::basic_string<char, std::char_traits<char>, std::allocator<char> >, Service::Point103>, std::_Select1st<std::pair<const std::basic_string<char, std::char_traits<char>, std::allocator<char> >, Service::Point103> >, std::less<std::basic_string<char, std::char_traits<char>, std::allocator<char> > >, std::allocator<std::pair<const std::basic_string<char, std::char_traits<char>, std::allocator<char> >, Service::Point103> > >::_M_erase
FUNC 22872 12 0 std::_Rb_tree<std::basic_string<char, std::char_traits<char>, std::allocator<char> >, std::pair<const std::basic_string<char, std::char_traits<char>, std::allocator<char> >, Service::Point103>, std::_Select1st<std::pair<const std::basic_string<char, std::char_traits<char>, std::allocator<char> >, Service::Point103> >, std::less<std::basic_string<char, std::char_traits<char>, std::allocator<char> > >, std::allocator<std::pair<const std::basic_string<char, std::char_traits<char>, std::allocator<char> >, Service::Point103> > >::_M_begin
FUNC 22884 25 0 std::map<std::basic_string<char, std::char_traits<char>, std::allocator<char> >, Service::Point103, std::less<std::basic_string<char, std::char_traits<char>, std::allocator<char> > >, std::allocator<std::pair<const std::basic_string<char, std::char_traits<char>, std::allocator<char> >, Service::Point103> > >::lower_bound
FUNC 228aa 1a 0 std::map<std::basic_string<char, std::char_traits<char>, std::allocator<char> >, Service::Point103, std::less<std::basic_string<char, std::char_traits<char>, std::allocator<char> > >, std::allocator<std::pair<const std::basic_string<char, std::char_traits<char>, std::allocator<char> >, Service::Point103> > >::key_comp
FUNC 228c4 15 0 std::_Rb_tree_iterator<std::pair<const std::basic_string<char, std::char_traits<char>, std::allocator<char> >, Service::Point103> >::operator*
FUNC 228da 22 0 std::_Rb_tree_iterator<std::pair<const std::basic_string<char, std::char_traits<char>, std::allocator<char> >, Service::Point103> >::operator==
FUNC 228fc 6b 0 std::pair<const std::basic_string<char, std::char_traits<char>, std::allocator<char> >, Service::Point103>::pair
FUNC 22968 40 0 std::map<std::basic_string<char, std::char_traits<char>, std::allocator<char> >, Service::Point103, std::less<std::basic_string<char, std::char_traits<char>, std::allocator<char> > >, std::allocator<std::pair<const std::basic_string<char, std::char_traits<char>, std::allocator<char> >, Service::Point103> > >::insert
FUNC 229a8 91 0 std::_Vector_base<char, std::allocator<char> >::_Vector_base
FUNC 22a3a 55 0 std::vector<char, std::allocator<char> >::_M_fill_initialize
FUNC 22a90 e2 0 __gnu_cxx::new_allocator<Tag>::construct
FUNC 22b72 42b 0 std::vector<Tag, std::allocator<Tag> >::_M_insert_aux
FUNC 22f9e 29 0 std::vector<Tag, std::allocator<Tag> >::end
FUNC 22fc8 31 0 std::vector<Tag, std::allocator<Tag> >::end
FUNC 22ffa 30 0 std::vector<Tag, std::allocator<Tag> >::begin
FUNC 2302a 3c 0 __gnu_cxx::operator==<const Tag*, std::vector<Tag, std::allocator<Tag> > >
FUNC 23066 b6 0 std::_Rb_tree<std::basic_string<char, std::char_traits<char>, std::allocator<char> >, std::pair<const std::basic_string<char, std::char_traits<char>, std::allocator<char> >, Service::Point103>, std::_Select1st<std::pair<const std::basic_string<char, std::char_traits<char>, std::allocator<char> >, Service::Point103> >, std::less<std::basic_string<char, std::char_traits<char>, std::allocator<char> > >, std::allocator<std::pair<const std::basic_string<char, std::char_traits<char>, std::allocator<char> >, Service::Point103> > >::find
FUNC 2311c 2c 0 std::_Rb_tree<std::basic_string<char, std::char_traits<char>, std::allocator<char> >, std::pair<const std::basic_string<char, std::char_traits<char>, std::allocator<char> >, Service::Point103>, std::_Select1st<std::pair<const std::basic_string<char, std::char_traits<char>, std::allocator<char> >, Service::Point103> >, std::less<std::basic_string<char, std::char_traits<char>, std::allocator<char> > >, std::allocator<std::pair<const std::basic_string<char, std::char_traits<char>, std::allocator<char> >, Service::Point103> > >::end
FUNC 23148 8d 0 std::_Rb_tree<std::basic_string<char, std::char_traits<char>, std::allocator<char> >, std::pair<const std::basic_string<char, std::char_traits<char>, std::allocator<char> >, Service::Point103>, std::_Select1st<std::pair<const std::basic_string<char, std::char_traits<char>, std::allocator<char> >, Service::Point103> >, std::less<std::basic_string<char, std::char_traits<char>, std::allocator<char> > >, std::allocator<std::pair<const std::basic_string<char, std::char_traits<char>, std::allocator<char> >, Service::Point103> > >::clear
FUNC 231d6 3b 0 std::pair<char*, Service::Point103>::pair
FUNC 23212 271 0 std::_Rb_tree<std::basic_string<char, std::char_traits<char>, std::allocator<char> >, std::pair<const std::basic_string<char, std::char_traits<char>, std::allocator<char> >, Service::Point103>, std::_Select1st<std::pair<const std::basic_string<char, std::char_traits<char>, std::allocator<char> >, Service::Point103> >, std::less<std::basic_string<char, std::char_traits<char>, std::allocator<char> > >, std::allocator<std::pair<const std::basic_string<char, std::char_traits<char>, std::allocator<char> >, Service::Point103> > >::_M_insert_unique
FUNC 23484 12 0 std::_Rb_tree<std::basic_string<char, std::char_traits<char>, std::allocator<char> >, std::pair<const std::basic_string<char, std::char_traits<char>, std::allocator<char> >, Service::Point103>, std::_Select1st<std::pair<const std::basic_string<char, std::char_traits<char>, std::allocator<char> >, Service::Point103> >, std::less<std::basic_string<char, std::char_traits<char>, std::allocator<char> > >, std::allocator<std::pair<const std::basic_string<char, std::char_traits<char>, std::allocator<char> >, Service::Point103> > >::size
FUNC 23496 3d 0 std::_Vector_base<Tag, std::allocator<Tag> >::_Vector_impl::_Vector_impl
FUNC 234d4 1a 0 std::allocator<Tag>::~allocator
FUNC 234ee 34 0 std::_Vector_base<Tag, std::allocator<Tag> >::_M_deallocate
FUNC 23522 25 0 std::_Destroy<Tag*>
FUNC 23548 8c 0 std::_Rb_tree<std::basic_string<char, std::char_traits<char>, std::allocator<char> >, std::pair<const std::basic_string<char, std::char_traits<char>, std::allocator<char> >, Service::Point103>, std::_Select1st<std::pair<const std::basic_string<char, std::char_traits<char>, std::allocator<char> >, Service::Point103> >, std::less<std::basic_string<char, std::char_traits<char>, std::allocator<char> > >, std::allocator<std::pair<const std::basic_string<char, std::char_traits<char>, std::allocator<char> >, Service::Point103> > >::_Rb_tree_impl<std::less<std::basic_string<char, std::char_traits<char>, std::allocator<char> > >, false>::_Rb_tree_impl
FUNC 235d4 a 0 __gnu_cxx::new_allocator<std::_Rb_tree_node<std::pair<const std::basic_string<char, std::char_traits<char>, std::allocator<char> >, Service::Point103> > >::~new_allocator
FUNC 235de 12 0 std::_Rb_tree<std::basic_string<char, std::char_traits<char>, std::allocator<char> >, std::pair<const std::basic_string<char, std::char_traits<char>, std::allocator<char> >, Service::Point103>, std::_Select1st<std::pair<const std::basic_string<char, std::char_traits<char>, std::allocator<char> >, Service::Point103> >, std::less<std::basic_string<char, std::char_traits<char>, std::allocator<char> > >, std::allocator<std::pair<const std::basic_string<char, std::char_traits<char>, std::allocator<char> >, Service::Point103> > >::_S_right
FUNC 235f0 12 0 std::_Rb_tree<std::basic_string<char, std::char_traits<char>, std::allocator<char> >, std::pair<const std::basic_string<char, std::char_traits<char>, std::allocator<char> >, Service::Point103>, std::_Select1st<std::pair<const std::basic_string<char, std::char_traits<char>, std::allocator<char> >, Service::Point103> >, std::less<std::basic_string<char, std::char_traits<char>, std::allocator<char> > >, std::allocator<std::pair<const std::basic_string<char, std::char_traits<char>, std::allocator<char> >, Service::Point103> > >::_S_left
FUNC 23602 86 0 std::_Rb_tree<std::basic_string<char, std::char_traits<char>, std::allocator<char> >, std::pair<const std::basic_string<char, std::char_traits<char>, std::allocator<char> >, Service::Point103>, std::_Select1st<std::pair<const std::basic_string<char, std::char_traits<char>, std::allocator<char> >, Service::Point103> >, std::less<std::basic_string<char, std::char_traits<char>, std::allocator<char> > >, std::allocator<std::pair<const std::basic_string<char, std::char_traits<char>, std::allocator<char> >, Service::Point103> > >::_M_destroy_node
FUNC 23688 53 0 std::_Rb_tree<std::basic_string<char, std::char_traits<char>, std::allocator<char> >, std::pair<const std::basic_string<char, std::char_traits<char>, std::allocator<char> >, Service::Point103>, std::_Select1st<std::pair<const std::basic_string<char, std::char_traits<char>, std::allocator<char> >, Service::Point103> >, std::less<std::basic_string<char, std::char_traits<char>, std::allocator<char> > >, std::allocator<std::pair<const std::basic_string<char, std::char_traits<char>, std::allocator<char> >, Service::Point103> > >::lower_bound
FUNC 236dc a 0 std::_Rb_tree<std::basic_string<char, std::char_traits<char>, std::allocator<char> >, std::pair<const std::basic_string<char, std::char_traits<char>, std::allocator<char> >, Service::Point103>, std::_Select1st<std::pair<const std::basic_string<char, std::char_traits<char>, std::allocator<char> >, Service::Point103> >, std::less<std::basic_string<char, std::char_traits<char>, std::allocator<char> > >, std::allocator<std::pair<const std::basic_string<char, std::char_traits<char>, std::allocator<char> >, Service::Point103> > >::key_comp
FUNC 236e6 4c0 0 std::_Rb_tree<std::basic_string<char, std::char_traits<char>, std::allocator<char> >, std::pair<const std::basic_string<char, std::char_traits<char>, std::allocator<char> >, Service::Point103>, std::_Select1st<std::pair<const std::basic_string<char, std::char_traits<char>, std::allocator<char> >, Service::Point103> >, std::less<std::basic_string<char, std::char_traits<char>, std::allocator<char> > >, std::allocator<std::pair<const std::basic_string<char, std::char_traits<char>, std::allocator<char> >, Service::Point103> > >::_M_insert_unique_
FUNC 23ba6 48 0 std::_Vector_base<char, std::allocator<char> >::_Vector_impl::_Vector_impl
FUNC 23bee 31 0 std::__uninitialized_fill_n_a<char*, long unsigned int, char, char>
FUNC 23c20 e 0 __gnu_cxx::__normal_iterator<Tag*, std::vector<Tag, std::allocator<Tag> > >::base
FUNC 23c2e 46 0 std::copy_backward<Tag*, Tag*>
FUNC 23c74 11 0 __gnu_cxx::__normal_iterator<Tag*, std::vector<Tag, std::allocator<Tag> > >::operator*
FUNC 23c86 ca 0 std::vector<Tag, std::allocator<Tag> >::_M_check_len
FUNC 23d50 25 0 std::vector<Tag, std::allocator<Tag> >::begin
FUNC 23d75 4d 0 __gnu_cxx::operator-<Tag*, std::vector<Tag, std::allocator<Tag> > >
FUNC 23dc2 38 0 std::_Vector_base<Tag, std::allocator<Tag> >::_M_allocate
FUNC 23dfa 3b 0 std::__uninitialized_move_a<Tag*, Tag*, std::allocator<Tag> >
FUNC 23e36 1e 0 __gnu_cxx::new_allocator<Tag>::destroy
FUNC 23e54 1c 0 __gnu_cxx::__normal_iterator<Tag*, std::vector<Tag, std::allocator<Tag> > >::__normal_iterator
FUNC 23e70 1c 0 __gnu_cxx::__normal_iterator<const Tag*, std::vector<Tag, std::allocator<Tag> > >::__normal_iterator
FUNC 23e8c e 0 __gnu_cxx::__normal_iterator<const Tag*, std::vector<Tag, std::allocator<Tag> > >::base
FUNC 23e9a 12 0 std::_Rb_tree<std::basic_string<char, std::char_traits<char>, std::allocator<char> >, std::pair<const std::basic_string<char, std::char_traits<char>, std::allocator<char> >, Service::Point103>, std::_Select1st<std::pair<const std::basic_string<char, std::char_traits<char>, std::allocator<char> >, Service::Point103> >, std::less<std::basic_string<char, std::char_traits<char>, std::allocator<char> > >, std::allocator<std::pair<const std::basic_string<char, std::char_traits<char>, std::allocator<char> >, Service::Point103> > >::_M_end
FUNC 23eac 92 0 std::_Rb_tree<std::basic_string<char, std::char_traits<char>, std::allocator<char> >, std::pair<const std::basic_string<char, std::char_traits<char>, std::allocator<char> >, Service::Point103>, std::_Select1st<std::pair<const std::basic_string<char, std::char_traits<char>, std::allocator<char> >, Service::Point103> >, std::less<std::basic_string<char, std::char_traits<char>, std::allocator<char> > >, std::allocator<std::pair<const std::basic_string<char, std::char_traits<char>, std::allocator<char> >, Service::Point103> > >::_M_lower_bound
FUNC 23f3e 2c 0 std::_Rb_tree<std::basic_string<char, std::char_traits<char>, std::allocator<char> >, std::pair<const std::basic_string<char, std::char_traits<char>, std::allocator<char> >, Service::Point103>, std::_Select1st<std::pair<const std::basic_string<char, std::char_traits<char>, std::allocator<char> >, Service::Point103> >, std::less<std::basic_string<char, std::char_traits<char>, std::allocator<char> > >, std::allocator<std::pair<const std::basic_string<char, std::char_traits<char>, std::allocator<char> >, Service::Point103> > >::_S_key
FUNC 23f6a 19 0 std::_Rb_tree_iterator<std::pair<const std::basic_string<char, std::char_traits<char>, std::allocator<char> >, Service::Point103> >::_Rb_tree_iterator
FUNC 23f84 12 0 std::_Rb_tree<std::basic_string<char, std::char_traits<char>, std::allocator<char> >, std::pair<const std::basic_string<char, std::char_traits<char>, std::allocator<char> >, Service::Point103>, std::_Select1st<std::pair<const std::basic_string<char, std::char_traits<char>, std::allocator<char> >, Service::Point103> >, std::less<std::basic_string<char, std::char_traits<char>, std::allocator<char> > >, std::allocator<std::pair<const std::basic_string<char, std::char_traits<char>, std::allocator<char> >, Service::Point103> > >::_M_leftmost
FUNC 23f96 12 0 std::_Rb_tree<std::basic_string<char, std::char_traits<char>, std::allocator<char> >, std::pair<const std::basic_string<char, std::char_traits<char>, std::allocator<char> >, Service::Point103>, std::_Select1st<std::pair<const std::basic_string<char, std::char_traits<char>, std::allocator<char> >, Service::Point103> >, std::less<std::basic_string<char, std::char_traits<char>, std::allocator<char> > >, std::allocator<std::pair<const std::basic_string<char, std::char_traits<char>, std::allocator<char> >, Service::Point103> > >::_M_root
FUNC 23fa8 12 0 std::_Rb_tree<std::basic_string<char, std::char_traits<char>, std::allocator<char> >, std::pair<const std::basic_string<char, std::char_traits<char>, std::allocator<char> >, Service::Point103>, std::_Select1st<std::pair<const std::basic_string<char, std::char_traits<char>, std::allocator<char> >, Service::Point103> >, std::less<std::basic_string<char, std::char_traits<char>, std::allocator<char> > >, std::allocator<std::pair<const std::basic_string<char, std::char_traits<char>, std::allocator<char> >, Service::Point103> > >::_M_rightmost
FUNC 23fba 12 0 std::_Select1st<std::pair<const std::basic_string<char, std::char_traits<char>, std::allocator<char> >, Service::Point103> >::operator()
FUNC 23fcc 2c 0 std::_Rb_tree<std::basic_string<char, std::char_traits<char>, std::allocator<char> >, std::pair<const std::basic_string<char, std::char_traits<char>, std::allocator<char> >, Service::Point103>, std::_Select1st<std::pair<const std::basic_string<char, std::char_traits<char>, std::allocator<char> >, Service::Point103> >, std::less<std::basic_string<char, std::char_traits<char>, std::allocator<char> > >, std::allocator<std::pair<const std::basic_string<char, std::char_traits<char>, std::allocator<char> >, Service::Point103> > >::_S_key
FUNC 23ff8 2c 0 std::_Rb_tree<std::basic_string<char, std::char_traits<char>, std::allocator<char> >, std::pair<const std::basic_string<char, std::char_traits<char>, std::allocator<char> >, Service::Point103>, std::_Select1st<std::pair<const std::basic_string<char, std::char_traits<char>, std::allocator<char> >, Service::Point103> >, std::less<std::basic_string<char, std::char_traits<char>, std::allocator<char> > >, std::allocator<std::pair<const std::basic_string<char, std::char_traits<char>, std::allocator<char> >, Service::Point103> > >::begin
FUNC 24024 e3 0 std::_Rb_tree<std::basic_string<char, std::char_traits<char>, std::allocator<char> >, std::pair<const std::basic_string<char, std::char_traits<char>, std::allocator<char> >, Service::Point103>, std::_Select1st<std::pair<const std::basic_string<char, std::char_traits<char>, std::allocator<char> >, Service::Point103> >, std::less<std::basic_string<char, std::char_traits<char>, std::allocator<char> > >, std::allocator<std::pair<const std::basic_string<char, std::char_traits<char>, std::allocator<char> >, Service::Point103> > >::_M_insert_
FUNC 24108 2e 0 std::pair<std::_Rb_tree_iterator<std::pair<const std::basic_string<char, std::char_traits<char>, std::allocator<char> >, Service::Point103> >, bool>::pair
FUNC 24136 28 0 std::_Rb_tree_iterator<std::pair<const std::basic_string<char, std::char_traits<char>, std::allocator<char> >, Service::Point103> >::operator--
FUNC 2415e 1a 0 std::allocator<Tag>::allocator
FUNC 24178 a 0 __gnu_cxx::new_allocator<Tag>::~new_allocator
FUNC 24182 22 0 __gnu_cxx::new_allocator<Tag>::deallocate
FUNC 241a4 37 0 std::_Destroy_aux<false>::__destroy<Tag*>
FUNC 241dc 1a 0 std::allocator<std::_Rb_tree_node<std::pair<const std::basic_string<char, std::char_traits<char>, std::allocator<char> >, Service::Point103> > >::allocator
FUNC 241f6 41 0 std::_Rb_tree<std::basic_string<char, std::char_traits<char>, std::allocator<char> >, std::pair<const std::basic_string<char, std::char_traits<char>, std::allocator<char> >, Service::Point103>, std::_Select1st<std::pair<const std::basic_string<char, std::char_traits<char>, std::allocator<char> >, Service::Point103> >, std::less<std::basic_string<char, std::char_traits<char>, std::allocator<char> > >, std::allocator<std::pair<const std::basic_string<char, std::char_traits<char>, std::allocator<char> >, Service::Point103> > >::_Rb_tree_impl<std::less<std::basic_string<char, std::char_traits<char>, std::allocator<char> > >, false>::_M_initialize
FUNC 24238 3b 0 std::_Rb_tree<std::basic_string<char, std::char_traits<char>, std::allocator<char> >, std::pair<const std::basic_string<char, std::char_traits<char>, std::allocator<char> >, Service::Point103>, std::_Select1st<std::pair<const std::basic_string<char, std::char_traits<char>, std::allocator<char> >, Service::Point103> >, std::less<std::basic_string<char, std::char_traits<char>, std::allocator<char> > >, std::allocator<std::pair<const std::basic_string<char, std::char_traits<char>, std::allocator<char> >, Service::Point103> > >::get_allocator
FUNC 24274 1a 0 std::allocator<std::pair<const std::basic_string<char, std::char_traits<char>, std::allocator<char> >, Service::Point103> >::~allocator
FUNC 2428e 1e 0 __gnu_cxx::new_allocator<std::pair<const std::basic_string<char, std::char_traits<char>, std::allocator<char> >, Service::Point103> >::destroy
FUNC 242ac 2a 0 std::_Rb_tree<std::basic_string<char, std::char_traits<char>, std::allocator<char> >, std::pair<const std::basic_string<char, std::char_traits<char>, std::allocator<char> >, Service::Point103>, std::_Select1st<std::pair<const std::basic_string<char, std::char_traits<char>, std::allocator<char> >, Service::Point103> >, std::less<std::basic_string<char, std::char_traits<char>, std::allocator<char> > >, std::allocator<std::pair<const std::basic_string<char, std::char_traits<char>, std::allocator<char> >, Service::Point103> > >::_M_put_node
FUNC 242d6 28 0 std::_Rb_tree_const_iterator<std::pair<const std::basic_string<char, std::char_traits<char>, std::allocator<char> >, Service::Point103> >::operator--
FUNC 242fe 12 0 std::_Rb_tree<std::basic_string<char, std::char_traits<char>, std::allocator<char> >, std::pair<const std::basic_string<char, std::char_traits<char>, std::allocator<char> >, Service::Point103>, std::_Select1st<std::pair<const std::basic_string<char, std::char_traits<char>, std::allocator<char> >, Service::Point103> >, std::less<std::basic_string<char, std::char_traits<char>, std::allocator<char> > >, std::allocator<std::pair<const std::basic_string<char, std::char_traits<char>, std::allocator<char> >, Service::Point103> > >::_S_right
FUNC 24310 28 0 std::_Rb_tree_const_iterator<std::pair<const std::basic_string<char, std::char_traits<char>, std::allocator<char> >, Service::Point103> >::operator++
FUNC 24338 2d 0 std::uninitialized_fill_n<char*, long unsigned int, char>
FUNC 24365 e 0 std::__miter_base<Tag*, false>::__b
FUNC 24373 58 0 std::__copy_move_backward_a2<false, Tag*, Tag*>
FUNC 243cc 22 0 std::vector<Tag, std::allocator<Tag> >::max_size
FUNC 243ee 63 0 __gnu_cxx::new_allocator<Tag>::allocate
FUNC 24451 31 0 std::__uninitialized_copy_a<Tag*, Tag*, Tag>
FUNC 24482 12 0 std::_Rb_tree<std::basic_string<char, std::char_traits<char>, std::allocator<char> >, std::pair<const std::basic_string<char, std::char_traits<char>, std::allocator<char> >, Service::Point103>, std::_Select1st<std::pair<const std::basic_string<char, std::char_traits<char>, std::allocator<char> >, Service::Point103> >, std::less<std::basic_string<char, std::char_traits<char>, std::allocator<char> > >, std::allocator<std::pair<const std::basic_string<char, std::char_traits<char>, std::allocator<char> >, Service::Point103> > >::_S_value
FUNC 24494 12 0 std::_Rb_tree<std::basic_string<char, std::char_traits<char>, std::allocator<char> >, std::pair<const std::basic_string<char, std::char_traits<char>, std::allocator<char> >, Service::Point103>, std::_Select1st<std::pair<const std::basic_string<char, std::char_traits<char>, std::allocator<char> >, Service::Point103> >, std::less<std::basic_string<char, std::char_traits<char>, std::allocator<char> > >, std::allocator<std::pair<const std::basic_string<char, std::char_traits<char>, std::allocator<char> >, Service::Point103> > >::_S_value
FUNC 244a6 bd 0 std::_Rb_tree<std::basic_string<char, std::char_traits<char>, std::allocator<char> >, std::pair<const std::basic_string<char, std::char_traits<char>, std::allocator<char> >, Service::Point103>, std::_Select1st<std::pair<const std::basic_string<char, std::char_traits<char>, std::allocator<char> >, Service::Point103> >, std::less<std::basic_string<char, std::char_traits<char>, std::allocator<char> > >, std::allocator<std::pair<const std::basic_string<char, std::char_traits<char>, std::allocator<char> >, Service::Point103> > >::_M_create_node
FUNC 24564 a 0 __gnu_cxx::new_allocator<Tag>::new_allocator
FUNC 2456e 1a 0 std::_Destroy<Tag>
FUNC 24588 a 0 __gnu_cxx::new_allocator<std::_Rb_tree_node<std::pair<const std::basic_string<char, std::char_traits<char>, std::allocator<char> >, Service::Point103> > >::new_allocator
FUNC 24592 e 0 std::_Rb_tree<std::basic_string<char, std::char_traits<char>, std::allocator<char> >, std::pair<const std::basic_string<char, std::char_traits<char>, std::allocator<char> >, Service::Point103>, std::_Select1st<std::pair<const std::basic_string<char, std::char_traits<char>, std::allocator<char> >, Service::Point103> >, std::less<std::basic_string<char, std::char_traits<char>, std::allocator<char> > >, std::allocator<std::pair<const std::basic_string<char, std::char_traits<char>, std::allocator<char> >, Service::Point103> > >::_M_get_Node_allocator
FUNC 245a0 1e 0 std::allocator<std::pair<const std::basic_string<char, std::char_traits<char>, std::allocator<char> >, Service::Point103> >::allocator<std::_Rb_tree_node<std::pair<const std::basic_string<char, std::char_traits<char>, std::allocator<char> >, Service::Point103> > >
FUNC 245be a 0 __gnu_cxx::new_allocator<std::pair<const std::basic_string<char, std::char_traits<char>, std::allocator<char> >, Service::Point103> >::~new_allocator
FUNC 245c8 22 0 __gnu_cxx::new_allocator<std::_Rb_tree_node<std::pair<const std::basic_string<char, std::char_traits<char>, std::allocator<char> >, Service::Point103> > >::deallocate
FUNC 245ea 2d 0 std::__uninitialized_fill_n<true>::uninitialized_fill_n<char*, long unsigned int, char>
FUNC 24617 e 0 std::__niter_base<Tag*, false>::__b
FUNC 24625 31 0 std::__copy_move_backward_a<false, Tag*, Tag*>
FUNC 24656 e 0 std::_Vector_base<Tag, std::allocator<Tag> >::_M_get_Tp_allocator
FUNC 24664 14 0 __gnu_cxx::new_allocator<Tag>::max_size
FUNC 24678 2d 0 std::uninitialized_copy<Tag*, Tag*>
FUNC 246a6 24 0 std::_Rb_tree<std::basic_string<char, std::char_traits<char>, std::allocator<char> >, std::pair<const std::basic_string<char, std::char_traits<char>, std::allocator<char> >, Service::Point103>, std::_Select1st<std::pair<const std::basic_string<char, std::char_traits<char>, std::allocator<char> >, Service::Point103> >, std::less<std::basic_string<char, std::char_traits<char>, std::allocator<char> > >, std::allocator<std::pair<const std::basic_string<char, std::char_traits<char>, std::allocator<char> >, Service::Point103> > >::_M_get_node
FUNC 246ca 6b 0 std::pair<const std::basic_string<char, std::char_traits<char>, std::allocator<char> >, Service::Point103>::pair
FUNC 24736 77 0 __gnu_cxx::new_allocator<std::pair<const std::basic_string<char, std::char_traits<char>, std::allocator<char> >, Service::Point103> >::construct
FUNC 247ae a 0 __gnu_cxx::new_allocator<std::pair<const std::basic_string<char, std::char_traits<char>, std::allocator<char> >, Service::Point103> >::new_allocator
FUNC 247b8 35 0 std::fill_n<char*, long unsigned int, char>
FUNC 247ed 6d 0 std::__copy_move_backward<false, false, std::random_access_iterator_tag>::__copy_move_b<Tag*, Tag*>
FUNC 2485a 98 0 std::__uninitialized_copy<false>::uninitialized_copy<Tag*, Tag*>
FUNC 248f2 5c 0 __gnu_cxx::new_allocator<std::_Rb_tree_node<std::pair<const std::basic_string<char, std::char_traits<char>, std::allocator<char> >, Service::Point103> > >::allocate
FUNC 2494e 41 0 std::__fill_n_a<long unsigned int, char>
FUNC 2498f de 0 std::_Construct<Tag, Tag>
FUNC 24a6e 14 0 __gnu_cxx::new_allocator<std::_Rb_tree_node<std::pair<const std::basic_string<char, std::char_traits<char>, std::allocator<char> >, Service::Point103> > >::max_size
FUNC 24a82 49 0 std::__fill_a<char>
FUNC 24acc db 0 TcpNet::TcpNet
FUNC 24ba8 7c 0 TcpNet::~TcpNet
FUNC 24c24 26 0 TcpNet::~TcpNet
FUNC 24c4a 17d 0 TcpNet::Connect
FUNC 24dc8 15d 0 TcpNet::Read
FUNC 24f26 e8 0 TcpNet::Write
FUNC 2500e 2c 0 TcpNet::DisConnect
FUNC 2503a 48 0 __static_initialization_and_destruction_0
FUNC 25082 15 0 _GLOBAL__I_TcpNet.cpp
FUNC 25098 91 0 TcpService::TcpService
FUNC 2512a 7e 0 TcpService::~TcpService
FUNC 251a8 26 0 TcpService::~TcpService
FUNC 251ce 18f 0 TcpService::Start
FUNC 2535e 622 0 TcpService::Write
FUNC 25980 581 0 TcpService::Read
FUNC 25f02 20b 0 TcpService::ParseRecvData
FUNC 2610e 11f 0 TcpService::CmdConnection
FUNC 2622e 11f 0 TcpService::CmdGetTest1
FUNC 2634e 11f 0 TcpService::CmdGetTest2
FUNC 2646e 2a7 0 TcpService::CmdGetAll
FUNC 26716 2e1 0 TcpService::CmdGetGroupData
FUNC 269f8 15b 0 TcpService::ParseVariableData
FUNC 26b54 379 0 TcpService::ParseASDU1
FUNC 26ece 120 0 TcpService::ParseASDU10
FUNC 26fee 82f 0 TcpService::ParseASDU10AllValue
FUNC 2781e 2fe 0 TcpService::ParseASDU40
FUNC 27b1c 3c 0 TcpService::ParseASDU41
FUNC 27b58 391 0 TcpService::ParseASDU42
FUNC 27eea 388 0 TcpService::ParseASDU44
FUNC 28272 465 0 TcpService::ParseASDU50
FUNC 286d8 8e 0 TcpService::InitConfig
FUNC 28766 14 0 TcpService::GetSendID
FUNC 2877a 14 0 TcpService::GetRecvID
FUNC 2878e ca 0 __static_initialization_and_destruction_0
FUNC 28858 15 0 _GLOBAL__I_TcpService.cpp
FUNC 28870 107 0 UdpNet::UdpNet
FUNC 28978 7c 0 UdpNet::~UdpNet
FUNC 289f4 26 0 UdpNet::~UdpNet
FUNC 28a1a 17b 0 UdpNet::Connect
FUNC 28b96 aa 0 UdpNet::Read
FUNC 28c40 ce 0 UdpNet::Write
FUNC 28d0e 2c 0 UdpNet::DisConnect
FUNC 28d3a 48 0 __static_initialization_and_destruction_0
FUNC 28d82 15 0 _GLOBAL__I_UdpNet.cpp
FUNC 28d98 1c 0 WarningLib::WarningLib
FUNC 28db4 35 0 WarningLib::~WarningLib
FUNC 28dea 26 0 WarningLib::~WarningLib
FUNC 28e10 74 0 WarningLib::GetInstance
FUNC 28e84 2f4 0 WarningLib::Init
FUNC 29178 96 0 WarningLib::GetFunction
FUNC 2920e 2b 0 WarningLib::Start
FUNC 2923a 36 0 WarningLib::WriteWarn
FUNC 29270 63 0 WarningLib::WriteWarn2
FUNC 292d4 2b 0 WarningLib::Stop
FUNC 29300 550 0 WgjXml::WgjXml
FUNC 29850 581 0 WgjXml::~WgjXml
FUNC 29dd2 6c 0 WgjXml::LoadXml
FUNC 29e3e a1 0 WgjXml::Get_Point61850
FUNC 29ee0 1f1 0 WgjXml::GetTransmitChannel
FUNC 2a0d2 96 0 WgjXml::Get_61850
FUNC 2a168 1b8 0 WgjXml::GetRedisConnectionConfig
FUNC 2a320 db 0 WgjXml::GetCollectionRedisInfo
FUNC 2a3fc 72 0 WgjXml::GetPcapConfigInfo
FUNC 2a46e 6b 0 WgjXml::GetAllChannelName
FUNC 2a4da f2 0 WgjXml::GetParseConfigInfo
FUNC 2a5cc be 0 WgjXml::GetIEC61850ServerPoint
FUNC 2a68a 85 0 WgjXml::InitIEC103Xml
FUNC 2a710 36 0 WgjXml::GetIEC103Param
FUNC 2a746 36 0 WgjXml::GetIEC103Point
FUNC 2a77c bf 0 WgjXml::GetIEC104WFPoint
FUNC 2a83c 89 0 WgjXml::GetIEC104WFParam
FUNC 2a8c6 89 0 WgjXml::Get61850IP
FUNC 2a950 732 0 WgjXml::parse_61850
FUNC 2b082 68e 0 WgjXml::parse_Iec104
FUNC 2b710 55e 0 WgjXml::parse_Iec104Param
FUNC 2bc6e 452 0 WgjXml::parse_Iec103
FUNC 2c0c0 215 0 WgjXml::find_RedisInfo
FUNC 2c2d6 178 0 WgjXml::get_AllChannel
FUNC 2c44e 62a 0 WgjXml::getParseConfigInfo
FUNC 2ca78 2b0 0 WgjXml::GetDataStorageConfig
FUNC 2cd28 487 0 WgjXml::getPcapConfigInfo
FUNC 2d1b0 35d 0 WgjXml::getIEC61850ServerPoint
FUNC 2d50e 314 0 WgjXml::parse_61850IP
FUNC 2d822 40 0 __static_initialization_and_destruction_0
FUNC 2d862 15 0 _GLOBAL__I__ZN6WgjXmlC2Ev
FUNC 2d878 1a 0 TiXmlString::~TiXmlString
FUNC 2d892 15 0 TiXmlString::c_str
FUNC 2d8a8 38 0 TiXmlString::quit
FUNC 2d8e0 1e 0 TiXmlNode::Value
FUNC 2d8fe 1a 0 TiXmlNode::NextSiblingElement
FUNC 2d918 1a 0 TiXmlNode::FirstChildElement
FUNC 2d932 18 0 TiXmlNode::NoChildren
FUNC 2d94a 4a 0 TiXmlDocument::~TiXmlDocument
FUNC 2d994 26 0 TiXmlDocument::~TiXmlDocument
FUNC 2d9ba 1a 0 TiXmlDocument::RootElement
FUNC 2d9d4 1a 0 std::map<std::basic_string<char, std::char_traits<char>, std::allocator<char> >, IEC61850_STRUCT::IED_61850, std::less<std::basic_string<char, std::char_traits<char>, std::allocator<char> > >, std::allocator<std::pair<const std::basic_string<char, std::char_traits<char>, std::allocator<char> >, IEC61850_STRUCT::IED_61850> > >::~map
FUNC 2d9ee 139 0 IEC61850_STRUCT::IED_61850::IED_61850
FUNC 2db28 140 0 IEC61850_STRUCT::IED_61850::~IED_61850
FUNC 2dc68 1a 0 std::list<std::basic_string<char, std::char_traits<char>, std::allocator<char> >, std::allocator<std::basic_string<char, std::char_traits<char>, std::allocator<char> > > >::~list
FUNC 2dc82 1a 0 std::map<std::basic_string<char, std::char_traits<char>, std::allocator<char> >, std::map<int, std::map<int, IEC104WF::stPointTable, std::less<int>, std::allocator<std::pair<const int, IEC104WF::stPointTable> > >, std::less<int>, std::allocator<std::pair<const int, std::map<int, IEC104WF::stPointTable, std::less<int>, std::allocator<std::pair<const int, IEC104WF::stPointTable> > > > > >, std::less<std::basic_string<char, std::char_traits<char>, std::allocator<char> > >, std::allocator<std::pair<const std::basic_string<char, std::char_traits<char>, std::allocator<char> >, std::map<int, std::map<int, IEC104WF::stPointTable, std::less<int>, std::allocator<std::pair<const int, IEC104WF::stPointTable> > >, std::less<int>, std::allocator<std::pair<const int, std::map<int, IEC104WF::stPointTable, std::less<int>, std::allocator<std::pair<const int, IEC104WF::stPointTable> > > > > > > > >::~map
FUNC 2dc9c 1a 0 std::map<int, std::map<int, IEC104WF::stPointTable, std::less<int>, std::allocator<std::pair<const int, IEC104WF::stPointTable> > >, std::less<int>, std::allocator<std::pair<const int, std::map<int, IEC104WF::stPointTable, std::less<int>, std::allocator<std::pair<const int, IEC104WF::stPointTable> > > > > >::~map
FUNC 2dcb6 1a 0 std::map<int, IEC104WF::stPointTable, std::less<int>, std::allocator<std::pair<const int, IEC104WF::stPointTable> > >::~map
FUNC 2dcd0 1a 0 IEC104WF::stPointTable::stPointTable
FUNC 2dcea 1a 0 IEC104WF::stPointTable::~stPointTable
FUNC 2dd04 82 0 IEC103::stConfigParam::stConfigParam
FUNC 2dd86 121 0 IEC61850_STRUCT::IED_61850::operator=
FUNC 2dea8 45 0 IEC104WF::stPointTable::operator=
FUNC 2deee 7b 0 IEC103::stConfigParam::operator=
FUNC 2df6a 1a 0 std::map<std::basic_string<char, std::char_traits<char>, std::allocator<char> >, IEC61850_STRUCT::IED_61850, std::less<std::basic_string<char, std::char_traits<char>, std::allocator<char> > >, std::allocator<std::pair<const std::basic_string<char, std::char_traits<char>, std::allocator<char> >, IEC61850_STRUCT::IED_61850> > >::map
FUNC 2df84 1a 0 std::_Rb_tree<std::basic_string<char, std::char_traits<char>, std::allocator<char> >, std::pair<const std::basic_string<char, std::char_traits<char>, std::allocator<char> >, IEC61850_STRUCT::IED_61850>, std::_Select1st<std::pair<const std::basic_string<char, std::char_traits<char>, std::allocator<char> >, IEC61850_STRUCT::IED_61850> >, std::less<std::basic_string<char, std::char_traits<char>, std::allocator<char> > >, std::allocator<std::pair<const std::basic_string<char, std::char_traits<char>, std::allocator<char> >, IEC61850_STRUCT::IED_61850> > >::_Rb_tree_impl<std::less<std::basic_string<char, std::char_traits<char>, std::allocator<char> > >, false>::~_Rb_tree_impl
FUNC 2df9e 63 0 std::_Rb_tree<std::basic_string<char, std::char_traits<char>, std::allocator<char> >, std::pair<const std::basic_string<char, std::char_traits<char>, std::allocator<char> >, IEC61850_STRUCT::IED_61850>, std::_Select1st<std::pair<const std::basic_string<char, std::char_traits<char>, std::allocator<char> >, IEC61850_STRUCT::IED_61850> >, std::less<std::basic_string<char, std::char_traits<char>, std::allocator<char> > >, std::allocator<std::pair<const std::basic_string<char, std::char_traits<char>, std::allocator<char> >, IEC61850_STRUCT::IED_61850> > >::~_Rb_tree
FUNC 2e002 1a 0 std::list<std::basic_string<char, std::char_traits<char>, std::allocator<char> >, std::allocator<std::basic_string<char, std::char_traits<char>, std::allocator<char> > > >::list
FUNC 2e01c 1a 0 std::_List_base<std::basic_string<char, std::char_traits<char>, std::allocator<char> >, std::allocator<std::basic_string<char, std::char_traits<char>, std::allocator<char> > > >::_List_impl::~_List_impl
FUNC 2e036 51 0 std::_List_base<std::basic_string<char, std::char_traits<char>, std::allocator<char> >, std::allocator<std::basic_string<char, std::char_traits<char>, std::allocator<char> > > >::~_List_base
FUNC 2e088 1a 0 std::map<std::basic_string<char, std::char_traits<char>, std::allocator<char> >, std::map<int, std::map<int, IEC104WF::stPointTable, std::less<int>, std::allocator<std::pair<const int, IEC104WF::stPointTable> > >, std::less<int>, std::allocator<std::pair<const int, std::map<int, IEC104WF::stPointTable, std::less<int>, std::allocator<std::pair<const int, IEC104WF::stPointTable> > > > > >, std::less<std::basic_string<char, std::char_traits<char>, std::allocator<char> > >, std::allocator<std::pair<const std::basic_string<char, std::char_traits<char>, std::allocator<char> >, std::map<int, std::map<int, IEC104WF::stPointTable, std::less<int>, std::allocator<std::pair<const int, IEC104WF::stPointTable> > >, std::less<int>, std::allocator<std::pair<const int, std::map<int, IEC104WF::stPointTable, std::less<int>, std::allocator<std::pair<const int, IEC104WF::stPointTable> > > > > > > > >::map
FUNC 2e0a2 1a 0 std::_Rb_tree<std::basic_string<char, std::char_traits<char>, std::allocator<char> >, std::pair<const std::basic_string<char, std::char_traits<char>, std::allocator<char> >, std::map<int, std::map<int, IEC104WF::stPointTable, std::less<int>, std::allocator<std::pair<const int, IEC104WF::stPointTable> > >, std::less<int>, std::allocator<std::pair<const int, std::map<int, IEC104WF::stPointTable, std::less<int>, std::allocator<std::pair<const int, IEC104WF::stPointTable> > > > > > >, std::_Select1st<std::pair<const std::basic_string<char, std::char_traits<char>, std::allocator<char> >, std::map<int, std::map<int, IEC104WF::stPointTable, std::less<int>, std::allocator<std::pair<const int, IEC104WF::stPointTable> > >, std::less<int>, std::allocator<std::pair<const int, std::map<int, IEC104WF::stPointTable, std::less<int>, std::allocator<std::pair<const int, IEC104WF::stPointTable> > > > > > > >, std::less<std::basic_string<char, std::char_traits<char>, std::allocator<char> > >, std::allocator<std::pair<const std::basic_string<char, std::char_traits<char>, std::allocator<char> >, std::map<int, std::map<int, IEC104WF::stPointTable, std::less<int>, std::allocator<std::pair<const int, IEC104WF::stPointTable> > >, std::less<int>, std::allocator<std::pair<const int, std::map<int, IEC104WF::stPointTable, std::less<int>, std::allocator<std::pair<const int, IEC104WF::stPointTable> > > > > > > > >::_Rb_tree_impl<std::less<std::basic_string<char, std::char_traits<char>, std::allocator<char> > >, false>::~_Rb_tree_impl
FUNC 2e0bc 63 0 std::_Rb_tree<std::basic_string<char, std::char_traits<char>, std::allocator<char> >, std::pair<const std::basic_string<char, std::char_traits<char>, std::allocator<char> >, std::map<int, std::map<int, IEC104WF::stPointTable, std::less<int>, std::allocator<std::pair<const int, IEC104WF::stPointTable> > >, std::less<int>, std::allocator<std::pair<const int, std::map<int, IEC104WF::stPointTable, std::less<int>, std::allocator<std::pair<const int, IEC104WF::stPointTable> > > > > > >, std::_Select1st<std::pair<const std::basic_string<char, std::char_traits<char>, std::allocator<char> >, std::map<int, std::map<int, IEC104WF::stPointTable, std::less<int>, std::allocator<std::pair<const int, IEC104WF::stPointTable> > >, std::less<int>, std::allocator<std::pair<const int, std::map<int, IEC104WF::stPointTable, std::less<int>, std::allocator<std::pair<const int, IEC104WF::stPointTable> > > > > > > >, std::less<std::basic_string<char, std::char_traits<char>, std::allocator<char> > >, std::allocator<std::pair<const std::basic_string<char, std::char_traits<char>, std::allocator<char> >, std::map<int, std::map<int, IEC104WF::stPointTable, std::less<int>, std::allocator<std::pair<const int, IEC104WF::stPointTable> > >, std::less<int>, std::allocator<std::pair<const int, std::map<int, IEC104WF::stPointTable, std::less<int>, std::allocator<std::pair<const int, IEC104WF::stPointTable> > > > > > > > >::~_Rb_tree
FUNC 2e120 1a 0 std::map<int, std::map<int, IEC104WF::stPointTable, std::less<int>, std::allocator<std::pair<const int, IEC104WF::stPointTable> > >, std::less<int>, std::allocator<std::pair<const int, std::map<int, IEC104WF::stPointTable, std::less<int>, std::allocator<std::pair<const int, IEC104WF::stPointTable> > > > > >::map
FUNC 2e13a 1a 0 std::_Rb_tree<int, std::pair<const int, std::map<int, IEC104WF::stPointTable, std::less<int>, std::allocator<std::pair<const int, IEC104WF::stPointTable> > > >, std::_Select1st<std::pair<const int, std::map<int, IEC104WF::stPointTable, std::less<int>, std::allocator<std::pair<const int, IEC104WF::stPointTable> > > > >, std::less<int>, std::allocator<std::pair<const int, std::map<int, IEC104WF::stPointTable, std::less<int>, std::allocator<std::pair<const int, IEC104WF::stPointTable> > > > > >::_Rb_tree_impl<std::less<int>, false>::~_Rb_tree_impl
FUNC 2e154 63 0 std::_Rb_tree<int, std::pair<const int, std::map<int, IEC104WF::stPointTable, std::less<int>, std::allocator<std::pair<const int, IEC104WF::stPointTable> > > >, std::_Select1st<std::pair<const int, std::map<int, IEC104WF::stPointTable, std::less<int>, std::allocator<std::pair<const int, IEC104WF::stPointTable> > > > >, std::less<int>, std::allocator<std::pair<const int, std::map<int, IEC104WF::stPointTable, std::less<int>, std::allocator<std::pair<const int, IEC104WF::stPointTable> > > > > >::~_Rb_tree
FUNC 2e1b8 1a 0 std::map<int, IEC104WF::stPointTable, std::less<int>, std::allocator<std::pair<const int, IEC104WF::stPointTable> > >::map
FUNC 2e1d2 1a 0 std::_Rb_tree<int, std::pair<const int, IEC104WF::stPointTable>, std::_Select1st<std::pair<const int, IEC104WF::stPointTable> >, std::less<int>, std::allocator<std::pair<const int, IEC104WF::stPointTable> > >::_Rb_tree_impl<std::less<int>, false>::~_Rb_tree_impl
FUNC 2e1ec 63 0 std::_Rb_tree<int, std::pair<const int, IEC104WF::stPointTable>, std::_Select1st<std::pair<const int, IEC104WF::stPointTable> >, std::less<int>, std::allocator<std::pair<const int, IEC104WF::stPointTable> > >::~_Rb_tree
FUNC 2e250 1a 0 std::map<std::basic_string<char, std::char_traits<char>, std::allocator<char> >, IEC103::stConfigParam, std::less<std::basic_string<char, std::char_traits<char>, std::allocator<char> > >, std::allocator<std::pair<const std::basic_string<char, std::char_traits<char>, std::allocator<char> >, IEC103::stConfigParam> > >::map
FUNC 2e26a 1a 0 std::map<std::basic_string<char, std::char_traits<char>, std::allocator<char> >, std::map<std::basic_string<char, std::char_traits<char>, std::allocator<char> >, std::basic_string<char, std::char_traits<char>, std::allocator<char> >, std::less<std::basic_string<char, std::char_traits<char>, std::allocator<char> > >, std::allocator<std::pair<const std::basic_string<char, std::char_traits<char>, std::allocator<char> >, std::basic_string<char, std::char_traits<char>, std::allocator<char> > > > >, std::less<std::basic_string<char, std::char_traits<char>, std::allocator<char> > >, std::allocator<std::pair<const std::basic_string<char, std::char_traits<char>, std::allocator<char> >, std::map<std::basic_string<char, std::char_traits<char>, std::allocator<char> >, std::basic_string<char, std::char_traits<char>, std::allocator<char> >, std::less<std::basic_string<char, std::char_traits<char>, std::allocator<char> > >, std::allocator<std::pair<const std::basic_string<char, std::char_traits<char>, std::allocator<char> >, std::basic_string<char, std::char_traits<char>, std::allocator<char> > > > > > > >::map
FUNC 2e284 b9 0 std::vector<std::basic_string<char, std::char_traits<char>, std::allocator<char> >, std::allocator<std::basic_string<char, std::char_traits<char>, std::allocator<char> > > >::vector
FUNC 2e33e 1a 0 std::map<std::basic_string<char, std::char_traits<char>, std::allocator<char> >, IEC61850_STRUCT::IED_61850, std::less<std::basic_string<char, std::char_traits<char>, std::allocator<char> > >, std::allocator<std::pair<const std::basic_string<char, std::char_traits<char>, std::allocator<char> >, IEC61850_STRUCT::IED_61850> > >::clear
FUNC 2e358 25 0 std::map<std::basic_string<char, std::char_traits<char>, std::allocator<char> >, IEC61850_STRUCT::IED_61850, std::less<std::basic_string<char, std::char_traits<char>, std::allocator<char> > >, std::allocator<std::pair<const std::basic_string<char, std::char_traits<char>, std::allocator<char> >, IEC61850_STRUCT::IED_61850> > >::map
FUNC 2e37d 2a 0 std::operator==<char, std::char_traits<char>, std::allocator<char> >
FUNC 2e3a8 1a 0 std::map<std::basic_string<char, std::char_traits<char>, std::allocator<char> >, IEC103::stConfigParam, std::less<std::basic_string<char, std::char_traits<char>, std::allocator<char> > >, std::allocator<std::pair<const std::basic_string<char, std::char_traits<char>, std::allocator<char> >, IEC103::stConfigParam> > >::clear
FUNC 2e3c2 1a 0 std::map<std::basic_string<char, std::char_traits<char>, std::allocator<char> >, std::map<std::basic_string<char, std::char_traits<char>, std::allocator<char> >, std::basic_string<char, std::char_traits<char>, std::allocator<char> >, std::less<std::basic_string<char, std::char_traits<char>, std::allocator<char> > >, std::allocator<std::pair<const std::basic_string<char, std::char_traits<char>, std::allocator<char> >, std::basic_string<char, std::char_traits<char>, std::allocator<char> > > > >, std::less<std::basic_string<char, std::char_traits<char>, std::allocator<char> > >, std::allocator<std::pair<const std::basic_string<char, std::char_traits<char>, std::allocator<char> >, std::map<std::basic_string<char, std::char_traits<char>, std::allocator<char> >, std::basic_string<char, std::char_traits<char>, std::allocator<char> >, std::less<std::basic_string<char, std::char_traits<char>, std::allocator<char> > >, std::allocator<std::pair<const std::basic_string<char, std::char_traits<char>, std::allocator<char> >, std::basic_string<char, std::char_traits<char>, std::allocator<char> > > > > > > >::clear
FUNC 2e3dc 25 0 std::map<std::basic_string<char, std::char_traits<char>, std::allocator<char> >, IEC103::stConfigParam, std::less<std::basic_string<char, std::char_traits<char>, std::allocator<char> > >, std::allocator<std::pair<const std::basic_string<char, std::char_traits<char>, std::allocator<char> >, IEC103::stConfigParam> > >::map
FUNC 2e402 25 0 std::map<std::basic_string<char, std::char_traits<char>, std::allocator<char> >, std::map<std::basic_string<char, std::char_traits<char>, std::allocator<char> >, std::basic_string<char, std::char_traits<char>, std::allocator<char> >, std::less<std::basic_string<char, std::char_traits<char>, std::allocator<char> > >, std::allocator<std::pair<const std::basic_string<char, std::char_traits<char>, std::allocator<char> >, std::basic_string<char, std::char_traits<char>, std::allocator<char> > > > >, std::less<std::basic_string<char, std::char_traits<char>, std::allocator<char> > >, std::allocator<std::pair<const std::basic_string<char, std::char_traits<char>, std::allocator<char> >, std::map<std::basic_string<char, std::char_traits<char>, std::allocator<char> >, std::basic_string<char, std::char_traits<char>, std::allocator<char> >, std::less<std::basic_string<char, std::char_traits<char>, std::allocator<char> > >, std::allocator<std::pair<const std::basic_string<char, std::char_traits<char>, std::allocator<char> >, std::basic_string<char, std::char_traits<char>, std::allocator<char> > > > > > > >::map
FUNC 2e428 1a 0 std::map<std::basic_string<char, std::char_traits<char>, std::allocator<char> >, std::map<int, std::map<int, IEC104WF::stPointTable, std::less<int>, std::allocator<std::pair<const int, IEC104WF::stPointTable> > >, std::less<int>, std::allocator<std::pair<const int, std::map<int, IEC104WF::stPointTable, std::less<int>, std::allocator<std::pair<const int, IEC104WF::stPointTable> > > > > >, std::less<std::basic_string<char, std::char_traits<char>, std::allocator<char> > >, std::allocator<std::pair<const std::basic_string<char, std::char_traits<char>, std::allocator<char> >, std::map<int, std::map<int, IEC104WF::stPointTable, std::less<int>, std::allocator<std::pair<const int, IEC104WF::stPointTable> > >, std::less<int>, std::allocator<std::pair<const int, std::map<int, IEC104WF::stPointTable, std::less<int>, std::allocator<std::pair<const int, IEC104WF::stPointTable> > > > > > > > >::clear
FUNC 2e442 1a 0 std::map<int, std::map<int, IEC104WF::stPointTable, std::less<int>, std::allocator<std::pair<const int, IEC104WF::stPointTable> > >, std::less<int>, std::allocator<std::pair<const int, std::map<int, IEC104WF::stPointTable, std::less<int>, std::allocator<std::pair<const int, IEC104WF::stPointTable> > > > > >::clear
FUNC 2e45c 1a 0 std::map<int, IEC104WF::stPointTable, std::less<int>, std::allocator<std::pair<const int, IEC104WF::stPointTable> > >::clear
FUNC 2e476 25 0 std::map<std::basic_string<char, std::char_traits<char>, std::allocator<char> >, std::map<int, std::map<int, IEC104WF::stPointTable, std::less<int>, std::allocator<std::pair<const int, IEC104WF::stPointTable> > >, std::less<int>, std::allocator<std::pair<const int, std::map<int, IEC104WF::stPointTable, std::less<int>, std::allocator<std::pair<const int, IEC104WF::stPointTable> > > > > >, std::less<std::basic_string<char, std::char_traits<char>, std::allocator<char> > >, std::allocator<std::pair<const std::basic_string<char, std::char_traits<char>, std::allocator<char> >, std::map<int, std::map<int, IEC104WF::stPointTable, std::less<int>, std::allocator<std::pair<const int, IEC104WF::stPointTable> > >, std::less<int>, std::allocator<std::pair<const int, std::map<int, IEC104WF::stPointTable, std::less<int>, std::allocator<std::pair<const int, IEC104WF::stPointTable> > > > > > > > >::map
FUNC 2e49c 26 0 std::list<std::basic_string<char, std::char_traits<char>, std::allocator<char> >, std::allocator<std::basic_string<char, std::char_traits<char>, std::allocator<char> > > >::clear
FUNC 2e4c2 cf 0 std::list<std::basic_string<char, std::char_traits<char>, std::allocator<char> >, std::allocator<std::basic_string<char, std::char_traits<char>, std::allocator<char> > > >::list
FUNC 2e592 55 0 std::pair<const std::basic_string<char, std::char_traits<char>, std::allocator<char> >, IEC61850_STRUCT::IED_61850>::~pair
FUNC 2e5e8 1b7 0 std::map<std::basic_string<char, std::char_traits<char>, std::allocator<char> >, IEC61850_STRUCT::IED_61850, std::less<std::basic_string<char, std::char_traits<char>, std::allocator<char> > >, std::allocator<std::pair<const std::basic_string<char, std::char_traits<char>, std::allocator<char> >, IEC61850_STRUCT::IED_61850> > >::operator[]
FUNC 2e7a0 29 0 std::map<std::basic_string<char, std::char_traits<char>, std::allocator<char> >, std::basic_string<char, std::char_traits<char>, std::allocator<char> >, std::less<std::basic_string<char, std::char_traits<char>, std::allocator<char> > >, std::allocator<std::pair<const std::basic_string<char, std::char_traits<char>, std::allocator<char> >, std::basic_string<char, std::char_traits<char>, std::allocator<char> > > > >::operator=
FUNC 2e7ca 9e 0 WgjXml::stringToNum<float>
FUNC 2e868 92 0 WgjXml::stringToNum<int>
FUNC 2e8fa 1e 0 std::pair<const int, IEC104WF::stPointTable>::~pair
FUNC 2e918 15e 0 std::map<int, IEC104WF::stPointTable, std::less<int>, std::allocator<std::pair<const int, IEC104WF::stPointTable> > >::operator[]
FUNC 2ea76 1e 0 std::pair<const int, std::map<int, IEC104WF::stPointTable, std::less<int>, std::allocator<std::pair<const int, IEC104WF::stPointTable> > > >::~pair
FUNC 2ea94 185 0 std::map<int, std::map<int, IEC104WF::stPointTable, std::less<int>, std::allocator<std::pair<const int, IEC104WF::stPointTable> > >, std::less<int>, std::allocator<std::pair<const int, std::map<int, IEC104WF::stPointTable, std::less<int>, std::allocator<std::pair<const int, IEC104WF::stPointTable> > > > > >::operator[]
FUNC 2ec1a 29 0 std::map<int, IEC104WF::stPointTable, std::less<int>, std::allocator<std::pair<const int, IEC104WF::stPointTable> > >::operator=
FUNC 2ec44 55 0 std::pair<const std::basic_string<char, std::char_traits<char>, std::allocator<char> >, std::map<int, std::map<int, IEC104WF::stPointTable, std::less<int>, std::allocator<std::pair<const int, IEC104WF::stPointTable> > >, std::less<int>, std::allocator<std::pair<const int, std::map<int, IEC104WF::stPointTable, std::less<int>, std::allocator<std::pair<const int, IEC104WF::stPointTable> > > > > > >::~pair
FUNC 2ec9a 185 0 std::map<std::basic_string<char, std::char_traits<char>, std::allocator<char> >, std::map<int, std::map<int, IEC104WF::stPointTable, std::less<int>, std::allocator<std::pair<const int, IEC104WF::stPointTable> > >, std::less<int>, std::allocator<std::pair<const int, std::map<int, IEC104WF::stPointTable, std::less<int>, std::allocator<std::pair<const int, IEC104WF::stPointTable> > > > > >, std::less<std::basic_string<char, std::char_traits<char>, std::allocator<char> > >, std::allocator<std::pair<const std::basic_string<char, std::char_traits<char>, std::allocator<char> >, std::map<int, std::map<int, IEC104WF::stPointTable, std::less<int>, std::allocator<std::pair<const int, IEC104WF::stPointTable> > >, std::less<int>, std::allocator<std::pair<const int, std::map<int, IEC104WF::stPointTable, std::less<int>, std::allocator<std::pair<const int, IEC104WF::stPointTable> > > > > > > > >::operator[]
FUNC 2ee20 29 0 std::map<int, std::map<int, IEC104WF::stPointTable, std::less<int>, std::allocator<std::pair<const int, IEC104WF::stPointTable> > >, std::less<int>, std::allocator<std::pair<const int, std::map<int, IEC104WF::stPointTable, std::less<int>, std::allocator<std::pair<const int, IEC104WF::stPointTable> > > > > >::operator=
FUNC 2ee49 28 0 std::operator!=<char, std::char_traits<char>, std::allocator<char> >
FUNC 2ee72 187 0 std::map<std::basic_string<char, std::char_traits<char>, std::allocator<char> >, IEC103::stConfigParam, std::less<std::basic_string<char, std::char_traits<char>, std::allocator<char> > >, std::allocator<std::pair<const std::basic_string<char, std::char_traits<char>, std::allocator<char> >, IEC103::stConfigParam> > >::operator[]
FUNC 2effa 185 0 std::map<std::basic_string<char, std::char_traits<char>, std::allocator<char> >, std::map<std::basic_string<char, std::char_traits<char>, std::allocator<char> >, std::basic_string<char, std::char_traits<char>, std::allocator<char> >, std::less<std::basic_string<char, std::char_traits<char>, std::allocator<char> > >, std::allocator<std::pair<const std::basic_string<char, std::char_traits<char>, std::allocator<char> >, std::basic_string<char, std::char_traits<char>, std::allocator<char> > > > >, std::less<std::basic_string<char, std::char_traits<char>, std::allocator<char> > >, std::allocator<std::pair<const std::basic_string<char, std::char_traits<char>, std::allocator<char> >, std::map<std::basic_string<char, std::char_traits<char>, std::allocator<char> >, std::basic_string<char, std::char_traits<char>, std::allocator<char> >, std::less<std::basic_string<char, std::char_traits<char>, std::allocator<char> > >, std::allocator<std::pair<const std::basic_string<char, std::char_traits<char>, std::allocator<char> >, std::basic_string<char, std::char_traits<char>, std::allocator<char> > > > > > > >::operator[]
FUNC 2f180 34 0 std::list<std::basic_string<char, std::char_traits<char>, std::allocator<char> >, std::allocator<std::basic_string<char, std::char_traits<char>, std::allocator<char> > > >::push_back
FUNC 2f1b4 1a 0 std::_Rb_tree<std::basic_string<char, std::char_traits<char>, std::allocator<char> >, std::pair<const std::basic_string<char, std::char_traits<char>, std::allocator<char> >, IEC61850_STRUCT::IED_61850>, std::_Select1st<std::pair<const std::basic_string<char, std::char_traits<char>, std::allocator<char> >, IEC61850_STRUCT::IED_61850> >, std::less<std::basic_string<char, std::char_traits<char>, std::allocator<char> > >, std::allocator<std::pair<const std::basic_string<char, std::char_traits<char>, std::allocator<char> >, IEC61850_STRUCT::IED_61850> > >::_Rb_tree
FUNC 2f1ce 1a 0 std::allocator<std::_Rb_tree_node<std::pair<const std::basic_string<char, std::char_traits<char>, std::allocator<char> >, IEC61850_STRUCT::IED_61850> > >::~allocator
FUNC 2f1e8 69 0 std::_Rb_tree<std::basic_string<char, std::char_traits<char>, std::allocator<char> >, std::pair<const std::basic_string<char, std::char_traits<char>, std::allocator<char> >, IEC61850_STRUCT::IED_61850>, std::_Select1st<std::pair<const std::basic_string<char, std::char_traits<char>, std::allocator<char> >, IEC61850_STRUCT::IED_61850> >, std::less<std::basic_string<char, std::char_traits<char>, std::allocator<char> > >, std::allocator<std::pair<const std::basic_string<char, std::char_traits<char>, std::allocator<char> >, IEC61850_STRUCT::IED_61850> > >::_M_erase
FUNC 2f252 12 0 std::_Rb_tree<std::basic_string<char, std::char_traits<char>, std::allocator<char> >, std::pair<const std::basic_string<char, std::char_traits<char>, std::allocator<char> >, IEC61850_STRUCT::IED_61850>, std::_Select1st<std::pair<const std::basic_string<char, std::char_traits<char>, std::allocator<char> >, IEC61850_STRUCT::IED_61850> >, std::less<std::basic_string<char, std::char_traits<char>, std::allocator<char> > >, std::allocator<std::pair<const std::basic_string<char, std::char_traits<char>, std::allocator<char> >, IEC61850_STRUCT::IED_61850> > >::_M_begin
FUNC 2f264 26 0 std::_List_base<std::basic_string<char, std::char_traits<char>, std::allocator<char> >, std::allocator<std::basic_string<char, std::char_traits<char>, std::allocator<char> > > >::_List_base
FUNC 2f28a 1a 0 std::allocator<std::_List_node<std::basic_string<char, std::char_traits<char>, std::allocator<char> > > >::~allocator
FUNC 2f2a4 b8 0 std::_List_base<std::basic_string<char, std::char_traits<char>, std::allocator<char> >, std::allocator<std::basic_string<char, std::char_traits<char>, std::allocator<char> > > >::_M_clear
FUNC 2f35c 1a 0 std::_Rb_tree<std::basic_string<char, std::char_traits<char>, std::allocator<char> >, std::pair<const std::basic_string<char, std::char_traits<char>, std::allocator<char> >, std::map<int, std::map<int, IEC104WF::stPointTable, std::less<int>, std::allocator<std::pair<const int, IEC104WF::stPointTable> > >, std::less<int>, std::allocator<std::pair<const int, std::map<int, IEC104WF::stPointTable, std::less<int>, std::allocator<std::pair<const int, IEC104WF::stPointTable> > > > > > >, std::_Select1st<std::pair<const std::basic_string<char, std::char_traits<char>, std::allocator<char> >, std::map<int, std::map<int, IEC104WF::stPointTable, std::less<int>, std::allocator<std::pair<const int, IEC104WF::stPointTable> > >, std::less<int>, std::allocator<std::pair<const int, std::map<int, IEC104WF::stPointTable, std::less<int>, std::allocator<std::pair<const int, IEC104WF::stPointTable> > > > > > > >, std::less<std::basic_string<char, std::char_traits<char>, std::allocator<char> > >, std::allocator<std::pair<const std::basic_string<char, std::char_traits<char>, std::allocator<char> >, std::map<int, std::map<int, IEC104WF::stPointTable, std::less<int>, std::allocator<std::pair<const int, IEC104WF::stPointTable> > >, std::less<int>, std::allocator<std::pair<const int, std::map<int, IEC104WF::stPointTable, std::less<int>, std::allocator<std::pair<const int, IEC104WF::stPointTable> > > > > > > > >::_Rb_tree
FUNC 2f376 1a 0 std::allocator<std::_Rb_tree_node<std::pair<const std::basic_string<char, std::char_traits<char>, std::allocator<char> >, std::map<int, std::map<int, IEC104WF::stPointTable, std::less<int>, std::allocator<std::pair<const int, IEC104WF::stPointTable> > >, std::less<int>, std::allocator<std::pair<const int, std::map<int, IEC104WF::stPointTable, std::less<int>, std::allocator<std::pair<const int, IEC104WF::stPointTable> > > > > > > > >::~allocator
FUNC 2f390 69 0 std::_Rb_tree<std::basic_string<char, std::char_traits<char>, std::allocator<char> >, std::pair<const std::basic_string<char, std::char_traits<char>, std::allocator<char> >, std::map<int, std::map<int, IEC104WF::stPointTable, std::less<int>, std::allocator<std::pair<const int, IEC104WF::stPointTable> > >, std::less<int>, std::allocator<std::pair<const int, std::map<int, IEC104WF::stPointTable, std::less<int>, std::allocator<std::pair<const int, IEC104WF::stPointTable> > > > > > >, std::_Select1st<std::pair<const std::basic_string<char, std::char_traits<char>, std::allocator<char> >, std::map<int, std::map<int, IEC104WF::stPointTable, std::less<int>, std::allocator<std::pair<const int, IEC104WF::stPointTable> > >, std::less<int>, std::allocator<std::pair<const int, std::map<int, IEC104WF::stPointTable, std::less<int>, std::allocator<std::pair<const int, IEC104WF::stPointTable> > > > > > > >, std::less<std::basic_string<char, std::char_traits<char>, std::allocator<char> > >, std::allocator<std::pair<const std::basic_string<char, std::char_traits<char>, std::allocator<char> >, std::map<int, std::map<int, IEC104WF::stPointTable, std::less<int>, std::allocator<std::pair<const int, IEC104WF::stPointTable> > >, std::less<int>, std::allocator<std::pair<const int, std::map<int, IEC104WF::stPointTable, std::less<int>, std::allocator<std::pair<const int, IEC104WF::stPointTable> > > > > > > > >::_M_erase
FUNC 2f3fa 12 0 std::_Rb_tree<std::basic_string<char, std::char_traits<char>, std::allocator<char> >, std::pair<const std::basic_string<char, std::char_traits<char>, std::allocator<char> >, std::map<int, std::map<int, IEC104WF::stPointTable, std::less<int>, std::allocator<std::pair<const int, IEC104WF::stPointTable> > >, std::less<int>, std::allocator<std::pair<const int, std::map<int, IEC104WF::stPointTable, std::less<int>, std::allocator<std::pair<const int, IEC104WF::stPointTable> > > > > > >, std::_Select1st<std::pair<const std::basic_string<char, std::char_traits<char>, std::allocator<char> >, std::map<int, std::map<int, IEC104WF::stPointTable, std::less<int>, std::allocator<std::pair<const int, IEC104WF::stPointTable> > >, std::less<int>, std::allocator<std::pair<const int, std::map<int, IEC104WF::stPointTable, std::less<int>, std::allocator<std::pair<const int, IEC104WF::stPointTable> > > > > > > >, std::less<std::basic_string<char, std::char_traits<char>, std::allocator<char> > >, std::allocator<std::pair<const std::basic_string<char, std::char_traits<char>, std::allocator<char> >, std::map<int, std::map<int, IEC104WF::stPointTable, std::less<int>, std::allocator<std::pair<const int, IEC104WF::stPointTable> > >, std::less<int>, std::allocator<std::pair<const int, std::map<int, IEC104WF::stPointTable, std::less<int>, std::allocator<std::pair<const int, IEC104WF::stPointTable> > > > > > > > >::_M_begin
FUNC 2f40c 1a 0 std::_Rb_tree<int, std::pair<const int, std::map<int, IEC104WF::stPointTable, std::less<int>, std::allocator<std::pair<const int, IEC104WF::stPointTable> > > >, std::_Select1st<std::pair<const int, std::map<int, IEC104WF::stPointTable, std::less<int>, std::allocator<std::pair<const int, IEC104WF::stPointTable> > > > >, std::less<int>, std::allocator<std::pair<const int, std::map<int, IEC104WF::stPointTable, std::less<int>, std::allocator<std::pair<const int, IEC104WF::stPointTable> > > > > >::_Rb_tree
FUNC 2f426 1a 0 std::allocator<std::_Rb_tree_node<std::pair<const int, std::map<int, IEC104WF::stPointTable, std::less<int>, std::allocator<std::pair<const int, IEC104WF::stPointTable> > > > > >::~allocator
FUNC 2f440 69 0 std::_Rb_tree<int, std::pair<const int, std::map<int, IEC104WF::stPointTable, std::less<int>, std::allocator<std::pair<const int, IEC104WF::stPointTable> > > >, std::_Select1st<std::pair<const int, std::map<int, IEC104WF::stPointTable, std::less<int>, std::allocator<std::pair<const int, IEC104WF::stPointTable> > > > >, std::less<int>, std::allocator<std::pair<const int, std::map<int, IEC104WF::stPointTable, std::less<int>, std::allocator<std::pair<const int, IEC104WF::stPointTable> > > > > >::_M_erase
FUNC 2f4aa 12 0 std::_Rb_tree<int, std::pair<const int, std::map<int, IEC104WF::stPointTable, std::less<int>, std::allocator<std::pair<const int, IEC104WF::stPointTable> > > >, std::_Select1st<std::pair<const int, std::map<int, IEC104WF::stPointTable, std::less<int>, std::allocator<std::pair<const int, IEC104WF::stPointTable> > > > >, std::less<int>, std::allocator<std::pair<const int, std::map<int, IEC104WF::stPointTable, std::less<int>, std::allocator<std::pair<const int, IEC104WF::stPointTable> > > > > >::_M_begin
FUNC 2f4bc 1a 0 std::_Rb_tree<int, std::pair<const int, IEC104WF::stPointTable>, std::_Select1st<std::pair<const int, IEC104WF::stPointTable> >, std::less<int>, std::allocator<std::pair<const int, IEC104WF::stPointTable> > >::_Rb_tree
FUNC 2f4d6 1a 0 std::allocator<std::_Rb_tree_node<std::pair<const int, IEC104WF::stPointTable> > >::~allocator
FUNC 2f4f0 69 0 std::_Rb_tree<int, std::pair<const int, IEC104WF::stPointTable>, std::_Select1st<std::pair<const int, IEC104WF::stPointTable> >, std::less<int>, std::allocator<std::pair<const int, IEC104WF::stPointTable> > >::_M_erase
FUNC 2f55a 12 0 std::_Rb_tree<int, std::pair<const int, IEC104WF::stPointTable>, std::_Select1st<std::pair<const int, IEC104WF::stPointTable> >, std::less<int>, std::allocator<std::pair<const int, IEC104WF::stPointTable> > >::_M_begin
FUNC 2f56c 1a 0 std::_Rb_tree<std::basic_string<char, std::char_traits<char>, std::allocator<char> >, std::pair<const std::basic_string<char, std::char_traits<char>, std::allocator<char> >, IEC103::stConfigParam>, std::_Select1st<std::pair<const std::basic_string<char, std::char_traits<char>, std::allocator<char> >, IEC103::stConfigParam> >, std::less<std::basic_string<char, std::char_traits<char>, std::allocator<char> > >, std::allocator<std::pair<const std::basic_string<char, std::char_traits<char>, std::allocator<char> >, IEC103::stConfigParam> > >::_Rb_tree
FUNC 2f586 1a 0 std::_Rb_tree<std::basic_string<char, std::char_traits<char>, std::allocator<char> >, std::pair<const std::basic_string<char, std::char_traits<char>, std::allocator<char> >, std::map<std::basic_string<char, std::char_traits<char>, std::allocator<char> >, std::basic_string<char, std::char_traits<char>, std::allocator<char> >, std::less<std::basic_string<char, std::char_traits<char>, std::allocator<char> > >, std::allocator<std::pair<const std::basic_string<char, std::char_traits<char>, std::allocator<char> >, std::basic_string<char, std::char_traits<char>, std::allocator<char> > > > > >, std::_Select1st<std::pair<const std::basic_string<char, std::char_traits<char>, std::allocator<char> >, std::map<std::basic_string<char, std::char_traits<char>, std::allocator<char> >, std::basic_string<char, std::char_traits<char>, std::allocator<char> >, std::less<std::basic_string<char, std::char_traits<char>, std::allocator<char> > >, std::allocator<std::pair<const std::basic_string<char, std::char_traits<char>, std::allocator<char> >, std::basic_string<char, std::char_traits<char>, std::allocator<char> > > > > > >, std::less<std::basic_string<char, std::char_traits<char>, std::allocator<char> > >, std::allocator<std::pair<const std::basic_string<char, std::char_traits<char>, std::allocator<char> >, std::map<std::basic_string<char, std::char_traits<char>, std::allocator<char> >, std::basic_string<char, std::char_traits<char>, std::allocator<char> >, std::less<std::basic_string<char, std::char_traits<char>, std::allocator<char> > >, std::allocator<std::pair<const std::basic_string<char, std::char_traits<char>, std::allocator<char> >, std::basic_string<char, std::char_traits<char>, std::allocator<char> > > > > > > >::_Rb_tree
FUNC 2f5a0 96 0 std::_Vector_base<std::basic_string<char, std::char_traits<char>, std::allocator<char> >, std::allocator<std::basic_string<char, std::char_traits<char>, std::allocator<char> > > >::_Vector_base
FUNC 2f636 8d 0 std::_Rb_tree<std::basic_string<char, std::char_traits<char>, std::allocator<char> >, std::pair<const std::basic_string<char, std::char_traits<char>, std::allocator<char> >, IEC61850_STRUCT::IED_61850>, std::_Select1st<std::pair<const std::basic_string<char, std::char_traits<char>, std::allocator<char> >, IEC61850_STRUCT::IED_61850> >, std::less<std::basic_string<char, std::char_traits<char>, std::allocator<char> > >, std::allocator<std::pair<const std::basic_string<char, std::char_traits<char>, std::allocator<char> >, IEC61850_STRUCT::IED_61850> > >::clear
FUNC 2f6c4 11d 0 std::_Rb_tree<std::basic_string<char, std::char_traits<char>, std::allocator<char> >, std::pair<const std::basic_string<char, std::char_traits<char>, std::allocator<char> >, IEC61850_STRUCT::IED_61850>, std::_Select1st<std::pair<const std::basic_string<char, std::char_traits<char>, std::allocator<char> >, IEC61850_STRUCT::IED_61850> >, std::less<std::basic_string<char, std::char_traits<char>, std::allocator<char> > >, std::allocator<std::pair<const std::basic_string<char, std::char_traits<char>, std::allocator<char> >, IEC61850_STRUCT::IED_61850> > >::_Rb_tree
FUNC 2f7e2 8d 0 std::_Rb_tree<std::basic_string<char, std::char_traits<char>, std::allocator<char> >, std::pair<const std::basic_string<char, std::char_traits<char>, std::allocator<char> >, IEC103::stConfigParam>, std::_Select1st<std::pair<const std::basic_string<char, std::char_traits<char>, std::allocator<char> >, IEC103::stConfigParam> >, std::less<std::basic_string<char, std::char_traits<char>, std::allocator<char> > >, std::allocator<std::pair<const std::basic_string<char, std::char_traits<char>, std::allocator<char> >, IEC103::stConfigParam> > >::clear
FUNC 2f870 8d 0 std::_Rb_tree<std::basic_string<char, std::char_traits<char>, std::allocator<char> >, std::pair<const std::basic_string<char, std::char_traits<char>, std::allocator<char> >, std::map<std::basic_string<char, std::char_traits<char>, std::allocator<char> >, std::basic_string<char, std::char_traits<char>, std::allocator<char> >, std::less<std::basic_string<char, std::char_traits<char>, std::allocator<char> > >, std::allocator<std::pair<const std::basic_string<char, std::char_traits<char>, std::allocator<char> >, std::basic_string<char, std::char_traits<char>, std::allocator<char> > > > > >, std::_Select1st<std::pair<const std::basic_string<char, std::char_traits<char>, std::allocator<char> >, std::map<std::basic_string<char, std::char_traits<char>, std::allocator<char> >, std::basic_string<char, std::char_traits<char>, std::allocator<char> >, std::less<std::basic_string<char, std::char_traits<char>, std::allocator<char> > >, std::allocator<std::pair<const std::basic_string<char, std::char_traits<char>, std::allocator<char> >, std::basic_string<char, std::char_traits<char>, std::allocator<char> > > > > > >, std::less<std::basic_string<char, std::char_traits<char>, std::allocator<char> > >, std::allocator<std::pair<const std::basic_string<char, std::char_traits<char>, std::allocator<char> >, std::map<std::basic_string<char, std::char_traits<char>, std::allocator<char> >, std::basic_string<char, std::char_traits<char>, std::allocator<char> >, std::less<std::basic_string<char, std::char_traits<char>, std::allocator<char> > >, std::allocator<std::pair<const std::basic_string<char, std::char_traits<char>, std::allocator<char> >, std::basic_string<char, std::char_traits<char>, std::allocator<char> > > > > > > >::clear
FUNC 2f8fe 11d 0 std::_Rb_tree<std::basic_string<char, std::char_traits<char>, std::allocator<char> >, std::pair<const std::basic_string<char, std::char_traits<char>, std::allocator<char> >, IEC103::stConfigParam>, std::_Select1st<std::pair<const std::basic_string<char, std::char_traits<char>, std::allocator<char> >, IEC103::stConfigParam> >, std::less<std::basic_string<char, std::char_traits<char>, std::allocator<char> > >, std::allocator<std::pair<const std::basic_string<char, std::char_traits<char>, std::allocator<char> >, IEC103::stConfigParam> > >::_Rb_tree
FUNC 2fa1c 11d 0 std::_Rb_tree<std::basic_string<char, std::char_traits<char>, std::allocator<char> >, std::pair<const std::basic_string<char, std::char_traits<char>, std::allocator<char> >, std::map<std::basic_string<char, std::char_traits<char>, std::allocator<char> >, std::basic_string<char, std::char_traits<char>, std::allocator<char> >, std::less<std::basic_string<char, std::char_traits<char>, std::allocator<char> > >, std::allocator<std::pair<const std::basic_string<char, std::char_traits<char>, std::allocator<char> >, std::basic_string<char, std::char_traits<char>, std::allocator<char> > > > > >, std::_Select1st<std::pair<const std::basic_string<char, std::char_traits<char>, std::allocator<char> >, std::map<std::basic_string<char, std::char_traits<char>, std::allocator<char> >, std::basic_string<char, std::char_traits<char>, std::allocator<char> >, std::less<std::basic_string<char, std::char_traits<char>, std::allocator<char> > >, std::allocator<std::pair<const std::basic_string<char, std::char_traits<char>, std::allocator<char> >, std::basic_string<char, std::char_traits<char>, std::allocator<char> > > > > > >, std::less<std::basic_string<char, std::char_traits<char>, std::allocator<char> > >, std::allocator<std::pair<const std::basic_string<char, std::char_traits<char>, std::allocator<char> >, std::map<std::basic_string<char, std::char_traits<char>, std::allocator<char> >, std::basic_string<char, std::char_traits<char>, std::allocator<char> >, std::less<std::basic_string<char, std::char_traits<char>, std::allocator<char> > >, std::allocator<std::pair<const std::basic_string<char, std::char_traits<char>, std::allocator<char> >, std::basic_string<char, std::char_traits<char>, std::allocator<char> > > > > > > >::_Rb_tree
FUNC 2fb3a 8d 0 std::_Rb_tree<std::basic_string<char, std::char_traits<char>, std::allocator<char> >, std::pair<const std::basic_string<char, std::char_traits<char>, std::allocator<char> >, std::map<int, std::map<int, IEC104WF::stPointTable, std::less<int>, std::allocator<std::pair<const int, IEC104WF::stPointTable> > >, std::less<int>, std::allocator<std::pair<const int, std::map<int, IEC104WF::stPointTable, std::less<int>, std::allocator<std::pair<const int, IEC104WF::stPointTable> > > > > > >, std::_Select1st<std::pair<const std::basic_string<char, std::char_traits<char>, std::allocator<char> >, std::map<int, std::map<int, IEC104WF::stPointTable, std::less<int>, std::allocator<std::pair<const int, IEC104WF::stPointTable> > >, std::less<int>, std::allocator<std::pair<const int, std::map<int, IEC104WF::stPointTable, std::less<int>, std::allocator<std::pair<const int, IEC104WF::stPointTable> > > > > > > >, std::less<std::basic_string<char, std::char_traits<char>, std::allocator<char> > >, std::allocator<std::pair<const std::basic_string<char, std::char_traits<char>, std::allocator<char> >, std::map<int, std::map<int, IEC104WF::stPointTable, std::less<int>, std::allocator<std::pair<const int, IEC104WF::stPointTable> > >, std::less<int>, std::allocator<std::pair<const int, std::map<int, IEC104WF::stPointTable, std::less<int>, std::allocator<std::pair<const int, IEC104WF::stPointTable> > > > > > > > >::clear
FUNC 2fbc8 8d 0 std::_Rb_tree<int, std::pair<const int, std::map<int, IEC104WF::stPointTable, std::less<int>, std::allocator<std::pair<const int, IEC104WF::stPointTable> > > >, std::_Select1st<std::pair<const int, std::map<int, IEC104WF::stPointTable, std::less<int>, std::allocator<std::pair<const int, IEC104WF::stPointTable> > > > >, std::less<int>, std::allocator<std::pair<const int, std::map<int, IEC104WF::stPointTable, std::less<int>, std::allocator<std::pair<const int, IEC104WF::stPointTable> > > > > >::clear
FUNC 2fc56 8d 0 std::_Rb_tree<int, std::pair<const int, IEC104WF::stPointTable>, std::_Select1st<std::pair<const int, IEC104WF::stPointTable> >, std::less<int>, std::allocator<std::pair<const int, IEC104WF::stPointTable> > >::clear
FUNC 2fce4 11d 0 std::_Rb_tree<std::basic_string<char, std::char_traits<char>, std::allocator<char> >, std::pair<const std::basic_string<char, std::char_traits<char>, std::allocator<char> >, std::map<int, std::map<int, IEC104WF::stPointTable, std::less<int>, std::allocator<std::pair<const int, IEC104WF::stPointTable> > >, std::less<int>, std::allocator<std::pair<const int, std::map<int, IEC104WF::stPointTable, std::less<int>, std::allocator<std::pair<const int, IEC104WF::stPointTable> > > > > > >, std::_Select1st<std::pair<const std::basic_string<char, std::char_traits<char>, std::allocator<char> >, std::map<int, std::map<int, IEC104WF::stPointTable, std::less<int>, std::allocator<std::pair<const int, IEC104WF::stPointTable> > >, std::less<int>, std::allocator<std::pair<const int, std::map<int, IEC104WF::stPointTable, std::less<int>, std::allocator<std::pair<const int, IEC104WF::stPointTable> > > > > > > >, std::less<std::basic_string<char, std::char_traits<char>, std::allocator<char> > >, std::allocator<std::pair<const std::basic_string<char, std::char_traits<char>, std::allocator<char> >, std::map<int, std::map<int, IEC104WF::stPointTable, std::less<int>, std::allocator<std::pair<const int, IEC104WF::stPointTable> > >, std::less<int>, std::allocator<std::pair<const int, std::map<int, IEC104WF::stPointTable, std::less<int>, std::allocator<std::pair<const int, IEC104WF::stPointTable> > > > > > > > >::_Rb_tree
FUNC 2fe02 21 0 std::_List_base<std::basic_string<char, std::char_traits<char>, std::allocator<char> >, std::allocator<std::basic_string<char, std::char_traits<char>, std::allocator<char> > > >::_M_init
FUNC 2fe24 e 0 std::_List_base<std::basic_string<char, std::char_traits<char>, std::allocator<char> >, std::allocator<std::basic_string<char, std::char_traits<char>, std::allocator<char> > > >::_M_get_Node_allocator
FUNC 2fe32 1e 0 std::allocator<std::basic_string<char, std::char_traits<char>, std::allocator<char> > >::allocator<std::_List_node<std::basic_string<char, std::char_traits<char>, std::allocator<char> > > >
FUNC 2fe50 50 0 std::_List_base<std::basic_string<char, std::char_traits<char>, std::allocator<char> >, std::allocator<std::basic_string<char, std::char_traits<char>, std::allocator<char> > > >::_List_base
FUNC 2fea0 28 0 std::list<std::basic_string<char, std::char_traits<char>, std::allocator<char> >, std::allocator<std::basic_string<char, std::char_traits<char>, std::allocator<char> > > >::begin
FUNC 2fec8 25 0 std::list<std::basic_string<char, std::char_traits<char>, std::allocator<char> >, std::allocator<std::basic_string<char, std::char_traits<char>, std::allocator<char> > > >::end
FUNC 2feee 59 0 std::list<std::basic_string<char, std::char_traits<char>, std::allocator<char> >, std::allocator<std::basic_string<char, std::char_traits<char>, std::allocator<char> > > >::_M_initialize_dispatch<std::_List_const_iterator<std::basic_string<char, std::char_traits<char>, std::allocator<char> > > >
FUNC 2ff48 25 0 std::map<std::basic_string<char, std::char_traits<char>, std::allocator<char> >, IEC61850_STRUCT::IED_61850, std::less<std::basic_string<char, std::char_traits<char>, std::allocator<char> > >, std::allocator<std::pair<const std::basic_string<char, std::char_traits<char>, std::allocator<char> >, IEC61850_STRUCT::IED_61850> > >::lower_bound
FUNC 2ff6e 1a 0 std::map<std::basic_string<char, std::char_traits<char>, std::allocator<char> >, IEC61850_STRUCT::IED_61850, std::less<std::basic_string<char, std::char_traits<char>, std::allocator<char> > >, std::allocator<std::pair<const std::basic_string<char, std::char_traits<char>, std::allocator<char> >, IEC61850_STRUCT::IED_61850> > >::key_comp
FUNC 2ff88 15 0 std::_Rb_tree_iterator<std::pair<const std::basic_string<char, std::char_traits<char>, std::allocator<char> >, IEC61850_STRUCT::IED_61850> >::operator*
FUNC 2ff9e 1a 0 std::map<std::basic_string<char, std::char_traits<char>, std::allocator<char> >, IEC61850_STRUCT::IED_61850, std::less<std::basic_string<char, std::char_traits<char>, std::allocator<char> > >, std::allocator<std::pair<const std::basic_string<char, std::char_traits<char>, std::allocator<char> >, IEC61850_STRUCT::IED_61850> > >::end
FUNC 2ffb8 22 0 std::_Rb_tree_iterator<std::pair<const std::basic_string<char, std::char_traits<char>, std::allocator<char> >, IEC61850_STRUCT::IED_61850> >::operator==
FUNC 2ffda 1dc 0 IEC61850_STRUCT::IED_61850::IED_61850
FUNC 301b6 6b 0 std::pair<const std::basic_string<char, std::char_traits<char>, std::allocator<char> >, IEC61850_STRUCT::IED_61850>::pair
FUNC 30222 40 0 std::map<std::basic_string<char, std::char_traits<char>, std::allocator<char> >, IEC61850_STRUCT::IED_61850, std::less<std::basic_string<char, std::char_traits<char>, std::allocator<char> > >, std::allocator<std::pair<const std::basic_string<char, std::char_traits<char>, std::allocator<char> >, IEC61850_STRUCT::IED_61850> > >::insert
FUNC 30262 f8 0 std::_Rb_tree<std::basic_string<char, std::char_traits<char>, std::allocator<char> >, std::pair<const std::basic_string<char, std::char_traits<char>, std::allocator<char> >, std::basic_string<char, std::char_traits<char>, std::allocator<char> > >, std::_Select1st<std::pair<const std::basic_string<char, std::char_traits<char>, std::allocator<char> >, std::basic_string<char, std::char_traits<char>, std::allocator<char> > > >, std::less<std::basic_string<char, std::char_traits<char>, std::allocator<char> > >, std::allocator<std::pair<const std::basic_string<char, std::char_traits<char>, std::allocator<char> >, std::basic_string<char, std::char_traits<char>, std::allocator<char> > > > >::operator=
FUNC 3035a 25 0 std::map<int, IEC104WF::stPointTable, std::less<int>, std::allocator<std::pair<const int, IEC104WF::stPointTable> > >::lower_bound
FUNC 30380 1a 0 std::map<int, IEC104WF::stPointTable, std::less<int>, std::allocator<std::pair<const int, IEC104WF::stPointTable> > >::key_comp
FUNC 3039a 15 0 std::_Rb_tree_iterator<std::pair<const int, IEC104WF::stPointTable> >::operator*
FUNC 303b0 23 0 std::less<int>::operator()
FUNC 303d4 1a 0 std::map<int, IEC104WF::stPointTable, std::less<int>, std::allocator<std::pair<const int, IEC104WF::stPointTable> > >::end
FUNC 303ee 22 0 std::_Rb_tree_iterator<std::pair<const int, IEC104WF::stPointTable> >::operator==
FUNC 30410 41 0 IEC104WF::stPointTable::stPointTable
FUNC 30452 39 0 std::pair<const int, IEC104WF::stPointTable>::pair
FUNC 3048c 40 0 std::map<int, IEC104WF::stPointTable, std::less<int>, std::allocator<std::pair<const int, IEC104WF::stPointTable> > >::insert
FUNC 304cc 25 0 std::map<int, std::map<int, IEC104WF::stPointTable, std::less<int>, std::allocator<std::pair<const int, IEC104WF::stPointTable> > >, std::less<int>, std::allocator<std::pair<const int, std::map<int, IEC104WF::stPointTable, std::less<int>, std::allocator<std::pair<const int, IEC104WF::stPointTable> > > > > >::lower_bound
FUNC 304f2 1a 0 std::map<int, std::map<int, IEC104WF::stPointTable, std::less<int>, std::allocator<std::pair<const int, IEC104WF::stPointTable> > >, std::less<int>, std::allocator<std::pair<const int, std::map<int, IEC104WF::stPointTable, std::less<int>, std::allocator<std::pair<const int, IEC104WF::stPointTable> > > > > >::key_comp
FUNC 3050c 15 0 std::_Rb_tree_iterator<std::pair<const int, std::map<int, IEC104WF::stPointTable, std::less<int>, std::allocator<std::pair<const int, IEC104WF::stPointTable> > > > >::operator*
FUNC 30522 1a 0 std::map<int, std::map<int, IEC104WF::stPointTable, std::less<int>, std::allocator<std::pair<const int, IEC104WF::stPointTable> > >, std::less<int>, std::allocator<std::pair<const int, std::map<int, IEC104WF::stPointTable, std::less<int>, std::allocator<std::pair<const int, IEC104WF::stPointTable> > > > > >::end
FUNC 3053c 22 0 std::_Rb_tree_iterator<std::pair<const int, std::map<int, IEC104WF::stPointTable, std::less<int>, std::allocator<std::pair<const int, IEC104WF::stPointTable> > > > >::operator==
FUNC 3055e 39 0 std::pair<const int, std::map<int, IEC104WF::stPointTable, std::less<int>, std::allocator<std::pair<const int, IEC104WF::stPointTable> > > >::pair
FUNC 30598 40 0 std::map<int, std::map<int, IEC104WF::stPointTable, std::less<int>, std::allocator<std::pair<const int, IEC104WF::stPointTable> > >, std::less<int>, std::allocator<std::pair<const int, std::map<int, IEC104WF::stPointTable, std::less<int>, std::allocator<std::pair<const int, IEC104WF::stPointTable> > > > > >::insert
FUNC 305d8 f8 0 std::_Rb_tree<int, std::pair<const int, IEC104WF::stPointTable>, std::_Select1st<std::pair<const int, IEC104WF::stPointTable> >, std::less<int>, std::allocator<std::pair<const int, IEC104WF::stPointTable> > >::operator=
FUNC 306d0 25 0 std::map<std::basic_string<char, std::char_traits<char>, std::allocator<char> >, std::map<int, std::map<int, IEC104WF::stPointTable, std::less<int>, std::allocator<std::pair<const int, IEC104WF::stPointTable> > >, std::less<int>, std::allocator<std::pair<const int, std::map<int, IEC104WF::stPointTable, std::less<int>, std::allocator<std::pair<const int, IEC104WF::stPointTable> > > > > >, std::less<std::basic_string<char, std::char_traits<char>, std::allocator<char> > >, std::allocator<std::pair<const std::basic_string<char, std::char_traits<char>, std::allocator<char> >, std::map<int, std::map<int, IEC104WF::stPointTable, std::less<int>, std::allocator<std::pair<const int, IEC104WF::stPointTable> > >, std::less<int>, std::allocator<std::pair<const int, std::map<int, IEC104WF::stPointTable, std::less<int>, std::allocator<std::pair<const int, IEC104WF::stPointTable> > > > > > > > >::lower_bound
FUNC 306f6 1a 0 std::map<std::basic_string<char, std::char_traits<char>, std::allocator<char> >, std::map<int, std::map<int, IEC104WF::stPointTable, std::less<int>, std::allocator<std::pair<const int, IEC104WF::stPointTable> > >, std::less<int>, std::allocator<std::pair<const int, std::map<int, IEC104WF::stPointTable, std::less<int>, std::allocator<std::pair<const int, IEC104WF::stPointTable> > > > > >, std::less<std::basic_string<char, std::char_traits<char>, std::allocator<char> > >, std::allocator<std::pair<const std::basic_string<char, std::char_traits<char>, std::allocator<char> >, std::map<int, std::map<int, IEC104WF::stPointTable, std::less<int>, std::allocator<std::pair<const int, IEC104WF::stPointTable> > >, std::less<int>, std::allocator<std::pair<const int, std::map<int, IEC104WF::stPointTable, std::less<int>, std::allocator<std::pair<const int, IEC104WF::stPointTable> > > > > > > > >::key_comp
FUNC 30710 15 0 std::_Rb_tree_iterator<std::pair<const std::basic_string<char, std::char_traits<char>, std::allocator<char> >, std::map<int, std::map<int, IEC104WF::stPointTable, std::less<int>, std::allocator<std::pair<const int, IEC104WF::stPointTable> > >, std::less<int>, std::allocator<std::pair<const int, std::map<int, IEC104WF::stPointTable, std::less<int>, std::allocator<std::pair<const int, IEC104WF::stPointTable> > > > > > > >::operator*
FUNC 30726 1a 0 std::map<std::basic_string<char, std::char_traits<char>, std::allocator<char> >, std::map<int, std::map<int, IEC104WF::stPointTable, std::less<int>, std::allocator<std::pair<const int, IEC104WF::stPointTable> > >, std::less<int>, std::allocator<std::pair<const int, std::map<int, IEC104WF::stPointTable, std::less<int>, std::allocator<std::pair<const int, IEC104WF::stPointTable> > > > > >, std::less<std::basic_string<char, std::char_traits<char>, std::allocator<char> > >, std::allocator<std::pair<const std::basic_string<char, std::char_traits<char>, std::allocator<char> >, std::map<int, std::map<int, IEC104WF::stPointTable, std::less<int>, std::allocator<std::pair<const int, IEC104WF::stPointTable> > >, std::less<int>, std::allocator<std::pair<const int, std::map<int, IEC104WF::stPointTable, std::less<int>, std::allocator<std::pair<const int, IEC104WF::stPointTable> > > > > > > > >::end
FUNC 30740 22 0 std::_Rb_tree_iterator<std::pair<const std::basic_string<char, std::char_traits<char>, std::allocator<char> >, std::map<int, std::map<int, IEC104WF::stPointTable, std::less<int>, std::allocator<std::pair<const int, IEC104WF::stPointTable> > >, std::less<int>, std::allocator<std::pair<const int, std::map<int, IEC104WF::stPointTable, std::less<int>, std::allocator<std::pair<const int, IEC104WF::stPointTable> > > > > > > >::operator==
FUNC 30762 6b 0 std::pair<const std::basic_string<char, std::char_traits<char>, std::allocator<char> >, std::map<int, std::map<int, IEC104WF::stPointTable, std::less<int>, std::allocator<std::pair<const int, IEC104WF::stPointTable> > >, std::less<int>, std::allocator<std::pair<const int, std::map<int, IEC104WF::stPointTable, std::less<int>, std::allocator<std::pair<const int, IEC104WF::stPointTable> > > > > > >::pair
FUNC 307ce 40 0 std::map<std::basic_string<char, std::char_traits<char>, std::allocator<char> >, std::map<int, std::map<int, IEC104WF::stPointTable, std::less<int>, std::allocator<std::pair<const int, IEC104WF::stPointTable> > >, std::less<int>, std::allocator<std::pair<const int, std::map<int, IEC104WF::stPointTable, std::less<int>, std::allocator<std::pair<const int, IEC104WF::stPointTable> > > > > >, std::less<std::basic_string<char, std::char_traits<char>, std::allocator<char> > >, std::allocator<std::pair<const std::basic_string<char, std::char_traits<char>, std::allocator<char> >, std::map<int, std::map<int, IEC104WF::stPointTable, std::less<int>, std::allocator<std::pair<const int, IEC104WF::stPointTable> > >, std::less<int>, std::allocator<std::pair<const int, std::map<int, IEC104WF::stPointTable, std::less<int>, std::allocator<std::pair<const int, IEC104WF::stPointTable> > > > > > > > >::insert
FUNC 3080e f8 0 std::_Rb_tree<int, std::pair<const int, std::map<int, IEC104WF::stPointTable, std::less<int>, std::allocator<std::pair<const int, IEC104WF::stPointTable> > > >, std::_Select1st<std::pair<const int, std::map<int, IEC104WF::stPointTable, std::less<int>, std::allocator<std::pair<const int, IEC104WF::stPointTable> > > > >, std::less<int>, std::allocator<std::pair<const int, std::map<int, IEC104WF::stPointTable, std::less<int>, std::allocator<std::pair<const int, IEC104WF::stPointTable> > > > > >::operator=
FUNC 30906 25 0 std::map<std::basic_string<char, std::char_traits<char>, std::allocator<char> >, IEC103::stConfigParam, std::less<std::basic_string<char, std::char_traits<char>, std::allocator<char> > >, std::allocator<std::pair<const std::basic_string<char, std::char_traits<char>, std::allocator<char> >, IEC103::stConfigParam> > >::lower_bound
FUNC 3092c 1a 0 std::map<std::basic_string<char, std::char_traits<char>, std::allocator<char> >, IEC103::stConfigParam, std::less<std::basic_string<char, std::char_traits<char>, std::allocator<char> > >, std::allocator<std::pair<const std::basic_string<char, std::char_traits<char>, std::allocator<char> >, IEC103::stConfigParam> > >::key_comp
FUNC 30946 15 0 std::_Rb_tree_iterator<std::pair<const std::basic_string<char, std::char_traits<char>, std::allocator<char> >, IEC103::stConfigParam> >::operator*
FUNC 3095c 1a 0 std::map<std::basic_string<char, std::char_traits<char>, std::allocator<char> >, IEC103::stConfigParam, std::less<std::basic_string<char, std::char_traits<char>, std::allocator<char> > >, std::allocator<std::pair<const std::basic_string<char, std::char_traits<char>, std::allocator<char> >, IEC103::stConfigParam> > >::end
FUNC 30976 22 0 std::_Rb_tree_iterator<std::pair<const std::basic_string<char, std::char_traits<char>, std::allocator<char> >, IEC103::stConfigParam> >::operator==
FUNC 30998 bf 0 IEC103::stConfigParam::stConfigParam
FUNC 30a58 6b 0 std::pair<const std::basic_string<char, std::char_traits<char>, std::allocator<char> >, IEC103::stConfigParam>::pair
FUNC 30ac4 40 0 std::map<std::basic_string<char, std::char_traits<char>, std::allocator<char> >, IEC103::stConfigParam, std::less<std::basic_string<char, std::char_traits<char>, std::allocator<char> > >, std::allocator<std::pair<const std::basic_string<char, std::char_traits<char>, std::allocator<char> >, IEC103::stConfigParam> > >::insert
FUNC 30b04 25 0 std::map<std::basic_string<char, std::char_traits<char>, std::allocator<char> >, std::map<std::basic_string<char, std::char_traits<char>, std::allocator<char> >, std::basic_string<char, std::char_traits<char>, std::allocator<char> >, std::less<std::basic_string<char, std::char_traits<char>, std::allocator<char> > >, std::allocator<std::pair<const std::basic_string<char, std::char_traits<char>, std::allocator<char> >, std::basic_string<char, std::char_traits<char>, std::allocator<char> > > > >, std::less<std::basic_string<char, std::char_traits<char>, std::allocator<char> > >, std::allocator<std::pair<const std::basic_string<char, std::char_traits<char>, std::allocator<char> >, std::map<std::basic_string<char, std::char_traits<char>, std::allocator<char> >, std::basic_string<char, std::char_traits<char>, std::allocator<char> >, std::less<std::basic_string<char, std::char_traits<char>, std::allocator<char> > >, std::allocator<std::pair<const std::basic_string<char, std::char_traits<char>, std::allocator<char> >, std::basic_string<char, std::char_traits<char>, std::allocator<char> > > > > > > >::lower_bound
FUNC 30b2a 1a 0 std::map<std::basic_string<char, std::char_traits<char>, std::allocator<char> >, std::map<std::basic_string<char, std::char_traits<char>, std::allocator<char> >, std::basic_string<char, std::char_traits<char>, std::allocator<char> >, std::less<std::basic_string<char, std::char_traits<char>, std::allocator<char> > >, std::allocator<std::pair<const std::basic_string<char, std::char_traits<char>, std::allocator<char> >, std::basic_string<char, std::char_traits<char>, std::allocator<char> > > > >, std::less<std::basic_string<char, std::char_traits<char>, std::allocator<char> > >, std::allocator<std::pair<const std::basic_string<char, std::char_traits<char>, std::allocator<char> >, std::map<std::basic_string<char, std::char_traits<char>, std::allocator<char> >, std::basic_string<char, std::char_traits<char>, std::allocator<char> >, std::less<std::basic_string<char, std::char_traits<char>, std::allocator<char> > >, std::allocator<std::pair<const std::basic_string<char, std::char_traits<char>, std::allocator<char> >, std::basic_string<char, std::char_traits<char>, std::allocator<char> > > > > > > >::key_comp
FUNC 30b44 15 0 std::_Rb_tree_iterator<std::pair<const std::basic_string<char, std::char_traits<char>, std::allocator<char> >, std::map<std::basic_string<char, std::char_traits<char>, std::allocator<char> >, std::basic_string<char, std::char_traits<char>, std::allocator<char> >, std::less<std::basic_string<char, std::char_traits<char>, std::allocator<char> > >, std::allocator<std::pair<const std::basic_string<char, std::char_traits<char>, std::allocator<char> >, std::basic_string<char, std::char_traits<char>, std::allocator<char> > > > > > >::operator*
FUNC 30b5a 1a 0 std::map<std::basic_string<char, std::char_traits<char>, std::allocator<char> >, std::map<std::basic_string<char, std::char_traits<char>, std::allocator<char> >, std::basic_string<char, std::char_traits<char>, std::allocator<char> >, std::less<std::basic_string<char, std::char_traits<char>, std::allocator<char> > >, std::allocator<std::pair<const std::basic_string<char, std::char_traits<char>, std::allocator<char> >, std::basic_string<char, std::char_traits<char>, std::allocator<char> > > > >, std::less<std::basic_string<char, std::char_traits<char>, std::allocator<char> > >, std::allocator<std::pair<const std::basic_string<char, std::char_traits<char>, std::allocator<char> >, std::map<std::basic_string<char, std::char_traits<char>, std::allocator<char> >, std::basic_string<char, std::char_traits<char>, std::allocator<char> >, std::less<std::basic_string<char, std::char_traits<char>, std::allocator<char> > >, std::allocator<std::pair<const std::basic_string<char, std::char_traits<char>, std::allocator<char> >, std::basic_string<char, std::char_traits<char>, std::allocator<char> > > > > > > >::end
FUNC 30b74 22 0 std::_Rb_tree_iterator<std::pair<const std::basic_string<char, std::char_traits<char>, std::allocator<char> >, std::map<std::basic_string<char, std::char_traits<char>, std::allocator<char> >, std::basic_string<char, std::char_traits<char>, std::allocator<char> >, std::less<std::basic_string<char, std::char_traits<char>, std::allocator<char> > >, std::allocator<std::pair<const std::basic_string<char, std::char_traits<char>, std::allocator<char> >, std::basic_string<char, std::char_traits<char>, std::allocator<char> > > > > > >::operator==
FUNC 30b96 6b 0 std::pair<const std::basic_string<char, std::char_traits<char>, std::allocator<char> >, std::map<std::basic_string<char, std::char_traits<char>, std::allocator<char> >, std::basic_string<char, std::char_traits<char>, std::allocator<char> >, std::less<std::basic_string<char, std::char_traits<char>, std::allocator<char> > >, std::allocator<std::pair<const std::basic_string<char, std::char_traits<char>, std::allocator<char> >, std::basic_string<char, std::char_traits<char>, std::allocator<char> > > > > >::pair
FUNC 30c02 40 0 std::map<std::basic_string<char, std::char_traits<char>, std::allocator<char> >, std::map<std::basic_string<char, std::char_traits<char>, std::allocator<char> >, std::basic_string<char, std::char_traits<char>, std::allocator<char> >, std::less<std::basic_string<char, std::char_traits<char>, std::allocator<char> > >, std::allocator<std::pair<const std::basic_string<char, std::char_traits<char>, std::allocator<char> >, std::basic_string<char, std::char_traits<char>, std::allocator<char> > > > >, std::less<std::basic_string<char, std::char_traits<char>, std::allocator<char> > >, std::allocator<std::pair<const std::basic_string<char, std::char_traits<char>, std::allocator<char> >, std::map<std::basic_string<char, std::char_traits<char>, std::allocator<char> >, std::basic_string<char, std::char_traits<char>, std::allocator<char> >, std::less<std::basic_string<char, std::char_traits<char>, std::allocator<char> > >, std::allocator<std::pair<const std::basic_string<char, std::char_traits<char>, std::allocator<char> >, std::basic_string<char, std::char_traits<char>, std::allocator<char> > > > > > > >::insert
FUNC 30c42 25 0 std::list<std::basic_string<char, std::char_traits<char>, std::allocator<char> >, std::allocator<std::basic_string<char, std::char_traits<char>, std::allocator<char> > > >::end
FUNC 30c68 40 0 std::list<std::basic_string<char, std::char_traits<char>, std::allocator<char> >, std::allocator<std::basic_string<char, std::char_traits<char>, std::allocator<char> > > >::_M_insert
FUNC 30ca8 61 0 std::_Rb_tree<std::basic_string<char, std::char_traits<char>, std::allocator<char> >, std::pair<const std::basic_string<char, std::char_traits<char>, std::allocator<char> >, IEC61850_STRUCT::IED_61850>, std::_Select1st<std::pair<const std::basic_string<char, std::char_traits<char>, std::allocator<char> >, IEC61850_STRUCT::IED_61850> >, std::less<std::basic_string<char, std::char_traits<char>, std::allocator<char> > >, std::allocator<std::pair<const std::basic_string<char, std::char_traits<char>, std::allocator<char> >, IEC61850_STRUCT::IED_61850> > >::_Rb_tree_impl<std::less<std::basic_string<char, std::char_traits<char>, std::allocator<char> > >, false>::_Rb_tree_impl
FUNC 30d0a a 0 __gnu_cxx::new_allocator<std::_Rb_tree_node<std::pair<const std::basic_string<char, std::char_traits<char>, std::allocator<char> >, IEC61850_STRUCT::IED_61850> > >::~new_allocator
FUNC 30d14 12 0 std::_Rb_tree<std::basic_string<char, std::char_traits<char>, std::allocator<char> >, std::pair<const std::basic_string<char, std::char_traits<char>, std::allocator<char> >, IEC61850_STRUCT::IED_61850>, std::_Select1st<std::pair<const std::basic_string<char, std::char_traits<char>, std::allocator<char> >, IEC61850_STRUCT::IED_61850> >, std::less<std::basic_string<char, std::char_traits<char>, std::allocator<char> > >, std::allocator<std::pair<const std::basic_string<char, std::char_traits<char>, std::allocator<char> >, IEC61850_STRUCT::IED_61850> > >::_S_right
FUNC 30d26 12 0 std::_Rb_tree<std::basic_string<char, std::char_traits<char>, std::allocator<char> >, std::pair<const std::basic_string<char, std::char_traits<char>, std::allocator<char> >, IEC61850_STRUCT::IED_61850>, std::_Select1st<std::pair<const std::basic_string<char, std::char_traits<char>, std::allocator<char> >, IEC61850_STRUCT::IED_61850> >, std::less<std::basic_string<char, std::char_traits<char>, std::allocator<char> > >, std::allocator<std::pair<const std::basic_string<char, std::char_traits<char>, std::allocator<char> >, IEC61850_STRUCT::IED_61850> > >::_S_left
FUNC 30d38 86 0 std::_Rb_tree<std::basic_string<char, std::char_traits<char>, std::allocator<char> >, std::pair<const std::basic_string<char, std::char_traits<char>, std::allocator<char> >, IEC61850_STRUCT::IED_61850>, std::_Select1st<std::pair<const std::basic_string<char, std::char_traits<char>, std::allocator<char> >, IEC61850_STRUCT::IED_61850> >, std::less<std::basic_string<char, std::char_traits<char>, std::allocator<char> > >, std::allocator<std::pair<const std::basic_string<char, std::char_traits<char>, std::allocator<char> >, IEC61850_STRUCT::IED_61850> > >::_M_destroy_node
FUNC 30dbe 31 0 std::_List_base<std::basic_string<char, std::char_traits<char>, std::allocator<char> >, std::allocator<std::basic_string<char, std::char_traits<char>, std::allocator<char> > > >::_List_impl::_List_impl
FUNC 30df0 a 0 __gnu_cxx::new_allocator<std::_List_node<std::basic_string<char, std::char_traits<char>, std::allocator<char> > > >::~new_allocator
FUNC 30dfa 3b 0 std::_List_base<std::basic_string<char, std::char_traits<char>, std::allocator<char> >, std::allocator<std::basic_string<char, std::char_traits<char>, std::allocator<char> > > >::_M_get_Tp_allocator
FUNC 30e36 2a 0 std::_List_base<std::basic_string<char, std::char_traits<char>, std::allocator<char> >, std::allocator<std::basic_string<char, std::char_traits<char>, std::allocator<char> > > >::_M_put_node
FUNC 30e60 61 0 std::_Rb_tree<std::basic_string<char, std::char_traits<char>, std::allocator<char> >, std::pair<const std::basic_string<char, std::char_traits<char>, std::allocator<char> >, std::map<int, std::map<int, IEC104WF::stPointTable, std::less<int>, std::allocator<std::pair<const int, IEC104WF::stPointTable> > >, std::less<int>, std::allocator<std::pair<const int, std::map<int, IEC104WF::stPointTable, std::less<int>, std::allocator<std::pair<const int, IEC104WF::stPointTable> > > > > > >, std::_Select1st<std::pair<const std::basic_string<char, std::char_traits<char>, std::allocator<char> >, std::map<int, std::map<int, IEC104WF::stPointTable, std::less<int>, std::allocator<std::pair<const int, IEC104WF::stPointTable> > >, std::less<int>, std::allocator<std::pair<const int, std::map<int, IEC104WF::stPointTable, std::less<int>, std::allocator<std::pair<const int, IEC104WF::stPointTable> > > > > > > >, std::less<std::basic_string<char, std::char_traits<char>, std::allocator<char> > >, std::allocator<std::pair<const std::basic_string<char, std::char_traits<char>, std::allocator<char> >, std::map<int, std::map<int, IEC104WF::stPointTable, std::less<int>, std::allocator<std::pair<const int, IEC104WF::stPointTable> > >, std::less<int>, std::allocator<std::pair<const int, std::map<int, IEC104WF::stPointTable, std::less<int>, std::allocator<std::pair<const int, IEC104WF::stPointTable> > > > > > > > >::_Rb_tree_impl<std::less<std::basic_string<char, std::char_traits<char>, std::allocator<char> > >, false>::_Rb_tree_impl
FUNC 30ec2 a 0 __gnu_cxx::new_allocator<std::_Rb_tree_node<std::pair<const std::basic_string<char, std::char_traits<char>, std::allocator<char> >, std::map<int, std::map<int, IEC104WF::stPointTable, std::less<int>, std::allocator<std::pair<const int, IEC104WF::stPointTable> > >, std::less<int>, std::allocator<std::pair<const int, std::map<int, IEC104WF::stPointTable, std::less<int>, std::allocator<std::pair<const int, IEC104WF::stPointTable> > > > > > > > >::~new_allocator
FUNC 30ecc 12 0 std::_Rb_tree<std::basic_string<char, std::char_traits<char>, std::allocator<char> >, std::pair<const std::basic_string<char, std::char_traits<char>, std::allocator<char> >, std::map<int, std::map<int, IEC104WF::stPointTable, std::less<int>, std::allocator<std::pair<const int, IEC104WF::stPointTable> > >, std::less<int>, std::allocator<std::pair<const int, std::map<int, IEC104WF::stPointTable, std::less<int>, std::allocator<std::pair<const int, IEC104WF::stPointTable> > > > > > >, std::_Select1st<std::pair<const std::basic_string<char, std::char_traits<char>, std::allocator<char> >, std::map<int, std::map<int, IEC104WF::stPointTable, std::less<int>, std::allocator<std::pair<const int, IEC104WF::stPointTable> > >, std::less<int>, std::allocator<std::pair<const int, std::map<int, IEC104WF::stPointTable, std::less<int>, std::allocator<std::pair<const int, IEC104WF::stPointTable> > > > > > > >, std::less<std::basic_string<char, std::char_traits<char>, std::allocator<char> > >, std::allocator<std::pair<const std::basic_string<char, std::char_traits<char>, std::allocator<char> >, std::map<int, std::map<int, IEC104WF::stPointTable, std::less<int>, std::allocator<std::pair<const int, IEC104WF::stPointTable> > >, std::less<int>, std::allocator<std::pair<const int, std::map<int, IEC104WF::stPointTable, std::less<int>, std::allocator<std::pair<const int, IEC104WF::stPointTable> > > > > > > > >::_S_right
FUNC 30ede 12 0 std::_Rb_tree<std::basic_string<char, std::char_traits<char>, std::allocator<char> >, std::pair<const std::basic_string<char, std::char_traits<char>, std::allocator<char> >, std::map<int, std::map<int, IEC104WF::stPointTable, std::less<int>, std::allocator<std::pair<const int, IEC104WF::stPointTable> > >, std::less<int>, std::allocator<std::pair<const int, std::map<int, IEC104WF::stPointTable, std::less<int>, std::allocator<std::pair<const int, IEC104WF::stPointTable> > > > > > >, std::_Select1st<std::pair<const std::basic_string<char, std::char_traits<char>, std::allocator<char> >, std::map<int, std::map<int, IEC104WF::stPointTable, std::less<int>, std::allocator<std::pair<const int, IEC104WF::stPointTable> > >, std::less<int>, std::allocator<std::pair<const int, std::map<int, IEC104WF::stPointTable, std::less<int>, std::allocator<std::pair<const int, IEC104WF::stPointTable> > > > > > > >, std::less<std::basic_string<char, std::char_traits<char>, std::allocator<char> > >, std::allocator<std::pair<const std::basic_string<char, std::char_traits<char>, std::allocator<char> >, std::map<int, std::map<int, IEC104WF::stPointTable, std::less<int>, std::allocator<std::pair<const int, IEC104WF::stPointTable> > >, std::less<int>, std::allocator<std::pair<const int, std::map<int, IEC104WF::stPointTable, std::less<int>, std::allocator<std::pair<const int, IEC104WF::stPointTable> > > > > > > > >::_S_left
FUNC 30ef0 86 0 std::_Rb_tree<std::basic_string<char, std::char_traits<char>, std::allocator<char> >, std::pair<const std::basic_string<char, std::char_traits<char>, std::allocator<char> >, std::map<int, std::map<int, IEC104WF::stPointTable, std::less<int>, std::allocator<std::pair<const int, IEC104WF::stPointTable> > >, std::less<int>, std::allocator<std::pair<const int, std::map<int, IEC104WF::stPointTable, std::less<int>, std::allocator<std::pair<const int, IEC104WF::stPointTable> > > > > > >, std::_Select1st<std::pair<const std::basic_string<char, std::char_traits<char>, std::allocator<char> >, std::map<int, std::map<int, IEC104WF::stPointTable, std::less<int>, std::allocator<std::pair<const int, IEC104WF::stPointTable> > >, std::less<int>, std::allocator<std::pair<const int, std::map<int, IEC104WF::stPointTable, std::less<int>, std::allocator<std::pair<const int, IEC104WF::stPointTable> > > > > > > >, std::less<std::basic_string<char, std::char_traits<char>, std::allocator<char> > >, std::allocator<std::pair<const std::basic_string<char, std::char_traits<char>, std::allocator<char> >, std::map<int, std::map<int, IEC104WF::stPointTable, std::less<int>, std::allocator<std::pair<const int, IEC104WF::stPointTable> > >, std::less<int>, std::allocator<std::pair<const int, std::map<int, IEC104WF::stPointTable, std::less<int>, std::allocator<std::pair<const int, IEC104WF::stPointTable> > > > > > > > >::_M_destroy_node
FUNC 30f76 61 0 std::_Rb_tree<int, std::pair<const int, std::map<int, IEC104WF::stPointTable, std::less<int>, std::allocator<std::pair<const int, IEC104WF::stPointTable> > > >, std::_Select1st<std::pair<const int, std::map<int, IEC104WF::stPointTable, std::less<int>, std::allocator<std::pair<const int, IEC104WF::stPointTable> > > > >, std::less<int>, std::allocator<std::pair<const int, std::map<int, IEC104WF::stPointTable, std::less<int>, std::allocator<std::pair<const int, IEC104WF::stPointTable> > > > > >::_Rb_tree_impl<std::less<int>, false>::_Rb_tree_impl
FUNC 30fd8 a 0 __gnu_cxx::new_allocator<std::_Rb_tree_node<std::pair<const int, std::map<int, IEC104WF::stPointTable, std::less<int>, std::allocator<std::pair<const int, IEC104WF::stPointTable> > > > > >::~new_allocator
FUNC 30fe2 12 0 std::_Rb_tree<int, std::pair<const int, std::map<int, IEC104WF::stPointTable, std::less<int>, std::allocator<std::pair<const int, IEC104WF::stPointTable> > > >, std::_Select1st<std::pair<const int, std::map<int, IEC104WF::stPointTable, std::less<int>, std::allocator<std::pair<const int, IEC104WF::stPointTable> > > > >, std::less<int>, std::allocator<std::pair<const int, std::map<int, IEC104WF::stPointTable, std::less<int>, std::allocator<std::pair<const int, IEC104WF::stPointTable> > > > > >::_S_right
FUNC 30ff4 12 0 std::_Rb_tree<int, std::pair<const int, std::map<int, IEC104WF::stPointTable, std::less<int>, std::allocator<std::pair<const int, IEC104WF::stPointTable> > > >, std::_Select1st<std::pair<const int, std::map<int, IEC104WF::stPointTable, std::less<int>, std::allocator<std::pair<const int, IEC104WF::stPointTable> > > > >, std::less<int>, std::allocator<std::pair<const int, std::map<int, IEC104WF::stPointTable, std::less<int>, std::allocator<std::pair<const int, IEC104WF::stPointTable> > > > > >::_S_left
FUNC 31006 86 0 std::_Rb_tree<int, std::pair<const int, std::map<int, IEC104WF::stPointTable, std::less<int>, std::allocator<std::pair<const int, IEC104WF::stPointTable> > > >, std::_Select1st<std::pair<const int, std::map<int, IEC104WF::stPointTable, std::less<int>, std::allocator<std::pair<const int, IEC104WF::stPointTable> > > > >, std::less<int>, std::allocator<std::pair<const int, std::map<int, IEC104WF::stPointTable, std::less<int>, std::allocator<std::pair<const int, IEC104WF::stPointTable> > > > > >::_M_destroy_node
FUNC 3108c 61 0 std::_Rb_tree<int, std::pair<const int, IEC104WF::stPointTable>, std::_Select1st<std::pair<const int, IEC104WF::stPointTable> >, std::less<int>, std::allocator<std::pair<const int, IEC104WF::stPointTable> > >::_Rb_tree_impl<std::less<int>, false>::_Rb_tree_impl
FUNC 310ee a 0 __gnu_cxx::new_allocator<std::_Rb_tree_node<std::pair<const int, IEC104WF::stPointTable> > >::~new_allocator
FUNC 310f8 12 0 std::_Rb_tree<int, std::pair<const int, IEC104WF::stPointTable>, std::_Select1st<std::pair<const int, IEC104WF::stPointTable> >, std::less<int>, std::allocator<std::pair<const int, IEC104WF::stPointTable> > >::_S_right
FUNC 3110a 12 0 std::_Rb_tree<int, std::pair<const int, IEC104WF::stPointTable>, std::_Select1st<std::pair<const int, IEC104WF::stPointTable> >, std::less<int>, std::allocator<std::pair<const int, IEC104WF::stPointTable> > >::_S_left
FUNC 3111c 86 0 std::_Rb_tree<int, std::pair<const int, IEC104WF::stPointTable>, std::_Select1st<std::pair<const int, IEC104WF::stPointTable> >, std::less<int>, std::allocator<std::pair<const int, IEC104WF::stPointTable> > >::_M_destroy_node
FUNC 311a2 61 0 std::_Rb_tree<std::basic_string<char, std::char_traits<char>, std::allocator<char> >, std::pair<const std::basic_string<char, std::char_traits<char>, std::allocator<char> >, IEC103::stConfigParam>, std::_Select1st<std::pair<const std::basic_string<char, std::char_traits<char>, std::allocator<char> >, IEC103::stConfigParam> >, std::less<std::basic_string<char, std::char_traits<char>, std::allocator<char> > >, std::allocator<std::pair<const std::basic_string<char, std::char_traits<char>, std::allocator<char> >, IEC103::stConfigParam> > >::_Rb_tree_impl<std::less<std::basic_string<char, std::char_traits<char>, std::allocator<char> > >, false>::_Rb_tree_impl
FUNC 31204 61 0 std::_Rb_tree<std::basic_string<char, std::char_traits<char>, std::allocator<char> >, std::pair<const std::basic_string<char, std::char_traits<char>, std::allocator<char> >, std::map<std::basic_string<char, std::char_traits<char>, std::allocator<char> >, std::basic_string<char, std::char_traits<char>, std::allocator<char> >, std::less<std::basic_string<char, std::char_traits<char>, std::allocator<char> > >, std::allocator<std::pair<const std::basic_string<char, std::char_traits<char>, std::allocator<char> >, std::basic_string<char, std::char_traits<char>, std::allocator<char> > > > > >, std::_Select1st<std::pair<const std::basic_string<char, std::char_traits<char>, std::allocator<char> >, std::map<std::basic_string<char, std::char_traits<char>, std::allocator<char> >, std::basic_string<char, std::char_traits<char>, std::allocator<char> >, std::less<std::basic_string<char, std::char_traits<char>, std::allocator<char> > >, std::allocator<std::pair<const std::basic_string<char, std::char_traits<char>, std::allocator<char> >, std::basic_string<char, std::char_traits<char>, std::allocator<char> > > > > > >, std::less<std::basic_string<char, std::char_traits<char>, std::allocator<char> > >, std::allocator<std::pair<const std::basic_string<char, std::char_traits<char>, std::allocator<char> >, std::map<std::basic_string<char, std::char_traits<char>, std::allocator<char> >, std::basic_string<char, std::char_traits<char>, std::allocator<char> >, std::less<std::basic_string<char, std::char_traits<char>, std::allocator<char> > >, std::allocator<std::pair<const std::basic_string<char, std::char_traits<char>, std::allocator<char> >, std::basic_string<char, std::char_traits<char>, std::allocator<char> > > > > > > >::_Rb_tree_impl<std::less<std::basic_string<char, std::char_traits<char>, std::allocator<char> > >, false>::_Rb_tree_impl
FUNC 31266 48 0 std::_Vector_base<std::basic_string<char, std::char_traits<char>, std::allocator<char> >, std::allocator<std::basic_string<char, std::char_traits<char>, std::allocator<char> > > >::_Vector_impl::_Vector_impl
FUNC 312ae 12 0 std::_Rb_tree<std::basic_string<char, std::char_traits<char>, std::allocator<char> >, std::pair<const std::basic_string<char, std::char_traits<char>, std::allocator<char> >, IEC61850_STRUCT::IED_61850>, std::_Select1st<std::pair<const std::basic_string<char, std::char_traits<char>, std::allocator<char> >, IEC61850_STRUCT::IED_61850> >, std::less<std::basic_string<char, std::char_traits<char>, std::allocator<char> > >, std::allocator<std::pair<const std::basic_string<char, std::char_traits<char>, std::allocator<char> >, IEC61850_STRUCT::IED_61850> > >::_M_end
FUNC 312c0 12 0 std::_Rb_tree<std::basic_string<char, std::char_traits<char>, std::allocator<char> >, std::pair<const std::basic_string<char, std::char_traits<char>, std::allocator<char> >, IEC61850_STRUCT::IED_61850>, std::_Select1st<std::pair<const std::basic_string<char, std::char_traits<char>, std::allocator<char> >, IEC61850_STRUCT::IED_61850> >, std::less<std::basic_string<char, std::char_traits<char>, std::allocator<char> > >, std::allocator<std::pair<const std::basic_string<char, std::char_traits<char>, std::allocator<char> >, IEC61850_STRUCT::IED_61850> > >::_M_leftmost
FUNC 312d2 12 0 std::_Rb_tree<std::basic_string<char, std::char_traits<char>, std::allocator<char> >, std::pair<const std::basic_string<char, std::char_traits<char>, std::allocator<char> >, IEC61850_STRUCT::IED_61850>, std::_Select1st<std::pair<const std::basic_string<char, std::char_traits<char>, std::allocator<char> >, IEC61850_STRUCT::IED_61850> >, std::less<std::basic_string<char, std::char_traits<char>, std::allocator<char> > >, std::allocator<std::pair<const std::basic_string<char, std::char_traits<char>, std::allocator<char> >, IEC61850_STRUCT::IED_61850> > >::_M_root
FUNC 312e4 12 0 std::_Rb_tree<std::basic_string<char, std::char_traits<char>, std::allocator<char> >, std::pair<const std::basic_string<char, std::char_traits<char>, std::allocator<char> >, IEC61850_STRUCT::IED_61850>, std::_Select1st<std::pair<const std::basic_string<char, std::char_traits<char>, std::allocator<char> >, IEC61850_STRUCT::IED_61850> >, std::less<std::basic_string<char, std::char_traits<char>, std::allocator<char> > >, std::allocator<std::pair<const std::basic_string<char, std::char_traits<char>, std::allocator<char> >, IEC61850_STRUCT::IED_61850> > >::_M_rightmost
FUNC 312f6 e 0 std::_Rb_tree<std::basic_string<char, std::char_traits<char>, std::allocator<char> >, std::pair<const std::basic_string<char, std::char_traits<char>, std::allocator<char> >, IEC61850_STRUCT::IED_61850>, std::_Select1st<std::pair<const std::basic_string<char, std::char_traits<char>, std::allocator<char> >, IEC61850_STRUCT::IED_61850> >, std::less<std::basic_string<char, std::char_traits<char>, std::allocator<char> > >, std::allocator<std::pair<const std::basic_string<char, std::char_traits<char>, std::allocator<char> >, IEC61850_STRUCT::IED_61850> > >::_M_get_Node_allocator
FUNC 31304 70 0 std::_Rb_tree<std::basic_string<char, std::char_traits<char>, std::allocator<char> >, std::pair<const std::basic_string<char, std::char_traits<char>, std::allocator<char> >, IEC61850_STRUCT::IED_61850>, std::_Select1st<std::pair<const std::basic_string<char, std::char_traits<char>, std::allocator<char> >, IEC61850_STRUCT::IED_61850> >, std::less<std::basic_string<char, std::char_traits<char>, std::allocator<char> > >, std::allocator<std::pair<const std::basic_string<char, std::char_traits<char>, std::allocator<char> >, IEC61850_STRUCT::IED_61850> > >::_Rb_tree_impl<std::less<std::basic_string<char, std::char_traits<char>, std::allocator<char> > >, false>::_Rb_tree_impl
FUNC 31374 12 0 std::_Rb_tree<std::basic_string<char, std::char_traits<char>, std::allocator<char> >, std::pair<const std::basic_string<char, std::char_traits<char>, std::allocator<char> >, IEC61850_STRUCT::IED_61850>, std::_Select1st<std::pair<const std::basic_string<char, std::char_traits<char>, std::allocator<char> >, IEC61850_STRUCT::IED_61850> >, std::less<std::basic_string<char, std::char_traits<char>, std::allocator<char> > >, std::allocator<std::pair<const std::basic_string<char, std::char_traits<char>, std::allocator<char> >, IEC61850_STRUCT::IED_61850> > >::_M_root
FUNC 31386 169 0 std::_Rb_tree<std::basic_string<char, std::char_traits<char>, std::allocator<char> >, std::pair<const std::basic_string<char, std::char_traits<char>, std::allocator<char> >, IEC61850_STRUCT::IED_61850>, std::_Select1st<std::pair<const std::basic_string<char, std::char_traits<char>, std::allocator<char> >, IEC61850_STRUCT::IED_61850> >, std::less<std::basic_string<char, std::char_traits<char>, std::allocator<char> > >, std::allocator<std::pair<const std::basic_string<char, std::char_traits<char>, std::allocator<char> >, IEC61850_STRUCT::IED_61850> > >::_M_copy
FUNC 314f0 12 0 std::_Rb_tree<std::basic_string<char, std::char_traits<char>, std::allocator<char> >, std::pair<const std::basic_string<char, std::char_traits<char>, std::allocator<char> >, IEC61850_STRUCT::IED_61850>, std::_Select1st<std::pair<const std::basic_string<char, std::char_traits<char>, std::allocator<char> >, IEC61850_STRUCT::IED_61850> >, std::less<std::basic_string<char, std::char_traits<char>, std::allocator<char> > >, std::allocator<std::pair<const std::basic_string<char, std::char_traits<char>, std::allocator<char> >, IEC61850_STRUCT::IED_61850> > >::_M_begin
FUNC 31502 1a 0 std::_Rb_tree<std::basic_string<char, std::char_traits<char>, std::allocator<char> >, std::pair<const std::basic_string<char, std::char_traits<char>, std::allocator<char> >, IEC61850_STRUCT::IED_61850>, std::_Select1st<std::pair<const std::basic_string<char, std::char_traits<char>, std::allocator<char> >, IEC61850_STRUCT::IED_61850> >, std::less<std::basic_string<char, std::char_traits<char>, std::allocator<char> > >, std::allocator<std::pair<const std::basic_string<char, std::char_traits<char>, std::allocator<char> >, IEC61850_STRUCT::IED_61850> > >::_S_minimum
FUNC 3151c 1a 0 std::_Rb_tree<std::basic_string<char, std::char_traits<char>, std::allocator<char> >, std::pair<const std::basic_string<char, std::char_traits<char>, std::allocator<char> >, IEC61850_STRUCT::IED_61850>, std::_Select1st<std::pair<const std::basic_string<char, std::char_traits<char>, std::allocator<char> >, IEC61850_STRUCT::IED_61850> >, std::less<std::basic_string<char, std::char_traits<char>, std::allocator<char> > >, std::allocator<std::pair<const std::basic_string<char, std::char_traits<char>, std::allocator<char> >, IEC61850_STRUCT::IED_61850> > >::_S_maximum
FUNC 31536 12 0 std::_Rb_tree<std::basic_string<char, std::char_traits<char>, std::allocator<char> >, std::pair<const std::basic_string<char, std::char_traits<char>, std::allocator<char> >, IEC103::stConfigParam>, std::_Select1st<std::pair<const std::basic_string<char, std::char_traits<char>, std::allocator<char> >, IEC103::stConfigParam> >, std::less<std::basic_string<char, std::char_traits<char>, std::allocator<char> > >, std::allocator<std::pair<const std::basic_string<char, std::char_traits<char>, std::allocator<char> >, IEC103::stConfigParam> > >::_M_end
FUNC 31548 12 0 std::_Rb_tree<std::basic_string<char, std::char_traits<char>, std::allocator<char> >, std::pair<const std::basic_string<char, std::char_traits<char>, std::allocator<char> >, IEC103::stConfigParam>, std::_Select1st<std::pair<const std::basic_string<char, std::char_traits<char>, std::allocator<char> >, IEC103::stConfigParam> >, std::less<std::basic_string<char, std::char_traits<char>, std::allocator<char> > >, std::allocator<std::pair<const std::basic_string<char, std::char_traits<char>, std::allocator<char> >, IEC103::stConfigParam> > >::_M_leftmost
FUNC 3155a 12 0 std::_Rb_tree<std::basic_string<char, std::char_traits<char>, std::allocator<char> >, std::pair<const std::basic_string<char, std::char_traits<char>, std::allocator<char> >, IEC103::stConfigParam>, std::_Select1st<std::pair<const std::basic_string<char, std::char_traits<char>, std::allocator<char> >, IEC103::stConfigParam> >, std::less<std::basic_string<char, std::char_traits<char>, std::allocator<char> > >, std::allocator<std::pair<const std::basic_string<char, std::char_traits<char>, std::allocator<char> >, IEC103::stConfigParam> > >::_M_root
FUNC 3156c 12 0 std::_Rb_tree<std::basic_string<char, std::char_traits<char>, std::allocator<char> >, std::pair<const std::basic_string<char, std::char_traits<char>, std::allocator<char> >, IEC103::stConfigParam>, std::_Select1st<std::pair<const std::basic_string<char, std::char_traits<char>, std::allocator<char> >, IEC103::stConfigParam> >, std::less<std::basic_string<char, std::char_traits<char>, std::allocator<char> > >, std::allocator<std::pair<const std::basic_string<char, std::char_traits<char>, std::allocator<char> >, IEC103::stConfigParam> > >::_M_rightmost
FUNC 3157e 12 0 std::_Rb_tree<std::basic_string<char, std::char_traits<char>, std::allocator<char> >, std::pair<const std::basic_string<char, std::char_traits<char>, std::allocator<char> >, std::map<std::basic_string<char, std::char_traits<char>, std::allocator<char> >, std::basic_string<char, std::char_traits<char>, std::allocator<char> >, std::less<std::basic_string<char, std::char_traits<char>, std::allocator<char> > >, std::allocator<std::pair<const std::basic_string<char, std::char_traits<char>, std::allocator<char> >, std::basic_string<char, std::char_traits<char>, std::allocator<char> > > > > >, std::_Select1st<std::pair<const std::basic_string<char, std::char_traits<char>, std::allocator<char> >, std::map<std::basic_string<char, std::char_traits<char>, std::allocator<char> >, std::basic_string<char, std::char_traits<char>, std::allocator<char> >, std::less<std::basic_string<char, std::char_traits<char>, std::allocator<char> > >, std::allocator<std::pair<const std::basic_string<char, std::char_traits<char>, std::allocator<char> >, std::basic_string<char, std::char_traits<char>, std::allocator<char> > > > > > >, std::less<std::basic_string<char, std::char_traits<char>, std::allocator<char> > >, std::allocator<std::pair<const std::basic_string<char, std::char_traits<char>, std::allocator<char> >, std::map<std::basic_string<char, std::char_traits<char>, std::allocator<char> >, std::basic_string<char, std::char_traits<char>, std::allocator<char> >, std::less<std::basic_string<char, std::char_traits<char>, std::allocator<char> > >, std::allocator<std::pair<const std::basic_string<char, std::char_traits<char>, std::allocator<char> >, std::basic_string<char, std::char_traits<char>, std::allocator<char> > > > > > > >::_M_end
FUNC 31590 12 0 std::_Rb_tree<std::basic_string<char, std::char_traits<char>, std::allocator<char> >, std::pair<const std::basic_string<char, std::char_traits<char>, std::allocator<char> >, std::map<std::basic_string<char, std::char_traits<char>, std::allocator<char> >, std::basic_string<char, std::char_traits<char>, std::allocator<char> >, std::less<std::basic_string<char, std::char_traits<char>, std::allocator<char> > >, std::allocator<std::pair<const std::basic_string<char, std::char_traits<char>, std::allocator<char> >, std::basic_string<char, std::char_traits<char>, std::allocator<char> > > > > >, std::_Select1st<std::pair<const std::basic_string<char, std::char_traits<char>, std::allocator<char> >, std::map<std::basic_string<char, std::char_traits<char>, std::allocator<char> >, std::basic_string<char, std::char_traits<char>, std::allocator<char> >, std::less<std::basic_string<char, std::char_traits<char>, std::allocator<char> > >, std::allocator<std::pair<const std::basic_string<char, std::char_traits<char>, std::allocator<char> >, std::basic_string<char, std::char_traits<char>, std::allocator<char> > > > > > >, std::less<std::basic_string<char, std::char_traits<char>, std::allocator<char> > >, std::allocator<std::pair<const std::basic_string<char, std::char_traits<char>, std::allocator<char> >, std::map<std::basic_string<char, std::char_traits<char>, std::allocator<char> >, std::basic_string<char, std::char_traits<char>, std::allocator<char> >, std::less<std::basic_string<char, std::char_traits<char>, std::allocator<char> > >, std::allocator<std::pair<const std::basic_string<char, std::char_traits<char>, std::allocator<char> >, std::basic_string<char, std::char_traits<char>, std::allocator<char> > > > > > > >::_M_leftmost
FUNC 315a2 12 0 std::_Rb_tree<std::basic_string<char, std::char_traits<char>, std::allocator<char> >, std::pair<const std::basic_string<char, std::char_traits<char>, std::allocator<char> >, std::map<std::basic_string<char, std::char_traits<char>, std::allocator<char> >, std::basic_string<char, std::char_traits<char>, std::allocator<char> >, std::less<std::basic_string<char, std::char_traits<char>, std::allocator<char> > >, std::allocator<std::pair<const std::basic_string<char, std::char_traits<char>, std::allocator<char> >, std::basic_string<char, std::char_traits<char>, std::allocator<char> > > > > >, std::_Select1st<std::pair<const std::basic_string<char, std::char_traits<char>, std::allocator<char> >, std::map<std::basic_string<char, std::char_traits<char>, std::allocator<char> >, std::basic_string<char, std::char_traits<char>, std::allocator<char> >, std::less<std::basic_string<char, std::char_traits<char>, std::allocator<char> > >, std::allocator<std::pair<const std::basic_string<char, std::char_traits<char>, std::allocator<char> >, std::basic_string<char, std::char_traits<char>, std::allocator<char> > > > > > >, std::less<std::basic_string<char, std::char_traits<char>, std::allocator<char> > >, std::allocator<std::pair<const std::basic_string<char, std::char_traits<char>, std::allocator<char> >, std::map<std::basic_string<char, std::char_traits<char>, std::allocator<char> >, std::basic_string<char, std::char_traits<char>, std::allocator<char> >, std::less<std::basic_string<char, std::char_traits<char>, std::allocator<char> > >, std::allocator<std::pair<const std::basic_string<char, std::char_traits<char>, std::allocator<char> >, std::basic_string<char, std::char_traits<char>, std::allocator<char> > > > > > > >::_M_root
FUNC 315b4 12 0 std::_Rb_tree<std::basic_string<char, std::char_traits<char>, std::allocator<char> >, std::pair<const std::basic_string<char, std::char_traits<char>, std::allocator<char> >, std::map<std::basic_string<char, std::char_traits<char>, std::allocator<char> >, std::basic_string<char, std::char_traits<char>, std::allocator<char> >, std::less<std::basic_string<char, std::char_traits<char>, std::allocator<char> > >, std::allocator<std::pair<const std::basic_string<char, std::char_traits<char>, std::allocator<char> >, std::basic_string<char, std::char_traits<char>, std::allocator<char> > > > > >, std::_Select1st<std::pair<const std::basic_string<char, std::char_traits<char>, std::allocator<char> >, std::map<std::basic_string<char, std::char_traits<char>, std::allocator<char> >, std::basic_string<char, std::char_traits<char>, std::allocator<char> >, std::less<std::basic_string<char, std::char_traits<char>, std::allocator<char> > >, std::allocator<std::pair<const std::basic_string<char, std::char_traits<char>, std::allocator<char> >, std::basic_string<char, std::char_traits<char>, std::allocator<char> > > > > > >, std::less<std::basic_string<char, std::char_traits<char>, std::allocator<char> > >, std::allocator<std::pair<const std::basic_string<char, std::char_traits<char>, std::allocator<char> >, std::map<std::basic_string<char, std::char_traits<char>, std::allocator<char> >, std::basic_string<char, std::char_traits<char>, std::allocator<char> >, std::less<std::basic_string<char, std::char_traits<char>, std::allocator<char> > >, std::allocator<std::pair<const std::basic_string<char, std::char_traits<char>, std::allocator<char> >, std::basic_string<char, std::char_traits<char>, std::allocator<char> > > > > > > >::_M_rightmost
FUNC 315c6 70 0 std::_Rb_tree<std::basic_string<char, std::char_traits<char>, std::allocator<char> >, std::pair<const std::basic_string<char, std::char_traits<char>, std::allocator<char> >, IEC103::stConfigParam>, std::_Select1st<std::pair<const std::basic_string<char, std::char_traits<char>, std::allocator<char> >, IEC103::stConfigParam> >, std::less<std::basic_string<char, std::char_traits<char>, std::allocator<char> > >, std::allocator<std::pair<const std::basic_string<char, std::char_traits<char>, std::allocator<char> >, IEC103::stConfigParam> > >::_Rb_tree_impl<std::less<std::basic_string<char, std::char_traits<char>, std::allocator<char> > >, false>::_Rb_tree_impl
FUNC 31636 12 0 std::_Rb_tree<std::basic_string<char, std::char_traits<char>, std::allocator<char> >, std::pair<const std::basic_string<char, std::char_traits<char>, std::allocator<char> >, IEC103::stConfigParam>, std::_Select1st<std::pair<const std::basic_string<char, std::char_traits<char>, std::allocator<char> >, IEC103::stConfigParam> >, std::less<std::basic_string<char, std::char_traits<char>, std::allocator<char> > >, std::allocator<std::pair<const std::basic_string<char, std::char_traits<char>, std::allocator<char> >, IEC103::stConfigParam> > >::_M_root
FUNC 31648 169 0 std::_Rb_tree<std::basic_string<char, std::char_traits<char>, std::allocator<char> >, std::pair<const std::basic_string<char, std::char_traits<char>, std::allocator<char> >, IEC103::stConfigParam>, std::_Select1st<std::pair<const std::basic_string<char, std::char_traits<char>, std::allocator<char> >, IEC103::stConfigParam> >, std::less<std::basic_string<char, std::char_traits<char>, std::allocator<char> > >, std::allocator<std::pair<const std::basic_string<char, std::char_traits<char>, std::allocator<char> >, IEC103::stConfigParam> > >::_M_copy
FUNC 317b2 12 0 std::_Rb_tree<std::basic_string<char, std::char_traits<char>, std::allocator<char> >, std::pair<const std::basic_string<char, std::char_traits<char>, std::allocator<char> >, IEC103::stConfigParam>, std::_Select1st<std::pair<const std::basic_string<char, std::char_traits<char>, std::allocator<char> >, IEC103::stConfigParam> >, std::less<std::basic_string<char, std::char_traits<char>, std::allocator<char> > >, std::allocator<std::pair<const std::basic_string<char, std::char_traits<char>, std::allocator<char> >, IEC103::stConfigParam> > >::_M_begin
FUNC 317c4 1a 0 std::_Rb_tree<std::basic_string<char, std::char_traits<char>, std::allocator<char> >, std::pair<const std::basic_string<char, std::char_traits<char>, std::allocator<char> >, IEC103::stConfigParam>, std::_Select1st<std::pair<const std::basic_string<char, std::char_traits<char>, std::allocator<char> >, IEC103::stConfigParam> >, std::less<std::basic_string<char, std::char_traits<char>, std::allocator<char> > >, std::allocator<std::pair<const std::basic_string<char, std::char_traits<char>, std::allocator<char> >, IEC103::stConfigParam> > >::_S_minimum
FUNC 317de 1a 0 std::_Rb_tree<std::basic_string<char, std::char_traits<char>, std::allocator<char> >, std::pair<const std::basic_string<char, std::char_traits<char>, std::allocator<char> >, IEC103::stConfigParam>, std::_Select1st<std::pair<const std::basic_string<char, std::char_traits<char>, std::allocator<char> >, IEC103::stConfigParam> >, std::less<std::basic_string<char, std::char_traits<char>, std::allocator<char> > >, std::allocator<std::pair<const std::basic_string<char, std::char_traits<char>, std::allocator<char> >, IEC103::stConfigParam> > >::_S_maximum
FUNC 317f8 70 0 std::_Rb_tree<std::basic_string<char, std::char_traits<char>, std::allocator<char> >, std::pair<const std::basic_string<char, std::char_traits<char>, std::allocator<char> >, std::map<std::basic_string<char, std::char_traits<char>, std::allocator<char> >, std::basic_string<char, std::char_traits<char>, std::allocator<char> >, std::less<std::basic_string<char, std::char_traits<char>, std::allocator<char> > >, std::allocator<std::pair<const std::basic_string<char, std::char_traits<char>, std::allocator<char> >, std::basic_string<char, std::char_traits<char>, std::allocator<char> > > > > >, std::_Select1st<std::pair<const std::basic_string<char, std::char_traits<char>, std::allocator<char> >, std::map<std::basic_string<char, std::char_traits<char>, std::allocator<char> >, std::basic_string<char, std::char_traits<char>, std::allocator<char> >, std::less<std::basic_string<char, std::char_traits<char>, std::allocator<char> > >, std::allocator<std::pair<const std::basic_string<char, std::char_traits<char>, std::allocator<char> >, std::basic_string<char, std::char_traits<char>, std::allocator<char> > > > > > >, std::less<std::basic_string<char, std::char_traits<char>, std::allocator<char> > >, std::allocator<std::pair<const std::basic_string<char, std::char_traits<char>, std::allocator<char> >, std::map<std::basic_string<char, std::char_traits<char>, std::allocator<char> >, std::basic_string<char, std::char_traits<char>, std::allocator<char> >, std::less<std::basic_string<char, std::char_traits<char>, std::allocator<char> > >, std::allocator<std::pair<const std::basic_string<char, std::char_traits<char>, std::allocator<char> >, std::basic_string<char, std::char_traits<char>, std::allocator<char> > > > > > > >::_Rb_tree_impl<std::less<std::basic_string<char, std::char_traits<char>, std::allocator<char> > >, false>::_Rb_tree_impl
FUNC 31868 12 0 std::_Rb_tree<std::basic_string<char, std::char_traits<char>, std::allocator<char> >, std::pair<const std::basic_string<char, std::char_traits<char>, std::allocator<char> >, std::map<std::basic_string<char, std::char_traits<char>, std::allocator<char> >, std::basic_string<char, std::char_traits<char>, std::allocator<char> >, std::less<std::basic_string<char, std::char_traits<char>, std::allocator<char> > >, std::allocator<std::pair<const std::basic_string<char, std::char_traits<char>, std::allocator<char> >, std::basic_string<char, std::char_traits<char>, std::allocator<char> > > > > >, std::_Select1st<std::pair<const std::basic_string<char, std::char_traits<char>, std::allocator<char> >, std::map<std::basic_string<char, std::char_traits<char>, std::allocator<char> >, std::basic_string<char, std::char_traits<char>, std::allocator<char> >, std::less<std::basic_string<char, std::char_traits<char>, std::allocator<char> > >, std::allocator<std::pair<const std::basic_string<char, std::char_traits<char>, std::allocator<char> >, std::basic_string<char, std::char_traits<char>, std::allocator<char> > > > > > >, std::less<std::basic_string<char, std::char_traits<char>, std::allocator<char> > >, std::allocator<std::pair<const std::basic_string<char, std::char_traits<char>, std::allocator<char> >, std::map<std::basic_string<char, std::char_traits<char>, std::allocator<char> >, std::basic_string<char, std::char_traits<char>, std::allocator<char> >, std::less<std::basic_string<char, std::char_traits<char>, std::allocator<char> > >, std::allocator<std::pair<const std::basic_string<char, std::char_traits<char>, std::allocator<char> >, std::basic_string<char, std::char_traits<char>, std::allocator<char> > > > > > > >::_M_root
FUNC 3187a 169 0 std::_Rb_tree<std::basic_string<char, std::char_traits<char>, std::allocator<char> >, std::pair<const std::basic_string<char, std::char_traits<char>, std::allocator<char> >, std::map<std::basic_string<char, std::char_traits<char>, std::allocator<char> >, std::basic_string<char, std::char_traits<char>, std::allocator<char> >, std::less<std::basic_string<char, std::char_traits<char>, std::allocator<char> > >, std::allocator<std::pair<const std::basic_string<char, std::char_traits<char>, std::allocator<char> >, std::basic_string<char, std::char_traits<char>, std::allocator<char> > > > > >, std::_Select1st<std::pair<const std::basic_string<char, std::char_traits<char>, std::allocator<char> >, std::map<std::basic_string<char, std::char_traits<char>, std::allocator<char> >, std::basic_string<char, std::char_traits<char>, std::allocator<char> >, std::less<std::basic_string<char, std::char_traits<char>, std::allocator<char> > >, std::allocator<std::pair<const std::basic_string<char, std::char_traits<char>, std::allocator<char> >, std::basic_string<char, std::char_traits<char>, std::allocator<char> > > > > > >, std::less<std::basic_string<char, std::char_traits<char>, std::allocator<char> > >, std::allocator<std::pair<const std::basic_string<char, std::char_traits<char>, std::allocator<char> >, std::map<std::basic_string<char, std::char_traits<char>, std::allocator<char> >, std::basic_string<char, std::char_traits<char>, std::allocator<char> >, std::less<std::basic_string<char, std::char_traits<char>, std::allocator<char> > >, std::allocator<std::pair<const std::basic_string<char, std::char_traits<char>, std::allocator<char> >, std::basic_string<char, std::char_traits<char>, std::allocator<char> > > > > > > >::_M_copy
FUNC 319e4 12 0 std::_Rb_tree<std::basic_string<char, std::char_traits<char>, std::allocator<char> >, std::pair<const std::basic_string<char, std::char_traits<char>, std::allocator<char> >, std::map<std::basic_string<char, std::char_traits<char>, std::allocator<char> >, std::basic_string<char, std::char_traits<char>, std::allocator<char> >, std::less<std::basic_string<char, std::char_traits<char>, std::allocator<char> > >, std::allocator<std::pair<const std::basic_string<char, std::char_traits<char>, std::allocator<char> >, std::basic_string<char, std::char_traits<char>, std::allocator<char> > > > > >, std::_Select1st<std::pair<const std::basic_string<char, std::char_traits<char>, std::allocator<char> >, std::map<std::basic_string<char, std::char_traits<char>, std::allocator<char> >, std::basic_string<char, std::char_traits<char>, std::allocator<char> >, std::less<std::basic_string<char, std::char_traits<char>, std::allocator<char> > >, std::allocator<std::pair<const std::basic_string<char, std::char_traits<char>, std::allocator<char> >, std::basic_string<char, std::char_traits<char>, std::allocator<char> > > > > > >, std::less<std::basic_string<char, std::char_traits<char>, std::allocator<char> > >, std::allocator<std::pair<const std::basic_string<char, std::char_traits<char>, std::allocator<char> >, std::map<std::basic_string<char, std::char_traits<char>, std::allocator<char> >, std::basic_string<char, std::char_traits<char>, std::allocator<char> >, std::less<std::basic_string<char, std::char_traits<char>, std::allocator<char> > >, std::allocator<std::pair<const std::basic_string<char, std::char_traits<char>, std::allocator<char> >, std::basic_string<char, std::char_traits<char>, std::allocator<char> > > > > > > >::_M_begin
FUNC 319f6 1a 0 std::_Rb_tree<std::basic_string<char, std::char_traits<char>, std::allocator<char> >, std::pair<const std::basic_string<char, std::char_traits<char>, std::allocator<char> >, std::map<std::basic_string<char, std::char_traits<char>, std::allocator<char> >, std::basic_string<char, std::char_traits<char>, std::allocator<char> >, std::less<std::basic_string<char, std::char_traits<char>, std::allocator<char> > >, std::allocator<std::pair<const std::basic_string<char, std::char_traits<char>, std::allocator<char> >, std::basic_string<char, std::char_traits<char>, std::allocator<char> > > > > >, std::_Select1st<std::pair<const std::basic_string<char, std::char_traits<char>, std::allocator<char> >, std::map<std::basic_string<char, std::char_traits<char>, std::allocator<char> >, std::basic_string<char, std::char_traits<char>, std::allocator<char> >, std::less<std::basic_string<char, std::char_traits<char>, std::allocator<char> > >, std::allocator<std::pair<const std::basic_string<char, std::char_traits<char>, std::allocator<char> >, std::basic_string<char, std::char_traits<char>, std::allocator<char> > > > > > >, std::less<std::basic_string<char, std::char_traits<char>, std::allocator<char> > >, std::allocator<std::pair<const std::basic_string<char, std::char_traits<char>, std::allocator<char> >, std::map<std::basic_string<char, std::char_traits<char>, std::allocator<char> >, std::basic_string<char, std::char_traits<char>, std::allocator<char> >, std::less<std::basic_string<char, std::char_traits<char>, std::allocator<char> > >, std::allocator<std::pair<const std::basic_string<char, std::char_traits<char>, std::allocator<char> >, std::basic_string<char, std::char_traits<char>, std::allocator<char> > > > > > > >::_S_minimum
FUNC 31a10 1a 0 std::_Rb_tree<std::basic_string<char, std::char_traits<char>, std::allocator<char> >, std::pair<const std::basic_string<char, std::char_traits<char>, std::allocator<char> >, std::map<std::basic_string<char, std::char_traits<char>, std::allocator<char> >, std::basic_string<char, std::char_traits<char>, std::allocator<char> >, std::less<std::basic_string<char, std::char_traits<char>, std::allocator<char> > >, std::allocator<std::pair<const std::basic_string<char, std::char_traits<char>, std::allocator<char> >, std::basic_string<char, std::char_traits<char>, std::allocator<char> > > > > >, std::_Select1st<std::pair<const std::basic_string<char, std::char_traits<char>, std::allocator<char> >, std::map<std::basic_string<char, std::char_traits<char>, std::allocator<char> >, std::basic_string<char, std::char_traits<char>, std::allocator<char> >, std::less<std::basic_string<char, std::char_traits<char>, std::allocator<char> > >, std::allocator<std::pair<const std::basic_string<char, std::char_traits<char>, std::allocator<char> >, std::basic_string<char, std::char_traits<char>, std::allocator<char> > > > > > >, std::less<std::basic_string<char, std::char_traits<char>, std::allocator<char> > >, std::allocator<std::pair<const std::basic_string<char, std::char_traits<char>, std::allocator<char> >, std::map<std::basic_string<char, std::char_traits<char>, std::allocator<char> >, std::basic_string<char, std::char_traits<char>, std::allocator<char> >, std::less<std::basic_string<char, std::char_traits<char>, std::allocator<char> > >, std::allocator<std::pair<const std::basic_string<char, std::char_traits<char>, std::allocator<char> >, std::basic_string<char, std::char_traits<char>, std::allocator<char> > > > > > > >::_S_maximum
FUNC 31a2a 12 0 std::_Rb_tree<std::basic_string<char, std::char_traits<char>, std::allocator<char> >, std::pair<const std::basic_string<char, std::char_traits<char>, std::allocator<char> >, std::map<int, std::map<int, IEC104WF::stPointTable, std::less<int>, std::allocator<std::pair<const int, IEC104WF::stPointTable> > >, std::less<int>, std::allocator<std::pair<const int, std::map<int, IEC104WF::stPointTable, std::less<int>, std::allocator<std::pair<const int, IEC104WF::stPointTable> > > > > > >, std::_Select1st<std::pair<const std::basic_string<char, std::char_traits<char>, std::allocator<char> >, std::map<int, std::map<int, IEC104WF::stPointTable, std::less<int>, std::allocator<std::pair<const int, IEC104WF::stPointTable> > >, std::less<int>, std::allocator<std::pair<const int, std::map<int, IEC104WF::stPointTable, std::less<int>, std::allocator<std::pair<const int, IEC104WF::stPointTable> > > > > > > >, std::less<std::basic_string<char, std::char_traits<char>, std::allocator<char> > >, std::allocator<std::pair<const std::basic_string<char, std::char_traits<char>, std::allocator<char> >, std::map<int, std::map<int, IEC104WF::stPointTable, std::less<int>, std::allocator<std::pair<const int, IEC104WF::stPointTable> > >, std::less<int>, std::allocator<std::pair<const int, std::map<int, IEC104WF::stPointTable, std::less<int>, std::allocator<std::pair<const int, IEC104WF::stPointTable> > > > > > > > >::_M_end
FUNC 31a3c 12 0 std::_Rb_tree<std::basic_string<char, std::char_traits<char>, std::allocator<char> >, std::pair<const std::basic_string<char, std::char_traits<char>, std::allocator<char> >, std::map<int, std::map<int, IEC104WF::stPointTable, std::less<int>, std::allocator<std::pair<const int, IEC104WF::stPointTable> > >, std::less<int>, std::allocator<std::pair<const int, std::map<int, IEC104WF::stPointTable, std::less<int>, std::allocator<std::pair<const int, IEC104WF::stPointTable> > > > > > >, std::_Select1st<std::pair<const std::basic_string<char, std::char_traits<char>, std::allocator<char> >, std::map<int, std::map<int, IEC104WF::stPointTable, std::less<int>, std::allocator<std::pair<const int, IEC104WF::stPointTable> > >, std::less<int>, std::allocator<std::pair<const int, std::map<int, IEC104WF::stPointTable, std::less<int>, std::allocator<std::pair<const int, IEC104WF::stPointTable> > > > > > > >, std::less<std::basic_string<char, std::char_traits<char>, std::allocator<char> > >, std::allocator<std::pair<const std::basic_string<char, std::char_traits<char>, std::allocator<char> >, std::map<int, std::map<int, IEC104WF::stPointTable, std::less<int>, std::allocator<std::pair<const int, IEC104WF::stPointTable> > >, std::less<int>, std::allocator<std::pair<const int, std::map<int, IEC104WF::stPointTable, std::less<int>, std::allocator<std::pair<const int, IEC104WF::stPointTable> > > > > > > > >::_M_leftmost
FUNC 31a4e 12 0 std::_Rb_tree<std::basic_string<char, std::char_traits<char>, std::allocator<char> >, std::pair<const std::basic_string<char, std::char_traits<char>, std::allocator<char> >, std::map<int, std::map<int, IEC104WF::stPointTable, std::less<int>, std::allocator<std::pair<const int, IEC104WF::stPointTable> > >, std::less<int>, std::allocator<std::pair<const int, std::map<int, IEC104WF::stPointTable, std::less<int>, std::allocator<std::pair<const int, IEC104WF::stPointTable> > > > > > >, std::_Select1st<std::pair<const std::basic_string<char, std::char_traits<char>, std::allocator<char> >, std::map<int, std::map<int, IEC104WF::stPointTable, std::less<int>, std::allocator<std::pair<const int, IEC104WF::stPointTable> > >, std::less<int>, std::allocator<std::pair<const int, std::map<int, IEC104WF::stPointTable, std::less<int>, std::allocator<std::pair<const int, IEC104WF::stPointTable> > > > > > > >, std::less<std::basic_string<char, std::char_traits<char>, std::allocator<char> > >, std::allocator<std::pair<const std::basic_string<char, std::char_traits<char>, std::allocator<char> >, std::map<int, std::map<int, IEC104WF::stPointTable, std::less<int>, std::allocator<std::pair<const int, IEC104WF::stPointTable> > >, std::less<int>, std::allocator<std::pair<const int, std::map<int, IEC104WF::stPointTable, std::less<int>, std::allocator<std::pair<const int, IEC104WF::stPointTable> > > > > > > > >::_M_root
FUNC 31a60 12 0 std::_Rb_tree<std::basic_string<char, std::char_traits<char>, std::allocator<char> >, std::pair<const std::basic_string<char, std::char_traits<char>, std::allocator<char> >, std::map<int, std::map<int, IEC104WF::stPointTable, std::less<int>, std::allocator<std::pair<const int, IEC104WF::stPointTable> > >, std::less<int>, std::allocator<std::pair<const int, std::map<int, IEC104WF::stPointTable, std::less<int>, std::allocator<std::pair<const int, IEC104WF::stPointTable> > > > > > >, std::_Select1st<std::pair<const std::basic_string<char, std::char_traits<char>, std::allocator<char> >, std::map<int, std::map<int, IEC104WF::stPointTable, std::less<int>, std::allocator<std::pair<const int, IEC104WF::stPointTable> > >, std::less<int>, std::allocator<std::pair<const int, std::map<int, IEC104WF::stPointTable, std::less<int>, std::allocator<std::pair<const int, IEC104WF::stPointTable> > > > > > > >, std::less<std::basic_string<char, std::char_traits<char>, std::allocator<char> > >, std::allocator<std::pair<const std::basic_string<char, std::char_traits<char>, std::allocator<char> >, std::map<int, std::map<int, IEC104WF::stPointTable, std::less<int>, std::allocator<std::pair<const int, IEC104WF::stPointTable> > >, std::less<int>, std::allocator<std::pair<const int, std::map<int, IEC104WF::stPointTable, std::less<int>, std::allocator<std::pair<const int, IEC104WF::stPointTable> > > > > > > > >::_M_rightmost
FUNC 31a72 12 0 std::_Rb_tree<int, std::pair<const int, std::map<int, IEC104WF::stPointTable, std::less<int>, std::allocator<std::pair<const int, IEC104WF::stPointTable> > > >, std::_Select1st<std::pair<const int, std::map<int, IEC104WF::stPointTable, std::less<int>, std::allocator<std::pair<const int, IEC104WF::stPointTable> > > > >, std::less<int>, std::allocator<std::pair<const int, std::map<int, IEC104WF::stPointTable, std::less<int>, std::allocator<std::pair<const int, IEC104WF::stPointTable> > > > > >::_M_end
FUNC 31a84 12 0 std::_Rb_tree<int, std::pair<const int, std::map<int, IEC104WF::stPointTable, std::less<int>, std::allocator<std::pair<const int, IEC104WF::stPointTable> > > >, std::_Select1st<std::pair<const int, std::map<int, IEC104WF::stPointTable, std::less<int>, std::allocator<std::pair<const int, IEC104WF::stPointTable> > > > >, std::less<int>, std::allocator<std::pair<const int, std::map<int, IEC104WF::stPointTable, std::less<int>, std::allocator<std::pair<const int, IEC104WF::stPointTable> > > > > >::_M_leftmost
FUNC 31a96 12 0 std::_Rb_tree<int, std::pair<const int, std::map<int, IEC104WF::stPointTable, std::less<int>, std::allocator<std::pair<const int, IEC104WF::stPointTable> > > >, std::_Select1st<std::pair<const int, std::map<int, IEC104WF::stPointTable, std::less<int>, std::allocator<std::pair<const int, IEC104WF::stPointTable> > > > >, std::less<int>, std::allocator<std::pair<const int, std::map<int, IEC104WF::stPointTable, std::less<int>, std::allocator<std::pair<const int, IEC104WF::stPointTable> > > > > >::_M_root
FUNC 31aa8 12 0 std::_Rb_tree<int, std::pair<const int, std::map<int, IEC104WF::stPointTable, std::less<int>, std::allocator<std::pair<const int, IEC104WF::stPointTable> > > >, std::_Select1st<std::pair<const int, std::map<int, IEC104WF::stPointTable, std::less<int>, std::allocator<std::pair<const int, IEC104WF::stPointTable> > > > >, std::less<int>, std::allocator<std::pair<const int, std::map<int, IEC104WF::stPointTable, std::less<int>, std::allocator<std::pair<const int, IEC104WF::stPointTable> > > > > >::_M_rightmost
FUNC 31aba 12 0 std::_Rb_tree<int, std::pair<const int, IEC104WF::stPointTable>, std::_Select1st<std::pair<const int, IEC104WF::stPointTable> >, std::less<int>, std::allocator<std::pair<const int, IEC104WF::stPointTable> > >::_M_end
FUNC 31acc 12 0 std::_Rb_tree<int, std::pair<const int, IEC104WF::stPointTable>, std::_Select1st<std::pair<const int, IEC104WF::stPointTable> >, std::less<int>, std::allocator<std::pair<const int, IEC104WF::stPointTable> > >::_M_leftmost
FUNC 31ade 12 0 std::_Rb_tree<int, std::pair<const int, IEC104WF::stPointTable>, std::_Select1st<std::pair<const int, IEC104WF::stPointTable> >, std::less<int>, std::allocator<std::pair<const int, IEC104WF::stPointTable> > >::_M_root
FUNC 31af0 12 0 std::_Rb_tree<int, std::pair<const int, IEC104WF::stPointTable>, std::_Select1st<std::pair<const int, IEC104WF::stPointTable> >, std::less<int>, std::allocator<std::pair<const int, IEC104WF::stPointTable> > >::_M_rightmost
FUNC 31b02 e 0 std::_Rb_tree<std::basic_string<char, std::char_traits<char>, std::allocator<char> >, std::pair<const std::basic_string<char, std::char_traits<char>, std::allocator<char> >, std::map<int, std::map<int, IEC104WF::stPointTable, std::less<int>, std::allocator<std::pair<const int, IEC104WF::stPointTable> > >, std::less<int>, std::allocator<std::pair<const int, std::map<int, IEC104WF::stPointTable, std::less<int>, std::allocator<std::pair<const int, IEC104WF::stPointTable> > > > > > >, std::_Select1st<std::pair<const std::basic_string<char, std::char_traits<char>, std::allocator<char> >, std::map<int, std::map<int, IEC104WF::stPointTable, std::less<int>, std::allocator<std::pair<const int, IEC104WF::stPointTable> > >, std::less<int>, std::allocator<std::pair<const int, std::map<int, IEC104WF::stPointTable, std::less<int>, std::allocator<std::pair<const int, IEC104WF::stPointTable> > > > > > > >, std::less<std::basic_string<char, std::char_traits<char>, std::allocator<char> > >, std::allocator<std::pair<const std::basic_string<char, std::char_traits<char>, std::allocator<char> >, std::map<int, std::map<int, IEC104WF::stPointTable, std::less<int>, std::allocator<std::pair<const int, IEC104WF::stPointTable> > >, std::less<int>, std::allocator<std::pair<const int, std::map<int, IEC104WF::stPointTable, std::less<int>, std::allocator<std::pair<const int, IEC104WF::stPointTable> > > > > > > > >::_M_get_Node_allocator
FUNC 31b10 70 0 std::_Rb_tree<std::basic_string<char, std::char_traits<char>, std::allocator<char> >, std::pair<const std::basic_string<char, std::char_traits<char>, std::allocator<char> >, std::map<int, std::map<int, IEC104WF::stPointTable, std::less<int>, std::allocator<std::pair<const int, IEC104WF::stPointTable> > >, std::less<int>, std::allocator<std::pair<const int, std::map<int, IEC104WF::stPointTable, std::less<int>, std::allocator<std::pair<const int, IEC104WF::stPointTable> > > > > > >, std::_Select1st<std::pair<const std::basic_string<char, std::char_traits<char>, std::allocator<char> >, std::map<int, std::map<int, IEC104WF::stPointTable, std::less<int>, std::allocator<std::pair<const int, IEC104WF::stPointTable> > >, std::less<int>, std::allocator<std::pair<const int, std::map<int, IEC104WF::stPointTable, std::less<int>, std::allocator<std::pair<const int, IEC104WF::stPointTable> > > > > > > >, std::less<std::basic_string<char, std::char_traits<char>, std::allocator<char> > >, std::allocator<std::pair<const std::basic_string<char, std::char_traits<char>, std::allocator<char> >, std::map<int, std::map<int, IEC104WF::stPointTable, std::less<int>, std::allocator<std::pair<const int, IEC104WF::stPointTable> > >, std::less<int>, std::allocator<std::pair<const int, std::map<int, IEC104WF::stPointTable, std::less<int>, std::allocator<std::pair<const int, IEC104WF::stPointTable> > > > > > > > >::_Rb_tree_impl<std::less<std::basic_string<char, std::char_traits<char>, std::allocator<char> > >, false>::_Rb_tree_impl
FUNC 31b80 12 0 std::_Rb_tree<std::basic_string<char, std::char_traits<char>, std::allocator<char> >, std::pair<const std::basic_string<char, std::char_traits<char>, std::allocator<char> >, std::map<int, std::map<int, IEC104WF::stPointTable, std::less<int>, std::allocator<std::pair<const int, IEC104WF::stPointTable> > >, std::less<int>, std::allocator<std::pair<const int, std::map<int, IEC104WF::stPointTable, std::less<int>, std::allocator<std::pair<const int, IEC104WF::stPointTable> > > > > > >, std::_Select1st<std::pair<const std::basic_string<char, std::char_traits<char>, std::allocator<char> >, std::map<int, std::map<int, IEC104WF::stPointTable, std::less<int>, std::allocator<std::pair<const int, IEC104WF::stPointTable> > >, std::less<int>, std::allocator<std::pair<const int, std::map<int, IEC104WF::stPointTable, std::less<int>, std::allocator<std::pair<const int, IEC104WF::stPointTable> > > > > > > >, std::less<std::basic_string<char, std::char_traits<char>, std::allocator<char> > >, std::allocator<std::pair<const std::basic_string<char, std::char_traits<char>, std::allocator<char> >, std::map<int, std::map<int, IEC104WF::stPointTable, std::less<int>, std::allocator<std::pair<const int, IEC104WF::stPointTable> > >, std::less<int>, std::allocator<std::pair<const int, std::map<int, IEC104WF::stPointTable, std::less<int>, std::allocator<std::pair<const int, IEC104WF::stPointTable> > > > > > > > >::_M_root
FUNC 31b92 169 0 std::_Rb_tree<std::basic_string<char, std::char_traits<char>, std::allocator<char> >, std::pair<const std::basic_string<char, std::char_traits<char>, std::allocator<char> >, std::map<int, std::map<int, IEC104WF::stPointTable, std::less<int>, std::allocator<std::pair<const int, IEC104WF::stPointTable> > >, std::less<int>, std::allocator<std::pair<const int, std::map<int, IEC104WF::stPointTable, std::less<int>, std::allocator<std::pair<const int, IEC104WF::stPointTable> > > > > > >, std::_Select1st<std::pair<const std::basic_string<char, std::char_traits<char>, std::allocator<char> >, std::map<int, std::map<int, IEC104WF::stPointTable, std::less<int>, std::allocator<std::pair<const int, IEC104WF::stPointTable> > >, std::less<int>, std::allocator<std::pair<const int, std::map<int, IEC104WF::stPointTable, std::less<int>, std::allocator<std::pair<const int, IEC104WF::stPointTable> > > > > > > >, std::less<std::basic_string<char, std::char_traits<char>, std::allocator<char> > >, std::allocator<std::pair<const std::basic_string<char, std::char_traits<char>, std::allocator<char> >, std::map<int, std::map<int, IEC104WF::stPointTable, std::less<int>, std::allocator<std::pair<const int, IEC104WF::stPointTable> > >, std::less<int>, std::allocator<std::pair<const int, std::map<int, IEC104WF::stPointTable, std::less<int>, std::allocator<std::pair<const int, IEC104WF::stPointTable> > > > > > > > >::_M_copy
FUNC 31cfc 12 0 std::_Rb_tree<std::basic_string<char, std::char_traits<char>, std::allocator<char> >, std::pair<const std::basic_string<char, std::char_traits<char>, std::allocator<char> >, std::map<int, std::map<int, IEC104WF::stPointTable, std::less<int>, std::allocator<std::pair<const int, IEC104WF::stPointTable> > >, std::less<int>, std::allocator<std::pair<const int, std::map<int, IEC104WF::stPointTable, std::less<int>, std::allocator<std::pair<const int, IEC104WF::stPointTable> > > > > > >, std::_Select1st<std::pair<const std::basic_string<char, std::char_traits<char>, std::allocator<char> >, std::map<int, std::map<int, IEC104WF::stPointTable, std::less<int>, std::allocator<std::pair<const int, IEC104WF::stPointTable> > >, std::less<int>, std::allocator<std::pair<const int, std::map<int, IEC104WF::stPointTable, std::less<int>, std::allocator<std::pair<const int, IEC104WF::stPointTable> > > > > > > >, std::less<std::basic_string<char, std::char_traits<char>, std::allocator<char> > >, std::allocator<std::pair<const std::basic_string<char, std::char_traits<char>, std::allocator<char> >, std::map<int, std::map<int, IEC104WF::stPointTable, std::less<int>, std::allocator<std::pair<const int, IEC104WF::stPointTable> > >, std::less<int>, std::allocator<std::pair<const int, std::map<int, IEC104WF::stPointTable, std::less<int>, std::allocator<std::pair<const int, IEC104WF::stPointTable> > > > > > > > >::_M_begin
FUNC 31d0e 1a 0 std::_Rb_tree<std::basic_string<char, std::char_traits<char>, std::allocator<char> >, std::pair<const std::basic_string<char, std::char_traits<char>, std::allocator<char> >, std::map<int, std::map<int, IEC104WF::stPointTable, std::less<int>, std::allocator<std::pair<const int, IEC104WF::stPointTable> > >, std::less<int>, std::allocator<std::pair<const int, std::map<int, IEC104WF::stPointTable, std::less<int>, std::allocator<std::pair<const int, IEC104WF::stPointTable> > > > > > >, std::_Select1st<std::pair<const std::basic_string<char, std::char_traits<char>, std::allocator<char> >, std::map<int, std::map<int, IEC104WF::stPointTable, std::less<int>, std::allocator<std::pair<const int, IEC104WF::stPointTable> > >, std::less<int>, std::allocator<std::pair<const int, std::map<int, IEC104WF::stPointTable, std::less<int>, std::allocator<std::pair<const int, IEC104WF::stPointTable> > > > > > > >, std::less<std::basic_string<char, std::char_traits<char>, std::allocator<char> > >, std::allocator<std::pair<const std::basic_string<char, std::char_traits<char>, std::allocator<char> >, std::map<int, std::map<int, IEC104WF::stPointTable, std::less<int>, std::allocator<std::pair<const int, IEC104WF::stPointTable> > >, std::less<int>, std::allocator<std::pair<const int, std::map<int, IEC104WF::stPointTable, std::less<int>, std::allocator<std::pair<const int, IEC104WF::stPointTable> > > > > > > > >::_S_minimum
FUNC 31d28 1a 0 std::_Rb_tree<std::basic_string<char, std::char_traits<char>, std::allocator<char> >, std::pair<const std::basic_string<char, std::char_traits<char>, std::allocator<char> >, std::map<int, std::map<int, IEC104WF::stPointTable, std::less<int>, std::allocator<std::pair<const int, IEC104WF::stPointTable> > >, std::less<int>, std::allocator<std::pair<const int, std::map<int, IEC104WF::stPointTable, std::less<int>, std::allocator<std::pair<const int, IEC104WF::stPointTable> > > > > > >, std::_Select1st<std::pair<const std::basic_string<char, std::char_traits<char>, std::allocator<char> >, std::map<int, std::map<int, IEC104WF::stPointTable, std::less<int>, std::allocator<std::pair<const int, IEC104WF::stPointTable> > >, std::less<int>, std::allocator<std::pair<const int, std::map<int, IEC104WF::stPointTable, std::less<int>, std::allocator<std::pair<const int, IEC104WF::stPointTable> > > > > > > >, std::less<std::basic_string<char, std::char_traits<char>, std::allocator<char> > >, std::allocator<std::pair<const std::basic_string<char, std::char_traits<char>, std::allocator<char> >, std::map<int, std::map<int, IEC104WF::stPointTable, std::less<int>, std::allocator<std::pair<const int, IEC104WF::stPointTable> > >, std::less<int>, std::allocator<std::pair<const int, std::map<int, IEC104WF::stPointTable, std::less<int>, std::allocator<std::pair<const int, IEC104WF::stPointTable> > > > > > > > >::_S_maximum
FUNC 31d42 1e 0 std::allocator<std::_List_node<std::basic_string<char, std::char_traits<char>, std::allocator<char> > > >::allocator<std::basic_string<char, std::char_traits<char>, std::allocator<char> > >
FUNC 31d60 3c 0 std::_List_base<std::basic_string<char, std::char_traits<char>, std::allocator<char> >, std::allocator<std::basic_string<char, std::char_traits<char>, std::allocator<char> > > >::_List_impl::_List_impl
FUNC 31d9c 19 0 std::_List_const_iterator<std::basic_string<char, std::char_traits<char>, std::allocator<char> > >::_List_const_iterator
FUNC 31db6 22 0 std::_List_const_iterator<std::basic_string<char, std::char_traits<char>, std::allocator<char> > >::operator!=
FUNC 31dd8 1f 0 std::_List_const_iterator<std::basic_string<char, std::char_traits<char>, std::allocator<char> > >::operator++
FUNC 31df8 15 0 std::_List_const_iterator<std::basic_string<char, std::char_traits<char>, std::allocator<char> > >::operator*
FUNC 31e0e 53 0 std::_Rb_tree<std::basic_string<char, std::char_traits<char>, std::allocator<char> >, std::pair<const std::basic_string<char, std::char_traits<char>, std::allocator<char> >, IEC61850_STRUCT::IED_61850>, std::_Select1st<std::pair<const std::basic_string<char, std::char_traits<char>, std::allocator<char> >, IEC61850_STRUCT::IED_61850> >, std::less<std::basic_string<char, std::char_traits<char>, std::allocator<char> > >, std::allocator<std::pair<const std::basic_string<char, std::char_traits<char>, std::allocator<char> >, IEC61850_STRUCT::IED_61850> > >::lower_bound
FUNC 31e62 a 0 std::_Rb_tree<std::basic_string<char, std::char_traits<char>, std::allocator<char> >, std::pair<const std::basic_string<char, std::char_traits<char>, std::allocator<char> >, IEC61850_STRUCT::IED_61850>, std::_Select1st<std::pair<const std::basic_string<char, std::char_traits<char>, std::allocator<char> >, IEC61850_STRUCT::IED_61850> >, std::less<std::basic_string<char, std::char_traits<char>, std::allocator<char> > >, std::allocator<std::pair<const std::basic_string<char, std::char_traits<char>, std::allocator<char> >, IEC61850_STRUCT::IED_61850> > >::key_comp
FUNC 31e6c 2c 0 std::_Rb_tree<std::basic_string<char, std::char_traits<char>, std::allocator<char> >, std::pair<const std::basic_string<char, std::char_traits<char>, std::allocator<char> >, IEC61850_STRUCT::IED_61850>, std::_Select1st<std::pair<const std::basic_string<char, std::char_traits<char>, std::allocator<char> >, IEC61850_STRUCT::IED_61850> >, std::less<std::basic_string<char, std::char_traits<char>, std::allocator<char> > >, std::allocator<std::pair<const std::basic_string<char, std::char_traits<char>, std::allocator<char> >, IEC61850_STRUCT::IED_61850> > >::end
FUNC 31e98 1c 0 std::_Rb_tree_const_iterator<std::pair<const std::basic_string<char, std::char_traits<char>, std::allocator<char> >, IEC61850_STRUCT::IED_61850> >::_Rb_tree_const_iterator
FUNC 31eb4 4c0 0 std::_Rb_tree<std::basic_string<char, std::char_traits<char>, std::allocator<char> >, std::pair<const std::basic_string<char, std::char_traits<char>, std::allocator<char> >, IEC61850_STRUCT::IED_61850>, std::_Select1st<std::pair<const std::basic_string<char, std::char_traits<char>, std::allocator<char> >, IEC61850_STRUCT::IED_61850> >, std::less<std::basic_string<char, std::char_traits<char>, std::allocator<char> > >, std::allocator<std::pair<const std::basic_string<char, std::char_traits<char>, std::allocator<char> >, IEC61850_STRUCT::IED_61850> > >::_M_insert_unique_
FUNC 32374 53 0 std::_Rb_tree<int, std::pair<const int, IEC104WF::stPointTable>, std::_Select1st<std::pair<const int, IEC104WF::stPointTable> >, std::less<int>, std::allocator<std::pair<const int, IEC104WF::stPointTable> > >::lower_bound
FUNC 323c8 a 0 std::_Rb_tree<int, std::pair<const int, IEC104WF::stPointTable>, std::_Select1st<std::pair<const int, IEC104WF::stPointTable> >, std::less<int>, std::allocator<std::pair<const int, IEC104WF::stPointTable> > >::key_comp
FUNC 323d2 2c 0 std::_Rb_tree<int, std::pair<const int, IEC104WF::stPointTable>, std::_Select1st<std::pair<const int, IEC104WF::stPointTable> >, std::less<int>, std::allocator<std::pair<const int, IEC104WF::stPointTable> > >::end
FUNC 323fe 1c 0 std::_Rb_tree_const_iterator<std::pair<const int, IEC104WF::stPointTable> >::_Rb_tree_const_iterator
FUNC 3241a 4c0 0 std::_Rb_tree<int, std::pair<const int, IEC104WF::stPointTable>, std::_Select1st<std::pair<const int, IEC104WF::stPointTable> >, std::less<int>, std::allocator<std::pair<const int, IEC104WF::stPointTable> > >::_M_insert_unique_
FUNC 328da 53 0 std::_Rb_tree<int, std::pair<const int, std::map<int, IEC104WF::stPointTable, std::less<int>, std::allocator<std::pair<const int, IEC104WF::stPointTable> > > >, std::_Select1st<std::pair<const int, std::map<int, IEC104WF::stPointTable, std::less<int>, std::allocator<std::pair<const int, IEC104WF::stPointTable> > > > >, std::less<int>, std::allocator<std::pair<const int, std::map<int, IEC104WF::stPointTable, std::less<int>, std::allocator<std::pair<const int, IEC104WF::stPointTable> > > > > >::lower_bound
FUNC 3292e a 0 std::_Rb_tree<int, std::pair<const int, std::map<int, IEC104WF::stPointTable, std::less<int>, std::allocator<std::pair<const int, IEC104WF::stPointTable> > > >, std::_Select1st<std::pair<const int, std::map<int, IEC104WF::stPointTable, std::less<int>, std::allocator<std::pair<const int, IEC104WF::stPointTable> > > > >, std::less<int>, std::allocator<std::pair<const int, std::map<int, IEC104WF::stPointTable, std::less<int>, std::allocator<std::pair<const int, IEC104WF::stPointTable> > > > > >::key_comp
FUNC 32938 2c 0 std::_Rb_tree<int, std::pair<const int, std::map<int, IEC104WF::stPointTable, std::less<int>, std::allocator<std::pair<const int, IEC104WF::stPointTable> > > >, std::_Select1st<std::pair<const int, std::map<int, IEC104WF::stPointTable, std::less<int>, std::allocator<std::pair<const int, IEC104WF::stPointTable> > > > >, std::less<int>, std::allocator<std::pair<const int, std::map<int, IEC104WF::stPointTable, std::less<int>, std::allocator<std::pair<const int, IEC104WF::stPointTable> > > > > >::end
FUNC 32964 25 0 std::map<int, IEC104WF::stPointTable, std::less<int>, std::allocator<std::pair<const int, IEC104WF::stPointTable> > >::map
FUNC 3298a 1c 0 std::_Rb_tree_const_iterator<std::pair<const int, std::map<int, IEC104WF::stPointTable, std::less<int>, std::allocator<std::pair<const int, IEC104WF::stPointTable> > > > >::_Rb_tree_const_iterator
FUNC 329a6 4c0 0 std::_Rb_tree<int, std::pair<const int, std::map<int, IEC104WF::stPointTable, std::less<int>, std::allocator<std::pair<const int, IEC104WF::stPointTable> > > >, std::_Select1st<std::pair<const int, std::map<int, IEC104WF::stPointTable, std::less<int>, std::allocator<std::pair<const int, IEC104WF::stPointTable> > > > >, std::less<int>, std::allocator<std::pair<const int, std::map<int, IEC104WF::stPointTable, std::less<int>, std::allocator<std::pair<const int, IEC104WF::stPointTable> > > > > >::_M_insert_unique_
FUNC 32e66 12 0 std::_Rb_tree<int, std::pair<const int, IEC104WF::stPointTable>, std::_Select1st<std::pair<const int, IEC104WF::stPointTable> >, std::less<int>, std::allocator<std::pair<const int, IEC104WF::stPointTable> > >::_M_root
FUNC 32e78 169 0 std::_Rb_tree<int, std::pair<const int, IEC104WF::stPointTable>, std::_Select1st<std::pair<const int, IEC104WF::stPointTable> >, std::less<int>, std::allocator<std::pair<const int, IEC104WF::stPointTable> > >::_M_copy
FUNC 32fe2 12 0 std::_Rb_tree<int, std::pair<const int, IEC104WF::stPointTable>, std::_Select1st<std::pair<const int, IEC104WF::stPointTable> >, std::less<int>, std::allocator<std::pair<const int, IEC104WF::stPointTable> > >::_M_begin
FUNC 32ff4 1a 0 std::_Rb_tree<int, std::pair<const int, IEC104WF::stPointTable>, std::_Select1st<std::pair<const int, IEC104WF::stPointTable> >, std::less<int>, std::allocator<std::pair<const int, IEC104WF::stPointTable> > >::_S_minimum
FUNC 3300e 1a 0 std::_Rb_tree<int, std::pair<const int, IEC104WF::stPointTable>, std::_Select1st<std::pair<const int, IEC104WF::stPointTable> >, std::less<int>, std::allocator<std::pair<const int, IEC104WF::stPointTable> > >::_S_maximum
FUNC 33028 53 0 std::_Rb_tree<std::basic_string<char, std::char_traits<char>, std::allocator<char> >, std::pair<const std::basic_string<char, std::char_traits<char>, std::allocator<char> >, std::map<int, std::map<int, IEC104WF::stPointTable, std::less<int>, std::allocator<std::pair<const int, IEC104WF::stPointTable> > >, std::less<int>, std::allocator<std::pair<const int, std::map<int, IEC104WF::stPointTable, std::less<int>, std::allocator<std::pair<const int, IEC104WF::stPointTable> > > > > > >, std::_Select1st<std::pair<const std::basic_string<char, std::char_traits<char>, std::allocator<char> >, std::map<int, std::map<int, IEC104WF::stPointTable, std::less<int>, std::allocator<std::pair<const int, IEC104WF::stPointTable> > >, std::less<int>, std::allocator<std::pair<const int, std::map<int, IEC104WF::stPointTable, std::less<int>, std::allocator<std::pair<const int, IEC104WF::stPointTable> > > > > > > >, std::less<std::basic_string<char, std::char_traits<char>, std::allocator<char> > >, std::allocator<std::pair<const std::basic_string<char, std::char_traits<char>, std::allocator<char> >, std::map<int, std::map<int, IEC104WF::stPointTable, std::less<int>, std::allocator<std::pair<const int, IEC104WF::stPointTable> > >, std::less<int>, std::allocator<std::pair<const int, std::map<int, IEC104WF::stPointTable, std::less<int>, std::allocator<std::pair<const int, IEC104WF::stPointTable> > > > > > > > >::lower_bound
FUNC 3307c a 0 std::_Rb_tree<std::basic_string<char, std::char_traits<char>, std::allocator<char> >, std::pair<const std::basic_string<char, std::char_traits<char>, std::allocator<char> >, std::map<int, std::map<int, IEC104WF::stPointTable, std::less<int>, std::allocator<std::pair<const int, IEC104WF::stPointTable> > >, std::less<int>, std::allocator<std::pair<const int, std::map<int, IEC104WF::stPointTable, std::less<int>, std::allocator<std::pair<const int, IEC104WF::stPointTable> > > > > > >, std::_Select1st<std::pair<const std::basic_string<char, std::char_traits<char>, std::allocator<char> >, std::map<int, std::map<int, IEC104WF::stPointTable, std::less<int>, std::allocator<std::pair<const int, IEC104WF::stPointTable> > >, std::less<int>, std::allocator<std::pair<const int, std::map<int, IEC104WF::stPointTable, std::less<int>, std::allocator<std::pair<const int, IEC104WF::stPointTable> > > > > > > >, std::less<std::basic_string<char, std::char_traits<char>, std::allocator<char> > >, std::allocator<std::pair<const std::basic_string<char, std::char_traits<char>, std::allocator<char> >, std::map<int, std::map<int, IEC104WF::stPointTable, std::less<int>, std::allocator<std::pair<const int, IEC104WF::stPointTable> > >, std::less<int>, std::allocator<std::pair<const int, std::map<int, IEC104WF::stPointTable, std::less<int>, std::allocator<std::pair<const int, IEC104WF::stPointTable> > > > > > > > >::key_comp
FUNC 33086 2c 0 std::_Rb_tree<std::basic_string<char, std::char_traits<char>, std::allocator<char> >, std::pair<const std::basic_string<char, std::char_traits<char>, std::allocator<char> >, std::map<int, std::map<int, IEC104WF::stPointTable, std::less<int>, std::allocator<std::pair<const int, IEC104WF::stPointTable> > >, std::less<int>, std::allocator<std::pair<const int, std::map<int, IEC104WF::stPointTable, std::less<int>, std::allocator<std::pair<const int, IEC104WF::stPointTable> > > > > > >, std::_Select1st<std::pair<const std::basic_string<char, std::char_traits<char>, std::allocator<char> >, std::map<int, std::map<int, IEC104WF::stPointTable, std::less<int>, std::allocator<std::pair<const int, IEC104WF::stPointTable> > >, std::less<int>, std::allocator<std::pair<const int, std::map<int, IEC104WF::stPointTable, std::less<int>, std::allocator<std::pair<const int, IEC104WF::stPointTable> > > > > > > >, std::less<std::basic_string<char, std::char_traits<char>, std::allocator<char> > >, std::allocator<std::pair<const std::basic_string<char, std::char_traits<char>, std::allocator<char> >, std::map<int, std::map<int, IEC104WF::stPointTable, std::less<int>, std::allocator<std::pair<const int, IEC104WF::stPointTable> > >, std::less<int>, std::allocator<std::pair<const int, std::map<int, IEC104WF::stPointTable, std::less<int>, std::allocator<std::pair<const int, IEC104WF::stPointTable> > > > > > > > >::end
FUNC 330b2 25 0 std::map<int, std::map<int, IEC104WF::stPointTable, std::less<int>, std::allocator<std::pair<const int, IEC104WF::stPointTable> > >, std::less<int>, std::allocator<std::pair<const int, std::map<int, IEC104WF::stPointTable, std::less<int>, std::allocator<std::pair<const int, IEC104WF::stPointTable> > > > > >::map
FUNC 330d8 1c 0 std::_Rb_tree_const_iterator<std::pair<const std::basic_string<char, std::char_traits<char>, std::allocator<char> >, std::map<int, std::map<int, IEC104WF::stPointTable, std::less<int>, std::allocator<std::pair<const int, IEC104WF::stPointTable> > >, std::less<int>, std::allocator<std::pair<const int, std::map<int, IEC104WF::stPointTable, std::less<int>, std::allocator<std::pair<const int, IEC104WF::stPointTable> > > > > > > >::_Rb_tree_const_iterator
FUNC 330f4 4c0 0 std::_Rb_tree<std::basic_string<char, std::char_traits<char>, std::allocator<char> >, std::pair<const std::basic_string<char, std::char_traits<char>, std::allocator<char> >, std::map<int, std::map<int, IEC104WF::stPointTable, std::less<int>, std::allocator<std::pair<const int, IEC104WF::stPointTable> > >, std::less<int>, std::allocator<std::pair<const int, std::map<int, IEC104WF::stPointTable, std::less<int>, std::allocator<std::pair<const int, IEC104WF::stPointTable> > > > > > >, std::_Select1st<std::pair<const std::basic_string<char, std::char_traits<char>, std::allocator<char> >, std::map<int, std::map<int, IEC104WF::stPointTable, std::less<int>, std::allocator<std::pair<const int, IEC104WF::stPointTable> > >, std::less<int>, std::allocator<std::pair<const int, std::map<int, IEC104WF::stPointTable, std::less<int>, std::allocator<std::pair<const int, IEC104WF::stPointTable> > > > > > > >, std::less<std::basic_string<char, std::char_traits<char>, std::allocator<char> > >, std::allocator<std::pair<const std::basic_string<char, std::char_traits<char>, std::allocator<char> >, std::map<int, std::map<int, IEC104WF::stPointTable, std::less<int>, std::allocator<std::pair<const int, IEC104WF::stPointTable> > >, std::less<int>, std::allocator<std::pair<const int, std::map<int, IEC104WF::stPointTable, std::less<int>, std::allocator<std::pair<const int, IEC104WF::stPointTable> > > > > > > > >::_M_insert_unique_
FUNC 335b4 12 0 std::_Rb_tree<int, std::pair<const int, std::map<int, IEC104WF::stPointTable, std::less<int>, std::allocator<std::pair<const int, IEC104WF::stPointTable> > > >, std::_Select1st<std::pair<const int, std::map<int, IEC104WF::stPointTable, std::less<int>, std::allocator<std::pair<const int, IEC104WF::stPointTable> > > > >, std::less<int>, std::allocator<std::pair<const int, std::map<int, IEC104WF::stPointTable, std::less<int>, std::allocator<std::pair<const int, IEC104WF::stPointTable> > > > > >::_M_root
FUNC 335c6 169 0 std::_Rb_tree<int, std::pair<const int, std::map<int, IEC104WF::stPointTable, std::less<int>, std::allocator<std::pair<const int, IEC104WF::stPointTable> > > >, std::_Select1st<std::pair<const int, std::map<int, IEC104WF::stPointTable, std::less<int>, std::allocator<std::pair<const int, IEC104WF::stPointTable> > > > >, std::less<int>, std::allocator<std::pair<const int, std::map<int, IEC104WF::stPointTable, std::less<int>, std::allocator<std::pair<const int, IEC104WF::stPointTable> > > > > >::_M_copy
FUNC 33730 12 0 std::_Rb_tree<int, std::pair<const int, std::map<int, IEC104WF::stPointTable, std::less<int>, std::allocator<std::pair<const int, IEC104WF::stPointTable> > > >, std::_Select1st<std::pair<const int, std::map<int, IEC104WF::stPointTable, std::less<int>, std::allocator<std::pair<const int, IEC104WF::stPointTable> > > > >, std::less<int>, std::allocator<std::pair<const int, std::map<int, IEC104WF::stPointTable, std::less<int>, std::allocator<std::pair<const int, IEC104WF::stPointTable> > > > > >::_M_begin
FUNC 33742 1a 0 std::_Rb_tree<int, std::pair<const int, std::map<int, IEC104WF::stPointTable, std::less<int>, std::allocator<std::pair<const int, IEC104WF::stPointTable> > > >, std::_Select1st<std::pair<const int, std::map<int, IEC104WF::stPointTable, std::less<int>, std::allocator<std::pair<const int, IEC104WF::stPointTable> > > > >, std::less<int>, std::allocator<std::pair<const int, std::map<int, IEC104WF::stPointTable, std::less<int>, std::allocator<std::pair<const int, IEC104WF::stPointTable> > > > > >::_S_minimum
FUNC 3375c 1a 0 std::_Rb_tree<int, std::pair<const int, std::map<int, IEC104WF::stPointTable, std::less<int>, std::allocator<std::pair<const int, IEC104WF::stPointTable> > > >, std::_Select1st<std::pair<const int, std::map<int, IEC104WF::stPointTable, std::less<int>, std::allocator<std::pair<const int, IEC104WF::stPointTable> > > > >, std::less<int>, std::allocator<std::pair<const int, std::map<int, IEC104WF::stPointTable, std::less<int>, std::allocator<std::pair<const int, IEC104WF::stPointTable> > > > > >::_S_maximum
FUNC 33776 53 0 std::_Rb_tree<std::basic_string<char, std::char_traits<char>, std::allocator<char> >, std::pair<const std::basic_string<char, std::char_traits<char>, std::allocator<char> >, IEC103::stConfigParam>, std::_Select1st<std::pair<const std::basic_string<char, std::char_traits<char>, std::allocator<char> >, IEC103::stConfigParam> >, std::less<std::basic_string<char, std::char_traits<char>, std::allocator<char> > >, std::allocator<std::pair<const std::basic_string<char, std::char_traits<char>, std::allocator<char> >, IEC103::stConfigParam> > >::lower_bound
FUNC 337ca a 0 std::_Rb_tree<std::basic_string<char, std::char_traits<char>, std::allocator<char> >, std::pair<const std::basic_string<char, std::char_traits<char>, std::allocator<char> >, IEC103::stConfigParam>, std::_Select1st<std::pair<const std::basic_string<char, std::char_traits<char>, std::allocator<char> >, IEC103::stConfigParam> >, std::less<std::basic_string<char, std::char_traits<char>, std::allocator<char> > >, std::allocator<std::pair<const std::basic_string<char, std::char_traits<char>, std::allocator<char> >, IEC103::stConfigParam> > >::key_comp
FUNC 337d4 2c 0 std::_Rb_tree<std::basic_string<char, std::char_traits<char>, std::allocator<char> >, std::pair<const std::basic_string<char, std::char_traits<char>, std::allocator<char> >, IEC103::stConfigParam>, std::_Select1st<std::pair<const std::basic_string<char, std::char_traits<char>, std::allocator<char> >, IEC103::stConfigParam> >, std::less<std::basic_string<char, std::char_traits<char>, std::allocator<char> > >, std::allocator<std::pair<const std::basic_string<char, std::char_traits<char>, std::allocator<char> >, IEC103::stConfigParam> > >::end
FUNC 33800 1c 0 std::_Rb_tree_const_iterator<std::pair<const std::basic_string<char, std::char_traits<char>, std::allocator<char> >, IEC103::stConfigParam> >::_Rb_tree_const_iterator
FUNC 3381c 4c0 0 std::_Rb_tree<std::basic_string<char, std::char_traits<char>, std::allocator<char> >, std::pair<const std::basic_string<char, std::char_traits<char>, std::allocator<char> >, IEC103::stConfigParam>, std::_Select1st<std::pair<const std::basic_string<char, std::char_traits<char>, std::allocator<char> >, IEC103::stConfigParam> >, std::less<std::basic_string<char, std::char_traits<char>, std::allocator<char> > >, std::allocator<std::pair<const std::basic_string<char, std::char_traits<char>, std::allocator<char> >, IEC103::stConfigParam> > >::_M_insert_unique_
FUNC 33cdc 53 0 std::_Rb_tree<std::basic_string<char, std::char_traits<char>, std::allocator<char> >, std::pair<const std::basic_string<char, std::char_traits<char>, std::allocator<char> >, std::map<std::basic_string<char, std::char_traits<char>, std::allocator<char> >, std::basic_string<char, std::char_traits<char>, std::allocator<char> >, std::less<std::basic_string<char, std::char_traits<char>, std::allocator<char> > >, std::allocator<std::pair<const std::basic_string<char, std::char_traits<char>, std::allocator<char> >, std::basic_string<char, std::char_traits<char>, std::allocator<char> > > > > >, std::_Select1st<std::pair<const std::basic_string<char, std::char_traits<char>, std::allocator<char> >, std::map<std::basic_string<char, std::char_traits<char>, std::allocator<char> >, std::basic_string<char, std::char_traits<char>, std::allocator<char> >, std::less<std::basic_string<char, std::char_traits<char>, std::allocator<char> > >, std::allocator<std::pair<const std::basic_string<char, std::char_traits<char>, std::allocator<char> >, std::basic_string<char, std::char_traits<char>, std::allocator<char> > > > > > >, std::less<std::basic_string<char, std::char_traits<char>, std::allocator<char> > >, std::allocator<std::pair<const std::basic_string<char, std::char_traits<char>, std::allocator<char> >, std::map<std::basic_string<char, std::char_traits<char>, std::allocator<char> >, std::basic_string<char, std::char_traits<char>, std::allocator<char> >, std::less<std::basic_string<char, std::char_traits<char>, std::allocator<char> > >, std::allocator<std::pair<const std::basic_string<char, std::char_traits<char>, std::allocator<char> >, std::basic_string<char, std::char_traits<char>, std::allocator<char> > > > > > > >::lower_bound
FUNC 33d30 a 0 std::_Rb_tree<std::basic_string<char, std::char_traits<char>, std::allocator<char> >, std::pair<const std::basic_string<char, std::char_traits<char>, std::allocator<char> >, std::map<std::basic_string<char, std::char_traits<char>, std::allocator<char> >, std::basic_string<char, std::char_traits<char>, std::allocator<char> >, std::less<std::basic_string<char, std::char_traits<char>, std::allocator<char> > >, std::allocator<std::pair<const std::basic_string<char, std::char_traits<char>, std::allocator<char> >, std::basic_string<char, std::char_traits<char>, std::allocator<char> > > > > >, std::_Select1st<std::pair<const std::basic_string<char, std::char_traits<char>, std::allocator<char> >, std::map<std::basic_string<char, std::char_traits<char>, std::allocator<char> >, std::basic_string<char, std::char_traits<char>, std::allocator<char> >, std::less<std::basic_string<char, std::char_traits<char>, std::allocator<char> > >, std::allocator<std::pair<const std::basic_string<char, std::char_traits<char>, std::allocator<char> >, std::basic_string<char, std::char_traits<char>, std::allocator<char> > > > > > >, std::less<std::basic_string<char, std::char_traits<char>, std::allocator<char> > >, std::allocator<std::pair<const std::basic_string<char, std::char_traits<char>, std::allocator<char> >, std::map<std::basic_string<char, std::char_traits<char>, std::allocator<char> >, std::basic_string<char, std::char_traits<char>, std::allocator<char> >, std::less<std::basic_string<char, std::char_traits<char>, std::allocator<char> > >, std::allocator<std::pair<const std::basic_string<char, std::char_traits<char>, std::allocator<char> >, std::basic_string<char, std::char_traits<char>, std::allocator<char> > > > > > > >::key_comp
FUNC 33d3a 2c 0 std::_Rb_tree<std::basic_string<char, std::char_traits<char>, std::allocator<char> >, std::pair<const std::basic_string<char, std::char_traits<char>, std::allocator<char> >, std::map<std::basic_string<char, std::char_traits<char>, std::allocator<char> >, std::basic_string<char, std::char_traits<char>, std::allocator<char> >, std::less<std::basic_string<char, std::char_traits<char>, std::allocator<char> > >, std::allocator<std::pair<const std::basic_string<char, std::char_traits<char>, std::allocator<char> >, std::basic_string<char, std::char_traits<char>, std::allocator<char> > > > > >, std::_Select1st<std::pair<const std::basic_string<char, std::char_traits<char>, std::allocator<char> >, std::map<std::basic_string<char, std::char_traits<char>, std::allocator<char> >, std::basic_string<char, std::char_traits<char>, std::allocator<char> >, std::less<std::basic_string<char, std::char_traits<char>, std::allocator<char> > >, std::allocator<std::pair<const std::basic_string<char, std::char_traits<char>, std::allocator<char> >, std::basic_string<char, std::char_traits<char>, std::allocator<char> > > > > > >, std::less<std::basic_string<char, std::char_traits<char>, std::allocator<char> > >, std::allocator<std::pair<const std::basic_string<char, std::char_traits<char>, std::allocator<char> >, std::map<std::basic_string<char, std::char_traits<char>, std::allocator<char> >, std::basic_string<char, std::char_traits<char>, std::allocator<char> >, std::less<std::basic_string<char, std::char_traits<char>, std::allocator<char> > >, std::allocator<std::pair<const std::basic_string<char, std::char_traits<char>, std::allocator<char> >, std::basic_string<char, std::char_traits<char>, std::allocator<char> > > > > > > >::end
FUNC 33d66 1c 0 std::_Rb_tree_const_iterator<std::pair<const std::basic_string<char, std::char_traits<char>, std::allocator<char> >, std::map<std::basic_string<char, std::char_traits<char>, std::allocator<char> >, std::basic_string<char, std::char_traits<char>, std::allocator<char> >, std::less<std::basic_string<char, std::char_traits<char>, std::allocator<char> > >, std::allocator<std::pair<const std::basic_string<char, std::char_traits<char>, std::allocator<char> >, std::basic_string<char, std::char_traits<char>, std::allocator<char> > > > > > >::_Rb_tree_const_iterator
FUNC 33d82 4c0 0 std::_Rb_tree<std::basic_string<char, std::char_traits<char>, std::allocator<char> >, std::pair<const std::basic_string<char, std::char_traits<char>, std::allocator<char> >, std::map<std::basic_string<char, std::char_traits<char>, std::allocator<char> >, std::basic_string<char, std::char_traits<char>, std::allocator<char> >, std::less<std::basic_string<char, std::char_traits<char>, std::allocator<char> > >, std::allocator<std::pair<const std::basic_string<char, std::char_traits<char>, std::allocator<char> >, std::basic_string<char, std::char_traits<char>, std::allocator<char> > > > > >, std::_Select1st<std::pair<const std::basic_string<char, std::char_traits<char>, std::allocator<char> >, std::map<std::basic_string<char, std::char_traits<char>, std::allocator<char> >, std::basic_string<char, std::char_traits<char>, std::allocator<char> >, std::less<std::basic_string<char, std::char_traits<char>, std::allocator<char> > >, std::allocator<std::pair<const std::basic_string<char, std::char_traits<char>, std::allocator<char> >, std::basic_string<char, std::char_traits<char>, std::allocator<char> > > > > > >, std::less<std::basic_string<char, std::char_traits<char>, std::allocator<char> > >, std::allocator<std::pair<const std::basic_string<char, std::char_traits<char>, std::allocator<char> >, std::map<std::basic_string<char, std::char_traits<char>, std::allocator<char> >, std::basic_string<char, std::char_traits<char>, std::allocator<char> >, std::less<std::basic_string<char, std::char_traits<char>, std::allocator<char> > >, std::allocator<std::pair<const std::basic_string<char, std::char_traits<char>, std::allocator<char> >, std::basic_string<char, std::char_traits<char>, std::allocator<char> > > > > > > >::_M_insert_unique_
FUNC 34242 19 0 std::_List_iterator<std::basic_string<char, std::char_traits<char>, std::allocator<char> > >::_List_iterator
FUNC 3425c bb 0 std::list<std::basic_string<char, std::char_traits<char>, std::allocator<char> >, std::allocator<std::basic_string<char, std::char_traits<char>, std::allocator<char> > > >::_M_create_node
FUNC 34318 1a 0 std::allocator<std::_Rb_tree_node<std::pair<const std::basic_string<char, std::char_traits<char>, std::allocator<char> >, IEC61850_STRUCT::IED_61850> > >::allocator
FUNC 34332 41 0 std::_Rb_tree<std::basic_string<char, std::char_traits<char>, std::allocator<char> >, std::pair<const std::basic_string<char, std::char_traits<char>, std::allocator<char> >, IEC61850_STRUCT::IED_61850>, std::_Select1st<std::pair<const std::basic_string<char, std::char_traits<char>, std::allocator<char> >, IEC61850_STRUCT::IED_61850> >, std::less<std::basic_string<char, std::char_traits<char>, std::allocator<char> > >, std::allocator<std::pair<const std::basic_string<char, std::char_traits<char>, std::allocator<char> >, IEC61850_STRUCT::IED_61850> > >::_Rb_tree_impl<std::less<std::basic_string<char, std::char_traits<char>, std::allocator<char> > >, false>::_M_initialize
FUNC 34374 3b 0 std::_Rb_tree<std::basic_string<char, std::char_traits<char>, std::allocator<char> >, std::pair<const std::basic_string<char, std::char_traits<char>, std::allocator<char> >, IEC61850_STRUCT::IED_61850>, std::_Select1st<std::pair<const std::basic_string<char, std::char_traits<char>, std::allocator<char> >, IEC61850_STRUCT::IED_61850> >, std::less<std::basic_string<char, std::char_traits<char>, std::allocator<char> > >, std::allocator<std::pair<const std::basic_string<char, std::char_traits<char>, std::allocator<char> >, IEC61850_STRUCT::IED_61850> > >::get_allocator
FUNC 343b0 1a 0 std::allocator<std::pair<const std::basic_string<char, std::char_traits<char>, std::allocator<char> >, IEC61850_STRUCT::IED_61850> >::~allocator
FUNC 343ca 1e 0 __gnu_cxx::new_allocator<std::pair<const std::basic_string<char, std::char_traits<char>, std::allocator<char> >, IEC61850_STRUCT::IED_61850> >::destroy
FUNC 343e8 2a 0 std::_Rb_tree<std::basic_string<char, std::char_traits<char>, std::allocator<char> >, std::pair<const std::basic_string<char, std::char_traits<char>, std::allocator<char> >, IEC61850_STRUCT::IED_61850>, std::_Select1st<std::pair<const std::basic_string<char, std::char_traits<char>, std::allocator<char> >, IEC61850_STRUCT::IED_61850> >, std::less<std::basic_string<char, std::char_traits<char>, std::allocator<char> > >, std::allocator<std::pair<const std::basic_string<char, std::char_traits<char>, std::allocator<char> >, IEC61850_STRUCT::IED_61850> > >::_M_put_node
FUNC 34412 1a 0 std::allocator<std::_List_node<std::basic_string<char, std::char_traits<char>, std::allocator<char> > > >::allocator
FUNC 3442c 25 0 std::allocator<std::basic_string<char, std::char_traits<char>, std::allocator<char> > >::allocator
FUNC 34452 22 0 __gnu_cxx::new_allocator<std::_List_node<std::basic_string<char, std::char_traits<char>, std::allocator<char> > > >::deallocate
FUNC 34474 1a 0 std::allocator<std::_Rb_tree_node<std::pair<const std::basic_string<char, std::char_traits<char>, std::allocator<char> >, std::map<int, std::map<int, IEC104WF::stPointTable, std::less<int>, std::allocator<std::pair<const int, IEC104WF::stPointTable> > >, std::less<int>, std::allocator<std::pair<const int, std::map<int, IEC104WF::stPointTable, std::less<int>, std::allocator<std::pair<const int, IEC104WF::stPointTable> > > > > > > > >::allocator
FUNC 3448e 41 0 std::_Rb_tree<std::basic_string<char, std::char_traits<char>, std::allocator<char> >, std::pair<const std::basic_string<char, std::char_traits<char>, std::allocator<char> >, std::map<int, std::map<int, IEC104WF::stPointTable, std::less<int>, std::allocator<std::pair<const int, IEC104WF::stPointTable> > >, std::less<int>, std::allocator<std::pair<const int, std::map<int, IEC104WF::stPointTable, std::less<int>, std::allocator<std::pair<const int, IEC104WF::stPointTable> > > > > > >, std::_Select1st<std::pair<const std::basic_string<char, std::char_traits<char>, std::allocator<char> >, std::map<int, std::map<int, IEC104WF::stPointTable, std::less<int>, std::allocator<std::pair<const int, IEC104WF::stPointTable> > >, std::less<int>, std::allocator<std::pair<const int, std::map<int, IEC104WF::stPointTable, std::less<int>, std::allocator<std::pair<const int, IEC104WF::stPointTable> > > > > > > >, std::less<std::basic_string<char, std::char_traits<char>, std::allocator<char> > >, std::allocator<std::pair<const std::basic_string<char, std::char_traits<char>, std::allocator<char> >, std::map<int, std::map<int, IEC104WF::stPointTable, std::less<int>, std::allocator<std::pair<const int, IEC104WF::stPointTable> > >, std::less<int>, std::allocator<std::pair<const int, std::map<int, IEC104WF::stPointTable, std::less<int>, std::allocator<std::pair<const int, IEC104WF::stPointTable> > > > > > > > >::_Rb_tree_impl<std::less<std::basic_string<char, std::char_traits<char>, std::allocator<char> > >, false>::_M_initialize
FUNC 344d0 3b 0 std::_Rb_tree<std::basic_string<char, std::char_traits<char>, std::allocator<char> >, std::pair<const std::basic_string<char, std::char_traits<char>, std::allocator<char> >, std::map<int, std::map<int, IEC104WF::stPointTable, std::less<int>, std::allocator<std::pair<const int, IEC104WF::stPointTable> > >, std::less<int>, std::allocator<std::pair<const int, std::map<int, IEC104WF::stPointTable, std::less<int>, std::allocator<std::pair<const int, IEC104WF::stPointTable> > > > > > >, std::_Select1st<std::pair<const std::basic_string<char, std::char_traits<char>, std::allocator<char> >, std::map<int, std::map<int, IEC104WF::stPointTable, std::less<int>, std::allocator<std::pair<const int, IEC104WF::stPointTable> > >, std::less<int>, std::allocator<std::pair<const int, std::map<int, IEC104WF::stPointTable, std::less<int>, std::allocator<std::pair<const int, IEC104WF::stPointTable> > > > > > > >, std::less<std::basic_string<char, std::char_traits<char>, std::allocator<char> > >, std::allocator<std::pair<const std::basic_string<char, std::char_traits<char>, std::allocator<char> >, std::map<int, std::map<int, IEC104WF::stPointTable, std::less<int>, std::allocator<std::pair<const int, IEC104WF::stPointTable> > >, std::less<int>, std::allocator<std::pair<const int, std::map<int, IEC104WF::stPointTable, std::less<int>, std::allocator<std::pair<const int, IEC104WF::stPointTable> > > > > > > > >::get_allocator
FUNC 3450c 1a 0 std::allocator<std::pair<const std::basic_string<char, std::char_traits<char>, std::allocator<char> >, std::map<int, std::map<int, IEC104WF::stPointTable, std::less<int>, std::allocator<std::pair<const int, IEC104WF::stPointTable> > >, std::less<int>, std::allocator<std::pair<const int, std::map<int, IEC104WF::stPointTable, std::less<int>, std::allocator<std::pair<const int, IEC104WF::stPointTable> > > > > > > >::~allocator
FUNC 34526 1e 0 __gnu_cxx::new_allocator<std::pair<const std::basic_string<char, std::char_traits<char>, std::allocator<char> >, std::map<int, std::map<int, IEC104WF::stPointTable, std::less<int>, std::allocator<std::pair<const int, IEC104WF::stPointTable> > >, std::less<int>, std::allocator<std::pair<const int, std::map<int, IEC104WF::stPointTable, std::less<int>, std::allocator<std::pair<const int, IEC104WF::stPointTable> > > > > > > >::destroy
FUNC 34544 2a 0 std::_Rb_tree<std::basic_string<char, std::char_traits<char>, std::allocator<char> >, std::pair<const std::basic_string<char, std::char_traits<char>, std::allocator<char> >, std::map<int, std::map<int, IEC104WF::stPointTable, std::less<int>, std::allocator<std::pair<const int, IEC104WF::stPointTable> > >, std::less<int>, std::allocator<std::pair<const int, std::map<int, IEC104WF::stPointTable, std::less<int>, std::allocator<std::pair<const int, IEC104WF::stPointTable> > > > > > >, std::_Select1st<std::pair<const std::basic_string<char, std::char_traits<char>, std::allocator<char> >, std::map<int, std::map<int, IEC104WF::stPointTable, std::less<int>, std::allocator<std::pair<const int, IEC104WF::stPointTable> > >, std::less<int>, std::allocator<std::pair<const int, std::map<int, IEC104WF::stPointTable, std::less<int>, std::allocator<std::pair<const int, IEC104WF::stPointTable> > > > > > > >, std::less<std::basic_string<char, std::char_traits<char>, std::allocator<char> > >, std::allocator<std::pair<const std::basic_string<char, std::char_traits<char>, std::allocator<char> >, std::map<int, std::map<int, IEC104WF::stPointTable, std::less<int>, std::allocator<std::pair<const int, IEC104WF::stPointTable> > >, std::less<int>, std::allocator<std::pair<const int, std::map<int, IEC104WF::stPointTable, std::less<int>, std::allocator<std::pair<const int, IEC104WF::stPointTable> > > > > > > > >::_M_put_node
FUNC 3456e 1a 0 std::allocator<std::_Rb_tree_node<std::pair<const int, std::map<int, IEC104WF::stPointTable, std::less<int>, std::allocator<std::pair<const int, IEC104WF::stPointTable> > > > > >::allocator
FUNC 34588 41 0 std::_Rb_tree<int, std::pair<const int, std::map<int, IEC104WF::stPointTable, std::less<int>, std::allocator<std::pair<const int, IEC104WF::stPointTable> > > >, std::_Select1st<std::pair<const int, std::map<int, IEC104WF::stPointTable, std::less<int>, std::allocator<std::pair<const int, IEC104WF::stPointTable> > > > >, std::less<int>, std::allocator<std::pair<const int, std::map<int, IEC104WF::stPointTable, std::less<int>, std::allocator<std::pair<const int, IEC104WF::stPointTable> > > > > >::_Rb_tree_impl<std::less<int>, false>::_M_initialize
FUNC 345ca 3b 0 std::_Rb_tree<int, std::pair<const int, std::map<int, IEC104WF::stPointTable, std::less<int>, std::allocator<std::pair<const int, IEC104WF::stPointTable> > > >, std::_Select1st<std::pair<const int, std::map<int, IEC104WF::stPointTable, std::less<int>, std::allocator<std::pair<const int, IEC104WF::stPointTable> > > > >, std::less<int>, std::allocator<std::pair<const int, std::map<int, IEC104WF::stPointTable, std::less<int>, std::allocator<std::pair<const int, IEC104WF::stPointTable> > > > > >::get_allocator
FUNC 34606 1a 0 std::allocator<std::pair<const int, std::map<int, IEC104WF::stPointTable, std::less<int>, std::allocator<std::pair<const int, IEC104WF::stPointTable> > > > >::~allocator
FUNC 34620 1e 0 __gnu_cxx::new_allocator<std::pair<const int, std::map<int, IEC104WF::stPointTable, std::less<int>, std::allocator<std::pair<const int, IEC104WF::stPointTable> > > > >::destroy
FUNC 3463e 2a 0 std::_Rb_tree<int, std::pair<const int, std::map<int, IEC104WF::stPointTable, std::less<int>, std::allocator<std::pair<const int, IEC104WF::stPointTable> > > >, std::_Select1st<std::pair<const int, std::map<int, IEC104WF::stPointTable, std::less<int>, std::allocator<std::pair<const int, IEC104WF::stPointTable> > > > >, std::less<int>, std::allocator<std::pair<const int, std::map<int, IEC104WF::stPointTable, std::less<int>, std::allocator<std::pair<const int, IEC104WF::stPointTable> > > > > >::_M_put_node
FUNC 34668 1a 0 std::allocator<std::_Rb_tree_node<std::pair<const int, IEC104WF::stPointTable> > >::allocator
FUNC 34682 41 0 std::_Rb_tree<int, std::pair<const int, IEC104WF::stPointTable>, std::_Select1st<std::pair<const int, IEC104WF::stPointTable> >, std::less<int>, std::allocator<std::pair<const int, IEC104WF::stPointTable> > >::_Rb_tree_impl<std::less<int>, false>::_M_initialize
FUNC 346c4 3b 0 std::_Rb_tree<int, std::pair<const int, IEC104WF::stPointTable>, std::_Select1st<std::pair<const int, IEC104WF::stPointTable> >, std::less<int>, std::allocator<std::pair<const int, IEC104WF::stPointTable> > >::get_allocator
FUNC 34700 1a 0 std::allocator<std::pair<const int, IEC104WF::stPointTable> >::~allocator
FUNC 3471a 1e 0 __gnu_cxx::new_allocator<std::pair<const int, IEC104WF::stPointTable> >::destroy
FUNC 34738 2a 0 std::_Rb_tree<int, std::pair<const int, IEC104WF::stPointTable>, std::_Select1st<std::pair<const int, IEC104WF::stPointTable> >, std::less<int>, std::allocator<std::pair<const int, IEC104WF::stPointTable> > >::_M_put_node
FUNC 34762 1a 0 std::allocator<std::_Rb_tree_node<std::pair<const std::basic_string<char, std::char_traits<char>, std::allocator<char> >, IEC103::stConfigParam> > >::allocator
FUNC 3477c 41 0 std::_Rb_tree<std::basic_string<char, std::char_traits<char>, std::allocator<char> >, std::pair<const std::basic_string<char, std::char_traits<char>, std::allocator<char> >, IEC103::stConfigParam>, std::_Select1st<std::pair<const std::basic_string<char, std::char_traits<char>, std::allocator<char> >, IEC103::stConfigParam> >, std::less<std::basic_string<char, std::char_traits<char>, std::allocator<char> > >, std::allocator<std::pair<const std::basic_string<char, std::char_traits<char>, std::allocator<char> >, IEC103::stConfigParam> > >::_Rb_tree_impl<std::less<std::basic_string<char, std::char_traits<char>, std::allocator<char> > >, false>::_M_initialize
FUNC 347be 1a 0 std::allocator<std::_Rb_tree_node<std::pair<const std::basic_string<char, std::char_traits<char>, std::allocator<char> >, std::map<std::basic_string<char, std::char_traits<char>, std::allocator<char> >, std::basic_string<char, std::char_traits<char>, std::allocator<char> >, std::less<std::basic_string<char, std::char_traits<char>, std::allocator<char> > >, std::allocator<std::pair<const std::basic_string<char, std::char_traits<char>, std::allocator<char> >, std::basic_string<char, std::char_traits<char>, std::allocator<char> > > > > > > >::allocator
FUNC 347d8 41 0 std::_Rb_tree<std::basic_string<char, std::char_traits<char>, std::allocator<char> >, std::pair<const std::basic_string<char, std::char_traits<char>, std::allocator<char> >, std::map<std::basic_string<char, std::char_traits<char>, std::allocator<char> >, std::basic_string<char, std::char_traits<char>, std::allocator<char> >, std::less<std::basic_string<char, std::char_traits<char>, std::allocator<char> > >, std::allocator<std::pair<const std::basic_string<char, std::char_traits<char>, std::allocator<char> >, std::basic_string<char, std::char_traits<char>, std::allocator<char> > > > > >, std::_Select1st<std::pair<const std::basic_string<char, std::char_traits<char>, std::allocator<char> >, std::map<std::basic_string<char, std::char_traits<char>, std::allocator<char> >, std::basic_string<char, std::char_traits<char>, std::allocator<char> >, std::less<std::basic_string<char, std::char_traits<char>, std::allocator<char> > >, std::allocator<std::pair<const std::basic_string<char, std::char_traits<char>, std::allocator<char> >, std::basic_string<char, std::char_traits<char>, std::allocator<char> > > > > > >, std::less<std::basic_string<char, std::char_traits<char>, std::allocator<char> > >, std::allocator<std::pair<const std::basic_string<char, std::char_traits<char>, std::allocator<char> >, std::map<std::basic_string<char, std::char_traits<char>, std::allocator<char> >, std::basic_string<char, std::char_traits<char>, std::allocator<char> >, std::less<std::basic_string<char, std::char_traits<char>, std::allocator<char> > >, std::allocator<std::pair<const std::basic_string<char, std::char_traits<char>, std::allocator<char> >, std::basic_string<char, std::char_traits<char>, std::allocator<char> > > > > > > >::_Rb_tree_impl<std::less<std::basic_string<char, std::char_traits<char>, std::allocator<char> > >, false>::_M_initialize
FUNC 3481a 25 0 std::allocator<std::_Rb_tree_node<std::pair<const std::basic_string<char, std::char_traits<char>, std::allocator<char> >, IEC61850_STRUCT::IED_61850> > >::allocator
FUNC 34840 55 0 std::_Rb_tree<std::basic_string<char, std::char_traits<char>, std::allocator<char> >, std::pair<const std::basic_string<char, std::char_traits<char>, std::allocator<char> >, IEC61850_STRUCT::IED_61850>, std::_Select1st<std::pair<const std::basic_string<char, std::char_traits<char>, std::allocator<char> >, IEC61850_STRUCT::IED_61850> >, std::less<std::basic_string<char, std::char_traits<char>, std::allocator<char> > >, std::allocator<std::pair<const std::basic_string<char, std::char_traits<char>, std::allocator<char> >, IEC61850_STRUCT::IED_61850> > >::_M_clone_node
FUNC 34895 12 0 std::_Rb_tree<std::basic_string<char, std::char_traits<char>, std::allocator<char> >, std::pair<const std::basic_string<char, std::char_traits<char>, std::allocator<char> >, IEC61850_STRUCT::IED_61850>, std::_Select1st<std::pair<const std::basic_string<char, std::char_traits<char>, std::allocator<char> >, IEC61850_STRUCT::IED_61850> >, std::less<std::basic_string<char, std::char_traits<char>, std::allocator<char> > >, std::allocator<std::pair<const std::basic_string<char, std::char_traits<char>, std::allocator<char> >, IEC61850_STRUCT::IED_61850> > >::_S_right
FUNC 348a7 12 0 std::_Rb_tree<std::basic_string<char, std::char_traits<char>, std::allocator<char> >, std::pair<const std::basic_string<char, std::char_traits<char>, std::allocator<char> >, IEC61850_STRUCT::IED_61850>, std::_Select1st<std::pair<const std::basic_string<char, std::char_traits<char>, std::allocator<char> >, IEC61850_STRUCT::IED_61850> >, std::less<std::basic_string<char, std::char_traits<char>, std::allocator<char> > >, std::allocator<std::pair<const std::basic_string<char, std::char_traits<char>, std::allocator<char> >, IEC61850_STRUCT::IED_61850> > >::_S_left
FUNC 348ba 25 0 std::allocator<std::_Rb_tree_node<std::pair<const std::basic_string<char, std::char_traits<char>, std::allocator<char> >, IEC103::stConfigParam> > >::allocator
FUNC 348e0 55 0 std::_Rb_tree<std::basic_string<char, std::char_traits<char>, std::allocator<char> >, std::pair<const std::basic_string<char, std::char_traits<char>, std::allocator<char> >, IEC103::stConfigParam>, std::_Select1st<std::pair<const std::basic_string<char, std::char_traits<char>, std::allocator<char> >, IEC103::stConfigParam> >, std::less<std::basic_string<char, std::char_traits<char>, std::allocator<char> > >, std::allocator<std::pair<const std::basic_string<char, std::char_traits<char>, std::allocator<char> >, IEC103::stConfigParam> > >::_M_clone_node
FUNC 34935 12 0 std::_Rb_tree<std::basic_string<char, std::char_traits<char>, std::allocator<char> >, std::pair<const std::basic_string<char, std::char_traits<char>, std::allocator<char> >, IEC103::stConfigParam>, std::_Select1st<std::pair<const std::basic_string<char, std::char_traits<char>, std::allocator<char> >, IEC103::stConfigParam> >, std::less<std::basic_string<char, std::char_traits<char>, std::allocator<char> > >, std::allocator<std::pair<const std::basic_string<char, std::char_traits<char>, std::allocator<char> >, IEC103::stConfigParam> > >::_S_right
FUNC 34947 12 0 std::_Rb_tree<std::basic_string<char, std::char_traits<char>, std::allocator<char> >, std::pair<const std::basic_string<char, std::char_traits<char>, std::allocator<char> >, IEC103::stConfigParam>, std::_Select1st<std::pair<const std::basic_string<char, std::char_traits<char>, std::allocator<char> >, IEC103::stConfigParam> >, std::less<std::basic_string<char, std::char_traits<char>, std::allocator<char> > >, std::allocator<std::pair<const std::basic_string<char, std::char_traits<char>, std::allocator<char> >, IEC103::stConfigParam> > >::_S_left
FUNC 3495a 25 0 std::allocator<std::_Rb_tree_node<std::pair<const std::basic_string<char, std::char_traits<char>, std::allocator<char> >, std::map<std::basic_string<char, std::char_traits<char>, std::allocator<char> >, std::basic_string<char, std::char_traits<char>, std::allocator<char> >, std::less<std::basic_string<char, std::char_traits<char>, std::allocator<char> > >, std::allocator<std::pair<const std::basic_string<char, std::char_traits<char>, std::allocator<char> >, std::basic_string<char, std::char_traits<char>, std::allocator<char> > > > > > > >::allocator
FUNC 34980 55 0 std::_Rb_tree<std::basic_string<char, std::char_traits<char>, std::allocator<char> >, std::pair<const std::basic_string<char, std::char_traits<char>, std::allocator<char> >, std::map<std::basic_string<char, std::char_traits<char>, std::allocator<char> >, std::basic_string<char, std::char_traits<char>, std::allocator<char> >, std::less<std::basic_string<char, std::char_traits<char>, std::allocator<char> > >, std::allocator<std::pair<const std::basic_string<char, std::char_traits<char>, std::allocator<char> >, std::basic_string<char, std::char_traits<char>, std::allocator<char> > > > > >, std::_Select1st<std::pair<const std::basic_string<char, std::char_traits<char>, std::allocator<char> >, std::map<std::basic_string<char, std::char_traits<char>, std::allocator<char> >, std::basic_string<char, std::char_traits<char>, std::allocator<char> >, std::less<std::basic_string<char, std::char_traits<char>, std::allocator<char> > >, std::allocator<std::pair<const std::basic_string<char, std::char_traits<char>, std::allocator<char> >, std::basic_string<char, std::char_traits<char>, std::allocator<char> > > > > > >, std::less<std::basic_string<char, std::char_traits<char>, std::allocator<char> > >, std::allocator<std::pair<const std::basic_string<char, std::char_traits<char>, std::allocator<char> >, std::map<std::basic_string<char, std::char_traits<char>, std::allocator<char> >, std::basic_string<char, std::char_traits<char>, std::allocator<char> >, std::less<std::basic_string<char, std::char_traits<char>, std::allocator<char> > >, std::allocator<std::pair<const std::basic_string<char, std::char_traits<char>, std::allocator<char> >, std::basic_string<char, std::char_traits<char>, std::allocator<char> > > > > > > >::_M_clone_node
FUNC 349d5 12 0 std::_Rb_tree<std::basic_string<char, std::char_traits<char>, std::allocator<char> >, std::pair<const std::basic_string<char, std::char_traits<char>, std::allocator<char> >, std::map<std::basic_string<char, std::char_traits<char>, std::allocator<char> >, std::basic_string<char, std::char_traits<char>, std::allocator<char> >, std::less<std::basic_string<char, std::char_traits<char>, std::allocator<char> > >, std::allocator<std::pair<const std::basic_string<char, std::char_traits<char>, std::allocator<char> >, std::basic_string<char, std::char_traits<char>, std::allocator<char> > > > > >, std::_Select1st<std::pair<const std::basic_string<char, std::char_traits<char>, std::allocator<char> >, std::map<std::basic_string<char, std::char_traits<char>, std::allocator<char> >, std::basic_string<char, std::char_traits<char>, std::allocator<char> >, std::less<std::basic_string<char, std::char_traits<char>, std::allocator<char> > >, std::allocator<std::pair<const std::basic_string<char, std::char_traits<char>, std::allocator<char> >, std::basic_string<char, std::char_traits<char>, std::allocator<char> > > > > > >, std::less<std::basic_string<char, std::char_traits<char>, std::allocator<char> > >, std::allocator<std::pair<const std::basic_string<char, std::char_traits<char>, std::allocator<char> >, std::map<std::basic_string<char, std::char_traits<char>, std::allocator<char> >, std::basic_string<char, std::char_traits<char>, std::allocator<char> >, std::less<std::basic_string<char, std::char_traits<char>, std::allocator<char> > >, std::allocator<std::pair<const std::basic_string<char, std::char_traits<char>, std::allocator<char> >, std::basic_string<char, std::char_traits<char>, std::allocator<char> > > > > > > >::_S_right
FUNC 349e7 12 0 std::_Rb_tree<std::basic_string<char, std::char_traits<char>, std::allocator<char> >, std::pair<const std::basic_string<char, std::char_traits<char>, std::allocator<char> >, std::map<std::basic_string<char, std::char_traits<char>, std::allocator<char> >, std::basic_string<char, std::char_traits<char>, std::allocator<char> >, std::less<std::basic_string<char, std::char_traits<char>, std::allocator<char> > >, std::allocator<std::pair<const std::basic_string<char, std::char_traits<char>, std::allocator<char> >, std::basic_string<char, std::char_traits<char>, std::allocator<char> > > > > >, std::_Select1st<std::pair<const std::basic_string<char, std::char_traits<char>, std::allocator<char> >, std::map<std::basic_string<char, std::char_traits<char>, std::allocator<char> >, std::basic_string<char, std::char_traits<char>, std::allocator<char> >, std::less<std::basic_string<char, std::char_traits<char>, std::allocator<char> > >, std::allocator<std::pair<const std::basic_string<char, std::char_traits<char>, std::allocator<char> >, std::basic_string<char, std::char_traits<char>, std::allocator<char> > > > > > >, std::less<std::basic_string<char, std::char_traits<char>, std::allocator<char> > >, std::allocator<std::pair<const std::basic_string<char, std::char_traits<char>, std::allocator<char> >, std::map<std::basic_string<char, std::char_traits<char>, std::allocator<char> >, std::basic_string<char, std::char_traits<char>, std::allocator<char> >, std::less<std::basic_string<char, std::char_traits<char>, std::allocator<char> > >, std::allocator<std::pair<const std::basic_string<char, std::char_traits<char>, std::allocator<char> >, std::basic_string<char, std::char_traits<char>, std::allocator<char> > > > > > > >::_S_left
FUNC 349fa 25 0 std::allocator<std::_Rb_tree_node<std::pair<const std::basic_string<char, std::char_traits<char>, std::allocator<char> >, std::map<int, std::map<int, IEC104WF::stPointTable, std::less<int>, std::allocator<std::pair<const int, IEC104WF::stPointTable> > >, std::less<int>, std::allocator<std::pair<const int, std::map<int, IEC104WF::stPointTable, std::less<int>, std::allocator<std::pair<const int, IEC104WF::stPointTable> > > > > > > > >::allocator
FUNC 34a20 55 0 std::_Rb_tree<std::basic_string<char, std::char_traits<char>, std::allocator<char> >, std::pair<const std::basic_string<char, std::char_traits<char>, std::allocator<char> >, std::map<int, std::map<int, IEC104WF::stPointTable, std::less<int>, std::allocator<std::pair<const int, IEC104WF::stPointTable> > >, std::less<int>, std::allocator<std::pair<const int, std::map<int, IEC104WF::stPointTable, std::less<int>, std::allocator<std::pair<const int, IEC104WF::stPointTable> > > > > > >, std::_Select1st<std::pair<const std::basic_string<char, std::char_traits<char>, std::allocator<char> >, std::map<int, std::map<int, IEC104WF::stPointTable, std::less<int>, std::allocator<std::pair<const int, IEC104WF::stPointTable> > >, std::less<int>, std::allocator<std::pair<const int, std::map<int, IEC104WF::stPointTable, std::less<int>, std::allocator<std::pair<const int, IEC104WF::stPointTable> > > > > > > >, std::less<std::basic_string<char, std::char_traits<char>, std::allocator<char> > >, std::allocator<std::pair<const std::basic_string<char, std::char_traits<char>, std::allocator<char> >, std::map<int, std::map<int, IEC104WF::stPointTable, std::less<int>, std::allocator<std::pair<const int, IEC104WF::stPointTable> > >, std::less<int>, std::allocator<std::pair<const int, std::map<int, IEC104WF::stPointTable, std::less<int>, std::allocator<std::pair<const int, IEC104WF::stPointTable> > > > > > > > >::_M_clone_node
FUNC 34a75 12 0 std::_Rb_tree<std::basic_string<char, std::char_traits<char>, std::allocator<char> >, std::pair<const std::basic_string<char, std::char_traits<char>, std::allocator<char> >, std::map<int, std::map<int, IEC104WF::stPointTable, std::less<int>, std::allocator<std::pair<const int, IEC104WF::stPointTable> > >, std::less<int>, std::allocator<std::pair<const int, std::map<int, IEC104WF::stPointTable, std::less<int>, std::allocator<std::pair<const int, IEC104WF::stPointTable> > > > > > >, std::_Select1st<std::pair<const std::basic_string<char, std::char_traits<char>, std::allocator<char> >, std::map<int, std::map<int, IEC104WF::stPointTable, std::less<int>, std::allocator<std::pair<const int, IEC104WF::stPointTable> > >, std::less<int>, std::allocator<std::pair<const int, std::map<int, IEC104WF::stPointTable, std::less<int>, std::allocator<std::pair<const int, IEC104WF::stPointTable> > > > > > > >, std::less<std::basic_string<char, std::char_traits<char>, std::allocator<char> > >, std::allocator<std::pair<const std::basic_string<char, std::char_traits<char>, std::allocator<char> >, std::map<int, std::map<int, IEC104WF::stPointTable, std::less<int>, std::allocator<std::pair<const int, IEC104WF::stPointTable> > >, std::less<int>, std::allocator<std::pair<const int, std::map<int, IEC104WF::stPointTable, std::less<int>, std::allocator<std::pair<const int, IEC104WF::stPointTable> > > > > > > > >::_S_right
FUNC 34a87 12 0 std::_Rb_tree<std::basic_string<char, std::char_traits<char>, std::allocator<char> >, std::pair<const std::basic_string<char, std::char_traits<char>, std::allocator<char> >, std::map<int, std::map<int, IEC104WF::stPointTable, std::less<int>, std::allocator<std::pair<const int, IEC104WF::stPointTable> > >, std::less<int>, std::allocator<std::pair<const int, std::map<int, IEC104WF::stPointTable, std::less<int>, std::allocator<std::pair<const int, IEC104WF::stPointTable> > > > > > >, std::_Select1st<std::pair<const std::basic_string<char, std::char_traits<char>, std::allocator<char> >, std::map<int, std::map<int, IEC104WF::stPointTable, std::less<int>, std::allocator<std::pair<const int, IEC104WF::stPointTable> > >, std::less<int>, std::allocator<std::pair<const int, std::map<int, IEC104WF::stPointTable, std::less<int>, std::allocator<std::pair<const int, IEC104WF::stPointTable> > > > > > > >, std::less<std::basic_string<char, std::char_traits<char>, std::allocator<char> > >, std::allocator<std::pair<const std::basic_string<char, std::char_traits<char>, std::allocator<char> >, std::map<int, std::map<int, IEC104WF::stPointTable, std::less<int>, std::allocator<std::pair<const int, IEC104WF::stPointTable> > >, std::less<int>, std::allocator<std::pair<const int, std::map<int, IEC104WF::stPointTable, std::less<int>, std::allocator<std::pair<const int, IEC104WF::stPointTable> > > > > > > > >::_S_left
FUNC 34a9a a 0 __gnu_cxx::new_allocator<std::_List_node<std::basic_string<char, std::char_traits<char>, std::allocator<char> > > >::new_allocator
FUNC 34aa4 25 0 std::allocator<std::_List_node<std::basic_string<char, std::char_traits<char>, std::allocator<char> > > >::allocator
FUNC 34aca 92 0 std::_Rb_tree<std::basic_string<char, std::char_traits<char>, std::allocator<char> >, std::pair<const std::basic_string<char, std::char_traits<char>, std::allocator<char> >, IEC61850_STRUCT::IED_61850>, std::_Select1st<std::pair<const std::basic_string<char, std::char_traits<char>, std::allocator<char> >, IEC61850_STRUCT::IED_61850> >, std::less<std::basic_string<char, std::char_traits<char>, std::allocator<char> > >, std::allocator<std::pair<const std::basic_string<char, std::char_traits<char>, std::allocator<char> >, IEC61850_STRUCT::IED_61850> > >::_M_lower_bound
FUNC 34b5c 19 0 std::_Rb_tree_iterator<std::pair<const std::basic_string<char, std::char_traits<char>, std::allocator<char> >, IEC61850_STRUCT::IED_61850> >::_Rb_tree_iterator
FUNC 34b75 2c 0 std::_Rb_tree<std::basic_string<char, std::char_traits<char>, std::allocator<char> >, std::pair<const std::basic_string<char, std::char_traits<char>, std::allocator<char> >, IEC61850_STRUCT::IED_61850>, std::_Select1st<std::pair<const std::basic_string<char, std::char_traits<char>, std::allocator<char> >, IEC61850_STRUCT::IED_61850> >, std::less<std::basic_string<char, std::char_traits<char>, std::allocator<char> > >, std::allocator<std::pair<const std::basic_string<char, std::char_traits<char>, std::allocator<char> >, IEC61850_STRUCT::IED_61850> > >::_S_key
FUNC 34ba2 12 0 std::_Select1st<std::pair<const std::basic_string<char, std::char_traits<char>, std::allocator<char> >, IEC61850_STRUCT::IED_61850> >::operator()
FUNC 34bb4 12 0 std::_Rb_tree<std::basic_string<char, std::char_traits<char>, std::allocator<char> >, std::pair<const std::basic_string<char, std::char_traits<char>, std::allocator<char> >, IEC61850_STRUCT::IED_61850>, std::_Select1st<std::pair<const std::basic_string<char, std::char_traits<char>, std::allocator<char> >, IEC61850_STRUCT::IED_61850> >, std::less<std::basic_string<char, std::char_traits<char>, std::allocator<char> > >, std::allocator<std::pair<const std::basic_string<char, std::char_traits<char>, std::allocator<char> >, IEC61850_STRUCT::IED_61850> > >::size
FUNC 34bc6 e3 0 std::_Rb_tree<std::basic_string<char, std::char_traits<char>, std::allocator<char> >, std::pair<const std::basic_string<char, std::char_traits<char>, std::allocator<char> >, IEC61850_STRUCT::IED_61850>, std::_Select1st<std::pair<const std::basic_string<char, std::char_traits<char>, std::allocator<char> >, IEC61850_STRUCT::IED_61850> >, std::less<std::basic_string<char, std::char_traits<char>, std::allocator<char> > >, std::allocator<std::pair<const std::basic_string<char, std::char_traits<char>, std::allocator<char> >, IEC61850_STRUCT::IED_61850> > >::_M_insert_
FUNC 34caa 271 0 std::_Rb_tree<std::basic_string<char, std::char_traits<char>, std::allocator<char> >, std::pair<const std::basic_string<char, std::char_traits<char>, std::allocator<char> >, IEC61850_STRUCT::IED_61850>, std::_Select1st<std::pair<const std::basic_string<char, std::char_traits<char>, std::allocator<char> >, IEC61850_STRUCT::IED_61850> >, std::less<std::basic_string<char, std::char_traits<char>, std::allocator<char> > >, std::allocator<std::pair<const std::basic_string<char, std::char_traits<char>, std::allocator<char> >, IEC61850_STRUCT::IED_61850> > >::_M_insert_unique
FUNC 34f1c 28 0 std::_Rb_tree_const_iterator<std::pair<const std::basic_string<char, std::char_traits<char>, std::allocator<char> >, IEC61850_STRUCT::IED_61850> >::operator--
FUNC 34f44 28 0 std::_Rb_tree_const_iterator<std::pair<const std::basic_string<char, std::char_traits<char>, std::allocator<char> >, IEC61850_STRUCT::IED_61850> >::operator++
FUNC 34f6c 92 0 std::_Rb_tree<int, std::pair<const int, IEC104WF::stPointTable>, std::_Select1st<std::pair<const int, IEC104WF::stPointTable> >, std::less<int>, std::allocator<std::pair<const int, IEC104WF::stPointTable> > >::_M_lower_bound
FUNC 34ffe 19 0 std::_Rb_tree_iterator<std::pair<const int, IEC104WF::stPointTable> >::_Rb_tree_iterator
FUNC 35017 2c 0 std::_Rb_tree<int, std::pair<const int, IEC104WF::stPointTable>, std::_Select1st<std::pair<const int, IEC104WF::stPointTable> >, std::less<int>, std::allocator<std::pair<const int, IEC104WF::stPointTable> > >::_S_key
FUNC 35044 12 0 std::_Select1st<std::pair<const int, IEC104WF::stPointTable> >::operator()
FUNC 35056 12 0 std::_Rb_tree<int, std::pair<const int, IEC104WF::stPointTable>, std::_Select1st<std::pair<const int, IEC104WF::stPointTable> >, std::less<int>, std::allocator<std::pair<const int, IEC104WF::stPointTable> > >::size
FUNC 35068 e3 0 std::_Rb_tree<int, std::pair<const int, IEC104WF::stPointTable>, std::_Select1st<std::pair<const int, IEC104WF::stPointTable> >, std::less<int>, std::allocator<std::pair<const int, IEC104WF::stPointTable> > >::_M_insert_
FUNC 3514c 271 0 std::_Rb_tree<int, std::pair<const int, IEC104WF::stPointTable>, std::_Select1st<std::pair<const int, IEC104WF::stPointTable> >, std::less<int>, std::allocator<std::pair<const int, IEC104WF::stPointTable> > >::_M_insert_unique
FUNC 353be 28 0 std::_Rb_tree_const_iterator<std::pair<const int, IEC104WF::stPointTable> >::operator--
FUNC 353e6 12 0 std::_Rb_tree<int, std::pair<const int, IEC104WF::stPointTable>, std::_Select1st<std::pair<const int, IEC104WF::stPointTable> >, std::less<int>, std::allocator<std::pair<const int, IEC104WF::stPointTable> > >::_S_right
FUNC 353f8 28 0 std::_Rb_tree_const_iterator<std::pair<const int, IEC104WF::stPointTable> >::operator++
FUNC 35420 92 0 std::_Rb_tree<int, std::pair<const int, std::map<int, IEC104WF::stPointTable, std::less<int>, std::allocator<std::pair<const int, IEC104WF::stPointTable> > > >, std::_Select1st<std::pair<const int, std::map<int, IEC104WF::stPointTable, std::less<int>, std::allocator<std::pair<const int, IEC104WF::stPointTable> > > > >, std::less<int>, std::allocator<std::pair<const int, std::map<int, IEC104WF::stPointTable, std::less<int>, std::allocator<std::pair<const int, IEC104WF::stPointTable> > > > > >::_M_lower_bound
FUNC 354b2 19 0 std::_Rb_tree_iterator<std::pair<const int, std::map<int, IEC104WF::stPointTable, std::less<int>, std::allocator<std::pair<const int, IEC104WF::stPointTable> > > > >::_Rb_tree_iterator
FUNC 354cc 11d 0 std::_Rb_tree<int, std::pair<const int, IEC104WF::stPointTable>, std::_Select1st<std::pair<const int, IEC104WF::stPointTable> >, std::less<int>, std::allocator<std::pair<const int, IEC104WF::stPointTable> > >::_Rb_tree
FUNC 355e9 2c 0 std::_Rb_tree<int, std::pair<const int, std::map<int, IEC104WF::stPointTable, std::less<int>, std::allocator<std::pair<const int, IEC104WF::stPointTable> > > >, std::_Select1st<std::pair<const int, std::map<int, IEC104WF::stPointTable, std::less<int>, std::allocator<std::pair<const int, IEC104WF::stPointTable> > > > >, std::less<int>, std::allocator<std::pair<const int, std::map<int, IEC104WF::stPointTable, std::less<int>, std::allocator<std::pair<const int, IEC104WF::stPointTable> > > > > >::_S_key
FUNC 35616 12 0 std::_Select1st<std::pair<const int, std::map<int, IEC104WF::stPointTable, std::less<int>, std::allocator<std::pair<const int, IEC104WF::stPointTable> > > > >::operator()
FUNC 35628 12 0 std::_Rb_tree<int, std::pair<const int, std::map<int, IEC104WF::stPointTable, std::less<int>, std::allocator<std::pair<const int, IEC104WF::stPointTable> > > >, std::_Select1st<std::pair<const int, std::map<int, IEC104WF::stPointTable, std::less<int>, std::allocator<std::pair<const int, IEC104WF::stPointTable> > > > >, std::less<int>, std::allocator<std::pair<const int, std::map<int, IEC104WF::stPointTable, std::less<int>, std::allocator<std::pair<const int, IEC104WF::stPointTable> > > > > >::size
FUNC 3563a e3 0 std::_Rb_tree<int, std::pair<const int, std::map<int, IEC104WF::stPointTable, std::less<int>, std::allocator<std::pair<const int, IEC104WF::stPointTable> > > >, std::_Select1st<std::pair<const int, std::map<int, IEC104WF::stPointTable, std::less<int>, std::allocator<std::pair<const int, IEC104WF::stPointTable> > > > >, std::less<int>, std::allocator<std::pair<const int, std::map<int, IEC104WF::stPointTable, std::less<int>, std::allocator<std::pair<const int, IEC104WF::stPointTable> > > > > >::_M_insert_
FUNC 3571e 271 0 std::_Rb_tree<int, std::pair<const int, std::map<int, IEC104WF::stPointTable, std::less<int>, std::allocator<std::pair<const int, IEC104WF::stPointTable> > > >, std::_Select1st<std::pair<const int, std::map<int, IEC104WF::stPointTable, std::less<int>, std::allocator<std::pair<const int, IEC104WF::stPointTable> > > > >, std::less<int>, std::allocator<std::pair<const int, std::map<int, IEC104WF::stPointTable, std::less<int>, std::allocator<std::pair<const int, IEC104WF::stPointTable> > > > > >::_M_insert_unique
FUNC 35990 28 0 std::_Rb_tree_const_iterator<std::pair<const int, std::map<int, IEC104WF::stPointTable, std::less<int>, std::allocator<std::pair<const int, IEC104WF::stPointTable> > > > >::operator--
FUNC 359b8 12 0 std::_Rb_tree<int, std::pair<const int, std::map<int, IEC104WF::stPointTable, std::less<int>, std::allocator<std::pair<const int, IEC104WF::stPointTable> > > >, std::_Select1st<std::pair<const int, std::map<int, IEC104WF::stPointTable, std::less<int>, std::allocator<std::pair<const int, IEC104WF::stPointTable> > > > >, std::less<int>, std::allocator<std::pair<const int, std::map<int, IEC104WF::stPointTable, std::less<int>, std::allocator<std::pair<const int, IEC104WF::stPointTable> > > > > >::_S_right
FUNC 359ca 28 0 std::_Rb_tree_const_iterator<std::pair<const int, std::map<int, IEC104WF::stPointTable, std::less<int>, std::allocator<std::pair<const int, IEC104WF::stPointTable> > > > >::operator++
FUNC 359f2 55 0 std::_Rb_tree<int, std::pair<const int, IEC104WF::stPointTable>, std::_Select1st<std::pair<const int, IEC104WF::stPointTable> >, std::less<int>, std::allocator<std::pair<const int, IEC104WF::stPointTable> > >::_M_clone_node
FUNC 35a47 12 0 std::_Rb_tree<int, std::pair<const int, IEC104WF::stPointTable>, std::_Select1st<std::pair<const int, IEC104WF::stPointTable> >, std::less<int>, std::allocator<std::pair<const int, IEC104WF::stPointTable> > >::_S_left
FUNC 35a5a 92 0 std::_Rb_tree<std::basic_string<char, std::char_traits<char>, std::allocator<char> >, std::pair<const std::basic_string<char, std::char_traits<char>, std::allocator<char> >, std::map<int, std::map<int, IEC104WF::stPointTable, std::less<int>, std::allocator<std::pair<const int, IEC104WF::stPointTable> > >, std::less<int>, std::allocator<std::pair<const int, std::map<int, IEC104WF::stPointTable, std::less<int>, std::allocator<std::pair<const int, IEC104WF::stPointTable> > > > > > >, std::_Select1st<std::pair<const std::basic_string<char, std::char_traits<char>, std::allocator<char> >, std::map<int, std::map<int, IEC104WF::stPointTable, std::less<int>, std::allocator<std::pair<const int, IEC104WF::stPointTable> > >, std::less<int>, std::allocator<std::pair<const int, std::map<int, IEC104WF::stPointTable, std::less<int>, std::allocator<std::pair<const int, IEC104WF::stPointTable> > > > > > > >, std::less<std::basic_string<char, std::char_traits<char>, std::allocator<char> > >, std::allocator<std::pair<const std::basic_string<char, std::char_traits<char>, std::allocator<char> >, std::map<int, std::map<int, IEC104WF::stPointTable, std::less<int>, std::allocator<std::pair<const int, IEC104WF::stPointTable> > >, std::less<int>, std::allocator<std::pair<const int, std::map<int, IEC104WF::stPointTable, std::less<int>, std::allocator<std::pair<const int, IEC104WF::stPointTable> > > > > > > > >::_M_lower_bound
FUNC 35aec 19 0 std::_Rb_tree_iterator<std::pair<const std::basic_string<char, std::char_traits<char>, std::allocator<char> >, std::map<int, std::map<int, IEC104WF::stPointTable, std::less<int>, std::allocator<std::pair<const int, IEC104WF::stPointTable> > >, std::less<int>, std::allocator<std::pair<const int, std::map<int, IEC104WF::stPointTable, std::less<int>, std::allocator<std::pair<const int, IEC104WF::stPointTable> > > > > > > >::_Rb_tree_iterator
FUNC 35b06 11d 0 std::_Rb_tree<int, std::pair<const int, std::map<int, IEC104WF::stPointTable, std::less<int>, std::allocator<std::pair<const int, IEC104WF::stPointTable> > > >, std::_Select1st<std::pair<const int, std::map<int, IEC104WF::stPointTable, std::less<int>, std::allocator<std::pair<const int, IEC104WF::stPointTable> > > > >, std::less<int>, std::allocator<std::pair<const int, std::map<int, IEC104WF::stPointTable, std::less<int>, std::allocator<std::pair<const int, IEC104WF::stPointTable> > > > > >::_Rb_tree
FUNC 35c23 2c 0 std::_Rb_tree<std::basic_string<char, std::char_traits<char>, std::allocator<char> >, std::pair<const std::basic_string<char, std::char_traits<char>, std::allocator<char> >, std::map<int, std::map<int, IEC104WF::stPointTable, std::less<int>, std::allocator<std::pair<const int, IEC104WF::stPointTable> > >, std::less<int>, std::allocator<std::pair<const int, std::map<int, IEC104WF::stPointTable, std::less<int>, std::allocator<std::pair<const int, IEC104WF::stPointTable> > > > > > >, std::_Select1st<std::pair<const std::basic_string<char, std::char_traits<char>, std::allocator<char> >, std::map<int, std::map<int, IEC104WF::stPointTable, std::less<int>, std::allocator<std::pair<const int, IEC104WF::stPointTable> > >, std::less<int>, std::allocator<std::pair<const int, std::map<int, IEC104WF::stPointTable, std::less<int>, std::allocator<std::pair<const int, IEC104WF::stPointTable> > > > > > > >, std::less<std::basic_string<char, std::char_traits<char>, std::allocator<char> > >, std::allocator<std::pair<const std::basic_string<char, std::char_traits<char>, std::allocator<char> >, std::map<int, std::map<int, IEC104WF::stPointTable, std::less<int>, std::allocator<std::pair<const int, IEC104WF::stPointTable> > >, std::less<int>, std::allocator<std::pair<const int, std::map<int, IEC104WF::stPointTable, std::less<int>, std::allocator<std::pair<const int, IEC104WF::stPointTable> > > > > > > > >::_S_key
FUNC 35c50 12 0 std::_Select1st<std::pair<const std::basic_string<char, std::char_traits<char>, std::allocator<char> >, std::map<int, std::map<int, IEC104WF::stPointTable, std::less<int>, std::allocator<std::pair<const int, IEC104WF::stPointTable> > >, std::less<int>, std::allocator<std::pair<const int, std::map<int, IEC104WF::stPointTable, std::less<int>, std::allocator<std::pair<const int, IEC104WF::stPointTable> > > > > > > >::operator()
FUNC 35c62 12 0 std::_Rb_tree<std::basic_string<char, std::char_traits<char>, std::allocator<char> >, std::pair<const std::basic_string<char, std::char_traits<char>, std::allocator<char> >, std::map<int, std::map<int, IEC104WF::stPointTable, std::less<int>, std::allocator<std::pair<const int, IEC104WF::stPointTable> > >, std::less<int>, std::allocator<std::pair<const int, std::map<int, IEC104WF::stPointTable, std::less<int>, std::allocator<std::pair<const int, IEC104WF::stPointTable> > > > > > >, std::_Select1st<std::pair<const std::basic_string<char, std::char_traits<char>, std::allocator<char> >, std::map<int, std::map<int, IEC104WF::stPointTable, std::less<int>, std::allocator<std::pair<const int, IEC104WF::stPointTable> > >, std::less<int>, std::allocator<std::pair<const int, std::map<int, IEC104WF::stPointTable, std::less<int>, std::allocator<std::pair<const int, IEC104WF::stPointTable> > > > > > > >, std::less<std::basic_string<char, std::char_traits<char>, std::allocator<char> > >, std::allocator<std::pair<const std::basic_string<char, std::char_traits<char>, std::allocator<char> >, std::map<int, std::map<int, IEC104WF::stPointTable, std::less<int>, std::allocator<std::pair<const int, IEC104WF::stPointTable> > >, std::less<int>, std::allocator<std::pair<const int, std::map<int, IEC104WF::stPointTable, std::less<int>, std::allocator<std::pair<const int, IEC104WF::stPointTable> > > > > > > > >::size
FUNC 35c74 e3 0 std::_Rb_tree<std::basic_string<char, std::char_traits<char>, std::allocator<char> >, std::pair<const std::basic_string<char, std::char_traits<char>, std::allocator<char> >, std::map<int, std::map<int, IEC104WF::stPointTable, std::less<int>, std::allocator<std::pair<const int, IEC104WF::stPointTable> > >, std::less<int>, std::allocator<std::pair<const int, std::map<int, IEC104WF::stPointTable, std::less<int>, std::allocator<std::pair<const int, IEC104WF::stPointTable> > > > > > >, std::_Select1st<std::pair<const std::basic_string<char, std::char_traits<char>, std::allocator<char> >, std::map<int, std::map<int, IEC104WF::stPointTable, std::less<int>, std::allocator<std::pair<const int, IEC104WF::stPointTable> > >, std::less<int>, std::allocator<std::pair<const int, std::map<int, IEC104WF::stPointTable, std::less<int>, std::allocator<std::pair<const int, IEC104WF::stPointTable> > > > > > > >, std::less<std::basic_string<char, std::char_traits<char>, std::allocator<char> > >, std::allocator<std::pair<const std::basic_string<char, std::char_traits<char>, std::allocator<char> >, std::map<int, std::map<int, IEC104WF::stPointTable, std::less<int>, std::allocator<std::pair<const int, IEC104WF::stPointTable> > >, std::less<int>, std::allocator<std::pair<const int, std::map<int, IEC104WF::stPointTable, std::less<int>, std::allocator<std::pair<const int, IEC104WF::stPointTable> > > > > > > > >::_M_insert_
FUNC 35d58 271 0 std::_Rb_tree<std::basic_string<char, std::char_traits<char>, std::allocator<char> >, std::pair<const std::basic_string<char, std::char_traits<char>, std::allocator<char> >, std::map<int, std::map<int, IEC104WF::stPointTable, std::less<int>, std::allocator<std::pair<const int, IEC104WF::stPointTable> > >, std::less<int>, std::allocator<std::pair<const int, std::map<int, IEC104WF::stPointTable, std::less<int>, std::allocator<std::pair<const int, IEC104WF::stPointTable> > > > > > >, std::_Select1st<std::pair<const std::basic_string<char, std::char_traits<char>, std::allocator<char> >, std::map<int, std::map<int, IEC104WF::stPointTable, std::less<int>, std::allocator<std::pair<const int, IEC104WF::stPointTable> > >, std::less<int>, std::allocator<std::pair<const int, std::map<int, IEC104WF::stPointTable, std::less<int>, std::allocator<std::pair<const int, IEC104WF::stPointTable> > > > > > > >, std::less<std::basic_string<char, std::char_traits<char>, std::allocator<char> > >, std::allocator<std::pair<const std::basic_string<char, std::char_traits<char>, std::allocator<char> >, std::map<int, std::map<int, IEC104WF::stPointTable, std::less<int>, std::allocator<std::pair<const int, IEC104WF::stPointTable> > >, std::less<int>, std::allocator<std::pair<const int, std::map<int, IEC104WF::stPointTable, std::less<int>, std::allocator<std::pair<const int, IEC104WF::stPointTable> > > > > > > > >::_M_insert_unique
FUNC 35fca 28 0 std::_Rb_tree_const_iterator<std::pair<const std::basic_string<char, std::char_traits<char>, std::allocator<char> >, std::map<int, std::map<int, IEC104WF::stPointTable, std::less<int>, std::allocator<std::pair<const int, IEC104WF::stPointTable> > >, std::less<int>, std::allocator<std::pair<const int, std::map<int, IEC104WF::stPointTable, std::less<int>, std::allocator<std::pair<const int, IEC104WF::stPointTable> > > > > > > >::operator--
FUNC 35ff2 28 0 std::_Rb_tree_const_iterator<std::pair<const std::basic_string<char, std::char_traits<char>, std::allocator<char> >, std::map<int, std::map<int, IEC104WF::stPointTable, std::less<int>, std::allocator<std::pair<const int, IEC104WF::stPointTable> > >, std::less<int>, std::allocator<std::pair<const int, std::map<int, IEC104WF::stPointTable, std::less<int>, std::allocator<std::pair<const int, IEC104WF::stPointTable> > > > > > > >::operator++
FUNC 3601a 55 0 std::_Rb_tree<int, std::pair<const int, std::map<int, IEC104WF::stPointTable, std::less<int>, std::allocator<std::pair<const int, IEC104WF::stPointTable> > > >, std::_Select1st<std::pair<const int, std::map<int, IEC104WF::stPointTable, std::less<int>, std::allocator<std::pair<const int, IEC104WF::stPointTable> > > > >, std::less<int>, std::allocator<std::pair<const int, std::map<int, IEC104WF::stPointTable, std::less<int>, std::allocator<std::pair<const int, IEC104WF::stPointTable> > > > > >::_M_clone_node
FUNC 3606f 12 0 std::_Rb_tree<int, std::pair<const int, std::map<int, IEC104WF::stPointTable, std::less<int>, std::allocator<std::pair<const int, IEC104WF::stPointTable> > > >, std::_Select1st<std::pair<const int, std::map<int, IEC104WF::stPointTable, std::less<int>, std::allocator<std::pair<const int, IEC104WF::stPointTable> > > > >, std::less<int>, std::allocator<std::pair<const int, std::map<int, IEC104WF::stPointTable, std::less<int>, std::allocator<std::pair<const int, IEC104WF::stPointTable> > > > > >::_S_left
FUNC 36082 92 0 std::_Rb_tree<std::basic_string<char, std::char_traits<char>, std::allocator<char> >, std::pair<const std::basic_string<char, std::char_traits<char>, std::allocator<char> >, IEC103::stConfigParam>, std::_Select1st<std::pair<const std::basic_string<char, std::char_traits<char>, std::allocator<char> >, IEC103::stConfigParam> >, std::less<std::basic_string<char, std::char_traits<char>, std::allocator<char> > >, std::allocator<std::pair<const std::basic_string<char, std::char_traits<char>, std::allocator<char> >, IEC103::stConfigParam> > >::_M_lower_bound
FUNC 36114 2c 0 std::_Rb_tree<std::basic_string<char, std::char_traits<char>, std::allocator<char> >, std::pair<const std::basic_string<char, std::char_traits<char>, std::allocator<char> >, IEC103::stConfigParam>, std::_Select1st<std::pair<const std::basic_string<char, std::char_traits<char>, std::allocator<char> >, IEC103::stConfigParam> >, std::less<std::basic_string<char, std::char_traits<char>, std::allocator<char> > >, std::allocator<std::pair<const std::basic_string<char, std::char_traits<char>, std::allocator<char> >, IEC103::stConfigParam> > >::_S_key
FUNC 36140 12 0 std::_Select1st<std::pair<const std::basic_string<char, std::char_traits<char>, std::allocator<char> >, IEC103::stConfigParam> >::operator()
FUNC 36152 e3 0 std::_Rb_tree<std::basic_string<char, std::char_traits<char>, std::allocator<char> >, std::pair<const std::basic_string<char, std::char_traits<char>, std::allocator<char> >, IEC103::stConfigParam>, std::_Select1st<std::pair<const std::basic_string<char, std::char_traits<char>, std::allocator<char> >, IEC103::stConfigParam> >, std::less<std::basic_string<char, std::char_traits<char>, std::allocator<char> > >, std::allocator<std::pair<const std::basic_string<char, std::char_traits<char>, std::allocator<char> >, IEC103::stConfigParam> > >::_M_insert_
FUNC 36236 271 0 std::_Rb_tree<std::basic_string<char, std::char_traits<char>, std::allocator<char> >, std::pair<const std::basic_string<char, std::char_traits<char>, std::allocator<char> >, IEC103::stConfigParam>, std::_Select1st<std::pair<const std::basic_string<char, std::char_traits<char>, std::allocator<char> >, IEC103::stConfigParam> >, std::less<std::basic_string<char, std::char_traits<char>, std::allocator<char> > >, std::allocator<std::pair<const std::basic_string<char, std::char_traits<char>, std::allocator<char> >, IEC103::stConfigParam> > >::_M_insert_unique
FUNC 364a8 28 0 std::_Rb_tree_const_iterator<std::pair<const std::basic_string<char, std::char_traits<char>, std::allocator<char> >, IEC103::stConfigParam> >::operator--
FUNC 364d0 28 0 std::_Rb_tree_const_iterator<std::pair<const std::basic_string<char, std::char_traits<char>, std::allocator<char> >, IEC103::stConfigParam> >::operator++
FUNC 364f8 92 0 std::_Rb_tree<std::basic_string<char, std::char_traits<char>, std::allocator<char> >, std::pair<const std::basic_string<char, std::char_traits<char>, std::allocator<char> >, std::map<std::basic_string<char, std::char_traits<char>, std::allocator<char> >, std::basic_string<char, std::char_traits<char>, std::allocator<char> >, std::less<std::basic_string<char, std::char_traits<char>, std::allocator<char> > >, std::allocator<std::pair<const std::basic_string<char, std::char_traits<char>, std::allocator<char> >, std::basic_string<char, std::char_traits<char>, std::allocator<char> > > > > >, std::_Select1st<std::pair<const std::basic_string<char, std::char_traits<char>, std::allocator<char> >, std::map<std::basic_string<char, std::char_traits<char>, std::allocator<char> >, std::basic_string<char, std::char_traits<char>, std::allocator<char> >, std::less<std::basic_string<char, std::char_traits<char>, std::allocator<char> > >, std::allocator<std::pair<const std::basic_string<char, std::char_traits<char>, std::allocator<char> >, std::basic_string<char, std::char_traits<char>, std::allocator<char> > > > > > >, std::less<std::basic_string<char, std::char_traits<char>, std::allocator<char> > >, std::allocator<std::pair<const std::basic_string<char, std::char_traits<char>, std::allocator<char> >, std::map<std::basic_string<char, std::char_traits<char>, std::allocator<char> >, std::basic_string<char, std::char_traits<char>, std::allocator<char> >, std::less<std::basic_string<char, std::char_traits<char>, std::allocator<char> > >, std::allocator<std::pair<const std::basic_string<char, std::char_traits<char>, std::allocator<char> >, std::basic_string<char, std::char_traits<char>, std::allocator<char> > > > > > > >::_M_lower_bound
FUNC 3658a 2c 0 std::_Rb_tree<std::basic_string<char, std::char_traits<char>, std::allocator<char> >, std::pair<const std::basic_string<char, std::char_traits<char>, std::allocator<char> >, std::map<std::basic_string<char, std::char_traits<char>, std::allocator<char> >, std::basic_string<char, std::char_traits<char>, std::allocator<char> >, std::less<std::basic_string<char, std::char_traits<char>, std::allocator<char> > >, std::allocator<std::pair<const std::basic_string<char, std::char_traits<char>, std::allocator<char> >, std::basic_string<char, std::char_traits<char>, std::allocator<char> > > > > >, std::_Select1st<std::pair<const std::basic_string<char, std::char_traits<char>, std::allocator<char> >, std::map<std::basic_string<char, std::char_traits<char>, std::allocator<char> >, std::basic_string<char, std::char_traits<char>, std::allocator<char> >, std::less<std::basic_string<char, std::char_traits<char>, std::allocator<char> > >, std::allocator<std::pair<const std::basic_string<char, std::char_traits<char>, std::allocator<char> >, std::basic_string<char, std::char_traits<char>, std::allocator<char> > > > > > >, std::less<std::basic_string<char, std::char_traits<char>, std::allocator<char> > >, std::allocator<std::pair<const std::basic_string<char, std::char_traits<char>, std::allocator<char> >, std::map<std::basic_string<char, std::char_traits<char>, std::allocator<char> >, std::basic_string<char, std::char_traits<char>, std::allocator<char> >, std::less<std::basic_string<char, std::char_traits<char>, std::allocator<char> > >, std::allocator<std::pair<const std::basic_string<char, std::char_traits<char>, std::allocator<char> >, std::basic_string<char, std::char_traits<char>, std::allocator<char> > > > > > > >::_S_key
FUNC 365b6 12 0 std::_Select1st<std::pair<const std::basic_string<char, std::char_traits<char>, std::allocator<char> >, std::map<std::basic_string<char, std::char_traits<char>, std::allocator<char> >, std::basic_string<char, std::char_traits<char>, std::allocator<char> >, std::less<std::basic_string<char, std::char_traits<char>, std::allocator<char> > >, std::allocator<std::pair<const std::basic_string<char, std::char_traits<char>, std::allocator<char> >, std::basic_string<char, std::char_traits<char>, std::allocator<char> > > > > > >::operator()
FUNC 365c8 12 0 std::_Rb_tree<std::basic_string<char, std::char_traits<char>, std::allocator<char> >, std::pair<const std::basic_string<char, std::char_traits<char>, std::allocator<char> >, std::map<std::basic_string<char, std::char_traits<char>, std::allocator<char> >, std::basic_string<char, std::char_traits<char>, std::allocator<char> >, std::less<std::basic_string<char, std::char_traits<char>, std::allocator<char> > >, std::allocator<std::pair<const std::basic_string<char, std::char_traits<char>, std::allocator<char> >, std::basic_string<char, std::char_traits<char>, std::allocator<char> > > > > >, std::_Select1st<std::pair<const std::basic_string<char, std::char_traits<char>, std::allocator<char> >, std::map<std::basic_string<char, std::char_traits<char>, std::allocator<char> >, std::basic_string<char, std::char_traits<char>, std::allocator<char> >, std::less<std::basic_string<char, std::char_traits<char>, std::allocator<char> > >, std::allocator<std::pair<const std::basic_string<char, std::char_traits<char>, std::allocator<char> >, std::basic_string<char, std::char_traits<char>, std::allocator<char> > > > > > >, std::less<std::basic_string<char, std::char_traits<char>, std::allocator<char> > >, std::allocator<std::pair<const std::basic_string<char, std::char_traits<char>, std::allocator<char> >, std::map<std::basic_string<char, std::char_traits<char>, std::allocator<char> >, std::basic_string<char, std::char_traits<char>, std::allocator<char> >, std::less<std::basic_string<char, std::char_traits<char>, std::allocator<char> > >, std::allocator<std::pair<const std::basic_string<char, std::char_traits<char>, std::allocator<char> >, std::basic_string<char, std::char_traits<char>, std::allocator<char> > > > > > > >::size
FUNC 365da e3 0 std::_Rb_tree<std::basic_string<char, std::char_traits<char>, std::allocator<char> >, std::pair<const std::basic_string<char, std::char_traits<char>, std::allocator<char> >, std::map<std::basic_string<char, std::char_traits<char>, std::allocator<char> >, std::basic_string<char, std::char_traits<char>, std::allocator<char> >, std::less<std::basic_string<char, std::char_traits<char>, std::allocator<char> > >, std::allocator<std::pair<const std::basic_string<char, std::char_traits<char>, std::allocator<char> >, std::basic_string<char, std::char_traits<char>, std::allocator<char> > > > > >, std::_Select1st<std::pair<const std::basic_string<char, std::char_traits<char>, std::allocator<char> >, std::map<std::basic_string<char, std::char_traits<char>, std::allocator<char> >, std::basic_string<char, std::char_traits<char>, std::allocator<char> >, std::less<std::basic_string<char, std::char_traits<char>, std::allocator<char> > >, std::allocator<std::pair<const std::basic_string<char, std::char_traits<char>, std::allocator<char> >, std::basic_string<char, std::char_traits<char>, std::allocator<char> > > > > > >, std::less<std::basic_string<char, std::char_traits<char>, std::allocator<char> > >, std::allocator<std::pair<const std::basic_string<char, std::char_traits<char>, std::allocator<char> >, std::map<std::basic_string<char, std::char_traits<char>, std::allocator<char> >, std::basic_string<char, std::char_traits<char>, std::allocator<char> >, std::less<std::basic_string<char, std::char_traits<char>, std::allocator<char> > >, std::allocator<std::pair<const std::basic_string<char, std::char_traits<char>, std::allocator<char> >, std::basic_string<char, std::char_traits<char>, std::allocator<char> > > > > > > >::_M_insert_
FUNC 366be 271 0 std::_Rb_tree<std::basic_string<char, std::char_traits<char>, std::allocator<char> >, std::pair<const std::basic_string<char, std::char_traits<char>, std::allocator<char> >, std::map<std::basic_string<char, std::char_traits<char>, std::allocator<char> >, std::basic_string<char, std::char_traits<char>, std::allocator<char> >, std::less<std::basic_string<char, std::char_traits<char>, std::allocator<char> > >, std::allocator<std::pair<const std::basic_string<char, std::char_traits<char>, std::allocator<char> >, std::basic_string<char, std::char_traits<char>, std::allocator<char> > > > > >, std::_Select1st<std::pair<const std::basic_string<char, std::char_traits<char>, std::allocator<char> >, std::map<std::basic_string<char, std::char_traits<char>, std::allocator<char> >, std::basic_string<char, std::char_traits<char>, std::allocator<char> >, std::less<std::basic_string<char, std::char_traits<char>, std::allocator<char> > >, std::allocator<std::pair<const std::basic_string<char, std::char_traits<char>, std::allocator<char> >, std::basic_string<char, std::char_traits<char>, std::allocator<char> > > > > > >, std::less<std::basic_string<char, std::char_traits<char>, std::allocator<char> > >, std::allocator<std::pair<const std::basic_string<char, std::char_traits<char>, std::allocator<char> >, std::map<std::basic_string<char, std::char_traits<char>, std::allocator<char> >, std::basic_string<char, std::char_traits<char>, std::allocator<char> >, std::less<std::basic_string<char, std::char_traits<char>, std::allocator<char> > >, std::allocator<std::pair<const std::basic_string<char, std::char_traits<char>, std::allocator<char> >, std::basic_string<char, std::char_traits<char>, std::allocator<char> > > > > > > >::_M_insert_unique
FUNC 36930 28 0 std::_Rb_tree_const_iterator<std::pair<const std::basic_string<char, std::char_traits<char>, std::allocator<char> >, std::map<std::basic_string<char, std::char_traits<char>, std::allocator<char> >, std::basic_string<char, std::char_traits<char>, std::allocator<char> >, std::less<std::basic_string<char, std::char_traits<char>, std::allocator<char> > >, std::allocator<std::pair<const std::basic_string<char, std::char_traits<char>, std::allocator<char> >, std::basic_string<char, std::char_traits<char>, std::allocator<char> > > > > > >::operator--
FUNC 36958 28 0 std::_Rb_tree_const_iterator<std::pair<const std::basic_string<char, std::char_traits<char>, std::allocator<char> >, std::map<std::basic_string<char, std::char_traits<char>, std::allocator<char> >, std::basic_string<char, std::char_traits<char>, std::allocator<char> >, std::less<std::basic_string<char, std::char_traits<char>, std::allocator<char> > >, std::allocator<std::pair<const std::basic_string<char, std::char_traits<char>, std::allocator<char> >, std::basic_string<char, std::char_traits<char>, std::allocator<char> > > > > > >::operator++
FUNC 36980 24 0 std::_List_base<std::basic_string<char, std::char_traits<char>, std::allocator<char> >, std::allocator<std::basic_string<char, std::char_traits<char>, std::allocator<char> > > >::_M_get_node
FUNC 369a4 a 0 __gnu_cxx::new_allocator<std::_Rb_tree_node<std::pair<const std::basic_string<char, std::char_traits<char>, std::allocator<char> >, IEC61850_STRUCT::IED_61850> > >::new_allocator
FUNC 369ae 1e 0 std::allocator<std::pair<const std::basic_string<char, std::char_traits<char>, std::allocator<char> >, IEC61850_STRUCT::IED_61850> >::allocator<std::_Rb_tree_node<std::pair<const std::basic_string<char, std::char_traits<char>, std::allocator<char> >, IEC61850_STRUCT::IED_61850> > >
FUNC 369cc a 0 __gnu_cxx::new_allocator<std::pair<const std::basic_string<char, std::char_traits<char>, std::allocator<char> >, IEC61850_STRUCT::IED_61850> >::~new_allocator
FUNC 369d6 22 0 __gnu_cxx::new_allocator<std::_Rb_tree_node<std::pair<const std::basic_string<char, std::char_traits<char>, std::allocator<char> >, IEC61850_STRUCT::IED_61850> > >::deallocate
FUNC 369f8 e 0 __gnu_cxx::new_allocator<std::basic_string<char, std::char_traits<char>, std::allocator<char> > >::new_allocator
FUNC 36a06 a 0 __gnu_cxx::new_allocator<std::_Rb_tree_node<std::pair<const std::basic_string<char, std::char_traits<char>, std::allocator<char> >, std::map<int, std::map<int, IEC104WF::stPointTable, std::less<int>, std::allocator<std::pair<const int, IEC104WF::stPointTable> > >, std::less<int>, std::allocator<std::pair<const int, std::map<int, IEC104WF::stPointTable, std::less<int>, std::allocator<std::pair<const int, IEC104WF::stPointTable> > > > > > > > >::new_allocator
FUNC 36a10 1e 0 std::allocator<std::pair<const std::basic_string<char, std::char_traits<char>, std::allocator<char> >, std::map<int, std::map<int, IEC104WF::stPointTable, std::less<int>, std::allocator<std::pair<const int, IEC104WF::stPointTable> > >, std::less<int>, std::allocator<std::pair<const int, std::map<int, IEC104WF::stPointTable, std::less<int>, std::allocator<std::pair<const int, IEC104WF::stPointTable> > > > > > > >::allocator<std::_Rb_tree_node<std::pair<const std::basic_string<char, std::char_traits<char>, std::allocator<char> >, std::map<int, std::map<int, IEC104WF::stPointTable, std::less<int>, std::allocator<std::pair<const int, IEC104WF::stPointTable> > >, std::less<int>, std::allocator<std::pair<const int, std::map<int, IEC104WF::stPointTable, std::less<int>, std::allocator<std::pair<const int, IEC104WF::stPointTable> > > > > > > > >
FUNC 36a2e a 0 __gnu_cxx::new_allocator<std::pair<const std::basic_string<char, std::char_traits<char>, std::allocator<char> >, std::map<int, std::map<int, IEC104WF::stPointTable, std::less<int>, std::allocator<std::pair<const int, IEC104WF::stPointTable> > >, std::less<int>, std::allocator<std::pair<const int, std::map<int, IEC104WF::stPointTable, std::less<int>, std::allocator<std::pair<const int, IEC104WF::stPointTable> > > > > > > >::~new_allocator
FUNC 36a38 22 0 __gnu_cxx::new_allocator<std::_Rb_tree_node<std::pair<const std::basic_string<char, std::char_traits<char>, std::allocator<char> >, std::map<int, std::map<int, IEC104WF::stPointTable, std::less<int>, std::allocator<std::pair<const int, IEC104WF::stPointTable> > >, std::less<int>, std::allocator<std::pair<const int, std::map<int, IEC104WF::stPointTable, std::less<int>, std::allocator<std::pair<const int, IEC104WF::stPointTable> > > > > > > > >::deallocate
FUNC 36a5a a 0 __gnu_cxx::new_allocator<std::_Rb_tree_node<std::pair<const int, std::map<int, IEC104WF::stPointTable, std::less<int>, std::allocator<std::pair<const int, IEC104WF::stPointTable> > > > > >::new_allocator
FUNC 36a64 e 0 std::_Rb_tree<int, std::pair<const int, std::map<int, IEC104WF::stPointTable, std::less<int>, std::allocator<std::pair<const int, IEC104WF::stPointTable> > > >, std::_Select1st<std::pair<const int, std::map<int, IEC104WF::stPointTable, std::less<int>, std::allocator<std::pair<const int, IEC104WF::stPointTable> > > > >, std::less<int>, std::allocator<std::pair<const int, std::map<int, IEC104WF::stPointTable, std::less<int>, std::allocator<std::pair<const int, IEC104WF::stPointTable> > > > > >::_M_get_Node_allocator
FUNC 36a72 1e 0 std::allocator<std::pair<const int, std::map<int, IEC104WF::stPointTable, std::less<int>, std::allocator<std::pair<const int, IEC104WF::stPointTable> > > > >::allocator<std::_Rb_tree_node<std::pair<const int, std::map<int, IEC104WF::stPointTable, std::less<int>, std::allocator<std::pair<const int, IEC104WF::stPointTable> > > > > >
FUNC 36a90 a 0 __gnu_cxx::new_allocator<std::pair<const int, std::map<int, IEC104WF::stPointTable, std::less<int>, std::allocator<std::pair<const int, IEC104WF::stPointTable> > > > >::~new_allocator
FUNC 36a9a 22 0 __gnu_cxx::new_allocator<std::_Rb_tree_node<std::pair<const int, std::map<int, IEC104WF::stPointTable, std::less<int>, std::allocator<std::pair<const int, IEC104WF::stPointTable> > > > > >::deallocate
FUNC 36abc a 0 __gnu_cxx::new_allocator<std::_Rb_tree_node<std::pair<const int, IEC104WF::stPointTable> > >::new_allocator
FUNC 36ac6 e 0 std::_Rb_tree<int, std::pair<const int, IEC104WF::stPointTable>, std::_Select1st<std::pair<const int, IEC104WF::stPointTable> >, std::less<int>, std::allocator<std::pair<const int, IEC104WF::stPointTable> > >::_M_get_Node_allocator
FUNC 36ad4 1e 0 std::allocator<std::pair<const int, IEC104WF::stPointTable> >::allocator<std::_Rb_tree_node<std::pair<const int, IEC104WF::stPointTable> > >
FUNC 36af2 a 0 __gnu_cxx::new_allocator<std::pair<const int, IEC104WF::stPointTable> >::~new_allocator
FUNC 36afc 22 0 __gnu_cxx::new_allocator<std::_Rb_tree_node<std::pair<const int, IEC104WF::stPointTable> > >::deallocate
FUNC 36b1e a 0 __gnu_cxx::new_allocator<std::_Rb_tree_node<std::pair<const std::basic_string<char, std::char_traits<char>, std::allocator<char> >, IEC103::stConfigParam> > >::new_allocator
FUNC 36b28 a 0 __gnu_cxx::new_allocator<std::_Rb_tree_node<std::pair<const std::basic_string<char, std::char_traits<char>, std::allocator<char> >, std::map<std::basic_string<char, std::char_traits<char>, std::allocator<char> >, std::basic_string<char, std::char_traits<char>, std::allocator<char> >, std::less<std::basic_string<char, std::char_traits<char>, std::allocator<char> > >, std::allocator<std::pair<const std::basic_string<char, std::char_traits<char>, std::allocator<char> >, std::basic_string<char, std::char_traits<char>, std::allocator<char> > > > > > > >::new_allocator
FUNC 36b32 e 0 __gnu_cxx::new_allocator<std::_Rb_tree_node<std::pair<const std::basic_string<char, std::char_traits<char>, std::allocator<char> >, IEC61850_STRUCT::IED_61850> > >::new_allocator
FUNC 36b40 bb 0 std::_Rb_tree<std::basic_string<char, std::char_traits<char>, std::allocator<char> >, std::pair<const std::basic_string<char, std::char_traits<char>, std::allocator<char> >, IEC61850_STRUCT::IED_61850>, std::_Select1st<std::pair<const std::basic_string<char, std::char_traits<char>, std::allocator<char> >, IEC61850_STRUCT::IED_61850> >, std::less<std::basic_string<char, std::char_traits<char>, std::allocator<char> > >, std::allocator<std::pair<const std::basic_string<char, std::char_traits<char>, std::allocator<char> >, IEC61850_STRUCT::IED_61850> > >::_M_create_node
FUNC 36bfc e 0 __gnu_cxx::new_allocator<std::_Rb_tree_node<std::pair<const std::basic_string<char, std::char_traits<char>, std::allocator<char> >, IEC103::stConfigParam> > >::new_allocator
FUNC 36c0a bb 0 std::_Rb_tree<std::basic_string<char, std::char_traits<char>, std::allocator<char> >, std::pair<const std::basic_string<char, std::char_traits<char>, std::allocator<char> >, IEC103::stConfigParam>, std::_Select1st<std::pair<const std::basic_string<char, std::char_traits<char>, std::allocator<char> >, IEC103::stConfigParam> >, std::less<std::basic_string<char, std::char_traits<char>, std::allocator<char> > >, std::allocator<std::pair<const std::basic_string<char, std::char_traits<char>, std::allocator<char> >, IEC103::stConfigParam> > >::_M_create_node
FUNC 36cc6 e 0 __gnu_cxx::new_allocator<std::_Rb_tree_node<std::pair<const std::basic_string<char, std::char_traits<char>, std::allocator<char> >, std::map<std::basic_string<char, std::char_traits<char>, std::allocator<char> >, std::basic_string<char, std::char_traits<char>, std::allocator<char> >, std::less<std::basic_string<char, std::char_traits<char>, std::allocator<char> > >, std::allocator<std::pair<const std::basic_string<char, std::char_traits<char>, std::allocator<char> >, std::basic_string<char, std::char_traits<char>, std::allocator<char> > > > > > > >::new_allocator
FUNC 36cd4 bb 0 std::_Rb_tree<std::basic_string<char, std::char_traits<char>, std::allocator<char> >, std::pair<const std::basic_string<char, std::char_traits<char>, std::allocator<char> >, std::map<std::basic_string<char, std::char_traits<char>, std::allocator<char> >, std::basic_string<char, std::char_traits<char>, std::allocator<char> >, std::less<std::basic_string<char, std::char_traits<char>, std::allocator<char> > >, std::allocator<std::pair<const std::basic_string<char, std::char_traits<char>, std::allocator<char> >, std::basic_string<char, std::char_traits<char>, std::allocator<char> > > > > >, std::_Select1st<std::pair<const std::basic_string<char, std::char_traits<char>, std::allocator<char> >, std::map<std::basic_string<char, std::char_traits<char>, std::allocator<char> >, std::basic_string<char, std::char_traits<char>, std::allocator<char> >, std::less<std::basic_string<char, std::char_traits<char>, std::allocator<char> > >, std::allocator<std::pair<const std::basic_string<char, std::char_traits<char>, std::allocator<char> >, std::basic_string<char, std::char_traits<char>, std::allocator<char> > > > > > >, std::less<std::basic_string<char, std::char_traits<char>, std::allocator<char> > >, std::allocator<std::pair<const std::basic_string<char, std::char_traits<char>, std::allocator<char> >, std::map<std::basic_string<char, std::char_traits<char>, std::allocator<char> >, std::basic_string<char, std::char_traits<char>, std::allocator<char> >, std::less<std::basic_string<char, std::char_traits<char>, std::allocator<char> > >, std::allocator<std::pair<const std::basic_string<char, std::char_traits<char>, std::allocator<char> >, std::basic_string<char, std::char_traits<char>, std::allocator<char> > > > > > > >::_M_create_node
FUNC 36d90 e 0 __gnu_cxx::new_allocator<std::_Rb_tree_node<std::pair<const std::basic_string<char, std::char_traits<char>, std::allocator<char> >, std::map<int, std::map<int, IEC104WF::stPointTable, std::less<int>, std::allocator<std::pair<const int, IEC104WF::stPointTable> > >, std::less<int>, std::allocator<std::pair<const int, std::map<int, IEC104WF::stPointTable, std::less<int>, std::allocator<std::pair<const int, IEC104WF::stPointTable> > > > > > > > >::new_allocator
FUNC 36d9e bb 0 std::_Rb_tree<std::basic_string<char, std::char_traits<char>, std::allocator<char> >, std::pair<const std::basic_string<char, std::char_traits<char>, std::allocator<char> >, std::map<int, std::map<int, IEC104WF::stPointTable, std::less<int>, std::allocator<std::pair<const int, IEC104WF::stPointTable> > >, std::less<int>, std::allocator<std::pair<const int, std::map<int, IEC104WF::stPointTable, std::less<int>, std::allocator<std::pair<const int, IEC104WF::stPointTable> > > > > > >, std::_Select1st<std::pair<const std::basic_string<char, std::char_traits<char>, std::allocator<char> >, std::map<int, std::map<int, IEC104WF::stPointTable, std::less<int>, std::allocator<std::pair<const int, IEC104WF::stPointTable> > >, std::less<int>, std::allocator<std::pair<const int, std::map<int, IEC104WF::stPointTable, std::less<int>, std::allocator<std::pair<const int, IEC104WF::stPointTable> > > > > > > >, std::less<std::basic_string<char, std::char_traits<char>, std::allocator<char> > >, std::allocator<std::pair<const std::basic_string<char, std::char_traits<char>, std::allocator<char> >, std::map<int, std::map<int, IEC104WF::stPointTable, std::less<int>, std::allocator<std::pair<const int, IEC104WF::stPointTable> > >, std::less<int>, std::allocator<std::pair<const int, std::map<int, IEC104WF::stPointTable, std::less<int>, std::allocator<std::pair<const int, IEC104WF::stPointTable> > > > > > > > >::_M_create_node
FUNC 36e5a e 0 __gnu_cxx::new_allocator<std::_List_node<std::basic_string<char, std::char_traits<char>, std::allocator<char> > > >::new_allocator
FUNC 36e68 2c 0 std::_Rb_tree<std::basic_string<char, std::char_traits<char>, std::allocator<char> >, std::pair<const std::basic_string<char, std::char_traits<char>, std::allocator<char> >, IEC61850_STRUCT::IED_61850>, std::_Select1st<std::pair<const std::basic_string<char, std::char_traits<char>, std::allocator<char> >, IEC61850_STRUCT::IED_61850> >, std::less<std::basic_string<char, std::char_traits<char>, std::allocator<char> > >, std::allocator<std::pair<const std::basic_string<char, std::char_traits<char>, std::allocator<char> >, IEC61850_STRUCT::IED_61850> > >::_S_key
FUNC 36e94 12 0 std::_Rb_tree<std::basic_string<char, std::char_traits<char>, std::allocator<char> >, std::pair<const std::basic_string<char, std::char_traits<char>, std::allocator<char> >, IEC61850_STRUCT::IED_61850>, std::_Select1st<std::pair<const std::basic_string<char, std::char_traits<char>, std::allocator<char> >, IEC61850_STRUCT::IED_61850> >, std::less<std::basic_string<char, std::char_traits<char>, std::allocator<char> > >, std::allocator<std::pair<const std::basic_string<char, std::char_traits<char>, std::allocator<char> >, IEC61850_STRUCT::IED_61850> > >::_S_value
FUNC 36ea6 2c 0 std::_Rb_tree<std::basic_string<char, std::char_traits<char>, std::allocator<char> >, std::pair<const std::basic_string<char, std::char_traits<char>, std::allocator<char> >, IEC61850_STRUCT::IED_61850>, std::_Select1st<std::pair<const std::basic_string<char, std::char_traits<char>, std::allocator<char> >, IEC61850_STRUCT::IED_61850> >, std::less<std::basic_string<char, std::char_traits<char>, std::allocator<char> > >, std::allocator<std::pair<const std::basic_string<char, std::char_traits<char>, std::allocator<char> >, IEC61850_STRUCT::IED_61850> > >::begin
FUNC 36ed2 2e 0 std::pair<std::_Rb_tree_iterator<std::pair<const std::basic_string<char, std::char_traits<char>, std::allocator<char> >, IEC61850_STRUCT::IED_61850> >, bool>::pair
FUNC 36f00 28 0 std::_Rb_tree_iterator<std::pair<const std::basic_string<char, std::char_traits<char>, std::allocator<char> >, IEC61850_STRUCT::IED_61850> >::operator--
FUNC 36f28 2c 0 std::_Rb_tree<int, std::pair<const int, IEC104WF::stPointTable>, std::_Select1st<std::pair<const int, IEC104WF::stPointTable> >, std::less<int>, std::allocator<std::pair<const int, IEC104WF::stPointTable> > >::_S_key
FUNC 36f54 12 0 std::_Rb_tree<int, std::pair<const int, IEC104WF::stPointTable>, std::_Select1st<std::pair<const int, IEC104WF::stPointTable> >, std::less<int>, std::allocator<std::pair<const int, IEC104WF::stPointTable> > >::_S_value
FUNC 36f66 bb 0 std::_Rb_tree<int, std::pair<const int, IEC104WF::stPointTable>, std::_Select1st<std::pair<const int, IEC104WF::stPointTable> >, std::less<int>, std::allocator<std::pair<const int, IEC104WF::stPointTable> > >::_M_create_node
FUNC 37022 2c 0 std::_Rb_tree<int, std::pair<const int, IEC104WF::stPointTable>, std::_Select1st<std::pair<const int, IEC104WF::stPointTable> >, std::less<int>, std::allocator<std::pair<const int, IEC104WF::stPointTable> > >::begin
FUNC 3704e 2e 0 std::pair<std::_Rb_tree_iterator<std::pair<const int, IEC104WF::stPointTable> >, bool>::pair
FUNC 3707c 28 0 std::_Rb_tree_iterator<std::pair<const int, IEC104WF::stPointTable> >::operator--
FUNC 370a4 2c 0 std::_Rb_tree<int, std::pair<const int, std::map<int, IEC104WF::stPointTable, std::less<int>, std::allocator<std::pair<const int, IEC104WF::stPointTable> > > >, std::_Select1st<std::pair<const int, std::map<int, IEC104WF::stPointTable, std::less<int>, std::allocator<std::pair<const int, IEC104WF::stPointTable> > > > >, std::less<int>, std::allocator<std::pair<const int, std::map<int, IEC104WF::stPointTable, std::less<int>, std::allocator<std::pair<const int, IEC104WF::stPointTable> > > > > >::_S_key
FUNC 370d0 70 0 std::_Rb_tree<int, std::pair<const int, IEC104WF::stPointTable>, std::_Select1st<std::pair<const int, IEC104WF::stPointTable> >, std::less<int>, std::allocator<std::pair<const int, IEC104WF::stPointTable> > >::_Rb_tree_impl<std::less<int>, false>::_Rb_tree_impl
FUNC 37140 12 0 std::_Rb_tree<int, std::pair<const int, std::map<int, IEC104WF::stPointTable, std::less<int>, std::allocator<std::pair<const int, IEC104WF::stPointTable> > > >, std::_Select1st<std::pair<const int, std::map<int, IEC104WF::stPointTable, std::less<int>, std::allocator<std::pair<const int, IEC104WF::stPointTable> > > > >, std::less<int>, std::allocator<std::pair<const int, std::map<int, IEC104WF::stPointTable, std::less<int>, std::allocator<std::pair<const int, IEC104WF::stPointTable> > > > > >::_S_value
FUNC 37152 bb 0 std::_Rb_tree<int, std::pair<const int, std::map<int, IEC104WF::stPointTable, std::less<int>, std::allocator<std::pair<const int, IEC104WF::stPointTable> > > >, std::_Select1st<std::pair<const int, std::map<int, IEC104WF::stPointTable, std::less<int>, std::allocator<std::pair<const int, IEC104WF::stPointTable> > > > >, std::less<int>, std::allocator<std::pair<const int, std::map<int, IEC104WF::stPointTable, std::less<int>, std::allocator<std::pair<const int, IEC104WF::stPointTable> > > > > >::_M_create_node
FUNC 3720e 2c 0 std::_Rb_tree<int, std::pair<const int, std::map<int, IEC104WF::stPointTable, std::less<int>, std::allocator<std::pair<const int, IEC104WF::stPointTable> > > >, std::_Select1st<std::pair<const int, std::map<int, IEC104WF::stPointTable, std::less<int>, std::allocator<std::pair<const int, IEC104WF::stPointTable> > > > >, std::less<int>, std::allocator<std::pair<const int, std::map<int, IEC104WF::stPointTable, std::less<int>, std::allocator<std::pair<const int, IEC104WF::stPointTable> > > > > >::begin
FUNC 3723a 2e 0 std::pair<std::_Rb_tree_iterator<std::pair<const int, std::map<int, IEC104WF::stPointTable, std::less<int>, std::allocator<std::pair<const int, IEC104WF::stPointTable> > > > >, bool>::pair
FUNC 37268 28 0 std::_Rb_tree_iterator<std::pair<const int, std::map<int, IEC104WF::stPointTable, std::less<int>, std::allocator<std::pair<const int, IEC104WF::stPointTable> > > > >::operator--
FUNC 37290 2c 0 std::_Rb_tree<std::basic_string<char, std::char_traits<char>, std::allocator<char> >, std::pair<const std::basic_string<char, std::char_traits<char>, std::allocator<char> >, std::map<int, std::map<int, IEC104WF::stPointTable, std::less<int>, std::allocator<std::pair<const int, IEC104WF::stPointTable> > >, std::less<int>, std::allocator<std::pair<const int, std::map<int, IEC104WF::stPointTable, std::less<int>, std::allocator<std::pair<const int, IEC104WF::stPointTable> > > > > > >, std::_Select1st<std::pair<const std::basic_string<char, std::char_traits<char>, std::allocator<char> >, std::map<int, std::map<int, IEC104WF::stPointTable, std::less<int>, std::allocator<std::pair<const int, IEC104WF::stPointTable> > >, std::less<int>, std::allocator<std::pair<const int, std::map<int, IEC104WF::stPointTable, std::less<int>, std::allocator<std::pair<const int, IEC104WF::stPointTable> > > > > > > >, std::less<std::basic_string<char, std::char_traits<char>, std::allocator<char> > >, std::allocator<std::pair<const std::basic_string<char, std::char_traits<char>, std::allocator<char> >, std::map<int, std::map<int, IEC104WF::stPointTable, std::less<int>, std::allocator<std::pair<const int, IEC104WF::stPointTable> > >, std::less<int>, std::allocator<std::pair<const int, std::map<int, IEC104WF::stPointTable, std::less<int>, std::allocator<std::pair<const int, IEC104WF::stPointTable> > > > > > > > >::_S_key
FUNC 372bc 70 0 std::_Rb_tree<int, std::pair<const int, std::map<int, IEC104WF::stPointTable, std::less<int>, std::allocator<std::pair<const int, IEC104WF::stPointTable> > > >, std::_Select1st<std::pair<const int, std::map<int, IEC104WF::stPointTable, std::less<int>, std::allocator<std::pair<const int, IEC104WF::stPointTable> > > > >, std::less<int>, std::allocator<std::pair<const int, std::map<int, IEC104WF::stPointTable, std::less<int>, std::allocator<std::pair<const int, IEC104WF::stPointTable> > > > > >::_Rb_tree_impl<std::less<int>, false>::_Rb_tree_impl
FUNC 3732c 12 0 std::_Rb_tree<std::basic_string<char, std::char_traits<char>, std::allocator<char> >, std::pair<const std::basic_string<char, std::char_traits<char>, std::allocator<char> >, std::map<int, std::map<int, IEC104WF::stPointTable, std::less<int>, std::allocator<std::pair<const int, IEC104WF::stPointTable> > >, std::less<int>, std::allocator<std::pair<const int, std::map<int, IEC104WF::stPointTable, std::less<int>, std::allocator<std::pair<const int, IEC104WF::stPointTable> > > > > > >, std::_Select1st<std::pair<const std::basic_string<char, std::char_traits<char>, std::allocator<char> >, std::map<int, std::map<int, IEC104WF::stPointTable, std::less<int>, std::allocator<std::pair<const int, IEC104WF::stPointTable> > >, std::less<int>, std::allocator<std::pair<const int, std::map<int, IEC104WF::stPointTable, std::less<int>, std::allocator<std::pair<const int, IEC104WF::stPointTable> > > > > > > >, std::less<std::basic_string<char, std::char_traits<char>, std::allocator<char> > >, std::allocator<std::pair<const std::basic_string<char, std::char_traits<char>, std::allocator<char> >, std::map<int, std::map<int, IEC104WF::stPointTable, std::less<int>, std::allocator<std::pair<const int, IEC104WF::stPointTable> > >, std::less<int>, std::allocator<std::pair<const int, std::map<int, IEC104WF::stPointTable, std::less<int>, std::allocator<std::pair<const int, IEC104WF::stPointTable> > > > > > > > >::_S_value
FUNC 3733e 2c 0 std::_Rb_tree<std::basic_string<char, std::char_traits<char>, std::allocator<char> >, std::pair<const std::basic_string<char, std::char_traits<char>, std::allocator<char> >, std::map<int, std::map<int, IEC104WF::stPointTable, std::less<int>, std::allocator<std::pair<const int, IEC104WF::stPointTable> > >, std::less<int>, std::allocator<std::pair<const int, std::map<int, IEC104WF::stPointTable, std::less<int>, std::allocator<std::pair<const int, IEC104WF::stPointTable> > > > > > >, std::_Select1st<std::pair<const std::basic_string<char, std::char_traits<char>, std::allocator<char> >, std::map<int, std::map<int, IEC104WF::stPointTable, std::less<int>, std::allocator<std::pair<const int, IEC104WF::stPointTable> > >, std::less<int>, std::allocator<std::pair<const int, std::map<int, IEC104WF::stPointTable, std::less<int>, std::allocator<std::pair<const int, IEC104WF::stPointTable> > > > > > > >, std::less<std::basic_string<char, std::char_traits<char>, std::allocator<char> > >, std::allocator<std::pair<const std::basic_string<char, std::char_traits<char>, std::allocator<char> >, std::map<int, std::map<int, IEC104WF::stPointTable, std::less<int>, std::allocator<std::pair<const int, IEC104WF::stPointTable> > >, std::less<int>, std::allocator<std::pair<const int, std::map<int, IEC104WF::stPointTable, std::less<int>, std::allocator<std::pair<const int, IEC104WF::stPointTable> > > > > > > > >::begin
FUNC 3736a 2e 0 std::pair<std::_Rb_tree_iterator<std::pair<const std::basic_string<char, std::char_traits<char>, std::allocator<char> >, std::map<int, std::map<int, IEC104WF::stPointTable, std::less<int>, std::allocator<std::pair<const int, IEC104WF::stPointTable> > >, std::less<int>, std::allocator<std::pair<const int, std::map<int, IEC104WF::stPointTable, std::less<int>, std::allocator<std::pair<const int, IEC104WF::stPointTable> > > > > > > >, bool>::pair
FUNC 37398 28 0 std::_Rb_tree_iterator<std::pair<const std::basic_string<char, std::char_traits<char>, std::allocator<char> >, std::map<int, std::map<int, IEC104WF::stPointTable, std::less<int>, std::allocator<std::pair<const int, IEC104WF::stPointTable> > >, std::less<int>, std::allocator<std::pair<const int, std::map<int, IEC104WF::stPointTable, std::less<int>, std::allocator<std::pair<const int, IEC104WF::stPointTable> > > > > > > >::operator--
FUNC 373c0 2c 0 std::_Rb_tree<std::basic_string<char, std::char_traits<char>, std::allocator<char> >, std::pair<const std::basic_string<char, std::char_traits<char>, std::allocator<char> >, IEC103::stConfigParam>, std::_Select1st<std::pair<const std::basic_string<char, std::char_traits<char>, std::allocator<char> >, IEC103::stConfigParam> >, std::less<std::basic_string<char, std::char_traits<char>, std::allocator<char> > >, std::allocator<std::pair<const std::basic_string<char, std::char_traits<char>, std::allocator<char> >, IEC103::stConfigParam> > >::_S_key
FUNC 373ec 12 0 std::_Rb_tree<std::basic_string<char, std::char_traits<char>, std::allocator<char> >, std::pair<const std::basic_string<char, std::char_traits<char>, std::allocator<char> >, IEC103::stConfigParam>, std::_Select1st<std::pair<const std::basic_string<char, std::char_traits<char>, std::allocator<char> >, IEC103::stConfigParam> >, std::less<std::basic_string<char, std::char_traits<char>, std::allocator<char> > >, std::allocator<std::pair<const std::basic_string<char, std::char_traits<char>, std::allocator<char> >, IEC103::stConfigParam> > >::_S_value
FUNC 373fe 2e 0 std::pair<std::_Rb_tree_iterator<std::pair<const std::basic_string<char, std::char_traits<char>, std::allocator<char> >, IEC103::stConfigParam> >, bool>::pair
FUNC 3742c 28 0 std::_Rb_tree_iterator<std::pair<const std::basic_string<char, std::char_traits<char>, std::allocator<char> >, IEC103::stConfigParam> >::operator--
FUNC 37454 2c 0 std::_Rb_tree<std::basic_string<char, std::char_traits<char>, std::allocator<char> >, std::pair<const std::basic_string<char, std::char_traits<char>, std::allocator<char> >, std::map<std::basic_string<char, std::char_traits<char>, std::allocator<char> >, std::basic_string<char, std::char_traits<char>, std::allocator<char> >, std::less<std::basic_string<char, std::char_traits<char>, std::allocator<char> > >, std::allocator<std::pair<const std::basic_string<char, std::char_traits<char>, std::allocator<char> >, std::basic_string<char, std::char_traits<char>, std::allocator<char> > > > > >, std::_Select1st<std::pair<const std::basic_string<char, std::char_traits<char>, std::allocator<char> >, std::map<std::basic_string<char, std::char_traits<char>, std::allocator<char> >, std::basic_string<char, std::char_traits<char>, std::allocator<char> >, std::less<std::basic_string<char, std::char_traits<char>, std::allocator<char> > >, std::allocator<std::pair<const std::basic_string<char, std::char_traits<char>, std::allocator<char> >, std::basic_string<char, std::char_traits<char>, std::allocator<char> > > > > > >, std::less<std::basic_string<char, std::char_traits<char>, std::allocator<char> > >, std::allocator<std::pair<const std::basic_string<char, std::char_traits<char>, std::allocator<char> >, std::map<std::basic_string<char, std::char_traits<char>, std::allocator<char> >, std::basic_string<char, std::char_traits<char>, std::allocator<char> >, std::less<std::basic_string<char, std::char_traits<char>, std::allocator<char> > >, std::allocator<std::pair<const std::basic_string<char, std::char_traits<char>, std::allocator<char> >, std::basic_string<char, std::char_traits<char>, std::allocator<char> > > > > > > >::_S_key
FUNC 37480 12 0 std::_Rb_tree<std::basic_string<char, std::char_traits<char>, std::allocator<char> >, std::pair<const std::basic_string<char, std::char_traits<char>, std::allocator<char> >, std::map<std::basic_string<char, std::char_traits<char>, std::allocator<char> >, std::basic_string<char, std::char_traits<char>, std::allocator<char> >, std::less<std::basic_string<char, std::char_traits<char>, std::allocator<char> > >, std::allocator<std::pair<const std::basic_string<char, std::char_traits<char>, std::allocator<char> >, std::basic_string<char, std::char_traits<char>, std::allocator<char> > > > > >, std::_Select1st<std::pair<const std::basic_string<char, std::char_traits<char>, std::allocator<char> >, std::map<std::basic_string<char, std::char_traits<char>, std::allocator<char> >, std::basic_string<char, std::char_traits<char>, std::allocator<char> >, std::less<std::basic_string<char, std::char_traits<char>, std::allocator<char> > >, std::allocator<std::pair<const std::basic_string<char, std::char_traits<char>, std::allocator<char> >, std::basic_string<char, std::char_traits<char>, std::allocator<char> > > > > > >, std::less<std::basic_string<char, std::char_traits<char>, std::allocator<char> > >, std::allocator<std::pair<const std::basic_string<char, std::char_traits<char>, std::allocator<char> >, std::map<std::basic_string<char, std::char_traits<char>, std::allocator<char> >, std::basic_string<char, std::char_traits<char>, std::allocator<char> >, std::less<std::basic_string<char, std::char_traits<char>, std::allocator<char> > >, std::allocator<std::pair<const std::basic_string<char, std::char_traits<char>, std::allocator<char> >, std::basic_string<char, std::char_traits<char>, std::allocator<char> > > > > > > >::_S_value
FUNC 37492 2e 0 std::pair<std::_Rb_tree_iterator<std::pair<const std::basic_string<char, std::char_traits<char>, std::allocator<char> >, std::map<std::basic_string<char, std::char_traits<char>, std::allocator<char> >, std::basic_string<char, std::char_traits<char>, std::allocator<char> >, std::less<std::basic_string<char, std::char_traits<char>, std::allocator<char> > >, std::allocator<std::pair<const std::basic_string<char, std::char_traits<char>, std::allocator<char> >, std::basic_string<char, std::char_traits<char>, std::allocator<char> > > > > > >, bool>::pair
FUNC 374c0 28 0 std::_Rb_tree_iterator<std::pair<const std::basic_string<char, std::char_traits<char>, std::allocator<char> >, std::map<std::basic_string<char, std::char_traits<char>, std::allocator<char> >, std::basic_string<char, std::char_traits<char>, std::allocator<char> >, std::less<std::basic_string<char, std::char_traits<char>, std::allocator<char> > >, std::allocator<std::pair<const std::basic_string<char, std::char_traits<char>, std::allocator<char> >, std::basic_string<char, std::char_traits<char>, std::allocator<char> > > > > > >::operator--
FUNC 374e8 54 0 __gnu_cxx::new_allocator<std::_List_node<std::basic_string<char, std::char_traits<char>, std::allocator<char> > > >::allocate
FUNC 3753c a 0 __gnu_cxx::new_allocator<std::pair<const std::basic_string<char, std::char_traits<char>, std::allocator<char> >, IEC61850_STRUCT::IED_61850> >::new_allocator
FUNC 37546 a 0 __gnu_cxx::new_allocator<std::pair<const std::basic_string<char, std::char_traits<char>, std::allocator<char> >, std::map<int, std::map<int, IEC104WF::stPointTable, std::less<int>, std::allocator<std::pair<const int, IEC104WF::stPointTable> > >, std::less<int>, std::allocator<std::pair<const int, std::map<int, IEC104WF::stPointTable, std::less<int>, std::allocator<std::pair<const int, IEC104WF::stPointTable> > > > > > > >::new_allocator
FUNC 37550 a 0 __gnu_cxx::new_allocator<std::pair<const int, std::map<int, IEC104WF::stPointTable, std::less<int>, std::allocator<std::pair<const int, IEC104WF::stPointTable> > > > >::new_allocator
FUNC 3755a a 0 __gnu_cxx::new_allocator<std::pair<const int, IEC104WF::stPointTable> >::new_allocator
FUNC 37564 24 0 std::_Rb_tree<std::basic_string<char, std::char_traits<char>, std::allocator<char> >, std::pair<const std::basic_string<char, std::char_traits<char>, std::allocator<char> >, IEC61850_STRUCT::IED_61850>, std::_Select1st<std::pair<const std::basic_string<char, std::char_traits<char>, std::allocator<char> >, IEC61850_STRUCT::IED_61850> >, std::less<std::basic_string<char, std::char_traits<char>, std::allocator<char> > >, std::allocator<std::pair<const std::basic_string<char, std::char_traits<char>, std::allocator<char> >, IEC61850_STRUCT::IED_61850> > >::_M_get_node
FUNC 37588 6b 0 std::pair<const std::basic_string<char, std::char_traits<char>, std::allocator<char> >, IEC61850_STRUCT::IED_61850>::pair
FUNC 375f4 77 0 __gnu_cxx::new_allocator<std::pair<const std::basic_string<char, std::char_traits<char>, std::allocator<char> >, IEC61850_STRUCT::IED_61850> >::construct
FUNC 3766c 24 0 std::_Rb_tree<std::basic_string<char, std::char_traits<char>, std::allocator<char> >, std::pair<const std::basic_string<char, std::char_traits<char>, std::allocator<char> >, IEC103::stConfigParam>, std::_Select1st<std::pair<const std::basic_string<char, std::char_traits<char>, std::allocator<char> >, IEC103::stConfigParam> >, std::less<std::basic_string<char, std::char_traits<char>, std::allocator<char> > >, std::allocator<std::pair<const std::basic_string<char, std::char_traits<char>, std::allocator<char> >, IEC103::stConfigParam> > >::_M_get_node
FUNC 37690 6b 0 std::pair<const std::basic_string<char, std::char_traits<char>, std::allocator<char> >, IEC103::stConfigParam>::pair
FUNC 376fc 77 0 __gnu_cxx::new_allocator<std::pair<const std::basic_string<char, std::char_traits<char>, std::allocator<char> >, IEC103::stConfigParam> >::construct
FUNC 37774 24 0 std::_Rb_tree<std::basic_string<char, std::char_traits<char>, std::allocator<char> >, std::pair<const std::basic_string<char, std::char_traits<char>, std::allocator<char> >, std::map<std::basic_string<char, std::char_traits<char>, std::allocator<char> >, std::basic_string<char, std::char_traits<char>, std::allocator<char> >, std::less<std::basic_string<char, std::char_traits<char>, std::allocator<char> > >, std::allocator<std::pair<const std::basic_string<char, std::char_traits<char>, std::allocator<char> >, std::basic_string<char, std::char_traits<char>, std::allocator<char> > > > > >, std::_Select1st<std::pair<const std::basic_string<char, std::char_traits<char>, std::allocator<char> >, std::map<std::basic_string<char, std::char_traits<char>, std::allocator<char> >, std::basic_string<char, std::char_traits<char>, std::allocator<char> >, std::less<std::basic_string<char, std::char_traits<char>, std::allocator<char> > >, std::allocator<std::pair<const std::basic_string<char, std::char_traits<char>, std::allocator<char> >, std::basic_string<char, std::char_traits<char>, std::allocator<char> > > > > > >, std::less<std::basic_string<char, std::char_traits<char>, std::allocator<char> > >, std::allocator<std::pair<const std::basic_string<char, std::char_traits<char>, std::allocator<char> >, std::map<std::basic_string<char, std::char_traits<char>, std::allocator<char> >, std::basic_string<char, std::char_traits<char>, std::allocator<char> >, std::less<std::basic_string<char, std::char_traits<char>, std::allocator<char> > >, std::allocator<std::pair<const std::basic_string<char, std::char_traits<char>, std::allocator<char> >, std::basic_string<char, std::char_traits<char>, std::allocator<char> > > > > > > >::_M_get_node
FUNC 37798 6b 0 std::pair<const std::basic_string<char, std::char_traits<char>, std::allocator<char> >, std::map<std::basic_string<char, std::char_traits<char>, std::allocator<char> >, std::basic_string<char, std::char_traits<char>, std::allocator<char> >, std::less<std::basic_string<char, std::char_traits<char>, std::allocator<char> > >, std::allocator<std::pair<const std::basic_string<char, std::char_traits<char>, std::allocator<char> >, std::basic_string<char, std::char_traits<char>, std::allocator<char> > > > > >::pair
FUNC 37804 77 0 __gnu_cxx::new_allocator<std::pair<const std::basic_string<char, std::char_traits<char>, std::allocator<char> >, std::map<std::basic_string<char, std::char_traits<char>, std::allocator<char> >, std::basic_string<char, std::char_traits<char>, std::allocator<char> >, std::less<std::basic_string<char, std::char_traits<char>, std::allocator<char> > >, std::allocator<std::pair<const std::basic_string<char, std::char_traits<char>, std::allocator<char> >, std::basic_string<char, std::char_traits<char>, std::allocator<char> > > > > > >::construct
FUNC 3787c 24 0 std::_Rb_tree<std::basic_string<char, std::char_traits<char>, std::allocator<char> >, std::pair<const std::basic_string<char, std::char_traits<char>, std::allocator<char> >, std::map<int, std::map<int, IEC104WF::stPointTable, std::less<int>, std::allocator<std::pair<const int, IEC104WF::stPointTable> > >, std::less<int>, std::allocator<std::pair<const int, std::map<int, IEC104WF::stPointTable, std::less<int>, std::allocator<std::pair<const int, IEC104WF::stPointTable> > > > > > >, std::_Select1st<std::pair<const std::basic_string<char, std::char_traits<char>, std::allocator<char> >, std::map<int, std::map<int, IEC104WF::stPointTable, std::less<int>, std::allocator<std::pair<const int, IEC104WF::stPointTable> > >, std::less<int>, std::allocator<std::pair<const int, std::map<int, IEC104WF::stPointTable, std::less<int>, std::allocator<std::pair<const int, IEC104WF::stPointTable> > > > > > > >, std::less<std::basic_string<char, std::char_traits<char>, std::allocator<char> > >, std::allocator<std::pair<const std::basic_string<char, std::char_traits<char>, std::allocator<char> >, std::map<int, std::map<int, IEC104WF::stPointTable, std::less<int>, std::allocator<std::pair<const int, IEC104WF::stPointTable> > >, std::less<int>, std::allocator<std::pair<const int, std::map<int, IEC104WF::stPointTable, std::less<int>, std::allocator<std::pair<const int, IEC104WF::stPointTable> > > > > > > > >::_M_get_node
FUNC 378a0 6b 0 std::pair<const std::basic_string<char, std::char_traits<char>, std::allocator<char> >, std::map<int, std::map<int, IEC104WF::stPointTable, std::less<int>, std::allocator<std::pair<const int, IEC104WF::stPointTable> > >, std::less<int>, std::allocator<std::pair<const int, std::map<int, IEC104WF::stPointTable, std::less<int>, std::allocator<std::pair<const int, IEC104WF::stPointTable> > > > > > >::pair
FUNC 3790c 77 0 __gnu_cxx::new_allocator<std::pair<const std::basic_string<char, std::char_traits<char>, std::allocator<char> >, std::map<int, std::map<int, IEC104WF::stPointTable, std::less<int>, std::allocator<std::pair<const int, IEC104WF::stPointTable> > >, std::less<int>, std::allocator<std::pair<const int, std::map<int, IEC104WF::stPointTable, std::less<int>, std::allocator<std::pair<const int, IEC104WF::stPointTable> > > > > > > >::construct
FUNC 37983 12 0 std::_Rb_tree<std::basic_string<char, std::char_traits<char>, std::allocator<char> >, std::pair<const std::basic_string<char, std::char_traits<char>, std::allocator<char> >, IEC61850_STRUCT::IED_61850>, std::_Select1st<std::pair<const std::basic_string<char, std::char_traits<char>, std::allocator<char> >, IEC61850_STRUCT::IED_61850> >, std::less<std::basic_string<char, std::char_traits<char>, std::allocator<char> > >, std::allocator<std::pair<const std::basic_string<char, std::char_traits<char>, std::allocator<char> >, IEC61850_STRUCT::IED_61850> > >::_S_value
FUNC 37995 12 0 std::_Rb_tree<int, std::pair<const int, IEC104WF::stPointTable>, std::_Select1st<std::pair<const int, IEC104WF::stPointTable> >, std::less<int>, std::allocator<std::pair<const int, IEC104WF::stPointTable> > >::_S_value
FUNC 379a8 24 0 std::_Rb_tree<int, std::pair<const int, IEC104WF::stPointTable>, std::_Select1st<std::pair<const int, IEC104WF::stPointTable> >, std::less<int>, std::allocator<std::pair<const int, IEC104WF::stPointTable> > >::_M_get_node
FUNC 379cc 39 0 std::pair<const int, IEC104WF::stPointTable>::pair
FUNC 37a06 77 0 __gnu_cxx::new_allocator<std::pair<const int, IEC104WF::stPointTable> >::construct
FUNC 37a7d 12 0 std::_Rb_tree<int, std::pair<const int, std::map<int, IEC104WF::stPointTable, std::less<int>, std::allocator<std::pair<const int, IEC104WF::stPointTable> > > >, std::_Select1st<std::pair<const int, std::map<int, IEC104WF::stPointTable, std::less<int>, std::allocator<std::pair<const int, IEC104WF::stPointTable> > > > >, std::less<int>, std::allocator<std::pair<const int, std::map<int, IEC104WF::stPointTable, std::less<int>, std::allocator<std::pair<const int, IEC104WF::stPointTable> > > > > >::_S_value
FUNC 37a90 25 0 std::allocator<std::_Rb_tree_node<std::pair<const int, IEC104WF::stPointTable> > >::allocator
FUNC 37ab6 24 0 std::_Rb_tree<int, std::pair<const int, std::map<int, IEC104WF::stPointTable, std::less<int>, std::allocator<std::pair<const int, IEC104WF::stPointTable> > > >, std::_Select1st<std::pair<const int, std::map<int, IEC104WF::stPointTable, std::less<int>, std::allocator<std::pair<const int, IEC104WF::stPointTable> > > > >, std::less<int>, std::allocator<std::pair<const int, std::map<int, IEC104WF::stPointTable, std::less<int>, std::allocator<std::pair<const int, IEC104WF::stPointTable> > > > > >::_M_get_node
FUNC 37ada 39 0 std::pair<const int, std::map<int, IEC104WF::stPointTable, std::less<int>, std::allocator<std::pair<const int, IEC104WF::stPointTable> > > >::pair
FUNC 37b14 77 0 __gnu_cxx::new_allocator<std::pair<const int, std::map<int, IEC104WF::stPointTable, std::less<int>, std::allocator<std::pair<const int, IEC104WF::stPointTable> > > > >::construct
FUNC 37b8b 12 0 std::_Rb_tree<std::basic_string<char, std::char_traits<char>, std::allocator<char> >, std::pair<const std::basic_string<char, std::char_traits<char>, std::allocator<char> >, std::map<int, std::map<int, IEC104WF::stPointTable, std::less<int>, std::allocator<std::pair<const int, IEC104WF::stPointTable> > >, std::less<int>, std::allocator<std::pair<const int, std::map<int, IEC104WF::stPointTable, std::less<int>, std::allocator<std::pair<const int, IEC104WF::stPointTable> > > > > > >, std::_Select1st<std::pair<const std::basic_string<char, std::char_traits<char>, std::allocator<char> >, std::map<int, std::map<int, IEC104WF::stPointTable, std::less<int>, std::allocator<std::pair<const int, IEC104WF::stPointTable> > >, std::less<int>, std::allocator<std::pair<const int, std::map<int, IEC104WF::stPointTable, std::less<int>, std::allocator<std::pair<const int, IEC104WF::stPointTable> > > > > > > >, std::less<std::basic_string<char, std::char_traits<char>, std::allocator<char> > >, std::allocator<std::pair<const std::basic_string<char, std::char_traits<char>, std::allocator<char> >, std::map<int, std::map<int, IEC104WF::stPointTable, std::less<int>, std::allocator<std::pair<const int, IEC104WF::stPointTable> > >, std::less<int>, std::allocator<std::pair<const int, std::map<int, IEC104WF::stPointTable, std::less<int>, std::allocator<std::pair<const int, IEC104WF::stPointTable> > > > > > > > >::_S_value
FUNC 37b9e 25 0 std::allocator<std::_Rb_tree_node<std::pair<const int, std::map<int, IEC104WF::stPointTable, std::less<int>, std::allocator<std::pair<const int, IEC104WF::stPointTable> > > > > >::allocator
FUNC 37bc3 12 0 std::_Rb_tree<std::basic_string<char, std::char_traits<char>, std::allocator<char> >, std::pair<const std::basic_string<char, std::char_traits<char>, std::allocator<char> >, IEC103::stConfigParam>, std::_Select1st<std::pair<const std::basic_string<char, std::char_traits<char>, std::allocator<char> >, IEC103::stConfigParam> >, std::less<std::basic_string<char, std::char_traits<char>, std::allocator<char> > >, std::allocator<std::pair<const std::basic_string<char, std::char_traits<char>, std::allocator<char> >, IEC103::stConfigParam> > >::_S_value
FUNC 37bd5 12 0 std::_Rb_tree<std::basic_string<char, std::char_traits<char>, std::allocator<char> >, std::pair<const std::basic_string<char, std::char_traits<char>, std::allocator<char> >, std::map<std::basic_string<char, std::char_traits<char>, std::allocator<char> >, std::basic_string<char, std::char_traits<char>, std::allocator<char> >, std::less<std::basic_string<char, std::char_traits<char>, std::allocator<char> > >, std::allocator<std::pair<const std::basic_string<char, std::char_traits<char>, std::allocator<char> >, std::basic_string<char, std::char_traits<char>, std::allocator<char> > > > > >, std::_Select1st<std::pair<const std::basic_string<char, std::char_traits<char>, std::allocator<char> >, std::map<std::basic_string<char, std::char_traits<char>, std::allocator<char> >, std::basic_string<char, std::char_traits<char>, std::allocator<char> >, std::less<std::basic_string<char, std::char_traits<char>, std::allocator<char> > >, std::allocator<std::pair<const std::basic_string<char, std::char_traits<char>, std::allocator<char> >, std::basic_string<char, std::char_traits<char>, std::allocator<char> > > > > > >, std::less<std::basic_string<char, std::char_traits<char>, std::allocator<char> > >, std::allocator<std::pair<const std::basic_string<char, std::char_traits<char>, std::allocator<char> >, std::map<std::basic_string<char, std::char_traits<char>, std::allocator<char> >, std::basic_string<char, std::char_traits<char>, std::allocator<char> >, std::less<std::basic_string<char, std::char_traits<char>, std::allocator<char> > >, std::allocator<std::pair<const std::basic_string<char, std::char_traits<char>, std::allocator<char> >, std::basic_string<char, std::char_traits<char>, std::allocator<char> > > > > > > >::_S_value
FUNC 37be8 14 0 __gnu_cxx::new_allocator<std::_List_node<std::basic_string<char, std::char_traits<char>, std::allocator<char> > > >::max_size
FUNC 37bfc 55 0 __gnu_cxx::new_allocator<std::_Rb_tree_node<std::pair<const std::basic_string<char, std::char_traits<char>, std::allocator<char> >, IEC61850_STRUCT::IED_61850> > >::allocate
FUNC 37c52 55 0 __gnu_cxx::new_allocator<std::_Rb_tree_node<std::pair<const std::basic_string<char, std::char_traits<char>, std::allocator<char> >, IEC103::stConfigParam> > >::allocate
FUNC 37ca8 5b 0 __gnu_cxx::new_allocator<std::_Rb_tree_node<std::pair<const std::basic_string<char, std::char_traits<char>, std::allocator<char> >, std::map<std::basic_string<char, std::char_traits<char>, std::allocator<char> >, std::basic_string<char, std::char_traits<char>, std::allocator<char> >, std::less<std::basic_string<char, std::char_traits<char>, std::allocator<char> > >, std::allocator<std::pair<const std::basic_string<char, std::char_traits<char>, std::allocator<char> >, std::basic_string<char, std::char_traits<char>, std::allocator<char> > > > > > > >::allocate
FUNC 37d04 5b 0 __gnu_cxx::new_allocator<std::_Rb_tree_node<std::pair<const std::basic_string<char, std::char_traits<char>, std::allocator<char> >, std::map<int, std::map<int, IEC104WF::stPointTable, std::less<int>, std::allocator<std::pair<const int, IEC104WF::stPointTable> > >, std::less<int>, std::allocator<std::pair<const int, std::map<int, IEC104WF::stPointTable, std::less<int>, std::allocator<std::pair<const int, IEC104WF::stPointTable> > > > > > > > >::allocate
FUNC 37d60 5c 0 __gnu_cxx::new_allocator<std::_Rb_tree_node<std::pair<const int, IEC104WF::stPointTable> > >::allocate
FUNC 37dbc e 0 __gnu_cxx::new_allocator<std::_Rb_tree_node<std::pair<const int, IEC104WF::stPointTable> > >::new_allocator
FUNC 37dca 5b 0 __gnu_cxx::new_allocator<std::_Rb_tree_node<std::pair<const int, std::map<int, IEC104WF::stPointTable, std::less<int>, std::allocator<std::pair<const int, IEC104WF::stPointTable> > > > > >::allocate
FUNC 37e26 e 0 __gnu_cxx::new_allocator<std::_Rb_tree_node<std::pair<const int, std::map<int, IEC104WF::stPointTable, std::less<int>, std::allocator<std::pair<const int, IEC104WF::stPointTable> > > > > >::new_allocator
FUNC 37e34 14 0 __gnu_cxx::new_allocator<std::_Rb_tree_node<std::pair<const std::basic_string<char, std::char_traits<char>, std::allocator<char> >, IEC61850_STRUCT::IED_61850> > >::max_size
FUNC 37e48 14 0 __gnu_cxx::new_allocator<std::_Rb_tree_node<std::pair<const std::basic_string<char, std::char_traits<char>, std::allocator<char> >, IEC103::stConfigParam> > >::max_size
FUNC 37e5c 14 0 __gnu_cxx::new_allocator<std::_Rb_tree_node<std::pair<const std::basic_string<char, std::char_traits<char>, std::allocator<char> >, std::map<std::basic_string<char, std::char_traits<char>, std::allocator<char> >, std::basic_string<char, std::char_traits<char>, std::allocator<char> >, std::less<std::basic_string<char, std::char_traits<char>, std::allocator<char> > >, std::allocator<std::pair<const std::basic_string<char, std::char_traits<char>, std::allocator<char> >, std::basic_string<char, std::char_traits<char>, std::allocator<char> > > > > > > >::max_size
FUNC 37e70 14 0 __gnu_cxx::new_allocator<std::_Rb_tree_node<std::pair<const std::basic_string<char, std::char_traits<char>, std::allocator<char> >, std::map<int, std::map<int, IEC104WF::stPointTable, std::less<int>, std::allocator<std::pair<const int, IEC104WF::stPointTable> > >, std::less<int>, std::allocator<std::pair<const int, std::map<int, IEC104WF::stPointTable, std::less<int>, std::allocator<std::pair<const int, IEC104WF::stPointTable> > > > > > > > >::max_size
FUNC 37e84 14 0 __gnu_cxx::new_allocator<std::_Rb_tree_node<std::pair<const int, IEC104WF::stPointTable> > >::max_size
FUNC 37e98 14 0 __gnu_cxx::new_allocator<std::_Rb_tree_node<std::pair<const int, std::map<int, IEC104WF::stPointTable, std::less<int>, std::allocator<std::pair<const int, IEC104WF::stPointTable> > > > > >::max_size
FUNC 37eb0 d 0 mysql_get_parameters
FUNC 37ec0 6 0 mysql_debug
FUNC 37ed0 6 0 my_pipe_sig_handler
FUNC 37ee0 29 0 mysql_set_local_infile_handler
FUNC 37f10 3e 0 mysql_set_local_infile_default
FUNC 37f50 29 0 mysql_fetch_field
FUNC 37f80 47 0 mysql_data_seek
FUNC 37fd0 16 0 mysql_row_seek
FUNC 37ff0 12 0 mysql_field_seek
FUNC 38010 3e 0 mysql_shutdown
FUNC 38050 3e 0 mysql_refresh
FUNC 38090 55 0 mysql_kill
FUNC 380f0 3e 0 mysql_set_server_option
FUNC 38130 36 0 mysql_dump_debug_info
FUNC 38170 66 0 mysql_stat
FUNC 381e0 36 0 mysql_ping
FUNC 38220 d 0 mysql_get_server_info
FUNC 38230 d 0 mysql_get_host_info
FUNC 38240 c 0 mysql_get_proto_info
FUNC 38250 d 0 mysql_get_client_info
FUNC 38260 b 0 mysql_get_client_version
FUNC 38270 d 0 mysql_eof
FUNC 38280 10 0 mysql_fetch_field_direct
FUNC 38290 a 0 mysql_fetch_fields
FUNC 382a0 a 0 mysql_row_tell
FUNC 382b0 c 0 mysql_field_tell
FUNC 382c0 c 0 mysql_field_count
FUNC 382d0 d 0 mysql_affected_rows
FUNC 382e0 d 0 mysql_insert_id
FUNC 382f0 24 0 mysql_sqlstate
FUNC 38320 c 0 mysql_warning_count
FUNC 38330 d 0 mysql_info
FUNC 38340 d 0 mysql_thread_id
FUNC 38350 11 0 mysql_character_set_name
FUNC 38370 90 0 mysql_get_character_set_info
FUNC 38400 b 0 mysql_thread_safe
FUNC 38410 8 0 mysql_embedded
FUNC 38420 67 0 mysql_hex_string
FUNC 38490 1e0 0 myodbc_remove_escape
FUNC 38670 8 0 mysql_stmt_param_metadata
FUNC 38680 1b 0 store_param_tinyint
FUNC 386a0 19 0 store_param_short
FUNC 386c0 17 0 store_param_int32
FUNC 386e0 19 0 store_param_int64
FUNC 38700 17 0 store_param_float
FUNC 38720 19 0 store_param_double
FUNC 38740 3e 0 stmt_read_row_buffered
FUNC 38780 b 0 stmt_read_row_no_data
FUNC 38790 4e 0 mysql_stmt_attr_get
FUNC 387e0 c 0 mysql_stmt_param_count
FUNC 387f0 d 0 mysql_stmt_affected_rows
FUNC 38800 c 0 mysql_stmt_field_count
FUNC 38810 d 0 mysql_stmt_insert_id
FUNC 38820 34 0 fetch_result_tinyint
FUNC 38860 35 0 fetch_result_short
FUNC 388a0 33 0 fetch_result_int32
FUNC 388e0 c 0 skip_result_fixed
FUNC 388f0 488 0 setup_one_fetch_function
FUNC 38d80 180 0 mysql_stmt_fetch
FUNC 38f00 14 0 mysql_stmt_row_seek
FUNC 38f20 d 0 mysql_stmt_row_tell
FUNC 38f30 55 0 mysql_stmt_data_seek
FUNC 38f90 d 0 mysql_stmt_num_rows
FUNC 38fa0 c 0 mysql_stmt_errno
FUNC 38fb0 d 0 mysql_stmt_sqlstate
FUNC 38fc0 d 0 mysql_stmt_error
FUNC 38fd0 12 0 mysql_more_results
FUNC 38ff0 12 0 mysql_use_result
FUNC 39010 11 0 mysql_read_query_result
FUNC 39030 5c 0 set_stmt_errmsg
FUNC 39090 167 0 stmt_read_row_from_cursor
FUNC 39200 1f0 0 reset_stmt_handle
FUNC 393f0 f 0 mysql_stmt_free_result
FUNC 39400 70 0 set_stmt_error
FUNC 39470 21 0 stmt_read_row_no_result_set
FUNC 394a0 111 0 stmt_read_row_unbuffered
FUNC 395c0 3d 0 mysql_stmt_reset
FUNC 39600 7b 0 mysql_stmt_attr_set
FUNC 39680 1fb 0 mysql_stmt_prepare
FUNC 39880 239 0 alloc_stmt_fields
FUNC 39ac0 52 0 cli_read_statistics
FUNC 39b20 70 0 mysql_next_result
FUNC 39b90 26 0 mysql_autocommit
FUNC 39bc0 17 0 mysql_rollback
FUNC 39be0 17 0 mysql_commit
FUNC 39c00 151 0 mysql_stmt_close
FUNC 39d60 1f 0 fetch_result_double
FUNC 39d80 1b 0 fetch_result_float
FUNC 39da0 3a 0 fetch_result_int64
FUNC 39de0 ad 0 store_param_datetime
FUNC 39e90 a5 0 store_param_time
FUNC 39f40 180 0 cli_read_binary_rows
FUNC 3a0c0 4b 0 cli_unbuffered_fetch
FUNC 3a110 37 0 skip_result_string
FUNC 3a150 1e 0 skip_result_with_length
FUNC 3a170 7c 0 fetch_result_str
FUNC 3a1f0 6e 0 fetch_result_bin
FUNC 3a260 361 0 fetch_string_with_conversion
FUNC 3a5d0 35b 0 fetch_long_with_conversion
FUNC 3a930 32a 0 fetch_float_with_conversion
FUNC 3ac60 1ca 0 fetch_datetime_with_conversion
FUNC 3ae30 39e 0 fetch_result_with_conversion
FUNC 3b1d0 110 0 mysql_stmt_fetch_column
FUNC 3b2e0 1d3 0 mysql_stmt_bind_result
FUNC 3b4c0 35a 0 mysql_stmt_store_result
FUNC 3b820 165 0 mysql_stmt_next_result
FUNC 3b990 1f5 0 mysql_stmt_execute
FUNC 3bb90 161 0 mysql_stmt_send_long_data
FUNC 3bd00 3a8 0 mysql_stmt_bind_param
FUNC 3c0b0 61 0 store_param_str
FUNC 3c120 88 0 mysql_stmt_result_metadata
FUNC 3c1b0 113 0 mysql_stmt_init
FUNC 3c2d0 133 0 cli_read_prepare_result
FUNC 3c410 3d 0 mysql_real_escape_string
FUNC 3c450 22 0 mysql_escape_string
FUNC 3c480 62 0 my_net_local_init
FUNC 3c4f0 e6 0 mysql_list_processes
FUNC 3c5e0 148 0 mysql_list_fields
FUNC 3c730 4c 0 default_local_infile_error
FUNC 3c780 67 0 cli_list_fields
FUNC 3c7f0 35 0 mysql_query
FUNC 3c830 e7 0 mysql_list_dbs
FUNC 3c920 37 0 default_local_infile_end
FUNC 3c960 9c 0 default_local_infile_read
FUNC 3ca00 e6 0 default_local_infile_init
FUNC 3caf0 1dd 0 handle_local_infile
FUNC 3ccd0 af 0 read_user_name
FUNC 3cd80 18e 0 mysql_change_user
FUNC 3cf10 a 0 mysql_thread_end
FUNC 3cf20 a 0 mysql_thread_init
FUNC 3cf30 51 0 mysql_server_end
FUNC 3cf90 115 0 mysql_server_init
FUNC 3d0b0 c9 0 store_param_date
FUNC 3d180 d7 0 mysql_list_tables
FUNC 3d260 8c 0 fetch_result_date
FUNC 3d2f0 a1 0 fetch_result_time
FUNC 3d3a0 a1 0 fetch_result_datetime
FUNC 3d450 786 0 cli_stmt_execute
FUNC 3dbe0 27 0 mysql_plugin_options
FUNC 3dc10 139 0 do_add_plugin
FUNC 3dd50 98 0 add_plugin_noargs
FUNC 3ddf0 d1 0 mysql_client_plugin_deinit
FUNC 3ded0 349 0 mysql_load_plugin_v
FUNC 3e220 98 0 mysql_load_plugin
FUNC 3e2c0 12b 0 mysql_client_find_plugin
FUNC 3e3f0 219 0 mysql_client_plugin_init
FUNC 3e610 1a8 0 mysql_client_register_plugin
FUNC 3e7c0 4f 0 calc_days_in_year
FUNC 3e810 1b 0 set_max_hhmmss
FUNC 3e830 d9 0 check_date
FUNC 3e910 27 0 check_time_mmssff_range
FUNC 3e940 4a 0 check_time_range_quick
FUNC 3e990 57 0 check_datetime_range
FUNC 3e9f0 46 0 adjust_time_range
FUNC 3ea40 1a 0 year_2000_handling
FUNC 3ea60 a8 0 calc_daynr
FUNC 3eb10 4f 0 TIME_to_ulonglong_datetime
FUNC 3eb60 25 0 TIME_to_ulonglong_date
FUNC 3eb90 26 0 TIME_to_ulonglong_time
FUNC 3ebc0 4e 0 TIME_set_yymmdd
FUNC 3ec10 4f 0 TIME_set_hhmmss
FUNC 3ec60 36 0 TIME_to_ulonglong
FUNC 3eca0 3f 0 TIME_to_longlong_time_packed
FUNC 3ece0 7d 0 TIME_from_longlong_time_packed
FUNC 3ed60 e 0 my_time_binary_length
FUNC 3ed70 13f 0 my_time_packed_to_binary
FUNC 3eeb0 125 0 my_time_packed_from_binary
FUNC 3efe0 45 0 TIME_to_longlong_datetime_packed
FUNC 3f030 1b 0 TIME_to_longlong_date_packed
FUNC 3f050 12 0 year_to_longlong_datetime_packed
FUNC 3f070 d3 0 TIME_from_longlong_datetime_packed
FUNC 3f150 1f 0 TIME_from_longlong_date_packed
FUNC 3f170 e 0 my_datetime_binary_length
FUNC 3f180 e4 0 my_datetime_packed_from_binary
FUNC 3f270 10f 0 my_datetime_packed_to_binary
FUNC 3f380 e 0 my_timestamp_binary_length
FUNC 3f390 e0 0 my_timestamp_from_binary
FUNC 3f470 b4 0 my_timestamp_to_binary
FUNC 3f530 36 0 TIME_to_longlong_packed
FUNC 3f570 2ca 0 number_to_datetime
FUNC 3f840 30 0 set_zero_time
FUNC 3f870 995 0 str_to_datetime
FUNC 40210 37 0 set_max_time
FUNC 40250 1a5 0 number_to_time
FUNC 40400 187 0 my_datetime_to_str
FUNC 40590 22 0 my_date_to_str
FUNC 405c0 461 0 my_system_gmt_sec
FUNC 40a30 80 0 my_init_time
FUNC 40ab0 68e 0 str_to_time
FUNC 41140 ab 0 my_time_to_str
FUNC 411f0 66 0 my_TIME_to_str
FUNC 41260 8a 0 my_timeval_to_str
FUNC 412f0 e 0 my_net_is_inited
FUNC 41300 62 0 cli_fetch_lengths
FUNC 41370 36 0 mysql_send_query
FUNC 413b0 32 0 mysql_real_query
FUNC 413f0 3a 0 mysql_fetch_lengths
FUNC 41430 10 0 get_attr_key
FUNC 41440 9 0 mysql_num_rows
FUNC 41450 c 0 mysql_num_fields
FUNC 41460 23 0 mysql_errno
FUNC 41490 18 0 mysql_error
FUNC 414b0 3e 0 clear_password_auth_client
FUNC 414f0 44 0 write_string
FUNC 41540 c1 0 native_password_auth_client
FUNC 41610 60 0 write_length_encoded_string4
FUNC 41670 89 0 mysql_select_db
FUNC 41700 89 0 add_init_command
FUNC 41790 7b 0 set_ssl_option_unpack_path
FUNC 41810 7e9 0 mysql_options
FUNC 42000 b5 0 mysql_ssl_set
FUNC 420c0 245 0 mysql_close_free_options
FUNC 42310 92 0 mysql_detach_stmt_list
FUNC 423b0 2c 0 net_clear_error
FUNC 423e0 c0 0 set_mysql_error
FUNC 424a0 11c 0 old_password_auth_client
FUNC 425c0 b4 0 mysql_get_server_version
FUNC 42680 2b3 0 mysql_options4
FUNC 42940 1be 0 mysql_store_result
FUNC 42b00 18d 0 cli_use_result
FUNC 42c90 d2 0 mpvio_info
FUNC 42d70 11 0 client_mpvio_info
FUNC 42d90 105 0 send_client_connect_attrs
FUNC 42ea0 1d1 0 send_change_user_packet
FUNC 43080 22 0 mysql_get_ssl_cipher
FUNC 430b0 cb 0 mysql_init
FUNC 43180 767 0 mysql_read_default_options
FUNC 438f0 72 0 free_old_query
FUNC 43970 37 0 free_rows
FUNC 439b0 523 0 unpack_fields
FUNC 43ee0 cd 0 mysql_free_result
FUNC 43fb0 103 0 end_server
FUNC 440c0 15e 0 cli_safe_read
FUNC 44220 245 0 mysql_fetch_row
FUNC 44470 b 0 cli_read_change_user_result
FUNC 44480 354 0 cli_read_rows
FUNC 447e0 1f8 0 cli_read_query_result
FUNC 449e0 9b 0 opt_flush_ok_packet
FUNC 44a80 64 0 flush_one_result
FUNC 44af0 62 0 cli_flush_use_result
FUNC 44b60 c6 0 set_mysql_extended_error
FUNC 44c30 481 0 run_plugin_auth
FUNC 450c0 7cf 0 send_client_reply_packet
FUNC 45890 c7 0 client_mpvio_write_packet
FUNC 45960 2b5 0 mysql_init_character_set
FUNC 45c20 1ac 0 mysql_set_character_set
FUNC 45dd0 106f 0 mysql_real_connect
FUNC 46e40 16b 0 client_mpvio_read_packet
FUNC 46fb0 12e 0 mysql_close
FUNC 470e0 222 0 mysql_reconnect
FUNC 47310 219 0 cli_advanced_command
FUNC 47530 71 0 net_field_length
FUNC 475b0 71 0 net_field_length_ll
FUNC 47630 71 0 net_store_length
FUNC 476b0 c8 0 int10_to_str
FUNC 47780 11d 0 int2str
FUNC 478a0 28 0 bmove_upp
FUNC 478d0 13 0 my_coll_init_8bit_bin
FUNC 478f0 9 0 my_lengthsp_binary
FUNC 47900 95 0 my_strnncollsp_8bit_bin
FUNC 479a0 8 0 my_case_str_bin
FUNC 479b0 9 0 my_case_bin
FUNC 479c0 b 0 my_mbcharlen_8bit
FUNC 479d0 1b 0 my_mb_wc_bin
FUNC 479f0 20 0 my_wc_mb_bin
FUNC 47a10 c2 0 my_hash_sort_8bit_bin
FUNC 47ae0 4a 0 my_hash_sort_bin
FUNC 47b30 231 0 my_wildcmp_bin_impl
FUNC 47d70 24 0 my_wildcmp_bin
FUNC 47da0 127 0 my_instr_bin
FUNC 47ed0 36 0 my_strnncoll_binary
FUNC 47f10 36 0 my_strnncoll_8bit_bin
FUNC 47f50 10 0 my_strcasecmp_bin
FUNC 47f60 8f 0 my_strnxfrm_8bit_bin
FUNC 47ff0 2b 0 my_strnncollsp_binary
FUNC 48020 87 0 Balloc
FUNC 480b0 36 0 Bfree
FUNC 480f0 391 0 d2b
FUNC 48490 262 0 lshift
FUNC 48700 166 0 multadd
FUNC 48870 915 0 pow5mult
FUNC 49190 1d46 0 my_strtod
FUNC 4aee0 22 0 my_atof
FUNC 4af10 20fd 0 dtoa
FUNC 4d010 32d 0 my_fcvt
FUNC 4d340 6d9 0 my_gcvt
FUNC 4da20 1e 0 strend
FUNC 4da40 9e 0 strxnmov
FUNC 4dae0 3c4 0 my_strtoll10
FUNC 4deb0 16e 0 process_str_arg
FUNC 4e020 1db 0 process_int_arg
FUNC 4e200 848 0 process_args
FUNC 4ea50 5cc 0 my_vsnprintf_ex
FUNC 4f020 1d 0 my_vsnprintf
FUNC 4f040 96 0 my_snprintf
FUNC 4f0e0 1d 0 my_strnxfrmlen_simple
FUNC 4f100 71 0 my_strnncoll_simple
FUNC 4f180 c2 0 my_strnncollsp_simple
FUNC 4f250 39 0 my_caseup_str_8bit
FUNC 4f290 39 0 my_casedn_str_8bit
FUNC 4f2d0 2c 0 my_caseup_8bit
FUNC 4f300 2c 0 my_casedn_8bit
FUNC 4f330 4c 0 my_strcasecmp_8bit
FUNC 4f380 32 0 my_mb_wc_8bit
FUNC 4f3c0 66 0 my_wc_mb_8bit
FUNC 4f430 cf 0 my_hash_sort_simple
FUNC 4f500 203 0 my_strntol_8bit
FUNC 4f710 1b0 0 my_strntoul_8bit
FUNC 4f8c0 219 0 my_strntoll_8bit
FUNC 4fae0 1d5 0 my_strntoull_8bit
FUNC 4fcc0 267 0 my_wildcmp_8bit_impl
FUNC 4ff30 24 0 my_wildcmp_8bit
FUNC 4ff60 281 0 my_like_range_simple
FUNC 501f0 80 0 my_scan_8bit
FUNC 50270 c 0 my_numchars_8bit
FUNC 50280 c 0 my_numcells_8bit
FUNC 50290 9 0 my_charpos_8bit
FUNC 502a0 1a 0 my_well_formed_len_8bit
FUNC 502c0 147 0 my_instr_simple
FUNC 50410 16 0 pcmp
FUNC 50430 54 0 my_coll_init_simple
FUNC 50490 2d 0 my_mb_ctype_8bit
FUNC 504c0 4b5 0 my_strntoull10rnd_8bit
FUNC 50980 b 0 my_propagate_simple
FUNC 50990 8 0 my_propagate_complex
FUNC 509a0 155 0 my_strxfrm_flag_normalize
FUNC 50b00 145 0 my_strxfrm_desc_and_reverse
FUNC 50c50 fc 0 my_strxfrm_pad_desc_and_reverse
FUNC 50d50 b5 0 my_strnxfrm_simple
FUNC 50e10 f 0 my_fill_8bit
FUNC 50e20 267 0 create_fromuni
FUNC 51090 1f 0 my_cset_init_8bit
FUNC 510b0 13 0 my_strtoll10_8bit
FUNC 510d0 117 0 my_longlong10_to_str_8bit
FUNC 511f0 e2 0 my_long10_to_str_8bit
FUNC 512e0 2a 0 my_strntod_8bit
FUNC 51310 9a 0 my_snprintf_8bit
FUNC 513b0 b3 0 my_lengthsp_8bit
FUNC 51470 35 0 strmake
FUNC 514b0 90 0 my_string_repertoire
FUNC 51540 19 0 my_charset_repertoire
FUNC 51560 4a 0 my_charset_is_ascii_based
FUNC 515b0 37 0 my_charset_is_8bit_pure_ascii
FUNC 515f0 37 0 my_charset_is_ascii_compatible
FUNC 51630 c5 0 tailoring_append
FUNC 51700 15c 0 my_parse_charset_xml
FUNC 51860 d9 0 fill_uchar
FUNC 51940 22b 0 cs_leave
FUNC 51b70 2c4 0 my_convert
FUNC 51e40 abf 0 cs_value
FUNC 52900 1c1 0 cs_enter
FUNC 52ad0 22 0 strcend
FUNC 52b00 19 0 my_strnxfrmlen_unicode_full_bin
FUNC 52b20 c9 0 my_utf8_uni
FUNC 52bf0 a6 0 my_uni_utf8
FUNC 52ca0 15a 0 my_casedn_str_utf8
FUNC 52e00 1e 0 my_strnxfrmlen_utf8
FUNC 52e20 2e 0 my_mbcharlen_utf8
FUNC 52e50 131 0 my_mb_wc_filename
FUNC 52f90 184 0 my_wc_mb_filename
FUNC 53120 179 0 my_mb_wc_utf8mb4
FUNC 532a0 d4 0 my_wc_mb_utf8mb4
FUNC 53380 f 0 my_strnxfrmlen_utf8mb4
FUNC 53390 e5 0 my_ismbchar_utf8mb4
FUNC 53480 38 0 my_mbcharlen_utf8mb4
FUNC 534c0 1c1 0 my_strnxfrm_unicode_full_bin
FUNC 53690 1ba 0 my_hash_sort_utf8mb4
FUNC 53850 299 0 my_strnncollsp_utf8mb4
FUNC 53af0 25a 0 my_strnncoll_utf8mb4
FUNC 53d50 351 0 my_strnxfrm_unicode
FUNC 540b0 15a 0 my_caseup_str_utf8
FUNC 54210 eb 0 my_well_formed_len_utf8
FUNC 54300 177 0 my_well_formed_len_utf8mb4
FUNC 54480 175 0 my_caseup_utf8mb4
FUNC 54600 175 0 my_casedn_utf8mb4
FUNC 54780 235 0 my_casedn_str_utf8mb4
FUNC 549c0 235 0 my_caseup_str_utf8mb4
FUNC 54c00 7d 0 my_ismbchar_utf8
FUNC 54c80 3cb 0 my_strnncollsp_utf8
FUNC 55050 396 0 my_strnncoll_utf8
FUNC 553f0 1c7 0 my_caseup_utf8
FUNC 555c0 1c7 0 my_hash_sort_utf8
FUNC 55790 1c7 0 my_casedn_utf8
FUNC 55960 34e 0 my_strcasecmp_utf8mb4
FUNC 55cb0 21c 0 my_strcasecmp_utf8
FUNC 55ed0 4de 0 my_wildcmp_unicode_impl
FUNC 563b0 2d 0 my_wildcmp_unicode
FUNC 563e0 25 0 my_wildcmp_utf8
FUNC 56410 25 0 my_wildcmp_utf8mb4
FUNC 56440 35 0 my_mb_wc_latin1
FUNC 56480 51 0 my_wc_mb_latin1
FUNC 564e0 c4 0 my_strnncoll_latin1_de
FUNC 565b0 109 0 my_strnncollsp_latin1_de
FUNC 566c0 111 0 my_hash_sort_latin1_de
FUNC 567e0 bd 0 my_strnxfrm_latin1_de
FUNC 568a0 17 0 vio_buff_has_data
FUNC 568c0 c 0 vio_type
FUNC 568d0 8 0 vio_fd
FUNC 568e0 c 0 vio_is_no_name_error
FUNC 568f0 41 0 vio_getnameinfo
FUNC 56940 d 0 vio_errno
FUNC 56950 11 0 vio_was_timeout
FUNC 56970 11 0 vio_should_retry
FUNC 56990 bc 0 vio_io_wait
FUNC 56a50 90 0 vio_is_connected
FUNC 56ae0 35 0 vio_socket_io_wait
FUNC 56b20 240 0 vio_peer_addr
FUNC 56d60 4d 0 vio_description
FUNC 56db0 175 0 vio_shutdown
FUNC 56f30 12a 0 vio_write
FUNC 57060 11a 0 vio_read
FUNC 57180 ee 0 vio_read_buff
FUNC 57270 272 0 vio_socket_connect
FUNC 574f0 195 0 vio_fastsend
FUNC 57690 ca 0 vio_get_normalized_ip_string
FUNC 57760 101 0 vio_keepalive
FUNC 57870 ab 0 vio_socket_timeout
FUNC 57920 8 0 has_no_data
FUNC 57930 63 0 vio_timeout
FUNC 579a0 c 0 vio_end
FUNC 579b0 47 0 vio_delete
FUNC 57a00 326 0 mysql_socket_vio_new
FUNC 57d30 32 0 vio_new
FUNC 57d70 39e 0 vio_reset
FUNC 58110 13 0 sslGetErrString
FUNC 58130 22 0 free_vio_ssl_acceptor_fd
FUNC 58160 43 0 report_errors
FUNC 581b0 45 0 ssl_start
FUNC 58200 361 0 new_VioSSLFd
FUNC 58570 65 0 new_VioSSLAcceptorFd
FUNC 585e0 75 0 new_VioSSLConnectorFd
FUNC 58660 17 0 vio_ssl_has_data
FUNC 58680 a 0 yassl_send
FUNC 58690 a 0 yassl_recv
FUNC 586a0 46 0 vio_ssl_shutdown
FUNC 586f0 57 0 vio_ssl_delete
FUNC 58750 ac 0 vio_ssl_write
FUNC 58800 ac 0 vio_ssl_read
FUNC 588b0 19c 0 ssl_do
FUNC 58a50 14 0 sslconnect
FUNC 58a70 14 0 sslaccept
FUNC 58a90 b8 0 my_realpath
FUNC 58b50 3c 0 my_is_symlink
FUNC 58b90 c3 0 my_symlink
FUNC 58c60 cc 0 my_readlink
FUNC 58d30 1f 0 pop_dynamic
FUNC 58d50 5c 0 freeze_size
FUNC 58db0 2b 0 delete_dynamic_element
FUNC 58de0 3e 0 delete_dynamic
FUNC 58e20 36 0 get_dynamic
FUNC 58e60 bd 0 allocate_dynamic
FUNC 58f20 87 0 set_dynamic
FUNC 58fb0 b7 0 alloc_dynamic
FUNC 59070 54 0 insert_dynamic
FUNC 590d0 a9 0 init_dynamic_array2
FUNC 59180 11 0 init_dynamic_array
FUNC 591a0 14e 0 my_multi_malloc
FUNC 592f0 51a 0 my_read
FUNC 59810 6 0 init_glob_errs
FUNC 59820 d 0 get_global_errmsgs
FUNC 59830 8f 0 wait_for_free_space
FUNC 598c0 3d 0 list_add
FUNC 59900 39 0 list_delete
FUNC 59940 2b 0 list_reverse
FUNC 59970 1e 0 list_length
FUNC 59990 42 0 list_walk
FUNC 599e0 53 0 list_cons
FUNC 59a40 57 0 list_free
FUNC 59aa0 5e 0 set_prealloc_root
FUNC 59b00 121 0 free_root
FUNC 59c30 138 0 alloc_root
FUNC 59d70 49 0 memdup_root
FUNC 59dc0 4f 0 strmake_root
FUNC 59e10 36 0 strdup_root
FUNC 59e50 146 0 multi_alloc_root
FUNC 59fa0 cd 0 reset_root_defaults
FUNC 5a070 a3 0 init_alloc_root
FUNC 5a120 7c 0 my_init_mysys_psi_keys
FUNC 5a1a0 1fb 0 my_end
FUNC 5a3a0 1a4 0 my_init
FUNC 5a550 79 0 intern_filename
FUNC 5a5d0 20 0 system_filename
FUNC 5a5f0 380 0 cleanup_dirname
FUNC 5a970 9b 0 normalize_dirname
FUNC 5aa10 180 0 unpack_dirname
FUNC 5ab90 a1 0 unpack_filename
FUNC 5ac40 24d 0 pack_dirname
FUNC 5ae90 6b 0 my_get_err_msg
FUNC 5af00 11 0 my_message
FUNC 5af20 48 0 my_error_unregister_all
FUNC 5af70 69 0 my_error_unregister
FUNC 5afe0 a9 0 my_error_register
FUNC 5b090 54 0 my_printv_error
FUNC 5b0f0 cd 0 my_printf_warning
FUNC 5b1c0 df 0 my_printf_error
FUNC 5b2a0 10f 0 my_error
FUNC 5b3b0 89 0 my_strerror
FUNC 5b440 29 0 get_type
FUNC 5b470 145 0 copy_typelib
FUNC 5b5c0 3c 0 make_type
FUNC 5b600 21c 0 find_type
FUNC 5b820 1bf 0 find_set_from_flags
FUNC 5b9e0 e2 0 find_typeset
FUNC 5bad0 e2 0 find_type_or_exit
FUNC 5bbc0 33 0 cset_hash_sort_adapter
FUNC 5bc00 6a 0 my_hash_reset
FUNC 5bc70 14 0 my_calc_hash
FUNC 5bc90 180 0 my_hash_next
FUNC 5be10 1b 0 my_hash_element
FUNC 5be30 1c 0 my_hash_replace
FUNC 5be50 74 0 my_hash_free
FUNC 5bed0 66 0 _my_hash_init
FUNC 5bf40 1a2 0 my_hash_first_from_hash_value
FUNC 5c0f0 87 0 my_hash_first
FUNC 5c180 13 0 my_hash_search
FUNC 5c1a0 13 0 my_hash_search_using_hash_value
FUNC 5c1c0 304 0 my_hash_update
FUNC 5c4d0 4e0 0 my_hash_insert
FUNC 5c9b0 3fc 0 my_hash_delete
FUNC 5cdb0 6 0 proc_info_dummy
FUNC 5cdc0 58 0 strlength
FUNC 5ce20 307 0 fn_format
FUNC 5d130 33 0 dirname_length
FUNC 5d170 6d 0 convert_dirname
FUNC 5d1e0 5a 0 dirname_part
FUNC 5d240 a 0 my_free
FUNC 5d250 c6 0 my_malloc
FUNC 5d320 51 0 my_strndup
FUNC 5d380 53 0 my_strdup
FUNC 5d3e0 4b 0 my_memdup
FUNC 5d430 ba 0 my_realloc
FUNC 5d4f0 49 0 my_filename
FUNC 5d540 3d 0 my_once_free
FUNC 5d580 118 0 my_once_alloc
FUNC 5d6a0 4b 0 my_once_memdup
FUNC 5d6f0 53 0 my_once_strdup
FUNC 5d750 46 0 test_if_hard_path
FUNC 5d7a0 16 0 has_path
FUNC 5d7c0 125 0 my_setwd
FUNC 5d8f0 f7 0 my_getwd
FUNC 5d9f0 6 0 default_reporter
FUNC 5da00 60 0 my_charset_loader_init_mysys
FUNC 5da60 1a 0 add_compiled_collation
FUNC 5da80 10 0 free_charsets
FUNC 5da90 2de 0 escape_string_for_mysql
FUNC 5dd70 213 0 escape_quotes_for_mysql
FUNC 5df90 60 0 get_charset_name
FUNC 5dff0 14d 0 get_charset_number
FUNC 5e140 f 0 my_malloc_c
FUNC 5e150 2f3 0 my_read_charset_file
FUNC 5e450 1a5 0 init_state_maps
FUNC 5e600 f 0 my_once_alloc_c
FUNC 5e610 c6 0 get_charsets_dir
FUNC 5e6e0 1cf 0 get_internal_charset
FUNC 5e8b0 bd 0 my_charset_get_by_name
FUNC 5e970 56 0 get_charset_by_csname
FUNC 5e9d0 58 0 resolve_charset
FUNC 5ea30 aa 0 init_available_charsets
FUNC 5eae0 e9 0 get_charset
FUNC 5ebd0 22 0 my_charset_same
FUNC 5ec00 74e 0 add_collation
FUNC 5f350 f 0 my_realloc_c
FUNC 5f360 139 0 get_collation_number
FUNC 5f4a0 c5 0 my_collation_get_by_name
FUNC 5f570 48 0 get_charset_by_name
FUNC 5f5c0 42 0 resolve_collation
FUNC 5f610 1ad 0 my_close
FUNC 5f7c0 29c 0 my_register_filename
FUNC 5fa60 47 0 my_open
FUNC 5fab0 15c 0 my_load_path
FUNC 5fc10 96 0 my_message_stderr
FUNC 5fcb0 14 0 thr_set_sync_wait_callback
FUNC 5fcd0 128 0 my_sync
FUNC 5fe00 7c 0 my_sync_dir
FUNC 5fe80 41 0 my_sync_dir_by_file
FUNC 5fed0 d 0 my_thread_name
FUNC 5fee0 2a 0 set_mysys_var
FUNC 5ff10 27 0 _my_thread_var
FUNC 5ff40 12 0 my_thread_dbug_id
FUNC 5ff60 3c 0 inline_mysql_mutex_init
FUNC 5ffa0 2d 0 inline_mysql_cond_init
FUNC 5ffd0 15b 0 my_thread_init
FUNC 60130 31c 0 my_thread_global_reinit
FUNC 60450 434 0 my_thread_global_end
FUNC 60890 215 0 my_thread_global_init
FUNC 60ab0 15a 0 my_thread_end
FUNC 60c10 6 0 register_mutex_noop
FUNC 60c20 6 0 register_rwlock_noop
FUNC 60c30 6 0 register_cond_noop
FUNC 60c40 6 0 register_thread_noop
FUNC 60c50 6 0 register_file_noop
FUNC 60c60 6 0 register_stage_noop
FUNC 60c70 6 0 register_statement_noop
FUNC 60c80 6 0 register_socket_noop
FUNC 60c90 8 0 init_mutex_noop
FUNC 60ca0 6 0 destroy_mutex_noop
FUNC 60cb0 8 0 init_rwlock_noop
FUNC 60cc0 6 0 destroy_rwlock_noop
FUNC 60cd0 8 0 init_cond_noop
FUNC 60ce0 6 0 destroy_cond_noop
FUNC 60cf0 8 0 init_socket_noop
FUNC 60d00 6 0 destroy_socket_noop
FUNC 60d10 8 0 get_table_share_noop
FUNC 60d20 6 0 release_table_share_noop
FUNC 60d30 6 0 drop_table_share_noop
FUNC 60d40 8 0 open_table_noop
FUNC 60d50 6 0 unbind_table_noop
FUNC 60d60 8 0 rebind_table_noop
FUNC 60d70 6 0 close_table_noop
FUNC 60d80 6 0 create_file_noop
FUNC 60d90 8 0 new_thread_noop
FUNC 60da0 6 0 set_thread_id_noop
FUNC 60db0 8 0 get_thread_noop
FUNC 60dc0 6 0 set_thread_user_noop
FUNC 60dd0 6 0 set_thread_user_host_noop
FUNC 60de0 6 0 set_thread_db_noop
FUNC 60df0 6 0 set_thread_command_noop
FUNC 60e00 6 0 set_thread_start_time_noop
FUNC 60e10 6 0 set_thread_state_noop
FUNC 60e20 6 0 set_thread_info_noop
FUNC 60e30 6 0 set_thread_noop
FUNC 60e40 6 0 delete_current_thread_noop
FUNC 60e50 6 0 delete_thread_noop
FUNC 60e60 8 0 get_thread_file_name_locker_noop
FUNC 60e70 8 0 get_thread_file_stream_locker_noop
FUNC 60e80 8 0 get_thread_file_descriptor_locker_noop
FUNC 60e90 6 0 unlock_mutex_noop
FUNC 60ea0 6 0 unlock_rwlock_noop
FUNC 60eb0 6 0 signal_cond_noop
FUNC 60ec0 6 0 broadcast_cond_noop
FUNC 60ed0 8 0 start_idle_wait_noop
FUNC 60ee0 6 0 end_idle_wait_noop
FUNC 60ef0 8 0 start_mutex_wait_noop
FUNC 60f00 6 0 end_mutex_wait_noop
FUNC 60f10 8 0 start_rwlock_rdwait_noop
FUNC 60f20 6 0 end_rwlock_rdwait_noop
FUNC 60f30 8 0 start_rwlock_wrwait_noop
FUNC 60f40 6 0 end_rwlock_wrwait_noop
FUNC 60f50 8 0 start_cond_wait_noop
FUNC 60f60 6 0 end_cond_wait_noop
FUNC 60f70 8 0 start_table_io_wait_noop
FUNC 60f80 6 0 end_table_io_wait_noop
FUNC 60f90 8 0 start_table_lock_wait_noop
FUNC 60fa0 6 0 end_table_lock_wait_noop
FUNC 60fb0 6 0 start_file_open_wait_noop
FUNC 60fc0 8 0 end_file_open_wait_noop
FUNC 60fd0 6 0 end_file_open_wait_and_bind_to_descriptor_noop
FUNC 60fe0 6 0 start_file_wait_noop
FUNC 60ff0 6 0 end_file_wait_noop
FUNC 61000 6 0 start_file_close_wait_noop
FUNC 61010 6 0 end_file_close_wait_noop
FUNC 61020 6 0 start_stage_noop
FUNC 61030 6 0 end_stage_noop
FUNC 61040 8 0 get_thread_statement_locker_noop
FUNC 61050 8 0 refine_statement_noop
FUNC 61060 6 0 start_statement_noop
FUNC 61070 6 0 set_statement_text_noop
FUNC 61080 6 0 set_statement_lock_time_noop
FUNC 61090 6 0 set_statement_rows_sent_noop
FUNC 610a0 6 0 set_statement_rows_examined_noop
FUNC 610b0 6 0 inc_statement_created_tmp_disk_tables_noop
FUNC 610c0 6 0 inc_statement_created_tmp_tables_noop
FUNC 610d0 6 0 inc_statement_select_full_join_noop
FUNC 610e0 6 0 inc_statement_select_full_range_join_noop
FUNC 610f0 6 0 inc_statement_select_range_noop
FUNC 61100 6 0 inc_statement_select_range_check_noop
FUNC 61110 6 0 inc_statement_select_scan_noop
FUNC 61120 6 0 inc_statement_sort_merge_passes_noop
FUNC 61130 6 0 inc_statement_sort_range_noop
FUNC 61140 6 0 inc_statement_sort_rows_noop
FUNC 61150 6 0 inc_statement_sort_scan_noop
FUNC 61160 6 0 set_statement_no_index_used_noop
FUNC 61170 6 0 set_statement_no_good_index_used_noop
FUNC 61180 6 0 end_statement_noop
FUNC 61190 8 0 start_socket_wait_noop
FUNC 611a0 6 0 end_socket_wait_noop
FUNC 611b0 6 0 set_socket_state_noop
FUNC 611c0 6 0 set_socket_info_noop
FUNC 611d0 6 0 set_socket_thread_owner_noop
FUNC 611e0 8 0 digest_start_noop
FUNC 611f0 6 0 digest_end_noop
FUNC 61200 8 0 set_thread_connect_attrs_noop
FUNC 61210 10 0 set_psi_server
FUNC 61220 16 0 spawn_thread_noop
FUNC 61240 1d 0 my_time_possible_from_micro
FUNC 61260 42 0 my_micro_time_and_time
FUNC 612b0 34 0 my_micro_time
FUNC 612f0 51 0 my_time
FUNC 61350 3d 0 my_getsystime
FUNC 61390 10 0 my_getopt_is_args_separator
FUNC 613a0 ac 0 check_file_permissions
FUNC 61450 a1 0 my_default_get_login_file
FUNC 61500 64 0 add_directory
FUNC 61570 da 0 init_default_directories
FUNC 61650 1e6 0 my_print_default_files
FUNC 61840 be 0 print_defaults
FUNC 61900 50 0 free_defaults
FUNC 61950 90 0 handle_default_option
FUNC 619e0 1ba 0 get_defaults_options
FUNC 61ba0 70 0 fn_expand
FUNC 61c10 d9 0 inline_mysql_file_fread
FUNC 61cf0 f6c 0 search_default_file_with_ext
FUNC 62c60 66b 0 my_search_option_files
FUNC 632d0 471 0 my_load_defaults
FUNC 63750 11 0 load_defaults
FUNC 63770 c 0 my_aes_get_size
FUNC 63780 c 0 my_aes_needs_iv
FUNC 63790 955 0 my_aes_encrypt
FUNC 640f0 980 0 my_aes_decrypt
FUNC 64a70 10 0 TaoCrypt::Mode_BASE::~Mode_BASE
FUNC 64a80 15b 0 TaoCrypt::Mode_BASE::Process
FUNC 64be0 14 0 TaoCrypt::Mode_BASE::~Mode_BASE
FUNC 64c00 6c 0 my_aes_create_key
FUNC 64c70 8 0 __cxa_pure_virtual
FUNC 64c80 19 0 yaSSL::c32to24
FUNC 64ca0 23 0 yaSSL::c24to32
FUNC 64cd0 1b 0 yaSSL::c24to32
FUNC 64cf0 1a 0 yaSSL::ato16
FUNC 64d10 19 0 yaSSL::ato24
FUNC 64d30 12 0 yaSSL::c16toa
FUNC 64d50 19 0 yaSSL::c24toa
FUNC 64d70 21 0 yaSSL::c32toa
FUNC 64da0 5a 0 yaSSL::States::States
FUNC 64e00 9 0 yaSSL::States::getRecord
FUNC 64e10 a 0 yaSSL::States::getHandShake
FUNC 64e20 a 0 yaSSL::States::getClient
FUNC 64e30 a 0 yaSSL::States::getServer
FUNC 64e40 a 0 yaSSL::States::GetConnect
FUNC 64e50 a 0 yaSSL::States::GetAccept
FUNC 64e60 a 0 yaSSL::States::getString
FUNC 64e70 9 0 yaSSL::States::What
FUNC 64e80 9 0 yaSSL::States::useRecord
FUNC 64e90 a 0 yaSSL::States::useHandShake
FUNC 64ea0 a 0 yaSSL::States::useClient
FUNC 64eb0 a 0 yaSSL::States::useServer
FUNC 64ec0 a 0 yaSSL::States::UseConnect
FUNC 64ed0 a 0 yaSSL::States::UseAccept
FUNC 64ee0 a 0 yaSSL::States::useString
FUNC 64ef0 9 0 yaSSL::States::SetError
FUNC 64f00 117 0 yaSSL::States::SetMessageRecvd
FUNC 65020 9 0 yaSSL::sslFactory::getMessage
FUNC 65030 a 0 yaSSL::sslFactory::getHandShake
FUNC 65040 a 0 yaSSL::sslFactory::getServerKey
FUNC 65050 a 0 yaSSL::sslFactory::getClientKey
FUNC 65060 b 0 yaSSL::SSL::SetCompression
FUNC 65070 d 0 yaSSL::SSL::UnSetCompression
FUNC 65080 d 0 yaSSL::SSL::CompressionOn
FUNC 65090 c 0 yaSSL::SSL::SetError
FUNC 650a0 d 0 yaSSL::SSL::SetQuietShutdown
FUNC 650b0 d 0 yaSSL::SSL::useBuffers
FUNC 650c0 10 0 yaSSL::SSL::order_error
FUNC 650d0 89 0 yaSSL::SSL::setKeys
FUNC 65160 31 0 yaSSL::SSL::get_SEQIncrement
FUNC 651a0 36 0 yaSSL::SSL::get_macSecret
FUNC 651e0 50 0 yaSSL::SSL::verifyState
FUNC 65230 22 0 yaSSL::SSL::verifyState
FUNC 65260 24 0 yaSSL::SSL::verifyState
FUNC 65290 25 0 yaSSL::SSL::verfiyHandShakeComplete
FUNC 652c0 a1 0 yaSSL::SSL::verifyClientState
FUNC 65370 84 0 yaSSL::SSL::verifyServerState
FUNC 65400 b0 0 yaSSL::SSL::matchSuite
FUNC 654b0 9 0 yaSSL::SSL::getCrypto
FUNC 654c0 d 0 yaSSL::SSL::getSecurity
FUNC 654d0 d 0 yaSSL::SSL::getStates
FUNC 654e0 d 0 yaSSL::SSL::getHashes
FUNC 654f0 d 0 yaSSL::SSL::getSocket
FUNC 65500 c 0 yaSSL::SSL::GetError
FUNC 65510 d 0 yaSSL::SSL::GetQuietShutdown
FUNC 65520 14 0 yaSSL::SSL::GetMultiProtocol
FUNC 65540 9 0 yaSSL::SSL::useCrypto
FUNC 65550 d 0 yaSSL::SSL::useSecurity
FUNC 65560 d 0 yaSSL::SSL::useStates
FUNC 65570 d 0 yaSSL::SSL::useHashes
FUNC 65580 d 0 yaSSL::SSL::useSocket
FUNC 65590 d 0 yaSSL::SSL::useLog
FUNC 655a0 d 0 yaSSL::SSL::isTLS
FUNC 655b0 d 0 yaSSL::SSL::isTLSv1_1
FUNC 655c0 d 0 yaSSL::SSL::HasData
FUNC 655d0 9 0 yaSSL::SSL_SESSION::GetID
FUNC 655e0 a 0 yaSSL::SSL_SESSION::GetSecret
FUNC 655f0 a 0 yaSSL::SSL_SESSION::GetSuite
FUNC 65600 a 0 yaSSL::SSL_SESSION::GetPeerX509
FUNC 65610 9 0 yaSSL::SSL_SESSION::GetBornOn
FUNC 65620 9 0 yaSSL::SSL_SESSION::GetTimeOut
FUNC 65630 9 0 yaSSL::SSL_SESSION::SetTimeOut
FUNC 65640 1b 0 yaSSL::SSL_METHOD::SSL_METHOD
FUNC 65660 9 0 yaSSL::SSL_METHOD::getVersion
FUNC 65670 9 0 yaSSL::SSL_METHOD::getSide
FUNC 65680 a 0 yaSSL::SSL_METHOD::setVerifyPeer
FUNC 65690 a 0 yaSSL::SSL_METHOD::setVerifyNone
FUNC 656a0 a 0 yaSSL::SSL_METHOD::setFailNoCert
FUNC 656b0 a 0 yaSSL::SSL_METHOD::verifyPeer
FUNC 656c0 a 0 yaSSL::SSL_METHOD::verifyNone
FUNC 656d0 a 0 yaSSL::SSL_METHOD::failNoCert
FUNC 656e0 a 0 yaSSL::SSL_METHOD::multipleProtocol
FUNC 656f0 a 0 yaSSL::SSL_CTX::GetCA_List
FUNC 65700 d 0 yaSSL::SSL_CTX::getVerifyCallback
FUNC 65710 a 0 yaSSL::SSL_CTX::getCert
FUNC 65720 a 0 yaSSL::SSL_CTX::getKey
FUNC 65730 9 0 yaSSL::SSL_CTX::getMethod
FUNC 65740 a 0 yaSSL::SSL_CTX::GetCiphers
FUNC 65750 d 0 yaSSL::SSL_CTX::GetDH_Parms
FUNC 65760 d 0 yaSSL::SSL_CTX::GetStats
FUNC 65770 d 0 yaSSL::SSL_CTX::GetPasswordCb
FUNC 65780 d 0 yaSSL::SSL_CTX::SetPasswordCb
FUNC 65790 d 0 yaSSL::SSL_CTX::GetUserData
FUNC 657a0 d 0 yaSSL::SSL_CTX::GetSessionCacheOff
FUNC 657b0 d 0 yaSSL::SSL_CTX::GetSessionCacheFlushOff
FUNC 657c0 d 0 yaSSL::SSL_CTX::SetUserData
FUNC 657d0 d 0 yaSSL::SSL_CTX::SetSessionCacheOff
FUNC 657e0 d 0 yaSSL::SSL_CTX::SetSessionCacheFlushOff
FUNC 657f0 d 0 yaSSL::SSL_CTX::setVerifyPeer
FUNC 65800 d 0 yaSSL::SSL_CTX::setVerifyNone
FUNC 65810 d 0 yaSSL::SSL_CTX::setFailNoCert
FUNC 65820 d 0 yaSSL::SSL_CTX::setVerifyCallback
FUNC 65830 9 0 yaSSL::Crypto::get_digest
FUNC 65840 a 0 yaSSL::Crypto::get_cipher
FUNC 65850 a 0 yaSSL::Crypto::get_dh
FUNC 65860 a 0 yaSSL::Crypto::get_random
FUNC 65870 a 0 yaSSL::Crypto::get_certManager
FUNC 65880 9 0 yaSSL::Crypto::use_digest
FUNC 65890 a 0 yaSSL::Crypto::use_cipher
FUNC 658a0 a 0 yaSSL::Crypto::use_dh
FUNC 658b0 a 0 yaSSL::Crypto::use_random
FUNC 658c0 a 0 yaSSL::Crypto::use_certManager
FUNC 658d0 a 0 yaSSL::Crypto::SetDH
FUNC 658e0 e 0 yaSSL::Crypto::DhSet
FUNC 658f0 9 0 yaSSL::Crypto::setDigest
FUNC 65900 a 0 yaSSL::Crypto::setCipher
FUNC 65910 9 0 yaSSL::sslHashes::get_MD5
FUNC 65920 a 0 yaSSL::sslHashes::get_SHA
FUNC 65930 a 0 yaSSL::sslHashes::get_verify
FUNC 65940 a 0 yaSSL::sslHashes::get_certVerify
FUNC 65950 9 0 yaSSL::sslHashes::use_MD5
FUNC 65960 a 0 yaSSL::sslHashes::use_SHA
FUNC 65970 a 0 yaSSL::sslHashes::use_verify
FUNC 65980 a 0 yaSSL::sslHashes::use_certVerify
FUNC 65990 53 0 yaSSL::Buffers::Buffers
FUNC 659f0 a 0 yaSSL::Buffers::SetOutput
FUNC 65a00 a 0 yaSSL::Buffers::SetRawInput
FUNC 65a10 12 0 yaSSL::Buffers::TakeRawInput
FUNC 65a30 12 0 yaSSL::Buffers::TakeOutput
FUNC 65a50 a 0 yaSSL::Buffers::getData
FUNC 65a60 a 0 yaSSL::Buffers::getHandShake
FUNC 65a70 a 0 yaSSL::Buffers::useData
FUNC 65a80 a 0 yaSSL::Buffers::useHandShake
FUNC 65a90 9 0 yaSSL::Security::get_connection
FUNC 65aa0 d 0 yaSSL::Security::GetContext
FUNC 65ab0 d 0 yaSSL::Security::get_parms
FUNC 65ac0 d 0 yaSSL::Security::get_resume
FUNC 65ad0 d 0 yaSSL::Security::get_resuming
FUNC 65ae0 9 0 yaSSL::Security::use_connection
FUNC 65af0 d 0 yaSSL::Security::use_parms
FUNC 65b00 d 0 yaSSL::Security::use_resume
FUNC 65b10 d 0 yaSSL::Security::set_resuming
FUNC 65b20 9 0 yaSSL::X509_NAME::GetName
FUNC 65b30 a 0 yaSSL::X509_NAME::GetLength
FUNC 65b40 9 0 yaSSL::X509::GetIssuer
FUNC 65b50 a 0 yaSSL::X509::GetSubject
FUNC 65b60 a 0 yaSSL::X509::GetBefore
FUNC 65b70 a 0 yaSSL::X509::GetAfter
FUNC 65b80 9 0 yaSSL::StringHolder::GetString
FUNC 65b90 b 0 yaSSL::Compress
FUNC 65ba0 b 0 yaSSL::DeCompress
FUNC 65bb0 66 0 yaSSL::SSL_CTX::AddCA
FUNC 65c20 79 0 yaSSL::SSL::addBuffer
FUNC 65ca0 89 0 yaSSL::SSL::addData
FUNC 65d30 61 0 yaSSL::StringHolder::StringHolder
FUNC 65da0 98 0 yaSSL::X509_NAME::GetEntry
FUNC 65e40 55 0 yaSSL::X509_NAME::X509_NAME
FUNC 65ea0 a1 0 yaSSL::::setPrefix
FUNC 65f50 36 0 yaSSL::SSL::set_sessionID
FUNC 65f90 3f 0 yaSSL::SSL::set_masterSecret
FUNC 65fd0 4b 0 yaSSL::SSL::set_random
FUNC 66020 6e 0 yaSSL::Crypto::SetDH
FUNC 66090 78 0 yaSSL::Crypto::~Crypto
FUNC 66110 5e 0 yaSSL::Crypto::Crypto
FUNC 66170 15d 0 yaSSL::SSL_CTX::IncrementStats
FUNC 662d0 162 0 yaSSL::SSL_CTX::SetCipherList
FUNC 66440 4d 0 yaSSL::SSL_CTX::SetDH
FUNC 66490 9b 0 yaSSL::GetErrors
FUNC 66530 9f 0 yaSSL::Session_initialize
FUNC 665d0 a 0 yaSSL::c_session_initialize
FUNC 665e0 193 0 yaSSL::SSL_CTX::SSL_CTX
FUNC 66780 a1 0 yaSSL::default_password_callback
FUNC 66830 14 0 yaSSL::yassl_mysql_strdup
FUNC 66850 a 0 yaSSL::yassl_int_cpp_local2::GetSelf
FUNC 66860 20 0 yaSSL::GetSessions
FUNC 66880 59 0 yaSSL::SSL_SESSION::SSL_SESSION
FUNC 668e0 b9 0 yaSSL::SSL::Send
FUNC 669a0 3d 0 yaSSL::SSL::bufferedData
FUNC 669e0 a7 0 yaSSL::SSL::set_preMaster
FUNC 66a90 ff5 0 yaSSL::SSL::set_pending
FUNC 67a90 eb 0 yaSSL::sslFactory::sslFactory
FUNC 67b80 70 0 yaSSL::GetSSL_Factory
FUNC 67bf0 164 0 yaSSL::SSL::PeekData
FUNC 67d60 1f0 0 yaSSL::SSL::fillData
FUNC 67f50 1a 0 yaSSL::StringHolder::~StringHolder
FUNC 67f70 37 0 yaSSL::X509_NAME::~X509_NAME
FUNC 67fb0 135 0 yaSSL::Buffers::~Buffers
FUNC 680f0 16e 0 yaSSL::X509::X509
FUNC 68260 de 0 yaSSL::SSL_SESSION::CopyX509
FUNC 68340 70 0 yaSSL::SSL::getFactory
FUNC 683b0 10f 0 yaSSL::Errors::Lookup
FUNC 684c0 fd 0 yaSSL::Security::Security
FUNC 685c0 2d 0 yaSSL::SSL_SESSION::~SSL_SESSION
FUNC 685f0 da 0 yaSSL::Sessions::~Sessions
FUNC 686d0 b8 0 yayaSSL_CleanUp
FUNC 68790 151 0 yaSSL::Sessions::Flush
FUNC 688f0 41a 0 yaSSL::SSL::SSL
FUNC 68d10 129 0 yaSSL::SSL_CTX::~SSL_CTX
FUNC 68e40 168 0 yaSSL::SSL_SESSION::operator=
FUNC 68fb0 161 0 yaSSL::Sessions::lookup
FUNC 69120 8b 0 yaSSL::SSL::set_session
FUNC 691b0 17a 0 yaSSL::SSL_SESSION::SSL_SESSION
FUNC 69330 105 0 yaSSL::Sessions::add
FUNC 69440 169 0 yaSSL::SSL::storeKeys
FUNC 695b0 134 0 yaSSL::SSL::deriveTLSKeys
FUNC 696f0 ae 0 yaSSL::SSL::makeTLSMasterSecret
FUNC 697a0 2fa 0 yaSSL::SSL::deriveKeys
FUNC 69aa0 f5 0 yaSSL::Errors::Remove
FUNC 69ba0 b8 0 yaSSL::Errors::Add
FUNC 69c60 139 0 yaSSL::Sessions::remove
FUNC 69da0 10e 0 yaSSL::SSL::SendWriteBuffered
FUNC 69eb0 1f7 0 yaSSL::SSL::flushBuffer
FUNC 6a0b0 4f1 0 yaSSL::SSL::makeMasterSecret
FUNC 6a5b0 1f0 0 yaSSL::SSL::verifyState
FUNC 6a7a0 10 0 yaSSL::HandShakeBase::~HandShakeBase
FUNC 6a7b0 14 0 yaSSL::HandShakeBase::~HandShakeBase
FUNC 6a7d0 12 0 yaSSL::ysArrayDelete<unsigned char>
FUNC 6a7f0 3b 0 yaSSL::DH_Parms::~DH_Parms
FUNC 6a830 67 0 yaSSL::ysDelete<yaSSL::sslFactory>
FUNC 6a8a0 7f 0 yaSSL::ysDelete<yaSSL::X509>
FUNC 6a920 8 0 __cxa_pure_virtual
FUNC 6a930 18 0 yaSSL::lowResTimer
FUNC 6a950 2d 0 yaSSL::timer
FUNC 6a980 8 0 __cxa_pure_virtual
FUNC 6a990 6 0 yaSSL::Log::Log
FUNC 6a9a0 6 0 yaSSL::Log::~Log
FUNC 6a9b0 6 0 yaSSL::Log::Trace
FUNC 6a9c0 6 0 yaSSL::Log::ShowTCP
FUNC 6a9d0 6 0 yaSSL::Log::ShowData
FUNC 6a9e0 8 0 __cxa_pure_virtual
FUNC 6a9f0 b 0 yaSSL::MD5::get_digestSize
FUNC 6aa00 b 0 yaSSL::MD5::get_padSize
FUNC 6aa10 b 0 yaSSL::SHA::get_digestSize
FUNC 6aa20 b 0 yaSSL::SHA::get_padSize
FUNC 6aa30 b 0 yaSSL::RMD::get_digestSize
FUNC 6aa40 b 0 yaSSL::RMD::get_padSize
FUNC 6aa50 b 0 yaSSL::HMAC_MD5::get_digestSize
FUNC 6aa60 b 0 yaSSL::HMAC_MD5::get_padSize
FUNC 6aa70 b 0 yaSSL::HMAC_SHA::get_digestSize
FUNC 6aa80 b 0 yaSSL::HMAC_SHA::get_padSize
FUNC 6aa90 b 0 yaSSL::HMAC_RMD::get_digestSize
FUNC 6aaa0 b 0 yaSSL::HMAC_RMD::get_padSize
FUNC 6aab0 10 0 yaSSL::AES::get_keySize
FUNC 6aac0 c 0 yaSSL::RandomPool::GetError
FUNC 6aad0 d 0 yaSSL::DiffieHellman::get_agreedKey
FUNC 6aae0 c 0 yaSSL::DiffieHellman::get_publicKeyLength
FUNC 6aaf0 d 0 yaSSL::DiffieHellman::get_publicKey
FUNC 6ab00 46 0 yaSSL::AES::~AES
FUNC 6ab50 30 0 yaSSL::RC4::~RC4
FUNC 6ab80 46 0 yaSSL::DES_EDE::~DES_EDE
FUNC 6abd0 46 0 yaSSL::DES::~DES
FUNC 6ac20 40 0 yaSSL::HMAC_RMD::~HMAC_RMD
FUNC 6ac60 40 0 yaSSL::HMAC_SHA::~HMAC_SHA
FUNC 6aca0 40 0 yaSSL::HMAC_MD5::~HMAC_MD5
FUNC 6ace0 3f 0 yaSSL::RMD::~RMD
FUNC 6ad20 3f 0 yaSSL::SHA::~SHA
FUNC 6ad60 3f 0 yaSSL::MD5::~MD5
FUNC 6ada0 b7 0 yaSSL::AES::AES
FUNC 6ae60 3d 0 yaSSL::RC4::RC4
FUNC 6aea0 b1 0 yaSSL::DES_EDE::DES_EDE
FUNC 6af60 b1 0 yaSSL::DES::DES
FUNC 6b020 58 0 yaSSL::Integer::Integer
FUNC 6b080 d 0 yaSSL::DiffieHellman::get_agreedKeyLength
FUNC 6b090 e 0 yaSSL::RSA::get_cipherLength
FUNC 6b0a0 e 0 yaSSL::RSA::get_signatureLength
FUNC 6b0b0 1b 0 yaSSL::DiffieHellman::makeAgreement
FUNC 6b0d0 4a 0 yaSSL::Integer::Integer
FUNC 6b120 21 0 yaSSL::Integer::operator=
FUNC 6b150 e 0 yaSSL::DSS::get_signatureLength
FUNC 6b160 d 0 yaSSL::RandomPool::Fill
FUNC 6b170 37 0 yaSSL::RandomPool::~RandomPool
FUNC 6b1b0 4a 0 yaSSL::RandomPool::RandomPool
FUNC 6b200 50 0 yaSSL::AES::set_decryptKey
FUNC 6b250 43 0 yaSSL::AES::set_encryptKey
FUNC 6b2a0 15 0 yaSSL::RC4::decrypt
FUNC 6b2c0 e 0 yaSSL::RC4::encrypt
FUNC 6b2d0 1a 0 yaSSL::RC4::set_decryptKey
FUNC 6b2f0 13 0 yaSSL::RC4::set_encryptKey
FUNC 6b310 43 0 yaSSL::DES_EDE::set_decryptKey
FUNC 6b360 39 0 yaSSL::DES_EDE::set_encryptKey
FUNC 6b3a0 4d 0 yaSSL::DES::set_decryptKey
FUNC 6b3f0 41 0 yaSSL::DES::set_encryptKey
FUNC 6b440 e 0 yaSSL::RMD::update
FUNC 6b450 e 0 yaSSL::SHA::update
FUNC 6b460 e 0 yaSSL::MD5::update
FUNC 6b470 d1 0 yaSSL::HMAC_RMD::get_digest
FUNC 6b550 d1 0 yaSSL::HMAC_SHA::get_digest
FUNC 6b630 d1 0 yaSSL::HMAC_MD5::get_digest
FUNC 6b710 e 0 yaSSL::RMD::get_digest
FUNC 6b720 3a 0 yaSSL::RMD::get_digest
FUNC 6b760 e 0 yaSSL::SHA::get_digest
FUNC 6b770 3a 0 yaSSL::SHA::get_digest
FUNC 6b7b0 e 0 yaSSL::MD5::get_digest
FUNC 6b7c0 3a 0 yaSSL::MD5::get_digest
FUNC 6b800 15a 0 yaSSL::HMAC_RMD::HMAC_RMD
FUNC 6b960 15a 0 yaSSL::HMAC_SHA::HMAC_SHA
FUNC 6bac0 15a 0 yaSSL::HMAC_MD5::HMAC_MD5
FUNC 6bc20 23 0 yaSSL::RMD::operator=
FUNC 6bc50 71 0 yaSSL::RMD::RMD
FUNC 6bcd0 23 0 yaSSL::SHA::operator=
FUNC 6bd00 71 0 yaSSL::SHA::SHA
FUNC 6bd80 23 0 yaSSL::MD5::operator=
FUNC 6bdb0 71 0 yaSSL::MD5::MD5
FUNC 6be30 37 0 yaSSL::RC4::~RC4
FUNC 6be70 46 0 yaSSL::MD5::~MD5
FUNC 6bec0 46 0 yaSSL::SHA::~SHA
FUNC 6bf10 46 0 yaSSL::RMD::~RMD
FUNC 6bf60 47 0 yaSSL::HMAC_MD5::~HMAC_MD5
FUNC 6bfb0 47 0 yaSSL::HMAC_SHA::~HMAC_SHA
FUNC 6c000 47 0 yaSSL::HMAC_RMD::~HMAC_RMD
FUNC 6c050 4d 0 yaSSL::DES::~DES
FUNC 6c0a0 4d 0 yaSSL::DES_EDE::~DES_EDE
FUNC 6c0f0 4d 0 yaSSL::AES::~AES
FUNC 6c140 62 0 yaSSL::HMAC_SHA::update
FUNC 6c1b0 62 0 yaSSL::HMAC_MD5::update
FUNC 6c220 62 0 yaSSL::HMAC_RMD::update
FUNC 6c290 92 0 yaSSL::SHA::SHA
FUNC 6c330 92 0 yaSSL::RMD::RMD
FUNC 6c3d0 92 0 yaSSL::MD5::MD5
FUNC 6c470 698 0 yaSSL::PemToDer
FUNC 6cb10 90 0 yaSSL::RSA::RSAImpl::SetPublic
FUNC 6cba0 90 0 yaSSL::DSS::DSSImpl::SetPublic
FUNC 6cc30 110 0 yaSSL::DiffieHellman::DiffieHellman
FUNC 6cd40 84 0 yaSSL::HMAC_SHA::get_digest
FUNC 6cdd0 84 0 yaSSL::HMAC_RMD::get_digest
FUNC 6ce60 84 0 yaSSL::HMAC_MD5::get_digest
FUNC 6cef0 1b 0 yaSSL::RSA::verify
FUNC 6cf10 e3 0 yaSSL::DiffieHellman::DiffieHellman
FUNC 6d000 10d 0 yaSSL::DiffieHellman::get_parms
FUNC 6d110 17b 0 yaSSL::DiffieHellman::DiffieHellman
FUNC 6d290 66 0 yaSSL::Integer::assign
FUNC 6d300 e9 0 yaSSL::DiffieHellman::set_sizes
FUNC 6d3f0 5b 0 yaSSL::Integer::~Integer
FUNC 6d450 df 0 yaSSL::DSS::verify
FUNC 6d530 29 0 yaSSL::RSA::encrypt
FUNC 6d560 eb 0 yaSSL::DSS::sign
FUNC 6d650 2d 0 yaSSL::RSA::decrypt
FUNC 6d680 ea 0 yaSSL::DiffieHellman::operator=
FUNC 6d770 95 0 yaSSL::DiffieHellman::~DiffieHellman
FUNC 6d810 183 0 yaSSL::DES::decrypt
FUNC 6d9a0 15b 0 yaSSL::DES::encrypt
FUNC 6db00 183 0 yaSSL::AES::decrypt
FUNC 6dc90 15b 0 yaSSL::AES::encrypt
FUNC 6ddf0 183 0 yaSSL::DES_EDE::decrypt
FUNC 6df80 15b 0 yaSSL::DES_EDE::encrypt
FUNC 6e0e0 2d 0 yaSSL::RSA::sign
FUNC 6e110 1c4 0 yaSSL::RSA::RSAImpl::SetPrivate
FUNC 6e2e0 1ad 0 yaSSL::RSA::RSA
FUNC 6e490 30 0 yaSSL::RSA::~RSA
FUNC 6e4c0 37 0 yaSSL::RSA::~RSA
FUNC 6e500 163 0 yaSSL::DSS::DSSImpl::SetPrivate
FUNC 6e670 17e 0 yaSSL::DSS::DSS
FUNC 6e7f0 30 0 yaSSL::DSS::~DSS
FUNC 6e820 37 0 yaSSL::DSS::~DSS
FUNC 6e860 10 0 yaSSL::Digest::~Digest
FUNC 6e870 10 0 yaSSL::BulkCipher::~BulkCipher
FUNC 6e880 b 0 yaSSL::DES::get_blockSize
FUNC 6e890 b 0 yaSSL::DES::get_keySize
FUNC 6e8a0 b 0 yaSSL::DES::get_ivSize
FUNC 6e8b0 b 0 yaSSL::DES_EDE::get_blockSize
FUNC 6e8c0 b 0 yaSSL::DES_EDE::get_keySize
FUNC 6e8d0 b 0 yaSSL::DES_EDE::get_ivSize
FUNC 6e8e0 8 0 yaSSL::RC4::get_blockSize
FUNC 6e8f0 b 0 yaSSL::RC4::get_keySize
FUNC 6e900 8 0 yaSSL::RC4::get_ivSize
FUNC 6e910 b 0 yaSSL::AES::get_blockSize
FUNC 6e920 b 0 yaSSL::AES::get_ivSize
FUNC 6e930 10 0 yaSSL::Auth::~Auth
FUNC 6e940 10 0 TaoCrypt::HASH::~HASH
FUNC 6e950 14 0 yaSSL::Auth::~Auth
FUNC 6e970 14 0 yaSSL::BulkCipher::~BulkCipher
FUNC 6e990 14 0 TaoCrypt::HASH::~HASH
FUNC 6e9b0 14 0 yaSSL::Digest::~Digest
FUNC 6e9d0 3f 0 TaoCrypt::Integer::~Integer
FUNC 6ea10 37 0 mySTL::auto_ptr<yaSSL::x509>::~auto_ptr
FUNC 6ea50 37 0 TaoCrypt::Block<unsigned char, TaoCrypt::AllocatorWithCleanup<unsigned char> >::~Block
FUNC 6ea90 ea 0 TaoCrypt::RSA_Encryptor<TaoCrypt::RSA_BlockType2>::SSL_Verify
FUNC 6eb80 5d 0 TaoCrypt::DH::~DH
FUNC 6ebe0 5d 0 TaoCrypt::RSA_PublicKey::~RSA_PublicKey
FUNC 6ec40 a5 0 TaoCrypt::DSA_PublicKey::~DSA_PublicKey
FUNC 6ecf0 1b6 0 TaoCrypt::RSA_Encryptor<TaoCrypt::RSA_BlockType2>::Encrypt
FUNC 6eeb0 1b6 0 TaoCrypt::RSA_Encryptor<TaoCrypt::RSA_BlockType1>::Encrypt
FUNC 6f070 1ce 0 TaoCrypt::RSA_Decryptor<TaoCrypt::RSA_BlockType2>::Decrypt
FUNC 6f240 f7 0 TaoCrypt::RSA_Decryptor<TaoCrypt::RSA_BlockType2>::SSL_Sign
FUNC 6f340 1b3 0 yaSSL::ysDelete<yaSSL::RSA::RSAImpl>
FUNC 6f500 183 0 yaSSL::ysDelete<yaSSL::DSS::DSSImpl>
FUNC 6f690 8 0 __cxa_pure_virtual
FUNC 6f6a0 1e 0 yaSSL::x509::Swap
FUNC 6f6c0 8 0 yaSSL::x509::get_length
FUNC 6f6d0 a 0 yaSSL::x509::get_buffer
FUNC 6f6e0 a 0 yaSSL::x509::use_buffer
FUNC 6f6f0 d 0 yaSSL::CertManager::verifyPeer
FUNC 6f700 d 0 yaSSL::CertManager::verifyNone
FUNC 6f710 d 0 yaSSL::CertManager::failNoCert
FUNC 6f720 d 0 yaSSL::CertManager::sendVerify
FUNC 6f730 d 0 yaSSL::CertManager::setVerifyPeer
FUNC 6f740 d 0 yaSSL::CertManager::setVerifyNone
FUNC 6f750 d 0 yaSSL::CertManager::sendBlankCert
FUNC 6f760 d 0 yaSSL::CertManager::setFailNoCert
FUNC 6f770 d 0 yaSSL::CertManager::setSendVerify
FUNC 6f780 d 0 yaSSL::CertManager::setSendBlankCert
FUNC 6f790 d 0 yaSSL::CertManager::setVerifyCallback
FUNC 6f7a0 14 0 yaSSL::CertManager::get_cert
FUNC 6f7c0 a 0 yaSSL::CertManager::get_peerX509
FUNC 6f7d0 a 0 yaSSL::CertManager::get_selfX509
FUNC 6f7e0 c 0 yaSSL::CertManager::get_peerKeyType
FUNC 6f7f0 c 0 yaSSL::CertManager::get_keyType
FUNC 6f800 128 0 yaSSL::CertManager::setPeerX509
FUNC 6f930 66 0 yaSSL::CertManager::AddPeerCert
FUNC 6f9a0 3c 0 yaSSL::x509::x509
FUNC 6f9e0 20 0 yaSSL::x509::x509
FUNC 6fa00 1a 0 yaSSL::x509::~x509
FUNC 6fa20 e 0 yaSSL::CertManager::get_privateKeyLength
FUNC 6fa30 e 0 yaSSL::CertManager::get_peerKeyLength
FUNC 6fa40 e 0 yaSSL::CertManager::get_privateKey
FUNC 6fa50 e 0 yaSSL::CertManager::get_peerKey
FUNC 6fa60 70 0 yaSSL::x509::operator=
FUNC 6fad0 b0 0 yaSSL::CertManager::CopySelfCert
FUNC 6fb80 196 0 yaSSL::CertManager::CopyCaCert
FUNC 6fd20 302 0 yaSSL::CertManager::SetPrivateKey
FUNC 70030 56e 0 yaSSL::CertManager::Validate
FUNC 705a0 1cb 0 yaSSL::CertManager::~CertManager
FUNC 70770 118 0 yaSSL::CertManager::CertManager
FUNC 70890 8 0 __cxa_pure_virtual
FUNC 708a0 d 0 yaSSL::Mutex::Lock::~Lock
FUNC 708b0 10 0 yaSSL::Mutex::Lock::Lock
FUNC 708c0 a 0 yaSSL::Mutex::~Mutex
FUNC 708d0 c 0 yaSSL::Mutex::Mutex
FUNC 708e0 8 0 __cxa_pure_virtual
FUNC 708f0 2a 0 yaSSL::Socket::Socket
FUNC 70920 8 0 yaSSL::Socket::set_fd
FUNC 70930 8 0 yaSSL::Socket::get_fd
FUNC 70940 6 0 yaSSL::Socket::~Socket
FUNC 70950 a 0 yaSSL::Socket::set_transport_ptr
FUNC 70960 a 0 yaSSL::Socket::set_transport_recv_function
FUNC 70970 a 0 yaSSL::Socket::set_transport_send_function
FUNC 70980 a 0 yaSSL::Socket::WouldBlock
FUNC 70990 a 0 yaSSL::Socket::IsNonBlocking
FUNC 709a0 19 0 yaSSL::Socket::set_lastError
FUNC 709c0 d 0 yaSSL::Socket::get_lastError
FUNC 709d0 56 0 yaSSL::Socket::receive
FUNC 70a30 9d 0 yaSSL::Socket::send
FUNC 70ad0 c 0 yaSSL::Socket::shutDown
FUNC 70ae0 26 0 yaSSL::Socket::get_ready
FUNC 70b10 25 0 yaSSL::Socket::closeSocket
FUNC 70b40 e 0 system_send
FUNC 70b50 e 0 system_recv
FUNC 70b60 8 0 __cxa_pure_virtual
FUNC 70b70 b 0 yaSSL::yaSSL_get_default_timeout
FUNC 70b80 d 0 yaSSL::yaSSLeay_version
FUNC 70b90 6 0 yaSSL::yaX509_free
FUNC 70ba0 a 0 yaSSL::yaX509_STORE_CTX_get_current_cert
FUNC 70bb0 8 0 yaSSL::yaX509_STORE_CTX_get_error
FUNC 70bc0 9 0 yaSSL::yaX509_STORE_CTX_get_error_depth
FUNC 70bd0 6 0 yaSSL::yaSSL_load_error_strings
FUNC 70be0 6 0 yaSSL::yaSSL_set_connect_state
FUNC 70bf0 8 0 yaSSL::yaSSL_get_verify_result
FUNC 70c00 8 0 yaSSL::yaSSL_CTX_sess_set_cache_size
FUNC 70c10 8 0 yaSSL::yaSSL_CTX_get_session_cache_mode
FUNC 70c20 b 0 yaSSL::yaSSL_CTX_set_default_verify_paths
FUNC 70c30 b 0 yaSSL::yaSSL_CTX_set_session_id_context
FUNC 70c40 b 0 yaSSL::yaSSL_CTX_check_private_key
FUNC 70c50 b 0 yaSSL::yaSSL_CTX_set_options
FUNC 70c60 6 0 yaSSL::yaSSL_CTX_set_info_callback
FUNC 70c70 6 0 yaSSL::yaOpenSSL_add_all_algorithms
FUNC 70c80 b 0 yaSSL::yaSSL_library_init
FUNC 70c90 8 0 yaSSL::yaERR_get_error_line_data
FUNC 70ca0 6 0 yaSSL::yaERR_print_errors_fp
FUNC 70cb0 d 0 yaSSL::yaX509_verify_cert_error_string
FUNC 70cc0 d 0 yaSSL::yaEVP_md5
FUNC 70cd0 d 0 yaSSL::yaEVP_des_ede3_cbc
FUNC 70ce0 b 0 yaSSL::yaRAND_status
FUNC 70cf0 6 0 yaSSL::yaDES_set_odd_parity
FUNC 70d00 8 0 yaSSL::yaSSL_get_privatekey
FUNC 70d10 6 0 yaSSL::yaSSL_SESSION_free
FUNC 70d20 8 0 yaSSL::yaX509_get_pubkey
FUNC 70d30 8 0 yaSSL::yaEVP_PKEY_copy_parameters
FUNC 70d40 6 0 yaSSL::yaEVP_PKEY_free
FUNC 70d50 6 0 yaSSL::yaERR_free_strings
FUNC 70d60 6 0 yaSSL::yaEVP_cleanup
FUNC 70d70 8 0 yaSSL::yaSSLv2_client_method
FUNC 70d80 6 0 yaSSL::yaGENERAL_NAMES_free
FUNC 70d90 8 0 yaSSL::yask_GENERAL_NAME_num
FUNC 70da0 8 0 yaSSL::yask_GENERAL_NAME_value
FUNC 70db0 11 0 yaSSL::yaASN1_STRING_data
FUNC 70dd0 10 0 yaSSL::yaASN1_STRING_length
FUNC 70de0 f 0 yaSSL::yaASN1_STRING_type
FUNC 70df0 19 0 yaSSL::yaX509_NAME_get_index_by_NID
FUNC 70e10 9 0 yaSSL::yaX509_NAME_ENTRY_get_data
FUNC 70e20 8 0 yaSSL::yaX509_get_ext_d2i
FUNC 70e30 e 0 yaSSL::yaMD4_Update
FUNC 70e40 17 0 yaSSL::yaMD4_Final
FUNC 70e60 e 0 yaSSL::yaMD5_Update
FUNC 70e70 17 0 yaSSL::yaMD5_Final
FUNC 70e90 b 0 yaSSL::yaSSLeay_add_ssl_algorithms
FUNC 70ea0 d 0 yaSSL::yaERR_GET_REASON
FUNC 70eb0 6 0 yaSSL::yaRAND_screen
FUNC 70ec0 8 0 yaSSL::yaRAND_file_name
FUNC 70ed0 8 0 yaSSL::yaRAND_write_file
FUNC 70ee0 8 0 yaSSL::yaRAND_load_file
FUNC 70ef0 6 0 yaSSL::yaRSA_free
FUNC 70f00 8 0 yaSSL::yaRSA_generate_key
FUNC 70f10 b 0 yaSSL::yaX509_LOOKUP_add_dir
FUNC 70f20 b 0 yaSSL::yaX509_LOOKUP_load_file
FUNC 70f30 8 0 yaSSL::yaX509_LOOKUP_hash_dir
FUNC 70f40 8 0 yaSSL::yaX509_LOOKUP_file
FUNC 70f50 8 0 yaSSL::yaX509_STORE_add_lookup
FUNC 70f60 b 0 yaSSL::yaX509_STORE_get_by_subject
FUNC 70f70 8 0 yaSSL::yaX509_STORE_new
FUNC 70f80 8 0 yaSSL::yaSSL_alert_type_string_long
FUNC 70f90 8 0 yaSSL::yaSSL_alert_desc_string_long
FUNC 70fa0 8 0 yaSSL::yaSSL_state_string_long
