MODULE Linux x86_64 7CCE3BD473DF49A531619BF689FA760A0 IEC103_SFIEC103
FUNC b664 1b0 0 main
FUNC b814 ca 0 __static_initialization_and_destruction_0
FUNC b8de 15 0 _GLOBAL__I_IEC103.cpp
FUNC b8f4 29 0 Config::setChannelName
FUNC b920 570 0 Config::Config
FUNC be90 74 0 Config::GetInstance
FUNC bf04 2a3 0 Config::~Config
FUNC c1a8 26 0 Config::~Config
FUNC c1ce cbf 0 Config::Init
FUNC ce8e 27 0 Config::IsSpace
FUNC ceb6 24 0 Config::IsCommentChar
FUNC ceda 173 0 Config::Trim
FUNC d04e 21d 0 Config::AnalyseLine
FUNC d26c 238 0 Config::ReadConfig
FUNC d4a4 ad 0 Config::GetStrValueByKey
FUNC d552 d03 0 Config::InitMysqlParams
FUNC e256 134 0 Config::Split
FUNC e38a 48 0 __static_initialization_and_destruction_0
FUNC e3d2 15 0 _GLOBAL__I_Config.cpp
FUNC e3e7 12 0 operator new
FUNC e3f9 e 0 operator delete
FUNC e407 14 0 std::operator|
FUNC e41c 1a 0 std::map<std::basic_string<char, std::char_traits<char>, std::allocator<char> >, std::basic_string<char, std::char_traits<char>, std::allocator<char> >, std::less<std::basic_string<char, std::char_traits<char>, std::allocator<char> > >, std::allocator<std::pair<const std::basic_string<char, std::char_traits<char>, std::allocator<char> >, std::basic_string<char, std::char_traits<char>, std::allocator<char> > > > >::~map
FUNC e436 1a 0 std::map<std::basic_string<char, std::char_traits<char>, std::allocator<char> >, std::basic_string<char, std::char_traits<char>, std::allocator<char> >, std::less<std::basic_string<char, std::char_traits<char>, std::allocator<char> > >, std::allocator<std::pair<const std::basic_string<char, std::char_traits<char>, std::allocator<char> >, std::basic_string<char, std::char_traits<char>, std::allocator<char> > > > >::map
FUNC e450 1a 0 std::_Rb_tree<std::basic_string<char, std::char_traits<char>, std::allocator<char> >, std::pair<const std::basic_string<char, std::char_traits<char>, std::allocator<char> >, std::basic_string<char, std::char_traits<char>, std::allocator<char> > >, std::_Select1st<std::pair<const std::basic_string<char, std::char_traits<char>, std::allocator<char> >, std::basic_string<char, std::char_traits<char>, std::allocator<char> > > >, std::less<std::basic_string<char, std::char_traits<char>, std::allocator<char> > >, std::allocator<std::pair<const std::basic_string<char, std::char_traits<char>, std::allocator<char> >, std::basic_string<char, std::char_traits<char>, std::allocator<char> > > > >::_Rb_tree_impl<std::less<std::basic_string<char, std::char_traits<char>, std::allocator<char> > >, false>::~_Rb_tree_impl
FUNC e46a 63 0 std::_Rb_tree<std::basic_string<char, std::char_traits<char>, std::allocator<char> >, std::pair<const std::basic_string<char, std::char_traits<char>, std::allocator<char> >, std::basic_string<char, std::char_traits<char>, std::allocator<char> > >, std::_Select1st<std::pair<const std::basic_string<char, std::char_traits<char>, std::allocator<char> >, std::basic_string<char, std::char_traits<char>, std::allocator<char> > > >, std::less<std::basic_string<char, std::char_traits<char>, std::allocator<char> > >, std::allocator<std::pair<const std::basic_string<char, std::char_traits<char>, std::allocator<char> >, std::basic_string<char, std::char_traits<char>, std::allocator<char> > > > >::~_Rb_tree
FUNC e4ce 1a 0 std::vector<short unsigned int, std::allocator<short unsigned int> >::vector
FUNC e4e8 6e 0 std::vector<short unsigned int, std::allocator<short unsigned int> >::~vector
FUNC e556 1a 0 std::vector<std::basic_string<char, std::char_traits<char>, std::allocator<char> >, std::allocator<std::basic_string<char, std::char_traits<char>, std::allocator<char> > > >::vector
FUNC e570 6e 0 std::vector<std::basic_string<char, std::char_traits<char>, std::allocator<char> >, std::allocator<std::basic_string<char, std::char_traits<char>, std::allocator<char> > > >::~vector
FUNC e5de 24 0 std::vector<short unsigned int, std::allocator<short unsigned int> >::clear
FUNC e602 24 0 std::vector<std::basic_string<char, std::char_traits<char>, std::allocator<char> >, std::allocator<std::basic_string<char, std::char_traits<char>, std::allocator<char> > > >::clear
FUNC e626 16d 0 Config::GetValueByKey<int32_t>
FUNC e794 16d 0 Config::GetValueByKey<uint16_t>
FUNC e902 1a 0 std::map<std::basic_string<char, std::char_traits<char>, std::allocator<char> >, std::basic_string<char, std::char_traits<char>, std::allocator<char> >, std::less<std::basic_string<char, std::char_traits<char>, std::allocator<char> > >, std::allocator<std::pair<const std::basic_string<char, std::char_traits<char>, std::allocator<char> >, std::basic_string<char, std::char_traits<char>, std::allocator<char> > > > >::clear
FUNC e91c 55 0 std::pair<const std::basic_string<char, std::char_traits<char>, std::allocator<char> >, std::basic_string<char, std::char_traits<char>, std::allocator<char> > >::~pair
FUNC e972 146 0 std::map<std::basic_string<char, std::char_traits<char>, std::allocator<char> >, std::basic_string<char, std::char_traits<char>, std::allocator<char> >, std::less<std::basic_string<char, std::char_traits<char>, std::allocator<char> > >, std::allocator<std::pair<const std::basic_string<char, std::char_traits<char>, std::allocator<char> >, std::basic_string<char, std::char_traits<char>, std::allocator<char> > > > >::operator[]
FUNC eab8 25 0 std::map<std::basic_string<char, std::char_traits<char>, std::allocator<char> >, std::basic_string<char, std::char_traits<char>, std::allocator<char> >, std::less<std::basic_string<char, std::char_traits<char>, std::allocator<char> > >, std::allocator<std::pair<const std::basic_string<char, std::char_traits<char>, std::allocator<char> >, std::basic_string<char, std::char_traits<char>, std::allocator<char> > > > >::find
FUNC eade 1c 0 std::_Rb_tree_const_iterator<std::pair<const std::basic_string<char, std::char_traits<char>, std::allocator<char> >, std::basic_string<char, std::char_traits<char>, std::allocator<char> > > >::_Rb_tree_const_iterator
FUNC eafa 1a 0 std::map<std::basic_string<char, std::char_traits<char>, std::allocator<char> >, std::basic_string<char, std::char_traits<char>, std::allocator<char> >, std::less<std::basic_string<char, std::char_traits<char>, std::allocator<char> > >, std::allocator<std::pair<const std::basic_string<char, std::char_traits<char>, std::allocator<char> >, std::basic_string<char, std::char_traits<char>, std::allocator<char> > > > >::end
FUNC eb14 22 0 std::_Rb_tree_const_iterator<std::pair<const std::basic_string<char, std::char_traits<char>, std::allocator<char> >, std::basic_string<char, std::char_traits<char>, std::allocator<char> > > >::operator!=
FUNC eb36 15 0 std::_Rb_tree_const_iterator<std::pair<const std::basic_string<char, std::char_traits<char>, std::allocator<char> >, std::basic_string<char, std::char_traits<char>, std::allocator<char> > > >::operator->
FUNC eb4c 20 0 std::vector<std::basic_string<char, std::char_traits<char>, std::allocator<char> >, std::allocator<std::basic_string<char, std::char_traits<char>, std::allocator<char> > > >::operator[]
FUNC eb6c f3 0 Config::String2Int<uint16_t>
FUNC ec60 25 0 std::vector<std::basic_string<char, std::char_traits<char>, std::allocator<char> >, std::allocator<std::basic_string<char, std::char_traits<char>, std::allocator<char> > > >::begin
FUNC ec86 28 0 __gnu_cxx::__normal_iterator<const std::basic_string<char, std::char_traits<char>, std::allocator<char> >*, std::vector<std::basic_string<char, std::char_traits<char>, std::allocator<char> >, std::allocator<std::basic_string<char, std::char_traits<char>, std::allocator<char> > > > >::__normal_iterator<std::basic_string<char, std::char_traits<char>, std::allocator<char> >*>
FUNC ecae 29 0 std::vector<std::basic_string<char, std::char_traits<char>, std::allocator<char> >, std::allocator<std::basic_string<char, std::char_traits<char>, std::allocator<char> > > >::end
FUNC ecd7 3c 0 __gnu_cxx::operator!=<const std::basic_string<char, std::char_traits<char>, std::allocator<char> >*, std::basic_string<char, std::char_traits<char>, std::allocator<char> >*, std::vector<std::basic_string<char, std::char_traits<char>, std::allocator<char> >, std::allocator<std::basic_string<char, std::char_traits<char>, std::allocator<char> > > > >
FUNC ed14 20 0 __gnu_cxx::__normal_iterator<const std::basic_string<char, std::char_traits<char>, std::allocator<char> >*, std::vector<std::basic_string<char, std::char_traits<char>, std::allocator<char> >, std::allocator<std::basic_string<char, std::char_traits<char>, std::allocator<char> > > > >::operator++
FUNC ed34 11 0 __gnu_cxx::__normal_iterator<const std::basic_string<char, std::char_traits<char>, std::allocator<char> >*, std::vector<std::basic_string<char, std::char_traits<char>, std::allocator<char> >, std::allocator<std::basic_string<char, std::char_traits<char>, std::allocator<char> > > > >::operator*
FUNC ed46 7a 0 std::vector<short unsigned int, std::allocator<short unsigned int> >::push_back
FUNC edc0 41 0 std::vector<short unsigned int, std::allocator<short unsigned int> >::empty
FUNC ee02 1f 0 std::vector<short unsigned int, std::allocator<short unsigned int> >::operator[]
FUNC ee22 f3 0 Config::String2Int<int32_t>
FUNC ef16 242 0 std::vector<std::basic_string<char, std::char_traits<char>, std::allocator<char> >, std::allocator<std::basic_string<char, std::char_traits<char>, std::allocator<char> > > >::operator=
FUNC f158 29 0 std::vector<std::basic_string<char, std::char_traits<char>, std::allocator<char> >, std::allocator<std::basic_string<char, std::char_traits<char>, std::allocator<char> > > >::size
FUNC f182 7a 0 std::vector<std::basic_string<char, std::char_traits<char>, std::allocator<char> >, std::allocator<std::basic_string<char, std::char_traits<char>, std::allocator<char> > > >::push_back
FUNC f1fc 1a 0 std::_Rb_tree<std::basic_string<char, std::char_traits<char>, std::allocator<char> >, std::pair<const std::basic_string<char, std::char_traits<char>, std::allocator<char> >, std::basic_string<char, std::char_traits<char>, std::allocator<char> > >, std::_Select1st<std::pair<const std::basic_string<char, std::char_traits<char>, std::allocator<char> >, std::basic_string<char, std::char_traits<char>, std::allocator<char> > > >, std::less<std::basic_string<char, std::char_traits<char>, std::allocator<char> > >, std::allocator<std::pair<const std::basic_string<char, std::char_traits<char>, std::allocator<char> >, std::basic_string<char, std::char_traits<char>, std::allocator<char> > > > >::_Rb_tree
FUNC f216 1a 0 std::allocator<std::_Rb_tree_node<std::pair<const std::basic_string<char, std::char_traits<char>, std::allocator<char> >, std::basic_string<char, std::char_traits<char>, std::allocator<char> > > > >::~allocator
FUNC f230 69 0 std::_Rb_tree<std::basic_string<char, std::char_traits<char>, std::allocator<char> >, std::pair<const std::basic_string<char, std::char_traits<char>, std::allocator<char> >, std::basic_string<char, std::char_traits<char>, std::allocator<char> > >, std::_Select1st<std::pair<const std::basic_string<char, std::char_traits<char>, std::allocator<char> >, std::basic_string<char, std::char_traits<char>, std::allocator<char> > > >, std::less<std::basic_string<char, std::char_traits<char>, std::allocator<char> > >, std::allocator<std::pair<const std::basic_string<char, std::char_traits<char>, std::allocator<char> >, std::basic_string<char, std::char_traits<char>, std::allocator<char> > > > >::_M_erase
FUNC f29a 12 0 std::_Rb_tree<std::basic_string<char, std::char_traits<char>, std::allocator<char> >, std::pair<const std::basic_string<char, std::char_traits<char>, std::allocator<char> >, std::basic_string<char, std::char_traits<char>, std::allocator<char> > >, std::_Select1st<std::pair<const std::basic_string<char, std::char_traits<char>, std::allocator<char> >, std::basic_string<char, std::char_traits<char>, std::allocator<char> > > >, std::less<std::basic_string<char, std::char_traits<char>, std::allocator<char> > >, std::allocator<std::pair<const std::basic_string<char, std::char_traits<char>, std::allocator<char> >, std::basic_string<char, std::char_traits<char>, std::allocator<char> > > > >::_M_begin
FUNC f2ac 1a 0 std::_Vector_base<short unsigned int, std::allocator<short unsigned int> >::_Vector_impl::~_Vector_impl
FUNC f2c6 1a 0 std::_Vector_base<short unsigned int, std::allocator<short unsigned int> >::_Vector_base
FUNC f2e0 7c 0 std::_Vector_base<short unsigned int, std::allocator<short unsigned int> >::~_Vector_base
FUNC f35c e 0 std::_Vector_base<short unsigned int, std::allocator<short unsigned int> >::_M_get_Tp_allocator
FUNC f36a 29 0 std::_Destroy<short unsigned int*, short unsigned int>
FUNC f394 1a 0 std::_Vector_base<std::basic_string<char, std::char_traits<char>, std::allocator<char> >, std::allocator<std::basic_string<char, std::char_traits<char>, std::allocator<char> > > >::_Vector_impl::~_Vector_impl
FUNC f3ae 1a 0 std::_Vector_base<std::basic_string<char, std::char_traits<char>, std::allocator<char> >, std::allocator<std::basic_string<char, std::char_traits<char>, std::allocator<char> > > >::_Vector_base
FUNC f3c8 7d 0 std::_Vector_base<std::basic_string<char, std::char_traits<char>, std::allocator<char> >, std::allocator<std::basic_string<char, std::char_traits<char>, std::allocator<char> > > >::~_Vector_base
FUNC f446 e 0 std::_Vector_base<std::basic_string<char, std::char_traits<char>, std::allocator<char> >, std::allocator<std::basic_string<char, std::char_traits<char>, std::allocator<char> > > >::_M_get_Tp_allocator
FUNC f454 29 0 std::_Destroy<std::basic_string<char, std::char_traits<char>, std::allocator<char> >*, std::basic_string<char, std::char_traits<char>, std::allocator<char> > >
FUNC f47e 44 0 std::vector<short unsigned int, std::allocator<short unsigned int> >::_M_erase_at_end
FUNC f4c2 44 0 std::vector<std::basic_string<char, std::char_traits<char>, std::allocator<char> >, std::allocator<std::basic_string<char, std::char_traits<char>, std::allocator<char> > > >::_M_erase_at_end
FUNC f506 8d 0 std::_Rb_tree<std::basic_string<char, std::char_traits<char>, std::allocator<char> >, std::pair<const std::basic_string<char, std::char_traits<char>, std::allocator<char> >, std::basic_string<char, std::char_traits<char>, std::allocator<char> > >, std::_Select1st<std::pair<const std::basic_string<char, std::char_traits<char>, std::allocator<char> >, std::basic_string<char, std::char_traits<char>, std::allocator<char> > > >, std::less<std::basic_string<char, std::char_traits<char>, std::allocator<char> > >, std::allocator<std::pair<const std::basic_string<char, std::char_traits<char>, std::allocator<char> >, std::basic_string<char, std::char_traits<char>, std::allocator<char> > > > >::clear
FUNC f594 25 0 std::map<std::basic_string<char, std::char_traits<char>, std::allocator<char> >, std::basic_string<char, std::char_traits<char>, std::allocator<char> >, std::less<std::basic_string<char, std::char_traits<char>, std::allocator<char> > >, std::allocator<std::pair<const std::basic_string<char, std::char_traits<char>, std::allocator<char> >, std::basic_string<char, std::char_traits<char>, std::allocator<char> > > > >::lower_bound
FUNC f5ba 1a 0 std::map<std::basic_string<char, std::char_traits<char>, std::allocator<char> >, std::basic_string<char, std::char_traits<char>, std::allocator<char> >, std::less<std::basic_string<char, std::char_traits<char>, std::allocator<char> > >, std::allocator<std::pair<const std::basic_string<char, std::char_traits<char>, std::allocator<char> >, std::basic_string<char, std::char_traits<char>, std::allocator<char> > > > >::key_comp
FUNC f5d4 15 0 std::_Rb_tree_iterator<std::pair<const std::basic_string<char, std::char_traits<char>, std::allocator<char> >, std::basic_string<char, std::char_traits<char>, std::allocator<char> > > >::operator*
FUNC f5ea 29 0 std::less<std::basic_string<char, std::char_traits<char>, std::allocator<char> > >::operator()
FUNC f614 22 0 std::_Rb_tree_iterator<std::pair<const std::basic_string<char, std::char_traits<char>, std::allocator<char> >, std::basic_string<char, std::char_traits<char>, std::allocator<char> > > >::operator==
FUNC f636 6b 0 std::pair<const std::basic_string<char, std::char_traits<char>, std::allocator<char> >, std::basic_string<char, std::char_traits<char>, std::allocator<char> > >::pair
FUNC f6a2 40 0 std::map<std::basic_string<char, std::char_traits<char>, std::allocator<char> >, std::basic_string<char, std::char_traits<char>, std::allocator<char> >, std::less<std::basic_string<char, std::char_traits<char>, std::allocator<char> > >, std::allocator<std::pair<const std::basic_string<char, std::char_traits<char>, std::allocator<char> >, std::basic_string<char, std::char_traits<char>, std::allocator<char> > > > >::insert
FUNC f6e2 b6 0 std::_Rb_tree<std::basic_string<char, std::char_traits<char>, std::allocator<char> >, std::pair<const std::basic_string<char, std::char_traits<char>, std::allocator<char> >, std::basic_string<char, std::char_traits<char>, std::allocator<char> > >, std::_Select1st<std::pair<const std::basic_string<char, std::char_traits<char>, std::allocator<char> >, std::basic_string<char, std::char_traits<char>, std::allocator<char> > > >, std::less<std::basic_string<char, std::char_traits<char>, std::allocator<char> > >, std::allocator<std::pair<const std::basic_string<char, std::char_traits<char>, std::allocator<char> >, std::basic_string<char, std::char_traits<char>, std::allocator<char> > > > >::find
FUNC f798 2c 0 std::_Rb_tree<std::basic_string<char, std::char_traits<char>, std::allocator<char> >, std::pair<const std::basic_string<char, std::char_traits<char>, std::allocator<char> >, std::basic_string<char, std::char_traits<char>, std::allocator<char> > >, std::_Select1st<std::pair<const std::basic_string<char, std::char_traits<char>, std::allocator<char> >, std::basic_string<char, std::char_traits<char>, std::allocator<char> > > >, std::less<std::basic_string<char, std::char_traits<char>, std::allocator<char> > >, std::allocator<std::pair<const std::basic_string<char, std::char_traits<char>, std::allocator<char> >, std::basic_string<char, std::char_traits<char>, std::allocator<char> > > > >::end
FUNC f7c4 1c 0 __gnu_cxx::__normal_iterator<std::basic_string<char, std::char_traits<char>, std::allocator<char> >*, std::vector<std::basic_string<char, std::char_traits<char>, std::allocator<char> >, std::allocator<std::basic_string<char, std::char_traits<char>, std::allocator<char> > > > >::__normal_iterator
FUNC f7e0 e 0 __gnu_cxx::__normal_iterator<std::basic_string<char, std::char_traits<char>, std::allocator<char> >*, std::vector<std::basic_string<char, std::char_traits<char>, std::allocator<char> >, std::allocator<std::basic_string<char, std::char_traits<char>, std::allocator<char> > > > >::base
FUNC f7ee e 0 __gnu_cxx::__normal_iterator<const std::basic_string<char, std::char_traits<char>, std::allocator<char> >*, std::vector<std::basic_string<char, std::char_traits<char>, std::allocator<char> >, std::allocator<std::basic_string<char, std::char_traits<char>, std::allocator<char> > > > >::base
FUNC f7fc 39 0 __gnu_cxx::new_allocator<short unsigned int>::construct
FUNC f836 2e5 0 std::vector<short unsigned int, std::allocator<short unsigned int> >::_M_insert_aux
FUNC fb1c 29 0 std::vector<short unsigned int, std::allocator<short unsigned int> >::end
FUNC fb46 31 0 std::vector<short unsigned int, std::allocator<short unsigned int> >::end
FUNC fb78 30 0 std::vector<short unsigned int, std::allocator<short unsigned int> >::begin
FUNC fba8 3c 0 __gnu_cxx::operator==<const short unsigned int*, std::vector<short unsigned int, std::allocator<short unsigned int> > >
FUNC fbe4 29 0 std::vector<std::basic_string<char, std::char_traits<char>, std::allocator<char> >, std::allocator<std::basic_string<char, std::char_traits<char>, std::allocator<char> > > >::capacity
FUNC fc0e 30 0 std::vector<std::basic_string<char, std::char_traits<char>, std::allocator<char> >, std::allocator<std::basic_string<char, std::char_traits<char>, std::allocator<char> > > >::begin
FUNC fc3e 31 0 std::vector<std::basic_string<char, std::char_traits<char>, std::allocator<char> >, std::allocator<std::basic_string<char, std::char_traits<char>, std::allocator<char> > > >::end
FUNC fc70 a1 0 std::vector<std::basic_string<char, std::char_traits<char>, std::allocator<char> >, std::allocator<std::basic_string<char, std::char_traits<char>, std::allocator<char> > > >::_M_allocate_and_copy<__gnu_cxx::__normal_iterator<const std::basic_string<char, std::char_traits<char>, std::allocator<char> >*, std::vector<std::basic_string<char, std::char_traits<char>, std::allocator<char> >, std::allocator<std::basic_string<char, std::char_traits<char>, std::allocator<char> > > > > >
FUNC fd12 34 0 std::_Vector_base<std::basic_string<char, std::char_traits<char>, std::allocator<char> >, std::allocator<std::basic_string<char, std::char_traits<char>, std::allocator<char> > > >::_M_deallocate
FUNC fd46 46 0 std::copy<__gnu_cxx::__normal_iterator<const std::basic_string<char, std::char_traits<char>, std::allocator<char> >*, std::vector<std::basic_string<char, std::char_traits<char>, std::allocator<char> >, std::allocator<std::basic_string<char, std::char_traits<char>, std::allocator<char> > > > >, __gnu_cxx::__normal_iterator<std::basic_string<char, std::char_traits<char>, std::allocator<char> >*, std::vector<std::basic_string<char, std::char_traits<char>, std::allocator<char> >, std::allocator<std::basic_string<char, std::char_traits<char>, std::allocator<char> > > > > >
FUNC fd8c 29 0 std::_Destroy<__gnu_cxx::__normal_iterator<std::basic_string<char, std::char_traits<char>, std::allocator<char> >*, std::vector<std::basic_string<char, std::char_traits<char>, std::allocator<char> >, std::allocator<std::basic_string<char, std::char_traits<char>, std::allocator<char> > > > >, std::basic_string<char, std::char_traits<char>, std::allocator<char> > >
FUNC fdb5 46 0 std::copy<std::basic_string<char, std::char_traits<char>, std::allocator<char> >*, std::basic_string<char, std::char_traits<char>, std::allocator<char> >*>
FUNC fdfb 31 0 std::__uninitialized_copy_a<std::basic_string<char, std::char_traits<char>, std::allocator<char> >*, std::basic_string<char, std::char_traits<char>, std::allocator<char> >*, std::basic_string<char, std::char_traits<char>, std::allocator<char> > >
FUNC fe2c 77 0 __gnu_cxx::new_allocator<std::basic_string<char, std::char_traits<char>, std::allocator<char> > >::construct
FUNC fea4 326 0 std::vector<std::basic_string<char, std::char_traits<char>, std::allocator<char> >, std::allocator<std::basic_string<char, std::char_traits<char>, std::allocator<char> > > >::_M_insert_aux
FUNC 101ca e 0 std::_Vector_base<std::basic_string<char, std::char_traits<char>, std::allocator<char> >, std::allocator<std::basic_string<char, std::char_traits<char>, std::allocator<char> > > >::_M_get_Tp_allocator
FUNC 101d8 31 0 std::__uninitialized_copy_a<__gnu_cxx::__normal_iterator<const std::basic_string<char, std::char_traits<char>, std::allocator<char> >*, std::vector<std::basic_string<char, std::char_traits<char>, std::allocator<char> >, std::allocator<std::basic_string<char, std::char_traits<char>, std::allocator<char> > > > >, std::basic_string<char, std::char_traits<char>, std::allocator<char> >*, std::basic_string<char, std::char_traits<char>, std::allocator<char> > >
FUNC 1020a 12 0 std::_Rb_tree<std::basic_string<char, std::char_traits<char>, std::allocator<char> >, std::pair<const std::basic_string<char, std::char_traits<char>, std::allocator<char> >, std::basic_string<char, std::char_traits<char>, std::allocator<char> > >, std::_Select1st<std::pair<const std::basic_string<char, std::char_traits<char>, std::allocator<char> >, std::basic_string<char, std::char_traits<char>, std::allocator<char> > > >, std::less<std::basic_string<char, std::char_traits<char>, std::allocator<char> > >, std::allocator<std::pair<const std::basic_string<char, std::char_traits<char>, std::allocator<char> >, std::basic_string<char, std::char_traits<char>, std::allocator<char> > > > >::_M_end
FUNC 1021c 12 0 std::_Rb_tree<std::basic_string<char, std::char_traits<char>, std::allocator<char> >, std::pair<const std::basic_string<char, std::char_traits<char>, std::allocator<char> >, std::basic_string<char, std::char_traits<char>, std::allocator<char> > >, std::_Select1st<std::pair<const std::basic_string<char, std::char_traits<char>, std::allocator<char> >, std::basic_string<char, std::char_traits<char>, std::allocator<char> > > >, std::less<std::basic_string<char, std::char_traits<char>, std::allocator<char> > >, std::allocator<std::pair<const std::basic_string<char, std::char_traits<char>, std::allocator<char> >, std::basic_string<char, std::char_traits<char>, std::allocator<char> > > > >::_M_root
FUNC 1022e 12 0 std::_Rb_tree<std::basic_string<char, std::char_traits<char>, std::allocator<char> >, std::pair<const std::basic_string<char, std::char_traits<char>, std::allocator<char> >, std::basic_string<char, std::char_traits<char>, std::allocator<char> > >, std::_Select1st<std::pair<const std::basic_string<char, std::char_traits<char>, std::allocator<char> >, std::basic_string<char, std::char_traits<char>, std::allocator<char> > > >, std::less<std::basic_string<char, std::char_traits<char>, std::allocator<char> > >, std::allocator<std::pair<const std::basic_string<char, std::char_traits<char>, std::allocator<char> >, std::basic_string<char, std::char_traits<char>, std::allocator<char> > > > >::_M_leftmost
FUNC 10240 12 0 std::_Rb_tree<std::basic_string<char, std::char_traits<char>, std::allocator<char> >, std::pair<const std::basic_string<char, std::char_traits<char>, std::allocator<char> >, std::basic_string<char, std::char_traits<char>, std::allocator<char> > >, std::_Select1st<std::pair<const std::basic_string<char, std::char_traits<char>, std::allocator<char> >, std::basic_string<char, std::char_traits<char>, std::allocator<char> > > >, std::less<std::basic_string<char, std::char_traits<char>, std::allocator<char> > >, std::allocator<std::pair<const std::basic_string<char, std::char_traits<char>, std::allocator<char> >, std::basic_string<char, std::char_traits<char>, std::allocator<char> > > > >::_M_rightmost
FUNC 10252 8c 0 std::_Rb_tree<std::basic_string<char, std::char_traits<char>, std::allocator<char> >, std::pair<const std::basic_string<char, std::char_traits<char>, std::allocator<char> >, std::basic_string<char, std::char_traits<char>, std::allocator<char> > >, std::_Select1st<std::pair<const std::basic_string<char, std::char_traits<char>, std::allocator<char> >, std::basic_string<char, std::char_traits<char>, std::allocator<char> > > >, std::less<std::basic_string<char, std::char_traits<char>, std::allocator<char> > >, std::allocator<std::pair<const std::basic_string<char, std::char_traits<char>, std::allocator<char> >, std::basic_string<char, std::char_traits<char>, std::allocator<char> > > > >::_Rb_tree_impl<std::less<std::basic_string<char, std::char_traits<char>, std::allocator<char> > >, false>::_Rb_tree_impl
FUNC 102de a 0 __gnu_cxx::new_allocator<std::_Rb_tree_node<std::pair<const std::basic_string<char, std::char_traits<char>, std::allocator<char> >, std::basic_string<char, std::char_traits<char>, std::allocator<char> > > > >::~new_allocator
FUNC 102e8 12 0 std::_Rb_tree<std::basic_string<char, std::char_traits<char>, std::allocator<char> >, std::pair<const std::basic_string<char, std::char_traits<char>, std::allocator<char> >, std::basic_string<char, std::char_traits<char>, std::allocator<char> > >, std::_Select1st<std::pair<const std::basic_string<char, std::char_traits<char>, std::allocator<char> >, std::basic_string<char, std::char_traits<char>, std::allocator<char> > > >, std::less<std::basic_string<char, std::char_traits<char>, std::allocator<char> > >, std::allocator<std::pair<const std::basic_string<char, std::char_traits<char>, std::allocator<char> >, std::basic_string<char, std::char_traits<char>, std::allocator<char> > > > >::_S_right
FUNC 102fa 12 0 std::_Rb_tree<std::basic_string<char, std::char_traits<char>, std::allocator<char> >, std::pair<const std::basic_string<char, std::char_traits<char>, std::allocator<char> >, std::basic_string<char, std::char_traits<char>, std::allocator<char> > >, std::_Select1st<std::pair<const std::basic_string<char, std::char_traits<char>, std::allocator<char> >, std::basic_string<char, std::char_traits<char>, std::allocator<char> > > >, std::less<std::basic_string<char, std::char_traits<char>, std::allocator<char> > >, std::allocator<std::pair<const std::basic_string<char, std::char_traits<char>, std::allocator<char> >, std::basic_string<char, std::char_traits<char>, std::allocator<char> > > > >::_S_left
FUNC 1030c 86 0 std::_Rb_tree<std::basic_string<char, std::char_traits<char>, std::allocator<char> >, std::pair<const std::basic_string<char, std::char_traits<char>, std::allocator<char> >, std::basic_string<char, std::char_traits<char>, std::allocator<char> > >, std::_Select1st<std::pair<const std::basic_string<char, std::char_traits<char>, std::allocator<char> >, std::basic_string<char, std::char_traits<char>, std::allocator<char> > > >, std::less<std::basic_string<char, std::char_traits<char>, std::allocator<char> > >, std::allocator<std::pair<const std::basic_string<char, std::char_traits<char>, std::allocator<char> >, std::basic_string<char, std::char_traits<char>, std::allocator<char> > > > >::_M_destroy_node
FUNC 10392 3d 0 std::_Vector_base<short unsigned int, std::allocator<short unsigned int> >::_Vector_impl::_Vector_impl
FUNC 103d0 1a 0 std::allocator<short unsigned int>::~allocator
FUNC 103ea 34 0 std::_Vector_base<short unsigned int, std::allocator<short unsigned int> >::_M_deallocate
FUNC 1041e 25 0 std::_Destroy<short unsigned int*>
FUNC 10444 3d 0 std::_Vector_base<std::basic_string<char, std::char_traits<char>, std::allocator<char> >, std::allocator<std::basic_string<char, std::char_traits<char>, std::allocator<char> > > >::_Vector_impl::_Vector_impl
FUNC 10482 1a 0 std::allocator<std::basic_string<char, std::char_traits<char>, std::allocator<char> > >::~allocator
FUNC 1049c 25 0 std::_Destroy<std::basic_string<char, std::char_traits<char>, std::allocator<char> >*>
FUNC 104c2 53 0 std::_Rb_tree<std::basic_string<char, std::char_traits<char>, std::allocator<char> >, std::pair<const std::basic_string<char, std::char_traits<char>, std::allocator<char> >, std::basic_string<char, std::char_traits<char>, std::allocator<char> > >, std::_Select1st<std::pair<const std::basic_string<char, std::char_traits<char>, std::allocator<char> >, std::basic_string<char, std::char_traits<char>, std::allocator<char> > > >, std::less<std::basic_string<char, std::char_traits<char>, std::allocator<char> > >, std::allocator<std::pair<const std::basic_string<char, std::char_traits<char>, std::allocator<char> >, std::basic_string<char, std::char_traits<char>, std::allocator<char> > > > >::lower_bound
FUNC 10516 a 0 std::_Rb_tree<std::basic_string<char, std::char_traits<char>, std::allocator<char> >, std::pair<const std::basic_string<char, std::char_traits<char>, std::allocator<char> >, std::basic_string<char, std::char_traits<char>, std::allocator<char> > >, std::_Select1st<std::pair<const std::basic_string<char, std::char_traits<char>, std::allocator<char> >, std::basic_string<char, std::char_traits<char>, std::allocator<char> > > >, std::less<std::basic_string<char, std::char_traits<char>, std::allocator<char> > >, std::allocator<std::pair<const std::basic_string<char, std::char_traits<char>, std::allocator<char> >, std::basic_string<char, std::char_traits<char>, std::allocator<char> > > > >::key_comp
FUNC 10520 28 0 std::operator< <char, std::char_traits<char>, std::allocator<char> >
FUNC 10548 4c0 0 std::_Rb_tree<std::basic_string<char, std::char_traits<char>, std::allocator<char> >, std::pair<const std::basic_string<char, std::char_traits<char>, std::allocator<char> >, std::basic_string<char, std::char_traits<char>, std::allocator<char> > >, std::_Select1st<std::pair<const std::basic_string<char, std::char_traits<char>, std::allocator<char> >, std::basic_string<char, std::char_traits<char>, std::allocator<char> > > >, std::less<std::basic_string<char, std::char_traits<char>, std::allocator<char> > >, std::allocator<std::pair<const std::basic_string<char, std::char_traits<char>, std::allocator<char> >, std::basic_string<char, std::char_traits<char>, std::allocator<char> > > > >::_M_insert_unique_
FUNC 10a08 92 0 std::_Rb_tree<std::basic_string<char, std::char_traits<char>, std::allocator<char> >, std::pair<const std::basic_string<char, std::char_traits<char>, std::allocator<char> >, std::basic_string<char, std::char_traits<char>, std::allocator<char> > >, std::_Select1st<std::pair<const std::basic_string<char, std::char_traits<char>, std::allocator<char> >, std::basic_string<char, std::char_traits<char>, std::allocator<char> > > >, std::less<std::basic_string<char, std::char_traits<char>, std::allocator<char> > >, std::allocator<std::pair<const std::basic_string<char, std::char_traits<char>, std::allocator<char> >, std::basic_string<char, std::char_traits<char>, std::allocator<char> > > > >::_M_lower_bound
FUNC 10a9a 2c 0 std::_Rb_tree<std::basic_string<char, std::char_traits<char>, std::allocator<char> >, std::pair<const std::basic_string<char, std::char_traits<char>, std::allocator<char> >, std::basic_string<char, std::char_traits<char>, std::allocator<char> > >, std::_Select1st<std::pair<const std::basic_string<char, std::char_traits<char>, std::allocator<char> >, std::basic_string<char, std::char_traits<char>, std::allocator<char> > > >, std::less<std::basic_string<char, std::char_traits<char>, std::allocator<char> > >, std::allocator<std::pair<const std::basic_string<char, std::char_traits<char>, std::allocator<char> >, std::basic_string<char, std::char_traits<char>, std::allocator<char> > > > >::_S_key
FUNC 10ac6 19 0 std::_Rb_tree_iterator<std::pair<const std::basic_string<char, std::char_traits<char>, std::allocator<char> >, std::basic_string<char, std::char_traits<char>, std::allocator<char> > > >::_Rb_tree_iterator
FUNC 10ae0 e 0 __gnu_cxx::__normal_iterator<short unsigned int*, std::vector<short unsigned int, std::allocator<short unsigned int> > >::base
FUNC 10aee 46 0 std::copy_backward<short unsigned int*, short unsigned int*>
FUNC 10b34 11 0 __gnu_cxx::__normal_iterator<short unsigned int*, std::vector<short unsigned int, std::allocator<short unsigned int> > >::operator*
FUNC 10b46 ca 0 std::vector<short unsigned int, std::allocator<short unsigned int> >::_M_check_len
FUNC 10c10 25 0 std::vector<short unsigned int, std::allocator<short unsigned int> >::begin
FUNC 10c35 45 0 __gnu_cxx::operator-<short unsigned int*, std::vector<short unsigned int, std::allocator<short unsigned int> > >
FUNC 10c7a 38 0 std::_Vector_base<short unsigned int, std::allocator<short unsigned int> >::_M_allocate
FUNC 10cb2 3b 0 std::__uninitialized_move_a<short unsigned int*, short unsigned int*, std::allocator<short unsigned int> >
FUNC 10cee e 0 __gnu_cxx::new_allocator<short unsigned int>::destroy
FUNC 10cfc 1c 0 __gnu_cxx::__normal_iterator<short unsigned int*, std::vector<short unsigned int, std::allocator<short unsigned int> > >::__normal_iterator
FUNC 10d18 1c 0 __gnu_cxx::__normal_iterator<const short unsigned int*, std::vector<short unsigned int, std::allocator<short unsigned int> > >::__normal_iterator
FUNC 10d34 e 0 __gnu_cxx::__normal_iterator<const short unsigned int*, std::vector<short unsigned int, std::allocator<short unsigned int> > >::base
FUNC 10d42 1c 0 __gnu_cxx::__normal_iterator<const std::basic_string<char, std::char_traits<char>, std::allocator<char> >*, std::vector<std::basic_string<char, std::char_traits<char>, std::allocator<char> >, std::allocator<std::basic_string<char, std::char_traits<char>, std::allocator<char> > > > >::__normal_iterator
FUNC 10d5e 38 0 std::_Vector_base<std::basic_string<char, std::char_traits<char>, std::allocator<char> >, std::allocator<std::basic_string<char, std::char_traits<char>, std::allocator<char> > > >::_M_allocate
FUNC 10d96 22 0 __gnu_cxx::new_allocator<std::basic_string<char, std::char_traits<char>, std::allocator<char> > >::deallocate
FUNC 10db8 e 0 std::__miter_base<__gnu_cxx::__normal_iterator<const std::basic_string<char, std::char_traits<char>, std::allocator<char> >*, std::vector<std::basic_string<char, std::char_traits<char>, std::allocator<char> >, std::allocator<std::basic_string<char, std::char_traits<char>, std::allocator<char> > > > >, false>::__b
FUNC 10dc6 73 0 std::__copy_move_a2<false, __gnu_cxx::__normal_iterator<const std::basic_string<char, std::char_traits<char>, std::allocator<char> >*, std::vector<std::basic_string<char, std::char_traits<char>, std::allocator<char> >, std::allocator<std::basic_string<char, std::char_traits<char>, std::allocator<char> > > > >, __gnu_cxx::__normal_iterator<std::basic_string<char, std::char_traits<char>, std::allocator<char> >*, std::vector<std::basic_string<char, std::char_traits<char>, std::allocator<char> >, std::allocator<std::basic_string<char, std::char_traits<char>, std::allocator<char> > > > > >
FUNC 10e39 25 0 std::_Destroy<__gnu_cxx::__normal_iterator<std::basic_string<char, std::char_traits<char>, std::allocator<char> >*, std::vector<std::basic_string<char, std::char_traits<char>, std::allocator<char> >, std::allocator<std::basic_string<char, std::char_traits<char>, std::allocator<char> > > > > >
FUNC 10e5e e 0 std::__miter_base<std::basic_string<char, std::char_traits<char>, std::allocator<char> >*, false>::__b
FUNC 10e6c 58 0 std::__copy_move_a2<false, std::basic_string<char, std::char_traits<char>, std::allocator<char> >*, std::basic_string<char, std::char_traits<char>, std::allocator<char> >*>
FUNC 10ec4 2d 0 std::uninitialized_copy<std::basic_string<char, std::char_traits<char>, std::allocator<char> >*, std::basic_string<char, std::char_traits<char>, std::allocator<char> >*>
FUNC 10ef1 46 0 std::copy_backward<std::basic_string<char, std::char_traits<char>, std::allocator<char> >*, std::basic_string<char, std::char_traits<char>, std::allocator<char> >*>
FUNC 10f38 11 0 __gnu_cxx::__normal_iterator<std::basic_string<char, std::char_traits<char>, std::allocator<char> >*, std::vector<std::basic_string<char, std::char_traits<char>, std::allocator<char> >, std::allocator<std::basic_string<char, std::char_traits<char>, std::allocator<char> > > > >::operator*
FUNC 10f4a ca 0 std::vector<std::basic_string<char, std::char_traits<char>, std::allocator<char> >, std::allocator<std::basic_string<char, std::char_traits<char>, std::allocator<char> > > >::_M_check_len
FUNC 11014 46 0 __gnu_cxx::operator-<std::basic_string<char, std::char_traits<char>, std::allocator<char> >*, std::vector<std::basic_string<char, std::char_traits<char>, std::allocator<char> >, std::allocator<std::basic_string<char, std::char_traits<char>, std::allocator<char> > > > >
FUNC 1105a 3b 0 std::__uninitialized_move_a<std::basic_string<char, std::char_traits<char>, std::allocator<char> >*, std::basic_string<char, std::char_traits<char>, std::allocator<char> >*, std::allocator<std::basic_string<char, std::char_traits<char>, std::allocator<char> > > >
FUNC 11096 1e 0 __gnu_cxx::new_allocator<std::basic_string<char, std::char_traits<char>, std::allocator<char> > >::destroy
FUNC 110b4 2d 0 std::uninitialized_copy<__gnu_cxx::__normal_iterator<const std::basic_string<char, std::char_traits<char>, std::allocator<char> >*, std::vector<std::basic_string<char, std::char_traits<char>, std::allocator<char> >, std::allocator<std::basic_string<char, std::char_traits<char>, std::allocator<char> > > > >, std::basic_string<char, std::char_traits<char>, std::allocator<char> >*>
FUNC 110e1 12 0 std::_Rb_tree<std::basic_string<char, std::char_traits<char>, std::allocator<char> >, std::pair<const std::basic_string<char, std::char_traits<char>, std::allocator<char> >, std::basic_string<char, std::char_traits<char>, std::allocator<char> > >, std::_Select1st<std::pair<const std::basic_string<char, std::char_traits<char>, std::allocator<char> >, std::basic_string<char, std::char_traits<char>, std::allocator<char> > > >, std::less<std::basic_string<char, std::char_traits<char>, std::allocator<char> > >, std::allocator<std::pair<const std::basic_string<char, std::char_traits<char>, std::allocator<char> >, std::basic_string<char, std::char_traits<char>, std::allocator<char> > > > >::_S_right
FUNC 110f4 1a 0 std::allocator<std::_Rb_tree_node<std::pair<const std::basic_string<char, std::char_traits<char>, std::allocator<char> >, std::basic_string<char, std::char_traits<char>, std::allocator<char> > > > >::allocator
FUNC 1110e 41 0 std::_Rb_tree<std::basic_string<char, std::char_traits<char>, std::allocator<char> >, std::pair<const std::basic_string<char, std::char_traits<char>, std::allocator<char> >, std::basic_string<char, std::char_traits<char>, std::allocator<char> > >, std::_Select1st<std::pair<const std::basic_string<char, std::char_traits<char>, std::allocator<char> >, std::basic_string<char, std::char_traits<char>, std::allocator<char> > > >, std::less<std::basic_string<char, std::char_traits<char>, std::allocator<char> > >, std::allocator<std::pair<const std::basic_string<char, std::char_traits<char>, std::allocator<char> >, std::basic_string<char, std::char_traits<char>, std::allocator<char> > > > >::_Rb_tree_impl<std::less<std::basic_string<char, std::char_traits<char>, std::allocator<char> > >, false>::_M_initialize
FUNC 11150 3b 0 std::_Rb_tree<std::basic_string<char, std::char_traits<char>, std::allocator<char> >, std::pair<const std::basic_string<char, std::char_traits<char>, std::allocator<char> >, std::basic_string<char, std::char_traits<char>, std::allocator<char> > >, std::_Select1st<std::pair<const std::basic_string<char, std::char_traits<char>, std::allocator<char> >, std::basic_string<char, std::char_traits<char>, std::allocator<char> > > >, std::less<std::basic_string<char, std::char_traits<char>, std::allocator<char> > >, std::allocator<std::pair<const std::basic_string<char, std::char_traits<char>, std::allocator<char> >, std::basic_string<char, std::char_traits<char>, std::allocator<char> > > > >::get_allocator
FUNC 1118c 1a 0 std::allocator<std::pair<const std::basic_string<char, std::char_traits<char>, std::allocator<char> >, std::basic_string<char, std::char_traits<char>, std::allocator<char> > > >::~allocator
FUNC 111a6 1e 0 __gnu_cxx::new_allocator<std::pair<const std::basic_string<char, std::char_traits<char>, std::allocator<char> >, std::basic_string<char, std::char_traits<char>, std::allocator<char> > > >::destroy
FUNC 111c4 2a 0 std::_Rb_tree<std::basic_string<char, std::char_traits<char>, std::allocator<char> >, std::pair<const std::basic_string<char, std::char_traits<char>, std::allocator<char> >, std::basic_string<char, std::char_traits<char>, std::allocator<char> > >, std::_Select1st<std::pair<const std::basic_string<char, std::char_traits<char>, std::allocator<char> >, std::basic_string<char, std::char_traits<char>, std::allocator<char> > > >, std::less<std::basic_string<char, std::char_traits<char>, std::allocator<char> > >, std::allocator<std::pair<const std::basic_string<char, std::char_traits<char>, std::allocator<char> >, std::basic_string<char, std::char_traits<char>, std::allocator<char> > > > >::_M_put_node
FUNC 111ee 1a 0 std::allocator<short unsigned int>::allocator
FUNC 11208 a 0 __gnu_cxx::new_allocator<short unsigned int>::~new_allocator
FUNC 11212 22 0 __gnu_cxx::new_allocator<short unsigned int>::deallocate
FUNC 11234 e 0 std::_Destroy_aux<true>::__destroy<short unsigned int*>
FUNC 11242 1a 0 std::allocator<std::basic_string<char, std::char_traits<char>, std::allocator<char> > >::allocator
FUNC 1125c a 0 __gnu_cxx::new_allocator<std::basic_string<char, std::char_traits<char>, std::allocator<char> > >::~new_allocator
FUNC 11266 34 0 std::_Destroy_aux<false>::__destroy<std::basic_string<char, std::char_traits<char>, std::allocator<char> >*>
FUNC 1129a 12 0 std::_Select1st<std::pair<const std::basic_string<char, std::char_traits<char>, std::allocator<char> >, std::basic_string<char, std::char_traits<char>, std::allocator<char> > > >::operator()
FUNC 112ac 12 0 std::_Rb_tree<std::basic_string<char, std::char_traits<char>, std::allocator<char> >, std::pair<const std::basic_string<char, std::char_traits<char>, std::allocator<char> >, std::basic_string<char, std::char_traits<char>, std::allocator<char> > >, std::_Select1st<std::pair<const std::basic_string<char, std::char_traits<char>, std::allocator<char> >, std::basic_string<char, std::char_traits<char>, std::allocator<char> > > >, std::less<std::basic_string<char, std::char_traits<char>, std::allocator<char> > >, std::allocator<std::pair<const std::basic_string<char, std::char_traits<char>, std::allocator<char> >, std::basic_string<char, std::char_traits<char>, std::allocator<char> > > > >::size
FUNC 112be e3 0 std::_Rb_tree<std::basic_string<char, std::char_traits<char>, std::allocator<char> >, std::pair<const std::basic_string<char, std::char_traits<char>, std::allocator<char> >, std::basic_string<char, std::char_traits<char>, std::allocator<char> > >, std::_Select1st<std::pair<const std::basic_string<char, std::char_traits<char>, std::allocator<char> >, std::basic_string<char, std::char_traits<char>, std::allocator<char> > > >, std::less<std::basic_string<char, std::char_traits<char>, std::allocator<char> > >, std::allocator<std::pair<const std::basic_string<char, std::char_traits<char>, std::allocator<char> >, std::basic_string<char, std::char_traits<char>, std::allocator<char> > > > >::_M_insert_
FUNC 113a2 271 0 std::_Rb_tree<std::basic_string<char, std::char_traits<char>, std::allocator<char> >, std::pair<const std::basic_string<char, std::char_traits<char>, std::allocator<char> >, std::basic_string<char, std::char_traits<char>, std::allocator<char> > >, std::_Select1st<std::pair<const std::basic_string<char, std::char_traits<char>, std::allocator<char> >, std::basic_string<char, std::char_traits<char>, std::allocator<char> > > >, std::less<std::basic_string<char, std::char_traits<char>, std::allocator<char> > >, std::allocator<std::pair<const std::basic_string<char, std::char_traits<char>, std::allocator<char> >, std::basic_string<char, std::char_traits<char>, std::allocator<char> > > > >::_M_insert_unique
FUNC 11614 28 0 std::_Rb_tree_const_iterator<std::pair<const std::basic_string<char, std::char_traits<char>, std::allocator<char> >, std::basic_string<char, std::char_traits<char>, std::allocator<char> > > >::operator--
FUNC 1163c 28 0 std::_Rb_tree_const_iterator<std::pair<const std::basic_string<char, std::char_traits<char>, std::allocator<char> >, std::basic_string<char, std::char_traits<char>, std::allocator<char> > > >::operator++
FUNC 11664 2c 0 std::_Rb_tree<std::basic_string<char, std::char_traits<char>, std::allocator<char> >, std::pair<const std::basic_string<char, std::char_traits<char>, std::allocator<char> >, std::basic_string<char, std::char_traits<char>, std::allocator<char> > >, std::_Select1st<std::pair<const std::basic_string<char, std::char_traits<char>, std::allocator<char> >, std::basic_string<char, std::char_traits<char>, std::allocator<char> > > >, std::less<std::basic_string<char, std::char_traits<char>, std::allocator<char> > >, std::allocator<std::pair<const std::basic_string<char, std::char_traits<char>, std::allocator<char> >, std::basic_string<char, std::char_traits<char>, std::allocator<char> > > > >::_S_key
FUNC 11690 12 0 std::_Rb_tree<std::basic_string<char, std::char_traits<char>, std::allocator<char> >, std::pair<const std::basic_string<char, std::char_traits<char>, std::allocator<char> >, std::basic_string<char, std::char_traits<char>, std::allocator<char> > >, std::_Select1st<std::pair<const std::basic_string<char, std::char_traits<char>, std::allocator<char> >, std::basic_string<char, std::char_traits<char>, std::allocator<char> > > >, std::less<std::basic_string<char, std::char_traits<char>, std::allocator<char> > >, std::allocator<std::pair<const std::basic_string<char, std::char_traits<char>, std::allocator<char> >, std::basic_string<char, std::char_traits<char>, std::allocator<char> > > > >::_S_value
FUNC 116a2 e 0 std::__miter_base<short unsigned int*, false>::__b
FUNC 116b0 58 0 std::__copy_move_backward_a2<false, short unsigned int*, short unsigned int*>
FUNC 11708 28 0 std::vector<short unsigned int, std::allocator<short unsigned int> >::size
FUNC 11730 22 0 std::vector<short unsigned int, std::allocator<short unsigned int> >::max_size
FUNC 11752 2b 0 std::max<size_t>
FUNC 1177e 4a 0 __gnu_cxx::new_allocator<short unsigned int>::allocate
FUNC 117c8 31 0 std::__uninitialized_copy_a<short unsigned int*, short unsigned int*, short unsigned int>
FUNC 117fa 4b 0 __gnu_cxx::new_allocator<std::basic_string<char, std::char_traits<char>, std::allocator<char> > >::allocate
FUNC 11845 1d 0 std::__niter_base<__gnu_cxx::__normal_iterator<const std::basic_string<char, std::char_traits<char>, std::allocator<char> >*, std::vector<std::basic_string<char, std::char_traits<char>, std::allocator<char> >, std::allocator<std::basic_string<char, std::char_traits<char>, std::allocator<char> > > > >, true>::__b
FUNC 11862 1d 0 std::__niter_base<__gnu_cxx::__normal_iterator<std::basic_string<char, std::char_traits<char>, std::allocator<char> >*, std::vector<std::basic_string<char, std::char_traits<char>, std::allocator<char> >, std::allocator<std::basic_string<char, std::char_traits<char>, std::allocator<char> > > > >, true>::__b
FUNC 1187f 31 0 std::__copy_move_a<false, const std::basic_string<char, std::char_traits<char>, std::allocator<char> >*, std::basic_string<char, std::char_traits<char>, std::allocator<char> >*>
FUNC 118b0 4b 0 std::_Destroy_aux<false>::__destroy<__gnu_cxx::__normal_iterator<std::basic_string<char, std::char_traits<char>, std::allocator<char> >*, std::vector<std::basic_string<char, std::char_traits<char>, std::allocator<char> >, std::allocator<std::basic_string<char, std::char_traits<char>, std::allocator<char> > > > > >
FUNC 118fb e 0 std::__niter_base<std::basic_string<char, std::char_traits<char>, std::allocator<char> >*, false>::__b
FUNC 11909 31 0 std::__copy_move_a<false, std::basic_string<char, std::char_traits<char>, std::allocator<char> >*, std::basic_string<char, std::char_traits<char>, std::allocator<char> >*>
FUNC 1193a 92 0 std::__uninitialized_copy<false>::uninitialized_copy<std::basic_string<char, std::char_traits<char>, std::allocator<char> >*, std::basic_string<char, std::char_traits<char>, std::allocator<char> >*>
FUNC 119cc 58 0 std::__copy_move_backward_a2<false, std::basic_string<char, std::char_traits<char>, std::allocator<char> >*, std::basic_string<char, std::char_traits<char>, std::allocator<char> >*>
FUNC 11a24 22 0 std::vector<std::basic_string<char, std::char_traits<char>, std::allocator<char> >, std::allocator<std::basic_string<char, std::char_traits<char>, std::allocator<char> > > >::max_size
FUNC 11a46 ac 0 std::__uninitialized_copy<false>::uninitialized_copy<__gnu_cxx::__normal_iterator<const std::basic_string<char, std::char_traits<char>, std::allocator<char> >*, std::vector<std::basic_string<char, std::char_traits<char>, std::allocator<char> >, std::allocator<std::basic_string<char, std::char_traits<char>, std::allocator<char> > > > >, std::basic_string<char, std::char_traits<char>, std::allocator<char> >*>
FUNC 11af2 bd 0 std::_Rb_tree<std::basic_string<char, std::char_traits<char>, std::allocator<char> >, std::pair<const std::basic_string<char, std::char_traits<char>, std::allocator<char> >, std::basic_string<char, std::char_traits<char>, std::allocator<char> > >, std::_Select1st<std::pair<const std::basic_string<char, std::char_traits<char>, std::allocator<char> >, std::basic_string<char, std::char_traits<char>, std::allocator<char> > > >, std::less<std::basic_string<char, std::char_traits<char>, std::allocator<char> > >, std::allocator<std::pair<const std::basic_string<char, std::char_traits<char>, std::allocator<char> >, std::basic_string<char, std::char_traits<char>, std::allocator<char> > > > >::_M_create_node
FUNC 11bb0 a 0 __gnu_cxx::new_allocator<std::_Rb_tree_node<std::pair<const std::basic_string<char, std::char_traits<char>, std::allocator<char> >, std::basic_string<char, std::char_traits<char>, std::allocator<char> > > > >::new_allocator
FUNC 11bba e 0 std::_Rb_tree<std::basic_string<char, std::char_traits<char>, std::allocator<char> >, std::pair<const std::basic_string<char, std::char_traits<char>, std::allocator<char> >, std::basic_string<char, std::char_traits<char>, std::allocator<char> > >, std::_Select1st<std::pair<const std::basic_string<char, std::char_traits<char>, std::allocator<char> >, std::basic_string<char, std::char_traits<char>, std::allocator<char> > > >, std::less<std::basic_string<char, std::char_traits<char>, std::allocator<char> > >, std::allocator<std::pair<const std::basic_string<char, std::char_traits<char>, std::allocator<char> >, std::basic_string<char, std::char_traits<char>, std::allocator<char> > > > >::_M_get_Node_allocator
FUNC 11bc8 1e 0 std::allocator<std::pair<const std::basic_string<char, std::char_traits<char>, std::allocator<char> >, std::basic_string<char, std::char_traits<char>, std::allocator<char> > > >::allocator<std::_Rb_tree_node<std::pair<const std::basic_string<char, std::char_traits<char>, std::allocator<char> >, std::basic_string<char, std::char_traits<char>, std::allocator<char> > > > >
FUNC 11be6 a 0 __gnu_cxx::new_allocator<std::pair<const std::basic_string<char, std::char_traits<char>, std::allocator<char> >, std::basic_string<char, std::char_traits<char>, std::allocator<char> > > >::~new_allocator
FUNC 11bf0 22 0 __gnu_cxx::new_allocator<std::_Rb_tree_node<std::pair<const std::basic_string<char, std::char_traits<char>, std::allocator<char> >, std::basic_string<char, std::char_traits<char>, std::allocator<char> > > > >::deallocate
FUNC 11c12 a 0 __gnu_cxx::new_allocator<short unsigned int>::new_allocator
FUNC 11c1c a 0 __gnu_cxx::new_allocator<std::basic_string<char, std::char_traits<char>, std::allocator<char> > >::new_allocator
FUNC 11c26 1a 0 std::_Destroy<std::basic_string<char, std::char_traits<char>, std::allocator<char> > >
FUNC 11c40 2c 0 std::_Rb_tree<std::basic_string<char, std::char_traits<char>, std::allocator<char> >, std::pair<const std::basic_string<char, std::char_traits<char>, std::allocator<char> >, std::basic_string<char, std::char_traits<char>, std::allocator<char> > >, std::_Select1st<std::pair<const std::basic_string<char, std::char_traits<char>, std::allocator<char> >, std::basic_string<char, std::char_traits<char>, std::allocator<char> > > >, std::less<std::basic_string<char, std::char_traits<char>, std::allocator<char> > >, std::allocator<std::pair<const std::basic_string<char, std::char_traits<char>, std::allocator<char> >, std::basic_string<char, std::char_traits<char>, std::allocator<char> > > > >::begin
FUNC 11c6c 2e 0 std::pair<std::_Rb_tree_iterator<std::pair<const std::basic_string<char, std::char_traits<char>, std::allocator<char> >, std::basic_string<char, std::char_traits<char>, std::allocator<char> > > >, bool>::pair
FUNC 11c9a 28 0 std::_Rb_tree_iterator<std::pair<const std::basic_string<char, std::char_traits<char>, std::allocator<char> >, std::basic_string<char, std::char_traits<char>, std::allocator<char> > > >::operator--
FUNC 11cc2 12 0 std::_Rb_tree<std::basic_string<char, std::char_traits<char>, std::allocator<char> >, std::pair<const std::basic_string<char, std::char_traits<char>, std::allocator<char> >, std::basic_string<char, std::char_traits<char>, std::allocator<char> > >, std::_Select1st<std::pair<const std::basic_string<char, std::char_traits<char>, std::allocator<char> >, std::basic_string<char, std::char_traits<char>, std::allocator<char> > > >, std::less<std::basic_string<char, std::char_traits<char>, std::allocator<char> > >, std::allocator<std::pair<const std::basic_string<char, std::char_traits<char>, std::allocator<char> >, std::basic_string<char, std::char_traits<char>, std::allocator<char> > > > >::_S_value
FUNC 11cd4 e 0 std::__niter_base<short unsigned int*, false>::__b
FUNC 11ce2 31 0 std::__copy_move_backward_a<false, short unsigned int*, short unsigned int*>
FUNC 11d14 e 0 std::_Vector_base<short unsigned int, std::allocator<short unsigned int> >::_M_get_Tp_allocator
FUNC 11d22 14 0 __gnu_cxx::new_allocator<short unsigned int>::max_size
FUNC 11d36 2d 0 std::uninitialized_copy<short unsigned int*, short unsigned int*>
FUNC 11d64 14 0 __gnu_cxx::new_allocator<std::basic_string<char, std::char_traits<char>, std::allocator<char> > >::max_size
FUNC 11d78 63 0 std::__copy_move<false, false, std::random_access_iterator_tag>::__copy_m<const std::basic_string<char, std::char_traits<char>, std::allocator<char> >*, std::basic_string<char, std::char_traits<char>, std::allocator<char> >*>
FUNC 11ddb 3c 0 __gnu_cxx::operator!=<std::basic_string<char, std::char_traits<char>, std::allocator<char> >*, std::vector<std::basic_string<char, std::char_traits<char>, std::allocator<char> >, std::allocator<std::basic_string<char, std::char_traits<char>, std::allocator<char> > > > >
FUNC 11e18 20 0 __gnu_cxx::__normal_iterator<std::basic_string<char, std::char_traits<char>, std::allocator<char> >*, std::vector<std::basic_string<char, std::char_traits<char>, std::allocator<char> >, std::allocator<std::basic_string<char, std::char_traits<char>, std::allocator<char> > > > >::operator++
FUNC 11e38 63 0 std::__copy_move<false, false, std::random_access_iterator_tag>::__copy_m<std::basic_string<char, std::char_traits<char>, std::allocator<char> >*, std::basic_string<char, std::char_traits<char>, std::allocator<char> >*>
FUNC 11e9b 73 0 std::_Construct<std::basic_string<char, std::char_traits<char>, std::allocator<char> >, std::basic_string<char, std::char_traits<char>, std::allocator<char> > >
FUNC 11f0e 31 0 std::__copy_move_backward_a<false, std::basic_string<char, std::char_traits<char>, std::allocator<char> >*, std::basic_string<char, std::char_traits<char>, std::allocator<char> >*>
FUNC 11f3f 3c 0 __gnu_cxx::operator!=<const std::basic_string<char, std::char_traits<char>, std::allocator<char> >*, std::vector<std::basic_string<char, std::char_traits<char>, std::allocator<char> >, std::allocator<std::basic_string<char, std::char_traits<char>, std::allocator<char> > > > >
FUNC 11f7c 24 0 std::_Rb_tree<std::basic_string<char, std::char_traits<char>, std::allocator<char> >, std::pair<const std::basic_string<char, std::char_traits<char>, std::allocator<char> >, std::basic_string<char, std::char_traits<char>, std::allocator<char> > >, std::_Select1st<std::pair<const std::basic_string<char, std::char_traits<char>, std::allocator<char> >, std::basic_string<char, std::char_traits<char>, std::allocator<char> > > >, std::less<std::basic_string<char, std::char_traits<char>, std::allocator<char> > >, std::allocator<std::pair<const std::basic_string<char, std::char_traits<char>, std::allocator<char> >, std::basic_string<char, std::char_traits<char>, std::allocator<char> > > > >::_M_get_node
FUNC 11fa0 6b 0 std::pair<const std::basic_string<char, std::char_traits<char>, std::allocator<char> >, std::basic_string<char, std::char_traits<char>, std::allocator<char> > >::pair
FUNC 1200c 77 0 __gnu_cxx::new_allocator<std::pair<const std::basic_string<char, std::char_traits<char>, std::allocator<char> >, std::basic_string<char, std::char_traits<char>, std::allocator<char> > > >::construct
FUNC 12084 a 0 __gnu_cxx::new_allocator<std::pair<const std::basic_string<char, std::char_traits<char>, std::allocator<char> >, std::basic_string<char, std::char_traits<char>, std::allocator<char> > > >::new_allocator
FUNC 1208e 61 0 std::__copy_move_backward<false, true, std::random_access_iterator_tag>::__copy_move_b<short unsigned int>
FUNC 120ef 2d 0 std::__uninitialized_copy<true>::uninitialized_copy<short unsigned int*, short unsigned int*>
FUNC 1211c 63 0 std::__copy_move_backward<false, false, std::random_access_iterator_tag>::__copy_move_b<std::basic_string<char, std::char_traits<char>, std::allocator<char> >*, std::basic_string<char, std::char_traits<char>, std::allocator<char> >*>
FUNC 12180 54 0 __gnu_cxx::new_allocator<std::_Rb_tree_node<std::pair<const std::basic_string<char, std::char_traits<char>, std::allocator<char> >, std::basic_string<char, std::char_traits<char>, std::allocator<char> > > > >::allocate
FUNC 121d4 46 0 std::copy<short unsigned int*, short unsigned int*>
FUNC 1221a 14 0 __gnu_cxx::new_allocator<std::_Rb_tree_node<std::pair<const std::basic_string<char, std::char_traits<char>, std::allocator<char> >, std::basic_string<char, std::char_traits<char>, std::allocator<char> > > > >::max_size
FUNC 1222e 58 0 std::__copy_move_a2<false, short unsigned int*, short unsigned int*>
FUNC 12286 31 0 std::__copy_move_a<false, short unsigned int*, short unsigned int*>
FUNC 122b7 5c 0 std::__copy_move<false, true, std::random_access_iterator_tag>::__copy_m<short unsigned int>
FUNC 12314 119 0 EncapMysql::EncapMysql
FUNC 1242e 102 0 EncapMysql::~EncapMysql
FUNC 12530 74 0 EncapMysql::GetInstance
FUNC 125a4 112 0 EncapMysql::Connect
FUNC 126b6 31 0 EncapMysql::CloseConnect
FUNC 126e8 402 0 EncapMysql::SelectQuery
FUNC 12aea 1e3 0 EncapMysql::ModifyQuery
FUNC 12cce 4e 0 EncapMysql::FetchRow
FUNC 12d1c c3 0 EncapMysql::GetField
FUNC 12de0 3b 0 EncapMysql::GetField
FUNC 12e1c 40 0 EncapMysql::FreePreResult
FUNC 12e5c 12 0 EncapMysql::GetErrMsg
FUNC 12e6e 12 0 EncapMysql::IsConnected
FUNC 12e80 1a 0 EncapMysql::SetConnected
FUNC 12e9a 68 0 EncapMysql::SaveParam
FUNC 12f02 107 0 EncapMysql::ReConnect
FUNC 1300a 11 0 EncapMysql::SetUsed
FUNC 1301c 11 0 EncapMysql::SetIdle
FUNC 1302e 14 0 EncapMysql::IsIdle
FUNC 13042 77 0 __static_initialization_and_destruction_0
FUNC 130b9 15 0 _GLOBAL__I_EncapMysql.cpp
FUNC 130ce 1a 0 Mutex::WriterLock
FUNC 130e8 1a 0 Mutex::WriterUnlock
FUNC 13102 12 0 Mutex::SetIsSafe
FUNC 13114 50 0 Mutex::Mutex
FUNC 13164 3f 0 Mutex::~Mutex
FUNC 131a4 3f 0 Mutex::Lock
FUNC 131e4 3f 0 Mutex::Unlock
FUNC 13224 2c 0 WriterMutexLock::WriterMutexLock
FUNC 13250 1d 0 WriterMutexLock::~WriterMutexLock
FUNC 1326e 1a 0 std::map<std::basic_string<char, std::char_traits<char>, std::allocator<char> >, int, std::less<std::basic_string<char, std::char_traits<char>, std::allocator<char> > >, std::allocator<std::pair<const std::basic_string<char, std::char_traits<char>, std::allocator<char> >, int> > >::~map
FUNC 13288 1a 0 std::map<std::basic_string<char, std::char_traits<char>, std::allocator<char> >, int, std::less<std::basic_string<char, std::char_traits<char>, std::allocator<char> > >, std::allocator<std::pair<const std::basic_string<char, std::char_traits<char>, std::allocator<char> >, int> > >::map
FUNC 132a2 1a 0 std::_Rb_tree<std::basic_string<char, std::char_traits<char>, std::allocator<char> >, std::pair<const std::basic_string<char, std::char_traits<char>, std::allocator<char> >, int>, std::_Select1st<std::pair<const std::basic_string<char, std::char_traits<char>, std::allocator<char> >, int> >, std::less<std::basic_string<char, std::char_traits<char>, std::allocator<char> > >, std::allocator<std::pair<const std::basic_string<char, std::char_traits<char>, std::allocator<char> >, int> > >::_Rb_tree_impl<std::less<std::basic_string<char, std::char_traits<char>, std::allocator<char> > >, false>::~_Rb_tree_impl
FUNC 132bc 63 0 std::_Rb_tree<std::basic_string<char, std::char_traits<char>, std::allocator<char> >, std::pair<const std::basic_string<char, std::char_traits<char>, std::allocator<char> >, int>, std::_Select1st<std::pair<const std::basic_string<char, std::char_traits<char>, std::allocator<char> >, int> >, std::less<std::basic_string<char, std::char_traits<char>, std::allocator<char> > >, std::allocator<std::pair<const std::basic_string<char, std::char_traits<char>, std::allocator<char> >, int> > >::~_Rb_tree
FUNC 13320 1a 0 std::map<std::basic_string<char, std::char_traits<char>, std::allocator<char> >, int, std::less<std::basic_string<char, std::char_traits<char>, std::allocator<char> > >, std::allocator<std::pair<const std::basic_string<char, std::char_traits<char>, std::allocator<char> >, int> > >::clear
FUNC 1333a 1a 0 std::pair<const std::basic_string<char, std::char_traits<char>, std::allocator<char> >, int>::~pair
FUNC 13354 118 0 std::map<std::basic_string<char, std::char_traits<char>, std::allocator<char> >, int, std::less<std::basic_string<char, std::char_traits<char>, std::allocator<char> > >, std::allocator<std::pair<const std::basic_string<char, std::char_traits<char>, std::allocator<char> >, int> > >::operator[]
FUNC 1346c 1a 0 std::_Rb_tree<std::basic_string<char, std::char_traits<char>, std::allocator<char> >, std::pair<const std::basic_string<char, std::char_traits<char>, std::allocator<char> >, int>, std::_Select1st<std::pair<const std::basic_string<char, std::char_traits<char>, std::allocator<char> >, int> >, std::less<std::basic_string<char, std::char_traits<char>, std::allocator<char> > >, std::allocator<std::pair<const std::basic_string<char, std::char_traits<char>, std::allocator<char> >, int> > >::_Rb_tree
FUNC 13486 1a 0 std::allocator<std::_Rb_tree_node<std::pair<const std::basic_string<char, std::char_traits<char>, std::allocator<char> >, int> > >::~allocator
FUNC 134a0 69 0 std::_Rb_tree<std::basic_string<char, std::char_traits<char>, std::allocator<char> >, std::pair<const std::basic_string<char, std::char_traits<char>, std::allocator<char> >, int>, std::_Select1st<std::pair<const std::basic_string<char, std::char_traits<char>, std::allocator<char> >, int> >, std::less<std::basic_string<char, std::char_traits<char>, std::allocator<char> > >, std::allocator<std::pair<const std::basic_string<char, std::char_traits<char>, std::allocator<char> >, int> > >::_M_erase
FUNC 1350a 12 0 std::_Rb_tree<std::basic_string<char, std::char_traits<char>, std::allocator<char> >, std::pair<const std::basic_string<char, std::char_traits<char>, std::allocator<char> >, int>, std::_Select1st<std::pair<const std::basic_string<char, std::char_traits<char>, std::allocator<char> >, int> >, std::less<std::basic_string<char, std::char_traits<char>, std::allocator<char> > >, std::allocator<std::pair<const std::basic_string<char, std::char_traits<char>, std::allocator<char> >, int> > >::_M_begin
FUNC 1351c 8d 0 std::_Rb_tree<std::basic_string<char, std::char_traits<char>, std::allocator<char> >, std::pair<const std::basic_string<char, std::char_traits<char>, std::allocator<char> >, int>, std::_Select1st<std::pair<const std::basic_string<char, std::char_traits<char>, std::allocator<char> >, int> >, std::less<std::basic_string<char, std::char_traits<char>, std::allocator<char> > >, std::allocator<std::pair<const std::basic_string<char, std::char_traits<char>, std::allocator<char> >, int> > >::clear
FUNC 135aa 25 0 std::map<std::basic_string<char, std::char_traits<char>, std::allocator<char> >, int, std::less<std::basic_string<char, std::char_traits<char>, std::allocator<char> > >, std::allocator<std::pair<const std::basic_string<char, std::char_traits<char>, std::allocator<char> >, int> > >::lower_bound
FUNC 135d0 1a 0 std::map<std::basic_string<char, std::char_traits<char>, std::allocator<char> >, int, std::less<std::basic_string<char, std::char_traits<char>, std::allocator<char> > >, std::allocator<std::pair<const std::basic_string<char, std::char_traits<char>, std::allocator<char> >, int> > >::key_comp
FUNC 135ea 15 0 std::_Rb_tree_iterator<std::pair<const std::basic_string<char, std::char_traits<char>, std::allocator<char> >, int> >::operator*
FUNC 13600 1a 0 std::map<std::basic_string<char, std::char_traits<char>, std::allocator<char> >, int, std::less<std::basic_string<char, std::char_traits<char>, std::allocator<char> > >, std::allocator<std::pair<const std::basic_string<char, std::char_traits<char>, std::allocator<char> >, int> > >::end
FUNC 1361a 22 0 std::_Rb_tree_iterator<std::pair<const std::basic_string<char, std::char_traits<char>, std::allocator<char> >, int> >::operator==
FUNC 1363c 36 0 std::pair<const std::basic_string<char, std::char_traits<char>, std::allocator<char> >, int>::pair
FUNC 13672 40 0 std::map<std::basic_string<char, std::char_traits<char>, std::allocator<char> >, int, std::less<std::basic_string<char, std::char_traits<char>, std::allocator<char> > >, std::allocator<std::pair<const std::basic_string<char, std::char_traits<char>, std::allocator<char> >, int> > >::insert
FUNC 136b2 8c 0 std::_Rb_tree<std::basic_string<char, std::char_traits<char>, std::allocator<char> >, std::pair<const std::basic_string<char, std::char_traits<char>, std::allocator<char> >, int>, std::_Select1st<std::pair<const std::basic_string<char, std::char_traits<char>, std::allocator<char> >, int> >, std::less<std::basic_string<char, std::char_traits<char>, std::allocator<char> > >, std::allocator<std::pair<const std::basic_string<char, std::char_traits<char>, std::allocator<char> >, int> > >::_Rb_tree_impl<std::less<std::basic_string<char, std::char_traits<char>, std::allocator<char> > >, false>::_Rb_tree_impl
FUNC 1373e a 0 __gnu_cxx::new_allocator<std::_Rb_tree_node<std::pair<const std::basic_string<char, std::char_traits<char>, std::allocator<char> >, int> > >::~new_allocator
FUNC 13748 12 0 std::_Rb_tree<std::basic_string<char, std::char_traits<char>, std::allocator<char> >, std::pair<const std::basic_string<char, std::char_traits<char>, std::allocator<char> >, int>, std::_Select1st<std::pair<const std::basic_string<char, std::char_traits<char>, std::allocator<char> >, int> >, std::less<std::basic_string<char, std::char_traits<char>, std::allocator<char> > >, std::allocator<std::pair<const std::basic_string<char, std::char_traits<char>, std::allocator<char> >, int> > >::_S_right
FUNC 1375a 12 0 std::_Rb_tree<std::basic_string<char, std::char_traits<char>, std::allocator<char> >, std::pair<const std::basic_string<char, std::char_traits<char>, std::allocator<char> >, int>, std::_Select1st<std::pair<const std::basic_string<char, std::char_traits<char>, std::allocator<char> >, int> >, std::less<std::basic_string<char, std::char_traits<char>, std::allocator<char> > >, std::allocator<std::pair<const std::basic_string<char, std::char_traits<char>, std::allocator<char> >, int> > >::_S_left
FUNC 1376c 86 0 std::_Rb_tree<std::basic_string<char, std::char_traits<char>, std::allocator<char> >, std::pair<const std::basic_string<char, std::char_traits<char>, std::allocator<char> >, int>, std::_Select1st<std::pair<const std::basic_string<char, std::char_traits<char>, std::allocator<char> >, int> >, std::less<std::basic_string<char, std::char_traits<char>, std::allocator<char> > >, std::allocator<std::pair<const std::basic_string<char, std::char_traits<char>, std::allocator<char> >, int> > >::_M_destroy_node
FUNC 137f2 12 0 std::_Rb_tree<std::basic_string<char, std::char_traits<char>, std::allocator<char> >, std::pair<const std::basic_string<char, std::char_traits<char>, std::allocator<char> >, int>, std::_Select1st<std::pair<const std::basic_string<char, std::char_traits<char>, std::allocator<char> >, int> >, std::less<std::basic_string<char, std::char_traits<char>, std::allocator<char> > >, std::allocator<std::pair<const std::basic_string<char, std::char_traits<char>, std::allocator<char> >, int> > >::_M_end
FUNC 13804 12 0 std::_Rb_tree<std::basic_string<char, std::char_traits<char>, std::allocator<char> >, std::pair<const std::basic_string<char, std::char_traits<char>, std::allocator<char> >, int>, std::_Select1st<std::pair<const std::basic_string<char, std::char_traits<char>, std::allocator<char> >, int> >, std::less<std::basic_string<char, std::char_traits<char>, std::allocator<char> > >, std::allocator<std::pair<const std::basic_string<char, std::char_traits<char>, std::allocator<char> >, int> > >::_M_leftmost
FUNC 13816 12 0 std::_Rb_tree<std::basic_string<char, std::char_traits<char>, std::allocator<char> >, std::pair<const std::basic_string<char, std::char_traits<char>, std::allocator<char> >, int>, std::_Select1st<std::pair<const std::basic_string<char, std::char_traits<char>, std::allocator<char> >, int> >, std::less<std::basic_string<char, std::char_traits<char>, std::allocator<char> > >, std::allocator<std::pair<const std::basic_string<char, std::char_traits<char>, std::allocator<char> >, int> > >::_M_root
FUNC 13828 12 0 std::_Rb_tree<std::basic_string<char, std::char_traits<char>, std::allocator<char> >, std::pair<const std::basic_string<char, std::char_traits<char>, std::allocator<char> >, int>, std::_Select1st<std::pair<const std::basic_string<char, std::char_traits<char>, std::allocator<char> >, int> >, std::less<std::basic_string<char, std::char_traits<char>, std::allocator<char> > >, std::allocator<std::pair<const std::basic_string<char, std::char_traits<char>, std::allocator<char> >, int> > >::_M_rightmost
FUNC 1383a 53 0 std::_Rb_tree<std::basic_string<char, std::char_traits<char>, std::allocator<char> >, std::pair<const std::basic_string<char, std::char_traits<char>, std::allocator<char> >, int>, std::_Select1st<std::pair<const std::basic_string<char, std::char_traits<char>, std::allocator<char> >, int> >, std::less<std::basic_string<char, std::char_traits<char>, std::allocator<char> > >, std::allocator<std::pair<const std::basic_string<char, std::char_traits<char>, std::allocator<char> >, int> > >::lower_bound
FUNC 1388e a 0 std::_Rb_tree<std::basic_string<char, std::char_traits<char>, std::allocator<char> >, std::pair<const std::basic_string<char, std::char_traits<char>, std::allocator<char> >, int>, std::_Select1st<std::pair<const std::basic_string<char, std::char_traits<char>, std::allocator<char> >, int> >, std::less<std::basic_string<char, std::char_traits<char>, std::allocator<char> > >, std::allocator<std::pair<const std::basic_string<char, std::char_traits<char>, std::allocator<char> >, int> > >::key_comp
FUNC 13898 2c 0 std::_Rb_tree<std::basic_string<char, std::char_traits<char>, std::allocator<char> >, std::pair<const std::basic_string<char, std::char_traits<char>, std::allocator<char> >, int>, std::_Select1st<std::pair<const std::basic_string<char, std::char_traits<char>, std::allocator<char> >, int> >, std::less<std::basic_string<char, std::char_traits<char>, std::allocator<char> > >, std::allocator<std::pair<const std::basic_string<char, std::char_traits<char>, std::allocator<char> >, int> > >::end
FUNC 138c4 1c 0 std::_Rb_tree_const_iterator<std::pair<const std::basic_string<char, std::char_traits<char>, std::allocator<char> >, int> >::_Rb_tree_const_iterator
FUNC 138e0 4c0 0 std::_Rb_tree<std::basic_string<char, std::char_traits<char>, std::allocator<char> >, std::pair<const std::basic_string<char, std::char_traits<char>, std::allocator<char> >, int>, std::_Select1st<std::pair<const std::basic_string<char, std::char_traits<char>, std::allocator<char> >, int> >, std::less<std::basic_string<char, std::char_traits<char>, std::allocator<char> > >, std::allocator<std::pair<const std::basic_string<char, std::char_traits<char>, std::allocator<char> >, int> > >::_M_insert_unique_
FUNC 13da0 1a 0 std::allocator<std::_Rb_tree_node<std::pair<const std::basic_string<char, std::char_traits<char>, std::allocator<char> >, int> > >::allocator
FUNC 13dba 41 0 std::_Rb_tree<std::basic_string<char, std::char_traits<char>, std::allocator<char> >, std::pair<const std::basic_string<char, std::char_traits<char>, std::allocator<char> >, int>, std::_Select1st<std::pair<const std::basic_string<char, std::char_traits<char>, std::allocator<char> >, int> >, std::less<std::basic_string<char, std::char_traits<char>, std::allocator<char> > >, std::allocator<std::pair<const std::basic_string<char, std::char_traits<char>, std::allocator<char> >, int> > >::_Rb_tree_impl<std::less<std::basic_string<char, std::char_traits<char>, std::allocator<char> > >, false>::_M_initialize
FUNC 13dfc 3b 0 std::_Rb_tree<std::basic_string<char, std::char_traits<char>, std::allocator<char> >, std::pair<const std::basic_string<char, std::char_traits<char>, std::allocator<char> >, int>, std::_Select1st<std::pair<const std::basic_string<char, std::char_traits<char>, std::allocator<char> >, int> >, std::less<std::basic_string<char, std::char_traits<char>, std::allocator<char> > >, std::allocator<std::pair<const std::basic_string<char, std::char_traits<char>, std::allocator<char> >, int> > >::get_allocator
FUNC 13e38 1a 0 std::allocator<std::pair<const std::basic_string<char, std::char_traits<char>, std::allocator<char> >, int> >::~allocator
FUNC 13e52 1e 0 __gnu_cxx::new_allocator<std::pair<const std::basic_string<char, std::char_traits<char>, std::allocator<char> >, int> >::destroy
FUNC 13e70 2a 0 std::_Rb_tree<std::basic_string<char, std::char_traits<char>, std::allocator<char> >, std::pair<const std::basic_string<char, std::char_traits<char>, std::allocator<char> >, int>, std::_Select1st<std::pair<const std::basic_string<char, std::char_traits<char>, std::allocator<char> >, int> >, std::less<std::basic_string<char, std::char_traits<char>, std::allocator<char> > >, std::allocator<std::pair<const std::basic_string<char, std::char_traits<char>, std::allocator<char> >, int> > >::_M_put_node
FUNC 13e9a 92 0 std::_Rb_tree<std::basic_string<char, std::char_traits<char>, std::allocator<char> >, std::pair<const std::basic_string<char, std::char_traits<char>, std::allocator<char> >, int>, std::_Select1st<std::pair<const std::basic_string<char, std::char_traits<char>, std::allocator<char> >, int> >, std::less<std::basic_string<char, std::char_traits<char>, std::allocator<char> > >, std::allocator<std::pair<const std::basic_string<char, std::char_traits<char>, std::allocator<char> >, int> > >::_M_lower_bound
FUNC 13f2c 19 0 std::_Rb_tree_iterator<std::pair<const std::basic_string<char, std::char_traits<char>, std::allocator<char> >, int> >::_Rb_tree_iterator
FUNC 13f45 2c 0 std::_Rb_tree<std::basic_string<char, std::char_traits<char>, std::allocator<char> >, std::pair<const std::basic_string<char, std::char_traits<char>, std::allocator<char> >, int>, std::_Select1st<std::pair<const std::basic_string<char, std::char_traits<char>, std::allocator<char> >, int> >, std::less<std::basic_string<char, std::char_traits<char>, std::allocator<char> > >, std::allocator<std::pair<const std::basic_string<char, std::char_traits<char>, std::allocator<char> >, int> > >::_S_key
FUNC 13f72 12 0 std::_Select1st<std::pair<const std::basic_string<char, std::char_traits<char>, std::allocator<char> >, int> >::operator()
FUNC 13f84 12 0 std::_Rb_tree<std::basic_string<char, std::char_traits<char>, std::allocator<char> >, std::pair<const std::basic_string<char, std::char_traits<char>, std::allocator<char> >, int>, std::_Select1st<std::pair<const std::basic_string<char, std::char_traits<char>, std::allocator<char> >, int> >, std::less<std::basic_string<char, std::char_traits<char>, std::allocator<char> > >, std::allocator<std::pair<const std::basic_string<char, std::char_traits<char>, std::allocator<char> >, int> > >::size
FUNC 13f96 e3 0 std::_Rb_tree<std::basic_string<char, std::char_traits<char>, std::allocator<char> >, std::pair<const std::basic_string<char, std::char_traits<char>, std::allocator<char> >, int>, std::_Select1st<std::pair<const std::basic_string<char, std::char_traits<char>, std::allocator<char> >, int> >, std::less<std::basic_string<char, std::char_traits<char>, std::allocator<char> > >, std::allocator<std::pair<const std::basic_string<char, std::char_traits<char>, std::allocator<char> >, int> > >::_M_insert_
FUNC 1407a 271 0 std::_Rb_tree<std::basic_string<char, std::char_traits<char>, std::allocator<char> >, std::pair<const std::basic_string<char, std::char_traits<char>, std::allocator<char> >, int>, std::_Select1st<std::pair<const std::basic_string<char, std::char_traits<char>, std::allocator<char> >, int> >, std::less<std::basic_string<char, std::char_traits<char>, std::allocator<char> > >, std::allocator<std::pair<const std::basic_string<char, std::char_traits<char>, std::allocator<char> >, int> > >::_M_insert_unique
FUNC 142ec 28 0 std::_Rb_tree_const_iterator<std::pair<const std::basic_string<char, std::char_traits<char>, std::allocator<char> >, int> >::operator--
FUNC 14314 12 0 std::_Rb_tree<std::basic_string<char, std::char_traits<char>, std::allocator<char> >, std::pair<const std::basic_string<char, std::char_traits<char>, std::allocator<char> >, int>, std::_Select1st<std::pair<const std::basic_string<char, std::char_traits<char>, std::allocator<char> >, int> >, std::less<std::basic_string<char, std::char_traits<char>, std::allocator<char> > >, std::allocator<std::pair<const std::basic_string<char, std::char_traits<char>, std::allocator<char> >, int> > >::_S_right
FUNC 14326 28 0 std::_Rb_tree_const_iterator<std::pair<const std::basic_string<char, std::char_traits<char>, std::allocator<char> >, int> >::operator++
FUNC 1434e a 0 __gnu_cxx::new_allocator<std::_Rb_tree_node<std::pair<const std::basic_string<char, std::char_traits<char>, std::allocator<char> >, int> > >::new_allocator
FUNC 14358 e 0 std::_Rb_tree<std::basic_string<char, std::char_traits<char>, std::allocator<char> >, std::pair<const std::basic_string<char, std::char_traits<char>, std::allocator<char> >, int>, std::_Select1st<std::pair<const std::basic_string<char, std::char_traits<char>, std::allocator<char> >, int> >, std::less<std::basic_string<char, std::char_traits<char>, std::allocator<char> > >, std::allocator<std::pair<const std::basic_string<char, std::char_traits<char>, std::allocator<char> >, int> > >::_M_get_Node_allocator
FUNC 14366 1e 0 std::allocator<std::pair<const std::basic_string<char, std::char_traits<char>, std::allocator<char> >, int> >::allocator<std::_Rb_tree_node<std::pair<const std::basic_string<char, std::char_traits<char>, std::allocator<char> >, int> > >
FUNC 14384 a 0 __gnu_cxx::new_allocator<std::pair<const std::basic_string<char, std::char_traits<char>, std::allocator<char> >, int> >::~new_allocator
FUNC 1438e 22 0 __gnu_cxx::new_allocator<std::_Rb_tree_node<std::pair<const std::basic_string<char, std::char_traits<char>, std::allocator<char> >, int> > >::deallocate
FUNC 143b0 2c 0 std::_Rb_tree<std::basic_string<char, std::char_traits<char>, std::allocator<char> >, std::pair<const std::basic_string<char, std::char_traits<char>, std::allocator<char> >, int>, std::_Select1st<std::pair<const std::basic_string<char, std::char_traits<char>, std::allocator<char> >, int> >, std::less<std::basic_string<char, std::char_traits<char>, std::allocator<char> > >, std::allocator<std::pair<const std::basic_string<char, std::char_traits<char>, std::allocator<char> >, int> > >::_S_key
FUNC 143dc 12 0 std::_Rb_tree<std::basic_string<char, std::char_traits<char>, std::allocator<char> >, std::pair<const std::basic_string<char, std::char_traits<char>, std::allocator<char> >, int>, std::_Select1st<std::pair<const std::basic_string<char, std::char_traits<char>, std::allocator<char> >, int> >, std::less<std::basic_string<char, std::char_traits<char>, std::allocator<char> > >, std::allocator<std::pair<const std::basic_string<char, std::char_traits<char>, std::allocator<char> >, int> > >::_S_value
FUNC 143ee bd 0 std::_Rb_tree<std::basic_string<char, std::char_traits<char>, std::allocator<char> >, std::pair<const std::basic_string<char, std::char_traits<char>, std::allocator<char> >, int>, std::_Select1st<std::pair<const std::basic_string<char, std::char_traits<char>, std::allocator<char> >, int> >, std::less<std::basic_string<char, std::char_traits<char>, std::allocator<char> > >, std::allocator<std::pair<const std::basic_string<char, std::char_traits<char>, std::allocator<char> >, int> > >::_M_create_node
FUNC 144ac 2c 0 std::_Rb_tree<std::basic_string<char, std::char_traits<char>, std::allocator<char> >, std::pair<const std::basic_string<char, std::char_traits<char>, std::allocator<char> >, int>, std::_Select1st<std::pair<const std::basic_string<char, std::char_traits<char>, std::allocator<char> >, int> >, std::less<std::basic_string<char, std::char_traits<char>, std::allocator<char> > >, std::allocator<std::pair<const std::basic_string<char, std::char_traits<char>, std::allocator<char> >, int> > >::begin
FUNC 144d8 2e 0 std::pair<std::_Rb_tree_iterator<std::pair<const std::basic_string<char, std::char_traits<char>, std::allocator<char> >, int> >, bool>::pair
FUNC 14506 28 0 std::_Rb_tree_iterator<std::pair<const std::basic_string<char, std::char_traits<char>, std::allocator<char> >, int> >::operator--
FUNC 1452e a 0 __gnu_cxx::new_allocator<std::pair<const std::basic_string<char, std::char_traits<char>, std::allocator<char> >, int> >::new_allocator
FUNC 14538 12 0 std::_Rb_tree<std::basic_string<char, std::char_traits<char>, std::allocator<char> >, std::pair<const std::basic_string<char, std::char_traits<char>, std::allocator<char> >, int>, std::_Select1st<std::pair<const std::basic_string<char, std::char_traits<char>, std::allocator<char> >, int> >, std::less<std::basic_string<char, std::char_traits<char>, std::allocator<char> > >, std::allocator<std::pair<const std::basic_string<char, std::char_traits<char>, std::allocator<char> >, int> > >::_S_value
FUNC 1454a 24 0 std::_Rb_tree<std::basic_string<char, std::char_traits<char>, std::allocator<char> >, std::pair<const std::basic_string<char, std::char_traits<char>, std::allocator<char> >, int>, std::_Select1st<std::pair<const std::basic_string<char, std::char_traits<char>, std::allocator<char> >, int> >, std::less<std::basic_string<char, std::char_traits<char>, std::allocator<char> > >, std::allocator<std::pair<const std::basic_string<char, std::char_traits<char>, std::allocator<char> >, int> > >::_M_get_node
FUNC 1456e 33 0 std::pair<const std::basic_string<char, std::char_traits<char>, std::allocator<char> >, int>::pair
FUNC 145a2 77 0 __gnu_cxx::new_allocator<std::pair<const std::basic_string<char, std::char_traits<char>, std::allocator<char> >, int> >::construct
FUNC 1461a 54 0 __gnu_cxx::new_allocator<std::_Rb_tree_node<std::pair<const std::basic_string<char, std::char_traits<char>, std::allocator<char> >, int> > >::allocate
FUNC 1466e 14 0 __gnu_cxx::new_allocator<std::_Rb_tree_node<std::pair<const std::basic_string<char, std::char_traits<char>, std::allocator<char> >, int> > >::max_size
FUNC 14684 28 0 IEC103Manager::IEC103Manager
FUNC 146ac 61 0 IEC103Manager::~IEC103Manager
FUNC 1470e 26 0 IEC103Manager::~IEC103Manager
FUNC 14734 84f 0 IEC103Manager::Init
FUNC 14f84 2d 0 IEC103Manager::Start
FUNC 14fb2 1b 0 IEC103Manager::Stop
FUNC 14fce 62 0 IEC103Manager::SignalHandle
FUNC 15030 ca 0 __static_initialization_and_destruction_0
FUNC 150fa 15 0 _GLOBAL__I_IEC103Manager.cpp
FUNC 1510f 1a 0 std::char_traits<char>::length
FUNC 15129 2e 0 std::_Rb_tree_node_base::_S_minimum
FUNC 15157 2e 0 std::_Rb_tree_node_base::_S_maximum
FUNC 15186 33 0 Config::GetChannelName
FUNC 151ba 12 0 Config::GetNetType
FUNC 151cc 29 0 Config::SetIp
FUNC 151f6 1a 0 Config::SetUdpPort
FUNC 15210 14 0 Config::GetLogLv
FUNC 15224 14 0 Config::GetIec103RunType
FUNC 15238 1a 0 std::map<std::basic_string<char, std::char_traits<char>, std::allocator<char> >, IEC103::stConfigParam, std::less<std::basic_string<char, std::char_traits<char>, std::allocator<char> > >, std::allocator<std::pair<const std::basic_string<char, std::char_traits<char>, std::allocator<char> >, IEC103::stConfigParam> > >::~map
FUNC 15252 1a 0 std::map<std::basic_string<char, std::char_traits<char>, std::allocator<char> >, std::map<std::basic_string<char, std::char_traits<char>, std::allocator<char> >, std::basic_string<char, std::char_traits<char>, std::allocator<char> >, std::less<std::basic_string<char, std::char_traits<char>, std::allocator<char> > >, std::allocator<std::pair<const std::basic_string<char, std::char_traits<char>, std::allocator<char> >, std::basic_string<char, std::char_traits<char>, std::allocator<char> > > > >, std::less<std::basic_string<char, std::char_traits<char>, std::allocator<char> > >, std::allocator<std::pair<const std::basic_string<char, std::char_traits<char>, std::allocator<char> >, std::map<std::basic_string<char, std::char_traits<char>, std::allocator<char> >, std::basic_string<char, std::char_traits<char>, std::allocator<char> >, std::less<std::basic_string<char, std::char_traits<char>, std::allocator<char> > >, std::allocator<std::pair<const std::basic_string<char, std::char_traits<char>, std::allocator<char> >, std::basic_string<char, std::char_traits<char>, std::allocator<char> > > > > > > >::~map
FUNC 1526c ae 0 std::operator+<char, std::char_traits<char>, std::allocator<char> >
FUNC 1531a 6e 0 std::operator+<char, std::char_traits<char>, std::allocator<char> >
FUNC 15388 1a 0 std::_Rb_tree<std::basic_string<char, std::char_traits<char>, std::allocator<char> >, std::pair<const std::basic_string<char, std::char_traits<char>, std::allocator<char> >, IEC103::stConfigParam>, std::_Select1st<std::pair<const std::basic_string<char, std::char_traits<char>, std::allocator<char> >, IEC103::stConfigParam> >, std::less<std::basic_string<char, std::char_traits<char>, std::allocator<char> > >, std::allocator<std::pair<const std::basic_string<char, std::char_traits<char>, std::allocator<char> >, IEC103::stConfigParam> > >::_Rb_tree_impl<std::less<std::basic_string<char, std::char_traits<char>, std::allocator<char> > >, false>::~_Rb_tree_impl
FUNC 153a2 63 0 std::_Rb_tree<std::basic_string<char, std::char_traits<char>, std::allocator<char> >, std::pair<const std::basic_string<char, std::char_traits<char>, std::allocator<char> >, IEC103::stConfigParam>, std::_Select1st<std::pair<const std::basic_string<char, std::char_traits<char>, std::allocator<char> >, IEC103::stConfigParam> >, std::less<std::basic_string<char, std::char_traits<char>, std::allocator<char> > >, std::allocator<std::pair<const std::basic_string<char, std::char_traits<char>, std::allocator<char> >, IEC103::stConfigParam> > >::~_Rb_tree
FUNC 15406 1a 0 std::map<std::basic_string<char, std::char_traits<char>, std::allocator<char> >, IEC103::stConfigParam, std::less<std::basic_string<char, std::char_traits<char>, std::allocator<char> > >, std::allocator<std::pair<const std::basic_string<char, std::char_traits<char>, std::allocator<char> >, IEC103::stConfigParam> > >::size
FUNC 15420 1a 0 std::map<std::basic_string<char, std::char_traits<char>, std::allocator<char> >, IEC103::stConfigParam, std::less<std::basic_string<char, std::char_traits<char>, std::allocator<char> > >, std::allocator<std::pair<const std::basic_string<char, std::char_traits<char>, std::allocator<char> >, IEC103::stConfigParam> > >::begin
FUNC 1543a 15 0 std::_Rb_tree_iterator<std::pair<const std::basic_string<char, std::char_traits<char>, std::allocator<char> >, IEC103::stConfigParam> >::operator->
FUNC 15450 1a 0 std::_Rb_tree<std::basic_string<char, std::char_traits<char>, std::allocator<char> >, std::pair<const std::basic_string<char, std::char_traits<char>, std::allocator<char> >, std::map<std::basic_string<char, std::char_traits<char>, std::allocator<char> >, std::basic_string<char, std::char_traits<char>, std::allocator<char> >, std::less<std::basic_string<char, std::char_traits<char>, std::allocator<char> > >, std::allocator<std::pair<const std::basic_string<char, std::char_traits<char>, std::allocator<char> >, std::basic_string<char, std::char_traits<char>, std::allocator<char> > > > > >, std::_Select1st<std::pair<const std::basic_string<char, std::char_traits<char>, std::allocator<char> >, std::map<std::basic_string<char, std::char_traits<char>, std::allocator<char> >, std::basic_string<char, std::char_traits<char>, std::allocator<char> >, std::less<std::basic_string<char, std::char_traits<char>, std::allocator<char> > >, std::allocator<std::pair<const std::basic_string<char, std::char_traits<char>, std::allocator<char> >, std::basic_string<char, std::char_traits<char>, std::allocator<char> > > > > > >, std::less<std::basic_string<char, std::char_traits<char>, std::allocator<char> > >, std::allocator<std::pair<const std::basic_string<char, std::char_traits<char>, std::allocator<char> >, std::map<std::basic_string<char, std::char_traits<char>, std::allocator<char> >, std::basic_string<char, std::char_traits<char>, std::allocator<char> >, std::less<std::basic_string<char, std::char_traits<char>, std::allocator<char> > >, std::allocator<std::pair<const std::basic_string<char, std::char_traits<char>, std::allocator<char> >, std::basic_string<char, std::char_traits<char>, std::allocator<char> > > > > > > >::_Rb_tree_impl<std::less<std::basic_string<char, std::char_traits<char>, std::allocator<char> > >, false>::~_Rb_tree_impl
FUNC 1546a 63 0 std::_Rb_tree<std::basic_string<char, std::char_traits<char>, std::allocator<char> >, std::pair<const std::basic_string<char, std::char_traits<char>, std::allocator<char> >, std::map<std::basic_string<char, std::char_traits<char>, std::allocator<char> >, std::basic_string<char, std::char_traits<char>, std::allocator<char> >, std::less<std::basic_string<char, std::char_traits<char>, std::allocator<char> > >, std::allocator<std::pair<const std::basic_string<char, std::char_traits<char>, std::allocator<char> >, std::basic_string<char, std::char_traits<char>, std::allocator<char> > > > > >, std::_Select1st<std::pair<const std::basic_string<char, std::char_traits<char>, std::allocator<char> >, std::map<std::basic_string<char, std::char_traits<char>, std::allocator<char> >, std::basic_string<char, std::char_traits<char>, std::allocator<char> >, std::less<std::basic_string<char, std::char_traits<char>, std::allocator<char> > >, std::allocator<std::pair<const std::basic_string<char, std::char_traits<char>, std::allocator<char> >, std::basic_string<char, std::char_traits<char>, std::allocator<char> > > > > > >, std::less<std::basic_string<char, std::char_traits<char>, std::allocator<char> > >, std::allocator<std::pair<const std::basic_string<char, std::char_traits<char>, std::allocator<char> >, std::map<std::basic_string<char, std::char_traits<char>, std::allocator<char> >, std::basic_string<char, std::char_traits<char>, std::allocator<char> >, std::less<std::basic_string<char, std::char_traits<char>, std::allocator<char> > >, std::allocator<std::pair<const std::basic_string<char, std::char_traits<char>, std::allocator<char> >, std::basic_string<char, std::char_traits<char>, std::allocator<char> > > > > > > >::~_Rb_tree
FUNC 154ce 1a 0 std::map<std::basic_string<char, std::char_traits<char>, std::allocator<char> >, std::map<std::basic_string<char, std::char_traits<char>, std::allocator<char> >, std::basic_string<char, std::char_traits<char>, std::allocator<char> >, std::less<std::basic_string<char, std::char_traits<char>, std::allocator<char> > >, std::allocator<std::pair<const std::basic_string<char, std::char_traits<char>, std::allocator<char> >, std::basic_string<char, std::char_traits<char>, std::allocator<char> > > > >, std::less<std::basic_string<char, std::char_traits<char>, std::allocator<char> > >, std::allocator<std::pair<const std::basic_string<char, std::char_traits<char>, std::allocator<char> >, std::map<std::basic_string<char, std::char_traits<char>, std::allocator<char> >, std::basic_string<char, std::char_traits<char>, std::allocator<char> >, std::less<std::basic_string<char, std::char_traits<char>, std::allocator<char> > >, std::allocator<std::pair<const std::basic_string<char, std::char_traits<char>, std::allocator<char> >, std::basic_string<char, std::char_traits<char>, std::allocator<char> > > > > > > >::begin
FUNC 154e8 1a 0 std::map<std::basic_string<char, std::char_traits<char>, std::allocator<char> >, std::map<std::basic_string<char, std::char_traits<char>, std::allocator<char> >, std::basic_string<char, std::char_traits<char>, std::allocator<char> >, std::less<std::basic_string<char, std::char_traits<char>, std::allocator<char> > >, std::allocator<std::pair<const std::basic_string<char, std::char_traits<char>, std::allocator<char> >, std::basic_string<char, std::char_traits<char>, std::allocator<char> > > > >, std::less<std::basic_string<char, std::char_traits<char>, std::allocator<char> > >, std::allocator<std::pair<const std::basic_string<char, std::char_traits<char>, std::allocator<char> >, std::map<std::basic_string<char, std::char_traits<char>, std::allocator<char> >, std::basic_string<char, std::char_traits<char>, std::allocator<char> >, std::less<std::basic_string<char, std::char_traits<char>, std::allocator<char> > >, std::allocator<std::pair<const std::basic_string<char, std::char_traits<char>, std::allocator<char> >, std::basic_string<char, std::char_traits<char>, std::allocator<char> > > > > > > >::end
FUNC 15502 22 0 std::_Rb_tree_iterator<std::pair<const std::basic_string<char, std::char_traits<char>, std::allocator<char> >, std::map<std::basic_string<char, std::char_traits<char>, std::allocator<char> >, std::basic_string<char, std::char_traits<char>, std::allocator<char> >, std::less<std::basic_string<char, std::char_traits<char>, std::allocator<char> > >, std::allocator<std::pair<const std::basic_string<char, std::char_traits<char>, std::allocator<char> >, std::basic_string<char, std::char_traits<char>, std::allocator<char> > > > > > >::operator!=
FUNC 15524 28 0 std::_Rb_tree_iterator<std::pair<const std::basic_string<char, std::char_traits<char>, std::allocator<char> >, std::map<std::basic_string<char, std::char_traits<char>, std::allocator<char> >, std::basic_string<char, std::char_traits<char>, std::allocator<char> >, std::less<std::basic_string<char, std::char_traits<char>, std::allocator<char> > >, std::allocator<std::pair<const std::basic_string<char, std::char_traits<char>, std::allocator<char> >, std::basic_string<char, std::char_traits<char>, std::allocator<char> > > > > > >::operator++
FUNC 1554c 15 0 std::_Rb_tree_iterator<std::pair<const std::basic_string<char, std::char_traits<char>, std::allocator<char> >, std::map<std::basic_string<char, std::char_traits<char>, std::allocator<char> >, std::basic_string<char, std::char_traits<char>, std::allocator<char> >, std::less<std::basic_string<char, std::char_traits<char>, std::allocator<char> > >, std::allocator<std::pair<const std::basic_string<char, std::char_traits<char>, std::allocator<char> >, std::basic_string<char, std::char_traits<char>, std::allocator<char> > > > > > >::operator->
FUNC 15562 25 0 std::map<std::basic_string<char, std::char_traits<char>, std::allocator<char> >, std::basic_string<char, std::char_traits<char>, std::allocator<char> >, std::less<std::basic_string<char, std::char_traits<char>, std::allocator<char> > >, std::allocator<std::pair<const std::basic_string<char, std::char_traits<char>, std::allocator<char> >, std::basic_string<char, std::char_traits<char>, std::allocator<char> > > > >::map
FUNC 15588 1a 0 std::map<std::basic_string<char, std::char_traits<char>, std::allocator<char> >, std::basic_string<char, std::char_traits<char>, std::allocator<char> >, std::less<std::basic_string<char, std::char_traits<char>, std::allocator<char> > >, std::allocator<std::pair<const std::basic_string<char, std::char_traits<char>, std::allocator<char> >, std::basic_string<char, std::char_traits<char>, std::allocator<char> > > > >::begin
FUNC 155a2 22 0 std::_Rb_tree_iterator<std::pair<const std::basic_string<char, std::char_traits<char>, std::allocator<char> >, std::basic_string<char, std::char_traits<char>, std::allocator<char> > > >::operator!=
FUNC 155c4 28 0 std::_Rb_tree_iterator<std::pair<const std::basic_string<char, std::char_traits<char>, std::allocator<char> >, std::basic_string<char, std::char_traits<char>, std::allocator<char> > > >::operator++
FUNC 155ec 15 0 std::_Rb_tree_iterator<std::pair<const std::basic_string<char, std::char_traits<char>, std::allocator<char> >, std::basic_string<char, std::char_traits<char>, std::allocator<char> > > >::operator->
FUNC 15602 1a 0 std::allocator<std::_Rb_tree_node<std::pair<const std::basic_string<char, std::char_traits<char>, std::allocator<char> >, IEC103::stConfigParam> > >::~allocator
FUNC 1561c 69 0 std::_Rb_tree<std::basic_string<char, std::char_traits<char>, std::allocator<char> >, std::pair<const std::basic_string<char, std::char_traits<char>, std::allocator<char> >, IEC103::stConfigParam>, std::_Select1st<std::pair<const std::basic_string<char, std::char_traits<char>, std::allocator<char> >, IEC103::stConfigParam> >, std::less<std::basic_string<char, std::char_traits<char>, std::allocator<char> > >, std::allocator<std::pair<const std::basic_string<char, std::char_traits<char>, std::allocator<char> >, IEC103::stConfigParam> > >::_M_erase
FUNC 15686 12 0 std::_Rb_tree<std::basic_string<char, std::char_traits<char>, std::allocator<char> >, std::pair<const std::basic_string<char, std::char_traits<char>, std::allocator<char> >, IEC103::stConfigParam>, std::_Select1st<std::pair<const std::basic_string<char, std::char_traits<char>, std::allocator<char> >, IEC103::stConfigParam> >, std::less<std::basic_string<char, std::char_traits<char>, std::allocator<char> > >, std::allocator<std::pair<const std::basic_string<char, std::char_traits<char>, std::allocator<char> >, IEC103::stConfigParam> > >::_M_begin
FUNC 15698 12 0 std::_Rb_tree<std::basic_string<char, std::char_traits<char>, std::allocator<char> >, std::pair<const std::basic_string<char, std::char_traits<char>, std::allocator<char> >, IEC103::stConfigParam>, std::_Select1st<std::pair<const std::basic_string<char, std::char_traits<char>, std::allocator<char> >, IEC103::stConfigParam> >, std::less<std::basic_string<char, std::char_traits<char>, std::allocator<char> > >, std::allocator<std::pair<const std::basic_string<char, std::char_traits<char>, std::allocator<char> >, IEC103::stConfigParam> > >::size
FUNC 156aa 2c 0 std::_Rb_tree<std::basic_string<char, std::char_traits<char>, std::allocator<char> >, std::pair<const std::basic_string<char, std::char_traits<char>, std::allocator<char> >, IEC103::stConfigParam>, std::_Select1st<std::pair<const std::basic_string<char, std::char_traits<char>, std::allocator<char> >, IEC103::stConfigParam> >, std::less<std::basic_string<char, std::char_traits<char>, std::allocator<char> > >, std::allocator<std::pair<const std::basic_string<char, std::char_traits<char>, std::allocator<char> >, IEC103::stConfigParam> > >::begin
FUNC 156d6 1a 0 std::allocator<std::_Rb_tree_node<std::pair<const std::basic_string<char, std::char_traits<char>, std::allocator<char> >, std::map<std::basic_string<char, std::char_traits<char>, std::allocator<char> >, std::basic_string<char, std::char_traits<char>, std::allocator<char> >, std::less<std::basic_string<char, std::char_traits<char>, std::allocator<char> > >, std::allocator<std::pair<const std::basic_string<char, std::char_traits<char>, std::allocator<char> >, std::basic_string<char, std::char_traits<char>, std::allocator<char> > > > > > > >::~allocator
FUNC 156f0 69 0 std::_Rb_tree<std::basic_string<char, std::char_traits<char>, std::allocator<char> >, std::pair<const std::basic_string<char, std::char_traits<char>, std::allocator<char> >, std::map<std::basic_string<char, std::char_traits<char>, std::allocator<char> >, std::basic_string<char, std::char_traits<char>, std::allocator<char> >, std::less<std::basic_string<char, std::char_traits<char>, std::allocator<char> > >, std::allocator<std::pair<const std::basic_string<char, std::char_traits<char>, std::allocator<char> >, std::basic_string<char, std::char_traits<char>, std::allocator<char> > > > > >, std::_Select1st<std::pair<const std::basic_string<char, std::char_traits<char>, std::allocator<char> >, std::map<std::basic_string<char, std::char_traits<char>, std::allocator<char> >, std::basic_string<char, std::char_traits<char>, std::allocator<char> >, std::less<std::basic_string<char, std::char_traits<char>, std::allocator<char> > >, std::allocator<std::pair<const std::basic_string<char, std::char_traits<char>, std::allocator<char> >, std::basic_string<char, std::char_traits<char>, std::allocator<char> > > > > > >, std::less<std::basic_string<char, std::char_traits<char>, std::allocator<char> > >, std::allocator<std::pair<const std::basic_string<char, std::char_traits<char>, std::allocator<char> >, std::map<std::basic_string<char, std::char_traits<char>, std::allocator<char> >, std::basic_string<char, std::char_traits<char>, std::allocator<char> >, std::less<std::basic_string<char, std::char_traits<char>, std::allocator<char> > >, std::allocator<std::pair<const std::basic_string<char, std::char_traits<char>, std::allocator<char> >, std::basic_string<char, std::char_traits<char>, std::allocator<char> > > > > > > >::_M_erase
FUNC 1575a 12 0 std::_Rb_tree<std::basic_string<char, std::char_traits<char>, std::allocator<char> >, std::pair<const std::basic_string<char, std::char_traits<char>, std::allocator<char> >, std::map<std::basic_string<char, std::char_traits<char>, std::allocator<char> >, std::basic_string<char, std::char_traits<char>, std::allocator<char> >, std::less<std::basic_string<char, std::char_traits<char>, std::allocator<char> > >, std::allocator<std::pair<const std::basic_string<char, std::char_traits<char>, std::allocator<char> >, std::basic_string<char, std::char_traits<char>, std::allocator<char> > > > > >, std::_Select1st<std::pair<const std::basic_string<char, std::char_traits<char>, std::allocator<char> >, std::map<std::basic_string<char, std::char_traits<char>, std::allocator<char> >, std::basic_string<char, std::char_traits<char>, std::allocator<char> >, std::less<std::basic_string<char, std::char_traits<char>, std::allocator<char> > >, std::allocator<std::pair<const std::basic_string<char, std::char_traits<char>, std::allocator<char> >, std::basic_string<char, std::char_traits<char>, std::allocator<char> > > > > > >, std::less<std::basic_string<char, std::char_traits<char>, std::allocator<char> > >, std::allocator<std::pair<const std::basic_string<char, std::char_traits<char>, std::allocator<char> >, std::map<std::basic_string<char, std::char_traits<char>, std::allocator<char> >, std::basic_string<char, std::char_traits<char>, std::allocator<char> >, std::less<std::basic_string<char, std::char_traits<char>, std::allocator<char> > >, std::allocator<std::pair<const std::basic_string<char, std::char_traits<char>, std::allocator<char> >, std::basic_string<char, std::char_traits<char>, std::allocator<char> > > > > > > >::_M_begin
FUNC 1576c 2c 0 std::_Rb_tree<std::basic_string<char, std::char_traits<char>, std::allocator<char> >, std::pair<const std::basic_string<char, std::char_traits<char>, std::allocator<char> >, std::map<std::basic_string<char, std::char_traits<char>, std::allocator<char> >, std::basic_string<char, std::char_traits<char>, std::allocator<char> >, std::less<std::basic_string<char, std::char_traits<char>, std::allocator<char> > >, std::allocator<std::pair<const std::basic_string<char, std::char_traits<char>, std::allocator<char> >, std::basic_string<char, std::char_traits<char>, std::allocator<char> > > > > >, std::_Select1st<std::pair<const std::basic_string<char, std::char_traits<char>, std::allocator<char> >, std::map<std::basic_string<char, std::char_traits<char>, std::allocator<char> >, std::basic_string<char, std::char_traits<char>, std::allocator<char> >, std::less<std::basic_string<char, std::char_traits<char>, std::allocator<char> > >, std::allocator<std::pair<const std::basic_string<char, std::char_traits<char>, std::allocator<char> >, std::basic_string<char, std::char_traits<char>, std::allocator<char> > > > > > >, std::less<std::basic_string<char, std::char_traits<char>, std::allocator<char> > >, std::allocator<std::pair<const std::basic_string<char, std::char_traits<char>, std::allocator<char> >, std::map<std::basic_string<char, std::char_traits<char>, std::allocator<char> >, std::basic_string<char, std::char_traits<char>, std::allocator<char> >, std::less<std::basic_string<char, std::char_traits<char>, std::allocator<char> > >, std::allocator<std::pair<const std::basic_string<char, std::char_traits<char>, std::allocator<char> >, std::basic_string<char, std::char_traits<char>, std::allocator<char> > > > > > > >::begin
FUNC 15798 2c 0 std::_Rb_tree<std::basic_string<char, std::char_traits<char>, std::allocator<char> >, std::pair<const std::basic_string<char, std::char_traits<char>, std::allocator<char> >, std::map<std::basic_string<char, std::char_traits<char>, std::allocator<char> >, std::basic_string<char, std::char_traits<char>, std::allocator<char> >, std::less<std::basic_string<char, std::char_traits<char>, std::allocator<char> > >, std::allocator<std::pair<const std::basic_string<char, std::char_traits<char>, std::allocator<char> >, std::basic_string<char, std::char_traits<char>, std::allocator<char> > > > > >, std::_Select1st<std::pair<const std::basic_string<char, std::char_traits<char>, std::allocator<char> >, std::map<std::basic_string<char, std::char_traits<char>, std::allocator<char> >, std::basic_string<char, std::char_traits<char>, std::allocator<char> >, std::less<std::basic_string<char, std::char_traits<char>, std::allocator<char> > >, std::allocator<std::pair<const std::basic_string<char, std::char_traits<char>, std::allocator<char> >, std::basic_string<char, std::char_traits<char>, std::allocator<char> > > > > > >, std::less<std::basic_string<char, std::char_traits<char>, std::allocator<char> > >, std::allocator<std::pair<const std::basic_string<char, std::char_traits<char>, std::allocator<char> >, std::map<std::basic_string<char, std::char_traits<char>, std::allocator<char> >, std::basic_string<char, std::char_traits<char>, std::allocator<char> >, std::less<std::basic_string<char, std::char_traits<char>, std::allocator<char> > >, std::allocator<std::pair<const std::basic_string<char, std::char_traits<char>, std::allocator<char> >, std::basic_string<char, std::char_traits<char>, std::allocator<char> > > > > > > >::end
FUNC 157c4 11d 0 std::_Rb_tree<std::basic_string<char, std::char_traits<char>, std::allocator<char> >, std::pair<const std::basic_string<char, std::char_traits<char>, std::allocator<char> >, std::basic_string<char, std::char_traits<char>, std::allocator<char> > >, std::_Select1st<std::pair<const std::basic_string<char, std::char_traits<char>, std::allocator<char> >, std::basic_string<char, std::char_traits<char>, std::allocator<char> > > >, std::less<std::basic_string<char, std::char_traits<char>, std::allocator<char> > >, std::allocator<std::pair<const std::basic_string<char, std::char_traits<char>, std::allocator<char> >, std::basic_string<char, std::char_traits<char>, std::allocator<char> > > > >::_Rb_tree
FUNC 158e2 12 0 std::_Rb_tree<std::basic_string<char, std::char_traits<char>, std::allocator<char> >, std::pair<const std::basic_string<char, std::char_traits<char>, std::allocator<char> >, std::basic_string<char, std::char_traits<char>, std::allocator<char> > >, std::_Select1st<std::pair<const std::basic_string<char, std::char_traits<char>, std::allocator<char> >, std::basic_string<char, std::char_traits<char>, std::allocator<char> > > >, std::less<std::basic_string<char, std::char_traits<char>, std::allocator<char> > >, std::allocator<std::pair<const std::basic_string<char, std::char_traits<char>, std::allocator<char> >, std::basic_string<char, std::char_traits<char>, std::allocator<char> > > > >::_M_root
FUNC 158f4 169 0 std::_Rb_tree<std::basic_string<char, std::char_traits<char>, std::allocator<char> >, std::pair<const std::basic_string<char, std::char_traits<char>, std::allocator<char> >, std::basic_string<char, std::char_traits<char>, std::allocator<char> > >, std::_Select1st<std::pair<const std::basic_string<char, std::char_traits<char>, std::allocator<char> >, std::basic_string<char, std::char_traits<char>, std::allocator<char> > > >, std::less<std::basic_string<char, std::char_traits<char>, std::allocator<char> > >, std::allocator<std::pair<const std::basic_string<char, std::char_traits<char>, std::allocator<char> >, std::basic_string<char, std::char_traits<char>, std::allocator<char> > > > >::_M_copy
FUNC 15a5e 12 0 std::_Rb_tree<std::basic_string<char, std::char_traits<char>, std::allocator<char> >, std::pair<const std::basic_string<char, std::char_traits<char>, std::allocator<char> >, std::basic_string<char, std::char_traits<char>, std::allocator<char> > >, std::_Select1st<std::pair<const std::basic_string<char, std::char_traits<char>, std::allocator<char> >, std::basic_string<char, std::char_traits<char>, std::allocator<char> > > >, std::less<std::basic_string<char, std::char_traits<char>, std::allocator<char> > >, std::allocator<std::pair<const std::basic_string<char, std::char_traits<char>, std::allocator<char> >, std::basic_string<char, std::char_traits<char>, std::allocator<char> > > > >::_M_begin
FUNC 15a70 1a 0 std::_Rb_tree<std::basic_string<char, std::char_traits<char>, std::allocator<char> >, std::pair<const std::basic_string<char, std::char_traits<char>, std::allocator<char> >, std::basic_string<char, std::char_traits<char>, std::allocator<char> > >, std::_Select1st<std::pair<const std::basic_string<char, std::char_traits<char>, std::allocator<char> >, std::basic_string<char, std::char_traits<char>, std::allocator<char> > > >, std::less<std::basic_string<char, std::char_traits<char>, std::allocator<char> > >, std::allocator<std::pair<const std::basic_string<char, std::char_traits<char>, std::allocator<char> >, std::basic_string<char, std::char_traits<char>, std::allocator<char> > > > >::_S_minimum
FUNC 15a8a 1a 0 std::_Rb_tree<std::basic_string<char, std::char_traits<char>, std::allocator<char> >, std::pair<const std::basic_string<char, std::char_traits<char>, std::allocator<char> >, std::basic_string<char, std::char_traits<char>, std::allocator<char> > >, std::_Select1st<std::pair<const std::basic_string<char, std::char_traits<char>, std::allocator<char> >, std::basic_string<char, std::char_traits<char>, std::allocator<char> > > >, std::less<std::basic_string<char, std::char_traits<char>, std::allocator<char> > >, std::allocator<std::pair<const std::basic_string<char, std::char_traits<char>, std::allocator<char> >, std::basic_string<char, std::char_traits<char>, std::allocator<char> > > > >::_S_maximum
FUNC 15aa4 a 0 __gnu_cxx::new_allocator<std::_Rb_tree_node<std::pair<const std::basic_string<char, std::char_traits<char>, std::allocator<char> >, IEC103::stConfigParam> > >::~new_allocator
FUNC 15aae 12 0 std::_Rb_tree<std::basic_string<char, std::char_traits<char>, std::allocator<char> >, std::pair<const std::basic_string<char, std::char_traits<char>, std::allocator<char> >, IEC103::stConfigParam>, std::_Select1st<std::pair<const std::basic_string<char, std::char_traits<char>, std::allocator<char> >, IEC103::stConfigParam> >, std::less<std::basic_string<char, std::char_traits<char>, std::allocator<char> > >, std::allocator<std::pair<const std::basic_string<char, std::char_traits<char>, std::allocator<char> >, IEC103::stConfigParam> > >::_S_right
FUNC 15ac0 12 0 std::_Rb_tree<std::basic_string<char, std::char_traits<char>, std::allocator<char> >, std::pair<const std::basic_string<char, std::char_traits<char>, std::allocator<char> >, IEC103::stConfigParam>, std::_Select1st<std::pair<const std::basic_string<char, std::char_traits<char>, std::allocator<char> >, IEC103::stConfigParam> >, std::less<std::basic_string<char, std::char_traits<char>, std::allocator<char> > >, std::allocator<std::pair<const std::basic_string<char, std::char_traits<char>, std::allocator<char> >, IEC103::stConfigParam> > >::_S_left
FUNC 15ad2 86 0 std::_Rb_tree<std::basic_string<char, std::char_traits<char>, std::allocator<char> >, std::pair<const std::basic_string<char, std::char_traits<char>, std::allocator<char> >, IEC103::stConfigParam>, std::_Select1st<std::pair<const std::basic_string<char, std::char_traits<char>, std::allocator<char> >, IEC103::stConfigParam> >, std::less<std::basic_string<char, std::char_traits<char>, std::allocator<char> > >, std::allocator<std::pair<const std::basic_string<char, std::char_traits<char>, std::allocator<char> >, IEC103::stConfigParam> > >::_M_destroy_node
FUNC 15b58 e 0 std::_Rb_tree<std::basic_string<char, std::char_traits<char>, std::allocator<char> >, std::pair<const std::basic_string<char, std::char_traits<char>, std::allocator<char> >, IEC103::stConfigParam>, std::_Select1st<std::pair<const std::basic_string<char, std::char_traits<char>, std::allocator<char> >, IEC103::stConfigParam> >, std::less<std::basic_string<char, std::char_traits<char>, std::allocator<char> > >, std::allocator<std::pair<const std::basic_string<char, std::char_traits<char>, std::allocator<char> >, IEC103::stConfigParam> > >::_M_get_Node_allocator
FUNC 15b66 19 0 std::_Rb_tree_iterator<std::pair<const std::basic_string<char, std::char_traits<char>, std::allocator<char> >, IEC103::stConfigParam> >::_Rb_tree_iterator
FUNC 15b80 a 0 __gnu_cxx::new_allocator<std::_Rb_tree_node<std::pair<const std::basic_string<char, std::char_traits<char>, std::allocator<char> >, std::map<std::basic_string<char, std::char_traits<char>, std::allocator<char> >, std::basic_string<char, std::char_traits<char>, std::allocator<char> >, std::less<std::basic_string<char, std::char_traits<char>, std::allocator<char> > >, std::allocator<std::pair<const std::basic_string<char, std::char_traits<char>, std::allocator<char> >, std::basic_string<char, std::char_traits<char>, std::allocator<char> > > > > > > >::~new_allocator
FUNC 15b8a 12 0 std::_Rb_tree<std::basic_string<char, std::char_traits<char>, std::allocator<char> >, std::pair<const std::basic_string<char, std::char_traits<char>, std::allocator<char> >, std::map<std::basic_string<char, std::char_traits<char>, std::allocator<char> >, std::basic_string<char, std::char_traits<char>, std::allocator<char> >, std::less<std::basic_string<char, std::char_traits<char>, std::allocator<char> > >, std::allocator<std::pair<const std::basic_string<char, std::char_traits<char>, std::allocator<char> >, std::basic_string<char, std::char_traits<char>, std::allocator<char> > > > > >, std::_Select1st<std::pair<const std::basic_string<char, std::char_traits<char>, std::allocator<char> >, std::map<std::basic_string<char, std::char_traits<char>, std::allocator<char> >, std::basic_string<char, std::char_traits<char>, std::allocator<char> >, std::less<std::basic_string<char, std::char_traits<char>, std::allocator<char> > >, std::allocator<std::pair<const std::basic_string<char, std::char_traits<char>, std::allocator<char> >, std::basic_string<char, std::char_traits<char>, std::allocator<char> > > > > > >, std::less<std::basic_string<char, std::char_traits<char>, std::allocator<char> > >, std::allocator<std::pair<const std::basic_string<char, std::char_traits<char>, std::allocator<char> >, std::map<std::basic_string<char, std::char_traits<char>, std::allocator<char> >, std::basic_string<char, std::char_traits<char>, std::allocator<char> >, std::less<std::basic_string<char, std::char_traits<char>, std::allocator<char> > >, std::allocator<std::pair<const std::basic_string<char, std::char_traits<char>, std::allocator<char> >, std::basic_string<char, std::char_traits<char>, std::allocator<char> > > > > > > >::_S_right
FUNC 15b9c 12 0 std::_Rb_tree<std::basic_string<char, std::char_traits<char>, std::allocator<char> >, std::pair<const std::basic_string<char, std::char_traits<char>, std::allocator<char> >, std::map<std::basic_string<char, std::char_traits<char>, std::allocator<char> >, std::basic_string<char, std::char_traits<char>, std::allocator<char> >, std::less<std::basic_string<char, std::char_traits<char>, std::allocator<char> > >, std::allocator<std::pair<const std::basic_string<char, std::char_traits<char>, std::allocator<char> >, std::basic_string<char, std::char_traits<char>, std::allocator<char> > > > > >, std::_Select1st<std::pair<const std::basic_string<char, std::char_traits<char>, std::allocator<char> >, std::map<std::basic_string<char, std::char_traits<char>, std::allocator<char> >, std::basic_string<char, std::char_traits<char>, std::allocator<char> >, std::less<std::basic_string<char, std::char_traits<char>, std::allocator<char> > >, std::allocator<std::pair<const std::basic_string<char, std::char_traits<char>, std::allocator<char> >, std::basic_string<char, std::char_traits<char>, std::allocator<char> > > > > > >, std::less<std::basic_string<char, std::char_traits<char>, std::allocator<char> > >, std::allocator<std::pair<const std::basic_string<char, std::char_traits<char>, std::allocator<char> >, std::map<std::basic_string<char, std::char_traits<char>, std::allocator<char> >, std::basic_string<char, std::char_traits<char>, std::allocator<char> >, std::less<std::basic_string<char, std::char_traits<char>, std::allocator<char> > >, std::allocator<std::pair<const std::basic_string<char, std::char_traits<char>, std::allocator<char> >, std::basic_string<char, std::char_traits<char>, std::allocator<char> > > > > > > >::_S_left
FUNC 15bae 86 0 std::_Rb_tree<std::basic_string<char, std::char_traits<char>, std::allocator<char> >, std::pair<const std::basic_string<char, std::char_traits<char>, std::allocator<char> >, std::map<std::basic_string<char, std::char_traits<char>, std::allocator<char> >, std::basic_string<char, std::char_traits<char>, std::allocator<char> >, std::less<std::basic_string<char, std::char_traits<char>, std::allocator<char> > >, std::allocator<std::pair<const std::basic_string<char, std::char_traits<char>, std::allocator<char> >, std::basic_string<char, std::char_traits<char>, std::allocator<char> > > > > >, std::_Select1st<std::pair<const std::basic_string<char, std::char_traits<char>, std::allocator<char> >, std::map<std::basic_string<char, std::char_traits<char>, std::allocator<char> >, std::basic_string<char, std::char_traits<char>, std::allocator<char> >, std::less<std::basic_string<char, std::char_traits<char>, std::allocator<char> > >, std::allocator<std::pair<const std::basic_string<char, std::char_traits<char>, std::allocator<char> >, std::basic_string<char, std::char_traits<char>, std::allocator<char> > > > > > >, std::less<std::basic_string<char, std::char_traits<char>, std::allocator<char> > >, std::allocator<std::pair<const std::basic_string<char, std::char_traits<char>, std::allocator<char> >, std::map<std::basic_string<char, std::char_traits<char>, std::allocator<char> >, std::basic_string<char, std::char_traits<char>, std::allocator<char> >, std::less<std::basic_string<char, std::char_traits<char>, std::allocator<char> > >, std::allocator<std::pair<const std::basic_string<char, std::char_traits<char>, std::allocator<char> >, std::basic_string<char, std::char_traits<char>, std::allocator<char> > > > > > > >::_M_destroy_node
FUNC 15c34 e 0 std::_Rb_tree<std::basic_string<char, std::char_traits<char>, std::allocator<char> >, std::pair<const std::basic_string<char, std::char_traits<char>, std::allocator<char> >, std::map<std::basic_string<char, std::char_traits<char>, std::allocator<char> >, std::basic_string<char, std::char_traits<char>, std::allocator<char> >, std::less<std::basic_string<char, std::char_traits<char>, std::allocator<char> > >, std::allocator<std::pair<const std::basic_string<char, std::char_traits<char>, std::allocator<char> >, std::basic_string<char, std::char_traits<char>, std::allocator<char> > > > > >, std::_Select1st<std::pair<const std::basic_string<char, std::char_traits<char>, std::allocator<char> >, std::map<std::basic_string<char, std::char_traits<char>, std::allocator<char> >, std::basic_string<char, std::char_traits<char>, std::allocator<char> >, std::less<std::basic_string<char, std::char_traits<char>, std::allocator<char> > >, std::allocator<std::pair<const std::basic_string<char, std::char_traits<char>, std::allocator<char> >, std::basic_string<char, std::char_traits<char>, std::allocator<char> > > > > > >, std::less<std::basic_string<char, std::char_traits<char>, std::allocator<char> > >, std::allocator<std::pair<const std::basic_string<char, std::char_traits<char>, std::allocator<char> >, std::map<std::basic_string<char, std::char_traits<char>, std::allocator<char> >, std::basic_string<char, std::char_traits<char>, std::allocator<char> >, std::less<std::basic_string<char, std::char_traits<char>, std::allocator<char> > >, std::allocator<std::pair<const std::basic_string<char, std::char_traits<char>, std::allocator<char> >, std::basic_string<char, std::char_traits<char>, std::allocator<char> > > > > > > >::_M_get_Node_allocator
FUNC 15c42 19 0 std::_Rb_tree_iterator<std::pair<const std::basic_string<char, std::char_traits<char>, std::allocator<char> >, std::map<std::basic_string<char, std::char_traits<char>, std::allocator<char> >, std::basic_string<char, std::char_traits<char>, std::allocator<char> >, std::less<std::basic_string<char, std::char_traits<char>, std::allocator<char> > >, std::allocator<std::pair<const std::basic_string<char, std::char_traits<char>, std::allocator<char> >, std::basic_string<char, std::char_traits<char>, std::allocator<char> > > > > > >::_Rb_tree_iterator
FUNC 15c5c 9b 0 std::_Rb_tree<std::basic_string<char, std::char_traits<char>, std::allocator<char> >, std::pair<const std::basic_string<char, std::char_traits<char>, std::allocator<char> >, std::basic_string<char, std::char_traits<char>, std::allocator<char> > >, std::_Select1st<std::pair<const std::basic_string<char, std::char_traits<char>, std::allocator<char> >, std::basic_string<char, std::char_traits<char>, std::allocator<char> > > >, std::less<std::basic_string<char, std::char_traits<char>, std::allocator<char> > >, std::allocator<std::pair<const std::basic_string<char, std::char_traits<char>, std::allocator<char> >, std::basic_string<char, std::char_traits<char>, std::allocator<char> > > > >::_Rb_tree_impl<std::less<std::basic_string<char, std::char_traits<char>, std::allocator<char> > >, false>::_Rb_tree_impl
FUNC 15cf8 55 0 std::_Rb_tree<std::basic_string<char, std::char_traits<char>, std::allocator<char> >, std::pair<const std::basic_string<char, std::char_traits<char>, std::allocator<char> >, std::basic_string<char, std::char_traits<char>, std::allocator<char> > >, std::_Select1st<std::pair<const std::basic_string<char, std::char_traits<char>, std::allocator<char> >, std::basic_string<char, std::char_traits<char>, std::allocator<char> > > >, std::less<std::basic_string<char, std::char_traits<char>, std::allocator<char> > >, std::allocator<std::pair<const std::basic_string<char, std::char_traits<char>, std::allocator<char> >, std::basic_string<char, std::char_traits<char>, std::allocator<char> > > > >::_M_clone_node
FUNC 15d4d 12 0 std::_Rb_tree<std::basic_string<char, std::char_traits<char>, std::allocator<char> >, std::pair<const std::basic_string<char, std::char_traits<char>, std::allocator<char> >, std::basic_string<char, std::char_traits<char>, std::allocator<char> > >, std::_Select1st<std::pair<const std::basic_string<char, std::char_traits<char>, std::allocator<char> >, std::basic_string<char, std::char_traits<char>, std::allocator<char> > > >, std::less<std::basic_string<char, std::char_traits<char>, std::allocator<char> > >, std::allocator<std::pair<const std::basic_string<char, std::char_traits<char>, std::allocator<char> >, std::basic_string<char, std::char_traits<char>, std::allocator<char> > > > >::_S_left
FUNC 15d60 3b 0 std::_Rb_tree<std::basic_string<char, std::char_traits<char>, std::allocator<char> >, std::pair<const std::basic_string<char, std::char_traits<char>, std::allocator<char> >, IEC103::stConfigParam>, std::_Select1st<std::pair<const std::basic_string<char, std::char_traits<char>, std::allocator<char> >, IEC103::stConfigParam> >, std::less<std::basic_string<char, std::char_traits<char>, std::allocator<char> > >, std::allocator<std::pair<const std::basic_string<char, std::char_traits<char>, std::allocator<char> >, IEC103::stConfigParam> > >::get_allocator
FUNC 15d9c 1a 0 std::allocator<std::pair<const std::basic_string<char, std::char_traits<char>, std::allocator<char> >, IEC103::stConfigParam> >::~allocator
FUNC 15db6 84 0 IEC103::stConfigParam::~stConfigParam
FUNC 15e3a 55 0 std::pair<const std::basic_string<char, std::char_traits<char>, std::allocator<char> >, IEC103::stConfigParam>::~pair
FUNC 15e90 1e 0 __gnu_cxx::new_allocator<std::pair<const std::basic_string<char, std::char_traits<char>, std::allocator<char> >, IEC103::stConfigParam> >::destroy
FUNC 15eae 2a 0 std::_Rb_tree<std::basic_string<char, std::char_traits<char>, std::allocator<char> >, std::pair<const std::basic_string<char, std::char_traits<char>, std::allocator<char> >, IEC103::stConfigParam>, std::_Select1st<std::pair<const std::basic_string<char, std::char_traits<char>, std::allocator<char> >, IEC103::stConfigParam> >, std::less<std::basic_string<char, std::char_traits<char>, std::allocator<char> > >, std::allocator<std::pair<const std::basic_string<char, std::char_traits<char>, std::allocator<char> >, IEC103::stConfigParam> > >::_M_put_node
FUNC 15ed8 3b 0 std::_Rb_tree<std::basic_string<char, std::char_traits<char>, std::allocator<char> >, std::pair<const std::basic_string<char, std::char_traits<char>, std::allocator<char> >, std::map<std::basic_string<char, std::char_traits<char>, std::allocator<char> >, std::basic_string<char, std::char_traits<char>, std::allocator<char> >, std::less<std::basic_string<char, std::char_traits<char>, std::allocator<char> > >, std::allocator<std::pair<const std::basic_string<char, std::char_traits<char>, std::allocator<char> >, std::basic_string<char, std::char_traits<char>, std::allocator<char> > > > > >, std::_Select1st<std::pair<const std::basic_string<char, std::char_traits<char>, std::allocator<char> >, std::map<std::basic_string<char, std::char_traits<char>, std::allocator<char> >, std::basic_string<char, std::char_traits<char>, std::allocator<char> >, std::less<std::basic_string<char, std::char_traits<char>, std::allocator<char> > >, std::allocator<std::pair<const std::basic_string<char, std::char_traits<char>, std::allocator<char> >, std::basic_string<char, std::char_traits<char>, std::allocator<char> > > > > > >, std::less<std::basic_string<char, std::char_traits<char>, std::allocator<char> > >, std::allocator<std::pair<const std::basic_string<char, std::char_traits<char>, std::allocator<char> >, std::map<std::basic_string<char, std::char_traits<char>, std::allocator<char> >, std::basic_string<char, std::char_traits<char>, std::allocator<char> >, std::less<std::basic_string<char, std::char_traits<char>, std::allocator<char> > >, std::allocator<std::pair<const std::basic_string<char, std::char_traits<char>, std::allocator<char> >, std::basic_string<char, std::char_traits<char>, std::allocator<char> > > > > > > >::get_allocator
FUNC 15f14 1a 0 std::allocator<std::pair<const std::basic_string<char, std::char_traits<char>, std::allocator<char> >, std::map<std::basic_string<char, std::char_traits<char>, std::allocator<char> >, std::basic_string<char, std::char_traits<char>, std::allocator<char> >, std::less<std::basic_string<char, std::char_traits<char>, std::allocator<char> > >, std::allocator<std::pair<const std::basic_string<char, std::char_traits<char>, std::allocator<char> >, std::basic_string<char, std::char_traits<char>, std::allocator<char> > > > > > >::~allocator
FUNC 15f2e 55 0 std::pair<const std::basic_string<char, std::char_traits<char>, std::allocator<char> >, std::map<std::basic_string<char, std::char_traits<char>, std::allocator<char> >, std::basic_string<char, std::char_traits<char>, std::allocator<char> >, std::less<std::basic_string<char, std::char_traits<char>, std::allocator<char> > >, std::allocator<std::pair<const std::basic_string<char, std::char_traits<char>, std::allocator<char> >, std::basic_string<char, std::char_traits<char>, std::allocator<char> > > > > >::~pair
FUNC 15f84 1e 0 __gnu_cxx::new_allocator<std::pair<const std::basic_string<char, std::char_traits<char>, std::allocator<char> >, std::map<std::basic_string<char, std::char_traits<char>, std::allocator<char> >, std::basic_string<char, std::char_traits<char>, std::allocator<char> >, std::less<std::basic_string<char, std::char_traits<char>, std::allocator<char> > >, std::allocator<std::pair<const std::basic_string<char, std::char_traits<char>, std::allocator<char> >, std::basic_string<char, std::char_traits<char>, std::allocator<char> > > > > > >::destroy
FUNC 15fa2 2a 0 std::_Rb_tree<std::basic_string<char, std::char_traits<char>, std::allocator<char> >, std::pair<const std::basic_string<char, std::char_traits<char>, std::allocator<char> >, std::map<std::basic_string<char, std::char_traits<char>, std::allocator<char> >, std::basic_string<char, std::char_traits<char>, std::allocator<char> >, std::less<std::basic_string<char, std::char_traits<char>, std::allocator<char> > >, std::allocator<std::pair<const std::basic_string<char, std::char_traits<char>, std::allocator<char> >, std::basic_string<char, std::char_traits<char>, std::allocator<char> > > > > >, std::_Select1st<std::pair<const std::basic_string<char, std::char_traits<char>, std::allocator<char> >, std::map<std::basic_string<char, std::char_traits<char>, std::allocator<char> >, std::basic_string<char, std::char_traits<char>, std::allocator<char> >, std::less<std::basic_string<char, std::char_traits<char>, std::allocator<char> > >, std::allocator<std::pair<const std::basic_string<char, std::char_traits<char>, std::allocator<char> >, std::basic_string<char, std::char_traits<char>, std::allocator<char> > > > > > >, std::less<std::basic_string<char, std::char_traits<char>, std::allocator<char> > >, std::allocator<std::pair<const std::basic_string<char, std::char_traits<char>, std::allocator<char> >, std::map<std::basic_string<char, std::char_traits<char>, std::allocator<char> >, std::basic_string<char, std::char_traits<char>, std::allocator<char> >, std::less<std::basic_string<char, std::char_traits<char>, std::allocator<char> > >, std::allocator<std::pair<const std::basic_string<char, std::char_traits<char>, std::allocator<char> >, std::basic_string<char, std::char_traits<char>, std::allocator<char> > > > > > > >::_M_put_node
FUNC 15fcc 25 0 std::allocator<std::_Rb_tree_node<std::pair<const std::basic_string<char, std::char_traits<char>, std::allocator<char> >, std::basic_string<char, std::char_traits<char>, std::allocator<char> > > > >::allocator
FUNC 15ff2 1e 0 std::allocator<std::pair<const std::basic_string<char, std::char_traits<char>, std::allocator<char> >, IEC103::stConfigParam> >::allocator<std::_Rb_tree_node<std::pair<const std::basic_string<char, std::char_traits<char>, std::allocator<char> >, IEC103::stConfigParam> > >
FUNC 16010 a 0 __gnu_cxx::new_allocator<std::pair<const std::basic_string<char, std::char_traits<char>, std::allocator<char> >, IEC103::stConfigParam> >::~new_allocator
FUNC 1601a 22 0 __gnu_cxx::new_allocator<std::_Rb_tree_node<std::pair<const std::basic_string<char, std::char_traits<char>, std::allocator<char> >, IEC103::stConfigParam> > >::deallocate
FUNC 1603c 1e 0 std::allocator<std::pair<const std::basic_string<char, std::char_traits<char>, std::allocator<char> >, std::map<std::basic_string<char, std::char_traits<char>, std::allocator<char> >, std::basic_string<char, std::char_traits<char>, std::allocator<char> >, std::less<std::basic_string<char, std::char_traits<char>, std::allocator<char> > >, std::allocator<std::pair<const std::basic_string<char, std::char_traits<char>, std::allocator<char> >, std::basic_string<char, std::char_traits<char>, std::allocator<char> > > > > > >::allocator<std::_Rb_tree_node<std::pair<const std::basic_string<char, std::char_traits<char>, std::allocator<char> >, std::map<std::basic_string<char, std::char_traits<char>, std::allocator<char> >, std::basic_string<char, std::char_traits<char>, std::allocator<char> >, std::less<std::basic_string<char, std::char_traits<char>, std::allocator<char> > >, std::allocator<std::pair<const std::basic_string<char, std::char_traits<char>, std::allocator<char> >, std::basic_string<char, std::char_traits<char>, std::allocator<char> > > > > > > >
FUNC 1605a a 0 __gnu_cxx::new_allocator<std::pair<const std::basic_string<char, std::char_traits<char>, std::allocator<char> >, std::map<std::basic_string<char, std::char_traits<char>, std::allocator<char> >, std::basic_string<char, std::char_traits<char>, std::allocator<char> >, std::less<std::basic_string<char, std::char_traits<char>, std::allocator<char> > >, std::allocator<std::pair<const std::basic_string<char, std::char_traits<char>, std::allocator<char> >, std::basic_string<char, std::char_traits<char>, std::allocator<char> > > > > > >::~new_allocator
FUNC 16064 22 0 __gnu_cxx::new_allocator<std::_Rb_tree_node<std::pair<const std::basic_string<char, std::char_traits<char>, std::allocator<char> >, std::map<std::basic_string<char, std::char_traits<char>, std::allocator<char> >, std::basic_string<char, std::char_traits<char>, std::allocator<char> >, std::less<std::basic_string<char, std::char_traits<char>, std::allocator<char> > >, std::allocator<std::pair<const std::basic_string<char, std::char_traits<char>, std::allocator<char> >, std::basic_string<char, std::char_traits<char>, std::allocator<char> > > > > > > >::deallocate
FUNC 16086 e 0 __gnu_cxx::new_allocator<std::_Rb_tree_node<std::pair<const std::basic_string<char, std::char_traits<char>, std::allocator<char> >, std::basic_string<char, std::char_traits<char>, std::allocator<char> > > > >::new_allocator
FUNC 16094 a 0 __gnu_cxx::new_allocator<std::pair<const std::basic_string<char, std::char_traits<char>, std::allocator<char> >, IEC103::stConfigParam> >::new_allocator
FUNC 1609e a 0 __gnu_cxx::new_allocator<std::pair<const std::basic_string<char, std::char_traits<char>, std::allocator<char> >, std::map<std::basic_string<char, std::char_traits<char>, std::allocator<char> >, std::basic_string<char, std::char_traits<char>, std::allocator<char> >, std::less<std::basic_string<char, std::char_traits<char>, std::allocator<char> > >, std::allocator<std::pair<const std::basic_string<char, std::char_traits<char>, std::allocator<char> >, std::basic_string<char, std::char_traits<char>, std::allocator<char> > > > > > >::new_allocator
FUNC 160a8 27 0 Inet::Inet
FUNC 160d0 35 0 Inet::~Inet
FUNC 16106 26 0 Inet::~Inet
FUNC 1612c 13d 0 combine_folder
FUNC 16269 23e 0 InitPaths
FUNC 164a7 31 0 InitLogging
FUNC 164d8 c8 0 GetLocalDate
FUNC 165a0 c8 0 GetCurTime
FUNC 16668 2a1 0 Logger::Logger
FUNC 1690a 138 0 Logger::~Logger
FUNC 16a42 26 0 Logger::~Logger
FUNC 16a68 124 0 Logger::Debug
FUNC 16b8c 20c 0 Logger::Debug
FUNC 16d98 125 0 Logger::Info
FUNC 16ebe 20d 0 Logger::Info
FUNC 170cc 125 0 Logger::Warn
FUNC 171f2 20d 0 Logger::Warn
FUNC 17400 125 0 Logger::Error
FUNC 17526 20d 0 Logger::Error
FUNC 17734 125 0 Logger::Fatal
FUNC 1785a 20d 0 Logger::Fatal
FUNC 17a68 bc 0 Logger::GetInstance
FUNC 17b24 164 0 Logger::Log
FUNC 17c88 24a 0 Logger::Log
FUNC 17ed2 266 0 Logger::Log
FUNC 18138 b 0 Logger::GetInstancePtr
FUNC 18144 354 0 Logger::Log
FUNC 18498 85 0 LogMessage::LogMessage
FUNC 1851e 86 0 LogMessage::~LogMessage
FUNC 185a4 26 0 LogMessage::~LogMessage
FUNC 185ca 4e 0 __static_initialization_and_destruction_0
FUNC 18618 15 0 _GLOBAL__I_Logger.cpp
FUNC 1862e 35 0 ILogger::~ILogger
FUNC 18664 26 0 ILogger::~ILogger
FUNC 1868a 12 0 Logger::stream
FUNC 1869c 12c 0 FileHelper::CreateDir
FUNC 187c8 1c 0 ILogger::ILogger
FUNC 187e4 eb 0 MemCache::MemCache
FUNC 188d0 80 0 MemCache::~MemCache
FUNC 18950 26 0 MemCache::~MemCache
FUNC 18976 74 0 MemCache::GetInstance
FUNC 189ea 4bc 0 MemCache::Init
FUNC 18ea6 af 0 MemCache::GetFunction
FUNC 18f56 1a2 0 MemCache::WritePointsValue_V
FUNC 190f8 2b 0 MemCache::Post
FUNC 19124 3c 0 MemCache::Free
FUNC 19160 ca 0 __static_initialization_and_destruction_0
FUNC 1922a 15 0 _GLOBAL__I_MemCache.cpp
FUNC 19240 14 0 Config::GetRedisPostName
FUNC 19254 15 0 Config::GetRedisPostSize
FUNC 1926a 39 0 std::vector<Tag, std::allocator<Tag> >::operator[]
FUNC 192a4 2d 0 std::vector<Tag, std::allocator<Tag> >::size
FUNC 192d4 2c 0 Serial485ClientService::Serial485ClientService
FUNC 19300 41 0 Serial485ClientService::~Serial485ClientService
FUNC 19342 26 0 Serial485ClientService::~Serial485ClientService
FUNC 19368 141 0 Serial485ClientService::Start
FUNC 194aa 385 0 Serial485ClientService::Read
FUNC 1982f 48 0 __static_initialization_and_destruction_0
FUNC 19877 15 0 _GLOBAL__I_Serial485ClientService.cpp
FUNC 1988c 109 0 SerialNet::SerialNet
FUNC 19996 e3 0 SerialNet::~SerialNet
FUNC 19a7a 26 0 SerialNet::~SerialNet
FUNC 19aa0 485 0 SerialNet::Connect
FUNC 19f26 af 0 SerialNet::GetFunction
FUNC 19fd6 312 0 SerialNet::Read
FUNC 1a2e8 b3 0 SerialNet::Write
FUNC 1a39c 2c 0 SerialNet::DisConnect
FUNC 1a3c8 2b2 0 SerialNet::SetSpeed
FUNC 1a67a 35a 0 SerialNet::SetParity
FUNC 1a9d4 42 0 SerialNet::SumCheck
FUNC 1aa16 112 0 SerialNet::ToHexString
FUNC 1ab28 48 0 __static_initialization_and_destruction_0
FUNC 1ab70 15 0 _GLOBAL__I_SerialNet.cpp
FUNC 1ab88 cd 0 SerialService::SerialService
FUNC 1ac56 b1 0 SerialService::~SerialService
FUNC 1ad08 26 0 SerialService::~SerialService
FUNC 1ad2e 221 0 SerialService::Start
FUNC 1af50 67e 0 SerialService::Write
FUNC 1b5ce 57d 0 SerialService::Read
FUNC 1bb4c 9c 0 SerialService::ParseRecvData
FUNC 1bbe8 b0 0 SerialService::ParseFixedData
FUNC 1bc98 213 0 SerialService::ParseVariableData
FUNC 1beac 189 0 SerialService::InitConfig
FUNC 1c035 48 0 __static_initialization_and_destruction_0
FUNC 1c07d 15 0 _GLOBAL__I_SerialService.cpp
FUNC 1c092 33 0 Config::GetSerialPortPath
FUNC 1c0c6 11 0 Config::GetSpeed
FUNC 1c0d8 11 0 Config::GetDatabits
FUNC 1c0ea 11 0 Config::GetStopbits
FUNC 1c0fc 12 0 Config::GetParity
FUNC 1c10e 12 0 Config::GetClientAddr
FUNC 1c120 33 0 Config::GetIp
FUNC 1c154 12 0 Config::GetTcpPort
FUNC 1c166 15 0 Config::GetOutTime
FUNC 1c17c 1a 0 std::vector<char, std::allocator<char> >::vector
FUNC 1c196 6e 0 std::vector<char, std::allocator<char> >::~vector
FUNC 1c204 229 0 std::vector<char, std::allocator<char> >::operator=
FUNC 1c42e 11 0 std::vector<char, std::allocator<char> >::data
FUNC 1c440 25 0 std::vector<char, std::allocator<char> >::size
FUNC 1c466 1f 0 std::vector<short unsigned int, std::allocator<short unsigned int> >::operator[]
FUNC 1c486 1a 0 std::_Vector_base<char, std::allocator<char> >::_Vector_impl::~_Vector_impl
FUNC 1c4a0 1a 0 std::_Vector_base<char, std::allocator<char> >::_Vector_base
FUNC 1c4ba 79 0 std::_Vector_base<char, std::allocator<char> >::~_Vector_base
FUNC 1c534 e 0 std::_Vector_base<char, std::allocator<char> >::_M_get_Tp_allocator
FUNC 1c542 29 0 std::_Destroy<char*, char>
FUNC 1c56c 25 0 std::vector<char, std::allocator<char> >::capacity
FUNC 1c592 30 0 std::vector<char, std::allocator<char> >::begin
FUNC 1c5c2 31 0 std::vector<char, std::allocator<char> >::end
FUNC 1c5f4 a1 0 std::vector<char, std::allocator<char> >::_M_allocate_and_copy<__gnu_cxx::__normal_iterator<const char*, std::vector<char, std::allocator<char> > > >
FUNC 1c696 34 0 std::_Vector_base<char, std::allocator<char> >::_M_deallocate
FUNC 1c6ca 25 0 std::vector<char, std::allocator<char> >::begin
FUNC 1c6ef 46 0 std::copy<__gnu_cxx::__normal_iterator<const char*, std::vector<char, std::allocator<char> > >, __gnu_cxx::__normal_iterator<char*, std::vector<char, std::allocator<char> > > >
FUNC 1c736 29 0 std::vector<char, std::allocator<char> >::end
FUNC 1c75f 29 0 std::_Destroy<__gnu_cxx::__normal_iterator<char*, std::vector<char, std::allocator<char> > >, char>
FUNC 1c788 46 0 std::copy<char*, char*>
FUNC 1c7ce 31 0 std::__uninitialized_copy_a<char*, char*, char>
FUNC 1c800 3d 0 std::_Vector_base<char, std::allocator<char> >::_Vector_impl::_Vector_impl
FUNC 1c83d 25 0 std::_Destroy<char*>
FUNC 1c862 1c 0 __gnu_cxx::__normal_iterator<const char*, std::vector<char, std::allocator<char> > >::__normal_iterator
FUNC 1c87e 38 0 std::_Vector_base<char, std::allocator<char> >::_M_allocate
FUNC 1c8b6 31 0 std::__uninitialized_copy_a<__gnu_cxx::__normal_iterator<const char*, std::vector<char, std::allocator<char> > >, char*, char>
FUNC 1c8e8 22 0 __gnu_cxx::new_allocator<char>::deallocate
FUNC 1c90a 1c 0 __gnu_cxx::__normal_iterator<char*, std::vector<char, std::allocator<char> > >::__normal_iterator
FUNC 1c926 e 0 std::__miter_base<__gnu_cxx::__normal_iterator<const char*, std::vector<char, std::allocator<char> > >, false>::__b
FUNC 1c934 73 0 std::__copy_move_a2<false, __gnu_cxx::__normal_iterator<const char*, std::vector<char, std::allocator<char> > >, __gnu_cxx::__normal_iterator<char*, std::vector<char, std::allocator<char> > > >
FUNC 1c9a7 25 0 std::_Destroy<__gnu_cxx::__normal_iterator<char*, std::vector<char, std::allocator<char> > > >
FUNC 1c9cc e 0 std::__miter_base<char*, false>::__b
FUNC 1c9da 58 0 std::__copy_move_a2<false, char*, char*>
FUNC 1ca32 2d 0 std::uninitialized_copy<char*, char*>
FUNC 1ca5f e 0 std::_Destroy_aux<true>::__destroy<char*>
FUNC 1ca6e 47 0 __gnu_cxx::new_allocator<char>::allocate
FUNC 1cab5 2d 0 std::uninitialized_copy<__gnu_cxx::__normal_iterator<const char*, std::vector<char, std::allocator<char> > >, char*>
FUNC 1cae2 1d 0 std::__niter_base<__gnu_cxx::__normal_iterator<const char*, std::vector<char, std::allocator<char> > >, true>::__b
FUNC 1caff 1d 0 std::__niter_base<__gnu_cxx::__normal_iterator<char*, std::vector<char, std::allocator<char> > >, true>::__b
FUNC 1cb1c 31 0 std::__copy_move_a<false, const char*, char*>
FUNC 1cb4d e 0 std::_Destroy_aux<true>::__destroy<__gnu_cxx::__normal_iterator<char*, std::vector<char, std::allocator<char> > > >
FUNC 1cb5b e 0 std::__niter_base<char*, false>::__b
FUNC 1cb69 31 0 std::__copy_move_a<false, char*, char*>
FUNC 1cb9a 2d 0 std::__uninitialized_copy<true>::uninitialized_copy<char*, char*>
FUNC 1cbc8 11 0 __gnu_cxx::new_allocator<char>::max_size
FUNC 1cbd9 2d 0 std::__uninitialized_copy<true>::uninitialized_copy<__gnu_cxx::__normal_iterator<const char*, std::vector<char, std::allocator<char> > >, char*>
FUNC 1cc06 e 0 __gnu_cxx::__normal_iterator<const char*, std::vector<char, std::allocator<char> > >::base
FUNC 1cc14 e 0 __gnu_cxx::__normal_iterator<char*, std::vector<char, std::allocator<char> > >::base
FUNC 1cc22 52 0 std::__copy_move<false, true, std::random_access_iterator_tag>::__copy_m<char>
FUNC 1cc74 46 0 std::copy<__gnu_cxx::__normal_iterator<const char*, std::vector<char, std::allocator<char> > >, char*>
FUNC 1ccba 58 0 std::__copy_move_a2<false, __gnu_cxx::__normal_iterator<const char*, std::vector<char, std::allocator<char> > >, char*>
FUNC 1cd14 c7 0 Service::Service
FUNC 1cddc ad 0 Service::~Service
FUNC 1ce8a 26 0 Service::~Service
FUNC 1ceb0 a 0 Service::InitConfig
FUNC 1ceba 2a 0 Service::Init
FUNC 1cee4 298 0 Service::Start
FUNC 1d17c 837 0 Service::Write
FUNC 1d9b4 476 0 Service::Read
FUNC 1de2a 177 0 Service::ParseRecvData
FUNC 1dfa2 6d 0 Service::ParseFixedData
FUNC 1e010 181 0 Service::ParseVariableData
FUNC 1e192 47 0 Service::CmdResetCon
FUNC 1e1da 47 0 Service::CmdResetNum
FUNC 1e222 4b 0 Service::CmdGetDataLv1
FUNC 1e26e 4b 0 Service::CmdGetDataLv2
FUNC 1e2ba 13a 0 Service::CmdFixedData
FUNC 1e3f4 3ad 0 Service::CmdSetTimeStamp
FUNC 1e7a2 22c 0 Service::CmdResetEventAlarm
FUNC 1e9ce 347 0 Service::CmdSettingDownload
FUNC 1ed16 347 0 Service::CmdSettingModify
FUNC 1f05e 23f 0 Service::CmdGetAll
FUNC 1f29e 26d 0 Service::CmdGetGroupValue
FUNC 1f50c 273 0 Service::CmdGetEntryValue
FUNC 1f780 42 0 Service::SumCheck
FUNC 1f7c2 381 0 Service::ParseASDU44
FUNC 1fb44 2f7 0 Service::ParseASDU40
FUNC 1fe3c 3c 0 Service::ParseASDU41
FUNC 1fe78 337 0 Service::ParseASDU42
FUNC 201b0 45e 0 Service::ParseASDU50
FUNC 2060e 3f3 0 Service::ParseASDU1
FUNC 20a02 469 0 Service::ParseASDU2
FUNC 20e6c 124 0 Service::GetGlobalAddrByPrivateAddr
FUNC 20f90 a3 0 Service::GetRateByPrivateAddr
FUNC 21034 112 0 Service::ToHexString
FUNC 21146 4dc 0 Service::InitPointAddrMap
FUNC 21622 a4 0 Service::StartBreakHeart
FUNC 216c6 db 0 Service::ThreadFunc
FUNC 217a2 1a7 0 Service::ParseASDU10
FUNC 2194a 491 0 Service::ParseASDU10AllValue
FUNC 21ddb ca 0 __static_initialization_and_destruction_0
FUNC 21ea5 15 0 _GLOBAL__I_Service.cpp
FUNC 21eba 12 0 Config::GetUdpPort
FUNC 21ecc 15 0 Config::GetId
FUNC 21ee2 14 0 Config::GetIedName
FUNC 21ef6 66 0 Tag::Tag
FUNC 21f5c 50 0 Tag::~Tag
FUNC 21fac 63 0 Tag::operator=
FUNC 22010 8b 0 Tag::ZeroTag
FUNC 2209c 1a 0 std::map<std::basic_string<char, std::char_traits<char>, std::allocator<char> >, Service::Point103, std::less<std::basic_string<char, std::char_traits<char>, std::allocator<char> > >, std::allocator<std::pair<const std::basic_string<char, std::char_traits<char>, std::allocator<char> >, Service::Point103> > >::~map
FUNC 220b6 1e 0 Service::Point103::Point103
FUNC 220d4 1e 0 Service::Point103::~Point103
FUNC 220f2 39 0 Service::Point103::Point103
FUNC 2212c 1e 0 std::pair<char*, Service::Point103>::~pair
FUNC 2214a 55 0 std::pair<const std::basic_string<char, std::char_traits<char>, std::allocator<char> >, Service::Point103>::~pair
FUNC 221a0 1a 0 std::vector<Tag, std::allocator<Tag> >::vector
FUNC 221ba 6e 0 std::vector<Tag, std::allocator<Tag> >::~vector
FUNC 22228 1a 0 std::map<std::basic_string<char, std::char_traits<char>, std::allocator<char> >, Service::Point103, std::less<std::basic_string<char, std::char_traits<char>, std::allocator<char> > >, std::allocator<std::pair<const std::basic_string<char, std::char_traits<char>, std::allocator<char> >, Service::Point103> > >::map
FUNC 22242 1a 0 std::_Rb_tree<std::basic_string<char, std::char_traits<char>, std::allocator<char> >, std::pair<const std::basic_string<char, std::char_traits<char>, std::allocator<char> >, Service::Point103>, std::_Select1st<std::pair<const std::basic_string<char, std::char_traits<char>, std::allocator<char> >, Service::Point103> >, std::less<std::basic_string<char, std::char_traits<char>, std::allocator<char> > >, std::allocator<std::pair<const std::basic_string<char, std::char_traits<char>, std::allocator<char> >, Service::Point103> > >::_Rb_tree_impl<std::less<std::basic_string<char, std::char_traits<char>, std::allocator<char> > >, false>::~_Rb_tree_impl
FUNC 2225c 63 0 std::_Rb_tree<std::basic_string<char, std::char_traits<char>, std::allocator<char> >, std::pair<const std::basic_string<char, std::char_traits<char>, std::allocator<char> >, Service::Point103>, std::_Select1st<std::pair<const std::basic_string<char, std::char_traits<char>, std::allocator<char> >, Service::Point103> >, std::less<std::basic_string<char, std::char_traits<char>, std::allocator<char> > >, std::allocator<std::pair<const std::basic_string<char, std::char_traits<char>, std::allocator<char> >, Service::Point103> > >::~_Rb_tree
FUNC 222c0 73 0 std::vector<char, std::allocator<char> >::vector
FUNC 22334 19 0 std::vector<char, std::allocator<char> >::operator[]
FUNC 2234e 7d 0 std::vector<Tag, std::allocator<Tag> >::push_back
FUNC 223cc 41 0 std::vector<Tag, std::allocator<Tag> >::empty
FUNC 2240e 25 0 std::map<std::basic_string<char, std::char_traits<char>, std::allocator<char> >, Service::Point103, std::less<std::basic_string<char, std::char_traits<char>, std::allocator<char> > >, std::allocator<std::pair<const std::basic_string<char, std::char_traits<char>, std::allocator<char> >, Service::Point103> > >::find
FUNC 22434 1c 0 std::_Rb_tree_const_iterator<std::pair<const std::basic_string<char, std::char_traits<char>, std::allocator<char> >, Service::Point103> >::_Rb_tree_const_iterator
FUNC 22450 1a 0 std::map<std::basic_string<char, std::char_traits<char>, std::allocator<char> >, Service::Point103, std::less<std::basic_string<char, std::char_traits<char>, std::allocator<char> > >, std::allocator<std::pair<const std::basic_string<char, std::char_traits<char>, std::allocator<char> >, Service::Point103> > >::end
FUNC 2246a 22 0 std::_Rb_tree_const_iterator<std::pair<const std::basic_string<char, std::char_traits<char>, std::allocator<char> >, Service::Point103> >::operator!=
FUNC 2248c 15 0 std::_Rb_tree_const_iterator<std::pair<const std::basic_string<char, std::char_traits<char>, std::allocator<char> >, Service::Point103> >::operator->
FUNC 224a2 1a 0 std::map<std::basic_string<char, std::char_traits<char>, std::allocator<char> >, Service::Point103, std::less<std::basic_string<char, std::char_traits<char>, std::allocator<char> > >, std::allocator<std::pair<const std::basic_string<char, std::char_traits<char>, std::allocator<char> >, Service::Point103> > >::clear
FUNC 224bc 37 0 std::make_pair<char*, Service::Point103>
FUNC 224f4 ab 0 std::pair<const std::basic_string<char, std::char_traits<char>, std::allocator<char> >, Service::Point103>::pair<char*, Service::Point103>
FUNC 225a0 47 0 std::map<std::basic_string<char, std::char_traits<char>, std::allocator<char> >, Service::Point103, std::less<std::basic_string<char, std::char_traits<char>, std::allocator<char> > >, std::allocator<std::pair<const std::basic_string<char, std::char_traits<char>, std::allocator<char> >, Service::Point103> > >::insert
FUNC 225e8 1a 0 std::map<std::basic_string<char, std::char_traits<char>, std::allocator<char> >, Service::Point103, std::less<std::basic_string<char, std::char_traits<char>, std::allocator<char> > >, std::allocator<std::pair<const std::basic_string<char, std::char_traits<char>, std::allocator<char> >, Service::Point103> > >::size
FUNC 22602 1a 0 std::_Vector_base<Tag, std::allocator<Tag> >::_Vector_impl::~_Vector_impl
FUNC 2261c 1a 0 std::_Vector_base<Tag, std::allocator<Tag> >::_Vector_base
FUNC 22636 81 0 std::_Vector_base<Tag, std::allocator<Tag> >::~_Vector_base
FUNC 226b8 e 0 std::_Vector_base<Tag, std::allocator<Tag> >::_M_get_Tp_allocator
FUNC 226c6 29 0 std::_Destroy<Tag*, Tag>
FUNC 226f0 1a 0 std::_Rb_tree<std::basic_string<char, std::char_traits<char>, std::allocator<char> >, std::pair<const std::basic_string<char, std::char_traits<char>, std::allocator<char> >, Service::Point103>, std::_Select1st<std::pair<const std::basic_string<char, std::char_traits<char>, std::allocator<char> >, Service::Point103> >, std::less<std::basic_string<char, std::char_traits<char>, std::allocator<char> > >, std::allocator<std::pair<const std::basic_string<char, std::char_traits<char>, std::allocator<char> >, Service::Point103> > >::_Rb_tree
FUNC 2270a 1a 0 std::allocator<std::_Rb_tree_node<std::pair<const std::basic_string<char, std::char_traits<char>, std::allocator<char> >, Service::Point103> > >::~allocator
FUNC 22724 69 0 std::_Rb_tree<std::basic_string<char, std::char_traits<char>, std::allocator<char> >, std::pair<const std::basic_string<char, std::char_traits<char>, std::allocator<char> >, Service::Point103>, std::_Select1st<std::pair<const std::basic_string<char, std::char_traits<char>, std::allocator<char> >, Service::Point103> >, std::less<std::basic_string<char, std::char_traits<char>, std::allocator<char> > >, std::allocator<std::pair<const std::basic_string<char, std::char_traits<char>, std::allocator<char> >, Service::Point103> > >::_M_erase
FUNC 2278e 12 0 std::_Rb_tree<std::basic_string<char, std::char_traits<char>, std::allocator<char> >, std::pair<const std::basic_string<char, std::char_traits<char>, std::allocator<char> >, Service::Point103>, std::_Select1st<std::pair<const std::basic_string<char, std::char_traits<char>, std::allocator<char> >, Service::Point103> >, std::less<std::basic_string<char, std::char_traits<char>, std::allocator<char> > >, std::allocator<std::pair<const std::basic_string<char, std::char_traits<char>, std::allocator<char> >, Service::Point103> > >::_M_begin
FUNC 227a0 91 0 std::_Vector_base<char, std::allocator<char> >::_Vector_base
FUNC 22832 55 0 std::vector<char, std::allocator<char> >::_M_fill_initialize
FUNC 22888 e2 0 __gnu_cxx::new_allocator<Tag>::construct
FUNC 2296a 42b 0 std::vector<Tag, std::allocator<Tag> >::_M_insert_aux
FUNC 22d96 29 0 std::vector<Tag, std::allocator<Tag> >::end
FUNC 22dc0 31 0 std::vector<Tag, std::allocator<Tag> >::end
FUNC 22df2 30 0 std::vector<Tag, std::allocator<Tag> >::begin
FUNC 22e22 3c 0 __gnu_cxx::operator==<const Tag*, std::vector<Tag, std::allocator<Tag> > >
FUNC 22e5e b6 0 std::_Rb_tree<std::basic_string<char, std::char_traits<char>, std::allocator<char> >, std::pair<const std::basic_string<char, std::char_traits<char>, std::allocator<char> >, Service::Point103>, std::_Select1st<std::pair<const std::basic_string<char, std::char_traits<char>, std::allocator<char> >, Service::Point103> >, std::less<std::basic_string<char, std::char_traits<char>, std::allocator<char> > >, std::allocator<std::pair<const std::basic_string<char, std::char_traits<char>, std::allocator<char> >, Service::Point103> > >::find
FUNC 22f14 2c 0 std::_Rb_tree<std::basic_string<char, std::char_traits<char>, std::allocator<char> >, std::pair<const std::basic_string<char, std::char_traits<char>, std::allocator<char> >, Service::Point103>, std::_Select1st<std::pair<const std::basic_string<char, std::char_traits<char>, std::allocator<char> >, Service::Point103> >, std::less<std::basic_string<char, std::char_traits<char>, std::allocator<char> > >, std::allocator<std::pair<const std::basic_string<char, std::char_traits<char>, std::allocator<char> >, Service::Point103> > >::end
FUNC 22f40 8d 0 std::_Rb_tree<std::basic_string<char, std::char_traits<char>, std::allocator<char> >, std::pair<const std::basic_string<char, std::char_traits<char>, std::allocator<char> >, Service::Point103>, std::_Select1st<std::pair<const std::basic_string<char, std::char_traits<char>, std::allocator<char> >, Service::Point103> >, std::less<std::basic_string<char, std::char_traits<char>, std::allocator<char> > >, std::allocator<std::pair<const std::basic_string<char, std::char_traits<char>, std::allocator<char> >, Service::Point103> > >::clear
FUNC 22fce 3b 0 std::pair<char*, Service::Point103>::pair
FUNC 2300a 271 0 std::_Rb_tree<std::basic_string<char, std::char_traits<char>, std::allocator<char> >, std::pair<const std::basic_string<char, std::char_traits<char>, std::allocator<char> >, Service::Point103>, std::_Select1st<std::pair<const std::basic_string<char, std::char_traits<char>, std::allocator<char> >, Service::Point103> >, std::less<std::basic_string<char, std::char_traits<char>, std::allocator<char> > >, std::allocator<std::pair<const std::basic_string<char, std::char_traits<char>, std::allocator<char> >, Service::Point103> > >::_M_insert_unique
FUNC 2327c 12 0 std::_Rb_tree<std::basic_string<char, std::char_traits<char>, std::allocator<char> >, std::pair<const std::basic_string<char, std::char_traits<char>, std::allocator<char> >, Service::Point103>, std::_Select1st<std::pair<const std::basic_string<char, std::char_traits<char>, std::allocator<char> >, Service::Point103> >, std::less<std::basic_string<char, std::char_traits<char>, std::allocator<char> > >, std::allocator<std::pair<const std::basic_string<char, std::char_traits<char>, std::allocator<char> >, Service::Point103> > >::size
FUNC 2328e 3d 0 std::_Vector_base<Tag, std::allocator<Tag> >::_Vector_impl::_Vector_impl
FUNC 232cc 1a 0 std::allocator<Tag>::~allocator
FUNC 232e6 34 0 std::_Vector_base<Tag, std::allocator<Tag> >::_M_deallocate
FUNC 2331a 25 0 std::_Destroy<Tag*>
FUNC 23340 8c 0 std::_Rb_tree<std::basic_string<char, std::char_traits<char>, std::allocator<char> >, std::pair<const std::basic_string<char, std::char_traits<char>, std::allocator<char> >, Service::Point103>, std::_Select1st<std::pair<const std::basic_string<char, std::char_traits<char>, std::allocator<char> >, Service::Point103> >, std::less<std::basic_string<char, std::char_traits<char>, std::allocator<char> > >, std::allocator<std::pair<const std::basic_string<char, std::char_traits<char>, std::allocator<char> >, Service::Point103> > >::_Rb_tree_impl<std::less<std::basic_string<char, std::char_traits<char>, std::allocator<char> > >, false>::_Rb_tree_impl
FUNC 233cc a 0 __gnu_cxx::new_allocator<std::_Rb_tree_node<std::pair<const std::basic_string<char, std::char_traits<char>, std::allocator<char> >, Service::Point103> > >::~new_allocator
FUNC 233d6 12 0 std::_Rb_tree<std::basic_string<char, std::char_traits<char>, std::allocator<char> >, std::pair<const std::basic_string<char, std::char_traits<char>, std::allocator<char> >, Service::Point103>, std::_Select1st<std::pair<const std::basic_string<char, std::char_traits<char>, std::allocator<char> >, Service::Point103> >, std::less<std::basic_string<char, std::char_traits<char>, std::allocator<char> > >, std::allocator<std::pair<const std::basic_string<char, std::char_traits<char>, std::allocator<char> >, Service::Point103> > >::_S_right
FUNC 233e8 12 0 std::_Rb_tree<std::basic_string<char, std::char_traits<char>, std::allocator<char> >, std::pair<const std::basic_string<char, std::char_traits<char>, std::allocator<char> >, Service::Point103>, std::_Select1st<std::pair<const std::basic_string<char, std::char_traits<char>, std::allocator<char> >, Service::Point103> >, std::less<std::basic_string<char, std::char_traits<char>, std::allocator<char> > >, std::allocator<std::pair<const std::basic_string<char, std::char_traits<char>, std::allocator<char> >, Service::Point103> > >::_S_left
FUNC 233fa 86 0 std::_Rb_tree<std::basic_string<char, std::char_traits<char>, std::allocator<char> >, std::pair<const std::basic_string<char, std::char_traits<char>, std::allocator<char> >, Service::Point103>, std::_Select1st<std::pair<const std::basic_string<char, std::char_traits<char>, std::allocator<char> >, Service::Point103> >, std::less<std::basic_string<char, std::char_traits<char>, std::allocator<char> > >, std::allocator<std::pair<const std::basic_string<char, std::char_traits<char>, std::allocator<char> >, Service::Point103> > >::_M_destroy_node
FUNC 23480 48 0 std::_Vector_base<char, std::allocator<char> >::_Vector_impl::_Vector_impl
FUNC 234c8 31 0 std::__uninitialized_fill_n_a<char*, long unsigned int, char, char>
FUNC 234fa e 0 __gnu_cxx::__normal_iterator<Tag*, std::vector<Tag, std::allocator<Tag> > >::base
FUNC 23508 46 0 std::copy_backward<Tag*, Tag*>
FUNC 2354e 11 0 __gnu_cxx::__normal_iterator<Tag*, std::vector<Tag, std::allocator<Tag> > >::operator*
FUNC 23560 ca 0 std::vector<Tag, std::allocator<Tag> >::_M_check_len
FUNC 2362a 25 0 std::vector<Tag, std::allocator<Tag> >::begin
FUNC 2364f 4d 0 __gnu_cxx::operator-<Tag*, std::vector<Tag, std::allocator<Tag> > >
FUNC 2369c 38 0 std::_Vector_base<Tag, std::allocator<Tag> >::_M_allocate
FUNC 236d4 3b 0 std::__uninitialized_move_a<Tag*, Tag*, std::allocator<Tag> >
FUNC 23710 1e 0 __gnu_cxx::new_allocator<Tag>::destroy
FUNC 2372e 1c 0 __gnu_cxx::__normal_iterator<Tag*, std::vector<Tag, std::allocator<Tag> > >::__normal_iterator
FUNC 2374a 1c 0 __gnu_cxx::__normal_iterator<const Tag*, std::vector<Tag, std::allocator<Tag> > >::__normal_iterator
FUNC 23766 e 0 __gnu_cxx::__normal_iterator<const Tag*, std::vector<Tag, std::allocator<Tag> > >::base
FUNC 23774 12 0 std::_Rb_tree<std::basic_string<char, std::char_traits<char>, std::allocator<char> >, std::pair<const std::basic_string<char, std::char_traits<char>, std::allocator<char> >, Service::Point103>, std::_Select1st<std::pair<const std::basic_string<char, std::char_traits<char>, std::allocator<char> >, Service::Point103> >, std::less<std::basic_string<char, std::char_traits<char>, std::allocator<char> > >, std::allocator<std::pair<const std::basic_string<char, std::char_traits<char>, std::allocator<char> >, Service::Point103> > >::_M_end
FUNC 23786 92 0 std::_Rb_tree<std::basic_string<char, std::char_traits<char>, std::allocator<char> >, std::pair<const std::basic_string<char, std::char_traits<char>, std::allocator<char> >, Service::Point103>, std::_Select1st<std::pair<const std::basic_string<char, std::char_traits<char>, std::allocator<char> >, Service::Point103> >, std::less<std::basic_string<char, std::char_traits<char>, std::allocator<char> > >, std::allocator<std::pair<const std::basic_string<char, std::char_traits<char>, std::allocator<char> >, Service::Point103> > >::_M_lower_bound
FUNC 23818 2c 0 std::_Rb_tree<std::basic_string<char, std::char_traits<char>, std::allocator<char> >, std::pair<const std::basic_string<char, std::char_traits<char>, std::allocator<char> >, Service::Point103>, std::_Select1st<std::pair<const std::basic_string<char, std::char_traits<char>, std::allocator<char> >, Service::Point103> >, std::less<std::basic_string<char, std::char_traits<char>, std::allocator<char> > >, std::allocator<std::pair<const std::basic_string<char, std::char_traits<char>, std::allocator<char> >, Service::Point103> > >::_S_key
FUNC 23844 22 0 std::_Rb_tree_iterator<std::pair<const std::basic_string<char, std::char_traits<char>, std::allocator<char> >, Service::Point103> >::operator==
FUNC 23866 19 0 std::_Rb_tree_iterator<std::pair<const std::basic_string<char, std::char_traits<char>, std::allocator<char> >, Service::Point103> >::_Rb_tree_iterator
FUNC 23880 12 0 std::_Rb_tree<std::basic_string<char, std::char_traits<char>, std::allocator<char> >, std::pair<const std::basic_string<char, std::char_traits<char>, std::allocator<char> >, Service::Point103>, std::_Select1st<std::pair<const std::basic_string<char, std::char_traits<char>, std::allocator<char> >, Service::Point103> >, std::less<std::basic_string<char, std::char_traits<char>, std::allocator<char> > >, std::allocator<std::pair<const std::basic_string<char, std::char_traits<char>, std::allocator<char> >, Service::Point103> > >::_M_leftmost
FUNC 23892 12 0 std::_Rb_tree<std::basic_string<char, std::char_traits<char>, std::allocator<char> >, std::pair<const std::basic_string<char, std::char_traits<char>, std::allocator<char> >, Service::Point103>, std::_Select1st<std::pair<const std::basic_string<char, std::char_traits<char>, std::allocator<char> >, Service::Point103> >, std::less<std::basic_string<char, std::char_traits<char>, std::allocator<char> > >, std::allocator<std::pair<const std::basic_string<char, std::char_traits<char>, std::allocator<char> >, Service::Point103> > >::_M_root
FUNC 238a4 12 0 std::_Rb_tree<std::basic_string<char, std::char_traits<char>, std::allocator<char> >, std::pair<const std::basic_string<char, std::char_traits<char>, std::allocator<char> >, Service::Point103>, std::_Select1st<std::pair<const std::basic_string<char, std::char_traits<char>, std::allocator<char> >, Service::Point103> >, std::less<std::basic_string<char, std::char_traits<char>, std::allocator<char> > >, std::allocator<std::pair<const std::basic_string<char, std::char_traits<char>, std::allocator<char> >, Service::Point103> > >::_M_rightmost
FUNC 238b6 12 0 std::_Select1st<std::pair<const std::basic_string<char, std::char_traits<char>, std::allocator<char> >, Service::Point103> >::operator()
FUNC 238c8 2c 0 std::_Rb_tree<std::basic_string<char, std::char_traits<char>, std::allocator<char> >, std::pair<const std::basic_string<char, std::char_traits<char>, std::allocator<char> >, Service::Point103>, std::_Select1st<std::pair<const std::basic_string<char, std::char_traits<char>, std::allocator<char> >, Service::Point103> >, std::less<std::basic_string<char, std::char_traits<char>, std::allocator<char> > >, std::allocator<std::pair<const std::basic_string<char, std::char_traits<char>, std::allocator<char> >, Service::Point103> > >::_S_key
FUNC 238f4 2c 0 std::_Rb_tree<std::basic_string<char, std::char_traits<char>, std::allocator<char> >, std::pair<const std::basic_string<char, std::char_traits<char>, std::allocator<char> >, Service::Point103>, std::_Select1st<std::pair<const std::basic_string<char, std::char_traits<char>, std::allocator<char> >, Service::Point103> >, std::less<std::basic_string<char, std::char_traits<char>, std::allocator<char> > >, std::allocator<std::pair<const std::basic_string<char, std::char_traits<char>, std::allocator<char> >, Service::Point103> > >::begin
FUNC 23920 e3 0 std::_Rb_tree<std::basic_string<char, std::char_traits<char>, std::allocator<char> >, std::pair<const std::basic_string<char, std::char_traits<char>, std::allocator<char> >, Service::Point103>, std::_Select1st<std::pair<const std::basic_string<char, std::char_traits<char>, std::allocator<char> >, Service::Point103> >, std::less<std::basic_string<char, std::char_traits<char>, std::allocator<char> > >, std::allocator<std::pair<const std::basic_string<char, std::char_traits<char>, std::allocator<char> >, Service::Point103> > >::_M_insert_
FUNC 23a04 2e 0 std::pair<std::_Rb_tree_iterator<std::pair<const std::basic_string<char, std::char_traits<char>, std::allocator<char> >, Service::Point103> >, bool>::pair
FUNC 23a32 28 0 std::_Rb_tree_iterator<std::pair<const std::basic_string<char, std::char_traits<char>, std::allocator<char> >, Service::Point103> >::operator--
FUNC 23a5a 1a 0 std::allocator<Tag>::allocator
FUNC 23a74 a 0 __gnu_cxx::new_allocator<Tag>::~new_allocator
FUNC 23a7e 22 0 __gnu_cxx::new_allocator<Tag>::deallocate
FUNC 23aa0 37 0 std::_Destroy_aux<false>::__destroy<Tag*>
FUNC 23ad8 1a 0 std::allocator<std::_Rb_tree_node<std::pair<const std::basic_string<char, std::char_traits<char>, std::allocator<char> >, Service::Point103> > >::allocator
FUNC 23af2 41 0 std::_Rb_tree<std::basic_string<char, std::char_traits<char>, std::allocator<char> >, std::pair<const std::basic_string<char, std::char_traits<char>, std::allocator<char> >, Service::Point103>, std::_Select1st<std::pair<const std::basic_string<char, std::char_traits<char>, std::allocator<char> >, Service::Point103> >, std::less<std::basic_string<char, std::char_traits<char>, std::allocator<char> > >, std::allocator<std::pair<const std::basic_string<char, std::char_traits<char>, std::allocator<char> >, Service::Point103> > >::_Rb_tree_impl<std::less<std::basic_string<char, std::char_traits<char>, std::allocator<char> > >, false>::_M_initialize
FUNC 23b34 3b 0 std::_Rb_tree<std::basic_string<char, std::char_traits<char>, std::allocator<char> >, std::pair<const std::basic_string<char, std::char_traits<char>, std::allocator<char> >, Service::Point103>, std::_Select1st<std::pair<const std::basic_string<char, std::char_traits<char>, std::allocator<char> >, Service::Point103> >, std::less<std::basic_string<char, std::char_traits<char>, std::allocator<char> > >, std::allocator<std::pair<const std::basic_string<char, std::char_traits<char>, std::allocator<char> >, Service::Point103> > >::get_allocator
FUNC 23b70 1a 0 std::allocator<std::pair<const std::basic_string<char, std::char_traits<char>, std::allocator<char> >, Service::Point103> >::~allocator
FUNC 23b8a 1e 0 __gnu_cxx::new_allocator<std::pair<const std::basic_string<char, std::char_traits<char>, std::allocator<char> >, Service::Point103> >::destroy
FUNC 23ba8 2a 0 std::_Rb_tree<std::basic_string<char, std::char_traits<char>, std::allocator<char> >, std::pair<const std::basic_string<char, std::char_traits<char>, std::allocator<char> >, Service::Point103>, std::_Select1st<std::pair<const std::basic_string<char, std::char_traits<char>, std::allocator<char> >, Service::Point103> >, std::less<std::basic_string<char, std::char_traits<char>, std::allocator<char> > >, std::allocator<std::pair<const std::basic_string<char, std::char_traits<char>, std::allocator<char> >, Service::Point103> > >::_M_put_node
FUNC 23bd2 2d 0 std::uninitialized_fill_n<char*, long unsigned int, char>
FUNC 23bff e 0 std::__miter_base<Tag*, false>::__b
FUNC 23c0d 58 0 std::__copy_move_backward_a2<false, Tag*, Tag*>
FUNC 23c66 22 0 std::vector<Tag, std::allocator<Tag> >::max_size
FUNC 23c88 63 0 __gnu_cxx::new_allocator<Tag>::allocate
FUNC 23ceb 31 0 std::__uninitialized_copy_a<Tag*, Tag*, Tag>
FUNC 23d1c 12 0 std::_Rb_tree<std::basic_string<char, std::char_traits<char>, std::allocator<char> >, std::pair<const std::basic_string<char, std::char_traits<char>, std::allocator<char> >, Service::Point103>, std::_Select1st<std::pair<const std::basic_string<char, std::char_traits<char>, std::allocator<char> >, Service::Point103> >, std::less<std::basic_string<char, std::char_traits<char>, std::allocator<char> > >, std::allocator<std::pair<const std::basic_string<char, std::char_traits<char>, std::allocator<char> >, Service::Point103> > >::_S_value
FUNC 23d2e 12 0 std::_Rb_tree<std::basic_string<char, std::char_traits<char>, std::allocator<char> >, std::pair<const std::basic_string<char, std::char_traits<char>, std::allocator<char> >, Service::Point103>, std::_Select1st<std::pair<const std::basic_string<char, std::char_traits<char>, std::allocator<char> >, Service::Point103> >, std::less<std::basic_string<char, std::char_traits<char>, std::allocator<char> > >, std::allocator<std::pair<const std::basic_string<char, std::char_traits<char>, std::allocator<char> >, Service::Point103> > >::_S_value
FUNC 23d40 bd 0 std::_Rb_tree<std::basic_string<char, std::char_traits<char>, std::allocator<char> >, std::pair<const std::basic_string<char, std::char_traits<char>, std::allocator<char> >, Service::Point103>, std::_Select1st<std::pair<const std::basic_string<char, std::char_traits<char>, std::allocator<char> >, Service::Point103> >, std::less<std::basic_string<char, std::char_traits<char>, std::allocator<char> > >, std::allocator<std::pair<const std::basic_string<char, std::char_traits<char>, std::allocator<char> >, Service::Point103> > >::_M_create_node
FUNC 23dfe a 0 __gnu_cxx::new_allocator<Tag>::new_allocator
FUNC 23e08 1a 0 std::_Destroy<Tag>
FUNC 23e22 a 0 __gnu_cxx::new_allocator<std::_Rb_tree_node<std::pair<const std::basic_string<char, std::char_traits<char>, std::allocator<char> >, Service::Point103> > >::new_allocator
FUNC 23e2c e 0 std::_Rb_tree<std::basic_string<char, std::char_traits<char>, std::allocator<char> >, std::pair<const std::basic_string<char, std::char_traits<char>, std::allocator<char> >, Service::Point103>, std::_Select1st<std::pair<const std::basic_string<char, std::char_traits<char>, std::allocator<char> >, Service::Point103> >, std::less<std::basic_string<char, std::char_traits<char>, std::allocator<char> > >, std::allocator<std::pair<const std::basic_string<char, std::char_traits<char>, std::allocator<char> >, Service::Point103> > >::_M_get_Node_allocator
FUNC 23e3a 1e 0 std::allocator<std::pair<const std::basic_string<char, std::char_traits<char>, std::allocator<char> >, Service::Point103> >::allocator<std::_Rb_tree_node<std::pair<const std::basic_string<char, std::char_traits<char>, std::allocator<char> >, Service::Point103> > >
FUNC 23e58 a 0 __gnu_cxx::new_allocator<std::pair<const std::basic_string<char, std::char_traits<char>, std::allocator<char> >, Service::Point103> >::~new_allocator
FUNC 23e62 22 0 __gnu_cxx::new_allocator<std::_Rb_tree_node<std::pair<const std::basic_string<char, std::char_traits<char>, std::allocator<char> >, Service::Point103> > >::deallocate
FUNC 23e84 2d 0 std::__uninitialized_fill_n<true>::uninitialized_fill_n<char*, long unsigned int, char>
FUNC 23eb1 e 0 std::__niter_base<Tag*, false>::__b
FUNC 23ebf 31 0 std::__copy_move_backward_a<false, Tag*, Tag*>
FUNC 23ef0 e 0 std::_Vector_base<Tag, std::allocator<Tag> >::_M_get_Tp_allocator
FUNC 23efe 14 0 __gnu_cxx::new_allocator<Tag>::max_size
FUNC 23f12 2d 0 std::uninitialized_copy<Tag*, Tag*>
FUNC 23f40 24 0 std::_Rb_tree<std::basic_string<char, std::char_traits<char>, std::allocator<char> >, std::pair<const std::basic_string<char, std::char_traits<char>, std::allocator<char> >, Service::Point103>, std::_Select1st<std::pair<const std::basic_string<char, std::char_traits<char>, std::allocator<char> >, Service::Point103> >, std::less<std::basic_string<char, std::char_traits<char>, std::allocator<char> > >, std::allocator<std::pair<const std::basic_string<char, std::char_traits<char>, std::allocator<char> >, Service::Point103> > >::_M_get_node
FUNC 23f64 6b 0 std::pair<const std::basic_string<char, std::char_traits<char>, std::allocator<char> >, Service::Point103>::pair
FUNC 23fd0 77 0 __gnu_cxx::new_allocator<std::pair<const std::basic_string<char, std::char_traits<char>, std::allocator<char> >, Service::Point103> >::construct
FUNC 24048 a 0 __gnu_cxx::new_allocator<std::pair<const std::basic_string<char, std::char_traits<char>, std::allocator<char> >, Service::Point103> >::new_allocator
FUNC 24052 35 0 std::fill_n<char*, long unsigned int, char>
FUNC 24087 6d 0 std::__copy_move_backward<false, false, std::random_access_iterator_tag>::__copy_move_b<Tag*, Tag*>
FUNC 240f4 98 0 std::__uninitialized_copy<false>::uninitialized_copy<Tag*, Tag*>
FUNC 2418c 5c 0 __gnu_cxx::new_allocator<std::_Rb_tree_node<std::pair<const std::basic_string<char, std::char_traits<char>, std::allocator<char> >, Service::Point103> > >::allocate
FUNC 241e8 41 0 std::__fill_n_a<long unsigned int, char>
FUNC 24229 de 0 std::_Construct<Tag, Tag>
FUNC 24308 14 0 __gnu_cxx::new_allocator<std::_Rb_tree_node<std::pair<const std::basic_string<char, std::char_traits<char>, std::allocator<char> >, Service::Point103> > >::max_size
FUNC 2431c 49 0 std::__fill_a<char>
FUNC 24368 db 0 TcpNet::TcpNet
FUNC 24444 7c 0 TcpNet::~TcpNet
FUNC 244c0 26 0 TcpNet::~TcpNet
FUNC 244e6 17d 0 TcpNet::Connect
FUNC 24664 15d 0 TcpNet::Read
FUNC 247c2 e8 0 TcpNet::Write
FUNC 248aa 2c 0 TcpNet::DisConnect
FUNC 248d6 48 0 __static_initialization_and_destruction_0
FUNC 2491e 15 0 _GLOBAL__I_TcpNet.cpp
FUNC 24934 91 0 TcpService::TcpService
FUNC 249c6 7e 0 TcpService::~TcpService
FUNC 24a44 26 0 TcpService::~TcpService
FUNC 24a6a 18f 0 TcpService::Start
FUNC 24bfa 622 0 TcpService::Write
FUNC 2521c 581 0 TcpService::Read
FUNC 2579e 20b 0 TcpService::ParseRecvData
FUNC 259aa 11f 0 TcpService::CmdConnection
FUNC 25aca 11f 0 TcpService::CmdGetTest1
FUNC 25bea 11f 0 TcpService::CmdGetTest2
FUNC 25d0a 2a7 0 TcpService::CmdGetAll
FUNC 25fb2 2e1 0 TcpService::CmdGetGroupData
FUNC 26294 15b 0 TcpService::ParseVariableData
FUNC 263f0 379 0 TcpService::ParseASDU1
FUNC 2676a 120 0 TcpService::ParseASDU10
FUNC 2688a 82f 0 TcpService::ParseASDU10AllValue
FUNC 270ba 2fe 0 TcpService::ParseASDU40
FUNC 273b8 3c 0 TcpService::ParseASDU41
FUNC 273f4 391 0 TcpService::ParseASDU42
FUNC 27786 388 0 TcpService::ParseASDU44
FUNC 27b0e 465 0 TcpService::ParseASDU50
FUNC 27f74 8e 0 TcpService::InitConfig
FUNC 28002 14 0 TcpService::GetSendID
FUNC 28016 14 0 TcpService::GetRecvID
FUNC 2802a ca 0 __static_initialization_and_destruction_0
FUNC 280f4 15 0 _GLOBAL__I_TcpService.cpp
FUNC 2810c 107 0 UdpNet::UdpNet
FUNC 28214 7c 0 UdpNet::~UdpNet
FUNC 28290 26 0 UdpNet::~UdpNet
FUNC 282b6 17b 0 UdpNet::Connect
FUNC 28432 aa 0 UdpNet::Read
FUNC 284dc ce 0 UdpNet::Write
FUNC 285aa 2c 0 UdpNet::DisConnect
FUNC 285d6 48 0 __static_initialization_and_destruction_0
FUNC 2861e 15 0 _GLOBAL__I_UdpNet.cpp
FUNC 28634 1c 0 WarningLib::WarningLib
FUNC 28650 35 0 WarningLib::~WarningLib
FUNC 28686 26 0 WarningLib::~WarningLib
FUNC 286ac 74 0 WarningLib::GetInstance
FUNC 28720 2f4 0 WarningLib::Init
FUNC 28a14 96 0 WarningLib::GetFunction
FUNC 28aaa 2b 0 WarningLib::Start
FUNC 28ad6 36 0 WarningLib::WriteWarn
FUNC 28b0c 63 0 WarningLib::WriteWarn2
FUNC 28b70 2b 0 WarningLib::Stop
FUNC 28b9c 550 0 WgjXml::WgjXml
FUNC 290ec 581 0 WgjXml::~WgjXml
FUNC 2966e 6c 0 WgjXml::LoadXml
FUNC 296da a1 0 WgjXml::Get_Point61850
FUNC 2977c 1f1 0 WgjXml::GetTransmitChannel
FUNC 2996e 96 0 WgjXml::Get_61850
FUNC 29a04 1b8 0 WgjXml::GetRedisConnectionConfig
FUNC 29bbc db 0 WgjXml::GetCollectionRedisInfo
FUNC 29c98 72 0 WgjXml::GetPcapConfigInfo
FUNC 29d0a 6b 0 WgjXml::GetAllChannelName
FUNC 29d76 f2 0 WgjXml::GetParseConfigInfo
FUNC 29e68 be 0 WgjXml::GetIEC61850ServerPoint
FUNC 29f26 85 0 WgjXml::InitIEC103Xml
FUNC 29fac 36 0 WgjXml::GetIEC103Param
FUNC 29fe2 36 0 WgjXml::GetIEC103Point
FUNC 2a018 bf 0 WgjXml::GetIEC104WFPoint
FUNC 2a0d8 89 0 WgjXml::GetIEC104WFParam
FUNC 2a162 89 0 WgjXml::Get61850IP
FUNC 2a1ec 732 0 WgjXml::parse_61850
FUNC 2a91e 68e 0 WgjXml::parse_Iec104
FUNC 2afac 55e 0 WgjXml::parse_Iec104Param
FUNC 2b50a 452 0 WgjXml::parse_Iec103
FUNC 2b95c 215 0 WgjXml::find_RedisInfo
FUNC 2bb72 178 0 WgjXml::get_AllChannel
FUNC 2bcea 62a 0 WgjXml::getParseConfigInfo
FUNC 2c314 2b0 0 WgjXml::GetDataStorageConfig
FUNC 2c5c4 487 0 WgjXml::getPcapConfigInfo
FUNC 2ca4c 35d 0 WgjXml::getIEC61850ServerPoint
FUNC 2cdaa 314 0 WgjXml::parse_61850IP
FUNC 2d0be 40 0 __static_initialization_and_destruction_0
FUNC 2d0fe 15 0 _GLOBAL__I__ZN6WgjXmlC2Ev
FUNC 2d114 1a 0 TiXmlString::~TiXmlString
FUNC 2d12e 15 0 TiXmlString::c_str
FUNC 2d144 38 0 TiXmlString::quit
FUNC 2d17c 1e 0 TiXmlNode::Value
FUNC 2d19a 1a 0 TiXmlNode::NextSiblingElement
FUNC 2d1b4 1a 0 TiXmlNode::FirstChildElement
FUNC 2d1ce 18 0 TiXmlNode::NoChildren
FUNC 2d1e6 4a 0 TiXmlDocument::~TiXmlDocument
FUNC 2d230 26 0 TiXmlDocument::~TiXmlDocument
FUNC 2d256 1a 0 TiXmlDocument::RootElement
FUNC 2d270 1a 0 std::map<std::basic_string<char, std::char_traits<char>, std::allocator<char> >, IEC61850_STRUCT::IED_61850, std::less<std::basic_string<char, std::char_traits<char>, std::allocator<char> > >, std::allocator<std::pair<const std::basic_string<char, std::char_traits<char>, std::allocator<char> >, IEC61850_STRUCT::IED_61850> > >::~map
FUNC 2d28a 139 0 IEC61850_STRUCT::IED_61850::IED_61850
FUNC 2d3c4 140 0 IEC61850_STRUCT::IED_61850::~IED_61850
FUNC 2d504 1a 0 std::list<std::basic_string<char, std::char_traits<char>, std::allocator<char> >, std::allocator<std::basic_string<char, std::char_traits<char>, std::allocator<char> > > >::~list
FUNC 2d51e 1a 0 std::map<std::basic_string<char, std::char_traits<char>, std::allocator<char> >, std::map<int, std::map<int, IEC104WF::stPointTable, std::less<int>, std::allocator<std::pair<const int, IEC104WF::stPointTable> > >, std::less<int>, std::allocator<std::pair<const int, std::map<int, IEC104WF::stPointTable, std::less<int>, std::allocator<std::pair<const int, IEC104WF::stPointTable> > > > > >, std::less<std::basic_string<char, std::char_traits<char>, std::allocator<char> > >, std::allocator<std::pair<const std::basic_string<char, std::char_traits<char>, std::allocator<char> >, std::map<int, std::map<int, IEC104WF::stPointTable, std::less<int>, std::allocator<std::pair<const int, IEC104WF::stPointTable> > >, std::less<int>, std::allocator<std::pair<const int, std::map<int, IEC104WF::stPointTable, std::less<int>, std::allocator<std::pair<const int, IEC104WF::stPointTable> > > > > > > > >::~map
FUNC 2d538 1a 0 std::map<int, std::map<int, IEC104WF::stPointTable, std::less<int>, std::allocator<std::pair<const int, IEC104WF::stPointTable> > >, std::less<int>, std::allocator<std::pair<const int, std::map<int, IEC104WF::stPointTable, std::less<int>, std::allocator<std::pair<const int, IEC104WF::stPointTable> > > > > >::~map
FUNC 2d552 1a 0 std::map<int, IEC104WF::stPointTable, std::less<int>, std::allocator<std::pair<const int, IEC104WF::stPointTable> > >::~map
FUNC 2d56c 1a 0 IEC104WF::stPointTable::stPointTable
FUNC 2d586 1a 0 IEC104WF::stPointTable::~stPointTable
FUNC 2d5a0 82 0 IEC103::stConfigParam::stConfigParam
FUNC 2d622 121 0 IEC61850_STRUCT::IED_61850::operator=
FUNC 2d744 45 0 IEC104WF::stPointTable::operator=
FUNC 2d78a 7b 0 IEC103::stConfigParam::operator=
FUNC 2d806 1a 0 std::map<std::basic_string<char, std::char_traits<char>, std::allocator<char> >, IEC61850_STRUCT::IED_61850, std::less<std::basic_string<char, std::char_traits<char>, std::allocator<char> > >, std::allocator<std::pair<const std::basic_string<char, std::char_traits<char>, std::allocator<char> >, IEC61850_STRUCT::IED_61850> > >::map
FUNC 2d820 1a 0 std::_Rb_tree<std::basic_string<char, std::char_traits<char>, std::allocator<char> >, std::pair<const std::basic_string<char, std::char_traits<char>, std::allocator<char> >, IEC61850_STRUCT::IED_61850>, std::_Select1st<std::pair<const std::basic_string<char, std::char_traits<char>, std::allocator<char> >, IEC61850_STRUCT::IED_61850> >, std::less<std::basic_string<char, std::char_traits<char>, std::allocator<char> > >, std::allocator<std::pair<const std::basic_string<char, std::char_traits<char>, std::allocator<char> >, IEC61850_STRUCT::IED_61850> > >::_Rb_tree_impl<std::less<std::basic_string<char, std::char_traits<char>, std::allocator<char> > >, false>::~_Rb_tree_impl
FUNC 2d83a 63 0 std::_Rb_tree<std::basic_string<char, std::char_traits<char>, std::allocator<char> >, std::pair<const std::basic_string<char, std::char_traits<char>, std::allocator<char> >, IEC61850_STRUCT::IED_61850>, std::_Select1st<std::pair<const std::basic_string<char, std::char_traits<char>, std::allocator<char> >, IEC61850_STRUCT::IED_61850> >, std::less<std::basic_string<char, std::char_traits<char>, std::allocator<char> > >, std::allocator<std::pair<const std::basic_string<char, std::char_traits<char>, std::allocator<char> >, IEC61850_STRUCT::IED_61850> > >::~_Rb_tree
FUNC 2d89e 1a 0 std::list<std::basic_string<char, std::char_traits<char>, std::allocator<char> >, std::allocator<std::basic_string<char, std::char_traits<char>, std::allocator<char> > > >::list
FUNC 2d8b8 1a 0 std::_List_base<std::basic_string<char, std::char_traits<char>, std::allocator<char> >, std::allocator<std::basic_string<char, std::char_traits<char>, std::allocator<char> > > >::_List_impl::~_List_impl
FUNC 2d8d2 51 0 std::_List_base<std::basic_string<char, std::char_traits<char>, std::allocator<char> >, std::allocator<std::basic_string<char, std::char_traits<char>, std::allocator<char> > > >::~_List_base
FUNC 2d924 1a 0 std::map<std::basic_string<char, std::char_traits<char>, std::allocator<char> >, std::map<int, std::map<int, IEC104WF::stPointTable, std::less<int>, std::allocator<std::pair<const int, IEC104WF::stPointTable> > >, std::less<int>, std::allocator<std::pair<const int, std::map<int, IEC104WF::stPointTable, std::less<int>, std::allocator<std::pair<const int, IEC104WF::stPointTable> > > > > >, std::less<std::basic_string<char, std::char_traits<char>, std::allocator<char> > >, std::allocator<std::pair<const std::basic_string<char, std::char_traits<char>, std::allocator<char> >, std::map<int, std::map<int, IEC104WF::stPointTable, std::less<int>, std::allocator<std::pair<const int, IEC104WF::stPointTable> > >, std::less<int>, std::allocator<std::pair<const int, std::map<int, IEC104WF::stPointTable, std::less<int>, std::allocator<std::pair<const int, IEC104WF::stPointTable> > > > > > > > >::map
FUNC 2d93e 1a 0 std::_Rb_tree<std::basic_string<char, std::char_traits<char>, std::allocator<char> >, std::pair<const std::basic_string<char, std::char_traits<char>, std::allocator<char> >, std::map<int, std::map<int, IEC104WF::stPointTable, std::less<int>, std::allocator<std::pair<const int, IEC104WF::stPointTable> > >, std::less<int>, std::allocator<std::pair<const int, std::map<int, IEC104WF::stPointTable, std::less<int>, std::allocator<std::pair<const int, IEC104WF::stPointTable> > > > > > >, std::_Select1st<std::pair<const std::basic_string<char, std::char_traits<char>, std::allocator<char> >, std::map<int, std::map<int, IEC104WF::stPointTable, std::less<int>, std::allocator<std::pair<const int, IEC104WF::stPointTable> > >, std::less<int>, std::allocator<std::pair<const int, std::map<int, IEC104WF::stPointTable, std::less<int>, std::allocator<std::pair<const int, IEC104WF::stPointTable> > > > > > > >, std::less<std::basic_string<char, std::char_traits<char>, std::allocator<char> > >, std::allocator<std::pair<const std::basic_string<char, std::char_traits<char>, std::allocator<char> >, std::map<int, std::map<int, IEC104WF::stPointTable, std::less<int>, std::allocator<std::pair<const int, IEC104WF::stPointTable> > >, std::less<int>, std::allocator<std::pair<const int, std::map<int, IEC104WF::stPointTable, std::less<int>, std::allocator<std::pair<const int, IEC104WF::stPointTable> > > > > > > > >::_Rb_tree_impl<std::less<std::basic_string<char, std::char_traits<char>, std::allocator<char> > >, false>::~_Rb_tree_impl
FUNC 2d958 63 0 std::_Rb_tree<std::basic_string<char, std::char_traits<char>, std::allocator<char> >, std::pair<const std::basic_string<char, std::char_traits<char>, std::allocator<char> >, std::map<int, std::map<int, IEC104WF::stPointTable, std::less<int>, std::allocator<std::pair<const int, IEC104WF::stPointTable> > >, std::less<int>, std::allocator<std::pair<const int, std::map<int, IEC104WF::stPointTable, std::less<int>, std::allocator<std::pair<const int, IEC104WF::stPointTable> > > > > > >, std::_Select1st<std::pair<const std::basic_string<char, std::char_traits<char>, std::allocator<char> >, std::map<int, std::map<int, IEC104WF::stPointTable, std::less<int>, std::allocator<std::pair<const int, IEC104WF::stPointTable> > >, std::less<int>, std::allocator<std::pair<const int, std::map<int, IEC104WF::stPointTable, std::less<int>, std::allocator<std::pair<const int, IEC104WF::stPointTable> > > > > > > >, std::less<std::basic_string<char, std::char_traits<char>, std::allocator<char> > >, std::allocator<std::pair<const std::basic_string<char, std::char_traits<char>, std::allocator<char> >, std::map<int, std::map<int, IEC104WF::stPointTable, std::less<int>, std::allocator<std::pair<const int, IEC104WF::stPointTable> > >, std::less<int>, std::allocator<std::pair<const int, std::map<int, IEC104WF::stPointTable, std::less<int>, std::allocator<std::pair<const int, IEC104WF::stPointTable> > > > > > > > >::~_Rb_tree
FUNC 2d9bc 1a 0 std::map<int, std::map<int, IEC104WF::stPointTable, std::less<int>, std::allocator<std::pair<const int, IEC104WF::stPointTable> > >, std::less<int>, std::allocator<std::pair<const int, std::map<int, IEC104WF::stPointTable, std::less<int>, std::allocator<std::pair<const int, IEC104WF::stPointTable> > > > > >::map
FUNC 2d9d6 1a 0 std::_Rb_tree<int, std::pair<const int, std::map<int, IEC104WF::stPointTable, std::less<int>, std::allocator<std::pair<const int, IEC104WF::stPointTable> > > >, std::_Select1st<std::pair<const int, std::map<int, IEC104WF::stPointTable, std::less<int>, std::allocator<std::pair<const int, IEC104WF::stPointTable> > > > >, std::less<int>, std::allocator<std::pair<const int, std::map<int, IEC104WF::stPointTable, std::less<int>, std::allocator<std::pair<const int, IEC104WF::stPointTable> > > > > >::_Rb_tree_impl<std::less<int>, false>::~_Rb_tree_impl
FUNC 2d9f0 63 0 std::_Rb_tree<int, std::pair<const int, std::map<int, IEC104WF::stPointTable, std::less<int>, std::allocator<std::pair<const int, IEC104WF::stPointTable> > > >, std::_Select1st<std::pair<const int, std::map<int, IEC104WF::stPointTable, std::less<int>, std::allocator<std::pair<const int, IEC104WF::stPointTable> > > > >, std::less<int>, std::allocator<std::pair<const int, std::map<int, IEC104WF::stPointTable, std::less<int>, std::allocator<std::pair<const int, IEC104WF::stPointTable> > > > > >::~_Rb_tree
FUNC 2da54 1a 0 std::map<int, IEC104WF::stPointTable, std::less<int>, std::allocator<std::pair<const int, IEC104WF::stPointTable> > >::map
FUNC 2da6e 1a 0 std::_Rb_tree<int, std::pair<const int, IEC104WF::stPointTable>, std::_Select1st<std::pair<const int, IEC104WF::stPointTable> >, std::less<int>, std::allocator<std::pair<const int, IEC104WF::stPointTable> > >::_Rb_tree_impl<std::less<int>, false>::~_Rb_tree_impl
FUNC 2da88 63 0 std::_Rb_tree<int, std::pair<const int, IEC104WF::stPointTable>, std::_Select1st<std::pair<const int, IEC104WF::stPointTable> >, std::less<int>, std::allocator<std::pair<const int, IEC104WF::stPointTable> > >::~_Rb_tree
FUNC 2daec 1a 0 std::map<std::basic_string<char, std::char_traits<char>, std::allocator<char> >, IEC103::stConfigParam, std::less<std::basic_string<char, std::char_traits<char>, std::allocator<char> > >, std::allocator<std::pair<const std::basic_string<char, std::char_traits<char>, std::allocator<char> >, IEC103::stConfigParam> > >::map
FUNC 2db06 1a 0 std::map<std::basic_string<char, std::char_traits<char>, std::allocator<char> >, std::map<std::basic_string<char, std::char_traits<char>, std::allocator<char> >, std::basic_string<char, std::char_traits<char>, std::allocator<char> >, std::less<std::basic_string<char, std::char_traits<char>, std::allocator<char> > >, std::allocator<std::pair<const std::basic_string<char, std::char_traits<char>, std::allocator<char> >, std::basic_string<char, std::char_traits<char>, std::allocator<char> > > > >, std::less<std::basic_string<char, std::char_traits<char>, std::allocator<char> > >, std::allocator<std::pair<const std::basic_string<char, std::char_traits<char>, std::allocator<char> >, std::map<std::basic_string<char, std::char_traits<char>, std::allocator<char> >, std::basic_string<char, std::char_traits<char>, std::allocator<char> >, std::less<std::basic_string<char, std::char_traits<char>, std::allocator<char> > >, std::allocator<std::pair<const std::basic_string<char, std::char_traits<char>, std::allocator<char> >, std::basic_string<char, std::char_traits<char>, std::allocator<char> > > > > > > >::map
FUNC 2db20 b9 0 std::vector<std::basic_string<char, std::char_traits<char>, std::allocator<char> >, std::allocator<std::basic_string<char, std::char_traits<char>, std::allocator<char> > > >::vector
FUNC 2dbda 1a 0 std::map<std::basic_string<char, std::char_traits<char>, std::allocator<char> >, IEC61850_STRUCT::IED_61850, std::less<std::basic_string<char, std::char_traits<char>, std::allocator<char> > >, std::allocator<std::pair<const std::basic_string<char, std::char_traits<char>, std::allocator<char> >, IEC61850_STRUCT::IED_61850> > >::clear
FUNC 2dbf4 25 0 std::map<std::basic_string<char, std::char_traits<char>, std::allocator<char> >, IEC61850_STRUCT::IED_61850, std::less<std::basic_string<char, std::char_traits<char>, std::allocator<char> > >, std::allocator<std::pair<const std::basic_string<char, std::char_traits<char>, std::allocator<char> >, IEC61850_STRUCT::IED_61850> > >::map
FUNC 2dc19 2a 0 std::operator==<char, std::char_traits<char>, std::allocator<char> >
FUNC 2dc44 1a 0 std::map<std::basic_string<char, std::char_traits<char>, std::allocator<char> >, IEC103::stConfigParam, std::less<std::basic_string<char, std::char_traits<char>, std::allocator<char> > >, std::allocator<std::pair<const std::basic_string<char, std::char_traits<char>, std::allocator<char> >, IEC103::stConfigParam> > >::clear
FUNC 2dc5e 1a 0 std::map<std::basic_string<char, std::char_traits<char>, std::allocator<char> >, std::map<std::basic_string<char, std::char_traits<char>, std::allocator<char> >, std::basic_string<char, std::char_traits<char>, std::allocator<char> >, std::less<std::basic_string<char, std::char_traits<char>, std::allocator<char> > >, std::allocator<std::pair<const std::basic_string<char, std::char_traits<char>, std::allocator<char> >, std::basic_string<char, std::char_traits<char>, std::allocator<char> > > > >, std::less<std::basic_string<char, std::char_traits<char>, std::allocator<char> > >, std::allocator<std::pair<const std::basic_string<char, std::char_traits<char>, std::allocator<char> >, std::map<std::basic_string<char, std::char_traits<char>, std::allocator<char> >, std::basic_string<char, std::char_traits<char>, std::allocator<char> >, std::less<std::basic_string<char, std::char_traits<char>, std::allocator<char> > >, std::allocator<std::pair<const std::basic_string<char, std::char_traits<char>, std::allocator<char> >, std::basic_string<char, std::char_traits<char>, std::allocator<char> > > > > > > >::clear
FUNC 2dc78 25 0 std::map<std::basic_string<char, std::char_traits<char>, std::allocator<char> >, IEC103::stConfigParam, std::less<std::basic_string<char, std::char_traits<char>, std::allocator<char> > >, std::allocator<std::pair<const std::basic_string<char, std::char_traits<char>, std::allocator<char> >, IEC103::stConfigParam> > >::map
FUNC 2dc9e 25 0 std::map<std::basic_string<char, std::char_traits<char>, std::allocator<char> >, std::map<std::basic_string<char, std::char_traits<char>, std::allocator<char> >, std::basic_string<char, std::char_traits<char>, std::allocator<char> >, std::less<std::basic_string<char, std::char_traits<char>, std::allocator<char> > >, std::allocator<std::pair<const std::basic_string<char, std::char_traits<char>, std::allocator<char> >, std::basic_string<char, std::char_traits<char>, std::allocator<char> > > > >, std::less<std::basic_string<char, std::char_traits<char>, std::allocator<char> > >, std::allocator<std::pair<const std::basic_string<char, std::char_traits<char>, std::allocator<char> >, std::map<std::basic_string<char, std::char_traits<char>, std::allocator<char> >, std::basic_string<char, std::char_traits<char>, std::allocator<char> >, std::less<std::basic_string<char, std::char_traits<char>, std::allocator<char> > >, std::allocator<std::pair<const std::basic_string<char, std::char_traits<char>, std::allocator<char> >, std::basic_string<char, std::char_traits<char>, std::allocator<char> > > > > > > >::map
FUNC 2dcc4 1a 0 std::map<std::basic_string<char, std::char_traits<char>, std::allocator<char> >, std::map<int, std::map<int, IEC104WF::stPointTable, std::less<int>, std::allocator<std::pair<const int, IEC104WF::stPointTable> > >, std::less<int>, std::allocator<std::pair<const int, std::map<int, IEC104WF::stPointTable, std::less<int>, std::allocator<std::pair<const int, IEC104WF::stPointTable> > > > > >, std::less<std::basic_string<char, std::char_traits<char>, std::allocator<char> > >, std::allocator<std::pair<const std::basic_string<char, std::char_traits<char>, std::allocator<char> >, std::map<int, std::map<int, IEC104WF::stPointTable, std::less<int>, std::allocator<std::pair<const int, IEC104WF::stPointTable> > >, std::less<int>, std::allocator<std::pair<const int, std::map<int, IEC104WF::stPointTable, std::less<int>, std::allocator<std::pair<const int, IEC104WF::stPointTable> > > > > > > > >::clear
FUNC 2dcde 1a 0 std::map<int, std::map<int, IEC104WF::stPointTable, std::less<int>, std::allocator<std::pair<const int, IEC104WF::stPointTable> > >, std::less<int>, std::allocator<std::pair<const int, std::map<int, IEC104WF::stPointTable, std::less<int>, std::allocator<std::pair<const int, IEC104WF::stPointTable> > > > > >::clear
FUNC 2dcf8 1a 0 std::map<int, IEC104WF::stPointTable, std::less<int>, std::allocator<std::pair<const int, IEC104WF::stPointTable> > >::clear
FUNC 2dd12 25 0 std::map<std::basic_string<char, std::char_traits<char>, std::allocator<char> >, std::map<int, std::map<int, IEC104WF::stPointTable, std::less<int>, std::allocator<std::pair<const int, IEC104WF::stPointTable> > >, std::less<int>, std::allocator<std::pair<const int, std::map<int, IEC104WF::stPointTable, std::less<int>, std::allocator<std::pair<const int, IEC104WF::stPointTable> > > > > >, std::less<std::basic_string<char, std::char_traits<char>, std::allocator<char> > >, std::allocator<std::pair<const std::basic_string<char, std::char_traits<char>, std::allocator<char> >, std::map<int, std::map<int, IEC104WF::stPointTable, std::less<int>, std::allocator<std::pair<const int, IEC104WF::stPointTable> > >, std::less<int>, std::allocator<std::pair<const int, std::map<int, IEC104WF::stPointTable, std::less<int>, std::allocator<std::pair<const int, IEC104WF::stPointTable> > > > > > > > >::map
FUNC 2dd38 26 0 std::list<std::basic_string<char, std::char_traits<char>, std::allocator<char> >, std::allocator<std::basic_string<char, std::char_traits<char>, std::allocator<char> > > >::clear
FUNC 2dd5e cf 0 std::list<std::basic_string<char, std::char_traits<char>, std::allocator<char> >, std::allocator<std::basic_string<char, std::char_traits<char>, std::allocator<char> > > >::list
FUNC 2de2e 55 0 std::pair<const std::basic_string<char, std::char_traits<char>, std::allocator<char> >, IEC61850_STRUCT::IED_61850>::~pair
FUNC 2de84 1b7 0 std::map<std::basic_string<char, std::char_traits<char>, std::allocator<char> >, IEC61850_STRUCT::IED_61850, std::less<std::basic_string<char, std::char_traits<char>, std::allocator<char> > >, std::allocator<std::pair<const std::basic_string<char, std::char_traits<char>, std::allocator<char> >, IEC61850_STRUCT::IED_61850> > >::operator[]
FUNC 2e03c 29 0 std::map<std::basic_string<char, std::char_traits<char>, std::allocator<char> >, std::basic_string<char, std::char_traits<char>, std::allocator<char> >, std::less<std::basic_string<char, std::char_traits<char>, std::allocator<char> > >, std::allocator<std::pair<const std::basic_string<char, std::char_traits<char>, std::allocator<char> >, std::basic_string<char, std::char_traits<char>, std::allocator<char> > > > >::operator=
FUNC 2e066 9e 0 WgjXml::stringToNum<float>
FUNC 2e104 92 0 WgjXml::stringToNum<int>
FUNC 2e196 1e 0 std::pair<const int, IEC104WF::stPointTable>::~pair
FUNC 2e1b4 15e 0 std::map<int, IEC104WF::stPointTable, std::less<int>, std::allocator<std::pair<const int, IEC104WF::stPointTable> > >::operator[]
FUNC 2e312 1e 0 std::pair<const int, std::map<int, IEC104WF::stPointTable, std::less<int>, std::allocator<std::pair<const int, IEC104WF::stPointTable> > > >::~pair
FUNC 2e330 185 0 std::map<int, std::map<int, IEC104WF::stPointTable, std::less<int>, std::allocator<std::pair<const int, IEC104WF::stPointTable> > >, std::less<int>, std::allocator<std::pair<const int, std::map<int, IEC104WF::stPointTable, std::less<int>, std::allocator<std::pair<const int, IEC104WF::stPointTable> > > > > >::operator[]
FUNC 2e4b6 29 0 std::map<int, IEC104WF::stPointTable, std::less<int>, std::allocator<std::pair<const int, IEC104WF::stPointTable> > >::operator=
FUNC 2e4e0 55 0 std::pair<const std::basic_string<char, std::char_traits<char>, std::allocator<char> >, std::map<int, std::map<int, IEC104WF::stPointTable, std::less<int>, std::allocator<std::pair<const int, IEC104WF::stPointTable> > >, std::less<int>, std::allocator<std::pair<const int, std::map<int, IEC104WF::stPointTable, std::less<int>, std::allocator<std::pair<const int, IEC104WF::stPointTable> > > > > > >::~pair
FUNC 2e536 185 0 std::map<std::basic_string<char, std::char_traits<char>, std::allocator<char> >, std::map<int, std::map<int, IEC104WF::stPointTable, std::less<int>, std::allocator<std::pair<const int, IEC104WF::stPointTable> > >, std::less<int>, std::allocator<std::pair<const int, std::map<int, IEC104WF::stPointTable, std::less<int>, std::allocator<std::pair<const int, IEC104WF::stPointTable> > > > > >, std::less<std::basic_string<char, std::char_traits<char>, std::allocator<char> > >, std::allocator<std::pair<const std::basic_string<char, std::char_traits<char>, std::allocator<char> >, std::map<int, std::map<int, IEC104WF::stPointTable, std::less<int>, std::allocator<std::pair<const int, IEC104WF::stPointTable> > >, std::less<int>, std::allocator<std::pair<const int, std::map<int, IEC104WF::stPointTable, std::less<int>, std::allocator<std::pair<const int, IEC104WF::stPointTable> > > > > > > > >::operator[]
FUNC 2e6bc 29 0 std::map<int, std::map<int, IEC104WF::stPointTable, std::less<int>, std::allocator<std::pair<const int, IEC104WF::stPointTable> > >, std::less<int>, std::allocator<std::pair<const int, std::map<int, IEC104WF::stPointTable, std::less<int>, std::allocator<std::pair<const int, IEC104WF::stPointTable> > > > > >::operator=
FUNC 2e6e5 28 0 std::operator!=<char, std::char_traits<char>, std::allocator<char> >
FUNC 2e70e 187 0 std::map<std::basic_string<char, std::char_traits<char>, std::allocator<char> >, IEC103::stConfigParam, std::less<std::basic_string<char, std::char_traits<char>, std::allocator<char> > >, std::allocator<std::pair<const std::basic_string<char, std::char_traits<char>, std::allocator<char> >, IEC103::stConfigParam> > >::operator[]
FUNC 2e896 185 0 std::map<std::basic_string<char, std::char_traits<char>, std::allocator<char> >, std::map<std::basic_string<char, std::char_traits<char>, std::allocator<char> >, std::basic_string<char, std::char_traits<char>, std::allocator<char> >, std::less<std::basic_string<char, std::char_traits<char>, std::allocator<char> > >, std::allocator<std::pair<const std::basic_string<char, std::char_traits<char>, std::allocator<char> >, std::basic_string<char, std::char_traits<char>, std::allocator<char> > > > >, std::less<std::basic_string<char, std::char_traits<char>, std::allocator<char> > >, std::allocator<std::pair<const std::basic_string<char, std::char_traits<char>, std::allocator<char> >, std::map<std::basic_string<char, std::char_traits<char>, std::allocator<char> >, std::basic_string<char, std::char_traits<char>, std::allocator<char> >, std::less<std::basic_string<char, std::char_traits<char>, std::allocator<char> > >, std::allocator<std::pair<const std::basic_string<char, std::char_traits<char>, std::allocator<char> >, std::basic_string<char, std::char_traits<char>, std::allocator<char> > > > > > > >::operator[]
FUNC 2ea1c 34 0 std::list<std::basic_string<char, std::char_traits<char>, std::allocator<char> >, std::allocator<std::basic_string<char, std::char_traits<char>, std::allocator<char> > > >::push_back
FUNC 2ea50 1a 0 std::_Rb_tree<std::basic_string<char, std::char_traits<char>, std::allocator<char> >, std::pair<const std::basic_string<char, std::char_traits<char>, std::allocator<char> >, IEC61850_STRUCT::IED_61850>, std::_Select1st<std::pair<const std::basic_string<char, std::char_traits<char>, std::allocator<char> >, IEC61850_STRUCT::IED_61850> >, std::less<std::basic_string<char, std::char_traits<char>, std::allocator<char> > >, std::allocator<std::pair<const std::basic_string<char, std::char_traits<char>, std::allocator<char> >, IEC61850_STRUCT::IED_61850> > >::_Rb_tree
FUNC 2ea6a 1a 0 std::allocator<std::_Rb_tree_node<std::pair<const std::basic_string<char, std::char_traits<char>, std::allocator<char> >, IEC61850_STRUCT::IED_61850> > >::~allocator
FUNC 2ea84 69 0 std::_Rb_tree<std::basic_string<char, std::char_traits<char>, std::allocator<char> >, std::pair<const std::basic_string<char, std::char_traits<char>, std::allocator<char> >, IEC61850_STRUCT::IED_61850>, std::_Select1st<std::pair<const std::basic_string<char, std::char_traits<char>, std::allocator<char> >, IEC61850_STRUCT::IED_61850> >, std::less<std::basic_string<char, std::char_traits<char>, std::allocator<char> > >, std::allocator<std::pair<const std::basic_string<char, std::char_traits<char>, std::allocator<char> >, IEC61850_STRUCT::IED_61850> > >::_M_erase
FUNC 2eaee 12 0 std::_Rb_tree<std::basic_string<char, std::char_traits<char>, std::allocator<char> >, std::pair<const std::basic_string<char, std::char_traits<char>, std::allocator<char> >, IEC61850_STRUCT::IED_61850>, std::_Select1st<std::pair<const std::basic_string<char, std::char_traits<char>, std::allocator<char> >, IEC61850_STRUCT::IED_61850> >, std::less<std::basic_string<char, std::char_traits<char>, std::allocator<char> > >, std::allocator<std::pair<const std::basic_string<char, std::char_traits<char>, std::allocator<char> >, IEC61850_STRUCT::IED_61850> > >::_M_begin
FUNC 2eb00 26 0 std::_List_base<std::basic_string<char, std::char_traits<char>, std::allocator<char> >, std::allocator<std::basic_string<char, std::char_traits<char>, std::allocator<char> > > >::_List_base
FUNC 2eb26 1a 0 std::allocator<std::_List_node<std::basic_string<char, std::char_traits<char>, std::allocator<char> > > >::~allocator
FUNC 2eb40 b8 0 std::_List_base<std::basic_string<char, std::char_traits<char>, std::allocator<char> >, std::allocator<std::basic_string<char, std::char_traits<char>, std::allocator<char> > > >::_M_clear
FUNC 2ebf8 1a 0 std::_Rb_tree<std::basic_string<char, std::char_traits<char>, std::allocator<char> >, std::pair<const std::basic_string<char, std::char_traits<char>, std::allocator<char> >, std::map<int, std::map<int, IEC104WF::stPointTable, std::less<int>, std::allocator<std::pair<const int, IEC104WF::stPointTable> > >, std::less<int>, std::allocator<std::pair<const int, std::map<int, IEC104WF::stPointTable, std::less<int>, std::allocator<std::pair<const int, IEC104WF::stPointTable> > > > > > >, std::_Select1st<std::pair<const std::basic_string<char, std::char_traits<char>, std::allocator<char> >, std::map<int, std::map<int, IEC104WF::stPointTable, std::less<int>, std::allocator<std::pair<const int, IEC104WF::stPointTable> > >, std::less<int>, std::allocator<std::pair<const int, std::map<int, IEC104WF::stPointTable, std::less<int>, std::allocator<std::pair<const int, IEC104WF::stPointTable> > > > > > > >, std::less<std::basic_string<char, std::char_traits<char>, std::allocator<char> > >, std::allocator<std::pair<const std::basic_string<char, std::char_traits<char>, std::allocator<char> >, std::map<int, std::map<int, IEC104WF::stPointTable, std::less<int>, std::allocator<std::pair<const int, IEC104WF::stPointTable> > >, std::less<int>, std::allocator<std::pair<const int, std::map<int, IEC104WF::stPointTable, std::less<int>, std::allocator<std::pair<const int, IEC104WF::stPointTable> > > > > > > > >::_Rb_tree
FUNC 2ec12 1a 0 std::allocator<std::_Rb_tree_node<std::pair<const std::basic_string<char, std::char_traits<char>, std::allocator<char> >, std::map<int, std::map<int, IEC104WF::stPointTable, std::less<int>, std::allocator<std::pair<const int, IEC104WF::stPointTable> > >, std::less<int>, std::allocator<std::pair<const int, std::map<int, IEC104WF::stPointTable, std::less<int>, std::allocator<std::pair<const int, IEC104WF::stPointTable> > > > > > > > >::~allocator
FUNC 2ec2c 69 0 std::_Rb_tree<std::basic_string<char, std::char_traits<char>, std::allocator<char> >, std::pair<const std::basic_string<char, std::char_traits<char>, std::allocator<char> >, std::map<int, std::map<int, IEC104WF::stPointTable, std::less<int>, std::allocator<std::pair<const int, IEC104WF::stPointTable> > >, std::less<int>, std::allocator<std::pair<const int, std::map<int, IEC104WF::stPointTable, std::less<int>, std::allocator<std::pair<const int, IEC104WF::stPointTable> > > > > > >, std::_Select1st<std::pair<const std::basic_string<char, std::char_traits<char>, std::allocator<char> >, std::map<int, std::map<int, IEC104WF::stPointTable, std::less<int>, std::allocator<std::pair<const int, IEC104WF::stPointTable> > >, std::less<int>, std::allocator<std::pair<const int, std::map<int, IEC104WF::stPointTable, std::less<int>, std::allocator<std::pair<const int, IEC104WF::stPointTable> > > > > > > >, std::less<std::basic_string<char, std::char_traits<char>, std::allocator<char> > >, std::allocator<std::pair<const std::basic_string<char, std::char_traits<char>, std::allocator<char> >, std::map<int, std::map<int, IEC104WF::stPointTable, std::less<int>, std::allocator<std::pair<const int, IEC104WF::stPointTable> > >, std::less<int>, std::allocator<std::pair<const int, std::map<int, IEC104WF::stPointTable, std::less<int>, std::allocator<std::pair<const int, IEC104WF::stPointTable> > > > > > > > >::_M_erase
FUNC 2ec96 12 0 std::_Rb_tree<std::basic_string<char, std::char_traits<char>, std::allocator<char> >, std::pair<const std::basic_string<char, std::char_traits<char>, std::allocator<char> >, std::map<int, std::map<int, IEC104WF::stPointTable, std::less<int>, std::allocator<std::pair<const int, IEC104WF::stPointTable> > >, std::less<int>, std::allocator<std::pair<const int, std::map<int, IEC104WF::stPointTable, std::less<int>, std::allocator<std::pair<const int, IEC104WF::stPointTable> > > > > > >, std::_Select1st<std::pair<const std::basic_string<char, std::char_traits<char>, std::allocator<char> >, std::map<int, std::map<int, IEC104WF::stPointTable, std::less<int>, std::allocator<std::pair<const int, IEC104WF::stPointTable> > >, std::less<int>, std::allocator<std::pair<const int, std::map<int, IEC104WF::stPointTable, std::less<int>, std::allocator<std::pair<const int, IEC104WF::stPointTable> > > > > > > >, std::less<std::basic_string<char, std::char_traits<char>, std::allocator<char> > >, std::allocator<std::pair<const std::basic_string<char, std::char_traits<char>, std::allocator<char> >, std::map<int, std::map<int, IEC104WF::stPointTable, std::less<int>, std::allocator<std::pair<const int, IEC104WF::stPointTable> > >, std::less<int>, std::allocator<std::pair<const int, std::map<int, IEC104WF::stPointTable, std::less<int>, std::allocator<std::pair<const int, IEC104WF::stPointTable> > > > > > > > >::_M_begin
FUNC 2eca8 1a 0 std::_Rb_tree<int, std::pair<const int, std::map<int, IEC104WF::stPointTable, std::less<int>, std::allocator<std::pair<const int, IEC104WF::stPointTable> > > >, std::_Select1st<std::pair<const int, std::map<int, IEC104WF::stPointTable, std::less<int>, std::allocator<std::pair<const int, IEC104WF::stPointTable> > > > >, std::less<int>, std::allocator<std::pair<const int, std::map<int, IEC104WF::stPointTable, std::less<int>, std::allocator<std::pair<const int, IEC104WF::stPointTable> > > > > >::_Rb_tree
FUNC 2ecc2 1a 0 std::allocator<std::_Rb_tree_node<std::pair<const int, std::map<int, IEC104WF::stPointTable, std::less<int>, std::allocator<std::pair<const int, IEC104WF::stPointTable> > > > > >::~allocator
FUNC 2ecdc 69 0 std::_Rb_tree<int, std::pair<const int, std::map<int, IEC104WF::stPointTable, std::less<int>, std::allocator<std::pair<const int, IEC104WF::stPointTable> > > >, std::_Select1st<std::pair<const int, std::map<int, IEC104WF::stPointTable, std::less<int>, std::allocator<std::pair<const int, IEC104WF::stPointTable> > > > >, std::less<int>, std::allocator<std::pair<const int, std::map<int, IEC104WF::stPointTable, std::less<int>, std::allocator<std::pair<const int, IEC104WF::stPointTable> > > > > >::_M_erase
FUNC 2ed46 12 0 std::_Rb_tree<int, std::pair<const int, std::map<int, IEC104WF::stPointTable, std::less<int>, std::allocator<std::pair<const int, IEC104WF::stPointTable> > > >, std::_Select1st<std::pair<const int, std::map<int, IEC104WF::stPointTable, std::less<int>, std::allocator<std::pair<const int, IEC104WF::stPointTable> > > > >, std::less<int>, std::allocator<std::pair<const int, std::map<int, IEC104WF::stPointTable, std::less<int>, std::allocator<std::pair<const int, IEC104WF::stPointTable> > > > > >::_M_begin
FUNC 2ed58 1a 0 std::_Rb_tree<int, std::pair<const int, IEC104WF::stPointTable>, std::_Select1st<std::pair<const int, IEC104WF::stPointTable> >, std::less<int>, std::allocator<std::pair<const int, IEC104WF::stPointTable> > >::_Rb_tree
FUNC 2ed72 1a 0 std::allocator<std::_Rb_tree_node<std::pair<const int, IEC104WF::stPointTable> > >::~allocator
FUNC 2ed8c 69 0 std::_Rb_tree<int, std::pair<const int, IEC104WF::stPointTable>, std::_Select1st<std::pair<const int, IEC104WF::stPointTable> >, std::less<int>, std::allocator<std::pair<const int, IEC104WF::stPointTable> > >::_M_erase
FUNC 2edf6 12 0 std::_Rb_tree<int, std::pair<const int, IEC104WF::stPointTable>, std::_Select1st<std::pair<const int, IEC104WF::stPointTable> >, std::less<int>, std::allocator<std::pair<const int, IEC104WF::stPointTable> > >::_M_begin
FUNC 2ee08 1a 0 std::_Rb_tree<std::basic_string<char, std::char_traits<char>, std::allocator<char> >, std::pair<const std::basic_string<char, std::char_traits<char>, std::allocator<char> >, IEC103::stConfigParam>, std::_Select1st<std::pair<const std::basic_string<char, std::char_traits<char>, std::allocator<char> >, IEC103::stConfigParam> >, std::less<std::basic_string<char, std::char_traits<char>, std::allocator<char> > >, std::allocator<std::pair<const std::basic_string<char, std::char_traits<char>, std::allocator<char> >, IEC103::stConfigParam> > >::_Rb_tree
FUNC 2ee22 1a 0 std::_Rb_tree<std::basic_string<char, std::char_traits<char>, std::allocator<char> >, std::pair<const std::basic_string<char, std::char_traits<char>, std::allocator<char> >, std::map<std::basic_string<char, std::char_traits<char>, std::allocator<char> >, std::basic_string<char, std::char_traits<char>, std::allocator<char> >, std::less<std::basic_string<char, std::char_traits<char>, std::allocator<char> > >, std::allocator<std::pair<const std::basic_string<char, std::char_traits<char>, std::allocator<char> >, std::basic_string<char, std::char_traits<char>, std::allocator<char> > > > > >, std::_Select1st<std::pair<const std::basic_string<char, std::char_traits<char>, std::allocator<char> >, std::map<std::basic_string<char, std::char_traits<char>, std::allocator<char> >, std::basic_string<char, std::char_traits<char>, std::allocator<char> >, std::less<std::basic_string<char, std::char_traits<char>, std::allocator<char> > >, std::allocator<std::pair<const std::basic_string<char, std::char_traits<char>, std::allocator<char> >, std::basic_string<char, std::char_traits<char>, std::allocator<char> > > > > > >, std::less<std::basic_string<char, std::char_traits<char>, std::allocator<char> > >, std::allocator<std::pair<const std::basic_string<char, std::char_traits<char>, std::allocator<char> >, std::map<std::basic_string<char, std::char_traits<char>, std::allocator<char> >, std::basic_string<char, std::char_traits<char>, std::allocator<char> >, std::less<std::basic_string<char, std::char_traits<char>, std::allocator<char> > >, std::allocator<std::pair<const std::basic_string<char, std::char_traits<char>, std::allocator<char> >, std::basic_string<char, std::char_traits<char>, std::allocator<char> > > > > > > >::_Rb_tree
FUNC 2ee3c 96 0 std::_Vector_base<std::basic_string<char, std::char_traits<char>, std::allocator<char> >, std::allocator<std::basic_string<char, std::char_traits<char>, std::allocator<char> > > >::_Vector_base
FUNC 2eed2 8d 0 std::_Rb_tree<std::basic_string<char, std::char_traits<char>, std::allocator<char> >, std::pair<const std::basic_string<char, std::char_traits<char>, std::allocator<char> >, IEC61850_STRUCT::IED_61850>, std::_Select1st<std::pair<const std::basic_string<char, std::char_traits<char>, std::allocator<char> >, IEC61850_STRUCT::IED_61850> >, std::less<std::basic_string<char, std::char_traits<char>, std::allocator<char> > >, std::allocator<std::pair<const std::basic_string<char, std::char_traits<char>, std::allocator<char> >, IEC61850_STRUCT::IED_61850> > >::clear
FUNC 2ef60 11d 0 std::_Rb_tree<std::basic_string<char, std::char_traits<char>, std::allocator<char> >, std::pair<const std::basic_string<char, std::char_traits<char>, std::allocator<char> >, IEC61850_STRUCT::IED_61850>, std::_Select1st<std::pair<const std::basic_string<char, std::char_traits<char>, std::allocator<char> >, IEC61850_STRUCT::IED_61850> >, std::less<std::basic_string<char, std::char_traits<char>, std::allocator<char> > >, std::allocator<std::pair<const std::basic_string<char, std::char_traits<char>, std::allocator<char> >, IEC61850_STRUCT::IED_61850> > >::_Rb_tree
FUNC 2f07e 8d 0 std::_Rb_tree<std::basic_string<char, std::char_traits<char>, std::allocator<char> >, std::pair<const std::basic_string<char, std::char_traits<char>, std::allocator<char> >, IEC103::stConfigParam>, std::_Select1st<std::pair<const std::basic_string<char, std::char_traits<char>, std::allocator<char> >, IEC103::stConfigParam> >, std::less<std::basic_string<char, std::char_traits<char>, std::allocator<char> > >, std::allocator<std::pair<const std::basic_string<char, std::char_traits<char>, std::allocator<char> >, IEC103::stConfigParam> > >::clear
FUNC 2f10c 8d 0 std::_Rb_tree<std::basic_string<char, std::char_traits<char>, std::allocator<char> >, std::pair<const std::basic_string<char, std::char_traits<char>, std::allocator<char> >, std::map<std::basic_string<char, std::char_traits<char>, std::allocator<char> >, std::basic_string<char, std::char_traits<char>, std::allocator<char> >, std::less<std::basic_string<char, std::char_traits<char>, std::allocator<char> > >, std::allocator<std::pair<const std::basic_string<char, std::char_traits<char>, std::allocator<char> >, std::basic_string<char, std::char_traits<char>, std::allocator<char> > > > > >, std::_Select1st<std::pair<const std::basic_string<char, std::char_traits<char>, std::allocator<char> >, std::map<std::basic_string<char, std::char_traits<char>, std::allocator<char> >, std::basic_string<char, std::char_traits<char>, std::allocator<char> >, std::less<std::basic_string<char, std::char_traits<char>, std::allocator<char> > >, std::allocator<std::pair<const std::basic_string<char, std::char_traits<char>, std::allocator<char> >, std::basic_string<char, std::char_traits<char>, std::allocator<char> > > > > > >, std::less<std::basic_string<char, std::char_traits<char>, std::allocator<char> > >, std::allocator<std::pair<const std::basic_string<char, std::char_traits<char>, std::allocator<char> >, std::map<std::basic_string<char, std::char_traits<char>, std::allocator<char> >, std::basic_string<char, std::char_traits<char>, std::allocator<char> >, std::less<std::basic_string<char, std::char_traits<char>, std::allocator<char> > >, std::allocator<std::pair<const std::basic_string<char, std::char_traits<char>, std::allocator<char> >, std::basic_string<char, std::char_traits<char>, std::allocator<char> > > > > > > >::clear
FUNC 2f19a 11d 0 std::_Rb_tree<std::basic_string<char, std::char_traits<char>, std::allocator<char> >, std::pair<const std::basic_string<char, std::char_traits<char>, std::allocator<char> >, IEC103::stConfigParam>, std::_Select1st<std::pair<const std::basic_string<char, std::char_traits<char>, std::allocator<char> >, IEC103::stConfigParam> >, std::less<std::basic_string<char, std::char_traits<char>, std::allocator<char> > >, std::allocator<std::pair<const std::basic_string<char, std::char_traits<char>, std::allocator<char> >, IEC103::stConfigParam> > >::_Rb_tree
FUNC 2f2b8 11d 0 std::_Rb_tree<std::basic_string<char, std::char_traits<char>, std::allocator<char> >, std::pair<const std::basic_string<char, std::char_traits<char>, std::allocator<char> >, std::map<std::basic_string<char, std::char_traits<char>, std::allocator<char> >, std::basic_string<char, std::char_traits<char>, std::allocator<char> >, std::less<std::basic_string<char, std::char_traits<char>, std::allocator<char> > >, std::allocator<std::pair<const std::basic_string<char, std::char_traits<char>, std::allocator<char> >, std::basic_string<char, std::char_traits<char>, std::allocator<char> > > > > >, std::_Select1st<std::pair<const std::basic_string<char, std::char_traits<char>, std::allocator<char> >, std::map<std::basic_string<char, std::char_traits<char>, std::allocator<char> >, std::basic_string<char, std::char_traits<char>, std::allocator<char> >, std::less<std::basic_string<char, std::char_traits<char>, std::allocator<char> > >, std::allocator<std::pair<const std::basic_string<char, std::char_traits<char>, std::allocator<char> >, std::basic_string<char, std::char_traits<char>, std::allocator<char> > > > > > >, std::less<std::basic_string<char, std::char_traits<char>, std::allocator<char> > >, std::allocator<std::pair<const std::basic_string<char, std::char_traits<char>, std::allocator<char> >, std::map<std::basic_string<char, std::char_traits<char>, std::allocator<char> >, std::basic_string<char, std::char_traits<char>, std::allocator<char> >, std::less<std::basic_string<char, std::char_traits<char>, std::allocator<char> > >, std::allocator<std::pair<const std::basic_string<char, std::char_traits<char>, std::allocator<char> >, std::basic_string<char, std::char_traits<char>, std::allocator<char> > > > > > > >::_Rb_tree
FUNC 2f3d6 8d 0 std::_Rb_tree<std::basic_string<char, std::char_traits<char>, std::allocator<char> >, std::pair<const std::basic_string<char, std::char_traits<char>, std::allocator<char> >, std::map<int, std::map<int, IEC104WF::stPointTable, std::less<int>, std::allocator<std::pair<const int, IEC104WF::stPointTable> > >, std::less<int>, std::allocator<std::pair<const int, std::map<int, IEC104WF::stPointTable, std::less<int>, std::allocator<std::pair<const int, IEC104WF::stPointTable> > > > > > >, std::_Select1st<std::pair<const std::basic_string<char, std::char_traits<char>, std::allocator<char> >, std::map<int, std::map<int, IEC104WF::stPointTable, std::less<int>, std::allocator<std::pair<const int, IEC104WF::stPointTable> > >, std::less<int>, std::allocator<std::pair<const int, std::map<int, IEC104WF::stPointTable, std::less<int>, std::allocator<std::pair<const int, IEC104WF::stPointTable> > > > > > > >, std::less<std::basic_string<char, std::char_traits<char>, std::allocator<char> > >, std::allocator<std::pair<const std::basic_string<char, std::char_traits<char>, std::allocator<char> >, std::map<int, std::map<int, IEC104WF::stPointTable, std::less<int>, std::allocator<std::pair<const int, IEC104WF::stPointTable> > >, std::less<int>, std::allocator<std::pair<const int, std::map<int, IEC104WF::stPointTable, std::less<int>, std::allocator<std::pair<const int, IEC104WF::stPointTable> > > > > > > > >::clear
FUNC 2f464 8d 0 std::_Rb_tree<int, std::pair<const int, std::map<int, IEC104WF::stPointTable, std::less<int>, std::allocator<std::pair<const int, IEC104WF::stPointTable> > > >, std::_Select1st<std::pair<const int, std::map<int, IEC104WF::stPointTable, std::less<int>, std::allocator<std::pair<const int, IEC104WF::stPointTable> > > > >, std::less<int>, std::allocator<std::pair<const int, std::map<int, IEC104WF::stPointTable, std::less<int>, std::allocator<std::pair<const int, IEC104WF::stPointTable> > > > > >::clear
FUNC 2f4f2 8d 0 std::_Rb_tree<int, std::pair<const int, IEC104WF::stPointTable>, std::_Select1st<std::pair<const int, IEC104WF::stPointTable> >, std::less<int>, std::allocator<std::pair<const int, IEC104WF::stPointTable> > >::clear
FUNC 2f580 11d 0 std::_Rb_tree<std::basic_string<char, std::char_traits<char>, std::allocator<char> >, std::pair<const std::basic_string<char, std::char_traits<char>, std::allocator<char> >, std::map<int, std::map<int, IEC104WF::stPointTable, std::less<int>, std::allocator<std::pair<const int, IEC104WF::stPointTable> > >, std::less<int>, std::allocator<std::pair<const int, std::map<int, IEC104WF::stPointTable, std::less<int>, std::allocator<std::pair<const int, IEC104WF::stPointTable> > > > > > >, std::_Select1st<std::pair<const std::basic_string<char, std::char_traits<char>, std::allocator<char> >, std::map<int, std::map<int, IEC104WF::stPointTable, std::less<int>, std::allocator<std::pair<const int, IEC104WF::stPointTable> > >, std::less<int>, std::allocator<std::pair<const int, std::map<int, IEC104WF::stPointTable, std::less<int>, std::allocator<std::pair<const int, IEC104WF::stPointTable> > > > > > > >, std::less<std::basic_string<char, std::char_traits<char>, std::allocator<char> > >, std::allocator<std::pair<const std::basic_string<char, std::char_traits<char>, std::allocator<char> >, std::map<int, std::map<int, IEC104WF::stPointTable, std::less<int>, std::allocator<std::pair<const int, IEC104WF::stPointTable> > >, std::less<int>, std::allocator<std::pair<const int, std::map<int, IEC104WF::stPointTable, std::less<int>, std::allocator<std::pair<const int, IEC104WF::stPointTable> > > > > > > > >::_Rb_tree
FUNC 2f69e 21 0 std::_List_base<std::basic_string<char, std::char_traits<char>, std::allocator<char> >, std::allocator<std::basic_string<char, std::char_traits<char>, std::allocator<char> > > >::_M_init
FUNC 2f6c0 e 0 std::_List_base<std::basic_string<char, std::char_traits<char>, std::allocator<char> >, std::allocator<std::basic_string<char, std::char_traits<char>, std::allocator<char> > > >::_M_get_Node_allocator
FUNC 2f6ce 1e 0 std::allocator<std::basic_string<char, std::char_traits<char>, std::allocator<char> > >::allocator<std::_List_node<std::basic_string<char, std::char_traits<char>, std::allocator<char> > > >
FUNC 2f6ec 50 0 std::_List_base<std::basic_string<char, std::char_traits<char>, std::allocator<char> >, std::allocator<std::basic_string<char, std::char_traits<char>, std::allocator<char> > > >::_List_base
FUNC 2f73c 28 0 std::list<std::basic_string<char, std::char_traits<char>, std::allocator<char> >, std::allocator<std::basic_string<char, std::char_traits<char>, std::allocator<char> > > >::begin
FUNC 2f764 25 0 std::list<std::basic_string<char, std::char_traits<char>, std::allocator<char> >, std::allocator<std::basic_string<char, std::char_traits<char>, std::allocator<char> > > >::end
FUNC 2f78a 59 0 std::list<std::basic_string<char, std::char_traits<char>, std::allocator<char> >, std::allocator<std::basic_string<char, std::char_traits<char>, std::allocator<char> > > >::_M_initialize_dispatch<std::_List_const_iterator<std::basic_string<char, std::char_traits<char>, std::allocator<char> > > >
FUNC 2f7e4 25 0 std::map<std::basic_string<char, std::char_traits<char>, std::allocator<char> >, IEC61850_STRUCT::IED_61850, std::less<std::basic_string<char, std::char_traits<char>, std::allocator<char> > >, std::allocator<std::pair<const std::basic_string<char, std::char_traits<char>, std::allocator<char> >, IEC61850_STRUCT::IED_61850> > >::lower_bound
FUNC 2f80a 1a 0 std::map<std::basic_string<char, std::char_traits<char>, std::allocator<char> >, IEC61850_STRUCT::IED_61850, std::less<std::basic_string<char, std::char_traits<char>, std::allocator<char> > >, std::allocator<std::pair<const std::basic_string<char, std::char_traits<char>, std::allocator<char> >, IEC61850_STRUCT::IED_61850> > >::key_comp
FUNC 2f824 15 0 std::_Rb_tree_iterator<std::pair<const std::basic_string<char, std::char_traits<char>, std::allocator<char> >, IEC61850_STRUCT::IED_61850> >::operator*
FUNC 2f83a 1a 0 std::map<std::basic_string<char, std::char_traits<char>, std::allocator<char> >, IEC61850_STRUCT::IED_61850, std::less<std::basic_string<char, std::char_traits<char>, std::allocator<char> > >, std::allocator<std::pair<const std::basic_string<char, std::char_traits<char>, std::allocator<char> >, IEC61850_STRUCT::IED_61850> > >::end
FUNC 2f854 22 0 std::_Rb_tree_iterator<std::pair<const std::basic_string<char, std::char_traits<char>, std::allocator<char> >, IEC61850_STRUCT::IED_61850> >::operator==
FUNC 2f876 1dc 0 IEC61850_STRUCT::IED_61850::IED_61850
FUNC 2fa52 6b 0 std::pair<const std::basic_string<char, std::char_traits<char>, std::allocator<char> >, IEC61850_STRUCT::IED_61850>::pair
FUNC 2fabe 40 0 std::map<std::basic_string<char, std::char_traits<char>, std::allocator<char> >, IEC61850_STRUCT::IED_61850, std::less<std::basic_string<char, std::char_traits<char>, std::allocator<char> > >, std::allocator<std::pair<const std::basic_string<char, std::char_traits<char>, std::allocator<char> >, IEC61850_STRUCT::IED_61850> > >::insert
FUNC 2fafe f8 0 std::_Rb_tree<std::basic_string<char, std::char_traits<char>, std::allocator<char> >, std::pair<const std::basic_string<char, std::char_traits<char>, std::allocator<char> >, std::basic_string<char, std::char_traits<char>, std::allocator<char> > >, std::_Select1st<std::pair<const std::basic_string<char, std::char_traits<char>, std::allocator<char> >, std::basic_string<char, std::char_traits<char>, std::allocator<char> > > >, std::less<std::basic_string<char, std::char_traits<char>, std::allocator<char> > >, std::allocator<std::pair<const std::basic_string<char, std::char_traits<char>, std::allocator<char> >, std::basic_string<char, std::char_traits<char>, std::allocator<char> > > > >::operator=
FUNC 2fbf6 25 0 std::map<int, IEC104WF::stPointTable, std::less<int>, std::allocator<std::pair<const int, IEC104WF::stPointTable> > >::lower_bound
FUNC 2fc1c 1a 0 std::map<int, IEC104WF::stPointTable, std::less<int>, std::allocator<std::pair<const int, IEC104WF::stPointTable> > >::key_comp
FUNC 2fc36 15 0 std::_Rb_tree_iterator<std::pair<const int, IEC104WF::stPointTable> >::operator*
FUNC 2fc4c 23 0 std::less<int>::operator()
FUNC 2fc70 1a 0 std::map<int, IEC104WF::stPointTable, std::less<int>, std::allocator<std::pair<const int, IEC104WF::stPointTable> > >::end
FUNC 2fc8a 22 0 std::_Rb_tree_iterator<std::pair<const int, IEC104WF::stPointTable> >::operator==
FUNC 2fcac 41 0 IEC104WF::stPointTable::stPointTable
FUNC 2fcee 39 0 std::pair<const int, IEC104WF::stPointTable>::pair
FUNC 2fd28 40 0 std::map<int, IEC104WF::stPointTable, std::less<int>, std::allocator<std::pair<const int, IEC104WF::stPointTable> > >::insert
FUNC 2fd68 25 0 std::map<int, std::map<int, IEC104WF::stPointTable, std::less<int>, std::allocator<std::pair<const int, IEC104WF::stPointTable> > >, std::less<int>, std::allocator<std::pair<const int, std::map<int, IEC104WF::stPointTable, std::less<int>, std::allocator<std::pair<const int, IEC104WF::stPointTable> > > > > >::lower_bound
FUNC 2fd8e 1a 0 std::map<int, std::map<int, IEC104WF::stPointTable, std::less<int>, std::allocator<std::pair<const int, IEC104WF::stPointTable> > >, std::less<int>, std::allocator<std::pair<const int, std::map<int, IEC104WF::stPointTable, std::less<int>, std::allocator<std::pair<const int, IEC104WF::stPointTable> > > > > >::key_comp
FUNC 2fda8 15 0 std::_Rb_tree_iterator<std::pair<const int, std::map<int, IEC104WF::stPointTable, std::less<int>, std::allocator<std::pair<const int, IEC104WF::stPointTable> > > > >::operator*
FUNC 2fdbe 1a 0 std::map<int, std::map<int, IEC104WF::stPointTable, std::less<int>, std::allocator<std::pair<const int, IEC104WF::stPointTable> > >, std::less<int>, std::allocator<std::pair<const int, std::map<int, IEC104WF::stPointTable, std::less<int>, std::allocator<std::pair<const int, IEC104WF::stPointTable> > > > > >::end
FUNC 2fdd8 22 0 std::_Rb_tree_iterator<std::pair<const int, std::map<int, IEC104WF::stPointTable, std::less<int>, std::allocator<std::pair<const int, IEC104WF::stPointTable> > > > >::operator==
FUNC 2fdfa 39 0 std::pair<const int, std::map<int, IEC104WF::stPointTable, std::less<int>, std::allocator<std::pair<const int, IEC104WF::stPointTable> > > >::pair
FUNC 2fe34 40 0 std::map<int, std::map<int, IEC104WF::stPointTable, std::less<int>, std::allocator<std::pair<const int, IEC104WF::stPointTable> > >, std::less<int>, std::allocator<std::pair<const int, std::map<int, IEC104WF::stPointTable, std::less<int>, std::allocator<std::pair<const int, IEC104WF::stPointTable> > > > > >::insert
FUNC 2fe74 f8 0 std::_Rb_tree<int, std::pair<const int, IEC104WF::stPointTable>, std::_Select1st<std::pair<const int, IEC104WF::stPointTable> >, std::less<int>, std::allocator<std::pair<const int, IEC104WF::stPointTable> > >::operator=
FUNC 2ff6c 25 0 std::map<std::basic_string<char, std::char_traits<char>, std::allocator<char> >, std::map<int, std::map<int, IEC104WF::stPointTable, std::less<int>, std::allocator<std::pair<const int, IEC104WF::stPointTable> > >, std::less<int>, std::allocator<std::pair<const int, std::map<int, IEC104WF::stPointTable, std::less<int>, std::allocator<std::pair<const int, IEC104WF::stPointTable> > > > > >, std::less<std::basic_string<char, std::char_traits<char>, std::allocator<char> > >, std::allocator<std::pair<const std::basic_string<char, std::char_traits<char>, std::allocator<char> >, std::map<int, std::map<int, IEC104WF::stPointTable, std::less<int>, std::allocator<std::pair<const int, IEC104WF::stPointTable> > >, std::less<int>, std::allocator<std::pair<const int, std::map<int, IEC104WF::stPointTable, std::less<int>, std::allocator<std::pair<const int, IEC104WF::stPointTable> > > > > > > > >::lower_bound
FUNC 2ff92 1a 0 std::map<std::basic_string<char, std::char_traits<char>, std::allocator<char> >, std::map<int, std::map<int, IEC104WF::stPointTable, std::less<int>, std::allocator<std::pair<const int, IEC104WF::stPointTable> > >, std::less<int>, std::allocator<std::pair<const int, std::map<int, IEC104WF::stPointTable, std::less<int>, std::allocator<std::pair<const int, IEC104WF::stPointTable> > > > > >, std::less<std::basic_string<char, std::char_traits<char>, std::allocator<char> > >, std::allocator<std::pair<const std::basic_string<char, std::char_traits<char>, std::allocator<char> >, std::map<int, std::map<int, IEC104WF::stPointTable, std::less<int>, std::allocator<std::pair<const int, IEC104WF::stPointTable> > >, std::less<int>, std::allocator<std::pair<const int, std::map<int, IEC104WF::stPointTable, std::less<int>, std::allocator<std::pair<const int, IEC104WF::stPointTable> > > > > > > > >::key_comp
FUNC 2ffac 15 0 std::_Rb_tree_iterator<std::pair<const std::basic_string<char, std::char_traits<char>, std::allocator<char> >, std::map<int, std::map<int, IEC104WF::stPointTable, std::less<int>, std::allocator<std::pair<const int, IEC104WF::stPointTable> > >, std::less<int>, std::allocator<std::pair<const int, std::map<int, IEC104WF::stPointTable, std::less<int>, std::allocator<std::pair<const int, IEC104WF::stPointTable> > > > > > > >::operator*
FUNC 2ffc2 1a 0 std::map<std::basic_string<char, std::char_traits<char>, std::allocator<char> >, std::map<int, std::map<int, IEC104WF::stPointTable, std::less<int>, std::allocator<std::pair<const int, IEC104WF::stPointTable> > >, std::less<int>, std::allocator<std::pair<const int, std::map<int, IEC104WF::stPointTable, std::less<int>, std::allocator<std::pair<const int, IEC104WF::stPointTable> > > > > >, std::less<std::basic_string<char, std::char_traits<char>, std::allocator<char> > >, std::allocator<std::pair<const std::basic_string<char, std::char_traits<char>, std::allocator<char> >, std::map<int, std::map<int, IEC104WF::stPointTable, std::less<int>, std::allocator<std::pair<const int, IEC104WF::stPointTable> > >, std::less<int>, std::allocator<std::pair<const int, std::map<int, IEC104WF::stPointTable, std::less<int>, std::allocator<std::pair<const int, IEC104WF::stPointTable> > > > > > > > >::end
FUNC 2ffdc 22 0 std::_Rb_tree_iterator<std::pair<const std::basic_string<char, std::char_traits<char>, std::allocator<char> >, std::map<int, std::map<int, IEC104WF::stPointTable, std::less<int>, std::allocator<std::pair<const int, IEC104WF::stPointTable> > >, std::less<int>, std::allocator<std::pair<const int, std::map<int, IEC104WF::stPointTable, std::less<int>, std::allocator<std::pair<const int, IEC104WF::stPointTable> > > > > > > >::operator==
FUNC 2fffe 6b 0 std::pair<const std::basic_string<char, std::char_traits<char>, std::allocator<char> >, std::map<int, std::map<int, IEC104WF::stPointTable, std::less<int>, std::allocator<std::pair<const int, IEC104WF::stPointTable> > >, std::less<int>, std::allocator<std::pair<const int, std::map<int, IEC104WF::stPointTable, std::less<int>, std::allocator<std::pair<const int, IEC104WF::stPointTable> > > > > > >::pair
FUNC 3006a 40 0 std::map<std::basic_string<char, std::char_traits<char>, std::allocator<char> >, std::map<int, std::map<int, IEC104WF::stPointTable, std::less<int>, std::allocator<std::pair<const int, IEC104WF::stPointTable> > >, std::less<int>, std::allocator<std::pair<const int, std::map<int, IEC104WF::stPointTable, std::less<int>, std::allocator<std::pair<const int, IEC104WF::stPointTable> > > > > >, std::less<std::basic_string<char, std::char_traits<char>, std::allocator<char> > >, std::allocator<std::pair<const std::basic_string<char, std::char_traits<char>, std::allocator<char> >, std::map<int, std::map<int, IEC104WF::stPointTable, std::less<int>, std::allocator<std::pair<const int, IEC104WF::stPointTable> > >, std::less<int>, std::allocator<std::pair<const int, std::map<int, IEC104WF::stPointTable, std::less<int>, std::allocator<std::pair<const int, IEC104WF::stPointTable> > > > > > > > >::insert
FUNC 300aa f8 0 std::_Rb_tree<int, std::pair<const int, std::map<int, IEC104WF::stPointTable, std::less<int>, std::allocator<std::pair<const int, IEC104WF::stPointTable> > > >, std::_Select1st<std::pair<const int, std::map<int, IEC104WF::stPointTable, std::less<int>, std::allocator<std::pair<const int, IEC104WF::stPointTable> > > > >, std::less<int>, std::allocator<std::pair<const int, std::map<int, IEC104WF::stPointTable, std::less<int>, std::allocator<std::pair<const int, IEC104WF::stPointTable> > > > > >::operator=
FUNC 301a2 25 0 std::map<std::basic_string<char, std::char_traits<char>, std::allocator<char> >, IEC103::stConfigParam, std::less<std::basic_string<char, std::char_traits<char>, std::allocator<char> > >, std::allocator<std::pair<const std::basic_string<char, std::char_traits<char>, std::allocator<char> >, IEC103::stConfigParam> > >::lower_bound
FUNC 301c8 1a 0 std::map<std::basic_string<char, std::char_traits<char>, std::allocator<char> >, IEC103::stConfigParam, std::less<std::basic_string<char, std::char_traits<char>, std::allocator<char> > >, std::allocator<std::pair<const std::basic_string<char, std::char_traits<char>, std::allocator<char> >, IEC103::stConfigParam> > >::key_comp
FUNC 301e2 15 0 std::_Rb_tree_iterator<std::pair<const std::basic_string<char, std::char_traits<char>, std::allocator<char> >, IEC103::stConfigParam> >::operator*
FUNC 301f8 1a 0 std::map<std::basic_string<char, std::char_traits<char>, std::allocator<char> >, IEC103::stConfigParam, std::less<std::basic_string<char, std::char_traits<char>, std::allocator<char> > >, std::allocator<std::pair<const std::basic_string<char, std::char_traits<char>, std::allocator<char> >, IEC103::stConfigParam> > >::end
FUNC 30212 22 0 std::_Rb_tree_iterator<std::pair<const std::basic_string<char, std::char_traits<char>, std::allocator<char> >, IEC103::stConfigParam> >::operator==
FUNC 30234 bf 0 IEC103::stConfigParam::stConfigParam
FUNC 302f4 6b 0 std::pair<const std::basic_string<char, std::char_traits<char>, std::allocator<char> >, IEC103::stConfigParam>::pair
FUNC 30360 40 0 std::map<std::basic_string<char, std::char_traits<char>, std::allocator<char> >, IEC103::stConfigParam, std::less<std::basic_string<char, std::char_traits<char>, std::allocator<char> > >, std::allocator<std::pair<const std::basic_string<char, std::char_traits<char>, std::allocator<char> >, IEC103::stConfigParam> > >::insert
FUNC 303a0 25 0 std::map<std::basic_string<char, std::char_traits<char>, std::allocator<char> >, std::map<std::basic_string<char, std::char_traits<char>, std::allocator<char> >, std::basic_string<char, std::char_traits<char>, std::allocator<char> >, std::less<std::basic_string<char, std::char_traits<char>, std::allocator<char> > >, std::allocator<std::pair<const std::basic_string<char, std::char_traits<char>, std::allocator<char> >, std::basic_string<char, std::char_traits<char>, std::allocator<char> > > > >, std::less<std::basic_string<char, std::char_traits<char>, std::allocator<char> > >, std::allocator<std::pair<const std::basic_string<char, std::char_traits<char>, std::allocator<char> >, std::map<std::basic_string<char, std::char_traits<char>, std::allocator<char> >, std::basic_string<char, std::char_traits<char>, std::allocator<char> >, std::less<std::basic_string<char, std::char_traits<char>, std::allocator<char> > >, std::allocator<std::pair<const std::basic_string<char, std::char_traits<char>, std::allocator<char> >, std::basic_string<char, std::char_traits<char>, std::allocator<char> > > > > > > >::lower_bound
FUNC 303c6 1a 0 std::map<std::basic_string<char, std::char_traits<char>, std::allocator<char> >, std::map<std::basic_string<char, std::char_traits<char>, std::allocator<char> >, std::basic_string<char, std::char_traits<char>, std::allocator<char> >, std::less<std::basic_string<char, std::char_traits<char>, std::allocator<char> > >, std::allocator<std::pair<const std::basic_string<char, std::char_traits<char>, std::allocator<char> >, std::basic_string<char, std::char_traits<char>, std::allocator<char> > > > >, std::less<std::basic_string<char, std::char_traits<char>, std::allocator<char> > >, std::allocator<std::pair<const std::basic_string<char, std::char_traits<char>, std::allocator<char> >, std::map<std::basic_string<char, std::char_traits<char>, std::allocator<char> >, std::basic_string<char, std::char_traits<char>, std::allocator<char> >, std::less<std::basic_string<char, std::char_traits<char>, std::allocator<char> > >, std::allocator<std::pair<const std::basic_string<char, std::char_traits<char>, std::allocator<char> >, std::basic_string<char, std::char_traits<char>, std::allocator<char> > > > > > > >::key_comp
FUNC 303e0 15 0 std::_Rb_tree_iterator<std::pair<const std::basic_string<char, std::char_traits<char>, std::allocator<char> >, std::map<std::basic_string<char, std::char_traits<char>, std::allocator<char> >, std::basic_string<char, std::char_traits<char>, std::allocator<char> >, std::less<std::basic_string<char, std::char_traits<char>, std::allocator<char> > >, std::allocator<std::pair<const std::basic_string<char, std::char_traits<char>, std::allocator<char> >, std::basic_string<char, std::char_traits<char>, std::allocator<char> > > > > > >::operator*
FUNC 303f6 22 0 std::_Rb_tree_iterator<std::pair<const std::basic_string<char, std::char_traits<char>, std::allocator<char> >, std::map<std::basic_string<char, std::char_traits<char>, std::allocator<char> >, std::basic_string<char, std::char_traits<char>, std::allocator<char> >, std::less<std::basic_string<char, std::char_traits<char>, std::allocator<char> > >, std::allocator<std::pair<const std::basic_string<char, std::char_traits<char>, std::allocator<char> >, std::basic_string<char, std::char_traits<char>, std::allocator<char> > > > > > >::operator==
FUNC 30418 6b 0 std::pair<const std::basic_string<char, std::char_traits<char>, std::allocator<char> >, std::map<std::basic_string<char, std::char_traits<char>, std::allocator<char> >, std::basic_string<char, std::char_traits<char>, std::allocator<char> >, std::less<std::basic_string<char, std::char_traits<char>, std::allocator<char> > >, std::allocator<std::pair<const std::basic_string<char, std::char_traits<char>, std::allocator<char> >, std::basic_string<char, std::char_traits<char>, std::allocator<char> > > > > >::pair
FUNC 30484 40 0 std::map<std::basic_string<char, std::char_traits<char>, std::allocator<char> >, std::map<std::basic_string<char, std::char_traits<char>, std::allocator<char> >, std::basic_string<char, std::char_traits<char>, std::allocator<char> >, std::less<std::basic_string<char, std::char_traits<char>, std::allocator<char> > >, std::allocator<std::pair<const std::basic_string<char, std::char_traits<char>, std::allocator<char> >, std::basic_string<char, std::char_traits<char>, std::allocator<char> > > > >, std::less<std::basic_string<char, std::char_traits<char>, std::allocator<char> > >, std::allocator<std::pair<const std::basic_string<char, std::char_traits<char>, std::allocator<char> >, std::map<std::basic_string<char, std::char_traits<char>, std::allocator<char> >, std::basic_string<char, std::char_traits<char>, std::allocator<char> >, std::less<std::basic_string<char, std::char_traits<char>, std::allocator<char> > >, std::allocator<std::pair<const std::basic_string<char, std::char_traits<char>, std::allocator<char> >, std::basic_string<char, std::char_traits<char>, std::allocator<char> > > > > > > >::insert
FUNC 304c4 25 0 std::list<std::basic_string<char, std::char_traits<char>, std::allocator<char> >, std::allocator<std::basic_string<char, std::char_traits<char>, std::allocator<char> > > >::end
FUNC 304ea 40 0 std::list<std::basic_string<char, std::char_traits<char>, std::allocator<char> >, std::allocator<std::basic_string<char, std::char_traits<char>, std::allocator<char> > > >::_M_insert
FUNC 3052a 61 0 std::_Rb_tree<std::basic_string<char, std::char_traits<char>, std::allocator<char> >, std::pair<const std::basic_string<char, std::char_traits<char>, std::allocator<char> >, IEC61850_STRUCT::IED_61850>, std::_Select1st<std::pair<const std::basic_string<char, std::char_traits<char>, std::allocator<char> >, IEC61850_STRUCT::IED_61850> >, std::less<std::basic_string<char, std::char_traits<char>, std::allocator<char> > >, std::allocator<std::pair<const std::basic_string<char, std::char_traits<char>, std::allocator<char> >, IEC61850_STRUCT::IED_61850> > >::_Rb_tree_impl<std::less<std::basic_string<char, std::char_traits<char>, std::allocator<char> > >, false>::_Rb_tree_impl
FUNC 3058c a 0 __gnu_cxx::new_allocator<std::_Rb_tree_node<std::pair<const std::basic_string<char, std::char_traits<char>, std::allocator<char> >, IEC61850_STRUCT::IED_61850> > >::~new_allocator
FUNC 30596 12 0 std::_Rb_tree<std::basic_string<char, std::char_traits<char>, std::allocator<char> >, std::pair<const std::basic_string<char, std::char_traits<char>, std::allocator<char> >, IEC61850_STRUCT::IED_61850>, std::_Select1st<std::pair<const std::basic_string<char, std::char_traits<char>, std::allocator<char> >, IEC61850_STRUCT::IED_61850> >, std::less<std::basic_string<char, std::char_traits<char>, std::allocator<char> > >, std::allocator<std::pair<const std::basic_string<char, std::char_traits<char>, std::allocator<char> >, IEC61850_STRUCT::IED_61850> > >::_S_right
FUNC 305a8 12 0 std::_Rb_tree<std::basic_string<char, std::char_traits<char>, std::allocator<char> >, std::pair<const std::basic_string<char, std::char_traits<char>, std::allocator<char> >, IEC61850_STRUCT::IED_61850>, std::_Select1st<std::pair<const std::basic_string<char, std::char_traits<char>, std::allocator<char> >, IEC61850_STRUCT::IED_61850> >, std::less<std::basic_string<char, std::char_traits<char>, std::allocator<char> > >, std::allocator<std::pair<const std::basic_string<char, std::char_traits<char>, std::allocator<char> >, IEC61850_STRUCT::IED_61850> > >::_S_left
FUNC 305ba 86 0 std::_Rb_tree<std::basic_string<char, std::char_traits<char>, std::allocator<char> >, std::pair<const std::basic_string<char, std::char_traits<char>, std::allocator<char> >, IEC61850_STRUCT::IED_61850>, std::_Select1st<std::pair<const std::basic_string<char, std::char_traits<char>, std::allocator<char> >, IEC61850_STRUCT::IED_61850> >, std::less<std::basic_string<char, std::char_traits<char>, std::allocator<char> > >, std::allocator<std::pair<const std::basic_string<char, std::char_traits<char>, std::allocator<char> >, IEC61850_STRUCT::IED_61850> > >::_M_destroy_node
FUNC 30640 31 0 std::_List_base<std::basic_string<char, std::char_traits<char>, std::allocator<char> >, std::allocator<std::basic_string<char, std::char_traits<char>, std::allocator<char> > > >::_List_impl::_List_impl
FUNC 30672 a 0 __gnu_cxx::new_allocator<std::_List_node<std::basic_string<char, std::char_traits<char>, std::allocator<char> > > >::~new_allocator
FUNC 3067c 3b 0 std::_List_base<std::basic_string<char, std::char_traits<char>, std::allocator<char> >, std::allocator<std::basic_string<char, std::char_traits<char>, std::allocator<char> > > >::_M_get_Tp_allocator
FUNC 306b8 2a 0 std::_List_base<std::basic_string<char, std::char_traits<char>, std::allocator<char> >, std::allocator<std::basic_string<char, std::char_traits<char>, std::allocator<char> > > >::_M_put_node
FUNC 306e2 61 0 std::_Rb_tree<std::basic_string<char, std::char_traits<char>, std::allocator<char> >, std::pair<const std::basic_string<char, std::char_traits<char>, std::allocator<char> >, std::map<int, std::map<int, IEC104WF::stPointTable, std::less<int>, std::allocator<std::pair<const int, IEC104WF::stPointTable> > >, std::less<int>, std::allocator<std::pair<const int, std::map<int, IEC104WF::stPointTable, std::less<int>, std::allocator<std::pair<const int, IEC104WF::stPointTable> > > > > > >, std::_Select1st<std::pair<const std::basic_string<char, std::char_traits<char>, std::allocator<char> >, std::map<int, std::map<int, IEC104WF::stPointTable, std::less<int>, std::allocator<std::pair<const int, IEC104WF::stPointTable> > >, std::less<int>, std::allocator<std::pair<const int, std::map<int, IEC104WF::stPointTable, std::less<int>, std::allocator<std::pair<const int, IEC104WF::stPointTable> > > > > > > >, std::less<std::basic_string<char, std::char_traits<char>, std::allocator<char> > >, std::allocator<std::pair<const std::basic_string<char, std::char_traits<char>, std::allocator<char> >, std::map<int, std::map<int, IEC104WF::stPointTable, std::less<int>, std::allocator<std::pair<const int, IEC104WF::stPointTable> > >, std::less<int>, std::allocator<std::pair<const int, std::map<int, IEC104WF::stPointTable, std::less<int>, std::allocator<std::pair<const int, IEC104WF::stPointTable> > > > > > > > >::_Rb_tree_impl<std::less<std::basic_string<char, std::char_traits<char>, std::allocator<char> > >, false>::_Rb_tree_impl
FUNC 30744 a 0 __gnu_cxx::new_allocator<std::_Rb_tree_node<std::pair<const std::basic_string<char, std::char_traits<char>, std::allocator<char> >, std::map<int, std::map<int, IEC104WF::stPointTable, std::less<int>, std::allocator<std::pair<const int, IEC104WF::stPointTable> > >, std::less<int>, std::allocator<std::pair<const int, std::map<int, IEC104WF::stPointTable, std::less<int>, std::allocator<std::pair<const int, IEC104WF::stPointTable> > > > > > > > >::~new_allocator
FUNC 3074e 12 0 std::_Rb_tree<std::basic_string<char, std::char_traits<char>, std::allocator<char> >, std::pair<const std::basic_string<char, std::char_traits<char>, std::allocator<char> >, std::map<int, std::map<int, IEC104WF::stPointTable, std::less<int>, std::allocator<std::pair<const int, IEC104WF::stPointTable> > >, std::less<int>, std::allocator<std::pair<const int, std::map<int, IEC104WF::stPointTable, std::less<int>, std::allocator<std::pair<const int, IEC104WF::stPointTable> > > > > > >, std::_Select1st<std::pair<const std::basic_string<char, std::char_traits<char>, std::allocator<char> >, std::map<int, std::map<int, IEC104WF::stPointTable, std::less<int>, std::allocator<std::pair<const int, IEC104WF::stPointTable> > >, std::less<int>, std::allocator<std::pair<const int, std::map<int, IEC104WF::stPointTable, std::less<int>, std::allocator<std::pair<const int, IEC104WF::stPointTable> > > > > > > >, std::less<std::basic_string<char, std::char_traits<char>, std::allocator<char> > >, std::allocator<std::pair<const std::basic_string<char, std::char_traits<char>, std::allocator<char> >, std::map<int, std::map<int, IEC104WF::stPointTable, std::less<int>, std::allocator<std::pair<const int, IEC104WF::stPointTable> > >, std::less<int>, std::allocator<std::pair<const int, std::map<int, IEC104WF::stPointTable, std::less<int>, std::allocator<std::pair<const int, IEC104WF::stPointTable> > > > > > > > >::_S_right
FUNC 30760 12 0 std::_Rb_tree<std::basic_string<char, std::char_traits<char>, std::allocator<char> >, std::pair<const std::basic_string<char, std::char_traits<char>, std::allocator<char> >, std::map<int, std::map<int, IEC104WF::stPointTable, std::less<int>, std::allocator<std::pair<const int, IEC104WF::stPointTable> > >, std::less<int>, std::allocator<std::pair<const int, std::map<int, IEC104WF::stPointTable, std::less<int>, std::allocator<std::pair<const int, IEC104WF::stPointTable> > > > > > >, std::_Select1st<std::pair<const std::basic_string<char, std::char_traits<char>, std::allocator<char> >, std::map<int, std::map<int, IEC104WF::stPointTable, std::less<int>, std::allocator<std::pair<const int, IEC104WF::stPointTable> > >, std::less<int>, std::allocator<std::pair<const int, std::map<int, IEC104WF::stPointTable, std::less<int>, std::allocator<std::pair<const int, IEC104WF::stPointTable> > > > > > > >, std::less<std::basic_string<char, std::char_traits<char>, std::allocator<char> > >, std::allocator<std::pair<const std::basic_string<char, std::char_traits<char>, std::allocator<char> >, std::map<int, std::map<int, IEC104WF::stPointTable, std::less<int>, std::allocator<std::pair<const int, IEC104WF::stPointTable> > >, std::less<int>, std::allocator<std::pair<const int, std::map<int, IEC104WF::stPointTable, std::less<int>, std::allocator<std::pair<const int, IEC104WF::stPointTable> > > > > > > > >::_S_left
FUNC 30772 86 0 std::_Rb_tree<std::basic_string<char, std::char_traits<char>, std::allocator<char> >, std::pair<const std::basic_string<char, std::char_traits<char>, std::allocator<char> >, std::map<int, std::map<int, IEC104WF::stPointTable, std::less<int>, std::allocator<std::pair<const int, IEC104WF::stPointTable> > >, std::less<int>, std::allocator<std::pair<const int, std::map<int, IEC104WF::stPointTable, std::less<int>, std::allocator<std::pair<const int, IEC104WF::stPointTable> > > > > > >, std::_Select1st<std::pair<const std::basic_string<char, std::char_traits<char>, std::allocator<char> >, std::map<int, std::map<int, IEC104WF::stPointTable, std::less<int>, std::allocator<std::pair<const int, IEC104WF::stPointTable> > >, std::less<int>, std::allocator<std::pair<const int, std::map<int, IEC104WF::stPointTable, std::less<int>, std::allocator<std::pair<const int, IEC104WF::stPointTable> > > > > > > >, std::less<std::basic_string<char, std::char_traits<char>, std::allocator<char> > >, std::allocator<std::pair<const std::basic_string<char, std::char_traits<char>, std::allocator<char> >, std::map<int, std::map<int, IEC104WF::stPointTable, std::less<int>, std::allocator<std::pair<const int, IEC104WF::stPointTable> > >, std::less<int>, std::allocator<std::pair<const int, std::map<int, IEC104WF::stPointTable, std::less<int>, std::allocator<std::pair<const int, IEC104WF::stPointTable> > > > > > > > >::_M_destroy_node
FUNC 307f8 61 0 std::_Rb_tree<int, std::pair<const int, std::map<int, IEC104WF::stPointTable, std::less<int>, std::allocator<std::pair<const int, IEC104WF::stPointTable> > > >, std::_Select1st<std::pair<const int, std::map<int, IEC104WF::stPointTable, std::less<int>, std::allocator<std::pair<const int, IEC104WF::stPointTable> > > > >, std::less<int>, std::allocator<std::pair<const int, std::map<int, IEC104WF::stPointTable, std::less<int>, std::allocator<std::pair<const int, IEC104WF::stPointTable> > > > > >::_Rb_tree_impl<std::less<int>, false>::_Rb_tree_impl
FUNC 3085a a 0 __gnu_cxx::new_allocator<std::_Rb_tree_node<std::pair<const int, std::map<int, IEC104WF::stPointTable, std::less<int>, std::allocator<std::pair<const int, IEC104WF::stPointTable> > > > > >::~new_allocator
FUNC 30864 12 0 std::_Rb_tree<int, std::pair<const int, std::map<int, IEC104WF::stPointTable, std::less<int>, std::allocator<std::pair<const int, IEC104WF::stPointTable> > > >, std::_Select1st<std::pair<const int, std::map<int, IEC104WF::stPointTable, std::less<int>, std::allocator<std::pair<const int, IEC104WF::stPointTable> > > > >, std::less<int>, std::allocator<std::pair<const int, std::map<int, IEC104WF::stPointTable, std::less<int>, std::allocator<std::pair<const int, IEC104WF::stPointTable> > > > > >::_S_right
FUNC 30876 12 0 std::_Rb_tree<int, std::pair<const int, std::map<int, IEC104WF::stPointTable, std::less<int>, std::allocator<std::pair<const int, IEC104WF::stPointTable> > > >, std::_Select1st<std::pair<const int, std::map<int, IEC104WF::stPointTable, std::less<int>, std::allocator<std::pair<const int, IEC104WF::stPointTable> > > > >, std::less<int>, std::allocator<std::pair<const int, std::map<int, IEC104WF::stPointTable, std::less<int>, std::allocator<std::pair<const int, IEC104WF::stPointTable> > > > > >::_S_left
FUNC 30888 86 0 std::_Rb_tree<int, std::pair<const int, std::map<int, IEC104WF::stPointTable, std::less<int>, std::allocator<std::pair<const int, IEC104WF::stPointTable> > > >, std::_Select1st<std::pair<const int, std::map<int, IEC104WF::stPointTable, std::less<int>, std::allocator<std::pair<const int, IEC104WF::stPointTable> > > > >, std::less<int>, std::allocator<std::pair<const int, std::map<int, IEC104WF::stPointTable, std::less<int>, std::allocator<std::pair<const int, IEC104WF::stPointTable> > > > > >::_M_destroy_node
FUNC 3090e 61 0 std::_Rb_tree<int, std::pair<const int, IEC104WF::stPointTable>, std::_Select1st<std::pair<const int, IEC104WF::stPointTable> >, std::less<int>, std::allocator<std::pair<const int, IEC104WF::stPointTable> > >::_Rb_tree_impl<std::less<int>, false>::_Rb_tree_impl
FUNC 30970 a 0 __gnu_cxx::new_allocator<std::_Rb_tree_node<std::pair<const int, IEC104WF::stPointTable> > >::~new_allocator
FUNC 3097a 12 0 std::_Rb_tree<int, std::pair<const int, IEC104WF::stPointTable>, std::_Select1st<std::pair<const int, IEC104WF::stPointTable> >, std::less<int>, std::allocator<std::pair<const int, IEC104WF::stPointTable> > >::_S_right
FUNC 3098c 12 0 std::_Rb_tree<int, std::pair<const int, IEC104WF::stPointTable>, std::_Select1st<std::pair<const int, IEC104WF::stPointTable> >, std::less<int>, std::allocator<std::pair<const int, IEC104WF::stPointTable> > >::_S_left
FUNC 3099e 86 0 std::_Rb_tree<int, std::pair<const int, IEC104WF::stPointTable>, std::_Select1st<std::pair<const int, IEC104WF::stPointTable> >, std::less<int>, std::allocator<std::pair<const int, IEC104WF::stPointTable> > >::_M_destroy_node
FUNC 30a24 61 0 std::_Rb_tree<std::basic_string<char, std::char_traits<char>, std::allocator<char> >, std::pair<const std::basic_string<char, std::char_traits<char>, std::allocator<char> >, IEC103::stConfigParam>, std::_Select1st<std::pair<const std::basic_string<char, std::char_traits<char>, std::allocator<char> >, IEC103::stConfigParam> >, std::less<std::basic_string<char, std::char_traits<char>, std::allocator<char> > >, std::allocator<std::pair<const std::basic_string<char, std::char_traits<char>, std::allocator<char> >, IEC103::stConfigParam> > >::_Rb_tree_impl<std::less<std::basic_string<char, std::char_traits<char>, std::allocator<char> > >, false>::_Rb_tree_impl
FUNC 30a86 61 0 std::_Rb_tree<std::basic_string<char, std::char_traits<char>, std::allocator<char> >, std::pair<const std::basic_string<char, std::char_traits<char>, std::allocator<char> >, std::map<std::basic_string<char, std::char_traits<char>, std::allocator<char> >, std::basic_string<char, std::char_traits<char>, std::allocator<char> >, std::less<std::basic_string<char, std::char_traits<char>, std::allocator<char> > >, std::allocator<std::pair<const std::basic_string<char, std::char_traits<char>, std::allocator<char> >, std::basic_string<char, std::char_traits<char>, std::allocator<char> > > > > >, std::_Select1st<std::pair<const std::basic_string<char, std::char_traits<char>, std::allocator<char> >, std::map<std::basic_string<char, std::char_traits<char>, std::allocator<char> >, std::basic_string<char, std::char_traits<char>, std::allocator<char> >, std::less<std::basic_string<char, std::char_traits<char>, std::allocator<char> > >, std::allocator<std::pair<const std::basic_string<char, std::char_traits<char>, std::allocator<char> >, std::basic_string<char, std::char_traits<char>, std::allocator<char> > > > > > >, std::less<std::basic_string<char, std::char_traits<char>, std::allocator<char> > >, std::allocator<std::pair<const std::basic_string<char, std::char_traits<char>, std::allocator<char> >, std::map<std::basic_string<char, std::char_traits<char>, std::allocator<char> >, std::basic_string<char, std::char_traits<char>, std::allocator<char> >, std::less<std::basic_string<char, std::char_traits<char>, std::allocator<char> > >, std::allocator<std::pair<const std::basic_string<char, std::char_traits<char>, std::allocator<char> >, std::basic_string<char, std::char_traits<char>, std::allocator<char> > > > > > > >::_Rb_tree_impl<std::less<std::basic_string<char, std::char_traits<char>, std::allocator<char> > >, false>::_Rb_tree_impl
FUNC 30ae8 48 0 std::_Vector_base<std::basic_string<char, std::char_traits<char>, std::allocator<char> >, std::allocator<std::basic_string<char, std::char_traits<char>, std::allocator<char> > > >::_Vector_impl::_Vector_impl
FUNC 30b30 12 0 std::_Rb_tree<std::basic_string<char, std::char_traits<char>, std::allocator<char> >, std::pair<const std::basic_string<char, std::char_traits<char>, std::allocator<char> >, IEC61850_STRUCT::IED_61850>, std::_Select1st<std::pair<const std::basic_string<char, std::char_traits<char>, std::allocator<char> >, IEC61850_STRUCT::IED_61850> >, std::less<std::basic_string<char, std::char_traits<char>, std::allocator<char> > >, std::allocator<std::pair<const std::basic_string<char, std::char_traits<char>, std::allocator<char> >, IEC61850_STRUCT::IED_61850> > >::_M_end
FUNC 30b42 12 0 std::_Rb_tree<std::basic_string<char, std::char_traits<char>, std::allocator<char> >, std::pair<const std::basic_string<char, std::char_traits<char>, std::allocator<char> >, IEC61850_STRUCT::IED_61850>, std::_Select1st<std::pair<const std::basic_string<char, std::char_traits<char>, std::allocator<char> >, IEC61850_STRUCT::IED_61850> >, std::less<std::basic_string<char, std::char_traits<char>, std::allocator<char> > >, std::allocator<std::pair<const std::basic_string<char, std::char_traits<char>, std::allocator<char> >, IEC61850_STRUCT::IED_61850> > >::_M_leftmost
FUNC 30b54 12 0 std::_Rb_tree<std::basic_string<char, std::char_traits<char>, std::allocator<char> >, std::pair<const std::basic_string<char, std::char_traits<char>, std::allocator<char> >, IEC61850_STRUCT::IED_61850>, std::_Select1st<std::pair<const std::basic_string<char, std::char_traits<char>, std::allocator<char> >, IEC61850_STRUCT::IED_61850> >, std::less<std::basic_string<char, std::char_traits<char>, std::allocator<char> > >, std::allocator<std::pair<const std::basic_string<char, std::char_traits<char>, std::allocator<char> >, IEC61850_STRUCT::IED_61850> > >::_M_root
FUNC 30b66 12 0 std::_Rb_tree<std::basic_string<char, std::char_traits<char>, std::allocator<char> >, std::pair<const std::basic_string<char, std::char_traits<char>, std::allocator<char> >, IEC61850_STRUCT::IED_61850>, std::_Select1st<std::pair<const std::basic_string<char, std::char_traits<char>, std::allocator<char> >, IEC61850_STRUCT::IED_61850> >, std::less<std::basic_string<char, std::char_traits<char>, std::allocator<char> > >, std::allocator<std::pair<const std::basic_string<char, std::char_traits<char>, std::allocator<char> >, IEC61850_STRUCT::IED_61850> > >::_M_rightmost
FUNC 30b78 e 0 std::_Rb_tree<std::basic_string<char, std::char_traits<char>, std::allocator<char> >, std::pair<const std::basic_string<char, std::char_traits<char>, std::allocator<char> >, IEC61850_STRUCT::IED_61850>, std::_Select1st<std::pair<const std::basic_string<char, std::char_traits<char>, std::allocator<char> >, IEC61850_STRUCT::IED_61850> >, std::less<std::basic_string<char, std::char_traits<char>, std::allocator<char> > >, std::allocator<std::pair<const std::basic_string<char, std::char_traits<char>, std::allocator<char> >, IEC61850_STRUCT::IED_61850> > >::_M_get_Node_allocator
FUNC 30b86 70 0 std::_Rb_tree<std::basic_string<char, std::char_traits<char>, std::allocator<char> >, std::pair<const std::basic_string<char, std::char_traits<char>, std::allocator<char> >, IEC61850_STRUCT::IED_61850>, std::_Select1st<std::pair<const std::basic_string<char, std::char_traits<char>, std::allocator<char> >, IEC61850_STRUCT::IED_61850> >, std::less<std::basic_string<char, std::char_traits<char>, std::allocator<char> > >, std::allocator<std::pair<const std::basic_string<char, std::char_traits<char>, std::allocator<char> >, IEC61850_STRUCT::IED_61850> > >::_Rb_tree_impl<std::less<std::basic_string<char, std::char_traits<char>, std::allocator<char> > >, false>::_Rb_tree_impl
FUNC 30bf6 12 0 std::_Rb_tree<std::basic_string<char, std::char_traits<char>, std::allocator<char> >, std::pair<const std::basic_string<char, std::char_traits<char>, std::allocator<char> >, IEC61850_STRUCT::IED_61850>, std::_Select1st<std::pair<const std::basic_string<char, std::char_traits<char>, std::allocator<char> >, IEC61850_STRUCT::IED_61850> >, std::less<std::basic_string<char, std::char_traits<char>, std::allocator<char> > >, std::allocator<std::pair<const std::basic_string<char, std::char_traits<char>, std::allocator<char> >, IEC61850_STRUCT::IED_61850> > >::_M_root
FUNC 30c08 169 0 std::_Rb_tree<std::basic_string<char, std::char_traits<char>, std::allocator<char> >, std::pair<const std::basic_string<char, std::char_traits<char>, std::allocator<char> >, IEC61850_STRUCT::IED_61850>, std::_Select1st<std::pair<const std::basic_string<char, std::char_traits<char>, std::allocator<char> >, IEC61850_STRUCT::IED_61850> >, std::less<std::basic_string<char, std::char_traits<char>, std::allocator<char> > >, std::allocator<std::pair<const std::basic_string<char, std::char_traits<char>, std::allocator<char> >, IEC61850_STRUCT::IED_61850> > >::_M_copy
FUNC 30d72 12 0 std::_Rb_tree<std::basic_string<char, std::char_traits<char>, std::allocator<char> >, std::pair<const std::basic_string<char, std::char_traits<char>, std::allocator<char> >, IEC61850_STRUCT::IED_61850>, std::_Select1st<std::pair<const std::basic_string<char, std::char_traits<char>, std::allocator<char> >, IEC61850_STRUCT::IED_61850> >, std::less<std::basic_string<char, std::char_traits<char>, std::allocator<char> > >, std::allocator<std::pair<const std::basic_string<char, std::char_traits<char>, std::allocator<char> >, IEC61850_STRUCT::IED_61850> > >::_M_begin
FUNC 30d84 1a 0 std::_Rb_tree<std::basic_string<char, std::char_traits<char>, std::allocator<char> >, std::pair<const std::basic_string<char, std::char_traits<char>, std::allocator<char> >, IEC61850_STRUCT::IED_61850>, std::_Select1st<std::pair<const std::basic_string<char, std::char_traits<char>, std::allocator<char> >, IEC61850_STRUCT::IED_61850> >, std::less<std::basic_string<char, std::char_traits<char>, std::allocator<char> > >, std::allocator<std::pair<const std::basic_string<char, std::char_traits<char>, std::allocator<char> >, IEC61850_STRUCT::IED_61850> > >::_S_minimum
FUNC 30d9e 1a 0 std::_Rb_tree<std::basic_string<char, std::char_traits<char>, std::allocator<char> >, std::pair<const std::basic_string<char, std::char_traits<char>, std::allocator<char> >, IEC61850_STRUCT::IED_61850>, std::_Select1st<std::pair<const std::basic_string<char, std::char_traits<char>, std::allocator<char> >, IEC61850_STRUCT::IED_61850> >, std::less<std::basic_string<char, std::char_traits<char>, std::allocator<char> > >, std::allocator<std::pair<const std::basic_string<char, std::char_traits<char>, std::allocator<char> >, IEC61850_STRUCT::IED_61850> > >::_S_maximum
FUNC 30db8 12 0 std::_Rb_tree<std::basic_string<char, std::char_traits<char>, std::allocator<char> >, std::pair<const std::basic_string<char, std::char_traits<char>, std::allocator<char> >, IEC103::stConfigParam>, std::_Select1st<std::pair<const std::basic_string<char, std::char_traits<char>, std::allocator<char> >, IEC103::stConfigParam> >, std::less<std::basic_string<char, std::char_traits<char>, std::allocator<char> > >, std::allocator<std::pair<const std::basic_string<char, std::char_traits<char>, std::allocator<char> >, IEC103::stConfigParam> > >::_M_end
FUNC 30dca 12 0 std::_Rb_tree<std::basic_string<char, std::char_traits<char>, std::allocator<char> >, std::pair<const std::basic_string<char, std::char_traits<char>, std::allocator<char> >, IEC103::stConfigParam>, std::_Select1st<std::pair<const std::basic_string<char, std::char_traits<char>, std::allocator<char> >, IEC103::stConfigParam> >, std::less<std::basic_string<char, std::char_traits<char>, std::allocator<char> > >, std::allocator<std::pair<const std::basic_string<char, std::char_traits<char>, std::allocator<char> >, IEC103::stConfigParam> > >::_M_leftmost
FUNC 30ddc 12 0 std::_Rb_tree<std::basic_string<char, std::char_traits<char>, std::allocator<char> >, std::pair<const std::basic_string<char, std::char_traits<char>, std::allocator<char> >, IEC103::stConfigParam>, std::_Select1st<std::pair<const std::basic_string<char, std::char_traits<char>, std::allocator<char> >, IEC103::stConfigParam> >, std::less<std::basic_string<char, std::char_traits<char>, std::allocator<char> > >, std::allocator<std::pair<const std::basic_string<char, std::char_traits<char>, std::allocator<char> >, IEC103::stConfigParam> > >::_M_root
FUNC 30dee 12 0 std::_Rb_tree<std::basic_string<char, std::char_traits<char>, std::allocator<char> >, std::pair<const std::basic_string<char, std::char_traits<char>, std::allocator<char> >, IEC103::stConfigParam>, std::_Select1st<std::pair<const std::basic_string<char, std::char_traits<char>, std::allocator<char> >, IEC103::stConfigParam> >, std::less<std::basic_string<char, std::char_traits<char>, std::allocator<char> > >, std::allocator<std::pair<const std::basic_string<char, std::char_traits<char>, std::allocator<char> >, IEC103::stConfigParam> > >::_M_rightmost
FUNC 30e00 12 0 std::_Rb_tree<std::basic_string<char, std::char_traits<char>, std::allocator<char> >, std::pair<const std::basic_string<char, std::char_traits<char>, std::allocator<char> >, std::map<std::basic_string<char, std::char_traits<char>, std::allocator<char> >, std::basic_string<char, std::char_traits<char>, std::allocator<char> >, std::less<std::basic_string<char, std::char_traits<char>, std::allocator<char> > >, std::allocator<std::pair<const std::basic_string<char, std::char_traits<char>, std::allocator<char> >, std::basic_string<char, std::char_traits<char>, std::allocator<char> > > > > >, std::_Select1st<std::pair<const std::basic_string<char, std::char_traits<char>, std::allocator<char> >, std::map<std::basic_string<char, std::char_traits<char>, std::allocator<char> >, std::basic_string<char, std::char_traits<char>, std::allocator<char> >, std::less<std::basic_string<char, std::char_traits<char>, std::allocator<char> > >, std::allocator<std::pair<const std::basic_string<char, std::char_traits<char>, std::allocator<char> >, std::basic_string<char, std::char_traits<char>, std::allocator<char> > > > > > >, std::less<std::basic_string<char, std::char_traits<char>, std::allocator<char> > >, std::allocator<std::pair<const std::basic_string<char, std::char_traits<char>, std::allocator<char> >, std::map<std::basic_string<char, std::char_traits<char>, std::allocator<char> >, std::basic_string<char, std::char_traits<char>, std::allocator<char> >, std::less<std::basic_string<char, std::char_traits<char>, std::allocator<char> > >, std::allocator<std::pair<const std::basic_string<char, std::char_traits<char>, std::allocator<char> >, std::basic_string<char, std::char_traits<char>, std::allocator<char> > > > > > > >::_M_end
FUNC 30e12 12 0 std::_Rb_tree<std::basic_string<char, std::char_traits<char>, std::allocator<char> >, std::pair<const std::basic_string<char, std::char_traits<char>, std::allocator<char> >, std::map<std::basic_string<char, std::char_traits<char>, std::allocator<char> >, std::basic_string<char, std::char_traits<char>, std::allocator<char> >, std::less<std::basic_string<char, std::char_traits<char>, std::allocator<char> > >, std::allocator<std::pair<const std::basic_string<char, std::char_traits<char>, std::allocator<char> >, std::basic_string<char, std::char_traits<char>, std::allocator<char> > > > > >, std::_Select1st<std::pair<const std::basic_string<char, std::char_traits<char>, std::allocator<char> >, std::map<std::basic_string<char, std::char_traits<char>, std::allocator<char> >, std::basic_string<char, std::char_traits<char>, std::allocator<char> >, std::less<std::basic_string<char, std::char_traits<char>, std::allocator<char> > >, std::allocator<std::pair<const std::basic_string<char, std::char_traits<char>, std::allocator<char> >, std::basic_string<char, std::char_traits<char>, std::allocator<char> > > > > > >, std::less<std::basic_string<char, std::char_traits<char>, std::allocator<char> > >, std::allocator<std::pair<const std::basic_string<char, std::char_traits<char>, std::allocator<char> >, std::map<std::basic_string<char, std::char_traits<char>, std::allocator<char> >, std::basic_string<char, std::char_traits<char>, std::allocator<char> >, std::less<std::basic_string<char, std::char_traits<char>, std::allocator<char> > >, std::allocator<std::pair<const std::basic_string<char, std::char_traits<char>, std::allocator<char> >, std::basic_string<char, std::char_traits<char>, std::allocator<char> > > > > > > >::_M_leftmost
FUNC 30e24 12 0 std::_Rb_tree<std::basic_string<char, std::char_traits<char>, std::allocator<char> >, std::pair<const std::basic_string<char, std::char_traits<char>, std::allocator<char> >, std::map<std::basic_string<char, std::char_traits<char>, std::allocator<char> >, std::basic_string<char, std::char_traits<char>, std::allocator<char> >, std::less<std::basic_string<char, std::char_traits<char>, std::allocator<char> > >, std::allocator<std::pair<const std::basic_string<char, std::char_traits<char>, std::allocator<char> >, std::basic_string<char, std::char_traits<char>, std::allocator<char> > > > > >, std::_Select1st<std::pair<const std::basic_string<char, std::char_traits<char>, std::allocator<char> >, std::map<std::basic_string<char, std::char_traits<char>, std::allocator<char> >, std::basic_string<char, std::char_traits<char>, std::allocator<char> >, std::less<std::basic_string<char, std::char_traits<char>, std::allocator<char> > >, std::allocator<std::pair<const std::basic_string<char, std::char_traits<char>, std::allocator<char> >, std::basic_string<char, std::char_traits<char>, std::allocator<char> > > > > > >, std::less<std::basic_string<char, std::char_traits<char>, std::allocator<char> > >, std::allocator<std::pair<const std::basic_string<char, std::char_traits<char>, std::allocator<char> >, std::map<std::basic_string<char, std::char_traits<char>, std::allocator<char> >, std::basic_string<char, std::char_traits<char>, std::allocator<char> >, std::less<std::basic_string<char, std::char_traits<char>, std::allocator<char> > >, std::allocator<std::pair<const std::basic_string<char, std::char_traits<char>, std::allocator<char> >, std::basic_string<char, std::char_traits<char>, std::allocator<char> > > > > > > >::_M_root
FUNC 30e36 12 0 std::_Rb_tree<std::basic_string<char, std::char_traits<char>, std::allocator<char> >, std::pair<const std::basic_string<char, std::char_traits<char>, std::allocator<char> >, std::map<std::basic_string<char, std::char_traits<char>, std::allocator<char> >, std::basic_string<char, std::char_traits<char>, std::allocator<char> >, std::less<std::basic_string<char, std::char_traits<char>, std::allocator<char> > >, std::allocator<std::pair<const std::basic_string<char, std::char_traits<char>, std::allocator<char> >, std::basic_string<char, std::char_traits<char>, std::allocator<char> > > > > >, std::_Select1st<std::pair<const std::basic_string<char, std::char_traits<char>, std::allocator<char> >, std::map<std::basic_string<char, std::char_traits<char>, std::allocator<char> >, std::basic_string<char, std::char_traits<char>, std::allocator<char> >, std::less<std::basic_string<char, std::char_traits<char>, std::allocator<char> > >, std::allocator<std::pair<const std::basic_string<char, std::char_traits<char>, std::allocator<char> >, std::basic_string<char, std::char_traits<char>, std::allocator<char> > > > > > >, std::less<std::basic_string<char, std::char_traits<char>, std::allocator<char> > >, std::allocator<std::pair<const std::basic_string<char, std::char_traits<char>, std::allocator<char> >, std::map<std::basic_string<char, std::char_traits<char>, std::allocator<char> >, std::basic_string<char, std::char_traits<char>, std::allocator<char> >, std::less<std::basic_string<char, std::char_traits<char>, std::allocator<char> > >, std::allocator<std::pair<const std::basic_string<char, std::char_traits<char>, std::allocator<char> >, std::basic_string<char, std::char_traits<char>, std::allocator<char> > > > > > > >::_M_rightmost
FUNC 30e48 70 0 std::_Rb_tree<std::basic_string<char, std::char_traits<char>, std::allocator<char> >, std::pair<const std::basic_string<char, std::char_traits<char>, std::allocator<char> >, IEC103::stConfigParam>, std::_Select1st<std::pair<const std::basic_string<char, std::char_traits<char>, std::allocator<char> >, IEC103::stConfigParam> >, std::less<std::basic_string<char, std::char_traits<char>, std::allocator<char> > >, std::allocator<std::pair<const std::basic_string<char, std::char_traits<char>, std::allocator<char> >, IEC103::stConfigParam> > >::_Rb_tree_impl<std::less<std::basic_string<char, std::char_traits<char>, std::allocator<char> > >, false>::_Rb_tree_impl
FUNC 30eb8 12 0 std::_Rb_tree<std::basic_string<char, std::char_traits<char>, std::allocator<char> >, std::pair<const std::basic_string<char, std::char_traits<char>, std::allocator<char> >, IEC103::stConfigParam>, std::_Select1st<std::pair<const std::basic_string<char, std::char_traits<char>, std::allocator<char> >, IEC103::stConfigParam> >, std::less<std::basic_string<char, std::char_traits<char>, std::allocator<char> > >, std::allocator<std::pair<const std::basic_string<char, std::char_traits<char>, std::allocator<char> >, IEC103::stConfigParam> > >::_M_root
FUNC 30eca 169 0 std::_Rb_tree<std::basic_string<char, std::char_traits<char>, std::allocator<char> >, std::pair<const std::basic_string<char, std::char_traits<char>, std::allocator<char> >, IEC103::stConfigParam>, std::_Select1st<std::pair<const std::basic_string<char, std::char_traits<char>, std::allocator<char> >, IEC103::stConfigParam> >, std::less<std::basic_string<char, std::char_traits<char>, std::allocator<char> > >, std::allocator<std::pair<const std::basic_string<char, std::char_traits<char>, std::allocator<char> >, IEC103::stConfigParam> > >::_M_copy
FUNC 31034 12 0 std::_Rb_tree<std::basic_string<char, std::char_traits<char>, std::allocator<char> >, std::pair<const std::basic_string<char, std::char_traits<char>, std::allocator<char> >, IEC103::stConfigParam>, std::_Select1st<std::pair<const std::basic_string<char, std::char_traits<char>, std::allocator<char> >, IEC103::stConfigParam> >, std::less<std::basic_string<char, std::char_traits<char>, std::allocator<char> > >, std::allocator<std::pair<const std::basic_string<char, std::char_traits<char>, std::allocator<char> >, IEC103::stConfigParam> > >::_M_begin
FUNC 31046 1a 0 std::_Rb_tree<std::basic_string<char, std::char_traits<char>, std::allocator<char> >, std::pair<const std::basic_string<char, std::char_traits<char>, std::allocator<char> >, IEC103::stConfigParam>, std::_Select1st<std::pair<const std::basic_string<char, std::char_traits<char>, std::allocator<char> >, IEC103::stConfigParam> >, std::less<std::basic_string<char, std::char_traits<char>, std::allocator<char> > >, std::allocator<std::pair<const std::basic_string<char, std::char_traits<char>, std::allocator<char> >, IEC103::stConfigParam> > >::_S_minimum
FUNC 31060 1a 0 std::_Rb_tree<std::basic_string<char, std::char_traits<char>, std::allocator<char> >, std::pair<const std::basic_string<char, std::char_traits<char>, std::allocator<char> >, IEC103::stConfigParam>, std::_Select1st<std::pair<const std::basic_string<char, std::char_traits<char>, std::allocator<char> >, IEC103::stConfigParam> >, std::less<std::basic_string<char, std::char_traits<char>, std::allocator<char> > >, std::allocator<std::pair<const std::basic_string<char, std::char_traits<char>, std::allocator<char> >, IEC103::stConfigParam> > >::_S_maximum
FUNC 3107a 70 0 std::_Rb_tree<std::basic_string<char, std::char_traits<char>, std::allocator<char> >, std::pair<const std::basic_string<char, std::char_traits<char>, std::allocator<char> >, std::map<std::basic_string<char, std::char_traits<char>, std::allocator<char> >, std::basic_string<char, std::char_traits<char>, std::allocator<char> >, std::less<std::basic_string<char, std::char_traits<char>, std::allocator<char> > >, std::allocator<std::pair<const std::basic_string<char, std::char_traits<char>, std::allocator<char> >, std::basic_string<char, std::char_traits<char>, std::allocator<char> > > > > >, std::_Select1st<std::pair<const std::basic_string<char, std::char_traits<char>, std::allocator<char> >, std::map<std::basic_string<char, std::char_traits<char>, std::allocator<char> >, std::basic_string<char, std::char_traits<char>, std::allocator<char> >, std::less<std::basic_string<char, std::char_traits<char>, std::allocator<char> > >, std::allocator<std::pair<const std::basic_string<char, std::char_traits<char>, std::allocator<char> >, std::basic_string<char, std::char_traits<char>, std::allocator<char> > > > > > >, std::less<std::basic_string<char, std::char_traits<char>, std::allocator<char> > >, std::allocator<std::pair<const std::basic_string<char, std::char_traits<char>, std::allocator<char> >, std::map<std::basic_string<char, std::char_traits<char>, std::allocator<char> >, std::basic_string<char, std::char_traits<char>, std::allocator<char> >, std::less<std::basic_string<char, std::char_traits<char>, std::allocator<char> > >, std::allocator<std::pair<const std::basic_string<char, std::char_traits<char>, std::allocator<char> >, std::basic_string<char, std::char_traits<char>, std::allocator<char> > > > > > > >::_Rb_tree_impl<std::less<std::basic_string<char, std::char_traits<char>, std::allocator<char> > >, false>::_Rb_tree_impl
FUNC 310ea 12 0 std::_Rb_tree<std::basic_string<char, std::char_traits<char>, std::allocator<char> >, std::pair<const std::basic_string<char, std::char_traits<char>, std::allocator<char> >, std::map<std::basic_string<char, std::char_traits<char>, std::allocator<char> >, std::basic_string<char, std::char_traits<char>, std::allocator<char> >, std::less<std::basic_string<char, std::char_traits<char>, std::allocator<char> > >, std::allocator<std::pair<const std::basic_string<char, std::char_traits<char>, std::allocator<char> >, std::basic_string<char, std::char_traits<char>, std::allocator<char> > > > > >, std::_Select1st<std::pair<const std::basic_string<char, std::char_traits<char>, std::allocator<char> >, std::map<std::basic_string<char, std::char_traits<char>, std::allocator<char> >, std::basic_string<char, std::char_traits<char>, std::allocator<char> >, std::less<std::basic_string<char, std::char_traits<char>, std::allocator<char> > >, std::allocator<std::pair<const std::basic_string<char, std::char_traits<char>, std::allocator<char> >, std::basic_string<char, std::char_traits<char>, std::allocator<char> > > > > > >, std::less<std::basic_string<char, std::char_traits<char>, std::allocator<char> > >, std::allocator<std::pair<const std::basic_string<char, std::char_traits<char>, std::allocator<char> >, std::map<std::basic_string<char, std::char_traits<char>, std::allocator<char> >, std::basic_string<char, std::char_traits<char>, std::allocator<char> >, std::less<std::basic_string<char, std::char_traits<char>, std::allocator<char> > >, std::allocator<std::pair<const std::basic_string<char, std::char_traits<char>, std::allocator<char> >, std::basic_string<char, std::char_traits<char>, std::allocator<char> > > > > > > >::_M_root
FUNC 310fc 169 0 std::_Rb_tree<std::basic_string<char, std::char_traits<char>, std::allocator<char> >, std::pair<const std::basic_string<char, std::char_traits<char>, std::allocator<char> >, std::map<std::basic_string<char, std::char_traits<char>, std::allocator<char> >, std::basic_string<char, std::char_traits<char>, std::allocator<char> >, std::less<std::basic_string<char, std::char_traits<char>, std::allocator<char> > >, std::allocator<std::pair<const std::basic_string<char, std::char_traits<char>, std::allocator<char> >, std::basic_string<char, std::char_traits<char>, std::allocator<char> > > > > >, std::_Select1st<std::pair<const std::basic_string<char, std::char_traits<char>, std::allocator<char> >, std::map<std::basic_string<char, std::char_traits<char>, std::allocator<char> >, std::basic_string<char, std::char_traits<char>, std::allocator<char> >, std::less<std::basic_string<char, std::char_traits<char>, std::allocator<char> > >, std::allocator<std::pair<const std::basic_string<char, std::char_traits<char>, std::allocator<char> >, std::basic_string<char, std::char_traits<char>, std::allocator<char> > > > > > >, std::less<std::basic_string<char, std::char_traits<char>, std::allocator<char> > >, std::allocator<std::pair<const std::basic_string<char, std::char_traits<char>, std::allocator<char> >, std::map<std::basic_string<char, std::char_traits<char>, std::allocator<char> >, std::basic_string<char, std::char_traits<char>, std::allocator<char> >, std::less<std::basic_string<char, std::char_traits<char>, std::allocator<char> > >, std::allocator<std::pair<const std::basic_string<char, std::char_traits<char>, std::allocator<char> >, std::basic_string<char, std::char_traits<char>, std::allocator<char> > > > > > > >::_M_copy
FUNC 31266 12 0 std::_Rb_tree<std::basic_string<char, std::char_traits<char>, std::allocator<char> >, std::pair<const std::basic_string<char, std::char_traits<char>, std::allocator<char> >, std::map<std::basic_string<char, std::char_traits<char>, std::allocator<char> >, std::basic_string<char, std::char_traits<char>, std::allocator<char> >, std::less<std::basic_string<char, std::char_traits<char>, std::allocator<char> > >, std::allocator<std::pair<const std::basic_string<char, std::char_traits<char>, std::allocator<char> >, std::basic_string<char, std::char_traits<char>, std::allocator<char> > > > > >, std::_Select1st<std::pair<const std::basic_string<char, std::char_traits<char>, std::allocator<char> >, std::map<std::basic_string<char, std::char_traits<char>, std::allocator<char> >, std::basic_string<char, std::char_traits<char>, std::allocator<char> >, std::less<std::basic_string<char, std::char_traits<char>, std::allocator<char> > >, std::allocator<std::pair<const std::basic_string<char, std::char_traits<char>, std::allocator<char> >, std::basic_string<char, std::char_traits<char>, std::allocator<char> > > > > > >, std::less<std::basic_string<char, std::char_traits<char>, std::allocator<char> > >, std::allocator<std::pair<const std::basic_string<char, std::char_traits<char>, std::allocator<char> >, std::map<std::basic_string<char, std::char_traits<char>, std::allocator<char> >, std::basic_string<char, std::char_traits<char>, std::allocator<char> >, std::less<std::basic_string<char, std::char_traits<char>, std::allocator<char> > >, std::allocator<std::pair<const std::basic_string<char, std::char_traits<char>, std::allocator<char> >, std::basic_string<char, std::char_traits<char>, std::allocator<char> > > > > > > >::_M_begin
FUNC 31278 1a 0 std::_Rb_tree<std::basic_string<char, std::char_traits<char>, std::allocator<char> >, std::pair<const std::basic_string<char, std::char_traits<char>, std::allocator<char> >, std::map<std::basic_string<char, std::char_traits<char>, std::allocator<char> >, std::basic_string<char, std::char_traits<char>, std::allocator<char> >, std::less<std::basic_string<char, std::char_traits<char>, std::allocator<char> > >, std::allocator<std::pair<const std::basic_string<char, std::char_traits<char>, std::allocator<char> >, std::basic_string<char, std::char_traits<char>, std::allocator<char> > > > > >, std::_Select1st<std::pair<const std::basic_string<char, std::char_traits<char>, std::allocator<char> >, std::map<std::basic_string<char, std::char_traits<char>, std::allocator<char> >, std::basic_string<char, std::char_traits<char>, std::allocator<char> >, std::less<std::basic_string<char, std::char_traits<char>, std::allocator<char> > >, std::allocator<std::pair<const std::basic_string<char, std::char_traits<char>, std::allocator<char> >, std::basic_string<char, std::char_traits<char>, std::allocator<char> > > > > > >, std::less<std::basic_string<char, std::char_traits<char>, std::allocator<char> > >, std::allocator<std::pair<const std::basic_string<char, std::char_traits<char>, std::allocator<char> >, std::map<std::basic_string<char, std::char_traits<char>, std::allocator<char> >, std::basic_string<char, std::char_traits<char>, std::allocator<char> >, std::less<std::basic_string<char, std::char_traits<char>, std::allocator<char> > >, std::allocator<std::pair<const std::basic_string<char, std::char_traits<char>, std::allocator<char> >, std::basic_string<char, std::char_traits<char>, std::allocator<char> > > > > > > >::_S_minimum
FUNC 31292 1a 0 std::_Rb_tree<std::basic_string<char, std::char_traits<char>, std::allocator<char> >, std::pair<const std::basic_string<char, std::char_traits<char>, std::allocator<char> >, std::map<std::basic_string<char, std::char_traits<char>, std::allocator<char> >, std::basic_string<char, std::char_traits<char>, std::allocator<char> >, std::less<std::basic_string<char, std::char_traits<char>, std::allocator<char> > >, std::allocator<std::pair<const std::basic_string<char, std::char_traits<char>, std::allocator<char> >, std::basic_string<char, std::char_traits<char>, std::allocator<char> > > > > >, std::_Select1st<std::pair<const std::basic_string<char, std::char_traits<char>, std::allocator<char> >, std::map<std::basic_string<char, std::char_traits<char>, std::allocator<char> >, std::basic_string<char, std::char_traits<char>, std::allocator<char> >, std::less<std::basic_string<char, std::char_traits<char>, std::allocator<char> > >, std::allocator<std::pair<const std::basic_string<char, std::char_traits<char>, std::allocator<char> >, std::basic_string<char, std::char_traits<char>, std::allocator<char> > > > > > >, std::less<std::basic_string<char, std::char_traits<char>, std::allocator<char> > >, std::allocator<std::pair<const std::basic_string<char, std::char_traits<char>, std::allocator<char> >, std::map<std::basic_string<char, std::char_traits<char>, std::allocator<char> >, std::basic_string<char, std::char_traits<char>, std::allocator<char> >, std::less<std::basic_string<char, std::char_traits<char>, std::allocator<char> > >, std::allocator<std::pair<const std::basic_string<char, std::char_traits<char>, std::allocator<char> >, std::basic_string<char, std::char_traits<char>, std::allocator<char> > > > > > > >::_S_maximum
FUNC 312ac 12 0 std::_Rb_tree<std::basic_string<char, std::char_traits<char>, std::allocator<char> >, std::pair<const std::basic_string<char, std::char_traits<char>, std::allocator<char> >, std::map<int, std::map<int, IEC104WF::stPointTable, std::less<int>, std::allocator<std::pair<const int, IEC104WF::stPointTable> > >, std::less<int>, std::allocator<std::pair<const int, std::map<int, IEC104WF::stPointTable, std::less<int>, std::allocator<std::pair<const int, IEC104WF::stPointTable> > > > > > >, std::_Select1st<std::pair<const std::basic_string<char, std::char_traits<char>, std::allocator<char> >, std::map<int, std::map<int, IEC104WF::stPointTable, std::less<int>, std::allocator<std::pair<const int, IEC104WF::stPointTable> > >, std::less<int>, std::allocator<std::pair<const int, std::map<int, IEC104WF::stPointTable, std::less<int>, std::allocator<std::pair<const int, IEC104WF::stPointTable> > > > > > > >, std::less<std::basic_string<char, std::char_traits<char>, std::allocator<char> > >, std::allocator<std::pair<const std::basic_string<char, std::char_traits<char>, std::allocator<char> >, std::map<int, std::map<int, IEC104WF::stPointTable, std::less<int>, std::allocator<std::pair<const int, IEC104WF::stPointTable> > >, std::less<int>, std::allocator<std::pair<const int, std::map<int, IEC104WF::stPointTable, std::less<int>, std::allocator<std::pair<const int, IEC104WF::stPointTable> > > > > > > > >::_M_end
FUNC 312be 12 0 std::_Rb_tree<std::basic_string<char, std::char_traits<char>, std::allocator<char> >, std::pair<const std::basic_string<char, std::char_traits<char>, std::allocator<char> >, std::map<int, std::map<int, IEC104WF::stPointTable, std::less<int>, std::allocator<std::pair<const int, IEC104WF::stPointTable> > >, std::less<int>, std::allocator<std::pair<const int, std::map<int, IEC104WF::stPointTable, std::less<int>, std::allocator<std::pair<const int, IEC104WF::stPointTable> > > > > > >, std::_Select1st<std::pair<const std::basic_string<char, std::char_traits<char>, std::allocator<char> >, std::map<int, std::map<int, IEC104WF::stPointTable, std::less<int>, std::allocator<std::pair<const int, IEC104WF::stPointTable> > >, std::less<int>, std::allocator<std::pair<const int, std::map<int, IEC104WF::stPointTable, std::less<int>, std::allocator<std::pair<const int, IEC104WF::stPointTable> > > > > > > >, std::less<std::basic_string<char, std::char_traits<char>, std::allocator<char> > >, std::allocator<std::pair<const std::basic_string<char, std::char_traits<char>, std::allocator<char> >, std::map<int, std::map<int, IEC104WF::stPointTable, std::less<int>, std::allocator<std::pair<const int, IEC104WF::stPointTable> > >, std::less<int>, std::allocator<std::pair<const int, std::map<int, IEC104WF::stPointTable, std::less<int>, std::allocator<std::pair<const int, IEC104WF::stPointTable> > > > > > > > >::_M_leftmost
FUNC 312d0 12 0 std::_Rb_tree<std::basic_string<char, std::char_traits<char>, std::allocator<char> >, std::pair<const std::basic_string<char, std::char_traits<char>, std::allocator<char> >, std::map<int, std::map<int, IEC104WF::stPointTable, std::less<int>, std::allocator<std::pair<const int, IEC104WF::stPointTable> > >, std::less<int>, std::allocator<std::pair<const int, std::map<int, IEC104WF::stPointTable, std::less<int>, std::allocator<std::pair<const int, IEC104WF::stPointTable> > > > > > >, std::_Select1st<std::pair<const std::basic_string<char, std::char_traits<char>, std::allocator<char> >, std::map<int, std::map<int, IEC104WF::stPointTable, std::less<int>, std::allocator<std::pair<const int, IEC104WF::stPointTable> > >, std::less<int>, std::allocator<std::pair<const int, std::map<int, IEC104WF::stPointTable, std::less<int>, std::allocator<std::pair<const int, IEC104WF::stPointTable> > > > > > > >, std::less<std::basic_string<char, std::char_traits<char>, std::allocator<char> > >, std::allocator<std::pair<const std::basic_string<char, std::char_traits<char>, std::allocator<char> >, std::map<int, std::map<int, IEC104WF::stPointTable, std::less<int>, std::allocator<std::pair<const int, IEC104WF::stPointTable> > >, std::less<int>, std::allocator<std::pair<const int, std::map<int, IEC104WF::stPointTable, std::less<int>, std::allocator<std::pair<const int, IEC104WF::stPointTable> > > > > > > > >::_M_root
FUNC 312e2 12 0 std::_Rb_tree<std::basic_string<char, std::char_traits<char>, std::allocator<char> >, std::pair<const std::basic_string<char, std::char_traits<char>, std::allocator<char> >, std::map<int, std::map<int, IEC104WF::stPointTable, std::less<int>, std::allocator<std::pair<const int, IEC104WF::stPointTable> > >, std::less<int>, std::allocator<std::pair<const int, std::map<int, IEC104WF::stPointTable, std::less<int>, std::allocator<std::pair<const int, IEC104WF::stPointTable> > > > > > >, std::_Select1st<std::pair<const std::basic_string<char, std::char_traits<char>, std::allocator<char> >, std::map<int, std::map<int, IEC104WF::stPointTable, std::less<int>, std::allocator<std::pair<const int, IEC104WF::stPointTable> > >, std::less<int>, std::allocator<std::pair<const int, std::map<int, IEC104WF::stPointTable, std::less<int>, std::allocator<std::pair<const int, IEC104WF::stPointTable> > > > > > > >, std::less<std::basic_string<char, std::char_traits<char>, std::allocator<char> > >, std::allocator<std::pair<const std::basic_string<char, std::char_traits<char>, std::allocator<char> >, std::map<int, std::map<int, IEC104WF::stPointTable, std::less<int>, std::allocator<std::pair<const int, IEC104WF::stPointTable> > >, std::less<int>, std::allocator<std::pair<const int, std::map<int, IEC104WF::stPointTable, std::less<int>, std::allocator<std::pair<const int, IEC104WF::stPointTable> > > > > > > > >::_M_rightmost
FUNC 312f4 12 0 std::_Rb_tree<int, std::pair<const int, std::map<int, IEC104WF::stPointTable, std::less<int>, std::allocator<std::pair<const int, IEC104WF::stPointTable> > > >, std::_Select1st<std::pair<const int, std::map<int, IEC104WF::stPointTable, std::less<int>, std::allocator<std::pair<const int, IEC104WF::stPointTable> > > > >, std::less<int>, std::allocator<std::pair<const int, std::map<int, IEC104WF::stPointTable, std::less<int>, std::allocator<std::pair<const int, IEC104WF::stPointTable> > > > > >::_M_end
FUNC 31306 12 0 std::_Rb_tree<int, std::pair<const int, std::map<int, IEC104WF::stPointTable, std::less<int>, std::allocator<std::pair<const int, IEC104WF::stPointTable> > > >, std::_Select1st<std::pair<const int, std::map<int, IEC104WF::stPointTable, std::less<int>, std::allocator<std::pair<const int, IEC104WF::stPointTable> > > > >, std::less<int>, std::allocator<std::pair<const int, std::map<int, IEC104WF::stPointTable, std::less<int>, std::allocator<std::pair<const int, IEC104WF::stPointTable> > > > > >::_M_leftmost
FUNC 31318 12 0 std::_Rb_tree<int, std::pair<const int, std::map<int, IEC104WF::stPointTable, std::less<int>, std::allocator<std::pair<const int, IEC104WF::stPointTable> > > >, std::_Select1st<std::pair<const int, std::map<int, IEC104WF::stPointTable, std::less<int>, std::allocator<std::pair<const int, IEC104WF::stPointTable> > > > >, std::less<int>, std::allocator<std::pair<const int, std::map<int, IEC104WF::stPointTable, std::less<int>, std::allocator<std::pair<const int, IEC104WF::stPointTable> > > > > >::_M_root
FUNC 3132a 12 0 std::_Rb_tree<int, std::pair<const int, std::map<int, IEC104WF::stPointTable, std::less<int>, std::allocator<std::pair<const int, IEC104WF::stPointTable> > > >, std::_Select1st<std::pair<const int, std::map<int, IEC104WF::stPointTable, std::less<int>, std::allocator<std::pair<const int, IEC104WF::stPointTable> > > > >, std::less<int>, std::allocator<std::pair<const int, std::map<int, IEC104WF::stPointTable, std::less<int>, std::allocator<std::pair<const int, IEC104WF::stPointTable> > > > > >::_M_rightmost
FUNC 3133c 12 0 std::_Rb_tree<int, std::pair<const int, IEC104WF::stPointTable>, std::_Select1st<std::pair<const int, IEC104WF::stPointTable> >, std::less<int>, std::allocator<std::pair<const int, IEC104WF::stPointTable> > >::_M_end
FUNC 3134e 12 0 std::_Rb_tree<int, std::pair<const int, IEC104WF::stPointTable>, std::_Select1st<std::pair<const int, IEC104WF::stPointTable> >, std::less<int>, std::allocator<std::pair<const int, IEC104WF::stPointTable> > >::_M_leftmost
FUNC 31360 12 0 std::_Rb_tree<int, std::pair<const int, IEC104WF::stPointTable>, std::_Select1st<std::pair<const int, IEC104WF::stPointTable> >, std::less<int>, std::allocator<std::pair<const int, IEC104WF::stPointTable> > >::_M_root
FUNC 31372 12 0 std::_Rb_tree<int, std::pair<const int, IEC104WF::stPointTable>, std::_Select1st<std::pair<const int, IEC104WF::stPointTable> >, std::less<int>, std::allocator<std::pair<const int, IEC104WF::stPointTable> > >::_M_rightmost
FUNC 31384 e 0 std::_Rb_tree<std::basic_string<char, std::char_traits<char>, std::allocator<char> >, std::pair<const std::basic_string<char, std::char_traits<char>, std::allocator<char> >, std::map<int, std::map<int, IEC104WF::stPointTable, std::less<int>, std::allocator<std::pair<const int, IEC104WF::stPointTable> > >, std::less<int>, std::allocator<std::pair<const int, std::map<int, IEC104WF::stPointTable, std::less<int>, std::allocator<std::pair<const int, IEC104WF::stPointTable> > > > > > >, std::_Select1st<std::pair<const std::basic_string<char, std::char_traits<char>, std::allocator<char> >, std::map<int, std::map<int, IEC104WF::stPointTable, std::less<int>, std::allocator<std::pair<const int, IEC104WF::stPointTable> > >, std::less<int>, std::allocator<std::pair<const int, std::map<int, IEC104WF::stPointTable, std::less<int>, std::allocator<std::pair<const int, IEC104WF::stPointTable> > > > > > > >, std::less<std::basic_string<char, std::char_traits<char>, std::allocator<char> > >, std::allocator<std::pair<const std::basic_string<char, std::char_traits<char>, std::allocator<char> >, std::map<int, std::map<int, IEC104WF::stPointTable, std::less<int>, std::allocator<std::pair<const int, IEC104WF::stPointTable> > >, std::less<int>, std::allocator<std::pair<const int, std::map<int, IEC104WF::stPointTable, std::less<int>, std::allocator<std::pair<const int, IEC104WF::stPointTable> > > > > > > > >::_M_get_Node_allocator
FUNC 31392 70 0 std::_Rb_tree<std::basic_string<char, std::char_traits<char>, std::allocator<char> >, std::pair<const std::basic_string<char, std::char_traits<char>, std::allocator<char> >, std::map<int, std::map<int, IEC104WF::stPointTable, std::less<int>, std::allocator<std::pair<const int, IEC104WF::stPointTable> > >, std::less<int>, std::allocator<std::pair<const int, std::map<int, IEC104WF::stPointTable, std::less<int>, std::allocator<std::pair<const int, IEC104WF::stPointTable> > > > > > >, std::_Select1st<std::pair<const std::basic_string<char, std::char_traits<char>, std::allocator<char> >, std::map<int, std::map<int, IEC104WF::stPointTable, std::less<int>, std::allocator<std::pair<const int, IEC104WF::stPointTable> > >, std::less<int>, std::allocator<std::pair<const int, std::map<int, IEC104WF::stPointTable, std::less<int>, std::allocator<std::pair<const int, IEC104WF::stPointTable> > > > > > > >, std::less<std::basic_string<char, std::char_traits<char>, std::allocator<char> > >, std::allocator<std::pair<const std::basic_string<char, std::char_traits<char>, std::allocator<char> >, std::map<int, std::map<int, IEC104WF::stPointTable, std::less<int>, std::allocator<std::pair<const int, IEC104WF::stPointTable> > >, std::less<int>, std::allocator<std::pair<const int, std::map<int, IEC104WF::stPointTable, std::less<int>, std::allocator<std::pair<const int, IEC104WF::stPointTable> > > > > > > > >::_Rb_tree_impl<std::less<std::basic_string<char, std::char_traits<char>, std::allocator<char> > >, false>::_Rb_tree_impl
FUNC 31402 12 0 std::_Rb_tree<std::basic_string<char, std::char_traits<char>, std::allocator<char> >, std::pair<const std::basic_string<char, std::char_traits<char>, std::allocator<char> >, std::map<int, std::map<int, IEC104WF::stPointTable, std::less<int>, std::allocator<std::pair<const int, IEC104WF::stPointTable> > >, std::less<int>, std::allocator<std::pair<const int, std::map<int, IEC104WF::stPointTable, std::less<int>, std::allocator<std::pair<const int, IEC104WF::stPointTable> > > > > > >, std::_Select1st<std::pair<const std::basic_string<char, std::char_traits<char>, std::allocator<char> >, std::map<int, std::map<int, IEC104WF::stPointTable, std::less<int>, std::allocator<std::pair<const int, IEC104WF::stPointTable> > >, std::less<int>, std::allocator<std::pair<const int, std::map<int, IEC104WF::stPointTable, std::less<int>, std::allocator<std::pair<const int, IEC104WF::stPointTable> > > > > > > >, std::less<std::basic_string<char, std::char_traits<char>, std::allocator<char> > >, std::allocator<std::pair<const std::basic_string<char, std::char_traits<char>, std::allocator<char> >, std::map<int, std::map<int, IEC104WF::stPointTable, std::less<int>, std::allocator<std::pair<const int, IEC104WF::stPointTable> > >, std::less<int>, std::allocator<std::pair<const int, std::map<int, IEC104WF::stPointTable, std::less<int>, std::allocator<std::pair<const int, IEC104WF::stPointTable> > > > > > > > >::_M_root
FUNC 31414 169 0 std::_Rb_tree<std::basic_string<char, std::char_traits<char>, std::allocator<char> >, std::pair<const std::basic_string<char, std::char_traits<char>, std::allocator<char> >, std::map<int, std::map<int, IEC104WF::stPointTable, std::less<int>, std::allocator<std::pair<const int, IEC104WF::stPointTable> > >, std::less<int>, std::allocator<std::pair<const int, std::map<int, IEC104WF::stPointTable, std::less<int>, std::allocator<std::pair<const int, IEC104WF::stPointTable> > > > > > >, std::_Select1st<std::pair<const std::basic_string<char, std::char_traits<char>, std::allocator<char> >, std::map<int, std::map<int, IEC104WF::stPointTable, std::less<int>, std::allocator<std::pair<const int, IEC104WF::stPointTable> > >, std::less<int>, std::allocator<std::pair<const int, std::map<int, IEC104WF::stPointTable, std::less<int>, std::allocator<std::pair<const int, IEC104WF::stPointTable> > > > > > > >, std::less<std::basic_string<char, std::char_traits<char>, std::allocator<char> > >, std::allocator<std::pair<const std::basic_string<char, std::char_traits<char>, std::allocator<char> >, std::map<int, std::map<int, IEC104WF::stPointTable, std::less<int>, std::allocator<std::pair<const int, IEC104WF::stPointTable> > >, std::less<int>, std::allocator<std::pair<const int, std::map<int, IEC104WF::stPointTable, std::less<int>, std::allocator<std::pair<const int, IEC104WF::stPointTable> > > > > > > > >::_M_copy
FUNC 3157e 12 0 std::_Rb_tree<std::basic_string<char, std::char_traits<char>, std::allocator<char> >, std::pair<const std::basic_string<char, std::char_traits<char>, std::allocator<char> >, std::map<int, std::map<int, IEC104WF::stPointTable, std::less<int>, std::allocator<std::pair<const int, IEC104WF::stPointTable> > >, std::less<int>, std::allocator<std::pair<const int, std::map<int, IEC104WF::stPointTable, std::less<int>, std::allocator<std::pair<const int, IEC104WF::stPointTable> > > > > > >, std::_Select1st<std::pair<const std::basic_string<char, std::char_traits<char>, std::allocator<char> >, std::map<int, std::map<int, IEC104WF::stPointTable, std::less<int>, std::allocator<std::pair<const int, IEC104WF::stPointTable> > >, std::less<int>, std::allocator<std::pair<const int, std::map<int, IEC104WF::stPointTable, std::less<int>, std::allocator<std::pair<const int, IEC104WF::stPointTable> > > > > > > >, std::less<std::basic_string<char, std::char_traits<char>, std::allocator<char> > >, std::allocator<std::pair<const std::basic_string<char, std::char_traits<char>, std::allocator<char> >, std::map<int, std::map<int, IEC104WF::stPointTable, std::less<int>, std::allocator<std::pair<const int, IEC104WF::stPointTable> > >, std::less<int>, std::allocator<std::pair<const int, std::map<int, IEC104WF::stPointTable, std::less<int>, std::allocator<std::pair<const int, IEC104WF::stPointTable> > > > > > > > >::_M_begin
FUNC 31590 1a 0 std::_Rb_tree<std::basic_string<char, std::char_traits<char>, std::allocator<char> >, std::pair<const std::basic_string<char, std::char_traits<char>, std::allocator<char> >, std::map<int, std::map<int, IEC104WF::stPointTable, std::less<int>, std::allocator<std::pair<const int, IEC104WF::stPointTable> > >, std::less<int>, std::allocator<std::pair<const int, std::map<int, IEC104WF::stPointTable, std::less<int>, std::allocator<std::pair<const int, IEC104WF::stPointTable> > > > > > >, std::_Select1st<std::pair<const std::basic_string<char, std::char_traits<char>, std::allocator<char> >, std::map<int, std::map<int, IEC104WF::stPointTable, std::less<int>, std::allocator<std::pair<const int, IEC104WF::stPointTable> > >, std::less<int>, std::allocator<std::pair<const int, std::map<int, IEC104WF::stPointTable, std::less<int>, std::allocator<std::pair<const int, IEC104WF::stPointTable> > > > > > > >, std::less<std::basic_string<char, std::char_traits<char>, std::allocator<char> > >, std::allocator<std::pair<const std::basic_string<char, std::char_traits<char>, std::allocator<char> >, std::map<int, std::map<int, IEC104WF::stPointTable, std::less<int>, std::allocator<std::pair<const int, IEC104WF::stPointTable> > >, std::less<int>, std::allocator<std::pair<const int, std::map<int, IEC104WF::stPointTable, std::less<int>, std::allocator<std::pair<const int, IEC104WF::stPointTable> > > > > > > > >::_S_minimum
FUNC 315aa 1a 0 std::_Rb_tree<std::basic_string<char, std::char_traits<char>, std::allocator<char> >, std::pair<const std::basic_string<char, std::char_traits<char>, std::allocator<char> >, std::map<int, std::map<int, IEC104WF::stPointTable, std::less<int>, std::allocator<std::pair<const int, IEC104WF::stPointTable> > >, std::less<int>, std::allocator<std::pair<const int, std::map<int, IEC104WF::stPointTable, std::less<int>, std::allocator<std::pair<const int, IEC104WF::stPointTable> > > > > > >, std::_Select1st<std::pair<const std::basic_string<char, std::char_traits<char>, std::allocator<char> >, std::map<int, std::map<int, IEC104WF::stPointTable, std::less<int>, std::allocator<std::pair<const int, IEC104WF::stPointTable> > >, std::less<int>, std::allocator<std::pair<const int, std::map<int, IEC104WF::stPointTable, std::less<int>, std::allocator<std::pair<const int, IEC104WF::stPointTable> > > > > > > >, std::less<std::basic_string<char, std::char_traits<char>, std::allocator<char> > >, std::allocator<std::pair<const std::basic_string<char, std::char_traits<char>, std::allocator<char> >, std::map<int, std::map<int, IEC104WF::stPointTable, std::less<int>, std::allocator<std::pair<const int, IEC104WF::stPointTable> > >, std::less<int>, std::allocator<std::pair<const int, std::map<int, IEC104WF::stPointTable, std::less<int>, std::allocator<std::pair<const int, IEC104WF::stPointTable> > > > > > > > >::_S_maximum
FUNC 315c4 1e 0 std::allocator<std::_List_node<std::basic_string<char, std::char_traits<char>, std::allocator<char> > > >::allocator<std::basic_string<char, std::char_traits<char>, std::allocator<char> > >
FUNC 315e2 3c 0 std::_List_base<std::basic_string<char, std::char_traits<char>, std::allocator<char> >, std::allocator<std::basic_string<char, std::char_traits<char>, std::allocator<char> > > >::_List_impl::_List_impl
FUNC 3161e 19 0 std::_List_const_iterator<std::basic_string<char, std::char_traits<char>, std::allocator<char> > >::_List_const_iterator
FUNC 31638 22 0 std::_List_const_iterator<std::basic_string<char, std::char_traits<char>, std::allocator<char> > >::operator!=
FUNC 3165a 1f 0 std::_List_const_iterator<std::basic_string<char, std::char_traits<char>, std::allocator<char> > >::operator++
FUNC 3167a 15 0 std::_List_const_iterator<std::basic_string<char, std::char_traits<char>, std::allocator<char> > >::operator*
FUNC 31690 53 0 std::_Rb_tree<std::basic_string<char, std::char_traits<char>, std::allocator<char> >, std::pair<const std::basic_string<char, std::char_traits<char>, std::allocator<char> >, IEC61850_STRUCT::IED_61850>, std::_Select1st<std::pair<const std::basic_string<char, std::char_traits<char>, std::allocator<char> >, IEC61850_STRUCT::IED_61850> >, std::less<std::basic_string<char, std::char_traits<char>, std::allocator<char> > >, std::allocator<std::pair<const std::basic_string<char, std::char_traits<char>, std::allocator<char> >, IEC61850_STRUCT::IED_61850> > >::lower_bound
FUNC 316e4 a 0 std::_Rb_tree<std::basic_string<char, std::char_traits<char>, std::allocator<char> >, std::pair<const std::basic_string<char, std::char_traits<char>, std::allocator<char> >, IEC61850_STRUCT::IED_61850>, std::_Select1st<std::pair<const std::basic_string<char, std::char_traits<char>, std::allocator<char> >, IEC61850_STRUCT::IED_61850> >, std::less<std::basic_string<char, std::char_traits<char>, std::allocator<char> > >, std::allocator<std::pair<const std::basic_string<char, std::char_traits<char>, std::allocator<char> >, IEC61850_STRUCT::IED_61850> > >::key_comp
FUNC 316ee 2c 0 std::_Rb_tree<std::basic_string<char, std::char_traits<char>, std::allocator<char> >, std::pair<const std::basic_string<char, std::char_traits<char>, std::allocator<char> >, IEC61850_STRUCT::IED_61850>, std::_Select1st<std::pair<const std::basic_string<char, std::char_traits<char>, std::allocator<char> >, IEC61850_STRUCT::IED_61850> >, std::less<std::basic_string<char, std::char_traits<char>, std::allocator<char> > >, std::allocator<std::pair<const std::basic_string<char, std::char_traits<char>, std::allocator<char> >, IEC61850_STRUCT::IED_61850> > >::end
FUNC 3171a 1c 0 std::_Rb_tree_const_iterator<std::pair<const std::basic_string<char, std::char_traits<char>, std::allocator<char> >, IEC61850_STRUCT::IED_61850> >::_Rb_tree_const_iterator
FUNC 31736 4c0 0 std::_Rb_tree<std::basic_string<char, std::char_traits<char>, std::allocator<char> >, std::pair<const std::basic_string<char, std::char_traits<char>, std::allocator<char> >, IEC61850_STRUCT::IED_61850>, std::_Select1st<std::pair<const std::basic_string<char, std::char_traits<char>, std::allocator<char> >, IEC61850_STRUCT::IED_61850> >, std::less<std::basic_string<char, std::char_traits<char>, std::allocator<char> > >, std::allocator<std::pair<const std::basic_string<char, std::char_traits<char>, std::allocator<char> >, IEC61850_STRUCT::IED_61850> > >::_M_insert_unique_
FUNC 31bf6 53 0 std::_Rb_tree<int, std::pair<const int, IEC104WF::stPointTable>, std::_Select1st<std::pair<const int, IEC104WF::stPointTable> >, std::less<int>, std::allocator<std::pair<const int, IEC104WF::stPointTable> > >::lower_bound
FUNC 31c4a a 0 std::_Rb_tree<int, std::pair<const int, IEC104WF::stPointTable>, std::_Select1st<std::pair<const int, IEC104WF::stPointTable> >, std::less<int>, std::allocator<std::pair<const int, IEC104WF::stPointTable> > >::key_comp
FUNC 31c54 2c 0 std::_Rb_tree<int, std::pair<const int, IEC104WF::stPointTable>, std::_Select1st<std::pair<const int, IEC104WF::stPointTable> >, std::less<int>, std::allocator<std::pair<const int, IEC104WF::stPointTable> > >::end
FUNC 31c80 1c 0 std::_Rb_tree_const_iterator<std::pair<const int, IEC104WF::stPointTable> >::_Rb_tree_const_iterator
FUNC 31c9c 4c0 0 std::_Rb_tree<int, std::pair<const int, IEC104WF::stPointTable>, std::_Select1st<std::pair<const int, IEC104WF::stPointTable> >, std::less<int>, std::allocator<std::pair<const int, IEC104WF::stPointTable> > >::_M_insert_unique_
FUNC 3215c 53 0 std::_Rb_tree<int, std::pair<const int, std::map<int, IEC104WF::stPointTable, std::less<int>, std::allocator<std::pair<const int, IEC104WF::stPointTable> > > >, std::_Select1st<std::pair<const int, std::map<int, IEC104WF::stPointTable, std::less<int>, std::allocator<std::pair<const int, IEC104WF::stPointTable> > > > >, std::less<int>, std::allocator<std::pair<const int, std::map<int, IEC104WF::stPointTable, std::less<int>, std::allocator<std::pair<const int, IEC104WF::stPointTable> > > > > >::lower_bound
FUNC 321b0 a 0 std::_Rb_tree<int, std::pair<const int, std::map<int, IEC104WF::stPointTable, std::less<int>, std::allocator<std::pair<const int, IEC104WF::stPointTable> > > >, std::_Select1st<std::pair<const int, std::map<int, IEC104WF::stPointTable, std::less<int>, std::allocator<std::pair<const int, IEC104WF::stPointTable> > > > >, std::less<int>, std::allocator<std::pair<const int, std::map<int, IEC104WF::stPointTable, std::less<int>, std::allocator<std::pair<const int, IEC104WF::stPointTable> > > > > >::key_comp
FUNC 321ba 2c 0 std::_Rb_tree<int, std::pair<const int, std::map<int, IEC104WF::stPointTable, std::less<int>, std::allocator<std::pair<const int, IEC104WF::stPointTable> > > >, std::_Select1st<std::pair<const int, std::map<int, IEC104WF::stPointTable, std::less<int>, std::allocator<std::pair<const int, IEC104WF::stPointTable> > > > >, std::less<int>, std::allocator<std::pair<const int, std::map<int, IEC104WF::stPointTable, std::less<int>, std::allocator<std::pair<const int, IEC104WF::stPointTable> > > > > >::end
FUNC 321e6 25 0 std::map<int, IEC104WF::stPointTable, std::less<int>, std::allocator<std::pair<const int, IEC104WF::stPointTable> > >::map
FUNC 3220c 1c 0 std::_Rb_tree_const_iterator<std::pair<const int, std::map<int, IEC104WF::stPointTable, std::less<int>, std::allocator<std::pair<const int, IEC104WF::stPointTable> > > > >::_Rb_tree_const_iterator
FUNC 32228 4c0 0 std::_Rb_tree<int, std::pair<const int, std::map<int, IEC104WF::stPointTable, std::less<int>, std::allocator<std::pair<const int, IEC104WF::stPointTable> > > >, std::_Select1st<std::pair<const int, std::map<int, IEC104WF::stPointTable, std::less<int>, std::allocator<std::pair<const int, IEC104WF::stPointTable> > > > >, std::less<int>, std::allocator<std::pair<const int, std::map<int, IEC104WF::stPointTable, std::less<int>, std::allocator<std::pair<const int, IEC104WF::stPointTable> > > > > >::_M_insert_unique_
FUNC 326e8 12 0 std::_Rb_tree<int, std::pair<const int, IEC104WF::stPointTable>, std::_Select1st<std::pair<const int, IEC104WF::stPointTable> >, std::less<int>, std::allocator<std::pair<const int, IEC104WF::stPointTable> > >::_M_root
FUNC 326fa 169 0 std::_Rb_tree<int, std::pair<const int, IEC104WF::stPointTable>, std::_Select1st<std::pair<const int, IEC104WF::stPointTable> >, std::less<int>, std::allocator<std::pair<const int, IEC104WF::stPointTable> > >::_M_copy
FUNC 32864 12 0 std::_Rb_tree<int, std::pair<const int, IEC104WF::stPointTable>, std::_Select1st<std::pair<const int, IEC104WF::stPointTable> >, std::less<int>, std::allocator<std::pair<const int, IEC104WF::stPointTable> > >::_M_begin
FUNC 32876 1a 0 std::_Rb_tree<int, std::pair<const int, IEC104WF::stPointTable>, std::_Select1st<std::pair<const int, IEC104WF::stPointTable> >, std::less<int>, std::allocator<std::pair<const int, IEC104WF::stPointTable> > >::_S_minimum
FUNC 32890 1a 0 std::_Rb_tree<int, std::pair<const int, IEC104WF::stPointTable>, std::_Select1st<std::pair<const int, IEC104WF::stPointTable> >, std::less<int>, std::allocator<std::pair<const int, IEC104WF::stPointTable> > >::_S_maximum
FUNC 328aa 53 0 std::_Rb_tree<std::basic_string<char, std::char_traits<char>, std::allocator<char> >, std::pair<const std::basic_string<char, std::char_traits<char>, std::allocator<char> >, std::map<int, std::map<int, IEC104WF::stPointTable, std::less<int>, std::allocator<std::pair<const int, IEC104WF::stPointTable> > >, std::less<int>, std::allocator<std::pair<const int, std::map<int, IEC104WF::stPointTable, std::less<int>, std::allocator<std::pair<const int, IEC104WF::stPointTable> > > > > > >, std::_Select1st<std::pair<const std::basic_string<char, std::char_traits<char>, std::allocator<char> >, std::map<int, std::map<int, IEC104WF::stPointTable, std::less<int>, std::allocator<std::pair<const int, IEC104WF::stPointTable> > >, std::less<int>, std::allocator<std::pair<const int, std::map<int, IEC104WF::stPointTable, std::less<int>, std::allocator<std::pair<const int, IEC104WF::stPointTable> > > > > > > >, std::less<std::basic_string<char, std::char_traits<char>, std::allocator<char> > >, std::allocator<std::pair<const std::basic_string<char, std::char_traits<char>, std::allocator<char> >, std::map<int, std::map<int, IEC104WF::stPointTable, std::less<int>, std::allocator<std::pair<const int, IEC104WF::stPointTable> > >, std::less<int>, std::allocator<std::pair<const int, std::map<int, IEC104WF::stPointTable, std::less<int>, std::allocator<std::pair<const int, IEC104WF::stPointTable> > > > > > > > >::lower_bound
FUNC 328fe a 0 std::_Rb_tree<std::basic_string<char, std::char_traits<char>, std::allocator<char> >, std::pair<const std::basic_string<char, std::char_traits<char>, std::allocator<char> >, std::map<int, std::map<int, IEC104WF::stPointTable, std::less<int>, std::allocator<std::pair<const int, IEC104WF::stPointTable> > >, std::less<int>, std::allocator<std::pair<const int, std::map<int, IEC104WF::stPointTable, std::less<int>, std::allocator<std::pair<const int, IEC104WF::stPointTable> > > > > > >, std::_Select1st<std::pair<const std::basic_string<char, std::char_traits<char>, std::allocator<char> >, std::map<int, std::map<int, IEC104WF::stPointTable, std::less<int>, std::allocator<std::pair<const int, IEC104WF::stPointTable> > >, std::less<int>, std::allocator<std::pair<const int, std::map<int, IEC104WF::stPointTable, std::less<int>, std::allocator<std::pair<const int, IEC104WF::stPointTable> > > > > > > >, std::less<std::basic_string<char, std::char_traits<char>, std::allocator<char> > >, std::allocator<std::pair<const std::basic_string<char, std::char_traits<char>, std::allocator<char> >, std::map<int, std::map<int, IEC104WF::stPointTable, std::less<int>, std::allocator<std::pair<const int, IEC104WF::stPointTable> > >, std::less<int>, std::allocator<std::pair<const int, std::map<int, IEC104WF::stPointTable, std::less<int>, std::allocator<std::pair<const int, IEC104WF::stPointTable> > > > > > > > >::key_comp
FUNC 32908 2c 0 std::_Rb_tree<std::basic_string<char, std::char_traits<char>, std::allocator<char> >, std::pair<const std::basic_string<char, std::char_traits<char>, std::allocator<char> >, std::map<int, std::map<int, IEC104WF::stPointTable, std::less<int>, std::allocator<std::pair<const int, IEC104WF::stPointTable> > >, std::less<int>, std::allocator<std::pair<const int, std::map<int, IEC104WF::stPointTable, std::less<int>, std::allocator<std::pair<const int, IEC104WF::stPointTable> > > > > > >, std::_Select1st<std::pair<const std::basic_string<char, std::char_traits<char>, std::allocator<char> >, std::map<int, std::map<int, IEC104WF::stPointTable, std::less<int>, std::allocator<std::pair<const int, IEC104WF::stPointTable> > >, std::less<int>, std::allocator<std::pair<const int, std::map<int, IEC104WF::stPointTable, std::less<int>, std::allocator<std::pair<const int, IEC104WF::stPointTable> > > > > > > >, std::less<std::basic_string<char, std::char_traits<char>, std::allocator<char> > >, std::allocator<std::pair<const std::basic_string<char, std::char_traits<char>, std::allocator<char> >, std::map<int, std::map<int, IEC104WF::stPointTable, std::less<int>, std::allocator<std::pair<const int, IEC104WF::stPointTable> > >, std::less<int>, std::allocator<std::pair<const int, std::map<int, IEC104WF::stPointTable, std::less<int>, std::allocator<std::pair<const int, IEC104WF::stPointTable> > > > > > > > >::end
FUNC 32934 25 0 std::map<int, std::map<int, IEC104WF::stPointTable, std::less<int>, std::allocator<std::pair<const int, IEC104WF::stPointTable> > >, std::less<int>, std::allocator<std::pair<const int, std::map<int, IEC104WF::stPointTable, std::less<int>, std::allocator<std::pair<const int, IEC104WF::stPointTable> > > > > >::map
FUNC 3295a 1c 0 std::_Rb_tree_const_iterator<std::pair<const std::basic_string<char, std::char_traits<char>, std::allocator<char> >, std::map<int, std::map<int, IEC104WF::stPointTable, std::less<int>, std::allocator<std::pair<const int, IEC104WF::stPointTable> > >, std::less<int>, std::allocator<std::pair<const int, std::map<int, IEC104WF::stPointTable, std::less<int>, std::allocator<std::pair<const int, IEC104WF::stPointTable> > > > > > > >::_Rb_tree_const_iterator
FUNC 32976 4c0 0 std::_Rb_tree<std::basic_string<char, std::char_traits<char>, std::allocator<char> >, std::pair<const std::basic_string<char, std::char_traits<char>, std::allocator<char> >, std::map<int, std::map<int, IEC104WF::stPointTable, std::less<int>, std::allocator<std::pair<const int, IEC104WF::stPointTable> > >, std::less<int>, std::allocator<std::pair<const int, std::map<int, IEC104WF::stPointTable, std::less<int>, std::allocator<std::pair<const int, IEC104WF::stPointTable> > > > > > >, std::_Select1st<std::pair<const std::basic_string<char, std::char_traits<char>, std::allocator<char> >, std::map<int, std::map<int, IEC104WF::stPointTable, std::less<int>, std::allocator<std::pair<const int, IEC104WF::stPointTable> > >, std::less<int>, std::allocator<std::pair<const int, std::map<int, IEC104WF::stPointTable, std::less<int>, std::allocator<std::pair<const int, IEC104WF::stPointTable> > > > > > > >, std::less<std::basic_string<char, std::char_traits<char>, std::allocator<char> > >, std::allocator<std::pair<const std::basic_string<char, std::char_traits<char>, std::allocator<char> >, std::map<int, std::map<int, IEC104WF::stPointTable, std::less<int>, std::allocator<std::pair<const int, IEC104WF::stPointTable> > >, std::less<int>, std::allocator<std::pair<const int, std::map<int, IEC104WF::stPointTable, std::less<int>, std::allocator<std::pair<const int, IEC104WF::stPointTable> > > > > > > > >::_M_insert_unique_
FUNC 32e36 12 0 std::_Rb_tree<int, std::pair<const int, std::map<int, IEC104WF::stPointTable, std::less<int>, std::allocator<std::pair<const int, IEC104WF::stPointTable> > > >, std::_Select1st<std::pair<const int, std::map<int, IEC104WF::stPointTable, std::less<int>, std::allocator<std::pair<const int, IEC104WF::stPointTable> > > > >, std::less<int>, std::allocator<std::pair<const int, std::map<int, IEC104WF::stPointTable, std::less<int>, std::allocator<std::pair<const int, IEC104WF::stPointTable> > > > > >::_M_root
FUNC 32e48 169 0 std::_Rb_tree<int, std::pair<const int, std::map<int, IEC104WF::stPointTable, std::less<int>, std::allocator<std::pair<const int, IEC104WF::stPointTable> > > >, std::_Select1st<std::pair<const int, std::map<int, IEC104WF::stPointTable, std::less<int>, std::allocator<std::pair<const int, IEC104WF::stPointTable> > > > >, std::less<int>, std::allocator<std::pair<const int, std::map<int, IEC104WF::stPointTable, std::less<int>, std::allocator<std::pair<const int, IEC104WF::stPointTable> > > > > >::_M_copy
FUNC 32fb2 12 0 std::_Rb_tree<int, std::pair<const int, std::map<int, IEC104WF::stPointTable, std::less<int>, std::allocator<std::pair<const int, IEC104WF::stPointTable> > > >, std::_Select1st<std::pair<const int, std::map<int, IEC104WF::stPointTable, std::less<int>, std::allocator<std::pair<const int, IEC104WF::stPointTable> > > > >, std::less<int>, std::allocator<std::pair<const int, std::map<int, IEC104WF::stPointTable, std::less<int>, std::allocator<std::pair<const int, IEC104WF::stPointTable> > > > > >::_M_begin
FUNC 32fc4 1a 0 std::_Rb_tree<int, std::pair<const int, std::map<int, IEC104WF::stPointTable, std::less<int>, std::allocator<std::pair<const int, IEC104WF::stPointTable> > > >, std::_Select1st<std::pair<const int, std::map<int, IEC104WF::stPointTable, std::less<int>, std::allocator<std::pair<const int, IEC104WF::stPointTable> > > > >, std::less<int>, std::allocator<std::pair<const int, std::map<int, IEC104WF::stPointTable, std::less<int>, std::allocator<std::pair<const int, IEC104WF::stPointTable> > > > > >::_S_minimum
FUNC 32fde 1a 0 std::_Rb_tree<int, std::pair<const int, std::map<int, IEC104WF::stPointTable, std::less<int>, std::allocator<std::pair<const int, IEC104WF::stPointTable> > > >, std::_Select1st<std::pair<const int, std::map<int, IEC104WF::stPointTable, std::less<int>, std::allocator<std::pair<const int, IEC104WF::stPointTable> > > > >, std::less<int>, std::allocator<std::pair<const int, std::map<int, IEC104WF::stPointTable, std::less<int>, std::allocator<std::pair<const int, IEC104WF::stPointTable> > > > > >::_S_maximum
FUNC 32ff8 53 0 std::_Rb_tree<std::basic_string<char, std::char_traits<char>, std::allocator<char> >, std::pair<const std::basic_string<char, std::char_traits<char>, std::allocator<char> >, IEC103::stConfigParam>, std::_Select1st<std::pair<const std::basic_string<char, std::char_traits<char>, std::allocator<char> >, IEC103::stConfigParam> >, std::less<std::basic_string<char, std::char_traits<char>, std::allocator<char> > >, std::allocator<std::pair<const std::basic_string<char, std::char_traits<char>, std::allocator<char> >, IEC103::stConfigParam> > >::lower_bound
FUNC 3304c a 0 std::_Rb_tree<std::basic_string<char, std::char_traits<char>, std::allocator<char> >, std::pair<const std::basic_string<char, std::char_traits<char>, std::allocator<char> >, IEC103::stConfigParam>, std::_Select1st<std::pair<const std::basic_string<char, std::char_traits<char>, std::allocator<char> >, IEC103::stConfigParam> >, std::less<std::basic_string<char, std::char_traits<char>, std::allocator<char> > >, std::allocator<std::pair<const std::basic_string<char, std::char_traits<char>, std::allocator<char> >, IEC103::stConfigParam> > >::key_comp
FUNC 33056 2c 0 std::_Rb_tree<std::basic_string<char, std::char_traits<char>, std::allocator<char> >, std::pair<const std::basic_string<char, std::char_traits<char>, std::allocator<char> >, IEC103::stConfigParam>, std::_Select1st<std::pair<const std::basic_string<char, std::char_traits<char>, std::allocator<char> >, IEC103::stConfigParam> >, std::less<std::basic_string<char, std::char_traits<char>, std::allocator<char> > >, std::allocator<std::pair<const std::basic_string<char, std::char_traits<char>, std::allocator<char> >, IEC103::stConfigParam> > >::end
FUNC 33082 1c 0 std::_Rb_tree_const_iterator<std::pair<const std::basic_string<char, std::char_traits<char>, std::allocator<char> >, IEC103::stConfigParam> >::_Rb_tree_const_iterator
FUNC 3309e 4c0 0 std::_Rb_tree<std::basic_string<char, std::char_traits<char>, std::allocator<char> >, std::pair<const std::basic_string<char, std::char_traits<char>, std::allocator<char> >, IEC103::stConfigParam>, std::_Select1st<std::pair<const std::basic_string<char, std::char_traits<char>, std::allocator<char> >, IEC103::stConfigParam> >, std::less<std::basic_string<char, std::char_traits<char>, std::allocator<char> > >, std::allocator<std::pair<const std::basic_string<char, std::char_traits<char>, std::allocator<char> >, IEC103::stConfigParam> > >::_M_insert_unique_
FUNC 3355e 53 0 std::_Rb_tree<std::basic_string<char, std::char_traits<char>, std::allocator<char> >, std::pair<const std::basic_string<char, std::char_traits<char>, std::allocator<char> >, std::map<std::basic_string<char, std::char_traits<char>, std::allocator<char> >, std::basic_string<char, std::char_traits<char>, std::allocator<char> >, std::less<std::basic_string<char, std::char_traits<char>, std::allocator<char> > >, std::allocator<std::pair<const std::basic_string<char, std::char_traits<char>, std::allocator<char> >, std::basic_string<char, std::char_traits<char>, std::allocator<char> > > > > >, std::_Select1st<std::pair<const std::basic_string<char, std::char_traits<char>, std::allocator<char> >, std::map<std::basic_string<char, std::char_traits<char>, std::allocator<char> >, std::basic_string<char, std::char_traits<char>, std::allocator<char> >, std::less<std::basic_string<char, std::char_traits<char>, std::allocator<char> > >, std::allocator<std::pair<const std::basic_string<char, std::char_traits<char>, std::allocator<char> >, std::basic_string<char, std::char_traits<char>, std::allocator<char> > > > > > >, std::less<std::basic_string<char, std::char_traits<char>, std::allocator<char> > >, std::allocator<std::pair<const std::basic_string<char, std::char_traits<char>, std::allocator<char> >, std::map<std::basic_string<char, std::char_traits<char>, std::allocator<char> >, std::basic_string<char, std::char_traits<char>, std::allocator<char> >, std::less<std::basic_string<char, std::char_traits<char>, std::allocator<char> > >, std::allocator<std::pair<const std::basic_string<char, std::char_traits<char>, std::allocator<char> >, std::basic_string<char, std::char_traits<char>, std::allocator<char> > > > > > > >::lower_bound
FUNC 335b2 a 0 std::_Rb_tree<std::basic_string<char, std::char_traits<char>, std::allocator<char> >, std::pair<const std::basic_string<char, std::char_traits<char>, std::allocator<char> >, std::map<std::basic_string<char, std::char_traits<char>, std::allocator<char> >, std::basic_string<char, std::char_traits<char>, std::allocator<char> >, std::less<std::basic_string<char, std::char_traits<char>, std::allocator<char> > >, std::allocator<std::pair<const std::basic_string<char, std::char_traits<char>, std::allocator<char> >, std::basic_string<char, std::char_traits<char>, std::allocator<char> > > > > >, std::_Select1st<std::pair<const std::basic_string<char, std::char_traits<char>, std::allocator<char> >, std::map<std::basic_string<char, std::char_traits<char>, std::allocator<char> >, std::basic_string<char, std::char_traits<char>, std::allocator<char> >, std::less<std::basic_string<char, std::char_traits<char>, std::allocator<char> > >, std::allocator<std::pair<const std::basic_string<char, std::char_traits<char>, std::allocator<char> >, std::basic_string<char, std::char_traits<char>, std::allocator<char> > > > > > >, std::less<std::basic_string<char, std::char_traits<char>, std::allocator<char> > >, std::allocator<std::pair<const std::basic_string<char, std::char_traits<char>, std::allocator<char> >, std::map<std::basic_string<char, std::char_traits<char>, std::allocator<char> >, std::basic_string<char, std::char_traits<char>, std::allocator<char> >, std::less<std::basic_string<char, std::char_traits<char>, std::allocator<char> > >, std::allocator<std::pair<const std::basic_string<char, std::char_traits<char>, std::allocator<char> >, std::basic_string<char, std::char_traits<char>, std::allocator<char> > > > > > > >::key_comp
FUNC 335bc 1c 0 std::_Rb_tree_const_iterator<std::pair<const std::basic_string<char, std::char_traits<char>, std::allocator<char> >, std::map<std::basic_string<char, std::char_traits<char>, std::allocator<char> >, std::basic_string<char, std::char_traits<char>, std::allocator<char> >, std::less<std::basic_string<char, std::char_traits<char>, std::allocator<char> > >, std::allocator<std::pair<const std::basic_string<char, std::char_traits<char>, std::allocator<char> >, std::basic_string<char, std::char_traits<char>, std::allocator<char> > > > > > >::_Rb_tree_const_iterator
FUNC 335d8 4c0 0 std::_Rb_tree<std::basic_string<char, std::char_traits<char>, std::allocator<char> >, std::pair<const std::basic_string<char, std::char_traits<char>, std::allocator<char> >, std::map<std::basic_string<char, std::char_traits<char>, std::allocator<char> >, std::basic_string<char, std::char_traits<char>, std::allocator<char> >, std::less<std::basic_string<char, std::char_traits<char>, std::allocator<char> > >, std::allocator<std::pair<const std::basic_string<char, std::char_traits<char>, std::allocator<char> >, std::basic_string<char, std::char_traits<char>, std::allocator<char> > > > > >, std::_Select1st<std::pair<const std::basic_string<char, std::char_traits<char>, std::allocator<char> >, std::map<std::basic_string<char, std::char_traits<char>, std::allocator<char> >, std::basic_string<char, std::char_traits<char>, std::allocator<char> >, std::less<std::basic_string<char, std::char_traits<char>, std::allocator<char> > >, std::allocator<std::pair<const std::basic_string<char, std::char_traits<char>, std::allocator<char> >, std::basic_string<char, std::char_traits<char>, std::allocator<char> > > > > > >, std::less<std::basic_string<char, std::char_traits<char>, std::allocator<char> > >, std::allocator<std::pair<const std::basic_string<char, std::char_traits<char>, std::allocator<char> >, std::map<std::basic_string<char, std::char_traits<char>, std::allocator<char> >, std::basic_string<char, std::char_traits<char>, std::allocator<char> >, std::less<std::basic_string<char, std::char_traits<char>, std::allocator<char> > >, std::allocator<std::pair<const std::basic_string<char, std::char_traits<char>, std::allocator<char> >, std::basic_string<char, std::char_traits<char>, std::allocator<char> > > > > > > >::_M_insert_unique_
FUNC 33a98 19 0 std::_List_iterator<std::basic_string<char, std::char_traits<char>, std::allocator<char> > >::_List_iterator
FUNC 33ab2 bb 0 std::list<std::basic_string<char, std::char_traits<char>, std::allocator<char> >, std::allocator<std::basic_string<char, std::char_traits<char>, std::allocator<char> > > >::_M_create_node
FUNC 33b6e 1a 0 std::allocator<std::_Rb_tree_node<std::pair<const std::basic_string<char, std::char_traits<char>, std::allocator<char> >, IEC61850_STRUCT::IED_61850> > >::allocator
FUNC 33b88 41 0 std::_Rb_tree<std::basic_string<char, std::char_traits<char>, std::allocator<char> >, std::pair<const std::basic_string<char, std::char_traits<char>, std::allocator<char> >, IEC61850_STRUCT::IED_61850>, std::_Select1st<std::pair<const std::basic_string<char, std::char_traits<char>, std::allocator<char> >, IEC61850_STRUCT::IED_61850> >, std::less<std::basic_string<char, std::char_traits<char>, std::allocator<char> > >, std::allocator<std::pair<const std::basic_string<char, std::char_traits<char>, std::allocator<char> >, IEC61850_STRUCT::IED_61850> > >::_Rb_tree_impl<std::less<std::basic_string<char, std::char_traits<char>, std::allocator<char> > >, false>::_M_initialize
FUNC 33bca 3b 0 std::_Rb_tree<std::basic_string<char, std::char_traits<char>, std::allocator<char> >, std::pair<const std::basic_string<char, std::char_traits<char>, std::allocator<char> >, IEC61850_STRUCT::IED_61850>, std::_Select1st<std::pair<const std::basic_string<char, std::char_traits<char>, std::allocator<char> >, IEC61850_STRUCT::IED_61850> >, std::less<std::basic_string<char, std::char_traits<char>, std::allocator<char> > >, std::allocator<std::pair<const std::basic_string<char, std::char_traits<char>, std::allocator<char> >, IEC61850_STRUCT::IED_61850> > >::get_allocator
FUNC 33c06 1a 0 std::allocator<std::pair<const std::basic_string<char, std::char_traits<char>, std::allocator<char> >, IEC61850_STRUCT::IED_61850> >::~allocator
FUNC 33c20 1e 0 __gnu_cxx::new_allocator<std::pair<const std::basic_string<char, std::char_traits<char>, std::allocator<char> >, IEC61850_STRUCT::IED_61850> >::destroy
FUNC 33c3e 2a 0 std::_Rb_tree<std::basic_string<char, std::char_traits<char>, std::allocator<char> >, std::pair<const std::basic_string<char, std::char_traits<char>, std::allocator<char> >, IEC61850_STRUCT::IED_61850>, std::_Select1st<std::pair<const std::basic_string<char, std::char_traits<char>, std::allocator<char> >, IEC61850_STRUCT::IED_61850> >, std::less<std::basic_string<char, std::char_traits<char>, std::allocator<char> > >, std::allocator<std::pair<const std::basic_string<char, std::char_traits<char>, std::allocator<char> >, IEC61850_STRUCT::IED_61850> > >::_M_put_node
FUNC 33c68 1a 0 std::allocator<std::_List_node<std::basic_string<char, std::char_traits<char>, std::allocator<char> > > >::allocator
FUNC 33c82 25 0 std::allocator<std::basic_string<char, std::char_traits<char>, std::allocator<char> > >::allocator
FUNC 33ca8 22 0 __gnu_cxx::new_allocator<std::_List_node<std::basic_string<char, std::char_traits<char>, std::allocator<char> > > >::deallocate
FUNC 33cca 1a 0 std::allocator<std::_Rb_tree_node<std::pair<const std::basic_string<char, std::char_traits<char>, std::allocator<char> >, std::map<int, std::map<int, IEC104WF::stPointTable, std::less<int>, std::allocator<std::pair<const int, IEC104WF::stPointTable> > >, std::less<int>, std::allocator<std::pair<const int, std::map<int, IEC104WF::stPointTable, std::less<int>, std::allocator<std::pair<const int, IEC104WF::stPointTable> > > > > > > > >::allocator
FUNC 33ce4 41 0 std::_Rb_tree<std::basic_string<char, std::char_traits<char>, std::allocator<char> >, std::pair<const std::basic_string<char, std::char_traits<char>, std::allocator<char> >, std::map<int, std::map<int, IEC104WF::stPointTable, std::less<int>, std::allocator<std::pair<const int, IEC104WF::stPointTable> > >, std::less<int>, std::allocator<std::pair<const int, std::map<int, IEC104WF::stPointTable, std::less<int>, std::allocator<std::pair<const int, IEC104WF::stPointTable> > > > > > >, std::_Select1st<std::pair<const std::basic_string<char, std::char_traits<char>, std::allocator<char> >, std::map<int, std::map<int, IEC104WF::stPointTable, std::less<int>, std::allocator<std::pair<const int, IEC104WF::stPointTable> > >, std::less<int>, std::allocator<std::pair<const int, std::map<int, IEC104WF::stPointTable, std::less<int>, std::allocator<std::pair<const int, IEC104WF::stPointTable> > > > > > > >, std::less<std::basic_string<char, std::char_traits<char>, std::allocator<char> > >, std::allocator<std::pair<const std::basic_string<char, std::char_traits<char>, std::allocator<char> >, std::map<int, std::map<int, IEC104WF::stPointTable, std::less<int>, std::allocator<std::pair<const int, IEC104WF::stPointTable> > >, std::less<int>, std::allocator<std::pair<const int, std::map<int, IEC104WF::stPointTable, std::less<int>, std::allocator<std::pair<const int, IEC104WF::stPointTable> > > > > > > > >::_Rb_tree_impl<std::less<std::basic_string<char, std::char_traits<char>, std::allocator<char> > >, false>::_M_initialize
FUNC 33d26 3b 0 std::_Rb_tree<std::basic_string<char, std::char_traits<char>, std::allocator<char> >, std::pair<const std::basic_string<char, std::char_traits<char>, std::allocator<char> >, std::map<int, std::map<int, IEC104WF::stPointTable, std::less<int>, std::allocator<std::pair<const int, IEC104WF::stPointTable> > >, std::less<int>, std::allocator<std::pair<const int, std::map<int, IEC104WF::stPointTable, std::less<int>, std::allocator<std::pair<const int, IEC104WF::stPointTable> > > > > > >, std::_Select1st<std::pair<const std::basic_string<char, std::char_traits<char>, std::allocator<char> >, std::map<int, std::map<int, IEC104WF::stPointTable, std::less<int>, std::allocator<std::pair<const int, IEC104WF::stPointTable> > >, std::less<int>, std::allocator<std::pair<const int, std::map<int, IEC104WF::stPointTable, std::less<int>, std::allocator<std::pair<const int, IEC104WF::stPointTable> > > > > > > >, std::less<std::basic_string<char, std::char_traits<char>, std::allocator<char> > >, std::allocator<std::pair<const std::basic_string<char, std::char_traits<char>, std::allocator<char> >, std::map<int, std::map<int, IEC104WF::stPointTable, std::less<int>, std::allocator<std::pair<const int, IEC104WF::stPointTable> > >, std::less<int>, std::allocator<std::pair<const int, std::map<int, IEC104WF::stPointTable, std::less<int>, std::allocator<std::pair<const int, IEC104WF::stPointTable> > > > > > > > >::get_allocator
FUNC 33d62 1a 0 std::allocator<std::pair<const std::basic_string<char, std::char_traits<char>, std::allocator<char> >, std::map<int, std::map<int, IEC104WF::stPointTable, std::less<int>, std::allocator<std::pair<const int, IEC104WF::stPointTable> > >, std::less<int>, std::allocator<std::pair<const int, std::map<int, IEC104WF::stPointTable, std::less<int>, std::allocator<std::pair<const int, IEC104WF::stPointTable> > > > > > > >::~allocator
FUNC 33d7c 1e 0 __gnu_cxx::new_allocator<std::pair<const std::basic_string<char, std::char_traits<char>, std::allocator<char> >, std::map<int, std::map<int, IEC104WF::stPointTable, std::less<int>, std::allocator<std::pair<const int, IEC104WF::stPointTable> > >, std::less<int>, std::allocator<std::pair<const int, std::map<int, IEC104WF::stPointTable, std::less<int>, std::allocator<std::pair<const int, IEC104WF::stPointTable> > > > > > > >::destroy
FUNC 33d9a 2a 0 std::_Rb_tree<std::basic_string<char, std::char_traits<char>, std::allocator<char> >, std::pair<const std::basic_string<char, std::char_traits<char>, std::allocator<char> >, std::map<int, std::map<int, IEC104WF::stPointTable, std::less<int>, std::allocator<std::pair<const int, IEC104WF::stPointTable> > >, std::less<int>, std::allocator<std::pair<const int, std::map<int, IEC104WF::stPointTable, std::less<int>, std::allocator<std::pair<const int, IEC104WF::stPointTable> > > > > > >, std::_Select1st<std::pair<const std::basic_string<char, std::char_traits<char>, std::allocator<char> >, std::map<int, std::map<int, IEC104WF::stPointTable, std::less<int>, std::allocator<std::pair<const int, IEC104WF::stPointTable> > >, std::less<int>, std::allocator<std::pair<const int, std::map<int, IEC104WF::stPointTable, std::less<int>, std::allocator<std::pair<const int, IEC104WF::stPointTable> > > > > > > >, std::less<std::basic_string<char, std::char_traits<char>, std::allocator<char> > >, std::allocator<std::pair<const std::basic_string<char, std::char_traits<char>, std::allocator<char> >, std::map<int, std::map<int, IEC104WF::stPointTable, std::less<int>, std::allocator<std::pair<const int, IEC104WF::stPointTable> > >, std::less<int>, std::allocator<std::pair<const int, std::map<int, IEC104WF::stPointTable, std::less<int>, std::allocator<std::pair<const int, IEC104WF::stPointTable> > > > > > > > >::_M_put_node
FUNC 33dc4 1a 0 std::allocator<std::_Rb_tree_node<std::pair<const int, std::map<int, IEC104WF::stPointTable, std::less<int>, std::allocator<std::pair<const int, IEC104WF::stPointTable> > > > > >::allocator
FUNC 33dde 41 0 std::_Rb_tree<int, std::pair<const int, std::map<int, IEC104WF::stPointTable, std::less<int>, std::allocator<std::pair<const int, IEC104WF::stPointTable> > > >, std::_Select1st<std::pair<const int, std::map<int, IEC104WF::stPointTable, std::less<int>, std::allocator<std::pair<const int, IEC104WF::stPointTable> > > > >, std::less<int>, std::allocator<std::pair<const int, std::map<int, IEC104WF::stPointTable, std::less<int>, std::allocator<std::pair<const int, IEC104WF::stPointTable> > > > > >::_Rb_tree_impl<std::less<int>, false>::_M_initialize
FUNC 33e20 3b 0 std::_Rb_tree<int, std::pair<const int, std::map<int, IEC104WF::stPointTable, std::less<int>, std::allocator<std::pair<const int, IEC104WF::stPointTable> > > >, std::_Select1st<std::pair<const int, std::map<int, IEC104WF::stPointTable, std::less<int>, std::allocator<std::pair<const int, IEC104WF::stPointTable> > > > >, std::less<int>, std::allocator<std::pair<const int, std::map<int, IEC104WF::stPointTable, std::less<int>, std::allocator<std::pair<const int, IEC104WF::stPointTable> > > > > >::get_allocator
FUNC 33e5c 1a 0 std::allocator<std::pair<const int, std::map<int, IEC104WF::stPointTable, std::less<int>, std::allocator<std::pair<const int, IEC104WF::stPointTable> > > > >::~allocator
FUNC 33e76 1e 0 __gnu_cxx::new_allocator<std::pair<const int, std::map<int, IEC104WF::stPointTable, std::less<int>, std::allocator<std::pair<const int, IEC104WF::stPointTable> > > > >::destroy
FUNC 33e94 2a 0 std::_Rb_tree<int, std::pair<const int, std::map<int, IEC104WF::stPointTable, std::less<int>, std::allocator<std::pair<const int, IEC104WF::stPointTable> > > >, std::_Select1st<std::pair<const int, std::map<int, IEC104WF::stPointTable, std::less<int>, std::allocator<std::pair<const int, IEC104WF::stPointTable> > > > >, std::less<int>, std::allocator<std::pair<const int, std::map<int, IEC104WF::stPointTable, std::less<int>, std::allocator<std::pair<const int, IEC104WF::stPointTable> > > > > >::_M_put_node
FUNC 33ebe 1a 0 std::allocator<std::_Rb_tree_node<std::pair<const int, IEC104WF::stPointTable> > >::allocator
FUNC 33ed8 41 0 std::_Rb_tree<int, std::pair<const int, IEC104WF::stPointTable>, std::_Select1st<std::pair<const int, IEC104WF::stPointTable> >, std::less<int>, std::allocator<std::pair<const int, IEC104WF::stPointTable> > >::_Rb_tree_impl<std::less<int>, false>::_M_initialize
FUNC 33f1a 3b 0 std::_Rb_tree<int, std::pair<const int, IEC104WF::stPointTable>, std::_Select1st<std::pair<const int, IEC104WF::stPointTable> >, std::less<int>, std::allocator<std::pair<const int, IEC104WF::stPointTable> > >::get_allocator
FUNC 33f56 1a 0 std::allocator<std::pair<const int, IEC104WF::stPointTable> >::~allocator
FUNC 33f70 1e 0 __gnu_cxx::new_allocator<std::pair<const int, IEC104WF::stPointTable> >::destroy
FUNC 33f8e 2a 0 std::_Rb_tree<int, std::pair<const int, IEC104WF::stPointTable>, std::_Select1st<std::pair<const int, IEC104WF::stPointTable> >, std::less<int>, std::allocator<std::pair<const int, IEC104WF::stPointTable> > >::_M_put_node
FUNC 33fb8 1a 0 std::allocator<std::_Rb_tree_node<std::pair<const std::basic_string<char, std::char_traits<char>, std::allocator<char> >, IEC103::stConfigParam> > >::allocator
FUNC 33fd2 41 0 std::_Rb_tree<std::basic_string<char, std::char_traits<char>, std::allocator<char> >, std::pair<const std::basic_string<char, std::char_traits<char>, std::allocator<char> >, IEC103::stConfigParam>, std::_Select1st<std::pair<const std::basic_string<char, std::char_traits<char>, std::allocator<char> >, IEC103::stConfigParam> >, std::less<std::basic_string<char, std::char_traits<char>, std::allocator<char> > >, std::allocator<std::pair<const std::basic_string<char, std::char_traits<char>, std::allocator<char> >, IEC103::stConfigParam> > >::_Rb_tree_impl<std::less<std::basic_string<char, std::char_traits<char>, std::allocator<char> > >, false>::_M_initialize
FUNC 34014 1a 0 std::allocator<std::_Rb_tree_node<std::pair<const std::basic_string<char, std::char_traits<char>, std::allocator<char> >, std::map<std::basic_string<char, std::char_traits<char>, std::allocator<char> >, std::basic_string<char, std::char_traits<char>, std::allocator<char> >, std::less<std::basic_string<char, std::char_traits<char>, std::allocator<char> > >, std::allocator<std::pair<const std::basic_string<char, std::char_traits<char>, std::allocator<char> >, std::basic_string<char, std::char_traits<char>, std::allocator<char> > > > > > > >::allocator
FUNC 3402e 41 0 std::_Rb_tree<std::basic_string<char, std::char_traits<char>, std::allocator<char> >, std::pair<const std::basic_string<char, std::char_traits<char>, std::allocator<char> >, std::map<std::basic_string<char, std::char_traits<char>, std::allocator<char> >, std::basic_string<char, std::char_traits<char>, std::allocator<char> >, std::less<std::basic_string<char, std::char_traits<char>, std::allocator<char> > >, std::allocator<std::pair<const std::basic_string<char, std::char_traits<char>, std::allocator<char> >, std::basic_string<char, std::char_traits<char>, std::allocator<char> > > > > >, std::_Select1st<std::pair<const std::basic_string<char, std::char_traits<char>, std::allocator<char> >, std::map<std::basic_string<char, std::char_traits<char>, std::allocator<char> >, std::basic_string<char, std::char_traits<char>, std::allocator<char> >, std::less<std::basic_string<char, std::char_traits<char>, std::allocator<char> > >, std::allocator<std::pair<const std::basic_string<char, std::char_traits<char>, std::allocator<char> >, std::basic_string<char, std::char_traits<char>, std::allocator<char> > > > > > >, std::less<std::basic_string<char, std::char_traits<char>, std::allocator<char> > >, std::allocator<std::pair<const std::basic_string<char, std::char_traits<char>, std::allocator<char> >, std::map<std::basic_string<char, std::char_traits<char>, std::allocator<char> >, std::basic_string<char, std::char_traits<char>, std::allocator<char> >, std::less<std::basic_string<char, std::char_traits<char>, std::allocator<char> > >, std::allocator<std::pair<const std::basic_string<char, std::char_traits<char>, std::allocator<char> >, std::basic_string<char, std::char_traits<char>, std::allocator<char> > > > > > > >::_Rb_tree_impl<std::less<std::basic_string<char, std::char_traits<char>, std::allocator<char> > >, false>::_M_initialize
FUNC 34070 25 0 std::allocator<std::_Rb_tree_node<std::pair<const std::basic_string<char, std::char_traits<char>, std::allocator<char> >, IEC61850_STRUCT::IED_61850> > >::allocator
FUNC 34096 55 0 std::_Rb_tree<std::basic_string<char, std::char_traits<char>, std::allocator<char> >, std::pair<const std::basic_string<char, std::char_traits<char>, std::allocator<char> >, IEC61850_STRUCT::IED_61850>, std::_Select1st<std::pair<const std::basic_string<char, std::char_traits<char>, std::allocator<char> >, IEC61850_STRUCT::IED_61850> >, std::less<std::basic_string<char, std::char_traits<char>, std::allocator<char> > >, std::allocator<std::pair<const std::basic_string<char, std::char_traits<char>, std::allocator<char> >, IEC61850_STRUCT::IED_61850> > >::_M_clone_node
FUNC 340eb 12 0 std::_Rb_tree<std::basic_string<char, std::char_traits<char>, std::allocator<char> >, std::pair<const std::basic_string<char, std::char_traits<char>, std::allocator<char> >, IEC61850_STRUCT::IED_61850>, std::_Select1st<std::pair<const std::basic_string<char, std::char_traits<char>, std::allocator<char> >, IEC61850_STRUCT::IED_61850> >, std::less<std::basic_string<char, std::char_traits<char>, std::allocator<char> > >, std::allocator<std::pair<const std::basic_string<char, std::char_traits<char>, std::allocator<char> >, IEC61850_STRUCT::IED_61850> > >::_S_right
FUNC 340fd 12 0 std::_Rb_tree<std::basic_string<char, std::char_traits<char>, std::allocator<char> >, std::pair<const std::basic_string<char, std::char_traits<char>, std::allocator<char> >, IEC61850_STRUCT::IED_61850>, std::_Select1st<std::pair<const std::basic_string<char, std::char_traits<char>, std::allocator<char> >, IEC61850_STRUCT::IED_61850> >, std::less<std::basic_string<char, std::char_traits<char>, std::allocator<char> > >, std::allocator<std::pair<const std::basic_string<char, std::char_traits<char>, std::allocator<char> >, IEC61850_STRUCT::IED_61850> > >::_S_left
FUNC 34110 25 0 std::allocator<std::_Rb_tree_node<std::pair<const std::basic_string<char, std::char_traits<char>, std::allocator<char> >, IEC103::stConfigParam> > >::allocator
FUNC 34136 55 0 std::_Rb_tree<std::basic_string<char, std::char_traits<char>, std::allocator<char> >, std::pair<const std::basic_string<char, std::char_traits<char>, std::allocator<char> >, IEC103::stConfigParam>, std::_Select1st<std::pair<const std::basic_string<char, std::char_traits<char>, std::allocator<char> >, IEC103::stConfigParam> >, std::less<std::basic_string<char, std::char_traits<char>, std::allocator<char> > >, std::allocator<std::pair<const std::basic_string<char, std::char_traits<char>, std::allocator<char> >, IEC103::stConfigParam> > >::_M_clone_node
FUNC 3418b 12 0 std::_Rb_tree<std::basic_string<char, std::char_traits<char>, std::allocator<char> >, std::pair<const std::basic_string<char, std::char_traits<char>, std::allocator<char> >, IEC103::stConfigParam>, std::_Select1st<std::pair<const std::basic_string<char, std::char_traits<char>, std::allocator<char> >, IEC103::stConfigParam> >, std::less<std::basic_string<char, std::char_traits<char>, std::allocator<char> > >, std::allocator<std::pair<const std::basic_string<char, std::char_traits<char>, std::allocator<char> >, IEC103::stConfigParam> > >::_S_right
FUNC 3419d 12 0 std::_Rb_tree<std::basic_string<char, std::char_traits<char>, std::allocator<char> >, std::pair<const std::basic_string<char, std::char_traits<char>, std::allocator<char> >, IEC103::stConfigParam>, std::_Select1st<std::pair<const std::basic_string<char, std::char_traits<char>, std::allocator<char> >, IEC103::stConfigParam> >, std::less<std::basic_string<char, std::char_traits<char>, std::allocator<char> > >, std::allocator<std::pair<const std::basic_string<char, std::char_traits<char>, std::allocator<char> >, IEC103::stConfigParam> > >::_S_left
FUNC 341b0 25 0 std::allocator<std::_Rb_tree_node<std::pair<const std::basic_string<char, std::char_traits<char>, std::allocator<char> >, std::map<std::basic_string<char, std::char_traits<char>, std::allocator<char> >, std::basic_string<char, std::char_traits<char>, std::allocator<char> >, std::less<std::basic_string<char, std::char_traits<char>, std::allocator<char> > >, std::allocator<std::pair<const std::basic_string<char, std::char_traits<char>, std::allocator<char> >, std::basic_string<char, std::char_traits<char>, std::allocator<char> > > > > > > >::allocator
FUNC 341d6 55 0 std::_Rb_tree<std::basic_string<char, std::char_traits<char>, std::allocator<char> >, std::pair<const std::basic_string<char, std::char_traits<char>, std::allocator<char> >, std::map<std::basic_string<char, std::char_traits<char>, std::allocator<char> >, std::basic_string<char, std::char_traits<char>, std::allocator<char> >, std::less<std::basic_string<char, std::char_traits<char>, std::allocator<char> > >, std::allocator<std::pair<const std::basic_string<char, std::char_traits<char>, std::allocator<char> >, std::basic_string<char, std::char_traits<char>, std::allocator<char> > > > > >, std::_Select1st<std::pair<const std::basic_string<char, std::char_traits<char>, std::allocator<char> >, std::map<std::basic_string<char, std::char_traits<char>, std::allocator<char> >, std::basic_string<char, std::char_traits<char>, std::allocator<char> >, std::less<std::basic_string<char, std::char_traits<char>, std::allocator<char> > >, std::allocator<std::pair<const std::basic_string<char, std::char_traits<char>, std::allocator<char> >, std::basic_string<char, std::char_traits<char>, std::allocator<char> > > > > > >, std::less<std::basic_string<char, std::char_traits<char>, std::allocator<char> > >, std::allocator<std::pair<const std::basic_string<char, std::char_traits<char>, std::allocator<char> >, std::map<std::basic_string<char, std::char_traits<char>, std::allocator<char> >, std::basic_string<char, std::char_traits<char>, std::allocator<char> >, std::less<std::basic_string<char, std::char_traits<char>, std::allocator<char> > >, std::allocator<std::pair<const std::basic_string<char, std::char_traits<char>, std::allocator<char> >, std::basic_string<char, std::char_traits<char>, std::allocator<char> > > > > > > >::_M_clone_node
FUNC 3422b 12 0 std::_Rb_tree<std::basic_string<char, std::char_traits<char>, std::allocator<char> >, std::pair<const std::basic_string<char, std::char_traits<char>, std::allocator<char> >, std::map<std::basic_string<char, std::char_traits<char>, std::allocator<char> >, std::basic_string<char, std::char_traits<char>, std::allocator<char> >, std::less<std::basic_string<char, std::char_traits<char>, std::allocator<char> > >, std::allocator<std::pair<const std::basic_string<char, std::char_traits<char>, std::allocator<char> >, std::basic_string<char, std::char_traits<char>, std::allocator<char> > > > > >, std::_Select1st<std::pair<const std::basic_string<char, std::char_traits<char>, std::allocator<char> >, std::map<std::basic_string<char, std::char_traits<char>, std::allocator<char> >, std::basic_string<char, std::char_traits<char>, std::allocator<char> >, std::less<std::basic_string<char, std::char_traits<char>, std::allocator<char> > >, std::allocator<std::pair<const std::basic_string<char, std::char_traits<char>, std::allocator<char> >, std::basic_string<char, std::char_traits<char>, std::allocator<char> > > > > > >, std::less<std::basic_string<char, std::char_traits<char>, std::allocator<char> > >, std::allocator<std::pair<const std::basic_string<char, std::char_traits<char>, std::allocator<char> >, std::map<std::basic_string<char, std::char_traits<char>, std::allocator<char> >, std::basic_string<char, std::char_traits<char>, std::allocator<char> >, std::less<std::basic_string<char, std::char_traits<char>, std::allocator<char> > >, std::allocator<std::pair<const std::basic_string<char, std::char_traits<char>, std::allocator<char> >, std::basic_string<char, std::char_traits<char>, std::allocator<char> > > > > > > >::_S_right
FUNC 3423d 12 0 std::_Rb_tree<std::basic_string<char, std::char_traits<char>, std::allocator<char> >, std::pair<const std::basic_string<char, std::char_traits<char>, std::allocator<char> >, std::map<std::basic_string<char, std::char_traits<char>, std::allocator<char> >, std::basic_string<char, std::char_traits<char>, std::allocator<char> >, std::less<std::basic_string<char, std::char_traits<char>, std::allocator<char> > >, std::allocator<std::pair<const std::basic_string<char, std::char_traits<char>, std::allocator<char> >, std::basic_string<char, std::char_traits<char>, std::allocator<char> > > > > >, std::_Select1st<std::pair<const std::basic_string<char, std::char_traits<char>, std::allocator<char> >, std::map<std::basic_string<char, std::char_traits<char>, std::allocator<char> >, std::basic_string<char, std::char_traits<char>, std::allocator<char> >, std::less<std::basic_string<char, std::char_traits<char>, std::allocator<char> > >, std::allocator<std::pair<const std::basic_string<char, std::char_traits<char>, std::allocator<char> >, std::basic_string<char, std::char_traits<char>, std::allocator<char> > > > > > >, std::less<std::basic_string<char, std::char_traits<char>, std::allocator<char> > >, std::allocator<std::pair<const std::basic_string<char, std::char_traits<char>, std::allocator<char> >, std::map<std::basic_string<char, std::char_traits<char>, std::allocator<char> >, std::basic_string<char, std::char_traits<char>, std::allocator<char> >, std::less<std::basic_string<char, std::char_traits<char>, std::allocator<char> > >, std::allocator<std::pair<const std::basic_string<char, std::char_traits<char>, std::allocator<char> >, std::basic_string<char, std::char_traits<char>, std::allocator<char> > > > > > > >::_S_left
FUNC 34250 25 0 std::allocator<std::_Rb_tree_node<std::pair<const std::basic_string<char, std::char_traits<char>, std::allocator<char> >, std::map<int, std::map<int, IEC104WF::stPointTable, std::less<int>, std::allocator<std::pair<const int, IEC104WF::stPointTable> > >, std::less<int>, std::allocator<std::pair<const int, std::map<int, IEC104WF::stPointTable, std::less<int>, std::allocator<std::pair<const int, IEC104WF::stPointTable> > > > > > > > >::allocator
FUNC 34276 55 0 std::_Rb_tree<std::basic_string<char, std::char_traits<char>, std::allocator<char> >, std::pair<const std::basic_string<char, std::char_traits<char>, std::allocator<char> >, std::map<int, std::map<int, IEC104WF::stPointTable, std::less<int>, std::allocator<std::pair<const int, IEC104WF::stPointTable> > >, std::less<int>, std::allocator<std::pair<const int, std::map<int, IEC104WF::stPointTable, std::less<int>, std::allocator<std::pair<const int, IEC104WF::stPointTable> > > > > > >, std::_Select1st<std::pair<const std::basic_string<char, std::char_traits<char>, std::allocator<char> >, std::map<int, std::map<int, IEC104WF::stPointTable, std::less<int>, std::allocator<std::pair<const int, IEC104WF::stPointTable> > >, std::less<int>, std::allocator<std::pair<const int, std::map<int, IEC104WF::stPointTable, std::less<int>, std::allocator<std::pair<const int, IEC104WF::stPointTable> > > > > > > >, std::less<std::basic_string<char, std::char_traits<char>, std::allocator<char> > >, std::allocator<std::pair<const std::basic_string<char, std::char_traits<char>, std::allocator<char> >, std::map<int, std::map<int, IEC104WF::stPointTable, std::less<int>, std::allocator<std::pair<const int, IEC104WF::stPointTable> > >, std::less<int>, std::allocator<std::pair<const int, std::map<int, IEC104WF::stPointTable, std::less<int>, std::allocator<std::pair<const int, IEC104WF::stPointTable> > > > > > > > >::_M_clone_node
FUNC 342cb 12 0 std::_Rb_tree<std::basic_string<char, std::char_traits<char>, std::allocator<char> >, std::pair<const std::basic_string<char, std::char_traits<char>, std::allocator<char> >, std::map<int, std::map<int, IEC104WF::stPointTable, std::less<int>, std::allocator<std::pair<const int, IEC104WF::stPointTable> > >, std::less<int>, std::allocator<std::pair<const int, std::map<int, IEC104WF::stPointTable, std::less<int>, std::allocator<std::pair<const int, IEC104WF::stPointTable> > > > > > >, std::_Select1st<std::pair<const std::basic_string<char, std::char_traits<char>, std::allocator<char> >, std::map<int, std::map<int, IEC104WF::stPointTable, std::less<int>, std::allocator<std::pair<const int, IEC104WF::stPointTable> > >, std::less<int>, std::allocator<std::pair<const int, std::map<int, IEC104WF::stPointTable, std::less<int>, std::allocator<std::pair<const int, IEC104WF::stPointTable> > > > > > > >, std::less<std::basic_string<char, std::char_traits<char>, std::allocator<char> > >, std::allocator<std::pair<const std::basic_string<char, std::char_traits<char>, std::allocator<char> >, std::map<int, std::map<int, IEC104WF::stPointTable, std::less<int>, std::allocator<std::pair<const int, IEC104WF::stPointTable> > >, std::less<int>, std::allocator<std::pair<const int, std::map<int, IEC104WF::stPointTable, std::less<int>, std::allocator<std::pair<const int, IEC104WF::stPointTable> > > > > > > > >::_S_right
FUNC 342dd 12 0 std::_Rb_tree<std::basic_string<char, std::char_traits<char>, std::allocator<char> >, std::pair<const std::basic_string<char, std::char_traits<char>, std::allocator<char> >, std::map<int, std::map<int, IEC104WF::stPointTable, std::less<int>, std::allocator<std::pair<const int, IEC104WF::stPointTable> > >, std::less<int>, std::allocator<std::pair<const int, std::map<int, IEC104WF::stPointTable, std::less<int>, std::allocator<std::pair<const int, IEC104WF::stPointTable> > > > > > >, std::_Select1st<std::pair<const std::basic_string<char, std::char_traits<char>, std::allocator<char> >, std::map<int, std::map<int, IEC104WF::stPointTable, std::less<int>, std::allocator<std::pair<const int, IEC104WF::stPointTable> > >, std::less<int>, std::allocator<std::pair<const int, std::map<int, IEC104WF::stPointTable, std::less<int>, std::allocator<std::pair<const int, IEC104WF::stPointTable> > > > > > > >, std::less<std::basic_string<char, std::char_traits<char>, std::allocator<char> > >, std::allocator<std::pair<const std::basic_string<char, std::char_traits<char>, std::allocator<char> >, std::map<int, std::map<int, IEC104WF::stPointTable, std::less<int>, std::allocator<std::pair<const int, IEC104WF::stPointTable> > >, std::less<int>, std::allocator<std::pair<const int, std::map<int, IEC104WF::stPointTable, std::less<int>, std::allocator<std::pair<const int, IEC104WF::stPointTable> > > > > > > > >::_S_left
FUNC 342f0 a 0 __gnu_cxx::new_allocator<std::_List_node<std::basic_string<char, std::char_traits<char>, std::allocator<char> > > >::new_allocator
FUNC 342fa 25 0 std::allocator<std::_List_node<std::basic_string<char, std::char_traits<char>, std::allocator<char> > > >::allocator
FUNC 34320 92 0 std::_Rb_tree<std::basic_string<char, std::char_traits<char>, std::allocator<char> >, std::pair<const std::basic_string<char, std::char_traits<char>, std::allocator<char> >, IEC61850_STRUCT::IED_61850>, std::_Select1st<std::pair<const std::basic_string<char, std::char_traits<char>, std::allocator<char> >, IEC61850_STRUCT::IED_61850> >, std::less<std::basic_string<char, std::char_traits<char>, std::allocator<char> > >, std::allocator<std::pair<const std::basic_string<char, std::char_traits<char>, std::allocator<char> >, IEC61850_STRUCT::IED_61850> > >::_M_lower_bound
FUNC 343b2 19 0 std::_Rb_tree_iterator<std::pair<const std::basic_string<char, std::char_traits<char>, std::allocator<char> >, IEC61850_STRUCT::IED_61850> >::_Rb_tree_iterator
FUNC 343cb 2c 0 std::_Rb_tree<std::basic_string<char, std::char_traits<char>, std::allocator<char> >, std::pair<const std::basic_string<char, std::char_traits<char>, std::allocator<char> >, IEC61850_STRUCT::IED_61850>, std::_Select1st<std::pair<const std::basic_string<char, std::char_traits<char>, std::allocator<char> >, IEC61850_STRUCT::IED_61850> >, std::less<std::basic_string<char, std::char_traits<char>, std::allocator<char> > >, std::allocator<std::pair<const std::basic_string<char, std::char_traits<char>, std::allocator<char> >, IEC61850_STRUCT::IED_61850> > >::_S_key
FUNC 343f8 12 0 std::_Select1st<std::pair<const std::basic_string<char, std::char_traits<char>, std::allocator<char> >, IEC61850_STRUCT::IED_61850> >::operator()
FUNC 3440a 12 0 std::_Rb_tree<std::basic_string<char, std::char_traits<char>, std::allocator<char> >, std::pair<const std::basic_string<char, std::char_traits<char>, std::allocator<char> >, IEC61850_STRUCT::IED_61850>, std::_Select1st<std::pair<const std::basic_string<char, std::char_traits<char>, std::allocator<char> >, IEC61850_STRUCT::IED_61850> >, std::less<std::basic_string<char, std::char_traits<char>, std::allocator<char> > >, std::allocator<std::pair<const std::basic_string<char, std::char_traits<char>, std::allocator<char> >, IEC61850_STRUCT::IED_61850> > >::size
FUNC 3441c e3 0 std::_Rb_tree<std::basic_string<char, std::char_traits<char>, std::allocator<char> >, std::pair<const std::basic_string<char, std::char_traits<char>, std::allocator<char> >, IEC61850_STRUCT::IED_61850>, std::_Select1st<std::pair<const std::basic_string<char, std::char_traits<char>, std::allocator<char> >, IEC61850_STRUCT::IED_61850> >, std::less<std::basic_string<char, std::char_traits<char>, std::allocator<char> > >, std::allocator<std::pair<const std::basic_string<char, std::char_traits<char>, std::allocator<char> >, IEC61850_STRUCT::IED_61850> > >::_M_insert_
FUNC 34500 271 0 std::_Rb_tree<std::basic_string<char, std::char_traits<char>, std::allocator<char> >, std::pair<const std::basic_string<char, std::char_traits<char>, std::allocator<char> >, IEC61850_STRUCT::IED_61850>, std::_Select1st<std::pair<const std::basic_string<char, std::char_traits<char>, std::allocator<char> >, IEC61850_STRUCT::IED_61850> >, std::less<std::basic_string<char, std::char_traits<char>, std::allocator<char> > >, std::allocator<std::pair<const std::basic_string<char, std::char_traits<char>, std::allocator<char> >, IEC61850_STRUCT::IED_61850> > >::_M_insert_unique
FUNC 34772 28 0 std::_Rb_tree_const_iterator<std::pair<const std::basic_string<char, std::char_traits<char>, std::allocator<char> >, IEC61850_STRUCT::IED_61850> >::operator--
FUNC 3479a 28 0 std::_Rb_tree_const_iterator<std::pair<const std::basic_string<char, std::char_traits<char>, std::allocator<char> >, IEC61850_STRUCT::IED_61850> >::operator++
FUNC 347c2 92 0 std::_Rb_tree<int, std::pair<const int, IEC104WF::stPointTable>, std::_Select1st<std::pair<const int, IEC104WF::stPointTable> >, std::less<int>, std::allocator<std::pair<const int, IEC104WF::stPointTable> > >::_M_lower_bound
FUNC 34854 19 0 std::_Rb_tree_iterator<std::pair<const int, IEC104WF::stPointTable> >::_Rb_tree_iterator
FUNC 3486d 2c 0 std::_Rb_tree<int, std::pair<const int, IEC104WF::stPointTable>, std::_Select1st<std::pair<const int, IEC104WF::stPointTable> >, std::less<int>, std::allocator<std::pair<const int, IEC104WF::stPointTable> > >::_S_key
FUNC 3489a 12 0 std::_Select1st<std::pair<const int, IEC104WF::stPointTable> >::operator()
FUNC 348ac 12 0 std::_Rb_tree<int, std::pair<const int, IEC104WF::stPointTable>, std::_Select1st<std::pair<const int, IEC104WF::stPointTable> >, std::less<int>, std::allocator<std::pair<const int, IEC104WF::stPointTable> > >::size
FUNC 348be e3 0 std::_Rb_tree<int, std::pair<const int, IEC104WF::stPointTable>, std::_Select1st<std::pair<const int, IEC104WF::stPointTable> >, std::less<int>, std::allocator<std::pair<const int, IEC104WF::stPointTable> > >::_M_insert_
FUNC 349a2 271 0 std::_Rb_tree<int, std::pair<const int, IEC104WF::stPointTable>, std::_Select1st<std::pair<const int, IEC104WF::stPointTable> >, std::less<int>, std::allocator<std::pair<const int, IEC104WF::stPointTable> > >::_M_insert_unique
FUNC 34c14 28 0 std::_Rb_tree_const_iterator<std::pair<const int, IEC104WF::stPointTable> >::operator--
FUNC 34c3c 12 0 std::_Rb_tree<int, std::pair<const int, IEC104WF::stPointTable>, std::_Select1st<std::pair<const int, IEC104WF::stPointTable> >, std::less<int>, std::allocator<std::pair<const int, IEC104WF::stPointTable> > >::_S_right
FUNC 34c4e 28 0 std::_Rb_tree_const_iterator<std::pair<const int, IEC104WF::stPointTable> >::operator++
FUNC 34c76 92 0 std::_Rb_tree<int, std::pair<const int, std::map<int, IEC104WF::stPointTable, std::less<int>, std::allocator<std::pair<const int, IEC104WF::stPointTable> > > >, std::_Select1st<std::pair<const int, std::map<int, IEC104WF::stPointTable, std::less<int>, std::allocator<std::pair<const int, IEC104WF::stPointTable> > > > >, std::less<int>, std::allocator<std::pair<const int, std::map<int, IEC104WF::stPointTable, std::less<int>, std::allocator<std::pair<const int, IEC104WF::stPointTable> > > > > >::_M_lower_bound
FUNC 34d08 19 0 std::_Rb_tree_iterator<std::pair<const int, std::map<int, IEC104WF::stPointTable, std::less<int>, std::allocator<std::pair<const int, IEC104WF::stPointTable> > > > >::_Rb_tree_iterator
FUNC 34d22 11d 0 std::_Rb_tree<int, std::pair<const int, IEC104WF::stPointTable>, std::_Select1st<std::pair<const int, IEC104WF::stPointTable> >, std::less<int>, std::allocator<std::pair<const int, IEC104WF::stPointTable> > >::_Rb_tree
FUNC 34e3f 2c 0 std::_Rb_tree<int, std::pair<const int, std::map<int, IEC104WF::stPointTable, std::less<int>, std::allocator<std::pair<const int, IEC104WF::stPointTable> > > >, std::_Select1st<std::pair<const int, std::map<int, IEC104WF::stPointTable, std::less<int>, std::allocator<std::pair<const int, IEC104WF::stPointTable> > > > >, std::less<int>, std::allocator<std::pair<const int, std::map<int, IEC104WF::stPointTable, std::less<int>, std::allocator<std::pair<const int, IEC104WF::stPointTable> > > > > >::_S_key
FUNC 34e6c 12 0 std::_Select1st<std::pair<const int, std::map<int, IEC104WF::stPointTable, std::less<int>, std::allocator<std::pair<const int, IEC104WF::stPointTable> > > > >::operator()
FUNC 34e7e 12 0 std::_Rb_tree<int, std::pair<const int, std::map<int, IEC104WF::stPointTable, std::less<int>, std::allocator<std::pair<const int, IEC104WF::stPointTable> > > >, std::_Select1st<std::pair<const int, std::map<int, IEC104WF::stPointTable, std::less<int>, std::allocator<std::pair<const int, IEC104WF::stPointTable> > > > >, std::less<int>, std::allocator<std::pair<const int, std::map<int, IEC104WF::stPointTable, std::less<int>, std::allocator<std::pair<const int, IEC104WF::stPointTable> > > > > >::size
FUNC 34e90 e3 0 std::_Rb_tree<int, std::pair<const int, std::map<int, IEC104WF::stPointTable, std::less<int>, std::allocator<std::pair<const int, IEC104WF::stPointTable> > > >, std::_Select1st<std::pair<const int, std::map<int, IEC104WF::stPointTable, std::less<int>, std::allocator<std::pair<const int, IEC104WF::stPointTable> > > > >, std::less<int>, std::allocator<std::pair<const int, std::map<int, IEC104WF::stPointTable, std::less<int>, std::allocator<std::pair<const int, IEC104WF::stPointTable> > > > > >::_M_insert_
FUNC 34f74 271 0 std::_Rb_tree<int, std::pair<const int, std::map<int, IEC104WF::stPointTable, std::less<int>, std::allocator<std::pair<const int, IEC104WF::stPointTable> > > >, std::_Select1st<std::pair<const int, std::map<int, IEC104WF::stPointTable, std::less<int>, std::allocator<std::pair<const int, IEC104WF::stPointTable> > > > >, std::less<int>, std::allocator<std::pair<const int, std::map<int, IEC104WF::stPointTable, std::less<int>, std::allocator<std::pair<const int, IEC104WF::stPointTable> > > > > >::_M_insert_unique
FUNC 351e6 28 0 std::_Rb_tree_const_iterator<std::pair<const int, std::map<int, IEC104WF::stPointTable, std::less<int>, std::allocator<std::pair<const int, IEC104WF::stPointTable> > > > >::operator--
FUNC 3520e 12 0 std::_Rb_tree<int, std::pair<const int, std::map<int, IEC104WF::stPointTable, std::less<int>, std::allocator<std::pair<const int, IEC104WF::stPointTable> > > >, std::_Select1st<std::pair<const int, std::map<int, IEC104WF::stPointTable, std::less<int>, std::allocator<std::pair<const int, IEC104WF::stPointTable> > > > >, std::less<int>, std::allocator<std::pair<const int, std::map<int, IEC104WF::stPointTable, std::less<int>, std::allocator<std::pair<const int, IEC104WF::stPointTable> > > > > >::_S_right
FUNC 35220 28 0 std::_Rb_tree_const_iterator<std::pair<const int, std::map<int, IEC104WF::stPointTable, std::less<int>, std::allocator<std::pair<const int, IEC104WF::stPointTable> > > > >::operator++
FUNC 35248 55 0 std::_Rb_tree<int, std::pair<const int, IEC104WF::stPointTable>, std::_Select1st<std::pair<const int, IEC104WF::stPointTable> >, std::less<int>, std::allocator<std::pair<const int, IEC104WF::stPointTable> > >::_M_clone_node
FUNC 3529d 12 0 std::_Rb_tree<int, std::pair<const int, IEC104WF::stPointTable>, std::_Select1st<std::pair<const int, IEC104WF::stPointTable> >, std::less<int>, std::allocator<std::pair<const int, IEC104WF::stPointTable> > >::_S_left
FUNC 352b0 92 0 std::_Rb_tree<std::basic_string<char, std::char_traits<char>, std::allocator<char> >, std::pair<const std::basic_string<char, std::char_traits<char>, std::allocator<char> >, std::map<int, std::map<int, IEC104WF::stPointTable, std::less<int>, std::allocator<std::pair<const int, IEC104WF::stPointTable> > >, std::less<int>, std::allocator<std::pair<const int, std::map<int, IEC104WF::stPointTable, std::less<int>, std::allocator<std::pair<const int, IEC104WF::stPointTable> > > > > > >, std::_Select1st<std::pair<const std::basic_string<char, std::char_traits<char>, std::allocator<char> >, std::map<int, std::map<int, IEC104WF::stPointTable, std::less<int>, std::allocator<std::pair<const int, IEC104WF::stPointTable> > >, std::less<int>, std::allocator<std::pair<const int, std::map<int, IEC104WF::stPointTable, std::less<int>, std::allocator<std::pair<const int, IEC104WF::stPointTable> > > > > > > >, std::less<std::basic_string<char, std::char_traits<char>, std::allocator<char> > >, std::allocator<std::pair<const std::basic_string<char, std::char_traits<char>, std::allocator<char> >, std::map<int, std::map<int, IEC104WF::stPointTable, std::less<int>, std::allocator<std::pair<const int, IEC104WF::stPointTable> > >, std::less<int>, std::allocator<std::pair<const int, std::map<int, IEC104WF::stPointTable, std::less<int>, std::allocator<std::pair<const int, IEC104WF::stPointTable> > > > > > > > >::_M_lower_bound
FUNC 35342 19 0 std::_Rb_tree_iterator<std::pair<const std::basic_string<char, std::char_traits<char>, std::allocator<char> >, std::map<int, std::map<int, IEC104WF::stPointTable, std::less<int>, std::allocator<std::pair<const int, IEC104WF::stPointTable> > >, std::less<int>, std::allocator<std::pair<const int, std::map<int, IEC104WF::stPointTable, std::less<int>, std::allocator<std::pair<const int, IEC104WF::stPointTable> > > > > > > >::_Rb_tree_iterator
FUNC 3535c 11d 0 std::_Rb_tree<int, std::pair<const int, std::map<int, IEC104WF::stPointTable, std::less<int>, std::allocator<std::pair<const int, IEC104WF::stPointTable> > > >, std::_Select1st<std::pair<const int, std::map<int, IEC104WF::stPointTable, std::less<int>, std::allocator<std::pair<const int, IEC104WF::stPointTable> > > > >, std::less<int>, std::allocator<std::pair<const int, std::map<int, IEC104WF::stPointTable, std::less<int>, std::allocator<std::pair<const int, IEC104WF::stPointTable> > > > > >::_Rb_tree
FUNC 35479 2c 0 std::_Rb_tree<std::basic_string<char, std::char_traits<char>, std::allocator<char> >, std::pair<const std::basic_string<char, std::char_traits<char>, std::allocator<char> >, std::map<int, std::map<int, IEC104WF::stPointTable, std::less<int>, std::allocator<std::pair<const int, IEC104WF::stPointTable> > >, std::less<int>, std::allocator<std::pair<const int, std::map<int, IEC104WF::stPointTable, std::less<int>, std::allocator<std::pair<const int, IEC104WF::stPointTable> > > > > > >, std::_Select1st<std::pair<const std::basic_string<char, std::char_traits<char>, std::allocator<char> >, std::map<int, std::map<int, IEC104WF::stPointTable, std::less<int>, std::allocator<std::pair<const int, IEC104WF::stPointTable> > >, std::less<int>, std::allocator<std::pair<const int, std::map<int, IEC104WF::stPointTable, std::less<int>, std::allocator<std::pair<const int, IEC104WF::stPointTable> > > > > > > >, std::less<std::basic_string<char, std::char_traits<char>, std::allocator<char> > >, std::allocator<std::pair<const std::basic_string<char, std::char_traits<char>, std::allocator<char> >, std::map<int, std::map<int, IEC104WF::stPointTable, std::less<int>, std::allocator<std::pair<const int, IEC104WF::stPointTable> > >, std::less<int>, std::allocator<std::pair<const int, std::map<int, IEC104WF::stPointTable, std::less<int>, std::allocator<std::pair<const int, IEC104WF::stPointTable> > > > > > > > >::_S_key
FUNC 354a6 12 0 std::_Select1st<std::pair<const std::basic_string<char, std::char_traits<char>, std::allocator<char> >, std::map<int, std::map<int, IEC104WF::stPointTable, std::less<int>, std::allocator<std::pair<const int, IEC104WF::stPointTable> > >, std::less<int>, std::allocator<std::pair<const int, std::map<int, IEC104WF::stPointTable, std::less<int>, std::allocator<std::pair<const int, IEC104WF::stPointTable> > > > > > > >::operator()
FUNC 354b8 12 0 std::_Rb_tree<std::basic_string<char, std::char_traits<char>, std::allocator<char> >, std::pair<const std::basic_string<char, std::char_traits<char>, std::allocator<char> >, std::map<int, std::map<int, IEC104WF::stPointTable, std::less<int>, std::allocator<std::pair<const int, IEC104WF::stPointTable> > >, std::less<int>, std::allocator<std::pair<const int, std::map<int, IEC104WF::stPointTable, std::less<int>, std::allocator<std::pair<const int, IEC104WF::stPointTable> > > > > > >, std::_Select1st<std::pair<const std::basic_string<char, std::char_traits<char>, std::allocator<char> >, std::map<int, std::map<int, IEC104WF::stPointTable, std::less<int>, std::allocator<std::pair<const int, IEC104WF::stPointTable> > >, std::less<int>, std::allocator<std::pair<const int, std::map<int, IEC104WF::stPointTable, std::less<int>, std::allocator<std::pair<const int, IEC104WF::stPointTable> > > > > > > >, std::less<std::basic_string<char, std::char_traits<char>, std::allocator<char> > >, std::allocator<std::pair<const std::basic_string<char, std::char_traits<char>, std::allocator<char> >, std::map<int, std::map<int, IEC104WF::stPointTable, std::less<int>, std::allocator<std::pair<const int, IEC104WF::stPointTable> > >, std::less<int>, std::allocator<std::pair<const int, std::map<int, IEC104WF::stPointTable, std::less<int>, std::allocator<std::pair<const int, IEC104WF::stPointTable> > > > > > > > >::size
FUNC 354ca e3 0 std::_Rb_tree<std::basic_string<char, std::char_traits<char>, std::allocator<char> >, std::pair<const std::basic_string<char, std::char_traits<char>, std::allocator<char> >, std::map<int, std::map<int, IEC104WF::stPointTable, std::less<int>, std::allocator<std::pair<const int, IEC104WF::stPointTable> > >, std::less<int>, std::allocator<std::pair<const int, std::map<int, IEC104WF::stPointTable, std::less<int>, std::allocator<std::pair<const int, IEC104WF::stPointTable> > > > > > >, std::_Select1st<std::pair<const std::basic_string<char, std::char_traits<char>, std::allocator<char> >, std::map<int, std::map<int, IEC104WF::stPointTable, std::less<int>, std::allocator<std::pair<const int, IEC104WF::stPointTable> > >, std::less<int>, std::allocator<std::pair<const int, std::map<int, IEC104WF::stPointTable, std::less<int>, std::allocator<std::pair<const int, IEC104WF::stPointTable> > > > > > > >, std::less<std::basic_string<char, std::char_traits<char>, std::allocator<char> > >, std::allocator<std::pair<const std::basic_string<char, std::char_traits<char>, std::allocator<char> >, std::map<int, std::map<int, IEC104WF::stPointTable, std::less<int>, std::allocator<std::pair<const int, IEC104WF::stPointTable> > >, std::less<int>, std::allocator<std::pair<const int, std::map<int, IEC104WF::stPointTable, std::less<int>, std::allocator<std::pair<const int, IEC104WF::stPointTable> > > > > > > > >::_M_insert_
FUNC 355ae 271 0 std::_Rb_tree<std::basic_string<char, std::char_traits<char>, std::allocator<char> >, std::pair<const std::basic_string<char, std::char_traits<char>, std::allocator<char> >, std::map<int, std::map<int, IEC104WF::stPointTable, std::less<int>, std::allocator<std::pair<const int, IEC104WF::stPointTable> > >, std::less<int>, std::allocator<std::pair<const int, std::map<int, IEC104WF::stPointTable, std::less<int>, std::allocator<std::pair<const int, IEC104WF::stPointTable> > > > > > >, std::_Select1st<std::pair<const std::basic_string<char, std::char_traits<char>, std::allocator<char> >, std::map<int, std::map<int, IEC104WF::stPointTable, std::less<int>, std::allocator<std::pair<const int, IEC104WF::stPointTable> > >, std::less<int>, std::allocator<std::pair<const int, std::map<int, IEC104WF::stPointTable, std::less<int>, std::allocator<std::pair<const int, IEC104WF::stPointTable> > > > > > > >, std::less<std::basic_string<char, std::char_traits<char>, std::allocator<char> > >, std::allocator<std::pair<const std::basic_string<char, std::char_traits<char>, std::allocator<char> >, std::map<int, std::map<int, IEC104WF::stPointTable, std::less<int>, std::allocator<std::pair<const int, IEC104WF::stPointTable> > >, std::less<int>, std::allocator<std::pair<const int, std::map<int, IEC104WF::stPointTable, std::less<int>, std::allocator<std::pair<const int, IEC104WF::stPointTable> > > > > > > > >::_M_insert_unique
FUNC 35820 28 0 std::_Rb_tree_const_iterator<std::pair<const std::basic_string<char, std::char_traits<char>, std::allocator<char> >, std::map<int, std::map<int, IEC104WF::stPointTable, std::less<int>, std::allocator<std::pair<const int, IEC104WF::stPointTable> > >, std::less<int>, std::allocator<std::pair<const int, std::map<int, IEC104WF::stPointTable, std::less<int>, std::allocator<std::pair<const int, IEC104WF::stPointTable> > > > > > > >::operator--
FUNC 35848 28 0 std::_Rb_tree_const_iterator<std::pair<const std::basic_string<char, std::char_traits<char>, std::allocator<char> >, std::map<int, std::map<int, IEC104WF::stPointTable, std::less<int>, std::allocator<std::pair<const int, IEC104WF::stPointTable> > >, std::less<int>, std::allocator<std::pair<const int, std::map<int, IEC104WF::stPointTable, std::less<int>, std::allocator<std::pair<const int, IEC104WF::stPointTable> > > > > > > >::operator++
FUNC 35870 55 0 std::_Rb_tree<int, std::pair<const int, std::map<int, IEC104WF::stPointTable, std::less<int>, std::allocator<std::pair<const int, IEC104WF::stPointTable> > > >, std::_Select1st<std::pair<const int, std::map<int, IEC104WF::stPointTable, std::less<int>, std::allocator<std::pair<const int, IEC104WF::stPointTable> > > > >, std::less<int>, std::allocator<std::pair<const int, std::map<int, IEC104WF::stPointTable, std::less<int>, std::allocator<std::pair<const int, IEC104WF::stPointTable> > > > > >::_M_clone_node
FUNC 358c5 12 0 std::_Rb_tree<int, std::pair<const int, std::map<int, IEC104WF::stPointTable, std::less<int>, std::allocator<std::pair<const int, IEC104WF::stPointTable> > > >, std::_Select1st<std::pair<const int, std::map<int, IEC104WF::stPointTable, std::less<int>, std::allocator<std::pair<const int, IEC104WF::stPointTable> > > > >, std::less<int>, std::allocator<std::pair<const int, std::map<int, IEC104WF::stPointTable, std::less<int>, std::allocator<std::pair<const int, IEC104WF::stPointTable> > > > > >::_S_left
FUNC 358d8 92 0 std::_Rb_tree<std::basic_string<char, std::char_traits<char>, std::allocator<char> >, std::pair<const std::basic_string<char, std::char_traits<char>, std::allocator<char> >, IEC103::stConfigParam>, std::_Select1st<std::pair<const std::basic_string<char, std::char_traits<char>, std::allocator<char> >, IEC103::stConfigParam> >, std::less<std::basic_string<char, std::char_traits<char>, std::allocator<char> > >, std::allocator<std::pair<const std::basic_string<char, std::char_traits<char>, std::allocator<char> >, IEC103::stConfigParam> > >::_M_lower_bound
FUNC 3596a 2c 0 std::_Rb_tree<std::basic_string<char, std::char_traits<char>, std::allocator<char> >, std::pair<const std::basic_string<char, std::char_traits<char>, std::allocator<char> >, IEC103::stConfigParam>, std::_Select1st<std::pair<const std::basic_string<char, std::char_traits<char>, std::allocator<char> >, IEC103::stConfigParam> >, std::less<std::basic_string<char, std::char_traits<char>, std::allocator<char> > >, std::allocator<std::pair<const std::basic_string<char, std::char_traits<char>, std::allocator<char> >, IEC103::stConfigParam> > >::_S_key
FUNC 35996 12 0 std::_Select1st<std::pair<const std::basic_string<char, std::char_traits<char>, std::allocator<char> >, IEC103::stConfigParam> >::operator()
FUNC 359a8 e3 0 std::_Rb_tree<std::basic_string<char, std::char_traits<char>, std::allocator<char> >, std::pair<const std::basic_string<char, std::char_traits<char>, std::allocator<char> >, IEC103::stConfigParam>, std::_Select1st<std::pair<const std::basic_string<char, std::char_traits<char>, std::allocator<char> >, IEC103::stConfigParam> >, std::less<std::basic_string<char, std::char_traits<char>, std::allocator<char> > >, std::allocator<std::pair<const std::basic_string<char, std::char_traits<char>, std::allocator<char> >, IEC103::stConfigParam> > >::_M_insert_
FUNC 35a8c 271 0 std::_Rb_tree<std::basic_string<char, std::char_traits<char>, std::allocator<char> >, std::pair<const std::basic_string<char, std::char_traits<char>, std::allocator<char> >, IEC103::stConfigParam>, std::_Select1st<std::pair<const std::basic_string<char, std::char_traits<char>, std::allocator<char> >, IEC103::stConfigParam> >, std::less<std::basic_string<char, std::char_traits<char>, std::allocator<char> > >, std::allocator<std::pair<const std::basic_string<char, std::char_traits<char>, std::allocator<char> >, IEC103::stConfigParam> > >::_M_insert_unique
FUNC 35cfe 28 0 std::_Rb_tree_const_iterator<std::pair<const std::basic_string<char, std::char_traits<char>, std::allocator<char> >, IEC103::stConfigParam> >::operator--
FUNC 35d26 28 0 std::_Rb_tree_const_iterator<std::pair<const std::basic_string<char, std::char_traits<char>, std::allocator<char> >, IEC103::stConfigParam> >::operator++
FUNC 35d4e 92 0 std::_Rb_tree<std::basic_string<char, std::char_traits<char>, std::allocator<char> >, std::pair<const std::basic_string<char, std::char_traits<char>, std::allocator<char> >, std::map<std::basic_string<char, std::char_traits<char>, std::allocator<char> >, std::basic_string<char, std::char_traits<char>, std::allocator<char> >, std::less<std::basic_string<char, std::char_traits<char>, std::allocator<char> > >, std::allocator<std::pair<const std::basic_string<char, std::char_traits<char>, std::allocator<char> >, std::basic_string<char, std::char_traits<char>, std::allocator<char> > > > > >, std::_Select1st<std::pair<const std::basic_string<char, std::char_traits<char>, std::allocator<char> >, std::map<std::basic_string<char, std::char_traits<char>, std::allocator<char> >, std::basic_string<char, std::char_traits<char>, std::allocator<char> >, std::less<std::basic_string<char, std::char_traits<char>, std::allocator<char> > >, std::allocator<std::pair<const std::basic_string<char, std::char_traits<char>, std::allocator<char> >, std::basic_string<char, std::char_traits<char>, std::allocator<char> > > > > > >, std::less<std::basic_string<char, std::char_traits<char>, std::allocator<char> > >, std::allocator<std::pair<const std::basic_string<char, std::char_traits<char>, std::allocator<char> >, std::map<std::basic_string<char, std::char_traits<char>, std::allocator<char> >, std::basic_string<char, std::char_traits<char>, std::allocator<char> >, std::less<std::basic_string<char, std::char_traits<char>, std::allocator<char> > >, std::allocator<std::pair<const std::basic_string<char, std::char_traits<char>, std::allocator<char> >, std::basic_string<char, std::char_traits<char>, std::allocator<char> > > > > > > >::_M_lower_bound
FUNC 35de0 2c 0 std::_Rb_tree<std::basic_string<char, std::char_traits<char>, std::allocator<char> >, std::pair<const std::basic_string<char, std::char_traits<char>, std::allocator<char> >, std::map<std::basic_string<char, std::char_traits<char>, std::allocator<char> >, std::basic_string<char, std::char_traits<char>, std::allocator<char> >, std::less<std::basic_string<char, std::char_traits<char>, std::allocator<char> > >, std::allocator<std::pair<const std::basic_string<char, std::char_traits<char>, std::allocator<char> >, std::basic_string<char, std::char_traits<char>, std::allocator<char> > > > > >, std::_Select1st<std::pair<const std::basic_string<char, std::char_traits<char>, std::allocator<char> >, std::map<std::basic_string<char, std::char_traits<char>, std::allocator<char> >, std::basic_string<char, std::char_traits<char>, std::allocator<char> >, std::less<std::basic_string<char, std::char_traits<char>, std::allocator<char> > >, std::allocator<std::pair<const std::basic_string<char, std::char_traits<char>, std::allocator<char> >, std::basic_string<char, std::char_traits<char>, std::allocator<char> > > > > > >, std::less<std::basic_string<char, std::char_traits<char>, std::allocator<char> > >, std::allocator<std::pair<const std::basic_string<char, std::char_traits<char>, std::allocator<char> >, std::map<std::basic_string<char, std::char_traits<char>, std::allocator<char> >, std::basic_string<char, std::char_traits<char>, std::allocator<char> >, std::less<std::basic_string<char, std::char_traits<char>, std::allocator<char> > >, std::allocator<std::pair<const std::basic_string<char, std::char_traits<char>, std::allocator<char> >, std::basic_string<char, std::char_traits<char>, std::allocator<char> > > > > > > >::_S_key
FUNC 35e0c 12 0 std::_Select1st<std::pair<const std::basic_string<char, std::char_traits<char>, std::allocator<char> >, std::map<std::basic_string<char, std::char_traits<char>, std::allocator<char> >, std::basic_string<char, std::char_traits<char>, std::allocator<char> >, std::less<std::basic_string<char, std::char_traits<char>, std::allocator<char> > >, std::allocator<std::pair<const std::basic_string<char, std::char_traits<char>, std::allocator<char> >, std::basic_string<char, std::char_traits<char>, std::allocator<char> > > > > > >::operator()
FUNC 35e1e 12 0 std::_Rb_tree<std::basic_string<char, std::char_traits<char>, std::allocator<char> >, std::pair<const std::basic_string<char, std::char_traits<char>, std::allocator<char> >, std::map<std::basic_string<char, std::char_traits<char>, std::allocator<char> >, std::basic_string<char, std::char_traits<char>, std::allocator<char> >, std::less<std::basic_string<char, std::char_traits<char>, std::allocator<char> > >, std::allocator<std::pair<const std::basic_string<char, std::char_traits<char>, std::allocator<char> >, std::basic_string<char, std::char_traits<char>, std::allocator<char> > > > > >, std::_Select1st<std::pair<const std::basic_string<char, std::char_traits<char>, std::allocator<char> >, std::map<std::basic_string<char, std::char_traits<char>, std::allocator<char> >, std::basic_string<char, std::char_traits<char>, std::allocator<char> >, std::less<std::basic_string<char, std::char_traits<char>, std::allocator<char> > >, std::allocator<std::pair<const std::basic_string<char, std::char_traits<char>, std::allocator<char> >, std::basic_string<char, std::char_traits<char>, std::allocator<char> > > > > > >, std::less<std::basic_string<char, std::char_traits<char>, std::allocator<char> > >, std::allocator<std::pair<const std::basic_string<char, std::char_traits<char>, std::allocator<char> >, std::map<std::basic_string<char, std::char_traits<char>, std::allocator<char> >, std::basic_string<char, std::char_traits<char>, std::allocator<char> >, std::less<std::basic_string<char, std::char_traits<char>, std::allocator<char> > >, std::allocator<std::pair<const std::basic_string<char, std::char_traits<char>, std::allocator<char> >, std::basic_string<char, std::char_traits<char>, std::allocator<char> > > > > > > >::size
FUNC 35e30 e3 0 std::_Rb_tree<std::basic_string<char, std::char_traits<char>, std::allocator<char> >, std::pair<const std::basic_string<char, std::char_traits<char>, std::allocator<char> >, std::map<std::basic_string<char, std::char_traits<char>, std::allocator<char> >, std::basic_string<char, std::char_traits<char>, std::allocator<char> >, std::less<std::basic_string<char, std::char_traits<char>, std::allocator<char> > >, std::allocator<std::pair<const std::basic_string<char, std::char_traits<char>, std::allocator<char> >, std::basic_string<char, std::char_traits<char>, std::allocator<char> > > > > >, std::_Select1st<std::pair<const std::basic_string<char, std::char_traits<char>, std::allocator<char> >, std::map<std::basic_string<char, std::char_traits<char>, std::allocator<char> >, std::basic_string<char, std::char_traits<char>, std::allocator<char> >, std::less<std::basic_string<char, std::char_traits<char>, std::allocator<char> > >, std::allocator<std::pair<const std::basic_string<char, std::char_traits<char>, std::allocator<char> >, std::basic_string<char, std::char_traits<char>, std::allocator<char> > > > > > >, std::less<std::basic_string<char, std::char_traits<char>, std::allocator<char> > >, std::allocator<std::pair<const std::basic_string<char, std::char_traits<char>, std::allocator<char> >, std::map<std::basic_string<char, std::char_traits<char>, std::allocator<char> >, std::basic_string<char, std::char_traits<char>, std::allocator<char> >, std::less<std::basic_string<char, std::char_traits<char>, std::allocator<char> > >, std::allocator<std::pair<const std::basic_string<char, std::char_traits<char>, std::allocator<char> >, std::basic_string<char, std::char_traits<char>, std::allocator<char> > > > > > > >::_M_insert_
FUNC 35f14 271 0 std::_Rb_tree<std::basic_string<char, std::char_traits<char>, std::allocator<char> >, std::pair<const std::basic_string<char, std::char_traits<char>, std::allocator<char> >, std::map<std::basic_string<char, std::char_traits<char>, std::allocator<char> >, std::basic_string<char, std::char_traits<char>, std::allocator<char> >, std::less<std::basic_string<char, std::char_traits<char>, std::allocator<char> > >, std::allocator<std::pair<const std::basic_string<char, std::char_traits<char>, std::allocator<char> >, std::basic_string<char, std::char_traits<char>, std::allocator<char> > > > > >, std::_Select1st<std::pair<const std::basic_string<char, std::char_traits<char>, std::allocator<char> >, std::map<std::basic_string<char, std::char_traits<char>, std::allocator<char> >, std::basic_string<char, std::char_traits<char>, std::allocator<char> >, std::less<std::basic_string<char, std::char_traits<char>, std::allocator<char> > >, std::allocator<std::pair<const std::basic_string<char, std::char_traits<char>, std::allocator<char> >, std::basic_string<char, std::char_traits<char>, std::allocator<char> > > > > > >, std::less<std::basic_string<char, std::char_traits<char>, std::allocator<char> > >, std::allocator<std::pair<const std::basic_string<char, std::char_traits<char>, std::allocator<char> >, std::map<std::basic_string<char, std::char_traits<char>, std::allocator<char> >, std::basic_string<char, std::char_traits<char>, std::allocator<char> >, std::less<std::basic_string<char, std::char_traits<char>, std::allocator<char> > >, std::allocator<std::pair<const std::basic_string<char, std::char_traits<char>, std::allocator<char> >, std::basic_string<char, std::char_traits<char>, std::allocator<char> > > > > > > >::_M_insert_unique
FUNC 36186 28 0 std::_Rb_tree_const_iterator<std::pair<const std::basic_string<char, std::char_traits<char>, std::allocator<char> >, std::map<std::basic_string<char, std::char_traits<char>, std::allocator<char> >, std::basic_string<char, std::char_traits<char>, std::allocator<char> >, std::less<std::basic_string<char, std::char_traits<char>, std::allocator<char> > >, std::allocator<std::pair<const std::basic_string<char, std::char_traits<char>, std::allocator<char> >, std::basic_string<char, std::char_traits<char>, std::allocator<char> > > > > > >::operator--
FUNC 361ae 28 0 std::_Rb_tree_const_iterator<std::pair<const std::basic_string<char, std::char_traits<char>, std::allocator<char> >, std::map<std::basic_string<char, std::char_traits<char>, std::allocator<char> >, std::basic_string<char, std::char_traits<char>, std::allocator<char> >, std::less<std::basic_string<char, std::char_traits<char>, std::allocator<char> > >, std::allocator<std::pair<const std::basic_string<char, std::char_traits<char>, std::allocator<char> >, std::basic_string<char, std::char_traits<char>, std::allocator<char> > > > > > >::operator++
FUNC 361d6 24 0 std::_List_base<std::basic_string<char, std::char_traits<char>, std::allocator<char> >, std::allocator<std::basic_string<char, std::char_traits<char>, std::allocator<char> > > >::_M_get_node
FUNC 361fa a 0 __gnu_cxx::new_allocator<std::_Rb_tree_node<std::pair<const std::basic_string<char, std::char_traits<char>, std::allocator<char> >, IEC61850_STRUCT::IED_61850> > >::new_allocator
FUNC 36204 1e 0 std::allocator<std::pair<const std::basic_string<char, std::char_traits<char>, std::allocator<char> >, IEC61850_STRUCT::IED_61850> >::allocator<std::_Rb_tree_node<std::pair<const std::basic_string<char, std::char_traits<char>, std::allocator<char> >, IEC61850_STRUCT::IED_61850> > >
FUNC 36222 a 0 __gnu_cxx::new_allocator<std::pair<const std::basic_string<char, std::char_traits<char>, std::allocator<char> >, IEC61850_STRUCT::IED_61850> >::~new_allocator
FUNC 3622c 22 0 __gnu_cxx::new_allocator<std::_Rb_tree_node<std::pair<const std::basic_string<char, std::char_traits<char>, std::allocator<char> >, IEC61850_STRUCT::IED_61850> > >::deallocate
FUNC 3624e e 0 __gnu_cxx::new_allocator<std::basic_string<char, std::char_traits<char>, std::allocator<char> > >::new_allocator
FUNC 3625c a 0 __gnu_cxx::new_allocator<std::_Rb_tree_node<std::pair<const std::basic_string<char, std::char_traits<char>, std::allocator<char> >, std::map<int, std::map<int, IEC104WF::stPointTable, std::less<int>, std::allocator<std::pair<const int, IEC104WF::stPointTable> > >, std::less<int>, std::allocator<std::pair<const int, std::map<int, IEC104WF::stPointTable, std::less<int>, std::allocator<std::pair<const int, IEC104WF::stPointTable> > > > > > > > >::new_allocator
FUNC 36266 1e 0 std::allocator<std::pair<const std::basic_string<char, std::char_traits<char>, std::allocator<char> >, std::map<int, std::map<int, IEC104WF::stPointTable, std::less<int>, std::allocator<std::pair<const int, IEC104WF::stPointTable> > >, std::less<int>, std::allocator<std::pair<const int, std::map<int, IEC104WF::stPointTable, std::less<int>, std::allocator<std::pair<const int, IEC104WF::stPointTable> > > > > > > >::allocator<std::_Rb_tree_node<std::pair<const std::basic_string<char, std::char_traits<char>, std::allocator<char> >, std::map<int, std::map<int, IEC104WF::stPointTable, std::less<int>, std::allocator<std::pair<const int, IEC104WF::stPointTable> > >, std::less<int>, std::allocator<std::pair<const int, std::map<int, IEC104WF::stPointTable, std::less<int>, std::allocator<std::pair<const int, IEC104WF::stPointTable> > > > > > > > >
FUNC 36284 a 0 __gnu_cxx::new_allocator<std::pair<const std::basic_string<char, std::char_traits<char>, std::allocator<char> >, std::map<int, std::map<int, IEC104WF::stPointTable, std::less<int>, std::allocator<std::pair<const int, IEC104WF::stPointTable> > >, std::less<int>, std::allocator<std::pair<const int, std::map<int, IEC104WF::stPointTable, std::less<int>, std::allocator<std::pair<const int, IEC104WF::stPointTable> > > > > > > >::~new_allocator
FUNC 3628e 22 0 __gnu_cxx::new_allocator<std::_Rb_tree_node<std::pair<const std::basic_string<char, std::char_traits<char>, std::allocator<char> >, std::map<int, std::map<int, IEC104WF::stPointTable, std::less<int>, std::allocator<std::pair<const int, IEC104WF::stPointTable> > >, std::less<int>, std::allocator<std::pair<const int, std::map<int, IEC104WF::stPointTable, std::less<int>, std::allocator<std::pair<const int, IEC104WF::stPointTable> > > > > > > > >::deallocate
FUNC 362b0 a 0 __gnu_cxx::new_allocator<std::_Rb_tree_node<std::pair<const int, std::map<int, IEC104WF::stPointTable, std::less<int>, std::allocator<std::pair<const int, IEC104WF::stPointTable> > > > > >::new_allocator
FUNC 362ba e 0 std::_Rb_tree<int, std::pair<const int, std::map<int, IEC104WF::stPointTable, std::less<int>, std::allocator<std::pair<const int, IEC104WF::stPointTable> > > >, std::_Select1st<std::pair<const int, std::map<int, IEC104WF::stPointTable, std::less<int>, std::allocator<std::pair<const int, IEC104WF::stPointTable> > > > >, std::less<int>, std::allocator<std::pair<const int, std::map<int, IEC104WF::stPointTable, std::less<int>, std::allocator<std::pair<const int, IEC104WF::stPointTable> > > > > >::_M_get_Node_allocator
FUNC 362c8 1e 0 std::allocator<std::pair<const int, std::map<int, IEC104WF::stPointTable, std::less<int>, std::allocator<std::pair<const int, IEC104WF::stPointTable> > > > >::allocator<std::_Rb_tree_node<std::pair<const int, std::map<int, IEC104WF::stPointTable, std::less<int>, std::allocator<std::pair<const int, IEC104WF::stPointTable> > > > > >
FUNC 362e6 a 0 __gnu_cxx::new_allocator<std::pair<const int, std::map<int, IEC104WF::stPointTable, std::less<int>, std::allocator<std::pair<const int, IEC104WF::stPointTable> > > > >::~new_allocator
FUNC 362f0 22 0 __gnu_cxx::new_allocator<std::_Rb_tree_node<std::pair<const int, std::map<int, IEC104WF::stPointTable, std::less<int>, std::allocator<std::pair<const int, IEC104WF::stPointTable> > > > > >::deallocate
FUNC 36312 a 0 __gnu_cxx::new_allocator<std::_Rb_tree_node<std::pair<const int, IEC104WF::stPointTable> > >::new_allocator
FUNC 3631c e 0 std::_Rb_tree<int, std::pair<const int, IEC104WF::stPointTable>, std::_Select1st<std::pair<const int, IEC104WF::stPointTable> >, std::less<int>, std::allocator<std::pair<const int, IEC104WF::stPointTable> > >::_M_get_Node_allocator
FUNC 3632a 1e 0 std::allocator<std::pair<const int, IEC104WF::stPointTable> >::allocator<std::_Rb_tree_node<std::pair<const int, IEC104WF::stPointTable> > >
FUNC 36348 a 0 __gnu_cxx::new_allocator<std::pair<const int, IEC104WF::stPointTable> >::~new_allocator
FUNC 36352 22 0 __gnu_cxx::new_allocator<std::_Rb_tree_node<std::pair<const int, IEC104WF::stPointTable> > >::deallocate
FUNC 36374 a 0 __gnu_cxx::new_allocator<std::_Rb_tree_node<std::pair<const std::basic_string<char, std::char_traits<char>, std::allocator<char> >, IEC103::stConfigParam> > >::new_allocator
FUNC 3637e a 0 __gnu_cxx::new_allocator<std::_Rb_tree_node<std::pair<const std::basic_string<char, std::char_traits<char>, std::allocator<char> >, std::map<std::basic_string<char, std::char_traits<char>, std::allocator<char> >, std::basic_string<char, std::char_traits<char>, std::allocator<char> >, std::less<std::basic_string<char, std::char_traits<char>, std::allocator<char> > >, std::allocator<std::pair<const std::basic_string<char, std::char_traits<char>, std::allocator<char> >, std::basic_string<char, std::char_traits<char>, std::allocator<char> > > > > > > >::new_allocator
FUNC 36388 e 0 __gnu_cxx::new_allocator<std::_Rb_tree_node<std::pair<const std::basic_string<char, std::char_traits<char>, std::allocator<char> >, IEC61850_STRUCT::IED_61850> > >::new_allocator
FUNC 36396 bb 0 std::_Rb_tree<std::basic_string<char, std::char_traits<char>, std::allocator<char> >, std::pair<const std::basic_string<char, std::char_traits<char>, std::allocator<char> >, IEC61850_STRUCT::IED_61850>, std::_Select1st<std::pair<const std::basic_string<char, std::char_traits<char>, std::allocator<char> >, IEC61850_STRUCT::IED_61850> >, std::less<std::basic_string<char, std::char_traits<char>, std::allocator<char> > >, std::allocator<std::pair<const std::basic_string<char, std::char_traits<char>, std::allocator<char> >, IEC61850_STRUCT::IED_61850> > >::_M_create_node
FUNC 36452 e 0 __gnu_cxx::new_allocator<std::_Rb_tree_node<std::pair<const std::basic_string<char, std::char_traits<char>, std::allocator<char> >, IEC103::stConfigParam> > >::new_allocator
FUNC 36460 bb 0 std::_Rb_tree<std::basic_string<char, std::char_traits<char>, std::allocator<char> >, std::pair<const std::basic_string<char, std::char_traits<char>, std::allocator<char> >, IEC103::stConfigParam>, std::_Select1st<std::pair<const std::basic_string<char, std::char_traits<char>, std::allocator<char> >, IEC103::stConfigParam> >, std::less<std::basic_string<char, std::char_traits<char>, std::allocator<char> > >, std::allocator<std::pair<const std::basic_string<char, std::char_traits<char>, std::allocator<char> >, IEC103::stConfigParam> > >::_M_create_node
FUNC 3651c e 0 __gnu_cxx::new_allocator<std::_Rb_tree_node<std::pair<const std::basic_string<char, std::char_traits<char>, std::allocator<char> >, std::map<std::basic_string<char, std::char_traits<char>, std::allocator<char> >, std::basic_string<char, std::char_traits<char>, std::allocator<char> >, std::less<std::basic_string<char, std::char_traits<char>, std::allocator<char> > >, std::allocator<std::pair<const std::basic_string<char, std::char_traits<char>, std::allocator<char> >, std::basic_string<char, std::char_traits<char>, std::allocator<char> > > > > > > >::new_allocator
FUNC 3652a bb 0 std::_Rb_tree<std::basic_string<char, std::char_traits<char>, std::allocator<char> >, std::pair<const std::basic_string<char, std::char_traits<char>, std::allocator<char> >, std::map<std::basic_string<char, std::char_traits<char>, std::allocator<char> >, std::basic_string<char, std::char_traits<char>, std::allocator<char> >, std::less<std::basic_string<char, std::char_traits<char>, std::allocator<char> > >, std::allocator<std::pair<const std::basic_string<char, std::char_traits<char>, std::allocator<char> >, std::basic_string<char, std::char_traits<char>, std::allocator<char> > > > > >, std::_Select1st<std::pair<const std::basic_string<char, std::char_traits<char>, std::allocator<char> >, std::map<std::basic_string<char, std::char_traits<char>, std::allocator<char> >, std::basic_string<char, std::char_traits<char>, std::allocator<char> >, std::less<std::basic_string<char, std::char_traits<char>, std::allocator<char> > >, std::allocator<std::pair<const std::basic_string<char, std::char_traits<char>, std::allocator<char> >, std::basic_string<char, std::char_traits<char>, std::allocator<char> > > > > > >, std::less<std::basic_string<char, std::char_traits<char>, std::allocator<char> > >, std::allocator<std::pair<const std::basic_string<char, std::char_traits<char>, std::allocator<char> >, std::map<std::basic_string<char, std::char_traits<char>, std::allocator<char> >, std::basic_string<char, std::char_traits<char>, std::allocator<char> >, std::less<std::basic_string<char, std::char_traits<char>, std::allocator<char> > >, std::allocator<std::pair<const std::basic_string<char, std::char_traits<char>, std::allocator<char> >, std::basic_string<char, std::char_traits<char>, std::allocator<char> > > > > > > >::_M_create_node
FUNC 365e6 e 0 __gnu_cxx::new_allocator<std::_Rb_tree_node<std::pair<const std::basic_string<char, std::char_traits<char>, std::allocator<char> >, std::map<int, std::map<int, IEC104WF::stPointTable, std::less<int>, std::allocator<std::pair<const int, IEC104WF::stPointTable> > >, std::less<int>, std::allocator<std::pair<const int, std::map<int, IEC104WF::stPointTable, std::less<int>, std::allocator<std::pair<const int, IEC104WF::stPointTable> > > > > > > > >::new_allocator
FUNC 365f4 bb 0 std::_Rb_tree<std::basic_string<char, std::char_traits<char>, std::allocator<char> >, std::pair<const std::basic_string<char, std::char_traits<char>, std::allocator<char> >, std::map<int, std::map<int, IEC104WF::stPointTable, std::less<int>, std::allocator<std::pair<const int, IEC104WF::stPointTable> > >, std::less<int>, std::allocator<std::pair<const int, std::map<int, IEC104WF::stPointTable, std::less<int>, std::allocator<std::pair<const int, IEC104WF::stPointTable> > > > > > >, std::_Select1st<std::pair<const std::basic_string<char, std::char_traits<char>, std::allocator<char> >, std::map<int, std::map<int, IEC104WF::stPointTable, std::less<int>, std::allocator<std::pair<const int, IEC104WF::stPointTable> > >, std::less<int>, std::allocator<std::pair<const int, std::map<int, IEC104WF::stPointTable, std::less<int>, std::allocator<std::pair<const int, IEC104WF::stPointTable> > > > > > > >, std::less<std::basic_string<char, std::char_traits<char>, std::allocator<char> > >, std::allocator<std::pair<const std::basic_string<char, std::char_traits<char>, std::allocator<char> >, std::map<int, std::map<int, IEC104WF::stPointTable, std::less<int>, std::allocator<std::pair<const int, IEC104WF::stPointTable> > >, std::less<int>, std::allocator<std::pair<const int, std::map<int, IEC104WF::stPointTable, std::less<int>, std::allocator<std::pair<const int, IEC104WF::stPointTable> > > > > > > > >::_M_create_node
FUNC 366b0 e 0 __gnu_cxx::new_allocator<std::_List_node<std::basic_string<char, std::char_traits<char>, std::allocator<char> > > >::new_allocator
FUNC 366be 2c 0 std::_Rb_tree<std::basic_string<char, std::char_traits<char>, std::allocator<char> >, std::pair<const std::basic_string<char, std::char_traits<char>, std::allocator<char> >, IEC61850_STRUCT::IED_61850>, std::_Select1st<std::pair<const std::basic_string<char, std::char_traits<char>, std::allocator<char> >, IEC61850_STRUCT::IED_61850> >, std::less<std::basic_string<char, std::char_traits<char>, std::allocator<char> > >, std::allocator<std::pair<const std::basic_string<char, std::char_traits<char>, std::allocator<char> >, IEC61850_STRUCT::IED_61850> > >::_S_key
FUNC 366ea 12 0 std::_Rb_tree<std::basic_string<char, std::char_traits<char>, std::allocator<char> >, std::pair<const std::basic_string<char, std::char_traits<char>, std::allocator<char> >, IEC61850_STRUCT::IED_61850>, std::_Select1st<std::pair<const std::basic_string<char, std::char_traits<char>, std::allocator<char> >, IEC61850_STRUCT::IED_61850> >, std::less<std::basic_string<char, std::char_traits<char>, std::allocator<char> > >, std::allocator<std::pair<const std::basic_string<char, std::char_traits<char>, std::allocator<char> >, IEC61850_STRUCT::IED_61850> > >::_S_value
FUNC 366fc 2c 0 std::_Rb_tree<std::basic_string<char, std::char_traits<char>, std::allocator<char> >, std::pair<const std::basic_string<char, std::char_traits<char>, std::allocator<char> >, IEC61850_STRUCT::IED_61850>, std::_Select1st<std::pair<const std::basic_string<char, std::char_traits<char>, std::allocator<char> >, IEC61850_STRUCT::IED_61850> >, std::less<std::basic_string<char, std::char_traits<char>, std::allocator<char> > >, std::allocator<std::pair<const std::basic_string<char, std::char_traits<char>, std::allocator<char> >, IEC61850_STRUCT::IED_61850> > >::begin
FUNC 36728 2e 0 std::pair<std::_Rb_tree_iterator<std::pair<const std::basic_string<char, std::char_traits<char>, std::allocator<char> >, IEC61850_STRUCT::IED_61850> >, bool>::pair
FUNC 36756 28 0 std::_Rb_tree_iterator<std::pair<const std::basic_string<char, std::char_traits<char>, std::allocator<char> >, IEC61850_STRUCT::IED_61850> >::operator--
FUNC 3677e 2c 0 std::_Rb_tree<int, std::pair<const int, IEC104WF::stPointTable>, std::_Select1st<std::pair<const int, IEC104WF::stPointTable> >, std::less<int>, std::allocator<std::pair<const int, IEC104WF::stPointTable> > >::_S_key
FUNC 367aa 12 0 std::_Rb_tree<int, std::pair<const int, IEC104WF::stPointTable>, std::_Select1st<std::pair<const int, IEC104WF::stPointTable> >, std::less<int>, std::allocator<std::pair<const int, IEC104WF::stPointTable> > >::_S_value
FUNC 367bc bb 0 std::_Rb_tree<int, std::pair<const int, IEC104WF::stPointTable>, std::_Select1st<std::pair<const int, IEC104WF::stPointTable> >, std::less<int>, std::allocator<std::pair<const int, IEC104WF::stPointTable> > >::_M_create_node
FUNC 36878 2c 0 std::_Rb_tree<int, std::pair<const int, IEC104WF::stPointTable>, std::_Select1st<std::pair<const int, IEC104WF::stPointTable> >, std::less<int>, std::allocator<std::pair<const int, IEC104WF::stPointTable> > >::begin
FUNC 368a4 2e 0 std::pair<std::_Rb_tree_iterator<std::pair<const int, IEC104WF::stPointTable> >, bool>::pair
FUNC 368d2 28 0 std::_Rb_tree_iterator<std::pair<const int, IEC104WF::stPointTable> >::operator--
FUNC 368fa 2c 0 std::_Rb_tree<int, std::pair<const int, std::map<int, IEC104WF::stPointTable, std::less<int>, std::allocator<std::pair<const int, IEC104WF::stPointTable> > > >, std::_Select1st<std::pair<const int, std::map<int, IEC104WF::stPointTable, std::less<int>, std::allocator<std::pair<const int, IEC104WF::stPointTable> > > > >, std::less<int>, std::allocator<std::pair<const int, std::map<int, IEC104WF::stPointTable, std::less<int>, std::allocator<std::pair<const int, IEC104WF::stPointTable> > > > > >::_S_key
FUNC 36926 70 0 std::_Rb_tree<int, std::pair<const int, IEC104WF::stPointTable>, std::_Select1st<std::pair<const int, IEC104WF::stPointTable> >, std::less<int>, std::allocator<std::pair<const int, IEC104WF::stPointTable> > >::_Rb_tree_impl<std::less<int>, false>::_Rb_tree_impl
FUNC 36996 12 0 std::_Rb_tree<int, std::pair<const int, std::map<int, IEC104WF::stPointTable, std::less<int>, std::allocator<std::pair<const int, IEC104WF::stPointTable> > > >, std::_Select1st<std::pair<const int, std::map<int, IEC104WF::stPointTable, std::less<int>, std::allocator<std::pair<const int, IEC104WF::stPointTable> > > > >, std::less<int>, std::allocator<std::pair<const int, std::map<int, IEC104WF::stPointTable, std::less<int>, std::allocator<std::pair<const int, IEC104WF::stPointTable> > > > > >::_S_value
FUNC 369a8 bb 0 std::_Rb_tree<int, std::pair<const int, std::map<int, IEC104WF::stPointTable, std::less<int>, std::allocator<std::pair<const int, IEC104WF::stPointTable> > > >, std::_Select1st<std::pair<const int, std::map<int, IEC104WF::stPointTable, std::less<int>, std::allocator<std::pair<const int, IEC104WF::stPointTable> > > > >, std::less<int>, std::allocator<std::pair<const int, std::map<int, IEC104WF::stPointTable, std::less<int>, std::allocator<std::pair<const int, IEC104WF::stPointTable> > > > > >::_M_create_node
FUNC 36a64 2c 0 std::_Rb_tree<int, std::pair<const int, std::map<int, IEC104WF::stPointTable, std::less<int>, std::allocator<std::pair<const int, IEC104WF::stPointTable> > > >, std::_Select1st<std::pair<const int, std::map<int, IEC104WF::stPointTable, std::less<int>, std::allocator<std::pair<const int, IEC104WF::stPointTable> > > > >, std::less<int>, std::allocator<std::pair<const int, std::map<int, IEC104WF::stPointTable, std::less<int>, std::allocator<std::pair<const int, IEC104WF::stPointTable> > > > > >::begin
FUNC 36a90 2e 0 std::pair<std::_Rb_tree_iterator<std::pair<const int, std::map<int, IEC104WF::stPointTable, std::less<int>, std::allocator<std::pair<const int, IEC104WF::stPointTable> > > > >, bool>::pair
FUNC 36abe 28 0 std::_Rb_tree_iterator<std::pair<const int, std::map<int, IEC104WF::stPointTable, std::less<int>, std::allocator<std::pair<const int, IEC104WF::stPointTable> > > > >::operator--
FUNC 36ae6 2c 0 std::_Rb_tree<std::basic_string<char, std::char_traits<char>, std::allocator<char> >, std::pair<const std::basic_string<char, std::char_traits<char>, std::allocator<char> >, std::map<int, std::map<int, IEC104WF::stPointTable, std::less<int>, std::allocator<std::pair<const int, IEC104WF::stPointTable> > >, std::less<int>, std::allocator<std::pair<const int, std::map<int, IEC104WF::stPointTable, std::less<int>, std::allocator<std::pair<const int, IEC104WF::stPointTable> > > > > > >, std::_Select1st<std::pair<const std::basic_string<char, std::char_traits<char>, std::allocator<char> >, std::map<int, std::map<int, IEC104WF::stPointTable, std::less<int>, std::allocator<std::pair<const int, IEC104WF::stPointTable> > >, std::less<int>, std::allocator<std::pair<const int, std::map<int, IEC104WF::stPointTable, std::less<int>, std::allocator<std::pair<const int, IEC104WF::stPointTable> > > > > > > >, std::less<std::basic_string<char, std::char_traits<char>, std::allocator<char> > >, std::allocator<std::pair<const std::basic_string<char, std::char_traits<char>, std::allocator<char> >, std::map<int, std::map<int, IEC104WF::stPointTable, std::less<int>, std::allocator<std::pair<const int, IEC104WF::stPointTable> > >, std::less<int>, std::allocator<std::pair<const int, std::map<int, IEC104WF::stPointTable, std::less<int>, std::allocator<std::pair<const int, IEC104WF::stPointTable> > > > > > > > >::_S_key
FUNC 36b12 70 0 std::_Rb_tree<int, std::pair<const int, std::map<int, IEC104WF::stPointTable, std::less<int>, std::allocator<std::pair<const int, IEC104WF::stPointTable> > > >, std::_Select1st<std::pair<const int, std::map<int, IEC104WF::stPointTable, std::less<int>, std::allocator<std::pair<const int, IEC104WF::stPointTable> > > > >, std::less<int>, std::allocator<std::pair<const int, std::map<int, IEC104WF::stPointTable, std::less<int>, std::allocator<std::pair<const int, IEC104WF::stPointTable> > > > > >::_Rb_tree_impl<std::less<int>, false>::_Rb_tree_impl
FUNC 36b82 12 0 std::_Rb_tree<std::basic_string<char, std::char_traits<char>, std::allocator<char> >, std::pair<const std::basic_string<char, std::char_traits<char>, std::allocator<char> >, std::map<int, std::map<int, IEC104WF::stPointTable, std::less<int>, std::allocator<std::pair<const int, IEC104WF::stPointTable> > >, std::less<int>, std::allocator<std::pair<const int, std::map<int, IEC104WF::stPointTable, std::less<int>, std::allocator<std::pair<const int, IEC104WF::stPointTable> > > > > > >, std::_Select1st<std::pair<const std::basic_string<char, std::char_traits<char>, std::allocator<char> >, std::map<int, std::map<int, IEC104WF::stPointTable, std::less<int>, std::allocator<std::pair<const int, IEC104WF::stPointTable> > >, std::less<int>, std::allocator<std::pair<const int, std::map<int, IEC104WF::stPointTable, std::less<int>, std::allocator<std::pair<const int, IEC104WF::stPointTable> > > > > > > >, std::less<std::basic_string<char, std::char_traits<char>, std::allocator<char> > >, std::allocator<std::pair<const std::basic_string<char, std::char_traits<char>, std::allocator<char> >, std::map<int, std::map<int, IEC104WF::stPointTable, std::less<int>, std::allocator<std::pair<const int, IEC104WF::stPointTable> > >, std::less<int>, std::allocator<std::pair<const int, std::map<int, IEC104WF::stPointTable, std::less<int>, std::allocator<std::pair<const int, IEC104WF::stPointTable> > > > > > > > >::_S_value
FUNC 36b94 2c 0 std::_Rb_tree<std::basic_string<char, std::char_traits<char>, std::allocator<char> >, std::pair<const std::basic_string<char, std::char_traits<char>, std::allocator<char> >, std::map<int, std::map<int, IEC104WF::stPointTable, std::less<int>, std::allocator<std::pair<const int, IEC104WF::stPointTable> > >, std::less<int>, std::allocator<std::pair<const int, std::map<int, IEC104WF::stPointTable, std::less<int>, std::allocator<std::pair<const int, IEC104WF::stPointTable> > > > > > >, std::_Select1st<std::pair<const std::basic_string<char, std::char_traits<char>, std::allocator<char> >, std::map<int, std::map<int, IEC104WF::stPointTable, std::less<int>, std::allocator<std::pair<const int, IEC104WF::stPointTable> > >, std::less<int>, std::allocator<std::pair<const int, std::map<int, IEC104WF::stPointTable, std::less<int>, std::allocator<std::pair<const int, IEC104WF::stPointTable> > > > > > > >, std::less<std::basic_string<char, std::char_traits<char>, std::allocator<char> > >, std::allocator<std::pair<const std::basic_string<char, std::char_traits<char>, std::allocator<char> >, std::map<int, std::map<int, IEC104WF::stPointTable, std::less<int>, std::allocator<std::pair<const int, IEC104WF::stPointTable> > >, std::less<int>, std::allocator<std::pair<const int, std::map<int, IEC104WF::stPointTable, std::less<int>, std::allocator<std::pair<const int, IEC104WF::stPointTable> > > > > > > > >::begin
FUNC 36bc0 2e 0 std::pair<std::_Rb_tree_iterator<std::pair<const std::basic_string<char, std::char_traits<char>, std::allocator<char> >, std::map<int, std::map<int, IEC104WF::stPointTable, std::less<int>, std::allocator<std::pair<const int, IEC104WF::stPointTable> > >, std::less<int>, std::allocator<std::pair<const int, std::map<int, IEC104WF::stPointTable, std::less<int>, std::allocator<std::pair<const int, IEC104WF::stPointTable> > > > > > > >, bool>::pair
FUNC 36bee 28 0 std::_Rb_tree_iterator<std::pair<const std::basic_string<char, std::char_traits<char>, std::allocator<char> >, std::map<int, std::map<int, IEC104WF::stPointTable, std::less<int>, std::allocator<std::pair<const int, IEC104WF::stPointTable> > >, std::less<int>, std::allocator<std::pair<const int, std::map<int, IEC104WF::stPointTable, std::less<int>, std::allocator<std::pair<const int, IEC104WF::stPointTable> > > > > > > >::operator--
FUNC 36c16 2c 0 std::_Rb_tree<std::basic_string<char, std::char_traits<char>, std::allocator<char> >, std::pair<const std::basic_string<char, std::char_traits<char>, std::allocator<char> >, IEC103::stConfigParam>, std::_Select1st<std::pair<const std::basic_string<char, std::char_traits<char>, std::allocator<char> >, IEC103::stConfigParam> >, std::less<std::basic_string<char, std::char_traits<char>, std::allocator<char> > >, std::allocator<std::pair<const std::basic_string<char, std::char_traits<char>, std::allocator<char> >, IEC103::stConfigParam> > >::_S_key
FUNC 36c42 12 0 std::_Rb_tree<std::basic_string<char, std::char_traits<char>, std::allocator<char> >, std::pair<const std::basic_string<char, std::char_traits<char>, std::allocator<char> >, IEC103::stConfigParam>, std::_Select1st<std::pair<const std::basic_string<char, std::char_traits<char>, std::allocator<char> >, IEC103::stConfigParam> >, std::less<std::basic_string<char, std::char_traits<char>, std::allocator<char> > >, std::allocator<std::pair<const std::basic_string<char, std::char_traits<char>, std::allocator<char> >, IEC103::stConfigParam> > >::_S_value
FUNC 36c54 2e 0 std::pair<std::_Rb_tree_iterator<std::pair<const std::basic_string<char, std::char_traits<char>, std::allocator<char> >, IEC103::stConfigParam> >, bool>::pair
FUNC 36c82 28 0 std::_Rb_tree_iterator<std::pair<const std::basic_string<char, std::char_traits<char>, std::allocator<char> >, IEC103::stConfigParam> >::operator--
FUNC 36caa 2c 0 std::_Rb_tree<std::basic_string<char, std::char_traits<char>, std::allocator<char> >, std::pair<const std::basic_string<char, std::char_traits<char>, std::allocator<char> >, std::map<std::basic_string<char, std::char_traits<char>, std::allocator<char> >, std::basic_string<char, std::char_traits<char>, std::allocator<char> >, std::less<std::basic_string<char, std::char_traits<char>, std::allocator<char> > >, std::allocator<std::pair<const std::basic_string<char, std::char_traits<char>, std::allocator<char> >, std::basic_string<char, std::char_traits<char>, std::allocator<char> > > > > >, std::_Select1st<std::pair<const std::basic_string<char, std::char_traits<char>, std::allocator<char> >, std::map<std::basic_string<char, std::char_traits<char>, std::allocator<char> >, std::basic_string<char, std::char_traits<char>, std::allocator<char> >, std::less<std::basic_string<char, std::char_traits<char>, std::allocator<char> > >, std::allocator<std::pair<const std::basic_string<char, std::char_traits<char>, std::allocator<char> >, std::basic_string<char, std::char_traits<char>, std::allocator<char> > > > > > >, std::less<std::basic_string<char, std::char_traits<char>, std::allocator<char> > >, std::allocator<std::pair<const std::basic_string<char, std::char_traits<char>, std::allocator<char> >, std::map<std::basic_string<char, std::char_traits<char>, std::allocator<char> >, std::basic_string<char, std::char_traits<char>, std::allocator<char> >, std::less<std::basic_string<char, std::char_traits<char>, std::allocator<char> > >, std::allocator<std::pair<const std::basic_string<char, std::char_traits<char>, std::allocator<char> >, std::basic_string<char, std::char_traits<char>, std::allocator<char> > > > > > > >::_S_key
FUNC 36cd6 12 0 std::_Rb_tree<std::basic_string<char, std::char_traits<char>, std::allocator<char> >, std::pair<const std::basic_string<char, std::char_traits<char>, std::allocator<char> >, std::map<std::basic_string<char, std::char_traits<char>, std::allocator<char> >, std::basic_string<char, std::char_traits<char>, std::allocator<char> >, std::less<std::basic_string<char, std::char_traits<char>, std::allocator<char> > >, std::allocator<std::pair<const std::basic_string<char, std::char_traits<char>, std::allocator<char> >, std::basic_string<char, std::char_traits<char>, std::allocator<char> > > > > >, std::_Select1st<std::pair<const std::basic_string<char, std::char_traits<char>, std::allocator<char> >, std::map<std::basic_string<char, std::char_traits<char>, std::allocator<char> >, std::basic_string<char, std::char_traits<char>, std::allocator<char> >, std::less<std::basic_string<char, std::char_traits<char>, std::allocator<char> > >, std::allocator<std::pair<const std::basic_string<char, std::char_traits<char>, std::allocator<char> >, std::basic_string<char, std::char_traits<char>, std::allocator<char> > > > > > >, std::less<std::basic_string<char, std::char_traits<char>, std::allocator<char> > >, std::allocator<std::pair<const std::basic_string<char, std::char_traits<char>, std::allocator<char> >, std::map<std::basic_string<char, std::char_traits<char>, std::allocator<char> >, std::basic_string<char, std::char_traits<char>, std::allocator<char> >, std::less<std::basic_string<char, std::char_traits<char>, std::allocator<char> > >, std::allocator<std::pair<const std::basic_string<char, std::char_traits<char>, std::allocator<char> >, std::basic_string<char, std::char_traits<char>, std::allocator<char> > > > > > > >::_S_value
FUNC 36ce8 2e 0 std::pair<std::_Rb_tree_iterator<std::pair<const std::basic_string<char, std::char_traits<char>, std::allocator<char> >, std::map<std::basic_string<char, std::char_traits<char>, std::allocator<char> >, std::basic_string<char, std::char_traits<char>, std::allocator<char> >, std::less<std::basic_string<char, std::char_traits<char>, std::allocator<char> > >, std::allocator<std::pair<const std::basic_string<char, std::char_traits<char>, std::allocator<char> >, std::basic_string<char, std::char_traits<char>, std::allocator<char> > > > > > >, bool>::pair
FUNC 36d16 28 0 std::_Rb_tree_iterator<std::pair<const std::basic_string<char, std::char_traits<char>, std::allocator<char> >, std::map<std::basic_string<char, std::char_traits<char>, std::allocator<char> >, std::basic_string<char, std::char_traits<char>, std::allocator<char> >, std::less<std::basic_string<char, std::char_traits<char>, std::allocator<char> > >, std::allocator<std::pair<const std::basic_string<char, std::char_traits<char>, std::allocator<char> >, std::basic_string<char, std::char_traits<char>, std::allocator<char> > > > > > >::operator--
FUNC 36d3e 54 0 __gnu_cxx::new_allocator<std::_List_node<std::basic_string<char, std::char_traits<char>, std::allocator<char> > > >::allocate
FUNC 36d92 a 0 __gnu_cxx::new_allocator<std::pair<const std::basic_string<char, std::char_traits<char>, std::allocator<char> >, IEC61850_STRUCT::IED_61850> >::new_allocator
FUNC 36d9c a 0 __gnu_cxx::new_allocator<std::pair<const std::basic_string<char, std::char_traits<char>, std::allocator<char> >, std::map<int, std::map<int, IEC104WF::stPointTable, std::less<int>, std::allocator<std::pair<const int, IEC104WF::stPointTable> > >, std::less<int>, std::allocator<std::pair<const int, std::map<int, IEC104WF::stPointTable, std::less<int>, std::allocator<std::pair<const int, IEC104WF::stPointTable> > > > > > > >::new_allocator
FUNC 36da6 a 0 __gnu_cxx::new_allocator<std::pair<const int, std::map<int, IEC104WF::stPointTable, std::less<int>, std::allocator<std::pair<const int, IEC104WF::stPointTable> > > > >::new_allocator
FUNC 36db0 a 0 __gnu_cxx::new_allocator<std::pair<const int, IEC104WF::stPointTable> >::new_allocator
FUNC 36dba 24 0 std::_Rb_tree<std::basic_string<char, std::char_traits<char>, std::allocator<char> >, std::pair<const std::basic_string<char, std::char_traits<char>, std::allocator<char> >, IEC61850_STRUCT::IED_61850>, std::_Select1st<std::pair<const std::basic_string<char, std::char_traits<char>, std::allocator<char> >, IEC61850_STRUCT::IED_61850> >, std::less<std::basic_string<char, std::char_traits<char>, std::allocator<char> > >, std::allocator<std::pair<const std::basic_string<char, std::char_traits<char>, std::allocator<char> >, IEC61850_STRUCT::IED_61850> > >::_M_get_node
FUNC 36dde 6b 0 std::pair<const std::basic_string<char, std::char_traits<char>, std::allocator<char> >, IEC61850_STRUCT::IED_61850>::pair
FUNC 36e4a 77 0 __gnu_cxx::new_allocator<std::pair<const std::basic_string<char, std::char_traits<char>, std::allocator<char> >, IEC61850_STRUCT::IED_61850> >::construct
FUNC 36ec2 24 0 std::_Rb_tree<std::basic_string<char, std::char_traits<char>, std::allocator<char> >, std::pair<const std::basic_string<char, std::char_traits<char>, std::allocator<char> >, IEC103::stConfigParam>, std::_Select1st<std::pair<const std::basic_string<char, std::char_traits<char>, std::allocator<char> >, IEC103::stConfigParam> >, std::less<std::basic_string<char, std::char_traits<char>, std::allocator<char> > >, std::allocator<std::pair<const std::basic_string<char, std::char_traits<char>, std::allocator<char> >, IEC103::stConfigParam> > >::_M_get_node
FUNC 36ee6 6b 0 std::pair<const std::basic_string<char, std::char_traits<char>, std::allocator<char> >, IEC103::stConfigParam>::pair
FUNC 36f52 77 0 __gnu_cxx::new_allocator<std::pair<const std::basic_string<char, std::char_traits<char>, std::allocator<char> >, IEC103::stConfigParam> >::construct
FUNC 36fca 24 0 std::_Rb_tree<std::basic_string<char, std::char_traits<char>, std::allocator<char> >, std::pair<const std::basic_string<char, std::char_traits<char>, std::allocator<char> >, std::map<std::basic_string<char, std::char_traits<char>, std::allocator<char> >, std::basic_string<char, std::char_traits<char>, std::allocator<char> >, std::less<std::basic_string<char, std::char_traits<char>, std::allocator<char> > >, std::allocator<std::pair<const std::basic_string<char, std::char_traits<char>, std::allocator<char> >, std::basic_string<char, std::char_traits<char>, std::allocator<char> > > > > >, std::_Select1st<std::pair<const std::basic_string<char, std::char_traits<char>, std::allocator<char> >, std::map<std::basic_string<char, std::char_traits<char>, std::allocator<char> >, std::basic_string<char, std::char_traits<char>, std::allocator<char> >, std::less<std::basic_string<char, std::char_traits<char>, std::allocator<char> > >, std::allocator<std::pair<const std::basic_string<char, std::char_traits<char>, std::allocator<char> >, std::basic_string<char, std::char_traits<char>, std::allocator<char> > > > > > >, std::less<std::basic_string<char, std::char_traits<char>, std::allocator<char> > >, std::allocator<std::pair<const std::basic_string<char, std::char_traits<char>, std::allocator<char> >, std::map<std::basic_string<char, std::char_traits<char>, std::allocator<char> >, std::basic_string<char, std::char_traits<char>, std::allocator<char> >, std::less<std::basic_string<char, std::char_traits<char>, std::allocator<char> > >, std::allocator<std::pair<const std::basic_string<char, std::char_traits<char>, std::allocator<char> >, std::basic_string<char, std::char_traits<char>, std::allocator<char> > > > > > > >::_M_get_node
FUNC 36fee 6b 0 std::pair<const std::basic_string<char, std::char_traits<char>, std::allocator<char> >, std::map<std::basic_string<char, std::char_traits<char>, std::allocator<char> >, std::basic_string<char, std::char_traits<char>, std::allocator<char> >, std::less<std::basic_string<char, std::char_traits<char>, std::allocator<char> > >, std::allocator<std::pair<const std::basic_string<char, std::char_traits<char>, std::allocator<char> >, std::basic_string<char, std::char_traits<char>, std::allocator<char> > > > > >::pair
FUNC 3705a 77 0 __gnu_cxx::new_allocator<std::pair<const std::basic_string<char, std::char_traits<char>, std::allocator<char> >, std::map<std::basic_string<char, std::char_traits<char>, std::allocator<char> >, std::basic_string<char, std::char_traits<char>, std::allocator<char> >, std::less<std::basic_string<char, std::char_traits<char>, std::allocator<char> > >, std::allocator<std::pair<const std::basic_string<char, std::char_traits<char>, std::allocator<char> >, std::basic_string<char, std::char_traits<char>, std::allocator<char> > > > > > >::construct
FUNC 370d2 24 0 std::_Rb_tree<std::basic_string<char, std::char_traits<char>, std::allocator<char> >, std::pair<const std::basic_string<char, std::char_traits<char>, std::allocator<char> >, std::map<int, std::map<int, IEC104WF::stPointTable, std::less<int>, std::allocator<std::pair<const int, IEC104WF::stPointTable> > >, std::less<int>, std::allocator<std::pair<const int, std::map<int, IEC104WF::stPointTable, std::less<int>, std::allocator<std::pair<const int, IEC104WF::stPointTable> > > > > > >, std::_Select1st<std::pair<const std::basic_string<char, std::char_traits<char>, std::allocator<char> >, std::map<int, std::map<int, IEC104WF::stPointTable, std::less<int>, std::allocator<std::pair<const int, IEC104WF::stPointTable> > >, std::less<int>, std::allocator<std::pair<const int, std::map<int, IEC104WF::stPointTable, std::less<int>, std::allocator<std::pair<const int, IEC104WF::stPointTable> > > > > > > >, std::less<std::basic_string<char, std::char_traits<char>, std::allocator<char> > >, std::allocator<std::pair<const std::basic_string<char, std::char_traits<char>, std::allocator<char> >, std::map<int, std::map<int, IEC104WF::stPointTable, std::less<int>, std::allocator<std::pair<const int, IEC104WF::stPointTable> > >, std::less<int>, std::allocator<std::pair<const int, std::map<int, IEC104WF::stPointTable, std::less<int>, std::allocator<std::pair<const int, IEC104WF::stPointTable> > > > > > > > >::_M_get_node
FUNC 370f6 6b 0 std::pair<const std::basic_string<char, std::char_traits<char>, std::allocator<char> >, std::map<int, std::map<int, IEC104WF::stPointTable, std::less<int>, std::allocator<std::pair<const int, IEC104WF::stPointTable> > >, std::less<int>, std::allocator<std::pair<const int, std::map<int, IEC104WF::stPointTable, std::less<int>, std::allocator<std::pair<const int, IEC104WF::stPointTable> > > > > > >::pair
FUNC 37162 77 0 __gnu_cxx::new_allocator<std::pair<const std::basic_string<char, std::char_traits<char>, std::allocator<char> >, std::map<int, std::map<int, IEC104WF::stPointTable, std::less<int>, std::allocator<std::pair<const int, IEC104WF::stPointTable> > >, std::less<int>, std::allocator<std::pair<const int, std::map<int, IEC104WF::stPointTable, std::less<int>, std::allocator<std::pair<const int, IEC104WF::stPointTable> > > > > > > >::construct
FUNC 371d9 12 0 std::_Rb_tree<std::basic_string<char, std::char_traits<char>, std::allocator<char> >, std::pair<const std::basic_string<char, std::char_traits<char>, std::allocator<char> >, IEC61850_STRUCT::IED_61850>, std::_Select1st<std::pair<const std::basic_string<char, std::char_traits<char>, std::allocator<char> >, IEC61850_STRUCT::IED_61850> >, std::less<std::basic_string<char, std::char_traits<char>, std::allocator<char> > >, std::allocator<std::pair<const std::basic_string<char, std::char_traits<char>, std::allocator<char> >, IEC61850_STRUCT::IED_61850> > >::_S_value
FUNC 371eb 12 0 std::_Rb_tree<int, std::pair<const int, IEC104WF::stPointTable>, std::_Select1st<std::pair<const int, IEC104WF::stPointTable> >, std::less<int>, std::allocator<std::pair<const int, IEC104WF::stPointTable> > >::_S_value
FUNC 371fe 24 0 std::_Rb_tree<int, std::pair<const int, IEC104WF::stPointTable>, std::_Select1st<std::pair<const int, IEC104WF::stPointTable> >, std::less<int>, std::allocator<std::pair<const int, IEC104WF::stPointTable> > >::_M_get_node
FUNC 37222 39 0 std::pair<const int, IEC104WF::stPointTable>::pair
FUNC 3725c 77 0 __gnu_cxx::new_allocator<std::pair<const int, IEC104WF::stPointTable> >::construct
FUNC 372d3 12 0 std::_Rb_tree<int, std::pair<const int, std::map<int, IEC104WF::stPointTable, std::less<int>, std::allocator<std::pair<const int, IEC104WF::stPointTable> > > >, std::_Select1st<std::pair<const int, std::map<int, IEC104WF::stPointTable, std::less<int>, std::allocator<std::pair<const int, IEC104WF::stPointTable> > > > >, std::less<int>, std::allocator<std::pair<const int, std::map<int, IEC104WF::stPointTable, std::less<int>, std::allocator<std::pair<const int, IEC104WF::stPointTable> > > > > >::_S_value
FUNC 372e6 25 0 std::allocator<std::_Rb_tree_node<std::pair<const int, IEC104WF::stPointTable> > >::allocator
FUNC 3730c 24 0 std::_Rb_tree<int, std::pair<const int, std::map<int, IEC104WF::stPointTable, std::less<int>, std::allocator<std::pair<const int, IEC104WF::stPointTable> > > >, std::_Select1st<std::pair<const int, std::map<int, IEC104WF::stPointTable, std::less<int>, std::allocator<std::pair<const int, IEC104WF::stPointTable> > > > >, std::less<int>, std::allocator<std::pair<const int, std::map<int, IEC104WF::stPointTable, std::less<int>, std::allocator<std::pair<const int, IEC104WF::stPointTable> > > > > >::_M_get_node
FUNC 37330 39 0 std::pair<const int, std::map<int, IEC104WF::stPointTable, std::less<int>, std::allocator<std::pair<const int, IEC104WF::stPointTable> > > >::pair
FUNC 3736a 77 0 __gnu_cxx::new_allocator<std::pair<const int, std::map<int, IEC104WF::stPointTable, std::less<int>, std::allocator<std::pair<const int, IEC104WF::stPointTable> > > > >::construct
FUNC 373e1 12 0 std::_Rb_tree<std::basic_string<char, std::char_traits<char>, std::allocator<char> >, std::pair<const std::basic_string<char, std::char_traits<char>, std::allocator<char> >, std::map<int, std::map<int, IEC104WF::stPointTable, std::less<int>, std::allocator<std::pair<const int, IEC104WF::stPointTable> > >, std::less<int>, std::allocator<std::pair<const int, std::map<int, IEC104WF::stPointTable, std::less<int>, std::allocator<std::pair<const int, IEC104WF::stPointTable> > > > > > >, std::_Select1st<std::pair<const std::basic_string<char, std::char_traits<char>, std::allocator<char> >, std::map<int, std::map<int, IEC104WF::stPointTable, std::less<int>, std::allocator<std::pair<const int, IEC104WF::stPointTable> > >, std::less<int>, std::allocator<std::pair<const int, std::map<int, IEC104WF::stPointTable, std::less<int>, std::allocator<std::pair<const int, IEC104WF::stPointTable> > > > > > > >, std::less<std::basic_string<char, std::char_traits<char>, std::allocator<char> > >, std::allocator<std::pair<const std::basic_string<char, std::char_traits<char>, std::allocator<char> >, std::map<int, std::map<int, IEC104WF::stPointTable, std::less<int>, std::allocator<std::pair<const int, IEC104WF::stPointTable> > >, std::less<int>, std::allocator<std::pair<const int, std::map<int, IEC104WF::stPointTable, std::less<int>, std::allocator<std::pair<const int, IEC104WF::stPointTable> > > > > > > > >::_S_value
FUNC 373f4 25 0 std::allocator<std::_Rb_tree_node<std::pair<const int, std::map<int, IEC104WF::stPointTable, std::less<int>, std::allocator<std::pair<const int, IEC104WF::stPointTable> > > > > >::allocator
FUNC 37419 12 0 std::_Rb_tree<std::basic_string<char, std::char_traits<char>, std::allocator<char> >, std::pair<const std::basic_string<char, std::char_traits<char>, std::allocator<char> >, IEC103::stConfigParam>, std::_Select1st<std::pair<const std::basic_string<char, std::char_traits<char>, std::allocator<char> >, IEC103::stConfigParam> >, std::less<std::basic_string<char, std::char_traits<char>, std::allocator<char> > >, std::allocator<std::pair<const std::basic_string<char, std::char_traits<char>, std::allocator<char> >, IEC103::stConfigParam> > >::_S_value
FUNC 3742b 12 0 std::_Rb_tree<std::basic_string<char, std::char_traits<char>, std::allocator<char> >, std::pair<const std::basic_string<char, std::char_traits<char>, std::allocator<char> >, std::map<std::basic_string<char, std::char_traits<char>, std::allocator<char> >, std::basic_string<char, std::char_traits<char>, std::allocator<char> >, std::less<std::basic_string<char, std::char_traits<char>, std::allocator<char> > >, std::allocator<std::pair<const std::basic_string<char, std::char_traits<char>, std::allocator<char> >, std::basic_string<char, std::char_traits<char>, std::allocator<char> > > > > >, std::_Select1st<std::pair<const std::basic_string<char, std::char_traits<char>, std::allocator<char> >, std::map<std::basic_string<char, std::char_traits<char>, std::allocator<char> >, std::basic_string<char, std::char_traits<char>, std::allocator<char> >, std::less<std::basic_string<char, std::char_traits<char>, std::allocator<char> > >, std::allocator<std::pair<const std::basic_string<char, std::char_traits<char>, std::allocator<char> >, std::basic_string<char, std::char_traits<char>, std::allocator<char> > > > > > >, std::less<std::basic_string<char, std::char_traits<char>, std::allocator<char> > >, std::allocator<std::pair<const std::basic_string<char, std::char_traits<char>, std::allocator<char> >, std::map<std::basic_string<char, std::char_traits<char>, std::allocator<char> >, std::basic_string<char, std::char_traits<char>, std::allocator<char> >, std::less<std::basic_string<char, std::char_traits<char>, std::allocator<char> > >, std::allocator<std::pair<const std::basic_string<char, std::char_traits<char>, std::allocator<char> >, std::basic_string<char, std::char_traits<char>, std::allocator<char> > > > > > > >::_S_value
FUNC 3743e 14 0 __gnu_cxx::new_allocator<std::_List_node<std::basic_string<char, std::char_traits<char>, std::allocator<char> > > >::max_size
FUNC 37452 55 0 __gnu_cxx::new_allocator<std::_Rb_tree_node<std::pair<const std::basic_string<char, std::char_traits<char>, std::allocator<char> >, IEC61850_STRUCT::IED_61850> > >::allocate
FUNC 374a8 55 0 __gnu_cxx::new_allocator<std::_Rb_tree_node<std::pair<const std::basic_string<char, std::char_traits<char>, std::allocator<char> >, IEC103::stConfigParam> > >::allocate
FUNC 374fe 5b 0 __gnu_cxx::new_allocator<std::_Rb_tree_node<std::pair<const std::basic_string<char, std::char_traits<char>, std::allocator<char> >, std::map<std::basic_string<char, std::char_traits<char>, std::allocator<char> >, std::basic_string<char, std::char_traits<char>, std::allocator<char> >, std::less<std::basic_string<char, std::char_traits<char>, std::allocator<char> > >, std::allocator<std::pair<const std::basic_string<char, std::char_traits<char>, std::allocator<char> >, std::basic_string<char, std::char_traits<char>, std::allocator<char> > > > > > > >::allocate
FUNC 3755a 5b 0 __gnu_cxx::new_allocator<std::_Rb_tree_node<std::pair<const std::basic_string<char, std::char_traits<char>, std::allocator<char> >, std::map<int, std::map<int, IEC104WF::stPointTable, std::less<int>, std::allocator<std::pair<const int, IEC104WF::stPointTable> > >, std::less<int>, std::allocator<std::pair<const int, std::map<int, IEC104WF::stPointTable, std::less<int>, std::allocator<std::pair<const int, IEC104WF::stPointTable> > > > > > > > >::allocate
FUNC 375b6 5c 0 __gnu_cxx::new_allocator<std::_Rb_tree_node<std::pair<const int, IEC104WF::stPointTable> > >::allocate
FUNC 37612 e 0 __gnu_cxx::new_allocator<std::_Rb_tree_node<std::pair<const int, IEC104WF::stPointTable> > >::new_allocator
FUNC 37620 5b 0 __gnu_cxx::new_allocator<std::_Rb_tree_node<std::pair<const int, std::map<int, IEC104WF::stPointTable, std::less<int>, std::allocator<std::pair<const int, IEC104WF::stPointTable> > > > > >::allocate
FUNC 3767c e 0 __gnu_cxx::new_allocator<std::_Rb_tree_node<std::pair<const int, std::map<int, IEC104WF::stPointTable, std::less<int>, std::allocator<std::pair<const int, IEC104WF::stPointTable> > > > > >::new_allocator
FUNC 3768a 14 0 __gnu_cxx::new_allocator<std::_Rb_tree_node<std::pair<const std::basic_string<char, std::char_traits<char>, std::allocator<char> >, IEC61850_STRUCT::IED_61850> > >::max_size
FUNC 3769e 14 0 __gnu_cxx::new_allocator<std::_Rb_tree_node<std::pair<const std::basic_string<char, std::char_traits<char>, std::allocator<char> >, IEC103::stConfigParam> > >::max_size
FUNC 376b2 14 0 __gnu_cxx::new_allocator<std::_Rb_tree_node<std::pair<const std::basic_string<char, std::char_traits<char>, std::allocator<char> >, std::map<std::basic_string<char, std::char_traits<char>, std::allocator<char> >, std::basic_string<char, std::char_traits<char>, std::allocator<char> >, std::less<std::basic_string<char, std::char_traits<char>, std::allocator<char> > >, std::allocator<std::pair<const std::basic_string<char, std::char_traits<char>, std::allocator<char> >, std::basic_string<char, std::char_traits<char>, std::allocator<char> > > > > > > >::max_size
FUNC 376c6 14 0 __gnu_cxx::new_allocator<std::_Rb_tree_node<std::pair<const std::basic_string<char, std::char_traits<char>, std::allocator<char> >, std::map<int, std::map<int, IEC104WF::stPointTable, std::less<int>, std::allocator<std::pair<const int, IEC104WF::stPointTable> > >, std::less<int>, std::allocator<std::pair<const int, std::map<int, IEC104WF::stPointTable, std::less<int>, std::allocator<std::pair<const int, IEC104WF::stPointTable> > > > > > > > >::max_size
FUNC 376da 14 0 __gnu_cxx::new_allocator<std::_Rb_tree_node<std::pair<const int, IEC104WF::stPointTable> > >::max_size
FUNC 376ee 14 0 __gnu_cxx::new_allocator<std::_Rb_tree_node<std::pair<const int, std::map<int, IEC104WF::stPointTable, std::less<int>, std::allocator<std::pair<const int, IEC104WF::stPointTable> > > > > >::max_size
FUNC 37710 d 0 mysql_get_parameters
FUNC 37720 6 0 mysql_debug
FUNC 37730 6 0 my_pipe_sig_handler
FUNC 37740 29 0 mysql_set_local_infile_handler
FUNC 37770 3e 0 mysql_set_local_infile_default
FUNC 377b0 29 0 mysql_fetch_field
FUNC 377e0 47 0 mysql_data_seek
FUNC 37830 16 0 mysql_row_seek
FUNC 37850 12 0 mysql_field_seek
FUNC 37870 3e 0 mysql_shutdown
FUNC 378b0 3e 0 mysql_refresh
FUNC 378f0 55 0 mysql_kill
FUNC 37950 3e 0 mysql_set_server_option
FUNC 37990 36 0 mysql_dump_debug_info
FUNC 379d0 66 0 mysql_stat
FUNC 37a40 36 0 mysql_ping
FUNC 37a80 d 0 mysql_get_server_info
FUNC 37a90 d 0 mysql_get_host_info
FUNC 37aa0 c 0 mysql_get_proto_info
FUNC 37ab0 d 0 mysql_get_client_info
FUNC 37ac0 b 0 mysql_get_client_version
FUNC 37ad0 d 0 mysql_eof
FUNC 37ae0 10 0 mysql_fetch_field_direct
FUNC 37af0 a 0 mysql_fetch_fields
FUNC 37b00 a 0 mysql_row_tell
FUNC 37b10 c 0 mysql_field_tell
FUNC 37b20 c 0 mysql_field_count
FUNC 37b30 d 0 mysql_affected_rows
FUNC 37b40 d 0 mysql_insert_id
FUNC 37b50 24 0 mysql_sqlstate
FUNC 37b80 c 0 mysql_warning_count
FUNC 37b90 d 0 mysql_info
FUNC 37ba0 d 0 mysql_thread_id
FUNC 37bb0 11 0 mysql_character_set_name
FUNC 37bd0 90 0 mysql_get_character_set_info
FUNC 37c60 b 0 mysql_thread_safe
FUNC 37c70 8 0 mysql_embedded
FUNC 37c80 67 0 mysql_hex_string
FUNC 37cf0 1e0 0 myodbc_remove_escape
FUNC 37ed0 8 0 mysql_stmt_param_metadata
FUNC 37ee0 1b 0 store_param_tinyint
FUNC 37f00 19 0 store_param_short
FUNC 37f20 17 0 store_param_int32
FUNC 37f40 19 0 store_param_int64
FUNC 37f60 17 0 store_param_float
FUNC 37f80 19 0 store_param_double
FUNC 37fa0 3e 0 stmt_read_row_buffered
FUNC 37fe0 b 0 stmt_read_row_no_data
FUNC 37ff0 4e 0 mysql_stmt_attr_get
FUNC 38040 c 0 mysql_stmt_param_count
FUNC 38050 d 0 mysql_stmt_affected_rows
FUNC 38060 c 0 mysql_stmt_field_count
FUNC 38070 d 0 mysql_stmt_insert_id
FUNC 38080 34 0 fetch_result_tinyint
FUNC 380c0 35 0 fetch_result_short
FUNC 38100 33 0 fetch_result_int32
FUNC 38140 c 0 skip_result_fixed
FUNC 38150 488 0 setup_one_fetch_function
FUNC 385e0 180 0 mysql_stmt_fetch
FUNC 38760 14 0 mysql_stmt_row_seek
FUNC 38780 d 0 mysql_stmt_row_tell
FUNC 38790 55 0 mysql_stmt_data_seek
FUNC 387f0 d 0 mysql_stmt_num_rows
FUNC 38800 c 0 mysql_stmt_errno
FUNC 38810 d 0 mysql_stmt_sqlstate
FUNC 38820 d 0 mysql_stmt_error
FUNC 38830 12 0 mysql_more_results
FUNC 38850 12 0 mysql_use_result
FUNC 38870 11 0 mysql_read_query_result
FUNC 38890 5c 0 set_stmt_errmsg
FUNC 388f0 167 0 stmt_read_row_from_cursor
FUNC 38a60 1f0 0 reset_stmt_handle
FUNC 38c50 f 0 mysql_stmt_free_result
FUNC 38c60 70 0 set_stmt_error
FUNC 38cd0 21 0 stmt_read_row_no_result_set
FUNC 38d00 111 0 stmt_read_row_unbuffered
FUNC 38e20 3d 0 mysql_stmt_reset
FUNC 38e60 7b 0 mysql_stmt_attr_set
FUNC 38ee0 1fb 0 mysql_stmt_prepare
FUNC 390e0 239 0 alloc_stmt_fields
FUNC 39320 52 0 cli_read_statistics
FUNC 39380 70 0 mysql_next_result
FUNC 393f0 26 0 mysql_autocommit
FUNC 39420 17 0 mysql_rollback
FUNC 39440 17 0 mysql_commit
FUNC 39460 151 0 mysql_stmt_close
FUNC 395c0 1f 0 fetch_result_double
FUNC 395e0 1b 0 fetch_result_float
FUNC 39600 3a 0 fetch_result_int64
FUNC 39640 ad 0 store_param_datetime
FUNC 396f0 a5 0 store_param_time
FUNC 397a0 180 0 cli_read_binary_rows
FUNC 39920 4b 0 cli_unbuffered_fetch
FUNC 39970 37 0 skip_result_string
FUNC 399b0 1e 0 skip_result_with_length
FUNC 399d0 7c 0 fetch_result_str
FUNC 39a50 6e 0 fetch_result_bin
FUNC 39ac0 361 0 fetch_string_with_conversion
FUNC 39e30 35b 0 fetch_long_with_conversion
FUNC 3a190 32a 0 fetch_float_with_conversion
FUNC 3a4c0 1ca 0 fetch_datetime_with_conversion
FUNC 3a690 39e 0 fetch_result_with_conversion
FUNC 3aa30 110 0 mysql_stmt_fetch_column
FUNC 3ab40 1d3 0 mysql_stmt_bind_result
FUNC 3ad20 35a 0 mysql_stmt_store_result
FUNC 3b080 165 0 mysql_stmt_next_result
FUNC 3b1f0 1f5 0 mysql_stmt_execute
FUNC 3b3f0 161 0 mysql_stmt_send_long_data
FUNC 3b560 3a8 0 mysql_stmt_bind_param
FUNC 3b910 61 0 store_param_str
FUNC 3b980 88 0 mysql_stmt_result_metadata
FUNC 3ba10 113 0 mysql_stmt_init
FUNC 3bb30 133 0 cli_read_prepare_result
FUNC 3bc70 3d 0 mysql_real_escape_string
FUNC 3bcb0 22 0 mysql_escape_string
FUNC 3bce0 62 0 my_net_local_init
FUNC 3bd50 e6 0 mysql_list_processes
FUNC 3be40 148 0 mysql_list_fields
FUNC 3bf90 4c 0 default_local_infile_error
FUNC 3bfe0 67 0 cli_list_fields
FUNC 3c050 35 0 mysql_query
FUNC 3c090 e7 0 mysql_list_dbs
FUNC 3c180 37 0 default_local_infile_end
FUNC 3c1c0 9c 0 default_local_infile_read
FUNC 3c260 e6 0 default_local_infile_init
FUNC 3c350 1dd 0 handle_local_infile
FUNC 3c530 af 0 read_user_name
FUNC 3c5e0 18e 0 mysql_change_user
FUNC 3c770 a 0 mysql_thread_end
FUNC 3c780 a 0 mysql_thread_init
FUNC 3c790 51 0 mysql_server_end
FUNC 3c7f0 115 0 mysql_server_init
FUNC 3c910 c9 0 store_param_date
FUNC 3c9e0 d7 0 mysql_list_tables
FUNC 3cac0 8c 0 fetch_result_date
FUNC 3cb50 a1 0 fetch_result_time
FUNC 3cc00 a1 0 fetch_result_datetime
FUNC 3ccb0 786 0 cli_stmt_execute
FUNC 3d440 27 0 mysql_plugin_options
FUNC 3d470 139 0 do_add_plugin
FUNC 3d5b0 98 0 add_plugin_noargs
FUNC 3d650 d1 0 mysql_client_plugin_deinit
FUNC 3d730 349 0 mysql_load_plugin_v
FUNC 3da80 98 0 mysql_load_plugin
FUNC 3db20 12b 0 mysql_client_find_plugin
FUNC 3dc50 219 0 mysql_client_plugin_init
FUNC 3de70 1a8 0 mysql_client_register_plugin
FUNC 3e020 4f 0 calc_days_in_year
FUNC 3e070 1b 0 set_max_hhmmss
FUNC 3e090 d9 0 check_date
FUNC 3e170 27 0 check_time_mmssff_range
FUNC 3e1a0 4a 0 check_time_range_quick
FUNC 3e1f0 57 0 check_datetime_range
FUNC 3e250 46 0 adjust_time_range
FUNC 3e2a0 1a 0 year_2000_handling
FUNC 3e2c0 a8 0 calc_daynr
FUNC 3e370 4f 0 TIME_to_ulonglong_datetime
FUNC 3e3c0 25 0 TIME_to_ulonglong_date
FUNC 3e3f0 26 0 TIME_to_ulonglong_time
FUNC 3e420 4e 0 TIME_set_yymmdd
FUNC 3e470 4f 0 TIME_set_hhmmss
FUNC 3e4c0 36 0 TIME_to_ulonglong
FUNC 3e500 3f 0 TIME_to_longlong_time_packed
FUNC 3e540 7d 0 TIME_from_longlong_time_packed
FUNC 3e5c0 e 0 my_time_binary_length
FUNC 3e5d0 13f 0 my_time_packed_to_binary
FUNC 3e710 125 0 my_time_packed_from_binary
FUNC 3e840 45 0 TIME_to_longlong_datetime_packed
FUNC 3e890 1b 0 TIME_to_longlong_date_packed
FUNC 3e8b0 12 0 year_to_longlong_datetime_packed
FUNC 3e8d0 d3 0 TIME_from_longlong_datetime_packed
FUNC 3e9b0 1f 0 TIME_from_longlong_date_packed
FUNC 3e9d0 e 0 my_datetime_binary_length
FUNC 3e9e0 e4 0 my_datetime_packed_from_binary
FUNC 3ead0 10f 0 my_datetime_packed_to_binary
FUNC 3ebe0 e 0 my_timestamp_binary_length
FUNC 3ebf0 e0 0 my_timestamp_from_binary
FUNC 3ecd0 b4 0 my_timestamp_to_binary
FUNC 3ed90 36 0 TIME_to_longlong_packed
FUNC 3edd0 2ca 0 number_to_datetime
FUNC 3f0a0 30 0 set_zero_time
FUNC 3f0d0 995 0 str_to_datetime
FUNC 3fa70 37 0 set_max_time
FUNC 3fab0 1a5 0 number_to_time
FUNC 3fc60 187 0 my_datetime_to_str
FUNC 3fdf0 22 0 my_date_to_str
FUNC 3fe20 461 0 my_system_gmt_sec
FUNC 40290 80 0 my_init_time
FUNC 40310 68e 0 str_to_time
FUNC 409a0 ab 0 my_time_to_str
FUNC 40a50 66 0 my_TIME_to_str
FUNC 40ac0 8a 0 my_timeval_to_str
FUNC 40b50 e 0 my_net_is_inited
FUNC 40b60 62 0 cli_fetch_lengths
FUNC 40bd0 36 0 mysql_send_query
FUNC 40c10 32 0 mysql_real_query
FUNC 40c50 3a 0 mysql_fetch_lengths
FUNC 40c90 10 0 get_attr_key
FUNC 40ca0 9 0 mysql_num_rows
FUNC 40cb0 c 0 mysql_num_fields
FUNC 40cc0 23 0 mysql_errno
FUNC 40cf0 18 0 mysql_error
FUNC 40d10 3e 0 clear_password_auth_client
FUNC 40d50 44 0 write_string
FUNC 40da0 c1 0 native_password_auth_client
FUNC 40e70 60 0 write_length_encoded_string4
FUNC 40ed0 89 0 mysql_select_db
FUNC 40f60 89 0 add_init_command
FUNC 40ff0 7b 0 set_ssl_option_unpack_path
FUNC 41070 7e9 0 mysql_options
FUNC 41860 b5 0 mysql_ssl_set
FUNC 41920 245 0 mysql_close_free_options
FUNC 41b70 92 0 mysql_detach_stmt_list
FUNC 41c10 2c 0 net_clear_error
FUNC 41c40 c0 0 set_mysql_error
FUNC 41d00 11c 0 old_password_auth_client
FUNC 41e20 b4 0 mysql_get_server_version
FUNC 41ee0 2b3 0 mysql_options4
FUNC 421a0 1be 0 mysql_store_result
FUNC 42360 18d 0 cli_use_result
FUNC 424f0 d2 0 mpvio_info
FUNC 425d0 11 0 client_mpvio_info
FUNC 425f0 105 0 send_client_connect_attrs
FUNC 42700 1d1 0 send_change_user_packet
FUNC 428e0 22 0 mysql_get_ssl_cipher
FUNC 42910 cb 0 mysql_init
FUNC 429e0 767 0 mysql_read_default_options
FUNC 43150 72 0 free_old_query
FUNC 431d0 37 0 free_rows
FUNC 43210 523 0 unpack_fields
FUNC 43740 cd 0 mysql_free_result
FUNC 43810 103 0 end_server
FUNC 43920 15e 0 cli_safe_read
FUNC 43a80 245 0 mysql_fetch_row
FUNC 43cd0 b 0 cli_read_change_user_result
FUNC 43ce0 354 0 cli_read_rows
FUNC 44040 1f8 0 cli_read_query_result
FUNC 44240 9b 0 opt_flush_ok_packet
FUNC 442e0 64 0 flush_one_result
FUNC 44350 62 0 cli_flush_use_result
FUNC 443c0 c6 0 set_mysql_extended_error
FUNC 44490 481 0 run_plugin_auth
FUNC 44920 7cf 0 send_client_reply_packet
FUNC 450f0 c7 0 client_mpvio_write_packet
FUNC 451c0 2b5 0 mysql_init_character_set
FUNC 45480 1ac 0 mysql_set_character_set
FUNC 45630 106f 0 mysql_real_connect
FUNC 466a0 16b 0 client_mpvio_read_packet
FUNC 46810 12e 0 mysql_close
FUNC 46940 222 0 mysql_reconnect
FUNC 46b70 219 0 cli_advanced_command
FUNC 46d90 71 0 net_field_length
FUNC 46e10 71 0 net_field_length_ll
FUNC 46e90 71 0 net_store_length
FUNC 46f10 c8 0 int10_to_str
FUNC 46fe0 11d 0 int2str
FUNC 47100 28 0 bmove_upp
FUNC 47130 13 0 my_coll_init_8bit_bin
FUNC 47150 9 0 my_lengthsp_binary
FUNC 47160 95 0 my_strnncollsp_8bit_bin
FUNC 47200 8 0 my_case_str_bin
FUNC 47210 9 0 my_case_bin
FUNC 47220 b 0 my_mbcharlen_8bit
FUNC 47230 1b 0 my_mb_wc_bin
FUNC 47250 20 0 my_wc_mb_bin
FUNC 47270 c2 0 my_hash_sort_8bit_bin
FUNC 47340 4a 0 my_hash_sort_bin
FUNC 47390 231 0 my_wildcmp_bin_impl
FUNC 475d0 24 0 my_wildcmp_bin
FUNC 47600 127 0 my_instr_bin
FUNC 47730 36 0 my_strnncoll_binary
FUNC 47770 36 0 my_strnncoll_8bit_bin
FUNC 477b0 10 0 my_strcasecmp_bin
FUNC 477c0 8f 0 my_strnxfrm_8bit_bin
FUNC 47850 2b 0 my_strnncollsp_binary
FUNC 47880 87 0 Balloc
FUNC 47910 36 0 Bfree
FUNC 47950 391 0 d2b
FUNC 47cf0 262 0 lshift
FUNC 47f60 166 0 multadd
FUNC 480d0 915 0 pow5mult
FUNC 489f0 1d46 0 my_strtod
FUNC 4a740 22 0 my_atof
FUNC 4a770 20fd 0 dtoa
FUNC 4c870 32d 0 my_fcvt
FUNC 4cba0 6d9 0 my_gcvt
FUNC 4d280 1e 0 strend
FUNC 4d2a0 9e 0 strxnmov
FUNC 4d340 3c4 0 my_strtoll10
FUNC 4d710 16e 0 process_str_arg
FUNC 4d880 1db 0 process_int_arg
FUNC 4da60 848 0 process_args
FUNC 4e2b0 5cc 0 my_vsnprintf_ex
FUNC 4e880 1d 0 my_vsnprintf
FUNC 4e8a0 96 0 my_snprintf
FUNC 4e940 1d 0 my_strnxfrmlen_simple
FUNC 4e960 71 0 my_strnncoll_simple
FUNC 4e9e0 c2 0 my_strnncollsp_simple
FUNC 4eab0 39 0 my_caseup_str_8bit
FUNC 4eaf0 39 0 my_casedn_str_8bit
FUNC 4eb30 2c 0 my_caseup_8bit
FUNC 4eb60 2c 0 my_casedn_8bit
FUNC 4eb90 4c 0 my_strcasecmp_8bit
FUNC 4ebe0 32 0 my_mb_wc_8bit
FUNC 4ec20 66 0 my_wc_mb_8bit
FUNC 4ec90 cf 0 my_hash_sort_simple
FUNC 4ed60 203 0 my_strntol_8bit
FUNC 4ef70 1b0 0 my_strntoul_8bit
FUNC 4f120 219 0 my_strntoll_8bit
FUNC 4f340 1d5 0 my_strntoull_8bit
FUNC 4f520 267 0 my_wildcmp_8bit_impl
FUNC 4f790 24 0 my_wildcmp_8bit
FUNC 4f7c0 281 0 my_like_range_simple
FUNC 4fa50 80 0 my_scan_8bit
FUNC 4fad0 c 0 my_numchars_8bit
FUNC 4fae0 c 0 my_numcells_8bit
FUNC 4faf0 9 0 my_charpos_8bit
FUNC 4fb00 1a 0 my_well_formed_len_8bit
FUNC 4fb20 147 0 my_instr_simple
FUNC 4fc70 16 0 pcmp
FUNC 4fc90 54 0 my_coll_init_simple
FUNC 4fcf0 2d 0 my_mb_ctype_8bit
FUNC 4fd20 4b5 0 my_strntoull10rnd_8bit
FUNC 501e0 b 0 my_propagate_simple
FUNC 501f0 8 0 my_propagate_complex
FUNC 50200 155 0 my_strxfrm_flag_normalize
FUNC 50360 145 0 my_strxfrm_desc_and_reverse
FUNC 504b0 fc 0 my_strxfrm_pad_desc_and_reverse
FUNC 505b0 b5 0 my_strnxfrm_simple
FUNC 50670 f 0 my_fill_8bit
FUNC 50680 267 0 create_fromuni
FUNC 508f0 1f 0 my_cset_init_8bit
FUNC 50910 13 0 my_strtoll10_8bit
FUNC 50930 117 0 my_longlong10_to_str_8bit
FUNC 50a50 e2 0 my_long10_to_str_8bit
FUNC 50b40 2a 0 my_strntod_8bit
FUNC 50b70 9a 0 my_snprintf_8bit
FUNC 50c10 b3 0 my_lengthsp_8bit
FUNC 50cd0 35 0 strmake
FUNC 50d10 90 0 my_string_repertoire
FUNC 50da0 19 0 my_charset_repertoire
FUNC 50dc0 4a 0 my_charset_is_ascii_based
FUNC 50e10 37 0 my_charset_is_8bit_pure_ascii
FUNC 50e50 37 0 my_charset_is_ascii_compatible
FUNC 50e90 c5 0 tailoring_append
FUNC 50f60 15c 0 my_parse_charset_xml
FUNC 510c0 d9 0 fill_uchar
FUNC 511a0 22b 0 cs_leave
FUNC 513d0 2c4 0 my_convert
FUNC 516a0 abf 0 cs_value
FUNC 52160 1c1 0 cs_enter
FUNC 52330 22 0 strcend
FUNC 52360 19 0 my_strnxfrmlen_unicode_full_bin
FUNC 52380 c9 0 my_utf8_uni
FUNC 52450 a6 0 my_uni_utf8
FUNC 52500 15a 0 my_casedn_str_utf8
FUNC 52660 1e 0 my_strnxfrmlen_utf8
FUNC 52680 2e 0 my_mbcharlen_utf8
FUNC 526b0 131 0 my_mb_wc_filename
FUNC 527f0 184 0 my_wc_mb_filename
FUNC 52980 179 0 my_mb_wc_utf8mb4
FUNC 52b00 d4 0 my_wc_mb_utf8mb4
FUNC 52be0 f 0 my_strnxfrmlen_utf8mb4
FUNC 52bf0 e5 0 my_ismbchar_utf8mb4
FUNC 52ce0 38 0 my_mbcharlen_utf8mb4
FUNC 52d20 1c1 0 my_strnxfrm_unicode_full_bin
FUNC 52ef0 1ba 0 my_hash_sort_utf8mb4
FUNC 530b0 299 0 my_strnncollsp_utf8mb4
FUNC 53350 25a 0 my_strnncoll_utf8mb4
FUNC 535b0 351 0 my_strnxfrm_unicode
FUNC 53910 15a 0 my_caseup_str_utf8
FUNC 53a70 eb 0 my_well_formed_len_utf8
FUNC 53b60 177 0 my_well_formed_len_utf8mb4
FUNC 53ce0 175 0 my_caseup_utf8mb4
FUNC 53e60 175 0 my_casedn_utf8mb4
FUNC 53fe0 235 0 my_casedn_str_utf8mb4
FUNC 54220 235 0 my_caseup_str_utf8mb4
FUNC 54460 7d 0 my_ismbchar_utf8
FUNC 544e0 3cb 0 my_strnncollsp_utf8
FUNC 548b0 396 0 my_strnncoll_utf8
FUNC 54c50 1c7 0 my_caseup_utf8
FUNC 54e20 1c7 0 my_hash_sort_utf8
FUNC 54ff0 1c7 0 my_casedn_utf8
FUNC 551c0 34e 0 my_strcasecmp_utf8mb4
FUNC 55510 21c 0 my_strcasecmp_utf8
FUNC 55730 4de 0 my_wildcmp_unicode_impl
FUNC 55c10 2d 0 my_wildcmp_unicode
FUNC 55c40 25 0 my_wildcmp_utf8
FUNC 55c70 25 0 my_wildcmp_utf8mb4
FUNC 55ca0 35 0 my_mb_wc_latin1
FUNC 55ce0 51 0 my_wc_mb_latin1
FUNC 55d40 c4 0 my_strnncoll_latin1_de
FUNC 55e10 109 0 my_strnncollsp_latin1_de
FUNC 55f20 111 0 my_hash_sort_latin1_de
FUNC 56040 bd 0 my_strnxfrm_latin1_de
FUNC 56100 17 0 vio_buff_has_data
FUNC 56120 c 0 vio_type
FUNC 56130 8 0 vio_fd
FUNC 56140 c 0 vio_is_no_name_error
FUNC 56150 41 0 vio_getnameinfo
FUNC 561a0 d 0 vio_errno
FUNC 561b0 11 0 vio_was_timeout
FUNC 561d0 11 0 vio_should_retry
FUNC 561f0 bc 0 vio_io_wait
FUNC 562b0 90 0 vio_is_connected
FUNC 56340 35 0 vio_socket_io_wait
FUNC 56380 240 0 vio_peer_addr
FUNC 565c0 4d 0 vio_description
FUNC 56610 175 0 vio_shutdown
FUNC 56790 12a 0 vio_write
FUNC 568c0 11a 0 vio_read
FUNC 569e0 ee 0 vio_read_buff
FUNC 56ad0 272 0 vio_socket_connect
FUNC 56d50 195 0 vio_fastsend
FUNC 56ef0 ca 0 vio_get_normalized_ip_string
FUNC 56fc0 101 0 vio_keepalive
FUNC 570d0 ab 0 vio_socket_timeout
FUNC 57180 8 0 has_no_data
FUNC 57190 63 0 vio_timeout
FUNC 57200 c 0 vio_end
FUNC 57210 47 0 vio_delete
FUNC 57260 326 0 mysql_socket_vio_new
FUNC 57590 32 0 vio_new
FUNC 575d0 39e 0 vio_reset
FUNC 57970 13 0 sslGetErrString
FUNC 57990 22 0 free_vio_ssl_acceptor_fd
FUNC 579c0 43 0 report_errors
FUNC 57a10 45 0 ssl_start
FUNC 57a60 361 0 new_VioSSLFd
FUNC 57dd0 65 0 new_VioSSLAcceptorFd
FUNC 57e40 75 0 new_VioSSLConnectorFd
FUNC 57ec0 17 0 vio_ssl_has_data
FUNC 57ee0 a 0 yassl_send
FUNC 57ef0 a 0 yassl_recv
FUNC 57f00 46 0 vio_ssl_shutdown
FUNC 57f50 57 0 vio_ssl_delete
FUNC 57fb0 ac 0 vio_ssl_write
FUNC 58060 ac 0 vio_ssl_read
FUNC 58110 19c 0 ssl_do
FUNC 582b0 14 0 sslconnect
FUNC 582d0 14 0 sslaccept
FUNC 582f0 b8 0 my_realpath
FUNC 583b0 3c 0 my_is_symlink
FUNC 583f0 c3 0 my_symlink
FUNC 584c0 cc 0 my_readlink
FUNC 58590 1f 0 pop_dynamic
FUNC 585b0 5c 0 freeze_size
FUNC 58610 2b 0 delete_dynamic_element
FUNC 58640 3e 0 delete_dynamic
FUNC 58680 36 0 get_dynamic
FUNC 586c0 bd 0 allocate_dynamic
FUNC 58780 87 0 set_dynamic
FUNC 58810 b7 0 alloc_dynamic
FUNC 588d0 54 0 insert_dynamic
FUNC 58930 a9 0 init_dynamic_array2
FUNC 589e0 11 0 init_dynamic_array
FUNC 58a00 14e 0 my_multi_malloc
FUNC 58b50 51a 0 my_read
FUNC 59070 6 0 init_glob_errs
FUNC 59080 d 0 get_global_errmsgs
FUNC 59090 8f 0 wait_for_free_space
FUNC 59120 3d 0 list_add
FUNC 59160 39 0 list_delete
FUNC 591a0 2b 0 list_reverse
FUNC 591d0 1e 0 list_length
FUNC 591f0 42 0 list_walk
FUNC 59240 53 0 list_cons
FUNC 592a0 57 0 list_free
FUNC 59300 5e 0 set_prealloc_root
FUNC 59360 121 0 free_root
FUNC 59490 138 0 alloc_root
FUNC 595d0 49 0 memdup_root
FUNC 59620 4f 0 strmake_root
FUNC 59670 36 0 strdup_root
FUNC 596b0 146 0 multi_alloc_root
FUNC 59800 cd 0 reset_root_defaults
FUNC 598d0 a3 0 init_alloc_root
FUNC 59980 7c 0 my_init_mysys_psi_keys
FUNC 59a00 1fb 0 my_end
FUNC 59c00 1a4 0 my_init
FUNC 59db0 79 0 intern_filename
FUNC 59e30 20 0 system_filename
FUNC 59e50 380 0 cleanup_dirname
FUNC 5a1d0 9b 0 normalize_dirname
FUNC 5a270 180 0 unpack_dirname
FUNC 5a3f0 a1 0 unpack_filename
FUNC 5a4a0 24d 0 pack_dirname
FUNC 5a6f0 6b 0 my_get_err_msg
FUNC 5a760 11 0 my_message
FUNC 5a780 48 0 my_error_unregister_all
FUNC 5a7d0 69 0 my_error_unregister
FUNC 5a840 a9 0 my_error_register
FUNC 5a8f0 54 0 my_printv_error
FUNC 5a950 cd 0 my_printf_warning
FUNC 5aa20 df 0 my_printf_error
FUNC 5ab00 10f 0 my_error
FUNC 5ac10 89 0 my_strerror
FUNC 5aca0 29 0 get_type
FUNC 5acd0 145 0 copy_typelib
FUNC 5ae20 3c 0 make_type
FUNC 5ae60 21c 0 find_type
FUNC 5b080 1bf 0 find_set_from_flags
FUNC 5b240 e2 0 find_typeset
FUNC 5b330 e2 0 find_type_or_exit
FUNC 5b420 33 0 cset_hash_sort_adapter
FUNC 5b460 6a 0 my_hash_reset
FUNC 5b4d0 14 0 my_calc_hash
FUNC 5b4f0 180 0 my_hash_next
FUNC 5b670 1b 0 my_hash_element
FUNC 5b690 1c 0 my_hash_replace
FUNC 5b6b0 74 0 my_hash_free
FUNC 5b730 66 0 _my_hash_init
FUNC 5b7a0 1a2 0 my_hash_first_from_hash_value
FUNC 5b950 87 0 my_hash_first
FUNC 5b9e0 13 0 my_hash_search
FUNC 5ba00 13 0 my_hash_search_using_hash_value
FUNC 5ba20 304 0 my_hash_update
FUNC 5bd30 4e0 0 my_hash_insert
FUNC 5c210 3fc 0 my_hash_delete
FUNC 5c610 6 0 proc_info_dummy
FUNC 5c620 58 0 strlength
FUNC 5c680 307 0 fn_format
FUNC 5c990 33 0 dirname_length
FUNC 5c9d0 6d 0 convert_dirname
FUNC 5ca40 5a 0 dirname_part
FUNC 5caa0 a 0 my_free
FUNC 5cab0 c6 0 my_malloc
FUNC 5cb80 51 0 my_strndup
FUNC 5cbe0 53 0 my_strdup
FUNC 5cc40 4b 0 my_memdup
FUNC 5cc90 ba 0 my_realloc
FUNC 5cd50 49 0 my_filename
FUNC 5cda0 3d 0 my_once_free
FUNC 5cde0 118 0 my_once_alloc
FUNC 5cf00 4b 0 my_once_memdup
FUNC 5cf50 53 0 my_once_strdup
FUNC 5cfb0 46 0 test_if_hard_path
FUNC 5d000 16 0 has_path
FUNC 5d020 125 0 my_setwd
FUNC 5d150 f7 0 my_getwd
FUNC 5d250 6 0 default_reporter
FUNC 5d260 60 0 my_charset_loader_init_mysys
FUNC 5d2c0 1a 0 add_compiled_collation
FUNC 5d2e0 10 0 free_charsets
FUNC 5d2f0 2de 0 escape_string_for_mysql
FUNC 5d5d0 213 0 escape_quotes_for_mysql
FUNC 5d7f0 60 0 get_charset_name
FUNC 5d850 14d 0 get_charset_number
FUNC 5d9a0 f 0 my_malloc_c
FUNC 5d9b0 2f3 0 my_read_charset_file
FUNC 5dcb0 1a5 0 init_state_maps
FUNC 5de60 f 0 my_once_alloc_c
FUNC 5de70 c6 0 get_charsets_dir
FUNC 5df40 1cf 0 get_internal_charset
FUNC 5e110 bd 0 my_charset_get_by_name
FUNC 5e1d0 56 0 get_charset_by_csname
FUNC 5e230 58 0 resolve_charset
FUNC 5e290 aa 0 init_available_charsets
FUNC 5e340 e9 0 get_charset
FUNC 5e430 22 0 my_charset_same
FUNC 5e460 74e 0 add_collation
FUNC 5ebb0 f 0 my_realloc_c
FUNC 5ebc0 139 0 get_collation_number
FUNC 5ed00 c5 0 my_collation_get_by_name
FUNC 5edd0 48 0 get_charset_by_name
FUNC 5ee20 42 0 resolve_collation
FUNC 5ee70 1ad 0 my_close
FUNC 5f020 29c 0 my_register_filename
FUNC 5f2c0 47 0 my_open
FUNC 5f310 15c 0 my_load_path
FUNC 5f470 96 0 my_message_stderr
FUNC 5f510 14 0 thr_set_sync_wait_callback
FUNC 5f530 128 0 my_sync
FUNC 5f660 7c 0 my_sync_dir
FUNC 5f6e0 41 0 my_sync_dir_by_file
FUNC 5f730 d 0 my_thread_name
FUNC 5f740 2a 0 set_mysys_var
FUNC 5f770 27 0 _my_thread_var
FUNC 5f7a0 12 0 my_thread_dbug_id
FUNC 5f7c0 3c 0 inline_mysql_mutex_init
FUNC 5f800 2d 0 inline_mysql_cond_init
FUNC 5f830 15b 0 my_thread_init
FUNC 5f990 31c 0 my_thread_global_reinit
FUNC 5fcb0 434 0 my_thread_global_end
FUNC 600f0 215 0 my_thread_global_init
FUNC 60310 15a 0 my_thread_end
FUNC 60470 6 0 register_mutex_noop
FUNC 60480 6 0 register_rwlock_noop
FUNC 60490 6 0 register_cond_noop
FUNC 604a0 6 0 register_thread_noop
FUNC 604b0 6 0 register_file_noop
FUNC 604c0 6 0 register_stage_noop
FUNC 604d0 6 0 register_statement_noop
FUNC 604e0 6 0 register_socket_noop
FUNC 604f0 8 0 init_mutex_noop
FUNC 60500 6 0 destroy_mutex_noop
FUNC 60510 8 0 init_rwlock_noop
FUNC 60520 6 0 destroy_rwlock_noop
FUNC 60530 8 0 init_cond_noop
FUNC 60540 6 0 destroy_cond_noop
FUNC 60550 8 0 init_socket_noop
FUNC 60560 6 0 destroy_socket_noop
FUNC 60570 8 0 get_table_share_noop
FUNC 60580 6 0 release_table_share_noop
FUNC 60590 6 0 drop_table_share_noop
FUNC 605a0 8 0 open_table_noop
FUNC 605b0 6 0 unbind_table_noop
FUNC 605c0 8 0 rebind_table_noop
FUNC 605d0 6 0 close_table_noop
FUNC 605e0 6 0 create_file_noop
FUNC 605f0 8 0 new_thread_noop
FUNC 60600 6 0 set_thread_id_noop
FUNC 60610 8 0 get_thread_noop
FUNC 60620 6 0 set_thread_user_noop
FUNC 60630 6 0 set_thread_user_host_noop
FUNC 60640 6 0 set_thread_db_noop
FUNC 60650 6 0 set_thread_command_noop
FUNC 60660 6 0 set_thread_start_time_noop
FUNC 60670 6 0 set_thread_state_noop
FUNC 60680 6 0 set_thread_info_noop
FUNC 60690 6 0 set_thread_noop
FUNC 606a0 6 0 delete_current_thread_noop
FUNC 606b0 6 0 delete_thread_noop
FUNC 606c0 8 0 get_thread_file_name_locker_noop
FUNC 606d0 8 0 get_thread_file_stream_locker_noop
FUNC 606e0 8 0 get_thread_file_descriptor_locker_noop
FUNC 606f0 6 0 unlock_mutex_noop
FUNC 60700 6 0 unlock_rwlock_noop
FUNC 60710 6 0 signal_cond_noop
FUNC 60720 6 0 broadcast_cond_noop
FUNC 60730 8 0 start_idle_wait_noop
FUNC 60740 6 0 end_idle_wait_noop
FUNC 60750 8 0 start_mutex_wait_noop
FUNC 60760 6 0 end_mutex_wait_noop
FUNC 60770 8 0 start_rwlock_rdwait_noop
FUNC 60780 6 0 end_rwlock_rdwait_noop
FUNC 60790 8 0 start_rwlock_wrwait_noop
FUNC 607a0 6 0 end_rwlock_wrwait_noop
FUNC 607b0 8 0 start_cond_wait_noop
FUNC 607c0 6 0 end_cond_wait_noop
FUNC 607d0 8 0 start_table_io_wait_noop
FUNC 607e0 6 0 end_table_io_wait_noop
FUNC 607f0 8 0 start_table_lock_wait_noop
FUNC 60800 6 0 end_table_lock_wait_noop
FUNC 60810 6 0 start_file_open_wait_noop
FUNC 60820 8 0 end_file_open_wait_noop
FUNC 60830 6 0 end_file_open_wait_and_bind_to_descriptor_noop
FUNC 60840 6 0 start_file_wait_noop
FUNC 60850 6 0 end_file_wait_noop
FUNC 60860 6 0 start_file_close_wait_noop
FUNC 60870 6 0 end_file_close_wait_noop
FUNC 60880 6 0 start_stage_noop
FUNC 60890 6 0 end_stage_noop
FUNC 608a0 8 0 get_thread_statement_locker_noop
FUNC 608b0 8 0 refine_statement_noop
FUNC 608c0 6 0 start_statement_noop
FUNC 608d0 6 0 set_statement_text_noop
FUNC 608e0 6 0 set_statement_lock_time_noop
FUNC 608f0 6 0 set_statement_rows_sent_noop
FUNC 60900 6 0 set_statement_rows_examined_noop
FUNC 60910 6 0 inc_statement_created_tmp_disk_tables_noop
FUNC 60920 6 0 inc_statement_created_tmp_tables_noop
FUNC 60930 6 0 inc_statement_select_full_join_noop
FUNC 60940 6 0 inc_statement_select_full_range_join_noop
FUNC 60950 6 0 inc_statement_select_range_noop
FUNC 60960 6 0 inc_statement_select_range_check_noop
FUNC 60970 6 0 inc_statement_select_scan_noop
FUNC 60980 6 0 inc_statement_sort_merge_passes_noop
FUNC 60990 6 0 inc_statement_sort_range_noop
FUNC 609a0 6 0 inc_statement_sort_rows_noop
FUNC 609b0 6 0 inc_statement_sort_scan_noop
FUNC 609c0 6 0 set_statement_no_index_used_noop
FUNC 609d0 6 0 set_statement_no_good_index_used_noop
FUNC 609e0 6 0 end_statement_noop
FUNC 609f0 8 0 start_socket_wait_noop
FUNC 60a00 6 0 end_socket_wait_noop
FUNC 60a10 6 0 set_socket_state_noop
FUNC 60a20 6 0 set_socket_info_noop
FUNC 60a30 6 0 set_socket_thread_owner_noop
FUNC 60a40 8 0 digest_start_noop
FUNC 60a50 6 0 digest_end_noop
FUNC 60a60 8 0 set_thread_connect_attrs_noop
FUNC 60a70 10 0 set_psi_server
FUNC 60a80 16 0 spawn_thread_noop
FUNC 60aa0 1d 0 my_time_possible_from_micro
FUNC 60ac0 42 0 my_micro_time_and_time
FUNC 60b10 34 0 my_micro_time
FUNC 60b50 51 0 my_time
FUNC 60bb0 3d 0 my_getsystime
FUNC 60bf0 10 0 my_getopt_is_args_separator
FUNC 60c00 ac 0 check_file_permissions
FUNC 60cb0 a1 0 my_default_get_login_file
FUNC 60d60 64 0 add_directory
FUNC 60dd0 da 0 init_default_directories
FUNC 60eb0 1e6 0 my_print_default_files
FUNC 610a0 be 0 print_defaults
FUNC 61160 50 0 free_defaults
FUNC 611b0 90 0 handle_default_option
FUNC 61240 1ba 0 get_defaults_options
FUNC 61400 70 0 fn_expand
FUNC 61470 d9 0 inline_mysql_file_fread
FUNC 61550 f6c 0 search_default_file_with_ext
FUNC 624c0 66b 0 my_search_option_files
FUNC 62b30 471 0 my_load_defaults
FUNC 62fb0 11 0 load_defaults
FUNC 62fd0 c 0 my_aes_get_size
FUNC 62fe0 c 0 my_aes_needs_iv
FUNC 62ff0 955 0 my_aes_encrypt
FUNC 63950 980 0 my_aes_decrypt
FUNC 642d0 10 0 TaoCrypt::Mode_BASE::~Mode_BASE
FUNC 642e0 15b 0 TaoCrypt::Mode_BASE::Process
FUNC 64440 14 0 TaoCrypt::Mode_BASE::~Mode_BASE
FUNC 64460 6c 0 my_aes_create_key
FUNC 644d0 8 0 __cxa_pure_virtual
FUNC 644e0 19 0 yaSSL::c32to24
FUNC 64500 23 0 yaSSL::c24to32
FUNC 64530 1b 0 yaSSL::c24to32
FUNC 64550 1a 0 yaSSL::ato16
FUNC 64570 19 0 yaSSL::ato24
FUNC 64590 12 0 yaSSL::c16toa
FUNC 645b0 19 0 yaSSL::c24toa
FUNC 645d0 21 0 yaSSL::c32toa
FUNC 64600 5a 0 yaSSL::States::States
FUNC 64660 9 0 yaSSL::States::getRecord
FUNC 64670 a 0 yaSSL::States::getHandShake
FUNC 64680 a 0 yaSSL::States::getClient
FUNC 64690 a 0 yaSSL::States::getServer
FUNC 646a0 a 0 yaSSL::States::GetConnect
FUNC 646b0 a 0 yaSSL::States::GetAccept
FUNC 646c0 a 0 yaSSL::States::getString
FUNC 646d0 9 0 yaSSL::States::What
FUNC 646e0 9 0 yaSSL::States::useRecord
FUNC 646f0 a 0 yaSSL::States::useHandShake
FUNC 64700 a 0 yaSSL::States::useClient
FUNC 64710 a 0 yaSSL::States::useServer
FUNC 64720 a 0 yaSSL::States::UseConnect
FUNC 64730 a 0 yaSSL::States::UseAccept
FUNC 64740 a 0 yaSSL::States::useString
FUNC 64750 9 0 yaSSL::States::SetError
FUNC 64760 117 0 yaSSL::States::SetMessageRecvd
FUNC 64880 9 0 yaSSL::sslFactory::getMessage
FUNC 64890 a 0 yaSSL::sslFactory::getHandShake
FUNC 648a0 a 0 yaSSL::sslFactory::getServerKey
FUNC 648b0 a 0 yaSSL::sslFactory::getClientKey
FUNC 648c0 b 0 yaSSL::SSL::SetCompression
FUNC 648d0 d 0 yaSSL::SSL::UnSetCompression
FUNC 648e0 d 0 yaSSL::SSL::CompressionOn
FUNC 648f0 c 0 yaSSL::SSL::SetError
FUNC 64900 d 0 yaSSL::SSL::SetQuietShutdown
FUNC 64910 d 0 yaSSL::SSL::useBuffers
FUNC 64920 10 0 yaSSL::SSL::order_error
FUNC 64930 89 0 yaSSL::SSL::setKeys
FUNC 649c0 31 0 yaSSL::SSL::get_SEQIncrement
FUNC 64a00 36 0 yaSSL::SSL::get_macSecret
FUNC 64a40 50 0 yaSSL::SSL::verifyState
FUNC 64a90 22 0 yaSSL::SSL::verifyState
FUNC 64ac0 24 0 yaSSL::SSL::verifyState
FUNC 64af0 25 0 yaSSL::SSL::verfiyHandShakeComplete
FUNC 64b20 a1 0 yaSSL::SSL::verifyClientState
FUNC 64bd0 84 0 yaSSL::SSL::verifyServerState
FUNC 64c60 b0 0 yaSSL::SSL::matchSuite
FUNC 64d10 9 0 yaSSL::SSL::getCrypto
FUNC 64d20 d 0 yaSSL::SSL::getSecurity
FUNC 64d30 d 0 yaSSL::SSL::getStates
FUNC 64d40 d 0 yaSSL::SSL::getHashes
FUNC 64d50 d 0 yaSSL::SSL::getSocket
FUNC 64d60 c 0 yaSSL::SSL::GetError
FUNC 64d70 d 0 yaSSL::SSL::GetQuietShutdown
FUNC 64d80 14 0 yaSSL::SSL::GetMultiProtocol
FUNC 64da0 9 0 yaSSL::SSL::useCrypto
FUNC 64db0 d 0 yaSSL::SSL::useSecurity
FUNC 64dc0 d 0 yaSSL::SSL::useStates
FUNC 64dd0 d 0 yaSSL::SSL::useHashes
FUNC 64de0 d 0 yaSSL::SSL::useSocket
FUNC 64df0 d 0 yaSSL::SSL::useLog
FUNC 64e00 d 0 yaSSL::SSL::isTLS
FUNC 64e10 d 0 yaSSL::SSL::isTLSv1_1
FUNC 64e20 d 0 yaSSL::SSL::HasData
FUNC 64e30 9 0 yaSSL::SSL_SESSION::GetID
FUNC 64e40 a 0 yaSSL::SSL_SESSION::GetSecret
FUNC 64e50 a 0 yaSSL::SSL_SESSION::GetSuite
FUNC 64e60 a 0 yaSSL::SSL_SESSION::GetPeerX509
FUNC 64e70 9 0 yaSSL::SSL_SESSION::GetBornOn
FUNC 64e80 9 0 yaSSL::SSL_SESSION::GetTimeOut
FUNC 64e90 9 0 yaSSL::SSL_SESSION::SetTimeOut
FUNC 64ea0 1b 0 yaSSL::SSL_METHOD::SSL_METHOD
FUNC 64ec0 9 0 yaSSL::SSL_METHOD::getVersion
FUNC 64ed0 9 0 yaSSL::SSL_METHOD::getSide
FUNC 64ee0 a 0 yaSSL::SSL_METHOD::setVerifyPeer
FUNC 64ef0 a 0 yaSSL::SSL_METHOD::setVerifyNone
FUNC 64f00 a 0 yaSSL::SSL_METHOD::setFailNoCert
FUNC 64f10 a 0 yaSSL::SSL_METHOD::verifyPeer
FUNC 64f20 a 0 yaSSL::SSL_METHOD::verifyNone
FUNC 64f30 a 0 yaSSL::SSL_METHOD::failNoCert
FUNC 64f40 a 0 yaSSL::SSL_METHOD::multipleProtocol
FUNC 64f50 a 0 yaSSL::SSL_CTX::GetCA_List
FUNC 64f60 d 0 yaSSL::SSL_CTX::getVerifyCallback
FUNC 64f70 a 0 yaSSL::SSL_CTX::getCert
FUNC 64f80 a 0 yaSSL::SSL_CTX::getKey
FUNC 64f90 9 0 yaSSL::SSL_CTX::getMethod
FUNC 64fa0 a 0 yaSSL::SSL_CTX::GetCiphers
FUNC 64fb0 d 0 yaSSL::SSL_CTX::GetDH_Parms
FUNC 64fc0 d 0 yaSSL::SSL_CTX::GetStats
FUNC 64fd0 d 0 yaSSL::SSL_CTX::GetPasswordCb
FUNC 64fe0 d 0 yaSSL::SSL_CTX::SetPasswordCb
FUNC 64ff0 d 0 yaSSL::SSL_CTX::GetUserData
FUNC 65000 d 0 yaSSL::SSL_CTX::GetSessionCacheOff
FUNC 65010 d 0 yaSSL::SSL_CTX::GetSessionCacheFlushOff
FUNC 65020 d 0 yaSSL::SSL_CTX::SetUserData
FUNC 65030 d 0 yaSSL::SSL_CTX::SetSessionCacheOff
FUNC 65040 d 0 yaSSL::SSL_CTX::SetSessionCacheFlushOff
FUNC 65050 d 0 yaSSL::SSL_CTX::setVerifyPeer
FUNC 65060 d 0 yaSSL::SSL_CTX::setVerifyNone
FUNC 65070 d 0 yaSSL::SSL_CTX::setFailNoCert
FUNC 65080 d 0 yaSSL::SSL_CTX::setVerifyCallback
FUNC 65090 9 0 yaSSL::Crypto::get_digest
FUNC 650a0 a 0 yaSSL::Crypto::get_cipher
FUNC 650b0 a 0 yaSSL::Crypto::get_dh
FUNC 650c0 a 0 yaSSL::Crypto::get_random
FUNC 650d0 a 0 yaSSL::Crypto::get_certManager
FUNC 650e0 9 0 yaSSL::Crypto::use_digest
FUNC 650f0 a 0 yaSSL::Crypto::use_cipher
FUNC 65100 a 0 yaSSL::Crypto::use_dh
FUNC 65110 a 0 yaSSL::Crypto::use_random
FUNC 65120 a 0 yaSSL::Crypto::use_certManager
FUNC 65130 a 0 yaSSL::Crypto::SetDH
FUNC 65140 e 0 yaSSL::Crypto::DhSet
FUNC 65150 9 0 yaSSL::Crypto::setDigest
FUNC 65160 a 0 yaSSL::Crypto::setCipher
FUNC 65170 9 0 yaSSL::sslHashes::get_MD5
FUNC 65180 a 0 yaSSL::sslHashes::get_SHA
FUNC 65190 a 0 yaSSL::sslHashes::get_verify
FUNC 651a0 a 0 yaSSL::sslHashes::get_certVerify
FUNC 651b0 9 0 yaSSL::sslHashes::use_MD5
FUNC 651c0 a 0 yaSSL::sslHashes::use_SHA
FUNC 651d0 a 0 yaSSL::sslHashes::use_verify
FUNC 651e0 a 0 yaSSL::sslHashes::use_certVerify
FUNC 651f0 53 0 yaSSL::Buffers::Buffers
FUNC 65250 a 0 yaSSL::Buffers::SetOutput
FUNC 65260 a 0 yaSSL::Buffers::SetRawInput
FUNC 65270 12 0 yaSSL::Buffers::TakeRawInput
FUNC 65290 12 0 yaSSL::Buffers::TakeOutput
FUNC 652b0 a 0 yaSSL::Buffers::getData
FUNC 652c0 a 0 yaSSL::Buffers::getHandShake
FUNC 652d0 a 0 yaSSL::Buffers::useData
FUNC 652e0 a 0 yaSSL::Buffers::useHandShake
FUNC 652f0 9 0 yaSSL::Security::get_connection
FUNC 65300 d 0 yaSSL::Security::GetContext
FUNC 65310 d 0 yaSSL::Security::get_parms
FUNC 65320 d 0 yaSSL::Security::get_resume
FUNC 65330 d 0 yaSSL::Security::get_resuming
FUNC 65340 9 0 yaSSL::Security::use_connection
FUNC 65350 d 0 yaSSL::Security::use_parms
FUNC 65360 d 0 yaSSL::Security::use_resume
FUNC 65370 d 0 yaSSL::Security::set_resuming
FUNC 65380 9 0 yaSSL::X509_NAME::GetName
FUNC 65390 a 0 yaSSL::X509_NAME::GetLength
FUNC 653a0 9 0 yaSSL::X509::GetIssuer
FUNC 653b0 a 0 yaSSL::X509::GetSubject
FUNC 653c0 a 0 yaSSL::X509::GetBefore
FUNC 653d0 a 0 yaSSL::X509::GetAfter
FUNC 653e0 9 0 yaSSL::StringHolder::GetString
FUNC 653f0 b 0 yaSSL::Compress
FUNC 65400 b 0 yaSSL::DeCompress
FUNC 65410 66 0 yaSSL::SSL_CTX::AddCA
FUNC 65480 79 0 yaSSL::SSL::addBuffer
FUNC 65500 89 0 yaSSL::SSL::addData
FUNC 65590 61 0 yaSSL::StringHolder::StringHolder
FUNC 65600 98 0 yaSSL::X509_NAME::GetEntry
FUNC 656a0 55 0 yaSSL::X509_NAME::X509_NAME
FUNC 65700 a1 0 yaSSL::::setPrefix
FUNC 657b0 36 0 yaSSL::SSL::set_sessionID
FUNC 657f0 3f 0 yaSSL::SSL::set_masterSecret
FUNC 65830 4b 0 yaSSL::SSL::set_random
FUNC 65880 6e 0 yaSSL::Crypto::SetDH
FUNC 658f0 78 0 yaSSL::Crypto::~Crypto
FUNC 65970 5e 0 yaSSL::Crypto::Crypto
FUNC 659d0 15d 0 yaSSL::SSL_CTX::IncrementStats
FUNC 65b30 162 0 yaSSL::SSL_CTX::SetCipherList
FUNC 65ca0 4d 0 yaSSL::SSL_CTX::SetDH
FUNC 65cf0 9b 0 yaSSL::GetErrors
FUNC 65d90 9f 0 yaSSL::Session_initialize
FUNC 65e30 a 0 yaSSL::c_session_initialize
FUNC 65e40 193 0 yaSSL::SSL_CTX::SSL_CTX
FUNC 65fe0 a1 0 yaSSL::default_password_callback
FUNC 66090 14 0 yaSSL::yassl_mysql_strdup
FUNC 660b0 a 0 yaSSL::yassl_int_cpp_local2::GetSelf
FUNC 660c0 20 0 yaSSL::GetSessions
FUNC 660e0 59 0 yaSSL::SSL_SESSION::SSL_SESSION
FUNC 66140 b9 0 yaSSL::SSL::Send
FUNC 66200 3d 0 yaSSL::SSL::bufferedData
FUNC 66240 a7 0 yaSSL::SSL::set_preMaster
FUNC 662f0 ff5 0 yaSSL::SSL::set_pending
FUNC 672f0 eb 0 yaSSL::sslFactory::sslFactory
FUNC 673e0 70 0 yaSSL::GetSSL_Factory
FUNC 67450 164 0 yaSSL::SSL::PeekData
FUNC 675c0 1f0 0 yaSSL::SSL::fillData
FUNC 677b0 1a 0 yaSSL::StringHolder::~StringHolder
FUNC 677d0 37 0 yaSSL::X509_NAME::~X509_NAME
FUNC 67810 135 0 yaSSL::Buffers::~Buffers
FUNC 67950 16e 0 yaSSL::X509::X509
FUNC 67ac0 de 0 yaSSL::SSL_SESSION::CopyX509
FUNC 67ba0 70 0 yaSSL::SSL::getFactory
FUNC 67c10 10f 0 yaSSL::Errors::Lookup
FUNC 67d20 fd 0 yaSSL::Security::Security
FUNC 67e20 2d 0 yaSSL::SSL_SESSION::~SSL_SESSION
FUNC 67e50 da 0 yaSSL::Sessions::~Sessions
FUNC 67f30 b8 0 yayaSSL_CleanUp
FUNC 67ff0 151 0 yaSSL::Sessions::Flush
FUNC 68150 41a 0 yaSSL::SSL::SSL
FUNC 68570 129 0 yaSSL::SSL_CTX::~SSL_CTX
FUNC 686a0 168 0 yaSSL::SSL_SESSION::operator=
FUNC 68810 161 0 yaSSL::Sessions::lookup
FUNC 68980 8b 0 yaSSL::SSL::set_session
FUNC 68a10 17a 0 yaSSL::SSL_SESSION::SSL_SESSION
FUNC 68b90 105 0 yaSSL::Sessions::add
FUNC 68ca0 169 0 yaSSL::SSL::storeKeys
FUNC 68e10 134 0 yaSSL::SSL::deriveTLSKeys
FUNC 68f50 ae 0 yaSSL::SSL::makeTLSMasterSecret
FUNC 69000 2fa 0 yaSSL::SSL::deriveKeys
FUNC 69300 f5 0 yaSSL::Errors::Remove
FUNC 69400 b8 0 yaSSL::Errors::Add
FUNC 694c0 139 0 yaSSL::Sessions::remove
FUNC 69600 10e 0 yaSSL::SSL::SendWriteBuffered
FUNC 69710 1f7 0 yaSSL::SSL::flushBuffer
FUNC 69910 4f1 0 yaSSL::SSL::makeMasterSecret
FUNC 69e10 1f0 0 yaSSL::SSL::verifyState
FUNC 6a000 10 0 yaSSL::HandShakeBase::~HandShakeBase
FUNC 6a010 14 0 yaSSL::HandShakeBase::~HandShakeBase
FUNC 6a030 12 0 yaSSL::ysArrayDelete<unsigned char>
FUNC 6a050 3b 0 yaSSL::DH_Parms::~DH_Parms
FUNC 6a090 67 0 yaSSL::ysDelete<yaSSL::sslFactory>
FUNC 6a100 7f 0 yaSSL::ysDelete<yaSSL::X509>
FUNC 6a180 8 0 __cxa_pure_virtual
FUNC 6a190 18 0 yaSSL::lowResTimer
FUNC 6a1b0 2d 0 yaSSL::timer
FUNC 6a1e0 8 0 __cxa_pure_virtual
FUNC 6a1f0 6 0 yaSSL::Log::Log
FUNC 6a200 6 0 yaSSL::Log::~Log
FUNC 6a210 6 0 yaSSL::Log::Trace
FUNC 6a220 6 0 yaSSL::Log::ShowTCP
FUNC 6a230 6 0 yaSSL::Log::ShowData
FUNC 6a240 8 0 __cxa_pure_virtual
FUNC 6a250 b 0 yaSSL::MD5::get_digestSize
FUNC 6a260 b 0 yaSSL::MD5::get_padSize
FUNC 6a270 b 0 yaSSL::SHA::get_digestSize
FUNC 6a280 b 0 yaSSL::SHA::get_padSize
FUNC 6a290 b 0 yaSSL::RMD::get_digestSize
FUNC 6a2a0 b 0 yaSSL::RMD::get_padSize
FUNC 6a2b0 b 0 yaSSL::HMAC_MD5::get_digestSize
FUNC 6a2c0 b 0 yaSSL::HMAC_MD5::get_padSize
FUNC 6a2d0 b 0 yaSSL::HMAC_SHA::get_digestSize
FUNC 6a2e0 b 0 yaSSL::HMAC_SHA::get_padSize
FUNC 6a2f0 b 0 yaSSL::HMAC_RMD::get_digestSize
FUNC 6a300 b 0 yaSSL::HMAC_RMD::get_padSize
FUNC 6a310 10 0 yaSSL::AES::get_keySize
FUNC 6a320 c 0 yaSSL::RandomPool::GetError
FUNC 6a330 d 0 yaSSL::DiffieHellman::get_agreedKey
FUNC 6a340 c 0 yaSSL::DiffieHellman::get_publicKeyLength
FUNC 6a350 d 0 yaSSL::DiffieHellman::get_publicKey
FUNC 6a360 46 0 yaSSL::AES::~AES
FUNC 6a3b0 30 0 yaSSL::RC4::~RC4
FUNC 6a3e0 46 0 yaSSL::DES_EDE::~DES_EDE
FUNC 6a430 46 0 yaSSL::DES::~DES
FUNC 6a480 40 0 yaSSL::HMAC_RMD::~HMAC_RMD
FUNC 6a4c0 40 0 yaSSL::HMAC_SHA::~HMAC_SHA
FUNC 6a500 40 0 yaSSL::HMAC_MD5::~HMAC_MD5
FUNC 6a540 3f 0 yaSSL::RMD::~RMD
FUNC 6a580 3f 0 yaSSL::SHA::~SHA
FUNC 6a5c0 3f 0 yaSSL::MD5::~MD5
FUNC 6a600 b7 0 yaSSL::AES::AES
FUNC 6a6c0 3d 0 yaSSL::RC4::RC4
FUNC 6a700 b1 0 yaSSL::DES_EDE::DES_EDE
FUNC 6a7c0 b1 0 yaSSL::DES::DES
FUNC 6a880 58 0 yaSSL::Integer::Integer
FUNC 6a8e0 d 0 yaSSL::DiffieHellman::get_agreedKeyLength
FUNC 6a8f0 e 0 yaSSL::RSA::get_cipherLength
FUNC 6a900 e 0 yaSSL::RSA::get_signatureLength
FUNC 6a910 1b 0 yaSSL::DiffieHellman::makeAgreement
FUNC 6a930 4a 0 yaSSL::Integer::Integer
FUNC 6a980 21 0 yaSSL::Integer::operator=
FUNC 6a9b0 e 0 yaSSL::DSS::get_signatureLength
FUNC 6a9c0 d 0 yaSSL::RandomPool::Fill
FUNC 6a9d0 37 0 yaSSL::RandomPool::~RandomPool
FUNC 6aa10 4a 0 yaSSL::RandomPool::RandomPool
FUNC 6aa60 50 0 yaSSL::AES::set_decryptKey
FUNC 6aab0 43 0 yaSSL::AES::set_encryptKey
FUNC 6ab00 15 0 yaSSL::RC4::decrypt
FUNC 6ab20 e 0 yaSSL::RC4::encrypt
FUNC 6ab30 1a 0 yaSSL::RC4::set_decryptKey
FUNC 6ab50 13 0 yaSSL::RC4::set_encryptKey
FUNC 6ab70 43 0 yaSSL::DES_EDE::set_decryptKey
FUNC 6abc0 39 0 yaSSL::DES_EDE::set_encryptKey
FUNC 6ac00 4d 0 yaSSL::DES::set_decryptKey
FUNC 6ac50 41 0 yaSSL::DES::set_encryptKey
FUNC 6aca0 e 0 yaSSL::RMD::update
FUNC 6acb0 e 0 yaSSL::SHA::update
FUNC 6acc0 e 0 yaSSL::MD5::update
FUNC 6acd0 d1 0 yaSSL::HMAC_RMD::get_digest
FUNC 6adb0 d1 0 yaSSL::HMAC_SHA::get_digest
FUNC 6ae90 d1 0 yaSSL::HMAC_MD5::get_digest
FUNC 6af70 e 0 yaSSL::RMD::get_digest
FUNC 6af80 3a 0 yaSSL::RMD::get_digest
FUNC 6afc0 e 0 yaSSL::SHA::get_digest
FUNC 6afd0 3a 0 yaSSL::SHA::get_digest
FUNC 6b010 e 0 yaSSL::MD5::get_digest
FUNC 6b020 3a 0 yaSSL::MD5::get_digest
FUNC 6b060 15a 0 yaSSL::HMAC_RMD::HMAC_RMD
FUNC 6b1c0 15a 0 yaSSL::HMAC_SHA::HMAC_SHA
FUNC 6b320 15a 0 yaSSL::HMAC_MD5::HMAC_MD5
FUNC 6b480 23 0 yaSSL::RMD::operator=
FUNC 6b4b0 71 0 yaSSL::RMD::RMD
FUNC 6b530 23 0 yaSSL::SHA::operator=
FUNC 6b560 71 0 yaSSL::SHA::SHA
FUNC 6b5e0 23 0 yaSSL::MD5::operator=
FUNC 6b610 71 0 yaSSL::MD5::MD5
FUNC 6b690 37 0 yaSSL::RC4::~RC4
FUNC 6b6d0 46 0 yaSSL::MD5::~MD5
FUNC 6b720 46 0 yaSSL::SHA::~SHA
FUNC 6b770 46 0 yaSSL::RMD::~RMD
FUNC 6b7c0 47 0 yaSSL::HMAC_MD5::~HMAC_MD5
FUNC 6b810 47 0 yaSSL::HMAC_SHA::~HMAC_SHA
FUNC 6b860 47 0 yaSSL::HMAC_RMD::~HMAC_RMD
FUNC 6b8b0 4d 0 yaSSL::DES::~DES
FUNC 6b900 4d 0 yaSSL::DES_EDE::~DES_EDE
FUNC 6b950 4d 0 yaSSL::AES::~AES
FUNC 6b9a0 62 0 yaSSL::HMAC_SHA::update
FUNC 6ba10 62 0 yaSSL::HMAC_MD5::update
FUNC 6ba80 62 0 yaSSL::HMAC_RMD::update
FUNC 6baf0 92 0 yaSSL::SHA::SHA
FUNC 6bb90 92 0 yaSSL::RMD::RMD
FUNC 6bc30 92 0 yaSSL::MD5::MD5
FUNC 6bcd0 698 0 yaSSL::PemToDer
FUNC 6c370 90 0 yaSSL::RSA::RSAImpl::SetPublic
FUNC 6c400 90 0 yaSSL::DSS::DSSImpl::SetPublic
FUNC 6c490 110 0 yaSSL::DiffieHellman::DiffieHellman
FUNC 6c5a0 84 0 yaSSL::HMAC_SHA::get_digest
FUNC 6c630 84 0 yaSSL::HMAC_RMD::get_digest
FUNC 6c6c0 84 0 yaSSL::HMAC_MD5::get_digest
FUNC 6c750 1b 0 yaSSL::RSA::verify
FUNC 6c770 e3 0 yaSSL::DiffieHellman::DiffieHellman
FUNC 6c860 10d 0 yaSSL::DiffieHellman::get_parms
FUNC 6c970 17b 0 yaSSL::DiffieHellman::DiffieHellman
FUNC 6caf0 66 0 yaSSL::Integer::assign
FUNC 6cb60 e9 0 yaSSL::DiffieHellman::set_sizes
FUNC 6cc50 5b 0 yaSSL::Integer::~Integer
FUNC 6ccb0 df 0 yaSSL::DSS::verify
FUNC 6cd90 29 0 yaSSL::RSA::encrypt
FUNC 6cdc0 eb 0 yaSSL::DSS::sign
FUNC 6ceb0 2d 0 yaSSL::RSA::decrypt
FUNC 6cee0 ea 0 yaSSL::DiffieHellman::operator=
FUNC 6cfd0 95 0 yaSSL::DiffieHellman::~DiffieHellman
FUNC 6d070 183 0 yaSSL::DES::decrypt
FUNC 6d200 15b 0 yaSSL::DES::encrypt
FUNC 6d360 183 0 yaSSL::AES::decrypt
FUNC 6d4f0 15b 0 yaSSL::AES::encrypt
FUNC 6d650 183 0 yaSSL::DES_EDE::decrypt
FUNC 6d7e0 15b 0 yaSSL::DES_EDE::encrypt
FUNC 6d940 2d 0 yaSSL::RSA::sign
FUNC 6d970 1c4 0 yaSSL::RSA::RSAImpl::SetPrivate
FUNC 6db40 1ad 0 yaSSL::RSA::RSA
FUNC 6dcf0 30 0 yaSSL::RSA::~RSA
FUNC 6dd20 37 0 yaSSL::RSA::~RSA
FUNC 6dd60 163 0 yaSSL::DSS::DSSImpl::SetPrivate
FUNC 6ded0 17e 0 yaSSL::DSS::DSS
FUNC 6e050 30 0 yaSSL::DSS::~DSS
FUNC 6e080 37 0 yaSSL::DSS::~DSS
FUNC 6e0c0 10 0 yaSSL::Digest::~Digest
FUNC 6e0d0 10 0 yaSSL::BulkCipher::~BulkCipher
FUNC 6e0e0 b 0 yaSSL::DES::get_blockSize
FUNC 6e0f0 b 0 yaSSL::DES::get_keySize
FUNC 6e100 b 0 yaSSL::DES::get_ivSize
FUNC 6e110 b 0 yaSSL::DES_EDE::get_blockSize
FUNC 6e120 b 0 yaSSL::DES_EDE::get_keySize
FUNC 6e130 b 0 yaSSL::DES_EDE::get_ivSize
FUNC 6e140 8 0 yaSSL::RC4::get_blockSize
FUNC 6e150 b 0 yaSSL::RC4::get_keySize
FUNC 6e160 8 0 yaSSL::RC4::get_ivSize
FUNC 6e170 b 0 yaSSL::AES::get_blockSize
FUNC 6e180 b 0 yaSSL::AES::get_ivSize
FUNC 6e190 10 0 yaSSL::Auth::~Auth
FUNC 6e1a0 10 0 TaoCrypt::HASH::~HASH
FUNC 6e1b0 14 0 yaSSL::Auth::~Auth
FUNC 6e1d0 14 0 yaSSL::BulkCipher::~BulkCipher
FUNC 6e1f0 14 0 TaoCrypt::HASH::~HASH
FUNC 6e210 14 0 yaSSL::Digest::~Digest
FUNC 6e230 3f 0 TaoCrypt::Integer::~Integer
FUNC 6e270 37 0 mySTL::auto_ptr<yaSSL::x509>::~auto_ptr
FUNC 6e2b0 37 0 TaoCrypt::Block<unsigned char, TaoCrypt::AllocatorWithCleanup<unsigned char> >::~Block
FUNC 6e2f0 ea 0 TaoCrypt::RSA_Encryptor<TaoCrypt::RSA_BlockType2>::SSL_Verify
FUNC 6e3e0 5d 0 TaoCrypt::DH::~DH
FUNC 6e440 5d 0 TaoCrypt::RSA_PublicKey::~RSA_PublicKey
FUNC 6e4a0 a5 0 TaoCrypt::DSA_PublicKey::~DSA_PublicKey
FUNC 6e550 1b6 0 TaoCrypt::RSA_Encryptor<TaoCrypt::RSA_BlockType2>::Encrypt
FUNC 6e710 1b6 0 TaoCrypt::RSA_Encryptor<TaoCrypt::RSA_BlockType1>::Encrypt
FUNC 6e8d0 1ce 0 TaoCrypt::RSA_Decryptor<TaoCrypt::RSA_BlockType2>::Decrypt
FUNC 6eaa0 f7 0 TaoCrypt::RSA_Decryptor<TaoCrypt::RSA_BlockType2>::SSL_Sign
FUNC 6eba0 1b3 0 yaSSL::ysDelete<yaSSL::RSA::RSAImpl>
FUNC 6ed60 183 0 yaSSL::ysDelete<yaSSL::DSS::DSSImpl>
FUNC 6eef0 8 0 __cxa_pure_virtual
FUNC 6ef00 1e 0 yaSSL::x509::Swap
FUNC 6ef20 8 0 yaSSL::x509::get_length
FUNC 6ef30 a 0 yaSSL::x509::get_buffer
FUNC 6ef40 a 0 yaSSL::x509::use_buffer
FUNC 6ef50 d 0 yaSSL::CertManager::verifyPeer
FUNC 6ef60 d 0 yaSSL::CertManager::verifyNone
FUNC 6ef70 d 0 yaSSL::CertManager::failNoCert
FUNC 6ef80 d 0 yaSSL::CertManager::sendVerify
FUNC 6ef90 d 0 yaSSL::CertManager::setVerifyPeer
FUNC 6efa0 d 0 yaSSL::CertManager::setVerifyNone
FUNC 6efb0 d 0 yaSSL::CertManager::sendBlankCert
FUNC 6efc0 d 0 yaSSL::CertManager::setFailNoCert
FUNC 6efd0 d 0 yaSSL::CertManager::setSendVerify
FUNC 6efe0 d 0 yaSSL::CertManager::setSendBlankCert
FUNC 6eff0 d 0 yaSSL::CertManager::setVerifyCallback
FUNC 6f000 14 0 yaSSL::CertManager::get_cert
FUNC 6f020 a 0 yaSSL::CertManager::get_peerX509
FUNC 6f030 a 0 yaSSL::CertManager::get_selfX509
FUNC 6f040 c 0 yaSSL::CertManager::get_peerKeyType
FUNC 6f050 c 0 yaSSL::CertManager::get_keyType
FUNC 6f060 128 0 yaSSL::CertManager::setPeerX509
FUNC 6f190 66 0 yaSSL::CertManager::AddPeerCert
FUNC 6f200 3c 0 yaSSL::x509::x509
FUNC 6f240 20 0 yaSSL::x509::x509
FUNC 6f260 1a 0 yaSSL::x509::~x509
FUNC 6f280 e 0 yaSSL::CertManager::get_privateKeyLength
FUNC 6f290 e 0 yaSSL::CertManager::get_peerKeyLength
FUNC 6f2a0 e 0 yaSSL::CertManager::get_privateKey
FUNC 6f2b0 e 0 yaSSL::CertManager::get_peerKey
FUNC 6f2c0 70 0 yaSSL::x509::operator=
FUNC 6f330 b0 0 yaSSL::CertManager::CopySelfCert
FUNC 6f3e0 196 0 yaSSL::CertManager::CopyCaCert
FUNC 6f580 302 0 yaSSL::CertManager::SetPrivateKey
FUNC 6f890 56e 0 yaSSL::CertManager::Validate
FUNC 6fe00 1cb 0 yaSSL::CertManager::~CertManager
FUNC 6ffd0 118 0 yaSSL::CertManager::CertManager
FUNC 700f0 8 0 __cxa_pure_virtual
FUNC 70100 d 0 yaSSL::Mutex::Lock::~Lock
FUNC 70110 10 0 yaSSL::Mutex::Lock::Lock
FUNC 70120 a 0 yaSSL::Mutex::~Mutex
FUNC 70130 c 0 yaSSL::Mutex::Mutex
FUNC 70140 8 0 __cxa_pure_virtual
FUNC 70150 2a 0 yaSSL::Socket::Socket
FUNC 70180 8 0 yaSSL::Socket::set_fd
FUNC 70190 8 0 yaSSL::Socket::get_fd
FUNC 701a0 6 0 yaSSL::Socket::~Socket
FUNC 701b0 a 0 yaSSL::Socket::set_transport_ptr
FUNC 701c0 a 0 yaSSL::Socket::set_transport_recv_function
FUNC 701d0 a 0 yaSSL::Socket::set_transport_send_function
FUNC 701e0 a 0 yaSSL::Socket::WouldBlock
FUNC 701f0 a 0 yaSSL::Socket::IsNonBlocking
FUNC 70200 19 0 yaSSL::Socket::set_lastError
FUNC 70220 d 0 yaSSL::Socket::get_lastError
FUNC 70230 56 0 yaSSL::Socket::receive
FUNC 70290 9d 0 yaSSL::Socket::send
FUNC 70330 c 0 yaSSL::Socket::shutDown
FUNC 70340 26 0 yaSSL::Socket::get_ready
FUNC 70370 25 0 yaSSL::Socket::closeSocket
FUNC 703a0 e 0 system_send
FUNC 703b0 e 0 system_recv
FUNC 703c0 8 0 __cxa_pure_virtual
FUNC 703d0 b 0 yaSSL::yaSSL_get_default_timeout
FUNC 703e0 d 0 yaSSL::yaSSLeay_version
FUNC 703f0 6 0 yaSSL::yaX509_free
FUNC 70400 a 0 yaSSL::yaX509_STORE_CTX_get_current_cert
FUNC 70410 8 0 yaSSL::yaX509_STORE_CTX_get_error
FUNC 70420 9 0 yaSSL::yaX509_STORE_CTX_get_error_depth
FUNC 70430 6 0 yaSSL::yaSSL_load_error_strings
FUNC 70440 6 0 yaSSL::yaSSL_set_connect_state
FUNC 70450 8 0 yaSSL::yaSSL_get_verify_result
FUNC 70460 8 0 yaSSL::yaSSL_CTX_sess_set_cache_size
FUNC 70470 8 0 yaSSL::yaSSL_CTX_get_session_cache_mode
FUNC 70480 b 0 yaSSL::yaSSL_CTX_set_default_verify_paths
FUNC 70490 b 0 yaSSL::yaSSL_CTX_set_session_id_context
FUNC 704a0 b 0 yaSSL::yaSSL_CTX_check_private_key
FUNC 704b0 b 0 yaSSL::yaSSL_CTX_set_options
FUNC 704c0 6 0 yaSSL::yaSSL_CTX_set_info_callback
FUNC 704d0 6 0 yaSSL::yaOpenSSL_add_all_algorithms
FUNC 704e0 b 0 yaSSL::yaSSL_library_init
FUNC 704f0 8 0 yaSSL::yaERR_get_error_line_data
FUNC 70500 6 0 yaSSL::yaERR_print_errors_fp
FUNC 70510 d 0 yaSSL::yaX509_verify_cert_error_string
FUNC 70520 d 0 yaSSL::yaEVP_md5
FUNC 70530 d 0 yaSSL::yaEVP_des_ede3_cbc
FUNC 70540 b 0 yaSSL::yaRAND_status
FUNC 70550 6 0 yaSSL::yaDES_set_odd_parity
FUNC 70560 8 0 yaSSL::yaSSL_get_privatekey
FUNC 70570 6 0 yaSSL::yaSSL_SESSION_free
FUNC 70580 8 0 yaSSL::yaX509_get_pubkey
FUNC 70590 8 0 yaSSL::yaEVP_PKEY_copy_parameters
FUNC 705a0 6 0 yaSSL::yaEVP_PKEY_free
FUNC 705b0 6 0 yaSSL::yaERR_free_strings
FUNC 705c0 6 0 yaSSL::yaEVP_cleanup
FUNC 705d0 8 0 yaSSL::yaSSLv2_client_method
FUNC 705e0 6 0 yaSSL::yaGENERAL_NAMES_free
FUNC 705f0 8 0 yaSSL::yask_GENERAL_NAME_num
FUNC 70600 8 0 yaSSL::yask_GENERAL_NAME_value
FUNC 70610 11 0 yaSSL::yaASN1_STRING_data
FUNC 70630 10 0 yaSSL::yaASN1_STRING_length
FUNC 70640 f 0 yaSSL::yaASN1_STRING_type
FUNC 70650 19 0 yaSSL::yaX509_NAME_get_index_by_NID
FUNC 70670 9 0 yaSSL::yaX509_NAME_ENTRY_get_data
FUNC 70680 8 0 yaSSL::yaX509_get_ext_d2i
FUNC 70690 e 0 yaSSL::yaMD4_Update
FUNC 706a0 17 0 yaSSL::yaMD4_Final
FUNC 706c0 e 0 yaSSL::yaMD5_Update
FUNC 706d0 17 0 yaSSL::yaMD5_Final
FUNC 706f0 b 0 yaSSL::yaSSLeay_add_ssl_algorithms
FUNC 70700 d 0 yaSSL::yaERR_GET_REASON
FUNC 70710 6 0 yaSSL::yaRAND_screen
FUNC 70720 8 0 yaSSL::yaRAND_file_name
FUNC 70730 8 0 yaSSL::yaRAND_write_file
FUNC 70740 8 0 yaSSL::yaRAND_load_file
FUNC 70750 6 0 yaSSL::yaRSA_free
FUNC 70760 8 0 yaSSL::yaRSA_generate_key
FUNC 70770 b 0 yaSSL::yaX509_LOOKUP_add_dir
FUNC 70780 b 0 yaSSL::yaX509_LOOKUP_load_file
FUNC 70790 8 0 yaSSL::yaX509_LOOKUP_hash_dir
FUNC 707a0 8 0 yaSSL::yaX509_LOOKUP_file
FUNC 707b0 8 0 yaSSL::yaX509_STORE_add_lookup
FUNC 707c0 b 0 yaSSL::yaX509_STORE_get_by_subject
FUNC 707d0 8 0 yaSSL::yaX509_STORE_new
FUNC 707e0 8 0 yaSSL::yaSSL_alert_type_string_long
FUNC 707f0 8 0 yaSSL::yaSSL_alert_desc_string_long
FUNC 70800 8 0 yaSSL::yaSSL_state_string_long
FUNC 70810 6 0 yaSSL::yaSSL_CTX_set_tmp_rsa_callback
FUNC 70820 b 0 yaSSL::yaSSL_CTX_set_timeout
FUNC 70830 b 0 yaSSL::yaSSL_CTX_use_certificate_chain_file
FUNC 70840 b 0 yaSSL::yaSSL_CTX_use_RSAPrivateKey_file
FUNC 70850 b 0 yaSSL::yaSSL_set_rfd
FUNC 70860 b 0 yaSSL::yaSSL_set_wfd
FUNC 70870 8 0 yaSSL::yaSSL_want_read
FUNC 70880 8 0 yaSSL::yaSSL_want_write
FUNC 70890 6 0 yaSSL::yaSSL_set_shutdown
FUNC 708a0 8 0 yaSSL::yaSSL_get_current_cipher
FUNC 708b0 8 0 yaSSL::yaSSL_CIPHER_description
FUNC 708c0 22 0 yaSSL::yaSSL_transport_set_send_function
FUNC 708f0 22 0 yaSSL::yaSSL_transport_set_recv_function
FUNC 70920 22 0 yaSSL::yaSSL_transport_set_ptr
FUNC 70950 71 0 yaSSL::ya_SSL_ASN1_TIME_to_string
FUNC 709d0 38 0 yaSSL::err_helper
FUNC 70a10 12 0 yaSSL::yaERR_remove_state
FUNC 70a30 18 0 yaSSL::yaSSL_clear
FUNC 70a50 a 0 yaSSL::yaSSL_CTX_set_default_passwd_cb
FUNC 70a60 58 0 yaSSL::yaSSL_peek
FUNC 70ac0 55 0 yaSSL::yaSSL_read
FUNC 70b20 7d 0 yaSSL::yaRAND_bytes
FUNC 70ba0 4c 0 yaSSL::yaMD5_Init
FUNC 70bf0 4c 0 yaSSL::yaMD4_Init
FUNC 70c40 5e 0 yaSSL::yaASN1_STRING_to_UTF8
FUNC 70ca0 11 0 yaSSL::yaDES_set_key
FUNC 70cc0 c 0 yaSSL::yaDES_set_key_unchecked
FUNC 70cd0 a 0 yaSSL::yaX509_NAME_get_entry
FUNC 70ce0 14 0 yaSSL::yaX509_get_notAfter
FUNC 70d00 14 0 yaSSL::yaX509_get_notBefore
FUNC 70d20 1a 0 yaSSL::yaSSL_get_certificate
FUNC 70d40 a 0 yaSSL::yaSSL_CTX_set_default_passwd_cb_userdata
FUNC 70d50 b5 0 yaSSL::yaDES_ecb_encrypt
FUNC 70e10 d2 0 yaSSL::yaDES_ede3_cbc_encrypt
FUNC 70ef0 2d4 0 yaSSL::yaEVP_BytesToKey
FUNC 711d0 31 0 yaSSL::yaERR_error_string
FUNC 71210 24 0 yaSSL::yaDH_new
FUNC 71240 1e 0 yaSSL::yaSSL_get_verify_depth
FUNC 71260 e 0 yaSSL::yaSSL_CTX_get_verify_depth
FUNC 71270 1e 0 yaSSL::yaSSL_get_verify_mode
FUNC 71290 e 0 yaSSL::yaSSL_CTX_get_verify_mode
FUNC 712a0 f 0 yaSSL::yaSSL_CTX_sess_get_cache_size
FUNC 712b0 f 0 yaSSL::yaSSL_CTX_sess_number
FUNC 712c0 f 0 yaSSL::yaSSL_CTX_sess_timeouts
FUNC 712d0 f 0 yaSSL::yaSSL_CTX_sess_misses
FUNC 712e0 f 0 yaSSL::yaSSL_CTX_sess_cache_full
FUNC 712f0 f 0 yaSSL::yaSSL_CTX_sess_cb_hits
FUNC 71300 f 0 yaSSL::yaSSL_CTX_sess_hits
FUNC 71310 f 0 yaSSL::yaSSL_CTX_sess_connect_renegotiate
FUNC 71320 f 0 yaSSL::yaSSL_CTX_sess_accept_renegotiate
FUNC 71330 f 0 yaSSL::yaSSL_CTX_sess_connect_good
FUNC 71340 f 0 yaSSL::yaSSL_CTX_sess_accept_good
FUNC 71350 f 0 yaSSL::yaSSL_CTX_sess_connect
FUNC 71360 e 0 yaSSL::yaSSL_CTX_sess_accept
FUNC 71370 17 0 yaSSL::yaSSL_get_shared_ciphers
FUNC 71390 6d 0 yaSSL::yaSSL_CTX_set_verify
FUNC 71400 e 0 yaSSL::yaSSL_CTX_set_tmp_dh
FUNC 71410 19 0 yaSSL::yaSSL_set_accept_state
FUNC 71430 a 0 yaSSL::yaX509_get_subject_name
FUNC 71440 a 0 yaSSL::yaX509_get_issuer_name
FUNC 71450 aa 0 yaSSL::yaX509_NAME_oneline
FUNC 71500 1a 0 yaSSL::yaSSL_get_peer_certificate
FUNC 71520 a 0 yaSSL::yaSSL_set_compression
FUNC 71530 12 0 yaSSL::yaSSL_get_error
FUNC 71550 29 0 yaSSL::yaSSL_get_version
FUNC 71580 e 0 yaSSL::yaSSL_CTX_set_cipher_list
FUNC 71590 6b 0 yaSSL::yaSSL_get_cipher_list
FUNC 71600 19 0 yaSSL::yaSSL_get_cipher
FUNC 71620 1e 0 yaSSL::yaSSL_flush_sessions
FUNC 71640 17 0 yaSSL::yaSSL_SESSION_set_timeout
FUNC 71660 16 0 yaSSL::yaSSL_session_reused
