MODULE Linux x86_64 98167AD43D5827984F9C49E3C93D83FA0 IEC103_SFIEC103
FUNC b514 1b0 0 main
FUNC b6c4 ca 0 __static_initialization_and_destruction_0
FUNC b78e 15 0 _GLOBAL__I_IEC103.cpp
FUNC b7a4 29 0 Config::setChannelName
FUNC b7d0 570 0 Config::Config
FUNC bd40 74 0 Config::GetInstance
FUNC bdb4 2a3 0 Config::~Config
FUNC c058 26 0 Config::~Config
FUNC c07e cbf 0 Config::Init
FUNC cd3e 27 0 Config::IsSpace
FUNC cd66 24 0 Config::IsCommentChar
FUNC cd8a 173 0 Config::Trim
FUNC cefe 21d 0 Config::AnalyseLine
FUNC d11c 238 0 Config::ReadConfig
FUNC d354 ad 0 Config::GetStrValueByKey
FUNC d402 d03 0 Config::InitMysqlParams
FUNC e106 134 0 Config::Split
FUNC e23a 48 0 __static_initialization_and_destruction_0
FUNC e282 15 0 _GLOBAL__I_Config.cpp
FUNC e297 12 0 operator new
FUNC e2a9 e 0 operator delete
FUNC e2b7 14 0 std::operator|
FUNC e2cc 1a 0 std::map<std::basic_string<char, std::char_traits<char>, std::allocator<char> >, std::basic_string<char, std::char_traits<char>, std::allocator<char> >, std::less<std::basic_string<char, std::char_traits<char>, std::allocator<char> > >, std::allocator<std::pair<const std::basic_string<char, std::char_traits<char>, std::allocator<char> >, std::basic_string<char, std::char_traits<char>, std::allocator<char> > > > >::~map
FUNC e2e6 1a 0 std::map<std::basic_string<char, std::char_traits<char>, std::allocator<char> >, std::basic_string<char, std::char_traits<char>, std::allocator<char> >, std::less<std::basic_string<char, std::char_traits<char>, std::allocator<char> > >, std::allocator<std::pair<const std::basic_string<char, std::char_traits<char>, std::allocator<char> >, std::basic_string<char, std::char_traits<char>, std::allocator<char> > > > >::map
FUNC e300 1a 0 std::_Rb_tree<std::basic_string<char, std::char_traits<char>, std::allocator<char> >, std::pair<const std::basic_string<char, std::char_traits<char>, std::allocator<char> >, std::basic_string<char, std::char_traits<char>, std::allocator<char> > >, std::_Select1st<std::pair<const std::basic_string<char, std::char_traits<char>, std::allocator<char> >, std::basic_string<char, std::char_traits<char>, std::allocator<char> > > >, std::less<std::basic_string<char, std::char_traits<char>, std::allocator<char> > >, std::allocator<std::pair<const std::basic_string<char, std::char_traits<char>, std::allocator<char> >, std::basic_string<char, std::char_traits<char>, std::allocator<char> > > > >::_Rb_tree_impl<std::less<std::basic_string<char, std::char_traits<char>, std::allocator<char> > >, false>::~_Rb_tree_impl
FUNC e31a 63 0 std::_Rb_tree<std::basic_string<char, std::char_traits<char>, std::allocator<char> >, std::pair<const std::basic_string<char, std::char_traits<char>, std::allocator<char> >, std::basic_string<char, std::char_traits<char>, std::allocator<char> > >, std::_Select1st<std::pair<const std::basic_string<char, std::char_traits<char>, std::allocator<char> >, std::basic_string<char, std::char_traits<char>, std::allocator<char> > > >, std::less<std::basic_string<char, std::char_traits<char>, std::allocator<char> > >, std::allocator<std::pair<const std::basic_string<char, std::char_traits<char>, std::allocator<char> >, std::basic_string<char, std::char_traits<char>, std::allocator<char> > > > >::~_Rb_tree
FUNC e37e 1a 0 std::vector<short unsigned int, std::allocator<short unsigned int> >::vector
FUNC e398 6e 0 std::vector<short unsigned int, std::allocator<short unsigned int> >::~vector
FUNC e406 1a 0 std::vector<std::basic_string<char, std::char_traits<char>, std::allocator<char> >, std::allocator<std::basic_string<char, std::char_traits<char>, std::allocator<char> > > >::vector
FUNC e420 6e 0 std::vector<std::basic_string<char, std::char_traits<char>, std::allocator<char> >, std::allocator<std::basic_string<char, std::char_traits<char>, std::allocator<char> > > >::~vector
FUNC e48e 24 0 std::vector<short unsigned int, std::allocator<short unsigned int> >::clear
FUNC e4b2 24 0 std::vector<std::basic_string<char, std::char_traits<char>, std::allocator<char> >, std::allocator<std::basic_string<char, std::char_traits<char>, std::allocator<char> > > >::clear
FUNC e4d6 16d 0 Config::GetValueByKey<int32_t>
FUNC e644 16d 0 Config::GetValueByKey<uint16_t>
FUNC e7b2 1a 0 std::map<std::basic_string<char, std::char_traits<char>, std::allocator<char> >, std::basic_string<char, std::char_traits<char>, std::allocator<char> >, std::less<std::basic_string<char, std::char_traits<char>, std::allocator<char> > >, std::allocator<std::pair<const std::basic_string<char, std::char_traits<char>, std::allocator<char> >, std::basic_string<char, std::char_traits<char>, std::allocator<char> > > > >::clear
FUNC e7cc 55 0 std::pair<const std::basic_string<char, std::char_traits<char>, std::allocator<char> >, std::basic_string<char, std::char_traits<char>, std::allocator<char> > >::~pair
FUNC e822 146 0 std::map<std::basic_string<char, std::char_traits<char>, std::allocator<char> >, std::basic_string<char, std::char_traits<char>, std::allocator<char> >, std::less<std::basic_string<char, std::char_traits<char>, std::allocator<char> > >, std::allocator<std::pair<const std::basic_string<char, std::char_traits<char>, std::allocator<char> >, std::basic_string<char, std::char_traits<char>, std::allocator<char> > > > >::operator[]
FUNC e968 25 0 std::map<std::basic_string<char, std::char_traits<char>, std::allocator<char> >, std::basic_string<char, std::char_traits<char>, std::allocator<char> >, std::less<std::basic_string<char, std::char_traits<char>, std::allocator<char> > >, std::allocator<std::pair<const std::basic_string<char, std::char_traits<char>, std::allocator<char> >, std::basic_string<char, std::char_traits<char>, std::allocator<char> > > > >::find
FUNC e98e 1c 0 std::_Rb_tree_const_iterator<std::pair<const std::basic_string<char, std::char_traits<char>, std::allocator<char> >, std::basic_string<char, std::char_traits<char>, std::allocator<char> > > >::_Rb_tree_const_iterator
FUNC e9aa 1a 0 std::map<std::basic_string<char, std::char_traits<char>, std::allocator<char> >, std::basic_string<char, std::char_traits<char>, std::allocator<char> >, std::less<std::basic_string<char, std::char_traits<char>, std::allocator<char> > >, std::allocator<std::pair<const std::basic_string<char, std::char_traits<char>, std::allocator<char> >, std::basic_string<char, std::char_traits<char>, std::allocator<char> > > > >::end
FUNC e9c4 22 0 std::_Rb_tree_const_iterator<std::pair<const std::basic_string<char, std::char_traits<char>, std::allocator<char> >, std::basic_string<char, std::char_traits<char>, std::allocator<char> > > >::operator!=
FUNC e9e6 15 0 std::_Rb_tree_const_iterator<std::pair<const std::basic_string<char, std::char_traits<char>, std::allocator<char> >, std::basic_string<char, std::char_traits<char>, std::allocator<char> > > >::operator->
FUNC e9fc 20 0 std::vector<std::basic_string<char, std::char_traits<char>, std::allocator<char> >, std::allocator<std::basic_string<char, std::char_traits<char>, std::allocator<char> > > >::operator[]
FUNC ea1c f3 0 Config::String2Int<uint16_t>
FUNC eb10 25 0 std::vector<std::basic_string<char, std::char_traits<char>, std::allocator<char> >, std::allocator<std::basic_string<char, std::char_traits<char>, std::allocator<char> > > >::begin
FUNC eb36 28 0 __gnu_cxx::__normal_iterator<const std::basic_string<char, std::char_traits<char>, std::allocator<char> >*, std::vector<std::basic_string<char, std::char_traits<char>, std::allocator<char> >, std::allocator<std::basic_string<char, std::char_traits<char>, std::allocator<char> > > > >::__normal_iterator<std::basic_string<char, std::char_traits<char>, std::allocator<char> >*>
FUNC eb5e 29 0 std::vector<std::basic_string<char, std::char_traits<char>, std::allocator<char> >, std::allocator<std::basic_string<char, std::char_traits<char>, std::allocator<char> > > >::end
FUNC eb87 3c 0 __gnu_cxx::operator!=<const std::basic_string<char, std::char_traits<char>, std::allocator<char> >*, std::basic_string<char, std::char_traits<char>, std::allocator<char> >*, std::vector<std::basic_string<char, std::char_traits<char>, std::allocator<char> >, std::allocator<std::basic_string<char, std::char_traits<char>, std::allocator<char> > > > >
FUNC ebc4 20 0 __gnu_cxx::__normal_iterator<const std::basic_string<char, std::char_traits<char>, std::allocator<char> >*, std::vector<std::basic_string<char, std::char_traits<char>, std::allocator<char> >, std::allocator<std::basic_string<char, std::char_traits<char>, std::allocator<char> > > > >::operator++
FUNC ebe4 11 0 __gnu_cxx::__normal_iterator<const std::basic_string<char, std::char_traits<char>, std::allocator<char> >*, std::vector<std::basic_string<char, std::char_traits<char>, std::allocator<char> >, std::allocator<std::basic_string<char, std::char_traits<char>, std::allocator<char> > > > >::operator*
FUNC ebf6 7a 0 std::vector<short unsigned int, std::allocator<short unsigned int> >::push_back
FUNC ec70 41 0 std::vector<short unsigned int, std::allocator<short unsigned int> >::empty
FUNC ecb2 1f 0 std::vector<short unsigned int, std::allocator<short unsigned int> >::operator[]
FUNC ecd2 f3 0 Config::String2Int<int32_t>
FUNC edc6 242 0 std::vector<std::basic_string<char, std::char_traits<char>, std::allocator<char> >, std::allocator<std::basic_string<char, std::char_traits<char>, std::allocator<char> > > >::operator=
FUNC f008 29 0 std::vector<std::basic_string<char, std::char_traits<char>, std::allocator<char> >, std::allocator<std::basic_string<char, std::char_traits<char>, std::allocator<char> > > >::size
FUNC f032 7a 0 std::vector<std::basic_string<char, std::char_traits<char>, std::allocator<char> >, std::allocator<std::basic_string<char, std::char_traits<char>, std::allocator<char> > > >::push_back
FUNC f0ac 1a 0 std::_Rb_tree<std::basic_string<char, std::char_traits<char>, std::allocator<char> >, std::pair<const std::basic_string<char, std::char_traits<char>, std::allocator<char> >, std::basic_string<char, std::char_traits<char>, std::allocator<char> > >, std::_Select1st<std::pair<const std::basic_string<char, std::char_traits<char>, std::allocator<char> >, std::basic_string<char, std::char_traits<char>, std::allocator<char> > > >, std::less<std::basic_string<char, std::char_traits<char>, std::allocator<char> > >, std::allocator<std::pair<const std::basic_string<char, std::char_traits<char>, std::allocator<char> >, std::basic_string<char, std::char_traits<char>, std::allocator<char> > > > >::_Rb_tree
FUNC f0c6 1a 0 std::allocator<std::_Rb_tree_node<std::pair<const std::basic_string<char, std::char_traits<char>, std::allocator<char> >, std::basic_string<char, std::char_traits<char>, std::allocator<char> > > > >::~allocator
FUNC f0e0 69 0 std::_Rb_tree<std::basic_string<char, std::char_traits<char>, std::allocator<char> >, std::pair<const std::basic_string<char, std::char_traits<char>, std::allocator<char> >, std::basic_string<char, std::char_traits<char>, std::allocator<char> > >, std::_Select1st<std::pair<const std::basic_string<char, std::char_traits<char>, std::allocator<char> >, std::basic_string<char, std::char_traits<char>, std::allocator<char> > > >, std::less<std::basic_string<char, std::char_traits<char>, std::allocator<char> > >, std::allocator<std::pair<const std::basic_string<char, std::char_traits<char>, std::allocator<char> >, std::basic_string<char, std::char_traits<char>, std::allocator<char> > > > >::_M_erase
FUNC f14a 12 0 std::_Rb_tree<std::basic_string<char, std::char_traits<char>, std::allocator<char> >, std::pair<const std::basic_string<char, std::char_traits<char>, std::allocator<char> >, std::basic_string<char, std::char_traits<char>, std::allocator<char> > >, std::_Select1st<std::pair<const std::basic_string<char, std::char_traits<char>, std::allocator<char> >, std::basic_string<char, std::char_traits<char>, std::allocator<char> > > >, std::less<std::basic_string<char, std::char_traits<char>, std::allocator<char> > >, std::allocator<std::pair<const std::basic_string<char, std::char_traits<char>, std::allocator<char> >, std::basic_string<char, std::char_traits<char>, std::allocator<char> > > > >::_M_begin
FUNC f15c 1a 0 std::_Vector_base<short unsigned int, std::allocator<short unsigned int> >::_Vector_impl::~_Vector_impl
FUNC f176 1a 0 std::_Vector_base<short unsigned int, std::allocator<short unsigned int> >::_Vector_base
FUNC f190 7c 0 std::_Vector_base<short unsigned int, std::allocator<short unsigned int> >::~_Vector_base
FUNC f20c e 0 std::_Vector_base<short unsigned int, std::allocator<short unsigned int> >::_M_get_Tp_allocator
FUNC f21a 29 0 std::_Destroy<short unsigned int*, short unsigned int>
FUNC f244 1a 0 std::_Vector_base<std::basic_string<char, std::char_traits<char>, std::allocator<char> >, std::allocator<std::basic_string<char, std::char_traits<char>, std::allocator<char> > > >::_Vector_impl::~_Vector_impl
FUNC f25e 1a 0 std::_Vector_base<std::basic_string<char, std::char_traits<char>, std::allocator<char> >, std::allocator<std::basic_string<char, std::char_traits<char>, std::allocator<char> > > >::_Vector_base
FUNC f278 7d 0 std::_Vector_base<std::basic_string<char, std::char_traits<char>, std::allocator<char> >, std::allocator<std::basic_string<char, std::char_traits<char>, std::allocator<char> > > >::~_Vector_base
FUNC f2f6 e 0 std::_Vector_base<std::basic_string<char, std::char_traits<char>, std::allocator<char> >, std::allocator<std::basic_string<char, std::char_traits<char>, std::allocator<char> > > >::_M_get_Tp_allocator
FUNC f304 29 0 std::_Destroy<std::basic_string<char, std::char_traits<char>, std::allocator<char> >*, std::basic_string<char, std::char_traits<char>, std::allocator<char> > >
FUNC f32e 44 0 std::vector<short unsigned int, std::allocator<short unsigned int> >::_M_erase_at_end
FUNC f372 44 0 std::vector<std::basic_string<char, std::char_traits<char>, std::allocator<char> >, std::allocator<std::basic_string<char, std::char_traits<char>, std::allocator<char> > > >::_M_erase_at_end
FUNC f3b6 8d 0 std::_Rb_tree<std::basic_string<char, std::char_traits<char>, std::allocator<char> >, std::pair<const std::basic_string<char, std::char_traits<char>, std::allocator<char> >, std::basic_string<char, std::char_traits<char>, std::allocator<char> > >, std::_Select1st<std::pair<const std::basic_string<char, std::char_traits<char>, std::allocator<char> >, std::basic_string<char, std::char_traits<char>, std::allocator<char> > > >, std::less<std::basic_string<char, std::char_traits<char>, std::allocator<char> > >, std::allocator<std::pair<const std::basic_string<char, std::char_traits<char>, std::allocator<char> >, std::basic_string<char, std::char_traits<char>, std::allocator<char> > > > >::clear
FUNC f444 25 0 std::map<std::basic_string<char, std::char_traits<char>, std::allocator<char> >, std::basic_string<char, std::char_traits<char>, std::allocator<char> >, std::less<std::basic_string<char, std::char_traits<char>, std::allocator<char> > >, std::allocator<std::pair<const std::basic_string<char, std::char_traits<char>, std::allocator<char> >, std::basic_string<char, std::char_traits<char>, std::allocator<char> > > > >::lower_bound
FUNC f46a 1a 0 std::map<std::basic_string<char, std::char_traits<char>, std::allocator<char> >, std::basic_string<char, std::char_traits<char>, std::allocator<char> >, std::less<std::basic_string<char, std::char_traits<char>, std::allocator<char> > >, std::allocator<std::pair<const std::basic_string<char, std::char_traits<char>, std::allocator<char> >, std::basic_string<char, std::char_traits<char>, std::allocator<char> > > > >::key_comp
FUNC f484 15 0 std::_Rb_tree_iterator<std::pair<const std::basic_string<char, std::char_traits<char>, std::allocator<char> >, std::basic_string<char, std::char_traits<char>, std::allocator<char> > > >::operator*
FUNC f49a 29 0 std::less<std::basic_string<char, std::char_traits<char>, std::allocator<char> > >::operator()
FUNC f4c4 22 0 std::_Rb_tree_iterator<std::pair<const std::basic_string<char, std::char_traits<char>, std::allocator<char> >, std::basic_string<char, std::char_traits<char>, std::allocator<char> > > >::operator==
FUNC f4e6 6b 0 std::pair<const std::basic_string<char, std::char_traits<char>, std::allocator<char> >, std::basic_string<char, std::char_traits<char>, std::allocator<char> > >::pair
FUNC f552 40 0 std::map<std::basic_string<char, std::char_traits<char>, std::allocator<char> >, std::basic_string<char, std::char_traits<char>, std::allocator<char> >, std::less<std::basic_string<char, std::char_traits<char>, std::allocator<char> > >, std::allocator<std::pair<const std::basic_string<char, std::char_traits<char>, std::allocator<char> >, std::basic_string<char, std::char_traits<char>, std::allocator<char> > > > >::insert
FUNC f592 b6 0 std::_Rb_tree<std::basic_string<char, std::char_traits<char>, std::allocator<char> >, std::pair<const std::basic_string<char, std::char_traits<char>, std::allocator<char> >, std::basic_string<char, std::char_traits<char>, std::allocator<char> > >, std::_Select1st<std::pair<const std::basic_string<char, std::char_traits<char>, std::allocator<char> >, std::basic_string<char, std::char_traits<char>, std::allocator<char> > > >, std::less<std::basic_string<char, std::char_traits<char>, std::allocator<char> > >, std::allocator<std::pair<const std::basic_string<char, std::char_traits<char>, std::allocator<char> >, std::basic_string<char, std::char_traits<char>, std::allocator<char> > > > >::find
FUNC f648 2c 0 std::_Rb_tree<std::basic_string<char, std::char_traits<char>, std::allocator<char> >, std::pair<const std::basic_string<char, std::char_traits<char>, std::allocator<char> >, std::basic_string<char, std::char_traits<char>, std::allocator<char> > >, std::_Select1st<std::pair<const std::basic_string<char, std::char_traits<char>, std::allocator<char> >, std::basic_string<char, std::char_traits<char>, std::allocator<char> > > >, std::less<std::basic_string<char, std::char_traits<char>, std::allocator<char> > >, std::allocator<std::pair<const std::basic_string<char, std::char_traits<char>, std::allocator<char> >, std::basic_string<char, std::char_traits<char>, std::allocator<char> > > > >::end
FUNC f674 1c 0 __gnu_cxx::__normal_iterator<std::basic_string<char, std::char_traits<char>, std::allocator<char> >*, std::vector<std::basic_string<char, std::char_traits<char>, std::allocator<char> >, std::allocator<std::basic_string<char, std::char_traits<char>, std::allocator<char> > > > >::__normal_iterator
FUNC f690 e 0 __gnu_cxx::__normal_iterator<std::basic_string<char, std::char_traits<char>, std::allocator<char> >*, std::vector<std::basic_string<char, std::char_traits<char>, std::allocator<char> >, std::allocator<std::basic_string<char, std::char_traits<char>, std::allocator<char> > > > >::base
FUNC f69e e 0 __gnu_cxx::__normal_iterator<const std::basic_string<char, std::char_traits<char>, std::allocator<char> >*, std::vector<std::basic_string<char, std::char_traits<char>, std::allocator<char> >, std::allocator<std::basic_string<char, std::char_traits<char>, std::allocator<char> > > > >::base
FUNC f6ac 39 0 __gnu_cxx::new_allocator<short unsigned int>::construct
FUNC f6e6 2e5 0 std::vector<short unsigned int, std::allocator<short unsigned int> >::_M_insert_aux
FUNC f9cc 29 0 std::vector<short unsigned int, std::allocator<short unsigned int> >::end
FUNC f9f6 31 0 std::vector<short unsigned int, std::allocator<short unsigned int> >::end
FUNC fa28 30 0 std::vector<short unsigned int, std::allocator<short unsigned int> >::begin
FUNC fa58 3c 0 __gnu_cxx::operator==<const short unsigned int*, std::vector<short unsigned int, std::allocator<short unsigned int> > >
FUNC fa94 29 0 std::vector<std::basic_string<char, std::char_traits<char>, std::allocator<char> >, std::allocator<std::basic_string<char, std::char_traits<char>, std::allocator<char> > > >::capacity
FUNC fabe 30 0 std::vector<std::basic_string<char, std::char_traits<char>, std::allocator<char> >, std::allocator<std::basic_string<char, std::char_traits<char>, std::allocator<char> > > >::begin
FUNC faee 31 0 std::vector<std::basic_string<char, std::char_traits<char>, std::allocator<char> >, std::allocator<std::basic_string<char, std::char_traits<char>, std::allocator<char> > > >::end
FUNC fb20 a1 0 std::vector<std::basic_string<char, std::char_traits<char>, std::allocator<char> >, std::allocator<std::basic_string<char, std::char_traits<char>, std::allocator<char> > > >::_M_allocate_and_copy<__gnu_cxx::__normal_iterator<const std::basic_string<char, std::char_traits<char>, std::allocator<char> >*, std::vector<std::basic_string<char, std::char_traits<char>, std::allocator<char> >, std::allocator<std::basic_string<char, std::char_traits<char>, std::allocator<char> > > > > >
FUNC fbc2 34 0 std::_Vector_base<std::basic_string<char, std::char_traits<char>, std::allocator<char> >, std::allocator<std::basic_string<char, std::char_traits<char>, std::allocator<char> > > >::_M_deallocate
FUNC fbf6 46 0 std::copy<__gnu_cxx::__normal_iterator<const std::basic_string<char, std::char_traits<char>, std::allocator<char> >*, std::vector<std::basic_string<char, std::char_traits<char>, std::allocator<char> >, std::allocator<std::basic_string<char, std::char_traits<char>, std::allocator<char> > > > >, __gnu_cxx::__normal_iterator<std::basic_string<char, std::char_traits<char>, std::allocator<char> >*, std::vector<std::basic_string<char, std::char_traits<char>, std::allocator<char> >, std::allocator<std::basic_string<char, std::char_traits<char>, std::allocator<char> > > > > >
FUNC fc3c 29 0 std::_Destroy<__gnu_cxx::__normal_iterator<std::basic_string<char, std::char_traits<char>, std::allocator<char> >*, std::vector<std::basic_string<char, std::char_traits<char>, std::allocator<char> >, std::allocator<std::basic_string<char, std::char_traits<char>, std::allocator<char> > > > >, std::basic_string<char, std::char_traits<char>, std::allocator<char> > >
FUNC fc65 46 0 std::copy<std::basic_string<char, std::char_traits<char>, std::allocator<char> >*, std::basic_string<char, std::char_traits<char>, std::allocator<char> >*>
FUNC fcab 31 0 std::__uninitialized_copy_a<std::basic_string<char, std::char_traits<char>, std::allocator<char> >*, std::basic_string<char, std::char_traits<char>, std::allocator<char> >*, std::basic_string<char, std::char_traits<char>, std::allocator<char> > >
FUNC fcdc 77 0 __gnu_cxx::new_allocator<std::basic_string<char, std::char_traits<char>, std::allocator<char> > >::construct
FUNC fd54 326 0 std::vector<std::basic_string<char, std::char_traits<char>, std::allocator<char> >, std::allocator<std::basic_string<char, std::char_traits<char>, std::allocator<char> > > >::_M_insert_aux
FUNC 1007a e 0 std::_Vector_base<std::basic_string<char, std::char_traits<char>, std::allocator<char> >, std::allocator<std::basic_string<char, std::char_traits<char>, std::allocator<char> > > >::_M_get_Tp_allocator
FUNC 10088 31 0 std::__uninitialized_copy_a<__gnu_cxx::__normal_iterator<const std::basic_string<char, std::char_traits<char>, std::allocator<char> >*, std::vector<std::basic_string<char, std::char_traits<char>, std::allocator<char> >, std::allocator<std::basic_string<char, std::char_traits<char>, std::allocator<char> > > > >, std::basic_string<char, std::char_traits<char>, std::allocator<char> >*, std::basic_string<char, std::char_traits<char>, std::allocator<char> > >
FUNC 100ba 12 0 std::_Rb_tree<std::basic_string<char, std::char_traits<char>, std::allocator<char> >, std::pair<const std::basic_string<char, std::char_traits<char>, std::allocator<char> >, std::basic_string<char, std::char_traits<char>, std::allocator<char> > >, std::_Select1st<std::pair<const std::basic_string<char, std::char_traits<char>, std::allocator<char> >, std::basic_string<char, std::char_traits<char>, std::allocator<char> > > >, std::less<std::basic_string<char, std::char_traits<char>, std::allocator<char> > >, std::allocator<std::pair<const std::basic_string<char, std::char_traits<char>, std::allocator<char> >, std::basic_string<char, std::char_traits<char>, std::allocator<char> > > > >::_M_end
FUNC 100cc 12 0 std::_Rb_tree<std::basic_string<char, std::char_traits<char>, std::allocator<char> >, std::pair<const std::basic_string<char, std::char_traits<char>, std::allocator<char> >, std::basic_string<char, std::char_traits<char>, std::allocator<char> > >, std::_Select1st<std::pair<const std::basic_string<char, std::char_traits<char>, std::allocator<char> >, std::basic_string<char, std::char_traits<char>, std::allocator<char> > > >, std::less<std::basic_string<char, std::char_traits<char>, std::allocator<char> > >, std::allocator<std::pair<const std::basic_string<char, std::char_traits<char>, std::allocator<char> >, std::basic_string<char, std::char_traits<char>, std::allocator<char> > > > >::_M_root
FUNC 100de 12 0 std::_Rb_tree<std::basic_string<char, std::char_traits<char>, std::allocator<char> >, std::pair<const std::basic_string<char, std::char_traits<char>, std::allocator<char> >, std::basic_string<char, std::char_traits<char>, std::allocator<char> > >, std::_Select1st<std::pair<const std::basic_string<char, std::char_traits<char>, std::allocator<char> >, std::basic_string<char, std::char_traits<char>, std::allocator<char> > > >, std::less<std::basic_string<char, std::char_traits<char>, std::allocator<char> > >, std::allocator<std::pair<const std::basic_string<char, std::char_traits<char>, std::allocator<char> >, std::basic_string<char, std::char_traits<char>, std::allocator<char> > > > >::_M_leftmost
FUNC 100f0 12 0 std::_Rb_tree<std::basic_string<char, std::char_traits<char>, std::allocator<char> >, std::pair<const std::basic_string<char, std::char_traits<char>, std::allocator<char> >, std::basic_string<char, std::char_traits<char>, std::allocator<char> > >, std::_Select1st<std::pair<const std::basic_string<char, std::char_traits<char>, std::allocator<char> >, std::basic_string<char, std::char_traits<char>, std::allocator<char> > > >, std::less<std::basic_string<char, std::char_traits<char>, std::allocator<char> > >, std::allocator<std::pair<const std::basic_string<char, std::char_traits<char>, std::allocator<char> >, std::basic_string<char, std::char_traits<char>, std::allocator<char> > > > >::_M_rightmost
FUNC 10102 8c 0 std::_Rb_tree<std::basic_string<char, std::char_traits<char>, std::allocator<char> >, std::pair<const std::basic_string<char, std::char_traits<char>, std::allocator<char> >, std::basic_string<char, std::char_traits<char>, std::allocator<char> > >, std::_Select1st<std::pair<const std::basic_string<char, std::char_traits<char>, std::allocator<char> >, std::basic_string<char, std::char_traits<char>, std::allocator<char> > > >, std::less<std::basic_string<char, std::char_traits<char>, std::allocator<char> > >, std::allocator<std::pair<const std::basic_string<char, std::char_traits<char>, std::allocator<char> >, std::basic_string<char, std::char_traits<char>, std::allocator<char> > > > >::_Rb_tree_impl<std::less<std::basic_string<char, std::char_traits<char>, std::allocator<char> > >, false>::_Rb_tree_impl
FUNC 1018e a 0 __gnu_cxx::new_allocator<std::_Rb_tree_node<std::pair<const std::basic_string<char, std::char_traits<char>, std::allocator<char> >, std::basic_string<char, std::char_traits<char>, std::allocator<char> > > > >::~new_allocator
FUNC 10198 12 0 std::_Rb_tree<std::basic_string<char, std::char_traits<char>, std::allocator<char> >, std::pair<const std::basic_string<char, std::char_traits<char>, std::allocator<char> >, std::basic_string<char, std::char_traits<char>, std::allocator<char> > >, std::_Select1st<std::pair<const std::basic_string<char, std::char_traits<char>, std::allocator<char> >, std::basic_string<char, std::char_traits<char>, std::allocator<char> > > >, std::less<std::basic_string<char, std::char_traits<char>, std::allocator<char> > >, std::allocator<std::pair<const std::basic_string<char, std::char_traits<char>, std::allocator<char> >, std::basic_string<char, std::char_traits<char>, std::allocator<char> > > > >::_S_right
FUNC 101aa 12 0 std::_Rb_tree<std::basic_string<char, std::char_traits<char>, std::allocator<char> >, std::pair<const std::basic_string<char, std::char_traits<char>, std::allocator<char> >, std::basic_string<char, std::char_traits<char>, std::allocator<char> > >, std::_Select1st<std::pair<const std::basic_string<char, std::char_traits<char>, std::allocator<char> >, std::basic_string<char, std::char_traits<char>, std::allocator<char> > > >, std::less<std::basic_string<char, std::char_traits<char>, std::allocator<char> > >, std::allocator<std::pair<const std::basic_string<char, std::char_traits<char>, std::allocator<char> >, std::basic_string<char, std::char_traits<char>, std::allocator<char> > > > >::_S_left
FUNC 101bc 86 0 std::_Rb_tree<std::basic_string<char, std::char_traits<char>, std::allocator<char> >, std::pair<const std::basic_string<char, std::char_traits<char>, std::allocator<char> >, std::basic_string<char, std::char_traits<char>, std::allocator<char> > >, std::_Select1st<std::pair<const std::basic_string<char, std::char_traits<char>, std::allocator<char> >, std::basic_string<char, std::char_traits<char>, std::allocator<char> > > >, std::less<std::basic_string<char, std::char_traits<char>, std::allocator<char> > >, std::allocator<std::pair<const std::basic_string<char, std::char_traits<char>, std::allocator<char> >, std::basic_string<char, std::char_traits<char>, std::allocator<char> > > > >::_M_destroy_node
FUNC 10242 3d 0 std::_Vector_base<short unsigned int, std::allocator<short unsigned int> >::_Vector_impl::_Vector_impl
FUNC 10280 1a 0 std::allocator<short unsigned int>::~allocator
FUNC 1029a 34 0 std::_Vector_base<short unsigned int, std::allocator<short unsigned int> >::_M_deallocate
FUNC 102ce 25 0 std::_Destroy<short unsigned int*>
FUNC 102f4 3d 0 std::_Vector_base<std::basic_string<char, std::char_traits<char>, std::allocator<char> >, std::allocator<std::basic_string<char, std::char_traits<char>, std::allocator<char> > > >::_Vector_impl::_Vector_impl
FUNC 10332 1a 0 std::allocator<std::basic_string<char, std::char_traits<char>, std::allocator<char> > >::~allocator
FUNC 1034c 25 0 std::_Destroy<std::basic_string<char, std::char_traits<char>, std::allocator<char> >*>
FUNC 10372 53 0 std::_Rb_tree<std::basic_string<char, std::char_traits<char>, std::allocator<char> >, std::pair<const std::basic_string<char, std::char_traits<char>, std::allocator<char> >, std::basic_string<char, std::char_traits<char>, std::allocator<char> > >, std::_Select1st<std::pair<const std::basic_string<char, std::char_traits<char>, std::allocator<char> >, std::basic_string<char, std::char_traits<char>, std::allocator<char> > > >, std::less<std::basic_string<char, std::char_traits<char>, std::allocator<char> > >, std::allocator<std::pair<const std::basic_string<char, std::char_traits<char>, std::allocator<char> >, std::basic_string<char, std::char_traits<char>, std::allocator<char> > > > >::lower_bound
FUNC 103c6 a 0 std::_Rb_tree<std::basic_string<char, std::char_traits<char>, std::allocator<char> >, std::pair<const std::basic_string<char, std::char_traits<char>, std::allocator<char> >, std::basic_string<char, std::char_traits<char>, std::allocator<char> > >, std::_Select1st<std::pair<const std::basic_string<char, std::char_traits<char>, std::allocator<char> >, std::basic_string<char, std::char_traits<char>, std::allocator<char> > > >, std::less<std::basic_string<char, std::char_traits<char>, std::allocator<char> > >, std::allocator<std::pair<const std::basic_string<char, std::char_traits<char>, std::allocator<char> >, std::basic_string<char, std::char_traits<char>, std::allocator<char> > > > >::key_comp
FUNC 103d0 28 0 std::operator< <char, std::char_traits<char>, std::allocator<char> >
FUNC 103f8 4c0 0 std::_Rb_tree<std::basic_string<char, std::char_traits<char>, std::allocator<char> >, std::pair<const std::basic_string<char, std::char_traits<char>, std::allocator<char> >, std::basic_string<char, std::char_traits<char>, std::allocator<char> > >, std::_Select1st<std::pair<const std::basic_string<char, std::char_traits<char>, std::allocator<char> >, std::basic_string<char, std::char_traits<char>, std::allocator<char> > > >, std::less<std::basic_string<char, std::char_traits<char>, std::allocator<char> > >, std::allocator<std::pair<const std::basic_string<char, std::char_traits<char>, std::allocator<char> >, std::basic_string<char, std::char_traits<char>, std::allocator<char> > > > >::_M_insert_unique_
FUNC 108b8 92 0 std::_Rb_tree<std::basic_string<char, std::char_traits<char>, std::allocator<char> >, std::pair<const std::basic_string<char, std::char_traits<char>, std::allocator<char> >, std::basic_string<char, std::char_traits<char>, std::allocator<char> > >, std::_Select1st<std::pair<const std::basic_string<char, std::char_traits<char>, std::allocator<char> >, std::basic_string<char, std::char_traits<char>, std::allocator<char> > > >, std::less<std::basic_string<char, std::char_traits<char>, std::allocator<char> > >, std::allocator<std::pair<const std::basic_string<char, std::char_traits<char>, std::allocator<char> >, std::basic_string<char, std::char_traits<char>, std::allocator<char> > > > >::_M_lower_bound
FUNC 1094a 2c 0 std::_Rb_tree<std::basic_string<char, std::char_traits<char>, std::allocator<char> >, std::pair<const std::basic_string<char, std::char_traits<char>, std::allocator<char> >, std::basic_string<char, std::char_traits<char>, std::allocator<char> > >, std::_Select1st<std::pair<const std::basic_string<char, std::char_traits<char>, std::allocator<char> >, std::basic_string<char, std::char_traits<char>, std::allocator<char> > > >, std::less<std::basic_string<char, std::char_traits<char>, std::allocator<char> > >, std::allocator<std::pair<const std::basic_string<char, std::char_traits<char>, std::allocator<char> >, std::basic_string<char, std::char_traits<char>, std::allocator<char> > > > >::_S_key
FUNC 10976 19 0 std::_Rb_tree_iterator<std::pair<const std::basic_string<char, std::char_traits<char>, std::allocator<char> >, std::basic_string<char, std::char_traits<char>, std::allocator<char> > > >::_Rb_tree_iterator
FUNC 10990 e 0 __gnu_cxx::__normal_iterator<short unsigned int*, std::vector<short unsigned int, std::allocator<short unsigned int> > >::base
FUNC 1099e 46 0 std::copy_backward<short unsigned int*, short unsigned int*>
FUNC 109e4 11 0 __gnu_cxx::__normal_iterator<short unsigned int*, std::vector<short unsigned int, std::allocator<short unsigned int> > >::operator*
FUNC 109f6 ca 0 std::vector<short unsigned int, std::allocator<short unsigned int> >::_M_check_len
FUNC 10ac0 25 0 std::vector<short unsigned int, std::allocator<short unsigned int> >::begin
FUNC 10ae5 45 0 __gnu_cxx::operator-<short unsigned int*, std::vector<short unsigned int, std::allocator<short unsigned int> > >
FUNC 10b2a 38 0 std::_Vector_base<short unsigned int, std::allocator<short unsigned int> >::_M_allocate
FUNC 10b62 3b 0 std::__uninitialized_move_a<short unsigned int*, short unsigned int*, std::allocator<short unsigned int> >
FUNC 10b9e e 0 __gnu_cxx::new_allocator<short unsigned int>::destroy
FUNC 10bac 1c 0 __gnu_cxx::__normal_iterator<short unsigned int*, std::vector<short unsigned int, std::allocator<short unsigned int> > >::__normal_iterator
FUNC 10bc8 1c 0 __gnu_cxx::__normal_iterator<const short unsigned int*, std::vector<short unsigned int, std::allocator<short unsigned int> > >::__normal_iterator
FUNC 10be4 e 0 __gnu_cxx::__normal_iterator<const short unsigned int*, std::vector<short unsigned int, std::allocator<short unsigned int> > >::base
FUNC 10bf2 1c 0 __gnu_cxx::__normal_iterator<const std::basic_string<char, std::char_traits<char>, std::allocator<char> >*, std::vector<std::basic_string<char, std::char_traits<char>, std::allocator<char> >, std::allocator<std::basic_string<char, std::char_traits<char>, std::allocator<char> > > > >::__normal_iterator
FUNC 10c0e 38 0 std::_Vector_base<std::basic_string<char, std::char_traits<char>, std::allocator<char> >, std::allocator<std::basic_string<char, std::char_traits<char>, std::allocator<char> > > >::_M_allocate
FUNC 10c46 22 0 __gnu_cxx::new_allocator<std::basic_string<char, std::char_traits<char>, std::allocator<char> > >::deallocate
FUNC 10c68 e 0 std::__miter_base<__gnu_cxx::__normal_iterator<const std::basic_string<char, std::char_traits<char>, std::allocator<char> >*, std::vector<std::basic_string<char, std::char_traits<char>, std::allocator<char> >, std::allocator<std::basic_string<char, std::char_traits<char>, std::allocator<char> > > > >, false>::__b
FUNC 10c76 73 0 std::__copy_move_a2<false, __gnu_cxx::__normal_iterator<const std::basic_string<char, std::char_traits<char>, std::allocator<char> >*, std::vector<std::basic_string<char, std::char_traits<char>, std::allocator<char> >, std::allocator<std::basic_string<char, std::char_traits<char>, std::allocator<char> > > > >, __gnu_cxx::__normal_iterator<std::basic_string<char, std::char_traits<char>, std::allocator<char> >*, std::vector<std::basic_string<char, std::char_traits<char>, std::allocator<char> >, std::allocator<std::basic_string<char, std::char_traits<char>, std::allocator<char> > > > > >
FUNC 10ce9 25 0 std::_Destroy<__gnu_cxx::__normal_iterator<std::basic_string<char, std::char_traits<char>, std::allocator<char> >*, std::vector<std::basic_string<char, std::char_traits<char>, std::allocator<char> >, std::allocator<std::basic_string<char, std::char_traits<char>, std::allocator<char> > > > > >
FUNC 10d0e e 0 std::__miter_base<std::basic_string<char, std::char_traits<char>, std::allocator<char> >*, false>::__b
FUNC 10d1c 58 0 std::__copy_move_a2<false, std::basic_string<char, std::char_traits<char>, std::allocator<char> >*, std::basic_string<char, std::char_traits<char>, std::allocator<char> >*>
FUNC 10d74 2d 0 std::uninitialized_copy<std::basic_string<char, std::char_traits<char>, std::allocator<char> >*, std::basic_string<char, std::char_traits<char>, std::allocator<char> >*>
FUNC 10da1 46 0 std::copy_backward<std::basic_string<char, std::char_traits<char>, std::allocator<char> >*, std::basic_string<char, std::char_traits<char>, std::allocator<char> >*>
FUNC 10de8 11 0 __gnu_cxx::__normal_iterator<std::basic_string<char, std::char_traits<char>, std::allocator<char> >*, std::vector<std::basic_string<char, std::char_traits<char>, std::allocator<char> >, std::allocator<std::basic_string<char, std::char_traits<char>, std::allocator<char> > > > >::operator*
FUNC 10dfa ca 0 std::vector<std::basic_string<char, std::char_traits<char>, std::allocator<char> >, std::allocator<std::basic_string<char, std::char_traits<char>, std::allocator<char> > > >::_M_check_len
FUNC 10ec4 46 0 __gnu_cxx::operator-<std::basic_string<char, std::char_traits<char>, std::allocator<char> >*, std::vector<std::basic_string<char, std::char_traits<char>, std::allocator<char> >, std::allocator<std::basic_string<char, std::char_traits<char>, std::allocator<char> > > > >
FUNC 10f0a 3b 0 std::__uninitialized_move_a<std::basic_string<char, std::char_traits<char>, std::allocator<char> >*, std::basic_string<char, std::char_traits<char>, std::allocator<char> >*, std::allocator<std::basic_string<char, std::char_traits<char>, std::allocator<char> > > >
FUNC 10f46 1e 0 __gnu_cxx::new_allocator<std::basic_string<char, std::char_traits<char>, std::allocator<char> > >::destroy
FUNC 10f64 2d 0 std::uninitialized_copy<__gnu_cxx::__normal_iterator<const std::basic_string<char, std::char_traits<char>, std::allocator<char> >*, std::vector<std::basic_string<char, std::char_traits<char>, std::allocator<char> >, std::allocator<std::basic_string<char, std::char_traits<char>, std::allocator<char> > > > >, std::basic_string<char, std::char_traits<char>, std::allocator<char> >*>
FUNC 10f91 12 0 std::_Rb_tree<std::basic_string<char, std::char_traits<char>, std::allocator<char> >, std::pair<const std::basic_string<char, std::char_traits<char>, std::allocator<char> >, std::basic_string<char, std::char_traits<char>, std::allocator<char> > >, std::_Select1st<std::pair<const std::basic_string<char, std::char_traits<char>, std::allocator<char> >, std::basic_string<char, std::char_traits<char>, std::allocator<char> > > >, std::less<std::basic_string<char, std::char_traits<char>, std::allocator<char> > >, std::allocator<std::pair<const std::basic_string<char, std::char_traits<char>, std::allocator<char> >, std::basic_string<char, std::char_traits<char>, std::allocator<char> > > > >::_S_right
FUNC 10fa4 1a 0 std::allocator<std::_Rb_tree_node<std::pair<const std::basic_string<char, std::char_traits<char>, std::allocator<char> >, std::basic_string<char, std::char_traits<char>, std::allocator<char> > > > >::allocator
FUNC 10fbe 41 0 std::_Rb_tree<std::basic_string<char, std::char_traits<char>, std::allocator<char> >, std::pair<const std::basic_string<char, std::char_traits<char>, std::allocator<char> >, std::basic_string<char, std::char_traits<char>, std::allocator<char> > >, std::_Select1st<std::pair<const std::basic_string<char, std::char_traits<char>, std::allocator<char> >, std::basic_string<char, std::char_traits<char>, std::allocator<char> > > >, std::less<std::basic_string<char, std::char_traits<char>, std::allocator<char> > >, std::allocator<std::pair<const std::basic_string<char, std::char_traits<char>, std::allocator<char> >, std::basic_string<char, std::char_traits<char>, std::allocator<char> > > > >::_Rb_tree_impl<std::less<std::basic_string<char, std::char_traits<char>, std::allocator<char> > >, false>::_M_initialize
FUNC 11000 3b 0 std::_Rb_tree<std::basic_string<char, std::char_traits<char>, std::allocator<char> >, std::pair<const std::basic_string<char, std::char_traits<char>, std::allocator<char> >, std::basic_string<char, std::char_traits<char>, std::allocator<char> > >, std::_Select1st<std::pair<const std::basic_string<char, std::char_traits<char>, std::allocator<char> >, std::basic_string<char, std::char_traits<char>, std::allocator<char> > > >, std::less<std::basic_string<char, std::char_traits<char>, std::allocator<char> > >, std::allocator<std::pair<const std::basic_string<char, std::char_traits<char>, std::allocator<char> >, std::basic_string<char, std::char_traits<char>, std::allocator<char> > > > >::get_allocator
FUNC 1103c 1a 0 std::allocator<std::pair<const std::basic_string<char, std::char_traits<char>, std::allocator<char> >, std::basic_string<char, std::char_traits<char>, std::allocator<char> > > >::~allocator
FUNC 11056 1e 0 __gnu_cxx::new_allocator<std::pair<const std::basic_string<char, std::char_traits<char>, std::allocator<char> >, std::basic_string<char, std::char_traits<char>, std::allocator<char> > > >::destroy
FUNC 11074 2a 0 std::_Rb_tree<std::basic_string<char, std::char_traits<char>, std::allocator<char> >, std::pair<const std::basic_string<char, std::char_traits<char>, std::allocator<char> >, std::basic_string<char, std::char_traits<char>, std::allocator<char> > >, std::_Select1st<std::pair<const std::basic_string<char, std::char_traits<char>, std::allocator<char> >, std::basic_string<char, std::char_traits<char>, std::allocator<char> > > >, std::less<std::basic_string<char, std::char_traits<char>, std::allocator<char> > >, std::allocator<std::pair<const std::basic_string<char, std::char_traits<char>, std::allocator<char> >, std::basic_string<char, std::char_traits<char>, std::allocator<char> > > > >::_M_put_node
FUNC 1109e 1a 0 std::allocator<short unsigned int>::allocator
FUNC 110b8 a 0 __gnu_cxx::new_allocator<short unsigned int>::~new_allocator
FUNC 110c2 22 0 __gnu_cxx::new_allocator<short unsigned int>::deallocate
FUNC 110e4 e 0 std::_Destroy_aux<true>::__destroy<short unsigned int*>
FUNC 110f2 1a 0 std::allocator<std::basic_string<char, std::char_traits<char>, std::allocator<char> > >::allocator
FUNC 1110c a 0 __gnu_cxx::new_allocator<std::basic_string<char, std::char_traits<char>, std::allocator<char> > >::~new_allocator
FUNC 11116 34 0 std::_Destroy_aux<false>::__destroy<std::basic_string<char, std::char_traits<char>, std::allocator<char> >*>
FUNC 1114a 12 0 std::_Select1st<std::pair<const std::basic_string<char, std::char_traits<char>, std::allocator<char> >, std::basic_string<char, std::char_traits<char>, std::allocator<char> > > >::operator()
FUNC 1115c 12 0 std::_Rb_tree<std::basic_string<char, std::char_traits<char>, std::allocator<char> >, std::pair<const std::basic_string<char, std::char_traits<char>, std::allocator<char> >, std::basic_string<char, std::char_traits<char>, std::allocator<char> > >, std::_Select1st<std::pair<const std::basic_string<char, std::char_traits<char>, std::allocator<char> >, std::basic_string<char, std::char_traits<char>, std::allocator<char> > > >, std::less<std::basic_string<char, std::char_traits<char>, std::allocator<char> > >, std::allocator<std::pair<const std::basic_string<char, std::char_traits<char>, std::allocator<char> >, std::basic_string<char, std::char_traits<char>, std::allocator<char> > > > >::size
FUNC 1116e e3 0 std::_Rb_tree<std::basic_string<char, std::char_traits<char>, std::allocator<char> >, std::pair<const std::basic_string<char, std::char_traits<char>, std::allocator<char> >, std::basic_string<char, std::char_traits<char>, std::allocator<char> > >, std::_Select1st<std::pair<const std::basic_string<char, std::char_traits<char>, std::allocator<char> >, std::basic_string<char, std::char_traits<char>, std::allocator<char> > > >, std::less<std::basic_string<char, std::char_traits<char>, std::allocator<char> > >, std::allocator<std::pair<const std::basic_string<char, std::char_traits<char>, std::allocator<char> >, std::basic_string<char, std::char_traits<char>, std::allocator<char> > > > >::_M_insert_
FUNC 11252 271 0 std::_Rb_tree<std::basic_string<char, std::char_traits<char>, std::allocator<char> >, std::pair<const std::basic_string<char, std::char_traits<char>, std::allocator<char> >, std::basic_string<char, std::char_traits<char>, std::allocator<char> > >, std::_Select1st<std::pair<const std::basic_string<char, std::char_traits<char>, std::allocator<char> >, std::basic_string<char, std::char_traits<char>, std::allocator<char> > > >, std::less<std::basic_string<char, std::char_traits<char>, std::allocator<char> > >, std::allocator<std::pair<const std::basic_string<char, std::char_traits<char>, std::allocator<char> >, std::basic_string<char, std::char_traits<char>, std::allocator<char> > > > >::_M_insert_unique
FUNC 114c4 28 0 std::_Rb_tree_const_iterator<std::pair<const std::basic_string<char, std::char_traits<char>, std::allocator<char> >, std::basic_string<char, std::char_traits<char>, std::allocator<char> > > >::operator--
FUNC 114ec 28 0 std::_Rb_tree_const_iterator<std::pair<const std::basic_string<char, std::char_traits<char>, std::allocator<char> >, std::basic_string<char, std::char_traits<char>, std::allocator<char> > > >::operator++
FUNC 11514 2c 0 std::_Rb_tree<std::basic_string<char, std::char_traits<char>, std::allocator<char> >, std::pair<const std::basic_string<char, std::char_traits<char>, std::allocator<char> >, std::basic_string<char, std::char_traits<char>, std::allocator<char> > >, std::_Select1st<std::pair<const std::basic_string<char, std::char_traits<char>, std::allocator<char> >, std::basic_string<char, std::char_traits<char>, std::allocator<char> > > >, std::less<std::basic_string<char, std::char_traits<char>, std::allocator<char> > >, std::allocator<std::pair<const std::basic_string<char, std::char_traits<char>, std::allocator<char> >, std::basic_string<char, std::char_traits<char>, std::allocator<char> > > > >::_S_key
FUNC 11540 12 0 std::_Rb_tree<std::basic_string<char, std::char_traits<char>, std::allocator<char> >, std::pair<const std::basic_string<char, std::char_traits<char>, std::allocator<char> >, std::basic_string<char, std::char_traits<char>, std::allocator<char> > >, std::_Select1st<std::pair<const std::basic_string<char, std::char_traits<char>, std::allocator<char> >, std::basic_string<char, std::char_traits<char>, std::allocator<char> > > >, std::less<std::basic_string<char, std::char_traits<char>, std::allocator<char> > >, std::allocator<std::pair<const std::basic_string<char, std::char_traits<char>, std::allocator<char> >, std::basic_string<char, std::char_traits<char>, std::allocator<char> > > > >::_S_value
FUNC 11552 e 0 std::__miter_base<short unsigned int*, false>::__b
FUNC 11560 58 0 std::__copy_move_backward_a2<false, short unsigned int*, short unsigned int*>
FUNC 115b8 28 0 std::vector<short unsigned int, std::allocator<short unsigned int> >::size
FUNC 115e0 22 0 std::vector<short unsigned int, std::allocator<short unsigned int> >::max_size
FUNC 11602 2b 0 std::max<size_t>
FUNC 1162e 4a 0 __gnu_cxx::new_allocator<short unsigned int>::allocate
FUNC 11678 31 0 std::__uninitialized_copy_a<short unsigned int*, short unsigned int*, short unsigned int>
FUNC 116aa 4b 0 __gnu_cxx::new_allocator<std::basic_string<char, std::char_traits<char>, std::allocator<char> > >::allocate
FUNC 116f5 1d 0 std::__niter_base<__gnu_cxx::__normal_iterator<const std::basic_string<char, std::char_traits<char>, std::allocator<char> >*, std::vector<std::basic_string<char, std::char_traits<char>, std::allocator<char> >, std::allocator<std::basic_string<char, std::char_traits<char>, std::allocator<char> > > > >, true>::__b
FUNC 11712 1d 0 std::__niter_base<__gnu_cxx::__normal_iterator<std::basic_string<char, std::char_traits<char>, std::allocator<char> >*, std::vector<std::basic_string<char, std::char_traits<char>, std::allocator<char> >, std::allocator<std::basic_string<char, std::char_traits<char>, std::allocator<char> > > > >, true>::__b
FUNC 1172f 31 0 std::__copy_move_a<false, const std::basic_string<char, std::char_traits<char>, std::allocator<char> >*, std::basic_string<char, std::char_traits<char>, std::allocator<char> >*>
FUNC 11760 4b 0 std::_Destroy_aux<false>::__destroy<__gnu_cxx::__normal_iterator<std::basic_string<char, std::char_traits<char>, std::allocator<char> >*, std::vector<std::basic_string<char, std::char_traits<char>, std::allocator<char> >, std::allocator<std::basic_string<char, std::char_traits<char>, std::allocator<char> > > > > >
FUNC 117ab e 0 std::__niter_base<std::basic_string<char, std::char_traits<char>, std::allocator<char> >*, false>::__b
FUNC 117b9 31 0 std::__copy_move_a<false, std::basic_string<char, std::char_traits<char>, std::allocator<char> >*, std::basic_string<char, std::char_traits<char>, std::allocator<char> >*>
FUNC 117ea 92 0 std::__uninitialized_copy<false>::uninitialized_copy<std::basic_string<char, std::char_traits<char>, std::allocator<char> >*, std::basic_string<char, std::char_traits<char>, std::allocator<char> >*>
FUNC 1187c 58 0 std::__copy_move_backward_a2<false, std::basic_string<char, std::char_traits<char>, std::allocator<char> >*, std::basic_string<char, std::char_traits<char>, std::allocator<char> >*>
FUNC 118d4 22 0 std::vector<std::basic_string<char, std::char_traits<char>, std::allocator<char> >, std::allocator<std::basic_string<char, std::char_traits<char>, std::allocator<char> > > >::max_size
FUNC 118f6 ac 0 std::__uninitialized_copy<false>::uninitialized_copy<__gnu_cxx::__normal_iterator<const std::basic_string<char, std::char_traits<char>, std::allocator<char> >*, std::vector<std::basic_string<char, std::char_traits<char>, std::allocator<char> >, std::allocator<std::basic_string<char, std::char_traits<char>, std::allocator<char> > > > >, std::basic_string<char, std::char_traits<char>, std::allocator<char> >*>
FUNC 119a2 bd 0 std::_Rb_tree<std::basic_string<char, std::char_traits<char>, std::allocator<char> >, std::pair<const std::basic_string<char, std::char_traits<char>, std::allocator<char> >, std::basic_string<char, std::char_traits<char>, std::allocator<char> > >, std::_Select1st<std::pair<const std::basic_string<char, std::char_traits<char>, std::allocator<char> >, std::basic_string<char, std::char_traits<char>, std::allocator<char> > > >, std::less<std::basic_string<char, std::char_traits<char>, std::allocator<char> > >, std::allocator<std::pair<const std::basic_string<char, std::char_traits<char>, std::allocator<char> >, std::basic_string<char, std::char_traits<char>, std::allocator<char> > > > >::_M_create_node
FUNC 11a60 a 0 __gnu_cxx::new_allocator<std::_Rb_tree_node<std::pair<const std::basic_string<char, std::char_traits<char>, std::allocator<char> >, std::basic_string<char, std::char_traits<char>, std::allocator<char> > > > >::new_allocator
FUNC 11a6a e 0 std::_Rb_tree<std::basic_string<char, std::char_traits<char>, std::allocator<char> >, std::pair<const std::basic_string<char, std::char_traits<char>, std::allocator<char> >, std::basic_string<char, std::char_traits<char>, std::allocator<char> > >, std::_Select1st<std::pair<const std::basic_string<char, std::char_traits<char>, std::allocator<char> >, std::basic_string<char, std::char_traits<char>, std::allocator<char> > > >, std::less<std::basic_string<char, std::char_traits<char>, std::allocator<char> > >, std::allocator<std::pair<const std::basic_string<char, std::char_traits<char>, std::allocator<char> >, std::basic_string<char, std::char_traits<char>, std::allocator<char> > > > >::_M_get_Node_allocator
FUNC 11a78 1e 0 std::allocator<std::pair<const std::basic_string<char, std::char_traits<char>, std::allocator<char> >, std::basic_string<char, std::char_traits<char>, std::allocator<char> > > >::allocator<std::_Rb_tree_node<std::pair<const std::basic_string<char, std::char_traits<char>, std::allocator<char> >, std::basic_string<char, std::char_traits<char>, std::allocator<char> > > > >
FUNC 11a96 a 0 __gnu_cxx::new_allocator<std::pair<const std::basic_string<char, std::char_traits<char>, std::allocator<char> >, std::basic_string<char, std::char_traits<char>, std::allocator<char> > > >::~new_allocator
FUNC 11aa0 22 0 __gnu_cxx::new_allocator<std::_Rb_tree_node<std::pair<const std::basic_string<char, std::char_traits<char>, std::allocator<char> >, std::basic_string<char, std::char_traits<char>, std::allocator<char> > > > >::deallocate
FUNC 11ac2 a 0 __gnu_cxx::new_allocator<short unsigned int>::new_allocator
FUNC 11acc a 0 __gnu_cxx::new_allocator<std::basic_string<char, std::char_traits<char>, std::allocator<char> > >::new_allocator
FUNC 11ad6 1a 0 std::_Destroy<std::basic_string<char, std::char_traits<char>, std::allocator<char> > >
FUNC 11af0 2c 0 std::_Rb_tree<std::basic_string<char, std::char_traits<char>, std::allocator<char> >, std::pair<const std::basic_string<char, std::char_traits<char>, std::allocator<char> >, std::basic_string<char, std::char_traits<char>, std::allocator<char> > >, std::_Select1st<std::pair<const std::basic_string<char, std::char_traits<char>, std::allocator<char> >, std::basic_string<char, std::char_traits<char>, std::allocator<char> > > >, std::less<std::basic_string<char, std::char_traits<char>, std::allocator<char> > >, std::allocator<std::pair<const std::basic_string<char, std::char_traits<char>, std::allocator<char> >, std::basic_string<char, std::char_traits<char>, std::allocator<char> > > > >::begin
FUNC 11b1c 2e 0 std::pair<std::_Rb_tree_iterator<std::pair<const std::basic_string<char, std::char_traits<char>, std::allocator<char> >, std::basic_string<char, std::char_traits<char>, std::allocator<char> > > >, bool>::pair
FUNC 11b4a 28 0 std::_Rb_tree_iterator<std::pair<const std::basic_string<char, std::char_traits<char>, std::allocator<char> >, std::basic_string<char, std::char_traits<char>, std::allocator<char> > > >::operator--
FUNC 11b72 12 0 std::_Rb_tree<std::basic_string<char, std::char_traits<char>, std::allocator<char> >, std::pair<const std::basic_string<char, std::char_traits<char>, std::allocator<char> >, std::basic_string<char, std::char_traits<char>, std::allocator<char> > >, std::_Select1st<std::pair<const std::basic_string<char, std::char_traits<char>, std::allocator<char> >, std::basic_string<char, std::char_traits<char>, std::allocator<char> > > >, std::less<std::basic_string<char, std::char_traits<char>, std::allocator<char> > >, std::allocator<std::pair<const std::basic_string<char, std::char_traits<char>, std::allocator<char> >, std::basic_string<char, std::char_traits<char>, std::allocator<char> > > > >::_S_value
FUNC 11b84 e 0 std::__niter_base<short unsigned int*, false>::__b
FUNC 11b92 31 0 std::__copy_move_backward_a<false, short unsigned int*, short unsigned int*>
FUNC 11bc4 e 0 std::_Vector_base<short unsigned int, std::allocator<short unsigned int> >::_M_get_Tp_allocator
FUNC 11bd2 14 0 __gnu_cxx::new_allocator<short unsigned int>::max_size
FUNC 11be6 2d 0 std::uninitialized_copy<short unsigned int*, short unsigned int*>
FUNC 11c14 14 0 __gnu_cxx::new_allocator<std::basic_string<char, std::char_traits<char>, std::allocator<char> > >::max_size
FUNC 11c28 63 0 std::__copy_move<false, false, std::random_access_iterator_tag>::__copy_m<const std::basic_string<char, std::char_traits<char>, std::allocator<char> >*, std::basic_string<char, std::char_traits<char>, std::allocator<char> >*>
FUNC 11c8b 3c 0 __gnu_cxx::operator!=<std::basic_string<char, std::char_traits<char>, std::allocator<char> >*, std::vector<std::basic_string<char, std::char_traits<char>, std::allocator<char> >, std::allocator<std::basic_string<char, std::char_traits<char>, std::allocator<char> > > > >
FUNC 11cc8 20 0 __gnu_cxx::__normal_iterator<std::basic_string<char, std::char_traits<char>, std::allocator<char> >*, std::vector<std::basic_string<char, std::char_traits<char>, std::allocator<char> >, std::allocator<std::basic_string<char, std::char_traits<char>, std::allocator<char> > > > >::operator++
FUNC 11ce8 63 0 std::__copy_move<false, false, std::random_access_iterator_tag>::__copy_m<std::basic_string<char, std::char_traits<char>, std::allocator<char> >*, std::basic_string<char, std::char_traits<char>, std::allocator<char> >*>
FUNC 11d4b 73 0 std::_Construct<std::basic_string<char, std::char_traits<char>, std::allocator<char> >, std::basic_string<char, std::char_traits<char>, std::allocator<char> > >
FUNC 11dbe 31 0 std::__copy_move_backward_a<false, std::basic_string<char, std::char_traits<char>, std::allocator<char> >*, std::basic_string<char, std::char_traits<char>, std::allocator<char> >*>
FUNC 11def 3c 0 __gnu_cxx::operator!=<const std::basic_string<char, std::char_traits<char>, std::allocator<char> >*, std::vector<std::basic_string<char, std::char_traits<char>, std::allocator<char> >, std::allocator<std::basic_string<char, std::char_traits<char>, std::allocator<char> > > > >
FUNC 11e2c 24 0 std::_Rb_tree<std::basic_string<char, std::char_traits<char>, std::allocator<char> >, std::pair<const std::basic_string<char, std::char_traits<char>, std::allocator<char> >, std::basic_string<char, std::char_traits<char>, std::allocator<char> > >, std::_Select1st<std::pair<const std::basic_string<char, std::char_traits<char>, std::allocator<char> >, std::basic_string<char, std::char_traits<char>, std::allocator<char> > > >, std::less<std::basic_string<char, std::char_traits<char>, std::allocator<char> > >, std::allocator<std::pair<const std::basic_string<char, std::char_traits<char>, std::allocator<char> >, std::basic_string<char, std::char_traits<char>, std::allocator<char> > > > >::_M_get_node
FUNC 11e50 6b 0 std::pair<const std::basic_string<char, std::char_traits<char>, std::allocator<char> >, std::basic_string<char, std::char_traits<char>, std::allocator<char> > >::pair
FUNC 11ebc 77 0 __gnu_cxx::new_allocator<std::pair<const std::basic_string<char, std::char_traits<char>, std::allocator<char> >, std::basic_string<char, std::char_traits<char>, std::allocator<char> > > >::construct
FUNC 11f34 a 0 __gnu_cxx::new_allocator<std::pair<const std::basic_string<char, std::char_traits<char>, std::allocator<char> >, std::basic_string<char, std::char_traits<char>, std::allocator<char> > > >::new_allocator
FUNC 11f3e 61 0 std::__copy_move_backward<false, true, std::random_access_iterator_tag>::__copy_move_b<short unsigned int>
FUNC 11f9f 2d 0 std::__uninitialized_copy<true>::uninitialized_copy<short unsigned int*, short unsigned int*>
FUNC 11fcc 63 0 std::__copy_move_backward<false, false, std::random_access_iterator_tag>::__copy_move_b<std::basic_string<char, std::char_traits<char>, std::allocator<char> >*, std::basic_string<char, std::char_traits<char>, std::allocator<char> >*>
FUNC 12030 54 0 __gnu_cxx::new_allocator<std::_Rb_tree_node<std::pair<const std::basic_string<char, std::char_traits<char>, std::allocator<char> >, std::basic_string<char, std::char_traits<char>, std::allocator<char> > > > >::allocate
FUNC 12084 46 0 std::copy<short unsigned int*, short unsigned int*>
FUNC 120ca 14 0 __gnu_cxx::new_allocator<std::_Rb_tree_node<std::pair<const std::basic_string<char, std::char_traits<char>, std::allocator<char> >, std::basic_string<char, std::char_traits<char>, std::allocator<char> > > > >::max_size
FUNC 120de 58 0 std::__copy_move_a2<false, short unsigned int*, short unsigned int*>
FUNC 12136 31 0 std::__copy_move_a<false, short unsigned int*, short unsigned int*>
FUNC 12167 5c 0 std::__copy_move<false, true, std::random_access_iterator_tag>::__copy_m<short unsigned int>
FUNC 121c4 119 0 EncapMysql::EncapMysql
FUNC 122de 102 0 EncapMysql::~EncapMysql
FUNC 123e0 74 0 EncapMysql::GetInstance
FUNC 12454 112 0 EncapMysql::Connect
FUNC 12566 31 0 EncapMysql::CloseConnect
FUNC 12598 402 0 EncapMysql::SelectQuery
FUNC 1299a 1e3 0 EncapMysql::ModifyQuery
FUNC 12b7e 4e 0 EncapMysql::FetchRow
FUNC 12bcc c3 0 EncapMysql::GetField
FUNC 12c90 3b 0 EncapMysql::GetField
FUNC 12ccc 40 0 EncapMysql::FreePreResult
FUNC 12d0c 12 0 EncapMysql::GetErrMsg
FUNC 12d1e 12 0 EncapMysql::IsConnected
FUNC 12d30 1a 0 EncapMysql::SetConnected
FUNC 12d4a 68 0 EncapMysql::SaveParam
FUNC 12db2 107 0 EncapMysql::ReConnect
FUNC 12eba 11 0 EncapMysql::SetUsed
FUNC 12ecc 11 0 EncapMysql::SetIdle
FUNC 12ede 14 0 EncapMysql::IsIdle
FUNC 12ef2 77 0 __static_initialization_and_destruction_0
FUNC 12f69 15 0 _GLOBAL__I_EncapMysql.cpp
FUNC 12f7e 1a 0 Mutex::WriterLock
FUNC 12f98 1a 0 Mutex::WriterUnlock
FUNC 12fb2 12 0 Mutex::SetIsSafe
FUNC 12fc4 50 0 Mutex::Mutex
FUNC 13014 3f 0 Mutex::~Mutex
FUNC 13054 3f 0 Mutex::Lock
FUNC 13094 3f 0 Mutex::Unlock
FUNC 130d4 2c 0 WriterMutexLock::WriterMutexLock
FUNC 13100 1d 0 WriterMutexLock::~WriterMutexLock
FUNC 1311e 1a 0 std::map<std::basic_string<char, std::char_traits<char>, std::allocator<char> >, int, std::less<std::basic_string<char, std::char_traits<char>, std::allocator<char> > >, std::allocator<std::pair<const std::basic_string<char, std::char_traits<char>, std::allocator<char> >, int> > >::~map
FUNC 13138 1a 0 std::map<std::basic_string<char, std::char_traits<char>, std::allocator<char> >, int, std::less<std::basic_string<char, std::char_traits<char>, std::allocator<char> > >, std::allocator<std::pair<const std::basic_string<char, std::char_traits<char>, std::allocator<char> >, int> > >::map
FUNC 13152 1a 0 std::_Rb_tree<std::basic_string<char, std::char_traits<char>, std::allocator<char> >, std::pair<const std::basic_string<char, std::char_traits<char>, std::allocator<char> >, int>, std::_Select1st<std::pair<const std::basic_string<char, std::char_traits<char>, std::allocator<char> >, int> >, std::less<std::basic_string<char, std::char_traits<char>, std::allocator<char> > >, std::allocator<std::pair<const std::basic_string<char, std::char_traits<char>, std::allocator<char> >, int> > >::_Rb_tree_impl<std::less<std::basic_string<char, std::char_traits<char>, std::allocator<char> > >, false>::~_Rb_tree_impl
FUNC 1316c 63 0 std::_Rb_tree<std::basic_string<char, std::char_traits<char>, std::allocator<char> >, std::pair<const std::basic_string<char, std::char_traits<char>, std::allocator<char> >, int>, std::_Select1st<std::pair<const std::basic_string<char, std::char_traits<char>, std::allocator<char> >, int> >, std::less<std::basic_string<char, std::char_traits<char>, std::allocator<char> > >, std::allocator<std::pair<const std::basic_string<char, std::char_traits<char>, std::allocator<char> >, int> > >::~_Rb_tree
FUNC 131d0 1a 0 std::map<std::basic_string<char, std::char_traits<char>, std::allocator<char> >, int, std::less<std::basic_string<char, std::char_traits<char>, std::allocator<char> > >, std::allocator<std::pair<const std::basic_string<char, std::char_traits<char>, std::allocator<char> >, int> > >::clear
FUNC 131ea 1a 0 std::pair<const std::basic_string<char, std::char_traits<char>, std::allocator<char> >, int>::~pair
FUNC 13204 118 0 std::map<std::basic_string<char, std::char_traits<char>, std::allocator<char> >, int, std::less<std::basic_string<char, std::char_traits<char>, std::allocator<char> > >, std::allocator<std::pair<const std::basic_string<char, std::char_traits<char>, std::allocator<char> >, int> > >::operator[]
FUNC 1331c 1a 0 std::_Rb_tree<std::basic_string<char, std::char_traits<char>, std::allocator<char> >, std::pair<const std::basic_string<char, std::char_traits<char>, std::allocator<char> >, int>, std::_Select1st<std::pair<const std::basic_string<char, std::char_traits<char>, std::allocator<char> >, int> >, std::less<std::basic_string<char, std::char_traits<char>, std::allocator<char> > >, std::allocator<std::pair<const std::basic_string<char, std::char_traits<char>, std::allocator<char> >, int> > >::_Rb_tree
FUNC 13336 1a 0 std::allocator<std::_Rb_tree_node<std::pair<const std::basic_string<char, std::char_traits<char>, std::allocator<char> >, int> > >::~allocator
FUNC 13350 69 0 std::_Rb_tree<std::basic_string<char, std::char_traits<char>, std::allocator<char> >, std::pair<const std::basic_string<char, std::char_traits<char>, std::allocator<char> >, int>, std::_Select1st<std::pair<const std::basic_string<char, std::char_traits<char>, std::allocator<char> >, int> >, std::less<std::basic_string<char, std::char_traits<char>, std::allocator<char> > >, std::allocator<std::pair<const std::basic_string<char, std::char_traits<char>, std::allocator<char> >, int> > >::_M_erase
FUNC 133ba 12 0 std::_Rb_tree<std::basic_string<char, std::char_traits<char>, std::allocator<char> >, std::pair<const std::basic_string<char, std::char_traits<char>, std::allocator<char> >, int>, std::_Select1st<std::pair<const std::basic_string<char, std::char_traits<char>, std::allocator<char> >, int> >, std::less<std::basic_string<char, std::char_traits<char>, std::allocator<char> > >, std::allocator<std::pair<const std::basic_string<char, std::char_traits<char>, std::allocator<char> >, int> > >::_M_begin
FUNC 133cc 8d 0 std::_Rb_tree<std::basic_string<char, std::char_traits<char>, std::allocator<char> >, std::pair<const std::basic_string<char, std::char_traits<char>, std::allocator<char> >, int>, std::_Select1st<std::pair<const std::basic_string<char, std::char_traits<char>, std::allocator<char> >, int> >, std::less<std::basic_string<char, std::char_traits<char>, std::allocator<char> > >, std::allocator<std::pair<const std::basic_string<char, std::char_traits<char>, std::allocator<char> >, int> > >::clear
FUNC 1345a 25 0 std::map<std::basic_string<char, std::char_traits<char>, std::allocator<char> >, int, std::less<std::basic_string<char, std::char_traits<char>, std::allocator<char> > >, std::allocator<std::pair<const std::basic_string<char, std::char_traits<char>, std::allocator<char> >, int> > >::lower_bound
FUNC 13480 1a 0 std::map<std::basic_string<char, std::char_traits<char>, std::allocator<char> >, int, std::less<std::basic_string<char, std::char_traits<char>, std::allocator<char> > >, std::allocator<std::pair<const std::basic_string<char, std::char_traits<char>, std::allocator<char> >, int> > >::key_comp
FUNC 1349a 15 0 std::_Rb_tree_iterator<std::pair<const std::basic_string<char, std::char_traits<char>, std::allocator<char> >, int> >::operator*
FUNC 134b0 1a 0 std::map<std::basic_string<char, std::char_traits<char>, std::allocator<char> >, int, std::less<std::basic_string<char, std::char_traits<char>, std::allocator<char> > >, std::allocator<std::pair<const std::basic_string<char, std::char_traits<char>, std::allocator<char> >, int> > >::end
FUNC 134ca 22 0 std::_Rb_tree_iterator<std::pair<const std::basic_string<char, std::char_traits<char>, std::allocator<char> >, int> >::operator==
FUNC 134ec 36 0 std::pair<const std::basic_string<char, std::char_traits<char>, std::allocator<char> >, int>::pair
FUNC 13522 40 0 std::map<std::basic_string<char, std::char_traits<char>, std::allocator<char> >, int, std::less<std::basic_string<char, std::char_traits<char>, std::allocator<char> > >, std::allocator<std::pair<const std::basic_string<char, std::char_traits<char>, std::allocator<char> >, int> > >::insert
FUNC 13562 8c 0 std::_Rb_tree<std::basic_string<char, std::char_traits<char>, std::allocator<char> >, std::pair<const std::basic_string<char, std::char_traits<char>, std::allocator<char> >, int>, std::_Select1st<std::pair<const std::basic_string<char, std::char_traits<char>, std::allocator<char> >, int> >, std::less<std::basic_string<char, std::char_traits<char>, std::allocator<char> > >, std::allocator<std::pair<const std::basic_string<char, std::char_traits<char>, std::allocator<char> >, int> > >::_Rb_tree_impl<std::less<std::basic_string<char, std::char_traits<char>, std::allocator<char> > >, false>::_Rb_tree_impl
FUNC 135ee a 0 __gnu_cxx::new_allocator<std::_Rb_tree_node<std::pair<const std::basic_string<char, std::char_traits<char>, std::allocator<char> >, int> > >::~new_allocator
FUNC 135f8 12 0 std::_Rb_tree<std::basic_string<char, std::char_traits<char>, std::allocator<char> >, std::pair<const std::basic_string<char, std::char_traits<char>, std::allocator<char> >, int>, std::_Select1st<std::pair<const std::basic_string<char, std::char_traits<char>, std::allocator<char> >, int> >, std::less<std::basic_string<char, std::char_traits<char>, std::allocator<char> > >, std::allocator<std::pair<const std::basic_string<char, std::char_traits<char>, std::allocator<char> >, int> > >::_S_right
FUNC 1360a 12 0 std::_Rb_tree<std::basic_string<char, std::char_traits<char>, std::allocator<char> >, std::pair<const std::basic_string<char, std::char_traits<char>, std::allocator<char> >, int>, std::_Select1st<std::pair<const std::basic_string<char, std::char_traits<char>, std::allocator<char> >, int> >, std::less<std::basic_string<char, std::char_traits<char>, std::allocator<char> > >, std::allocator<std::pair<const std::basic_string<char, std::char_traits<char>, std::allocator<char> >, int> > >::_S_left
FUNC 1361c 86 0 std::_Rb_tree<std::basic_string<char, std::char_traits<char>, std::allocator<char> >, std::pair<const std::basic_string<char, std::char_traits<char>, std::allocator<char> >, int>, std::_Select1st<std::pair<const std::basic_string<char, std::char_traits<char>, std::allocator<char> >, int> >, std::less<std::basic_string<char, std::char_traits<char>, std::allocator<char> > >, std::allocator<std::pair<const std::basic_string<char, std::char_traits<char>, std::allocator<char> >, int> > >::_M_destroy_node
FUNC 136a2 12 0 std::_Rb_tree<std::basic_string<char, std::char_traits<char>, std::allocator<char> >, std::pair<const std::basic_string<char, std::char_traits<char>, std::allocator<char> >, int>, std::_Select1st<std::pair<const std::basic_string<char, std::char_traits<char>, std::allocator<char> >, int> >, std::less<std::basic_string<char, std::char_traits<char>, std::allocator<char> > >, std::allocator<std::pair<const std::basic_string<char, std::char_traits<char>, std::allocator<char> >, int> > >::_M_end
FUNC 136b4 12 0 std::_Rb_tree<std::basic_string<char, std::char_traits<char>, std::allocator<char> >, std::pair<const std::basic_string<char, std::char_traits<char>, std::allocator<char> >, int>, std::_Select1st<std::pair<const std::basic_string<char, std::char_traits<char>, std::allocator<char> >, int> >, std::less<std::basic_string<char, std::char_traits<char>, std::allocator<char> > >, std::allocator<std::pair<const std::basic_string<char, std::char_traits<char>, std::allocator<char> >, int> > >::_M_leftmost
FUNC 136c6 12 0 std::_Rb_tree<std::basic_string<char, std::char_traits<char>, std::allocator<char> >, std::pair<const std::basic_string<char, std::char_traits<char>, std::allocator<char> >, int>, std::_Select1st<std::pair<const std::basic_string<char, std::char_traits<char>, std::allocator<char> >, int> >, std::less<std::basic_string<char, std::char_traits<char>, std::allocator<char> > >, std::allocator<std::pair<const std::basic_string<char, std::char_traits<char>, std::allocator<char> >, int> > >::_M_root
FUNC 136d8 12 0 std::_Rb_tree<std::basic_string<char, std::char_traits<char>, std::allocator<char> >, std::pair<const std::basic_string<char, std::char_traits<char>, std::allocator<char> >, int>, std::_Select1st<std::pair<const std::basic_string<char, std::char_traits<char>, std::allocator<char> >, int> >, std::less<std::basic_string<char, std::char_traits<char>, std::allocator<char> > >, std::allocator<std::pair<const std::basic_string<char, std::char_traits<char>, std::allocator<char> >, int> > >::_M_rightmost
FUNC 136ea 53 0 std::_Rb_tree<std::basic_string<char, std::char_traits<char>, std::allocator<char> >, std::pair<const std::basic_string<char, std::char_traits<char>, std::allocator<char> >, int>, std::_Select1st<std::pair<const std::basic_string<char, std::char_traits<char>, std::allocator<char> >, int> >, std::less<std::basic_string<char, std::char_traits<char>, std::allocator<char> > >, std::allocator<std::pair<const std::basic_string<char, std::char_traits<char>, std::allocator<char> >, int> > >::lower_bound
FUNC 1373e a 0 std::_Rb_tree<std::basic_string<char, std::char_traits<char>, std::allocator<char> >, std::pair<const std::basic_string<char, std::char_traits<char>, std::allocator<char> >, int>, std::_Select1st<std::pair<const std::basic_string<char, std::char_traits<char>, std::allocator<char> >, int> >, std::less<std::basic_string<char, std::char_traits<char>, std::allocator<char> > >, std::allocator<std::pair<const std::basic_string<char, std::char_traits<char>, std::allocator<char> >, int> > >::key_comp
FUNC 13748 2c 0 std::_Rb_tree<std::basic_string<char, std::char_traits<char>, std::allocator<char> >, std::pair<const std::basic_string<char, std::char_traits<char>, std::allocator<char> >, int>, std::_Select1st<std::pair<const std::basic_string<char, std::char_traits<char>, std::allocator<char> >, int> >, std::less<std::basic_string<char, std::char_traits<char>, std::allocator<char> > >, std::allocator<std::pair<const std::basic_string<char, std::char_traits<char>, std::allocator<char> >, int> > >::end
FUNC 13774 1c 0 std::_Rb_tree_const_iterator<std::pair<const std::basic_string<char, std::char_traits<char>, std::allocator<char> >, int> >::_Rb_tree_const_iterator
FUNC 13790 4c0 0 std::_Rb_tree<std::basic_string<char, std::char_traits<char>, std::allocator<char> >, std::pair<const std::basic_string<char, std::char_traits<char>, std::allocator<char> >, int>, std::_Select1st<std::pair<const std::basic_string<char, std::char_traits<char>, std::allocator<char> >, int> >, std::less<std::basic_string<char, std::char_traits<char>, std::allocator<char> > >, std::allocator<std::pair<const std::basic_string<char, std::char_traits<char>, std::allocator<char> >, int> > >::_M_insert_unique_
FUNC 13c50 1a 0 std::allocator<std::_Rb_tree_node<std::pair<const std::basic_string<char, std::char_traits<char>, std::allocator<char> >, int> > >::allocator
FUNC 13c6a 41 0 std::_Rb_tree<std::basic_string<char, std::char_traits<char>, std::allocator<char> >, std::pair<const std::basic_string<char, std::char_traits<char>, std::allocator<char> >, int>, std::_Select1st<std::pair<const std::basic_string<char, std::char_traits<char>, std::allocator<char> >, int> >, std::less<std::basic_string<char, std::char_traits<char>, std::allocator<char> > >, std::allocator<std::pair<const std::basic_string<char, std::char_traits<char>, std::allocator<char> >, int> > >::_Rb_tree_impl<std::less<std::basic_string<char, std::char_traits<char>, std::allocator<char> > >, false>::_M_initialize
FUNC 13cac 3b 0 std::_Rb_tree<std::basic_string<char, std::char_traits<char>, std::allocator<char> >, std::pair<const std::basic_string<char, std::char_traits<char>, std::allocator<char> >, int>, std::_Select1st<std::pair<const std::basic_string<char, std::char_traits<char>, std::allocator<char> >, int> >, std::less<std::basic_string<char, std::char_traits<char>, std::allocator<char> > >, std::allocator<std::pair<const std::basic_string<char, std::char_traits<char>, std::allocator<char> >, int> > >::get_allocator
FUNC 13ce8 1a 0 std::allocator<std::pair<const std::basic_string<char, std::char_traits<char>, std::allocator<char> >, int> >::~allocator
FUNC 13d02 1e 0 __gnu_cxx::new_allocator<std::pair<const std::basic_string<char, std::char_traits<char>, std::allocator<char> >, int> >::destroy
FUNC 13d20 2a 0 std::_Rb_tree<std::basic_string<char, std::char_traits<char>, std::allocator<char> >, std::pair<const std::basic_string<char, std::char_traits<char>, std::allocator<char> >, int>, std::_Select1st<std::pair<const std::basic_string<char, std::char_traits<char>, std::allocator<char> >, int> >, std::less<std::basic_string<char, std::char_traits<char>, std::allocator<char> > >, std::allocator<std::pair<const std::basic_string<char, std::char_traits<char>, std::allocator<char> >, int> > >::_M_put_node
FUNC 13d4a 92 0 std::_Rb_tree<std::basic_string<char, std::char_traits<char>, std::allocator<char> >, std::pair<const std::basic_string<char, std::char_traits<char>, std::allocator<char> >, int>, std::_Select1st<std::pair<const std::basic_string<char, std::char_traits<char>, std::allocator<char> >, int> >, std::less<std::basic_string<char, std::char_traits<char>, std::allocator<char> > >, std::allocator<std::pair<const std::basic_string<char, std::char_traits<char>, std::allocator<char> >, int> > >::_M_lower_bound
FUNC 13ddc 19 0 std::_Rb_tree_iterator<std::pair<const std::basic_string<char, std::char_traits<char>, std::allocator<char> >, int> >::_Rb_tree_iterator
FUNC 13df5 2c 0 std::_Rb_tree<std::basic_string<char, std::char_traits<char>, std::allocator<char> >, std::pair<const std::basic_string<char, std::char_traits<char>, std::allocator<char> >, int>, std::_Select1st<std::pair<const std::basic_string<char, std::char_traits<char>, std::allocator<char> >, int> >, std::less<std::basic_string<char, std::char_traits<char>, std::allocator<char> > >, std::allocator<std::pair<const std::basic_string<char, std::char_traits<char>, std::allocator<char> >, int> > >::_S_key
FUNC 13e22 12 0 std::_Select1st<std::pair<const std::basic_string<char, std::char_traits<char>, std::allocator<char> >, int> >::operator()
FUNC 13e34 12 0 std::_Rb_tree<std::basic_string<char, std::char_traits<char>, std::allocator<char> >, std::pair<const std::basic_string<char, std::char_traits<char>, std::allocator<char> >, int>, std::_Select1st<std::pair<const std::basic_string<char, std::char_traits<char>, std::allocator<char> >, int> >, std::less<std::basic_string<char, std::char_traits<char>, std::allocator<char> > >, std::allocator<std::pair<const std::basic_string<char, std::char_traits<char>, std::allocator<char> >, int> > >::size
FUNC 13e46 e3 0 std::_Rb_tree<std::basic_string<char, std::char_traits<char>, std::allocator<char> >, std::pair<const std::basic_string<char, std::char_traits<char>, std::allocator<char> >, int>, std::_Select1st<std::pair<const std::basic_string<char, std::char_traits<char>, std::allocator<char> >, int> >, std::less<std::basic_string<char, std::char_traits<char>, std::allocator<char> > >, std::allocator<std::pair<const std::basic_string<char, std::char_traits<char>, std::allocator<char> >, int> > >::_M_insert_
FUNC 13f2a 271 0 std::_Rb_tree<std::basic_string<char, std::char_traits<char>, std::allocator<char> >, std::pair<const std::basic_string<char, std::char_traits<char>, std::allocator<char> >, int>, std::_Select1st<std::pair<const std::basic_string<char, std::char_traits<char>, std::allocator<char> >, int> >, std::less<std::basic_string<char, std::char_traits<char>, std::allocator<char> > >, std::allocator<std::pair<const std::basic_string<char, std::char_traits<char>, std::allocator<char> >, int> > >::_M_insert_unique
FUNC 1419c 28 0 std::_Rb_tree_const_iterator<std::pair<const std::basic_string<char, std::char_traits<char>, std::allocator<char> >, int> >::operator--
FUNC 141c4 12 0 std::_Rb_tree<std::basic_string<char, std::char_traits<char>, std::allocator<char> >, std::pair<const std::basic_string<char, std::char_traits<char>, std::allocator<char> >, int>, std::_Select1st<std::pair<const std::basic_string<char, std::char_traits<char>, std::allocator<char> >, int> >, std::less<std::basic_string<char, std::char_traits<char>, std::allocator<char> > >, std::allocator<std::pair<const std::basic_string<char, std::char_traits<char>, std::allocator<char> >, int> > >::_S_right
FUNC 141d6 28 0 std::_Rb_tree_const_iterator<std::pair<const std::basic_string<char, std::char_traits<char>, std::allocator<char> >, int> >::operator++
FUNC 141fe a 0 __gnu_cxx::new_allocator<std::_Rb_tree_node<std::pair<const std::basic_string<char, std::char_traits<char>, std::allocator<char> >, int> > >::new_allocator
FUNC 14208 e 0 std::_Rb_tree<std::basic_string<char, std::char_traits<char>, std::allocator<char> >, std::pair<const std::basic_string<char, std::char_traits<char>, std::allocator<char> >, int>, std::_Select1st<std::pair<const std::basic_string<char, std::char_traits<char>, std::allocator<char> >, int> >, std::less<std::basic_string<char, std::char_traits<char>, std::allocator<char> > >, std::allocator<std::pair<const std::basic_string<char, std::char_traits<char>, std::allocator<char> >, int> > >::_M_get_Node_allocator
FUNC 14216 1e 0 std::allocator<std::pair<const std::basic_string<char, std::char_traits<char>, std::allocator<char> >, int> >::allocator<std::_Rb_tree_node<std::pair<const std::basic_string<char, std::char_traits<char>, std::allocator<char> >, int> > >
FUNC 14234 a 0 __gnu_cxx::new_allocator<std::pair<const std::basic_string<char, std::char_traits<char>, std::allocator<char> >, int> >::~new_allocator
FUNC 1423e 22 0 __gnu_cxx::new_allocator<std::_Rb_tree_node<std::pair<const std::basic_string<char, std::char_traits<char>, std::allocator<char> >, int> > >::deallocate
FUNC 14260 2c 0 std::_Rb_tree<std::basic_string<char, std::char_traits<char>, std::allocator<char> >, std::pair<const std::basic_string<char, std::char_traits<char>, std::allocator<char> >, int>, std::_Select1st<std::pair<const std::basic_string<char, std::char_traits<char>, std::allocator<char> >, int> >, std::less<std::basic_string<char, std::char_traits<char>, std::allocator<char> > >, std::allocator<std::pair<const std::basic_string<char, std::char_traits<char>, std::allocator<char> >, int> > >::_S_key
FUNC 1428c 12 0 std::_Rb_tree<std::basic_string<char, std::char_traits<char>, std::allocator<char> >, std::pair<const std::basic_string<char, std::char_traits<char>, std::allocator<char> >, int>, std::_Select1st<std::pair<const std::basic_string<char, std::char_traits<char>, std::allocator<char> >, int> >, std::less<std::basic_string<char, std::char_traits<char>, std::allocator<char> > >, std::allocator<std::pair<const std::basic_string<char, std::char_traits<char>, std::allocator<char> >, int> > >::_S_value
FUNC 1429e bd 0 std::_Rb_tree<std::basic_string<char, std::char_traits<char>, std::allocator<char> >, std::pair<const std::basic_string<char, std::char_traits<char>, std::allocator<char> >, int>, std::_Select1st<std::pair<const std::basic_string<char, std::char_traits<char>, std::allocator<char> >, int> >, std::less<std::basic_string<char, std::char_traits<char>, std::allocator<char> > >, std::allocator<std::pair<const std::basic_string<char, std::char_traits<char>, std::allocator<char> >, int> > >::_M_create_node
FUNC 1435c 2c 0 std::_Rb_tree<std::basic_string<char, std::char_traits<char>, std::allocator<char> >, std::pair<const std::basic_string<char, std::char_traits<char>, std::allocator<char> >, int>, std::_Select1st<std::pair<const std::basic_string<char, std::char_traits<char>, std::allocator<char> >, int> >, std::less<std::basic_string<char, std::char_traits<char>, std::allocator<char> > >, std::allocator<std::pair<const std::basic_string<char, std::char_traits<char>, std::allocator<char> >, int> > >::begin
FUNC 14388 2e 0 std::pair<std::_Rb_tree_iterator<std::pair<const std::basic_string<char, std::char_traits<char>, std::allocator<char> >, int> >, bool>::pair
FUNC 143b6 28 0 std::_Rb_tree_iterator<std::pair<const std::basic_string<char, std::char_traits<char>, std::allocator<char> >, int> >::operator--
FUNC 143de a 0 __gnu_cxx::new_allocator<std::pair<const std::basic_string<char, std::char_traits<char>, std::allocator<char> >, int> >::new_allocator
FUNC 143e8 12 0 std::_Rb_tree<std::basic_string<char, std::char_traits<char>, std::allocator<char> >, std::pair<const std::basic_string<char, std::char_traits<char>, std::allocator<char> >, int>, std::_Select1st<std::pair<const std::basic_string<char, std::char_traits<char>, std::allocator<char> >, int> >, std::less<std::basic_string<char, std::char_traits<char>, std::allocator<char> > >, std::allocator<std::pair<const std::basic_string<char, std::char_traits<char>, std::allocator<char> >, int> > >::_S_value
FUNC 143fa 24 0 std::_Rb_tree<std::basic_string<char, std::char_traits<char>, std::allocator<char> >, std::pair<const std::basic_string<char, std::char_traits<char>, std::allocator<char> >, int>, std::_Select1st<std::pair<const std::basic_string<char, std::char_traits<char>, std::allocator<char> >, int> >, std::less<std::basic_string<char, std::char_traits<char>, std::allocator<char> > >, std::allocator<std::pair<const std::basic_string<char, std::char_traits<char>, std::allocator<char> >, int> > >::_M_get_node
FUNC 1441e 33 0 std::pair<const std::basic_string<char, std::char_traits<char>, std::allocator<char> >, int>::pair
FUNC 14452 77 0 __gnu_cxx::new_allocator<std::pair<const std::basic_string<char, std::char_traits<char>, std::allocator<char> >, int> >::construct
FUNC 144ca 54 0 __gnu_cxx::new_allocator<std::_Rb_tree_node<std::pair<const std::basic_string<char, std::char_traits<char>, std::allocator<char> >, int> > >::allocate
FUNC 1451e 14 0 __gnu_cxx::new_allocator<std::_Rb_tree_node<std::pair<const std::basic_string<char, std::char_traits<char>, std::allocator<char> >, int> > >::max_size
FUNC 14534 28 0 IEC103Manager::IEC103Manager
FUNC 1455c 61 0 IEC103Manager::~IEC103Manager
FUNC 145be 26 0 IEC103Manager::~IEC103Manager
FUNC 145e4 8c3 0 IEC103Manager::Init
FUNC 14ea8 2d 0 IEC103Manager::Start
FUNC 14ed6 1b 0 IEC103Manager::Stop
FUNC 14ef2 62 0 IEC103Manager::SignalHandle
FUNC 14f54 ca 0 __static_initialization_and_destruction_0
FUNC 1501e 15 0 _GLOBAL__I_IEC103Manager.cpp
FUNC 15034 33 0 Config::GetChannelName
FUNC 15068 12 0 Config::GetNetType
FUNC 1507a 36 0 Config::GetMysqlIp
FUNC 150b0 15 0 Config::GetMysqlPort
FUNC 150c6 36 0 Config::GetMysqlUser
FUNC 150fc 36 0 Config::GetMysqlPwd
FUNC 15132 36 0 Config::GetMysqlDbname
FUNC 15168 14 0 Config::GetLogLv
FUNC 1517c 14 0 Config::GetIec103RunType
FUNC 15190 1a 0 std::map<std::basic_string<char, std::char_traits<char>, std::allocator<char> >, IEC103::stConfigParam, std::less<std::basic_string<char, std::char_traits<char>, std::allocator<char> > >, std::allocator<std::pair<const std::basic_string<char, std::char_traits<char>, std::allocator<char> >, IEC103::stConfigParam> > >::~map
FUNC 151aa 1a 0 std::_Rb_tree<std::basic_string<char, std::char_traits<char>, std::allocator<char> >, std::pair<const std::basic_string<char, std::char_traits<char>, std::allocator<char> >, IEC103::stConfigParam>, std::_Select1st<std::pair<const std::basic_string<char, std::char_traits<char>, std::allocator<char> >, IEC103::stConfigParam> >, std::less<std::basic_string<char, std::char_traits<char>, std::allocator<char> > >, std::allocator<std::pair<const std::basic_string<char, std::char_traits<char>, std::allocator<char> >, IEC103::stConfigParam> > >::_Rb_tree_impl<std::less<std::basic_string<char, std::char_traits<char>, std::allocator<char> > >, false>::~_Rb_tree_impl
FUNC 151c4 63 0 std::_Rb_tree<std::basic_string<char, std::char_traits<char>, std::allocator<char> >, std::pair<const std::basic_string<char, std::char_traits<char>, std::allocator<char> >, IEC103::stConfigParam>, std::_Select1st<std::pair<const std::basic_string<char, std::char_traits<char>, std::allocator<char> >, IEC103::stConfigParam> >, std::less<std::basic_string<char, std::char_traits<char>, std::allocator<char> > >, std::allocator<std::pair<const std::basic_string<char, std::char_traits<char>, std::allocator<char> >, IEC103::stConfigParam> > >::~_Rb_tree
FUNC 15228 1a 0 std::map<std::basic_string<char, std::char_traits<char>, std::allocator<char> >, IEC103::stConfigParam, std::less<std::basic_string<char, std::char_traits<char>, std::allocator<char> > >, std::allocator<std::pair<const std::basic_string<char, std::char_traits<char>, std::allocator<char> >, IEC103::stConfigParam> > >::begin
FUNC 15242 1a 0 std::map<std::basic_string<char, std::char_traits<char>, std::allocator<char> >, IEC103::stConfigParam, std::less<std::basic_string<char, std::char_traits<char>, std::allocator<char> > >, std::allocator<std::pair<const std::basic_string<char, std::char_traits<char>, std::allocator<char> >, IEC103::stConfigParam> > >::end
FUNC 1525c 22 0 std::_Rb_tree_iterator<std::pair<const std::basic_string<char, std::char_traits<char>, std::allocator<char> >, IEC103::stConfigParam> >::operator!=
FUNC 1527e 28 0 std::_Rb_tree_iterator<std::pair<const std::basic_string<char, std::char_traits<char>, std::allocator<char> >, IEC103::stConfigParam> >::operator++
FUNC 152a6 15 0 std::_Rb_tree_iterator<std::pair<const std::basic_string<char, std::char_traits<char>, std::allocator<char> >, IEC103::stConfigParam> >::operator->
FUNC 152bc 1a 0 std::map<std::basic_string<char, std::char_traits<char>, std::allocator<char> >, IEC103::stConfigParam, std::less<std::basic_string<char, std::char_traits<char>, std::allocator<char> > >, std::allocator<std::pair<const std::basic_string<char, std::char_traits<char>, std::allocator<char> >, IEC103::stConfigParam> > >::size
FUNC 152d6 1a 0 std::allocator<std::_Rb_tree_node<std::pair<const std::basic_string<char, std::char_traits<char>, std::allocator<char> >, IEC103::stConfigParam> > >::~allocator
FUNC 152f0 69 0 std::_Rb_tree<std::basic_string<char, std::char_traits<char>, std::allocator<char> >, std::pair<const std::basic_string<char, std::char_traits<char>, std::allocator<char> >, IEC103::stConfigParam>, std::_Select1st<std::pair<const std::basic_string<char, std::char_traits<char>, std::allocator<char> >, IEC103::stConfigParam> >, std::less<std::basic_string<char, std::char_traits<char>, std::allocator<char> > >, std::allocator<std::pair<const std::basic_string<char, std::char_traits<char>, std::allocator<char> >, IEC103::stConfigParam> > >::_M_erase
FUNC 1535a 12 0 std::_Rb_tree<std::basic_string<char, std::char_traits<char>, std::allocator<char> >, std::pair<const std::basic_string<char, std::char_traits<char>, std::allocator<char> >, IEC103::stConfigParam>, std::_Select1st<std::pair<const std::basic_string<char, std::char_traits<char>, std::allocator<char> >, IEC103::stConfigParam> >, std::less<std::basic_string<char, std::char_traits<char>, std::allocator<char> > >, std::allocator<std::pair<const std::basic_string<char, std::char_traits<char>, std::allocator<char> >, IEC103::stConfigParam> > >::_M_begin
FUNC 1536c 2c 0 std::_Rb_tree<std::basic_string<char, std::char_traits<char>, std::allocator<char> >, std::pair<const std::basic_string<char, std::char_traits<char>, std::allocator<char> >, IEC103::stConfigParam>, std::_Select1st<std::pair<const std::basic_string<char, std::char_traits<char>, std::allocator<char> >, IEC103::stConfigParam> >, std::less<std::basic_string<char, std::char_traits<char>, std::allocator<char> > >, std::allocator<std::pair<const std::basic_string<char, std::char_traits<char>, std::allocator<char> >, IEC103::stConfigParam> > >::begin
FUNC 15398 2c 0 std::_Rb_tree<std::basic_string<char, std::char_traits<char>, std::allocator<char> >, std::pair<const std::basic_string<char, std::char_traits<char>, std::allocator<char> >, IEC103::stConfigParam>, std::_Select1st<std::pair<const std::basic_string<char, std::char_traits<char>, std::allocator<char> >, IEC103::stConfigParam> >, std::less<std::basic_string<char, std::char_traits<char>, std::allocator<char> > >, std::allocator<std::pair<const std::basic_string<char, std::char_traits<char>, std::allocator<char> >, IEC103::stConfigParam> > >::end
FUNC 153c4 12 0 std::_Rb_tree<std::basic_string<char, std::char_traits<char>, std::allocator<char> >, std::pair<const std::basic_string<char, std::char_traits<char>, std::allocator<char> >, IEC103::stConfigParam>, std::_Select1st<std::pair<const std::basic_string<char, std::char_traits<char>, std::allocator<char> >, IEC103::stConfigParam> >, std::less<std::basic_string<char, std::char_traits<char>, std::allocator<char> > >, std::allocator<std::pair<const std::basic_string<char, std::char_traits<char>, std::allocator<char> >, IEC103::stConfigParam> > >::size
FUNC 153d6 a 0 __gnu_cxx::new_allocator<std::_Rb_tree_node<std::pair<const std::basic_string<char, std::char_traits<char>, std::allocator<char> >, IEC103::stConfigParam> > >::~new_allocator
FUNC 153e0 12 0 std::_Rb_tree<std::basic_string<char, std::char_traits<char>, std::allocator<char> >, std::pair<const std::basic_string<char, std::char_traits<char>, std::allocator<char> >, IEC103::stConfigParam>, std::_Select1st<std::pair<const std::basic_string<char, std::char_traits<char>, std::allocator<char> >, IEC103::stConfigParam> >, std::less<std::basic_string<char, std::char_traits<char>, std::allocator<char> > >, std::allocator<std::pair<const std::basic_string<char, std::char_traits<char>, std::allocator<char> >, IEC103::stConfigParam> > >::_S_right
FUNC 153f2 12 0 std::_Rb_tree<std::basic_string<char, std::char_traits<char>, std::allocator<char> >, std::pair<const std::basic_string<char, std::char_traits<char>, std::allocator<char> >, IEC103::stConfigParam>, std::_Select1st<std::pair<const std::basic_string<char, std::char_traits<char>, std::allocator<char> >, IEC103::stConfigParam> >, std::less<std::basic_string<char, std::char_traits<char>, std::allocator<char> > >, std::allocator<std::pair<const std::basic_string<char, std::char_traits<char>, std::allocator<char> >, IEC103::stConfigParam> > >::_S_left
FUNC 15404 86 0 std::_Rb_tree<std::basic_string<char, std::char_traits<char>, std::allocator<char> >, std::pair<const std::basic_string<char, std::char_traits<char>, std::allocator<char> >, IEC103::stConfigParam>, std::_Select1st<std::pair<const std::basic_string<char, std::char_traits<char>, std::allocator<char> >, IEC103::stConfigParam> >, std::less<std::basic_string<char, std::char_traits<char>, std::allocator<char> > >, std::allocator<std::pair<const std::basic_string<char, std::char_traits<char>, std::allocator<char> >, IEC103::stConfigParam> > >::_M_destroy_node
FUNC 1548a e 0 std::_Rb_tree<std::basic_string<char, std::char_traits<char>, std::allocator<char> >, std::pair<const std::basic_string<char, std::char_traits<char>, std::allocator<char> >, IEC103::stConfigParam>, std::_Select1st<std::pair<const std::basic_string<char, std::char_traits<char>, std::allocator<char> >, IEC103::stConfigParam> >, std::less<std::basic_string<char, std::char_traits<char>, std::allocator<char> > >, std::allocator<std::pair<const std::basic_string<char, std::char_traits<char>, std::allocator<char> >, IEC103::stConfigParam> > >::_M_get_Node_allocator
FUNC 15498 19 0 std::_Rb_tree_iterator<std::pair<const std::basic_string<char, std::char_traits<char>, std::allocator<char> >, IEC103::stConfigParam> >::_Rb_tree_iterator
FUNC 154b2 3b 0 std::_Rb_tree<std::basic_string<char, std::char_traits<char>, std::allocator<char> >, std::pair<const std::basic_string<char, std::char_traits<char>, std::allocator<char> >, IEC103::stConfigParam>, std::_Select1st<std::pair<const std::basic_string<char, std::char_traits<char>, std::allocator<char> >, IEC103::stConfigParam> >, std::less<std::basic_string<char, std::char_traits<char>, std::allocator<char> > >, std::allocator<std::pair<const std::basic_string<char, std::char_traits<char>, std::allocator<char> >, IEC103::stConfigParam> > >::get_allocator
FUNC 154ee 1a 0 std::allocator<std::pair<const std::basic_string<char, std::char_traits<char>, std::allocator<char> >, IEC103::stConfigParam> >::~allocator
FUNC 15508 84 0 IEC103::stConfigParam::~stConfigParam
FUNC 1558c 55 0 std::pair<const std::basic_string<char, std::char_traits<char>, std::allocator<char> >, IEC103::stConfigParam>::~pair
FUNC 155e2 1e 0 __gnu_cxx::new_allocator<std::pair<const std::basic_string<char, std::char_traits<char>, std::allocator<char> >, IEC103::stConfigParam> >::destroy
FUNC 15600 2a 0 std::_Rb_tree<std::basic_string<char, std::char_traits<char>, std::allocator<char> >, std::pair<const std::basic_string<char, std::char_traits<char>, std::allocator<char> >, IEC103::stConfigParam>, std::_Select1st<std::pair<const std::basic_string<char, std::char_traits<char>, std::allocator<char> >, IEC103::stConfigParam> >, std::less<std::basic_string<char, std::char_traits<char>, std::allocator<char> > >, std::allocator<std::pair<const std::basic_string<char, std::char_traits<char>, std::allocator<char> >, IEC103::stConfigParam> > >::_M_put_node
FUNC 1562a 1e 0 std::allocator<std::pair<const std::basic_string<char, std::char_traits<char>, std::allocator<char> >, IEC103::stConfigParam> >::allocator<std::_Rb_tree_node<std::pair<const std::basic_string<char, std::char_traits<char>, std::allocator<char> >, IEC103::stConfigParam> > >
FUNC 15648 a 0 __gnu_cxx::new_allocator<std::pair<const std::basic_string<char, std::char_traits<char>, std::allocator<char> >, IEC103::stConfigParam> >::~new_allocator
FUNC 15652 22 0 __gnu_cxx::new_allocator<std::_Rb_tree_node<std::pair<const std::basic_string<char, std::char_traits<char>, std::allocator<char> >, IEC103::stConfigParam> > >::deallocate
FUNC 15674 a 0 __gnu_cxx::new_allocator<std::pair<const std::basic_string<char, std::char_traits<char>, std::allocator<char> >, IEC103::stConfigParam> >::new_allocator
FUNC 15680 27 0 Inet::Inet
FUNC 156a8 35 0 Inet::~Inet
FUNC 156de 26 0 Inet::~Inet
FUNC 15704 13d 0 combine_folder
FUNC 15841 23e 0 InitPaths
FUNC 15a7f 31 0 InitLogging
FUNC 15ab0 c8 0 GetLocalDate
FUNC 15b78 c8 0 GetCurTime
FUNC 15c40 2a1 0 Logger::Logger
FUNC 15ee2 138 0 Logger::~Logger
FUNC 1601a 26 0 Logger::~Logger
FUNC 16040 124 0 Logger::Debug
FUNC 16164 20c 0 Logger::Debug
FUNC 16370 125 0 Logger::Info
FUNC 16496 20d 0 Logger::Info
FUNC 166a4 125 0 Logger::Warn
FUNC 167ca 20d 0 Logger::Warn
FUNC 169d8 125 0 Logger::Error
FUNC 16afe 20d 0 Logger::Error
FUNC 16d0c 125 0 Logger::Fatal
FUNC 16e32 20d 0 Logger::Fatal
FUNC 17040 bc 0 Logger::GetInstance
FUNC 170fc 164 0 Logger::Log
FUNC 17260 24a 0 Logger::Log
FUNC 174aa 266 0 Logger::Log
FUNC 17710 b 0 Logger::GetInstancePtr
FUNC 1771c 354 0 Logger::Log
FUNC 17a70 85 0 LogMessage::LogMessage
FUNC 17af6 86 0 LogMessage::~LogMessage
FUNC 17b7c 26 0 LogMessage::~LogMessage
FUNC 17ba2 4e 0 __static_initialization_and_destruction_0
FUNC 17bf0 15 0 _GLOBAL__I_Logger.cpp
FUNC 17c06 35 0 ILogger::~ILogger
FUNC 17c3c 26 0 ILogger::~ILogger
FUNC 17c62 12 0 Logger::stream
FUNC 17c74 12c 0 FileHelper::CreateDir
FUNC 17da0 1c 0 ILogger::ILogger
FUNC 17dbc eb 0 MemCache::MemCache
FUNC 17ea8 80 0 MemCache::~MemCache
FUNC 17f28 26 0 MemCache::~MemCache
FUNC 17f4e 74 0 MemCache::GetInstance
FUNC 17fc2 4bc 0 MemCache::Init
FUNC 1847e af 0 MemCache::GetFunction
FUNC 1852e 1a2 0 MemCache::WritePointsValue_V
FUNC 186d0 2b 0 MemCache::Post
FUNC 186fc 3c 0 MemCache::Free
FUNC 18738 ca 0 __static_initialization_and_destruction_0
FUNC 18802 15 0 _GLOBAL__I_MemCache.cpp
FUNC 18818 14 0 Config::GetRedisPostName
FUNC 1882c 15 0 Config::GetRedisPostSize
FUNC 18842 39 0 std::vector<Tag, std::allocator<Tag> >::operator[]
FUNC 1887c 2d 0 std::vector<Tag, std::allocator<Tag> >::size
FUNC 188ac 2c 0 Serial485ClientService::Serial485ClientService
FUNC 188d8 41 0 Serial485ClientService::~Serial485ClientService
FUNC 1891a 26 0 Serial485ClientService::~Serial485ClientService
FUNC 18940 141 0 Serial485ClientService::Start
FUNC 18a82 385 0 Serial485ClientService::Read
FUNC 18e07 48 0 __static_initialization_and_destruction_0
FUNC 18e4f 15 0 _GLOBAL__I_Serial485ClientService.cpp
FUNC 18e64 109 0 SerialNet::SerialNet
FUNC 18f6e e3 0 SerialNet::~SerialNet
FUNC 19052 26 0 SerialNet::~SerialNet
FUNC 19078 485 0 SerialNet::Connect
FUNC 194fe af 0 SerialNet::GetFunction
FUNC 195ae 312 0 SerialNet::Read
FUNC 198c0 b3 0 SerialNet::Write
FUNC 19974 2c 0 SerialNet::DisConnect
FUNC 199a0 2b2 0 SerialNet::SetSpeed
FUNC 19c52 35a 0 SerialNet::SetParity
FUNC 19fac 42 0 SerialNet::SumCheck
FUNC 19fee 112 0 SerialNet::ToHexString
FUNC 1a100 48 0 __static_initialization_and_destruction_0
FUNC 1a148 15 0 _GLOBAL__I_SerialNet.cpp
FUNC 1a160 cd 0 SerialService::SerialService
FUNC 1a22e b1 0 SerialService::~SerialService
FUNC 1a2e0 26 0 SerialService::~SerialService
FUNC 1a306 221 0 SerialService::Start
FUNC 1a528 67e 0 SerialService::Write
FUNC 1aba6 57d 0 SerialService::Read
FUNC 1b124 9c 0 SerialService::ParseRecvData
FUNC 1b1c0 b0 0 SerialService::ParseFixedData
FUNC 1b270 213 0 SerialService::ParseVariableData
FUNC 1b484 189 0 SerialService::InitConfig
FUNC 1b60d 48 0 __static_initialization_and_destruction_0
FUNC 1b655 15 0 _GLOBAL__I_SerialService.cpp
FUNC 1b66a 33 0 Config::GetSerialPortPath
FUNC 1b69e 11 0 Config::GetSpeed
FUNC 1b6b0 11 0 Config::GetDatabits
FUNC 1b6c2 11 0 Config::GetStopbits
FUNC 1b6d4 12 0 Config::GetParity
FUNC 1b6e6 12 0 Config::GetClientAddr
FUNC 1b6f8 33 0 Config::GetIp
FUNC 1b72c 12 0 Config::GetTcpPort
FUNC 1b73e 15 0 Config::GetOutTime
FUNC 1b754 1a 0 std::vector<char, std::allocator<char> >::vector
FUNC 1b76e 6e 0 std::vector<char, std::allocator<char> >::~vector
FUNC 1b7dc 229 0 std::vector<char, std::allocator<char> >::operator=
FUNC 1ba06 11 0 std::vector<char, std::allocator<char> >::data
FUNC 1ba18 25 0 std::vector<char, std::allocator<char> >::size
FUNC 1ba3e 1f 0 std::vector<short unsigned int, std::allocator<short unsigned int> >::operator[]
FUNC 1ba5e 1a 0 std::_Vector_base<char, std::allocator<char> >::_Vector_impl::~_Vector_impl
FUNC 1ba78 1a 0 std::_Vector_base<char, std::allocator<char> >::_Vector_base
FUNC 1ba92 79 0 std::_Vector_base<char, std::allocator<char> >::~_Vector_base
FUNC 1bb0c e 0 std::_Vector_base<char, std::allocator<char> >::_M_get_Tp_allocator
FUNC 1bb1a 29 0 std::_Destroy<char*, char>
FUNC 1bb44 25 0 std::vector<char, std::allocator<char> >::capacity
FUNC 1bb6a 30 0 std::vector<char, std::allocator<char> >::begin
FUNC 1bb9a 31 0 std::vector<char, std::allocator<char> >::end
FUNC 1bbcc a1 0 std::vector<char, std::allocator<char> >::_M_allocate_and_copy<__gnu_cxx::__normal_iterator<const char*, std::vector<char, std::allocator<char> > > >
FUNC 1bc6e 34 0 std::_Vector_base<char, std::allocator<char> >::_M_deallocate
FUNC 1bca2 25 0 std::vector<char, std::allocator<char> >::begin
FUNC 1bcc7 46 0 std::copy<__gnu_cxx::__normal_iterator<const char*, std::vector<char, std::allocator<char> > >, __gnu_cxx::__normal_iterator<char*, std::vector<char, std::allocator<char> > > >
FUNC 1bd0e 29 0 std::vector<char, std::allocator<char> >::end
FUNC 1bd37 29 0 std::_Destroy<__gnu_cxx::__normal_iterator<char*, std::vector<char, std::allocator<char> > >, char>
FUNC 1bd60 46 0 std::copy<char*, char*>
FUNC 1bda6 31 0 std::__uninitialized_copy_a<char*, char*, char>
FUNC 1bdd8 3d 0 std::_Vector_base<char, std::allocator<char> >::_Vector_impl::_Vector_impl
FUNC 1be15 25 0 std::_Destroy<char*>
FUNC 1be3a 1c 0 __gnu_cxx::__normal_iterator<const char*, std::vector<char, std::allocator<char> > >::__normal_iterator
FUNC 1be56 38 0 std::_Vector_base<char, std::allocator<char> >::_M_allocate
FUNC 1be8e 31 0 std::__uninitialized_copy_a<__gnu_cxx::__normal_iterator<const char*, std::vector<char, std::allocator<char> > >, char*, char>
FUNC 1bec0 22 0 __gnu_cxx::new_allocator<char>::deallocate
FUNC 1bee2 1c 0 __gnu_cxx::__normal_iterator<char*, std::vector<char, std::allocator<char> > >::__normal_iterator
FUNC 1befe e 0 std::__miter_base<__gnu_cxx::__normal_iterator<const char*, std::vector<char, std::allocator<char> > >, false>::__b
FUNC 1bf0c 73 0 std::__copy_move_a2<false, __gnu_cxx::__normal_iterator<const char*, std::vector<char, std::allocator<char> > >, __gnu_cxx::__normal_iterator<char*, std::vector<char, std::allocator<char> > > >
FUNC 1bf7f 25 0 std::_Destroy<__gnu_cxx::__normal_iterator<char*, std::vector<char, std::allocator<char> > > >
FUNC 1bfa4 e 0 std::__miter_base<char*, false>::__b
FUNC 1bfb2 58 0 std::__copy_move_a2<false, char*, char*>
FUNC 1c00a 2d 0 std::uninitialized_copy<char*, char*>
FUNC 1c037 e 0 std::_Destroy_aux<true>::__destroy<char*>
FUNC 1c046 47 0 __gnu_cxx::new_allocator<char>::allocate
FUNC 1c08d 2d 0 std::uninitialized_copy<__gnu_cxx::__normal_iterator<const char*, std::vector<char, std::allocator<char> > >, char*>
FUNC 1c0ba 1d 0 std::__niter_base<__gnu_cxx::__normal_iterator<const char*, std::vector<char, std::allocator<char> > >, true>::__b
FUNC 1c0d7 1d 0 std::__niter_base<__gnu_cxx::__normal_iterator<char*, std::vector<char, std::allocator<char> > >, true>::__b
FUNC 1c0f4 31 0 std::__copy_move_a<false, const char*, char*>
FUNC 1c125 e 0 std::_Destroy_aux<true>::__destroy<__gnu_cxx::__normal_iterator<char*, std::vector<char, std::allocator<char> > > >
FUNC 1c133 e 0 std::__niter_base<char*, false>::__b
FUNC 1c141 31 0 std::__copy_move_a<false, char*, char*>
FUNC 1c172 2d 0 std::__uninitialized_copy<true>::uninitialized_copy<char*, char*>
FUNC 1c1a0 11 0 __gnu_cxx::new_allocator<char>::max_size
FUNC 1c1b1 2d 0 std::__uninitialized_copy<true>::uninitialized_copy<__gnu_cxx::__normal_iterator<const char*, std::vector<char, std::allocator<char> > >, char*>
FUNC 1c1de e 0 __gnu_cxx::__normal_iterator<const char*, std::vector<char, std::allocator<char> > >::base
FUNC 1c1ec e 0 __gnu_cxx::__normal_iterator<char*, std::vector<char, std::allocator<char> > >::base
FUNC 1c1fa 52 0 std::__copy_move<false, true, std::random_access_iterator_tag>::__copy_m<char>
FUNC 1c24c 46 0 std::copy<__gnu_cxx::__normal_iterator<const char*, std::vector<char, std::allocator<char> > >, char*>
FUNC 1c292 58 0 std::__copy_move_a2<false, __gnu_cxx::__normal_iterator<const char*, std::vector<char, std::allocator<char> > >, char*>
FUNC 1c2ec cf 0 Service::Service
FUNC 1c3bc ad 0 Service::~Service
FUNC 1c46a 26 0 Service::~Service
FUNC 1c490 a 0 Service::InitConfig
FUNC 1c49a 2a 0 Service::Init
FUNC 1c4c4 1f2 0 Service::Start
FUNC 1c6b6 837 0 Service::Write
FUNC 1ceee 494 0 Service::Read
FUNC 1d382 177 0 Service::ParseRecvData
FUNC 1d4fa 6d 0 Service::ParseFixedData
FUNC 1d568 181 0 Service::ParseVariableData
FUNC 1d6ea 47 0 Service::CmdResetCon
FUNC 1d732 47 0 Service::CmdResetNum
FUNC 1d77a 4b 0 Service::CmdGetDataLv1
FUNC 1d7c6 4b 0 Service::CmdGetDataLv2
FUNC 1d812 13a 0 Service::CmdFixedData
FUNC 1d94c 3ad 0 Service::CmdSetTimeStamp
FUNC 1dcfa 22c 0 Service::CmdResetEventAlarm
FUNC 1df26 347 0 Service::CmdSettingDownload
FUNC 1e26e 347 0 Service::CmdSettingModify
FUNC 1e5b6 23f 0 Service::CmdGetAll
FUNC 1e7f6 26d 0 Service::CmdGetGroupValue
FUNC 1ea64 273 0 Service::CmdGetEntryValue
FUNC 1ecd8 42 0 Service::SumCheck
FUNC 1ed1a 388 0 Service::ParseASDU44
FUNC 1f0a2 2fe 0 Service::ParseASDU40
FUNC 1f3a0 3c 0 Service::ParseASDU41
FUNC 1f3dc 33e 0 Service::ParseASDU42
FUNC 1f71a 465 0 Service::ParseASDU50
FUNC 1fb80 3fa 0 Service::ParseASDU1
FUNC 1ff7a 470 0 Service::ParseASDU2
FUNC 203ea 124 0 Service::GetGlobalAddrByPrivateAddr
FUNC 2050e a3 0 Service::GetRateByPrivateAddr
FUNC 205b2 112 0 Service::ToHexString
FUNC 206c4 4dc 0 Service::InitPointAddrMap
FUNC 20ba0 a4 0 Service::StartBreakHeart
FUNC 20c44 db 0 Service::ThreadFunc
FUNC 20d20 1a7 0 Service::ParseASDU10
FUNC 20ec8 491 0 Service::ParseASDU10AllValue
FUNC 21359 ca 0 __static_initialization_and_destruction_0
FUNC 21423 15 0 _GLOBAL__I_Service.cpp
FUNC 21438 15 0 Config::GetId
FUNC 2144e 14 0 Config::GetIedName
FUNC 21462 66 0 Tag::Tag
FUNC 214c8 50 0 Tag::~Tag
FUNC 21518 63 0 Tag::operator=
FUNC 2157c 8b 0 Tag::ZeroTag
FUNC 21608 1a 0 std::map<std::basic_string<char, std::char_traits<char>, std::allocator<char> >, Service::Point103, std::less<std::basic_string<char, std::char_traits<char>, std::allocator<char> > >, std::allocator<std::pair<const std::basic_string<char, std::char_traits<char>, std::allocator<char> >, Service::Point103> > >::~map
FUNC 21622 1e 0 Service::Point103::Point103
FUNC 21640 1e 0 Service::Point103::~Point103
FUNC 2165e 39 0 Service::Point103::Point103
FUNC 21698 1e 0 std::pair<char*, Service::Point103>::~pair
FUNC 216b6 55 0 std::pair<const std::basic_string<char, std::char_traits<char>, std::allocator<char> >, Service::Point103>::~pair
FUNC 2170c 1a 0 std::vector<Tag, std::allocator<Tag> >::vector
FUNC 21726 6e 0 std::vector<Tag, std::allocator<Tag> >::~vector
FUNC 21794 1a 0 std::map<std::basic_string<char, std::char_traits<char>, std::allocator<char> >, Service::Point103, std::less<std::basic_string<char, std::char_traits<char>, std::allocator<char> > >, std::allocator<std::pair<const std::basic_string<char, std::char_traits<char>, std::allocator<char> >, Service::Point103> > >::map
FUNC 217ae 1a 0 std::_Rb_tree<std::basic_string<char, std::char_traits<char>, std::allocator<char> >, std::pair<const std::basic_string<char, std::char_traits<char>, std::allocator<char> >, Service::Point103>, std::_Select1st<std::pair<const std::basic_string<char, std::char_traits<char>, std::allocator<char> >, Service::Point103> >, std::less<std::basic_string<char, std::char_traits<char>, std::allocator<char> > >, std::allocator<std::pair<const std::basic_string<char, std::char_traits<char>, std::allocator<char> >, Service::Point103> > >::_Rb_tree_impl<std::less<std::basic_string<char, std::char_traits<char>, std::allocator<char> > >, false>::~_Rb_tree_impl
FUNC 217c8 63 0 std::_Rb_tree<std::basic_string<char, std::char_traits<char>, std::allocator<char> >, std::pair<const std::basic_string<char, std::char_traits<char>, std::allocator<char> >, Service::Point103>, std::_Select1st<std::pair<const std::basic_string<char, std::char_traits<char>, std::allocator<char> >, Service::Point103> >, std::less<std::basic_string<char, std::char_traits<char>, std::allocator<char> > >, std::allocator<std::pair<const std::basic_string<char, std::char_traits<char>, std::allocator<char> >, Service::Point103> > >::~_Rb_tree
FUNC 2182c 73 0 std::vector<char, std::allocator<char> >::vector
FUNC 218a0 19 0 std::vector<char, std::allocator<char> >::operator[]
FUNC 218ba 7d 0 std::vector<Tag, std::allocator<Tag> >::push_back
FUNC 21938 41 0 std::vector<Tag, std::allocator<Tag> >::empty
FUNC 2197a 25 0 std::map<std::basic_string<char, std::char_traits<char>, std::allocator<char> >, Service::Point103, std::less<std::basic_string<char, std::char_traits<char>, std::allocator<char> > >, std::allocator<std::pair<const std::basic_string<char, std::char_traits<char>, std::allocator<char> >, Service::Point103> > >::find
FUNC 219a0 1c 0 std::_Rb_tree_const_iterator<std::pair<const std::basic_string<char, std::char_traits<char>, std::allocator<char> >, Service::Point103> >::_Rb_tree_const_iterator
FUNC 219bc 1a 0 std::map<std::basic_string<char, std::char_traits<char>, std::allocator<char> >, Service::Point103, std::less<std::basic_string<char, std::char_traits<char>, std::allocator<char> > >, std::allocator<std::pair<const std::basic_string<char, std::char_traits<char>, std::allocator<char> >, Service::Point103> > >::end
FUNC 219d6 22 0 std::_Rb_tree_const_iterator<std::pair<const std::basic_string<char, std::char_traits<char>, std::allocator<char> >, Service::Point103> >::operator!=
FUNC 219f8 15 0 std::_Rb_tree_const_iterator<std::pair<const std::basic_string<char, std::char_traits<char>, std::allocator<char> >, Service::Point103> >::operator->
FUNC 21a0e 1a 0 std::map<std::basic_string<char, std::char_traits<char>, std::allocator<char> >, Service::Point103, std::less<std::basic_string<char, std::char_traits<char>, std::allocator<char> > >, std::allocator<std::pair<const std::basic_string<char, std::char_traits<char>, std::allocator<char> >, Service::Point103> > >::clear
FUNC 21a28 37 0 std::make_pair<char*, Service::Point103>
FUNC 21a60 ab 0 std::pair<const std::basic_string<char, std::char_traits<char>, std::allocator<char> >, Service::Point103>::pair<char*, Service::Point103>
FUNC 21b0c 47 0 std::map<std::basic_string<char, std::char_traits<char>, std::allocator<char> >, Service::Point103, std::less<std::basic_string<char, std::char_traits<char>, std::allocator<char> > >, std::allocator<std::pair<const std::basic_string<char, std::char_traits<char>, std::allocator<char> >, Service::Point103> > >::insert
FUNC 21b54 1a 0 std::map<std::basic_string<char, std::char_traits<char>, std::allocator<char> >, Service::Point103, std::less<std::basic_string<char, std::char_traits<char>, std::allocator<char> > >, std::allocator<std::pair<const std::basic_string<char, std::char_traits<char>, std::allocator<char> >, Service::Point103> > >::size
FUNC 21b6e 1a 0 std::_Vector_base<Tag, std::allocator<Tag> >::_Vector_impl::~_Vector_impl
FUNC 21b88 1a 0 std::_Vector_base<Tag, std::allocator<Tag> >::_Vector_base
FUNC 21ba2 81 0 std::_Vector_base<Tag, std::allocator<Tag> >::~_Vector_base
FUNC 21c24 e 0 std::_Vector_base<Tag, std::allocator<Tag> >::_M_get_Tp_allocator
FUNC 21c32 29 0 std::_Destroy<Tag*, Tag>
FUNC 21c5c 1a 0 std::_Rb_tree<std::basic_string<char, std::char_traits<char>, std::allocator<char> >, std::pair<const std::basic_string<char, std::char_traits<char>, std::allocator<char> >, Service::Point103>, std::_Select1st<std::pair<const std::basic_string<char, std::char_traits<char>, std::allocator<char> >, Service::Point103> >, std::less<std::basic_string<char, std::char_traits<char>, std::allocator<char> > >, std::allocator<std::pair<const std::basic_string<char, std::char_traits<char>, std::allocator<char> >, Service::Point103> > >::_Rb_tree
FUNC 21c76 1a 0 std::allocator<std::_Rb_tree_node<std::pair<const std::basic_string<char, std::char_traits<char>, std::allocator<char> >, Service::Point103> > >::~allocator
FUNC 21c90 69 0 std::_Rb_tree<std::basic_string<char, std::char_traits<char>, std::allocator<char> >, std::pair<const std::basic_string<char, std::char_traits<char>, std::allocator<char> >, Service::Point103>, std::_Select1st<std::pair<const std::basic_string<char, std::char_traits<char>, std::allocator<char> >, Service::Point103> >, std::less<std::basic_string<char, std::char_traits<char>, std::allocator<char> > >, std::allocator<std::pair<const std::basic_string<char, std::char_traits<char>, std::allocator<char> >, Service::Point103> > >::_M_erase
FUNC 21cfa 12 0 std::_Rb_tree<std::basic_string<char, std::char_traits<char>, std::allocator<char> >, std::pair<const std::basic_string<char, std::char_traits<char>, std::allocator<char> >, Service::Point103>, std::_Select1st<std::pair<const std::basic_string<char, std::char_traits<char>, std::allocator<char> >, Service::Point103> >, std::less<std::basic_string<char, std::char_traits<char>, std::allocator<char> > >, std::allocator<std::pair<const std::basic_string<char, std::char_traits<char>, std::allocator<char> >, Service::Point103> > >::_M_begin
FUNC 21d0c 91 0 std::_Vector_base<char, std::allocator<char> >::_Vector_base
FUNC 21d9e 55 0 std::vector<char, std::allocator<char> >::_M_fill_initialize
FUNC 21df4 e2 0 __gnu_cxx::new_allocator<Tag>::construct
FUNC 21ed6 42b 0 std::vector<Tag, std::allocator<Tag> >::_M_insert_aux
FUNC 22302 29 0 std::vector<Tag, std::allocator<Tag> >::end
FUNC 2232c 31 0 std::vector<Tag, std::allocator<Tag> >::end
FUNC 2235e 30 0 std::vector<Tag, std::allocator<Tag> >::begin
FUNC 2238e 3c 0 __gnu_cxx::operator==<const Tag*, std::vector<Tag, std::allocator<Tag> > >
FUNC 223ca b6 0 std::_Rb_tree<std::basic_string<char, std::char_traits<char>, std::allocator<char> >, std::pair<const std::basic_string<char, std::char_traits<char>, std::allocator<char> >, Service::Point103>, std::_Select1st<std::pair<const std::basic_string<char, std::char_traits<char>, std::allocator<char> >, Service::Point103> >, std::less<std::basic_string<char, std::char_traits<char>, std::allocator<char> > >, std::allocator<std::pair<const std::basic_string<char, std::char_traits<char>, std::allocator<char> >, Service::Point103> > >::find
FUNC 22480 2c 0 std::_Rb_tree<std::basic_string<char, std::char_traits<char>, std::allocator<char> >, std::pair<const std::basic_string<char, std::char_traits<char>, std::allocator<char> >, Service::Point103>, std::_Select1st<std::pair<const std::basic_string<char, std::char_traits<char>, std::allocator<char> >, Service::Point103> >, std::less<std::basic_string<char, std::char_traits<char>, std::allocator<char> > >, std::allocator<std::pair<const std::basic_string<char, std::char_traits<char>, std::allocator<char> >, Service::Point103> > >::end
FUNC 224ac 8d 0 std::_Rb_tree<std::basic_string<char, std::char_traits<char>, std::allocator<char> >, std::pair<const std::basic_string<char, std::char_traits<char>, std::allocator<char> >, Service::Point103>, std::_Select1st<std::pair<const std::basic_string<char, std::char_traits<char>, std::allocator<char> >, Service::Point103> >, std::less<std::basic_string<char, std::char_traits<char>, std::allocator<char> > >, std::allocator<std::pair<const std::basic_string<char, std::char_traits<char>, std::allocator<char> >, Service::Point103> > >::clear
FUNC 2253a 3b 0 std::pair<char*, Service::Point103>::pair
FUNC 22576 271 0 std::_Rb_tree<std::basic_string<char, std::char_traits<char>, std::allocator<char> >, std::pair<const std::basic_string<char, std::char_traits<char>, std::allocator<char> >, Service::Point103>, std::_Select1st<std::pair<const std::basic_string<char, std::char_traits<char>, std::allocator<char> >, Service::Point103> >, std::less<std::basic_string<char, std::char_traits<char>, std::allocator<char> > >, std::allocator<std::pair<const std::basic_string<char, std::char_traits<char>, std::allocator<char> >, Service::Point103> > >::_M_insert_unique
FUNC 227e8 12 0 std::_Rb_tree<std::basic_string<char, std::char_traits<char>, std::allocator<char> >, std::pair<const std::basic_string<char, std::char_traits<char>, std::allocator<char> >, Service::Point103>, std::_Select1st<std::pair<const std::basic_string<char, std::char_traits<char>, std::allocator<char> >, Service::Point103> >, std::less<std::basic_string<char, std::char_traits<char>, std::allocator<char> > >, std::allocator<std::pair<const std::basic_string<char, std::char_traits<char>, std::allocator<char> >, Service::Point103> > >::size
FUNC 227fa 3d 0 std::_Vector_base<Tag, std::allocator<Tag> >::_Vector_impl::_Vector_impl
FUNC 22838 1a 0 std::allocator<Tag>::~allocator
FUNC 22852 34 0 std::_Vector_base<Tag, std::allocator<Tag> >::_M_deallocate
FUNC 22886 25 0 std::_Destroy<Tag*>
FUNC 228ac 8c 0 std::_Rb_tree<std::basic_string<char, std::char_traits<char>, std::allocator<char> >, std::pair<const std::basic_string<char, std::char_traits<char>, std::allocator<char> >, Service::Point103>, std::_Select1st<std::pair<const std::basic_string<char, std::char_traits<char>, std::allocator<char> >, Service::Point103> >, std::less<std::basic_string<char, std::char_traits<char>, std::allocator<char> > >, std::allocator<std::pair<const std::basic_string<char, std::char_traits<char>, std::allocator<char> >, Service::Point103> > >::_Rb_tree_impl<std::less<std::basic_string<char, std::char_traits<char>, std::allocator<char> > >, false>::_Rb_tree_impl
FUNC 22938 a 0 __gnu_cxx::new_allocator<std::_Rb_tree_node<std::pair<const std::basic_string<char, std::char_traits<char>, std::allocator<char> >, Service::Point103> > >::~new_allocator
FUNC 22942 12 0 std::_Rb_tree<std::basic_string<char, std::char_traits<char>, std::allocator<char> >, std::pair<const std::basic_string<char, std::char_traits<char>, std::allocator<char> >, Service::Point103>, std::_Select1st<std::pair<const std::basic_string<char, std::char_traits<char>, std::allocator<char> >, Service::Point103> >, std::less<std::basic_string<char, std::char_traits<char>, std::allocator<char> > >, std::allocator<std::pair<const std::basic_string<char, std::char_traits<char>, std::allocator<char> >, Service::Point103> > >::_S_right
FUNC 22954 12 0 std::_Rb_tree<std::basic_string<char, std::char_traits<char>, std::allocator<char> >, std::pair<const std::basic_string<char, std::char_traits<char>, std::allocator<char> >, Service::Point103>, std::_Select1st<std::pair<const std::basic_string<char, std::char_traits<char>, std::allocator<char> >, Service::Point103> >, std::less<std::basic_string<char, std::char_traits<char>, std::allocator<char> > >, std::allocator<std::pair<const std::basic_string<char, std::char_traits<char>, std::allocator<char> >, Service::Point103> > >::_S_left
FUNC 22966 86 0 std::_Rb_tree<std::basic_string<char, std::char_traits<char>, std::allocator<char> >, std::pair<const std::basic_string<char, std::char_traits<char>, std::allocator<char> >, Service::Point103>, std::_Select1st<std::pair<const std::basic_string<char, std::char_traits<char>, std::allocator<char> >, Service::Point103> >, std::less<std::basic_string<char, std::char_traits<char>, std::allocator<char> > >, std::allocator<std::pair<const std::basic_string<char, std::char_traits<char>, std::allocator<char> >, Service::Point103> > >::_M_destroy_node
FUNC 229ec 48 0 std::_Vector_base<char, std::allocator<char> >::_Vector_impl::_Vector_impl
FUNC 22a34 31 0 std::__uninitialized_fill_n_a<char*, long unsigned int, char, char>
FUNC 22a66 e 0 __gnu_cxx::__normal_iterator<Tag*, std::vector<Tag, std::allocator<Tag> > >::base
FUNC 22a74 46 0 std::copy_backward<Tag*, Tag*>
FUNC 22aba 11 0 __gnu_cxx::__normal_iterator<Tag*, std::vector<Tag, std::allocator<Tag> > >::operator*
FUNC 22acc ca 0 std::vector<Tag, std::allocator<Tag> >::_M_check_len
FUNC 22b96 25 0 std::vector<Tag, std::allocator<Tag> >::begin
FUNC 22bbb 4d 0 __gnu_cxx::operator-<Tag*, std::vector<Tag, std::allocator<Tag> > >
FUNC 22c08 38 0 std::_Vector_base<Tag, std::allocator<Tag> >::_M_allocate
FUNC 22c40 3b 0 std::__uninitialized_move_a<Tag*, Tag*, std::allocator<Tag> >
FUNC 22c7c 1e 0 __gnu_cxx::new_allocator<Tag>::destroy
FUNC 22c9a 1c 0 __gnu_cxx::__normal_iterator<Tag*, std::vector<Tag, std::allocator<Tag> > >::__normal_iterator
FUNC 22cb6 1c 0 __gnu_cxx::__normal_iterator<const Tag*, std::vector<Tag, std::allocator<Tag> > >::__normal_iterator
FUNC 22cd2 e 0 __gnu_cxx::__normal_iterator<const Tag*, std::vector<Tag, std::allocator<Tag> > >::base
FUNC 22ce0 12 0 std::_Rb_tree<std::basic_string<char, std::char_traits<char>, std::allocator<char> >, std::pair<const std::basic_string<char, std::char_traits<char>, std::allocator<char> >, Service::Point103>, std::_Select1st<std::pair<const std::basic_string<char, std::char_traits<char>, std::allocator<char> >, Service::Point103> >, std::less<std::basic_string<char, std::char_traits<char>, std::allocator<char> > >, std::allocator<std::pair<const std::basic_string<char, std::char_traits<char>, std::allocator<char> >, Service::Point103> > >::_M_end
FUNC 22cf2 92 0 std::_Rb_tree<std::basic_string<char, std::char_traits<char>, std::allocator<char> >, std::pair<const std::basic_string<char, std::char_traits<char>, std::allocator<char> >, Service::Point103>, std::_Select1st<std::pair<const std::basic_string<char, std::char_traits<char>, std::allocator<char> >, Service::Point103> >, std::less<std::basic_string<char, std::char_traits<char>, std::allocator<char> > >, std::allocator<std::pair<const std::basic_string<char, std::char_traits<char>, std::allocator<char> >, Service::Point103> > >::_M_lower_bound
FUNC 22d84 2c 0 std::_Rb_tree<std::basic_string<char, std::char_traits<char>, std::allocator<char> >, std::pair<const std::basic_string<char, std::char_traits<char>, std::allocator<char> >, Service::Point103>, std::_Select1st<std::pair<const std::basic_string<char, std::char_traits<char>, std::allocator<char> >, Service::Point103> >, std::less<std::basic_string<char, std::char_traits<char>, std::allocator<char> > >, std::allocator<std::pair<const std::basic_string<char, std::char_traits<char>, std::allocator<char> >, Service::Point103> > >::_S_key
FUNC 22db0 22 0 std::_Rb_tree_iterator<std::pair<const std::basic_string<char, std::char_traits<char>, std::allocator<char> >, Service::Point103> >::operator==
FUNC 22dd2 19 0 std::_Rb_tree_iterator<std::pair<const std::basic_string<char, std::char_traits<char>, std::allocator<char> >, Service::Point103> >::_Rb_tree_iterator
FUNC 22dec 12 0 std::_Rb_tree<std::basic_string<char, std::char_traits<char>, std::allocator<char> >, std::pair<const std::basic_string<char, std::char_traits<char>, std::allocator<char> >, Service::Point103>, std::_Select1st<std::pair<const std::basic_string<char, std::char_traits<char>, std::allocator<char> >, Service::Point103> >, std::less<std::basic_string<char, std::char_traits<char>, std::allocator<char> > >, std::allocator<std::pair<const std::basic_string<char, std::char_traits<char>, std::allocator<char> >, Service::Point103> > >::_M_leftmost
FUNC 22dfe 12 0 std::_Rb_tree<std::basic_string<char, std::char_traits<char>, std::allocator<char> >, std::pair<const std::basic_string<char, std::char_traits<char>, std::allocator<char> >, Service::Point103>, std::_Select1st<std::pair<const std::basic_string<char, std::char_traits<char>, std::allocator<char> >, Service::Point103> >, std::less<std::basic_string<char, std::char_traits<char>, std::allocator<char> > >, std::allocator<std::pair<const std::basic_string<char, std::char_traits<char>, std::allocator<char> >, Service::Point103> > >::_M_root
FUNC 22e10 12 0 std::_Rb_tree<std::basic_string<char, std::char_traits<char>, std::allocator<char> >, std::pair<const std::basic_string<char, std::char_traits<char>, std::allocator<char> >, Service::Point103>, std::_Select1st<std::pair<const std::basic_string<char, std::char_traits<char>, std::allocator<char> >, Service::Point103> >, std::less<std::basic_string<char, std::char_traits<char>, std::allocator<char> > >, std::allocator<std::pair<const std::basic_string<char, std::char_traits<char>, std::allocator<char> >, Service::Point103> > >::_M_rightmost
FUNC 22e22 12 0 std::_Select1st<std::pair<const std::basic_string<char, std::char_traits<char>, std::allocator<char> >, Service::Point103> >::operator()
FUNC 22e34 2c 0 std::_Rb_tree<std::basic_string<char, std::char_traits<char>, std::allocator<char> >, std::pair<const std::basic_string<char, std::char_traits<char>, std::allocator<char> >, Service::Point103>, std::_Select1st<std::pair<const std::basic_string<char, std::char_traits<char>, std::allocator<char> >, Service::Point103> >, std::less<std::basic_string<char, std::char_traits<char>, std::allocator<char> > >, std::allocator<std::pair<const std::basic_string<char, std::char_traits<char>, std::allocator<char> >, Service::Point103> > >::_S_key
FUNC 22e60 2c 0 std::_Rb_tree<std::basic_string<char, std::char_traits<char>, std::allocator<char> >, std::pair<const std::basic_string<char, std::char_traits<char>, std::allocator<char> >, Service::Point103>, std::_Select1st<std::pair<const std::basic_string<char, std::char_traits<char>, std::allocator<char> >, Service::Point103> >, std::less<std::basic_string<char, std::char_traits<char>, std::allocator<char> > >, std::allocator<std::pair<const std::basic_string<char, std::char_traits<char>, std::allocator<char> >, Service::Point103> > >::begin
FUNC 22e8c e3 0 std::_Rb_tree<std::basic_string<char, std::char_traits<char>, std::allocator<char> >, std::pair<const std::basic_string<char, std::char_traits<char>, std::allocator<char> >, Service::Point103>, std::_Select1st<std::pair<const std::basic_string<char, std::char_traits<char>, std::allocator<char> >, Service::Point103> >, std::less<std::basic_string<char, std::char_traits<char>, std::allocator<char> > >, std::allocator<std::pair<const std::basic_string<char, std::char_traits<char>, std::allocator<char> >, Service::Point103> > >::_M_insert_
FUNC 22f70 2e 0 std::pair<std::_Rb_tree_iterator<std::pair<const std::basic_string<char, std::char_traits<char>, std::allocator<char> >, Service::Point103> >, bool>::pair
FUNC 22f9e 28 0 std::_Rb_tree_iterator<std::pair<const std::basic_string<char, std::char_traits<char>, std::allocator<char> >, Service::Point103> >::operator--
FUNC 22fc6 1a 0 std::allocator<Tag>::allocator
FUNC 22fe0 a 0 __gnu_cxx::new_allocator<Tag>::~new_allocator
FUNC 22fea 22 0 __gnu_cxx::new_allocator<Tag>::deallocate
FUNC 2300c 37 0 std::_Destroy_aux<false>::__destroy<Tag*>
FUNC 23044 1a 0 std::allocator<std::_Rb_tree_node<std::pair<const std::basic_string<char, std::char_traits<char>, std::allocator<char> >, Service::Point103> > >::allocator
FUNC 2305e 41 0 std::_Rb_tree<std::basic_string<char, std::char_traits<char>, std::allocator<char> >, std::pair<const std::basic_string<char, std::char_traits<char>, std::allocator<char> >, Service::Point103>, std::_Select1st<std::pair<const std::basic_string<char, std::char_traits<char>, std::allocator<char> >, Service::Point103> >, std::less<std::basic_string<char, std::char_traits<char>, std::allocator<char> > >, std::allocator<std::pair<const std::basic_string<char, std::char_traits<char>, std::allocator<char> >, Service::Point103> > >::_Rb_tree_impl<std::less<std::basic_string<char, std::char_traits<char>, std::allocator<char> > >, false>::_M_initialize
FUNC 230a0 3b 0 std::_Rb_tree<std::basic_string<char, std::char_traits<char>, std::allocator<char> >, std::pair<const std::basic_string<char, std::char_traits<char>, std::allocator<char> >, Service::Point103>, std::_Select1st<std::pair<const std::basic_string<char, std::char_traits<char>, std::allocator<char> >, Service::Point103> >, std::less<std::basic_string<char, std::char_traits<char>, std::allocator<char> > >, std::allocator<std::pair<const std::basic_string<char, std::char_traits<char>, std::allocator<char> >, Service::Point103> > >::get_allocator
FUNC 230dc 1a 0 std::allocator<std::pair<const std::basic_string<char, std::char_traits<char>, std::allocator<char> >, Service::Point103> >::~allocator
FUNC 230f6 1e 0 __gnu_cxx::new_allocator<std::pair<const std::basic_string<char, std::char_traits<char>, std::allocator<char> >, Service::Point103> >::destroy
FUNC 23114 2a 0 std::_Rb_tree<std::basic_string<char, std::char_traits<char>, std::allocator<char> >, std::pair<const std::basic_string<char, std::char_traits<char>, std::allocator<char> >, Service::Point103>, std::_Select1st<std::pair<const std::basic_string<char, std::char_traits<char>, std::allocator<char> >, Service::Point103> >, std::less<std::basic_string<char, std::char_traits<char>, std::allocator<char> > >, std::allocator<std::pair<const std::basic_string<char, std::char_traits<char>, std::allocator<char> >, Service::Point103> > >::_M_put_node
FUNC 2313e 2d 0 std::uninitialized_fill_n<char*, long unsigned int, char>
FUNC 2316b e 0 std::__miter_base<Tag*, false>::__b
FUNC 23179 58 0 std::__copy_move_backward_a2<false, Tag*, Tag*>
FUNC 231d2 22 0 std::vector<Tag, std::allocator<Tag> >::max_size
FUNC 231f4 63 0 __gnu_cxx::new_allocator<Tag>::allocate
FUNC 23257 31 0 std::__uninitialized_copy_a<Tag*, Tag*, Tag>
FUNC 23288 12 0 std::_Rb_tree<std::basic_string<char, std::char_traits<char>, std::allocator<char> >, std::pair<const std::basic_string<char, std::char_traits<char>, std::allocator<char> >, Service::Point103>, std::_Select1st<std::pair<const std::basic_string<char, std::char_traits<char>, std::allocator<char> >, Service::Point103> >, std::less<std::basic_string<char, std::char_traits<char>, std::allocator<char> > >, std::allocator<std::pair<const std::basic_string<char, std::char_traits<char>, std::allocator<char> >, Service::Point103> > >::_S_value
FUNC 2329a 12 0 std::_Rb_tree<std::basic_string<char, std::char_traits<char>, std::allocator<char> >, std::pair<const std::basic_string<char, std::char_traits<char>, std::allocator<char> >, Service::Point103>, std::_Select1st<std::pair<const std::basic_string<char, std::char_traits<char>, std::allocator<char> >, Service::Point103> >, std::less<std::basic_string<char, std::char_traits<char>, std::allocator<char> > >, std::allocator<std::pair<const std::basic_string<char, std::char_traits<char>, std::allocator<char> >, Service::Point103> > >::_S_value
FUNC 232ac bd 0 std::_Rb_tree<std::basic_string<char, std::char_traits<char>, std::allocator<char> >, std::pair<const std::basic_string<char, std::char_traits<char>, std::allocator<char> >, Service::Point103>, std::_Select1st<std::pair<const std::basic_string<char, std::char_traits<char>, std::allocator<char> >, Service::Point103> >, std::less<std::basic_string<char, std::char_traits<char>, std::allocator<char> > >, std::allocator<std::pair<const std::basic_string<char, std::char_traits<char>, std::allocator<char> >, Service::Point103> > >::_M_create_node
FUNC 2336a a 0 __gnu_cxx::new_allocator<Tag>::new_allocator
FUNC 23374 1a 0 std::_Destroy<Tag>
FUNC 2338e a 0 __gnu_cxx::new_allocator<std::_Rb_tree_node<std::pair<const std::basic_string<char, std::char_traits<char>, std::allocator<char> >, Service::Point103> > >::new_allocator
FUNC 23398 e 0 std::_Rb_tree<std::basic_string<char, std::char_traits<char>, std::allocator<char> >, std::pair<const std::basic_string<char, std::char_traits<char>, std::allocator<char> >, Service::Point103>, std::_Select1st<std::pair<const std::basic_string<char, std::char_traits<char>, std::allocator<char> >, Service::Point103> >, std::less<std::basic_string<char, std::char_traits<char>, std::allocator<char> > >, std::allocator<std::pair<const std::basic_string<char, std::char_traits<char>, std::allocator<char> >, Service::Point103> > >::_M_get_Node_allocator
FUNC 233a6 1e 0 std::allocator<std::pair<const std::basic_string<char, std::char_traits<char>, std::allocator<char> >, Service::Point103> >::allocator<std::_Rb_tree_node<std::pair<const std::basic_string<char, std::char_traits<char>, std::allocator<char> >, Service::Point103> > >
FUNC 233c4 a 0 __gnu_cxx::new_allocator<std::pair<const std::basic_string<char, std::char_traits<char>, std::allocator<char> >, Service::Point103> >::~new_allocator
FUNC 233ce 22 0 __gnu_cxx::new_allocator<std::_Rb_tree_node<std::pair<const std::basic_string<char, std::char_traits<char>, std::allocator<char> >, Service::Point103> > >::deallocate
FUNC 233f0 2d 0 std::__uninitialized_fill_n<true>::uninitialized_fill_n<char*, long unsigned int, char>
FUNC 2341d e 0 std::__niter_base<Tag*, false>::__b
FUNC 2342b 31 0 std::__copy_move_backward_a<false, Tag*, Tag*>
FUNC 2345c e 0 std::_Vector_base<Tag, std::allocator<Tag> >::_M_get_Tp_allocator
FUNC 2346a 14 0 __gnu_cxx::new_allocator<Tag>::max_size
FUNC 2347e 2d 0 std::uninitialized_copy<Tag*, Tag*>
FUNC 234ac 24 0 std::_Rb_tree<std::basic_string<char, std::char_traits<char>, std::allocator<char> >, std::pair<const std::basic_string<char, std::char_traits<char>, std::allocator<char> >, Service::Point103>, std::_Select1st<std::pair<const std::basic_string<char, std::char_traits<char>, std::allocator<char> >, Service::Point103> >, std::less<std::basic_string<char, std::char_traits<char>, std::allocator<char> > >, std::allocator<std::pair<const std::basic_string<char, std::char_traits<char>, std::allocator<char> >, Service::Point103> > >::_M_get_node
FUNC 234d0 6b 0 std::pair<const std::basic_string<char, std::char_traits<char>, std::allocator<char> >, Service::Point103>::pair
FUNC 2353c 77 0 __gnu_cxx::new_allocator<std::pair<const std::basic_string<char, std::char_traits<char>, std::allocator<char> >, Service::Point103> >::construct
FUNC 235b4 a 0 __gnu_cxx::new_allocator<std::pair<const std::basic_string<char, std::char_traits<char>, std::allocator<char> >, Service::Point103> >::new_allocator
FUNC 235be 35 0 std::fill_n<char*, long unsigned int, char>
FUNC 235f3 6d 0 std::__copy_move_backward<false, false, std::random_access_iterator_tag>::__copy_move_b<Tag*, Tag*>
FUNC 23660 98 0 std::__uninitialized_copy<false>::uninitialized_copy<Tag*, Tag*>
FUNC 236f8 5c 0 __gnu_cxx::new_allocator<std::_Rb_tree_node<std::pair<const std::basic_string<char, std::char_traits<char>, std::allocator<char> >, Service::Point103> > >::allocate
FUNC 23754 41 0 std::__fill_n_a<long unsigned int, char>
FUNC 23795 de 0 std::_Construct<Tag, Tag>
FUNC 23874 14 0 __gnu_cxx::new_allocator<std::_Rb_tree_node<std::pair<const std::basic_string<char, std::char_traits<char>, std::allocator<char> >, Service::Point103> > >::max_size
FUNC 23888 49 0 std::__fill_a<char>
FUNC 238d4 db 0 TcpNet::TcpNet
FUNC 239b0 7c 0 TcpNet::~TcpNet
FUNC 23a2c 26 0 TcpNet::~TcpNet
FUNC 23a52 17d 0 TcpNet::Connect
FUNC 23bd0 15d 0 TcpNet::Read
FUNC 23d2e e8 0 TcpNet::Write
FUNC 23e16 2c 0 TcpNet::DisConnect
FUNC 23e42 48 0 __static_initialization_and_destruction_0
FUNC 23e8a 15 0 _GLOBAL__I_TcpNet.cpp
FUNC 23ea0 91 0 TcpService::TcpService
FUNC 23f32 7e 0 TcpService::~TcpService
FUNC 23fb0 26 0 TcpService::~TcpService
FUNC 23fd6 18f 0 TcpService::Start
FUNC 24166 622 0 TcpService::Write
FUNC 24788 581 0 TcpService::Read
FUNC 24d0a 20b 0 TcpService::ParseRecvData
FUNC 24f16 11f 0 TcpService::CmdConnection
FUNC 25036 11f 0 TcpService::CmdGetTest1
FUNC 25156 11f 0 TcpService::CmdGetTest2
FUNC 25276 2a7 0 TcpService::CmdGetAll
FUNC 2551e 2e1 0 TcpService::CmdGetGroupData
FUNC 25800 15b 0 TcpService::ParseVariableData
FUNC 2595c 379 0 TcpService::ParseASDU1
FUNC 25cd6 120 0 TcpService::ParseASDU10
FUNC 25df6 82f 0 TcpService::ParseASDU10AllValue
FUNC 26626 2fe 0 TcpService::ParseASDU40
FUNC 26924 3c 0 TcpService::ParseASDU41
FUNC 26960 391 0 TcpService::ParseASDU42
FUNC 26cf2 388 0 TcpService::ParseASDU44
FUNC 2707a 465 0 TcpService::ParseASDU50
FUNC 274e0 8e 0 TcpService::InitConfig
FUNC 2756e 14 0 TcpService::GetSendID
FUNC 27582 14 0 TcpService::GetRecvID
FUNC 27596 ca 0 __static_initialization_and_destruction_0
FUNC 27660 15 0 _GLOBAL__I_TcpService.cpp
FUNC 27678 107 0 UdpNet::UdpNet
FUNC 27780 7c 0 UdpNet::~UdpNet
FUNC 277fc 26 0 UdpNet::~UdpNet
FUNC 27822 139 0 UdpNet::Connect
FUNC 2795c c3 0 UdpNet::Read
FUNC 27a20 ce 0 UdpNet::Write
FUNC 27aee 2c 0 UdpNet::DisConnect
FUNC 27b1a 48 0 __static_initialization_and_destruction_0
FUNC 27b62 15 0 _GLOBAL__I_UdpNet.cpp
FUNC 27b78 1c 0 WarningLib::WarningLib
FUNC 27b94 35 0 WarningLib::~WarningLib
FUNC 27bca 26 0 WarningLib::~WarningLib
FUNC 27bf0 74 0 WarningLib::GetInstance
FUNC 27c64 2f4 0 WarningLib::Init
FUNC 27f58 96 0 WarningLib::GetFunction
FUNC 27fee 2b 0 WarningLib::Start
FUNC 2801a 36 0 WarningLib::WriteWarn
FUNC 28050 63 0 WarningLib::WriteWarn2
FUNC 280b4 2b 0 WarningLib::Stop
FUNC 280e0 550 0 WgjXml::WgjXml
FUNC 28630 581 0 WgjXml::~WgjXml
FUNC 28bb2 6c 0 WgjXml::LoadXml
FUNC 28c1e a1 0 WgjXml::Get_Point61850
FUNC 28cc0 1f1 0 WgjXml::GetTransmitChannel
FUNC 28eb2 96 0 WgjXml::Get_61850
FUNC 28f48 1b8 0 WgjXml::GetRedisConnectionConfig
FUNC 29100 db 0 WgjXml::GetCollectionRedisInfo
FUNC 291dc 72 0 WgjXml::GetPcapConfigInfo
FUNC 2924e 6b 0 WgjXml::GetAllChannelName
FUNC 292ba f2 0 WgjXml::GetParseConfigInfo
FUNC 293ac be 0 WgjXml::GetIEC61850ServerPoint
FUNC 2946a 85 0 WgjXml::InitIEC103Xml
FUNC 294f0 36 0 WgjXml::GetIEC103Param
FUNC 29526 36 0 WgjXml::GetIEC103Point
FUNC 2955c bf 0 WgjXml::GetIEC104WFPoint
FUNC 2961c 89 0 WgjXml::GetIEC104WFParam
FUNC 296a6 89 0 WgjXml::Get61850IP
FUNC 29730 732 0 WgjXml::parse_61850
FUNC 29e62 68e 0 WgjXml::parse_Iec104
FUNC 2a4f0 55e 0 WgjXml::parse_Iec104Param
FUNC 2aa4e 452 0 WgjXml::parse_Iec103
FUNC 2aea0 215 0 WgjXml::find_RedisInfo
FUNC 2b0b6 178 0 WgjXml::get_AllChannel
FUNC 2b22e 62a 0 WgjXml::getParseConfigInfo
FUNC 2b858 2b0 0 WgjXml::GetDataStorageConfig
FUNC 2bb08 487 0 WgjXml::getPcapConfigInfo
FUNC 2bf90 35d 0 WgjXml::getIEC61850ServerPoint
FUNC 2c2ee 314 0 WgjXml::parse_61850IP
FUNC 2c602 40 0 __static_initialization_and_destruction_0
FUNC 2c642 15 0 _GLOBAL__I__ZN6WgjXmlC2Ev
FUNC 2c657 2e 0 std::_Rb_tree_node_base::_S_minimum
FUNC 2c685 2e 0 std::_Rb_tree_node_base::_S_maximum
FUNC 2c6b4 1a 0 TiXmlString::~TiXmlString
FUNC 2c6ce 15 0 TiXmlString::c_str
FUNC 2c6e4 38 0 TiXmlString::quit
FUNC 2c71c 1e 0 TiXmlNode::Value
FUNC 2c73a 1a 0 TiXmlNode::NextSiblingElement
FUNC 2c754 1a 0 TiXmlNode::FirstChildElement
FUNC 2c76e 18 0 TiXmlNode::NoChildren
FUNC 2c786 4a 0 TiXmlDocument::~TiXmlDocument
FUNC 2c7d0 26 0 TiXmlDocument::~TiXmlDocument
FUNC 2c7f6 1a 0 TiXmlDocument::RootElement
FUNC 2c810 1a 0 std::map<std::basic_string<char, std::char_traits<char>, std::allocator<char> >, IEC61850_STRUCT::IED_61850, std::less<std::basic_string<char, std::char_traits<char>, std::allocator<char> > >, std::allocator<std::pair<const std::basic_string<char, std::char_traits<char>, std::allocator<char> >, IEC61850_STRUCT::IED_61850> > >::~map
FUNC 2c82a 139 0 IEC61850_STRUCT::IED_61850::IED_61850
FUNC 2c964 140 0 IEC61850_STRUCT::IED_61850::~IED_61850
FUNC 2caa4 1a 0 std::list<std::basic_string<char, std::char_traits<char>, std::allocator<char> >, std::allocator<std::basic_string<char, std::char_traits<char>, std::allocator<char> > > >::~list
FUNC 2cabe 1a 0 std::map<std::basic_string<char, std::char_traits<char>, std::allocator<char> >, std::map<int, std::map<int, IEC104WF::stPointTable, std::less<int>, std::allocator<std::pair<const int, IEC104WF::stPointTable> > >, std::less<int>, std::allocator<std::pair<const int, std::map<int, IEC104WF::stPointTable, std::less<int>, std::allocator<std::pair<const int, IEC104WF::stPointTable> > > > > >, std::less<std::basic_string<char, std::char_traits<char>, std::allocator<char> > >, std::allocator<std::pair<const std::basic_string<char, std::char_traits<char>, std::allocator<char> >, std::map<int, std::map<int, IEC104WF::stPointTable, std::less<int>, std::allocator<std::pair<const int, IEC104WF::stPointTable> > >, std::less<int>, std::allocator<std::pair<const int, std::map<int, IEC104WF::stPointTable, std::less<int>, std::allocator<std::pair<const int, IEC104WF::stPointTable> > > > > > > > >::~map
FUNC 2cad8 1a 0 std::map<int, std::map<int, IEC104WF::stPointTable, std::less<int>, std::allocator<std::pair<const int, IEC104WF::stPointTable> > >, std::less<int>, std::allocator<std::pair<const int, std::map<int, IEC104WF::stPointTable, std::less<int>, std::allocator<std::pair<const int, IEC104WF::stPointTable> > > > > >::~map
FUNC 2caf2 1a 0 std::map<int, IEC104WF::stPointTable, std::less<int>, std::allocator<std::pair<const int, IEC104WF::stPointTable> > >::~map
FUNC 2cb0c 1a 0 IEC104WF::stPointTable::stPointTable
FUNC 2cb26 1a 0 IEC104WF::stPointTable::~stPointTable
FUNC 2cb40 1a 0 std::map<std::basic_string<char, std::char_traits<char>, std::allocator<char> >, std::map<std::basic_string<char, std::char_traits<char>, std::allocator<char> >, std::basic_string<char, std::char_traits<char>, std::allocator<char> >, std::less<std::basic_string<char, std::char_traits<char>, std::allocator<char> > >, std::allocator<std::pair<const std::basic_string<char, std::char_traits<char>, std::allocator<char> >, std::basic_string<char, std::char_traits<char>, std::allocator<char> > > > >, std::less<std::basic_string<char, std::char_traits<char>, std::allocator<char> > >, std::allocator<std::pair<const std::basic_string<char, std::char_traits<char>, std::allocator<char> >, std::map<std::basic_string<char, std::char_traits<char>, std::allocator<char> >, std::basic_string<char, std::char_traits<char>, std::allocator<char> >, std::less<std::basic_string<char, std::char_traits<char>, std::allocator<char> > >, std::allocator<std::pair<const std::basic_string<char, std::char_traits<char>, std::allocator<char> >, std::basic_string<char, std::char_traits<char>, std::allocator<char> > > > > > > >::~map
FUNC 2cb5a 82 0 IEC103::stConfigParam::stConfigParam
FUNC 2cbdc 121 0 IEC61850_STRUCT::IED_61850::operator=
FUNC 2ccfe 45 0 IEC104WF::stPointTable::operator=
FUNC 2cd44 7b 0 IEC103::stConfigParam::operator=
FUNC 2cdc0 1a 0 std::map<std::basic_string<char, std::char_traits<char>, std::allocator<char> >, IEC61850_STRUCT::IED_61850, std::less<std::basic_string<char, std::char_traits<char>, std::allocator<char> > >, std::allocator<std::pair<const std::basic_string<char, std::char_traits<char>, std::allocator<char> >, IEC61850_STRUCT::IED_61850> > >::map
FUNC 2cdda 1a 0 std::_Rb_tree<std::basic_string<char, std::char_traits<char>, std::allocator<char> >, std::pair<const std::basic_string<char, std::char_traits<char>, std::allocator<char> >, IEC61850_STRUCT::IED_61850>, std::_Select1st<std::pair<const std::basic_string<char, std::char_traits<char>, std::allocator<char> >, IEC61850_STRUCT::IED_61850> >, std::less<std::basic_string<char, std::char_traits<char>, std::allocator<char> > >, std::allocator<std::pair<const std::basic_string<char, std::char_traits<char>, std::allocator<char> >, IEC61850_STRUCT::IED_61850> > >::_Rb_tree_impl<std::less<std::basic_string<char, std::char_traits<char>, std::allocator<char> > >, false>::~_Rb_tree_impl
FUNC 2cdf4 63 0 std::_Rb_tree<std::basic_string<char, std::char_traits<char>, std::allocator<char> >, std::pair<const std::basic_string<char, std::char_traits<char>, std::allocator<char> >, IEC61850_STRUCT::IED_61850>, std::_Select1st<std::pair<const std::basic_string<char, std::char_traits<char>, std::allocator<char> >, IEC61850_STRUCT::IED_61850> >, std::less<std::basic_string<char, std::char_traits<char>, std::allocator<char> > >, std::allocator<std::pair<const std::basic_string<char, std::char_traits<char>, std::allocator<char> >, IEC61850_STRUCT::IED_61850> > >::~_Rb_tree
FUNC 2ce58 1a 0 std::list<std::basic_string<char, std::char_traits<char>, std::allocator<char> >, std::allocator<std::basic_string<char, std::char_traits<char>, std::allocator<char> > > >::list
FUNC 2ce72 1a 0 std::_List_base<std::basic_string<char, std::char_traits<char>, std::allocator<char> >, std::allocator<std::basic_string<char, std::char_traits<char>, std::allocator<char> > > >::_List_impl::~_List_impl
FUNC 2ce8c 51 0 std::_List_base<std::basic_string<char, std::char_traits<char>, std::allocator<char> >, std::allocator<std::basic_string<char, std::char_traits<char>, std::allocator<char> > > >::~_List_base
FUNC 2cede 1a 0 std::map<std::basic_string<char, std::char_traits<char>, std::allocator<char> >, std::map<int, std::map<int, IEC104WF::stPointTable, std::less<int>, std::allocator<std::pair<const int, IEC104WF::stPointTable> > >, std::less<int>, std::allocator<std::pair<const int, std::map<int, IEC104WF::stPointTable, std::less<int>, std::allocator<std::pair<const int, IEC104WF::stPointTable> > > > > >, std::less<std::basic_string<char, std::char_traits<char>, std::allocator<char> > >, std::allocator<std::pair<const std::basic_string<char, std::char_traits<char>, std::allocator<char> >, std::map<int, std::map<int, IEC104WF::stPointTable, std::less<int>, std::allocator<std::pair<const int, IEC104WF::stPointTable> > >, std::less<int>, std::allocator<std::pair<const int, std::map<int, IEC104WF::stPointTable, std::less<int>, std::allocator<std::pair<const int, IEC104WF::stPointTable> > > > > > > > >::map
FUNC 2cef8 1a 0 std::_Rb_tree<std::basic_string<char, std::char_traits<char>, std::allocator<char> >, std::pair<const std::basic_string<char, std::char_traits<char>, std::allocator<char> >, std::map<int, std::map<int, IEC104WF::stPointTable, std::less<int>, std::allocator<std::pair<const int, IEC104WF::stPointTable> > >, std::less<int>, std::allocator<std::pair<const int, std::map<int, IEC104WF::stPointTable, std::less<int>, std::allocator<std::pair<const int, IEC104WF::stPointTable> > > > > > >, std::_Select1st<std::pair<const std::basic_string<char, std::char_traits<char>, std::allocator<char> >, std::map<int, std::map<int, IEC104WF::stPointTable, std::less<int>, std::allocator<std::pair<const int, IEC104WF::stPointTable> > >, std::less<int>, std::allocator<std::pair<const int, std::map<int, IEC104WF::stPointTable, std::less<int>, std::allocator<std::pair<const int, IEC104WF::stPointTable> > > > > > > >, std::less<std::basic_string<char, std::char_traits<char>, std::allocator<char> > >, std::allocator<std::pair<const std::basic_string<char, std::char_traits<char>, std::allocator<char> >, std::map<int, std::map<int, IEC104WF::stPointTable, std::less<int>, std::allocator<std::pair<const int, IEC104WF::stPointTable> > >, std::less<int>, std::allocator<std::pair<const int, std::map<int, IEC104WF::stPointTable, std::less<int>, std::allocator<std::pair<const int, IEC104WF::stPointTable> > > > > > > > >::_Rb_tree_impl<std::less<std::basic_string<char, std::char_traits<char>, std::allocator<char> > >, false>::~_Rb_tree_impl
FUNC 2cf12 63 0 std::_Rb_tree<std::basic_string<char, std::char_traits<char>, std::allocator<char> >, std::pair<const std::basic_string<char, std::char_traits<char>, std::allocator<char> >, std::map<int, std::map<int, IEC104WF::stPointTable, std::less<int>, std::allocator<std::pair<const int, IEC104WF::stPointTable> > >, std::less<int>, std::allocator<std::pair<const int, std::map<int, IEC104WF::stPointTable, std::less<int>, std::allocator<std::pair<const int, IEC104WF::stPointTable> > > > > > >, std::_Select1st<std::pair<const std::basic_string<char, std::char_traits<char>, std::allocator<char> >, std::map<int, std::map<int, IEC104WF::stPointTable, std::less<int>, std::allocator<std::pair<const int, IEC104WF::stPointTable> > >, std::less<int>, std::allocator<std::pair<const int, std::map<int, IEC104WF::stPointTable, std::less<int>, std::allocator<std::pair<const int, IEC104WF::stPointTable> > > > > > > >, std::less<std::basic_string<char, std::char_traits<char>, std::allocator<char> > >, std::allocator<std::pair<const std::basic_string<char, std::char_traits<char>, std::allocator<char> >, std::map<int, std::map<int, IEC104WF::stPointTable, std::less<int>, std::allocator<std::pair<const int, IEC104WF::stPointTable> > >, std::less<int>, std::allocator<std::pair<const int, std::map<int, IEC104WF::stPointTable, std::less<int>, std::allocator<std::pair<const int, IEC104WF::stPointTable> > > > > > > > >::~_Rb_tree
FUNC 2cf76 1a 0 std::map<int, std::map<int, IEC104WF::stPointTable, std::less<int>, std::allocator<std::pair<const int, IEC104WF::stPointTable> > >, std::less<int>, std::allocator<std::pair<const int, std::map<int, IEC104WF::stPointTable, std::less<int>, std::allocator<std::pair<const int, IEC104WF::stPointTable> > > > > >::map
FUNC 2cf90 1a 0 std::_Rb_tree<int, std::pair<const int, std::map<int, IEC104WF::stPointTable, std::less<int>, std::allocator<std::pair<const int, IEC104WF::stPointTable> > > >, std::_Select1st<std::pair<const int, std::map<int, IEC104WF::stPointTable, std::less<int>, std::allocator<std::pair<const int, IEC104WF::stPointTable> > > > >, std::less<int>, std::allocator<std::pair<const int, std::map<int, IEC104WF::stPointTable, std::less<int>, std::allocator<std::pair<const int, IEC104WF::stPointTable> > > > > >::_Rb_tree_impl<std::less<int>, false>::~_Rb_tree_impl
FUNC 2cfaa 63 0 std::_Rb_tree<int, std::pair<const int, std::map<int, IEC104WF::stPointTable, std::less<int>, std::allocator<std::pair<const int, IEC104WF::stPointTable> > > >, std::_Select1st<std::pair<const int, std::map<int, IEC104WF::stPointTable, std::less<int>, std::allocator<std::pair<const int, IEC104WF::stPointTable> > > > >, std::less<int>, std::allocator<std::pair<const int, std::map<int, IEC104WF::stPointTable, std::less<int>, std::allocator<std::pair<const int, IEC104WF::stPointTable> > > > > >::~_Rb_tree
FUNC 2d00e 1a 0 std::map<int, IEC104WF::stPointTable, std::less<int>, std::allocator<std::pair<const int, IEC104WF::stPointTable> > >::map
FUNC 2d028 1a 0 std::_Rb_tree<int, std::pair<const int, IEC104WF::stPointTable>, std::_Select1st<std::pair<const int, IEC104WF::stPointTable> >, std::less<int>, std::allocator<std::pair<const int, IEC104WF::stPointTable> > >::_Rb_tree_impl<std::less<int>, false>::~_Rb_tree_impl
FUNC 2d042 63 0 std::_Rb_tree<int, std::pair<const int, IEC104WF::stPointTable>, std::_Select1st<std::pair<const int, IEC104WF::stPointTable> >, std::less<int>, std::allocator<std::pair<const int, IEC104WF::stPointTable> > >::~_Rb_tree
FUNC 2d0a6 1a 0 std::map<std::basic_string<char, std::char_traits<char>, std::allocator<char> >, IEC103::stConfigParam, std::less<std::basic_string<char, std::char_traits<char>, std::allocator<char> > >, std::allocator<std::pair<const std::basic_string<char, std::char_traits<char>, std::allocator<char> >, IEC103::stConfigParam> > >::map
FUNC 2d0c0 1a 0 std::map<std::basic_string<char, std::char_traits<char>, std::allocator<char> >, std::map<std::basic_string<char, std::char_traits<char>, std::allocator<char> >, std::basic_string<char, std::char_traits<char>, std::allocator<char> >, std::less<std::basic_string<char, std::char_traits<char>, std::allocator<char> > >, std::allocator<std::pair<const std::basic_string<char, std::char_traits<char>, std::allocator<char> >, std::basic_string<char, std::char_traits<char>, std::allocator<char> > > > >, std::less<std::basic_string<char, std::char_traits<char>, std::allocator<char> > >, std::allocator<std::pair<const std::basic_string<char, std::char_traits<char>, std::allocator<char> >, std::map<std::basic_string<char, std::char_traits<char>, std::allocator<char> >, std::basic_string<char, std::char_traits<char>, std::allocator<char> >, std::less<std::basic_string<char, std::char_traits<char>, std::allocator<char> > >, std::allocator<std::pair<const std::basic_string<char, std::char_traits<char>, std::allocator<char> >, std::basic_string<char, std::char_traits<char>, std::allocator<char> > > > > > > >::map
FUNC 2d0da 1a 0 std::_Rb_tree<std::basic_string<char, std::char_traits<char>, std::allocator<char> >, std::pair<const std::basic_string<char, std::char_traits<char>, std::allocator<char> >, std::map<std::basic_string<char, std::char_traits<char>, std::allocator<char> >, std::basic_string<char, std::char_traits<char>, std::allocator<char> >, std::less<std::basic_string<char, std::char_traits<char>, std::allocator<char> > >, std::allocator<std::pair<const std::basic_string<char, std::char_traits<char>, std::allocator<char> >, std::basic_string<char, std::char_traits<char>, std::allocator<char> > > > > >, std::_Select1st<std::pair<const std::basic_string<char, std::char_traits<char>, std::allocator<char> >, std::map<std::basic_string<char, std::char_traits<char>, std::allocator<char> >, std::basic_string<char, std::char_traits<char>, std::allocator<char> >, std::less<std::basic_string<char, std::char_traits<char>, std::allocator<char> > >, std::allocator<std::pair<const std::basic_string<char, std::char_traits<char>, std::allocator<char> >, std::basic_string<char, std::char_traits<char>, std::allocator<char> > > > > > >, std::less<std::basic_string<char, std::char_traits<char>, std::allocator<char> > >, std::allocator<std::pair<const std::basic_string<char, std::char_traits<char>, std::allocator<char> >, std::map<std::basic_string<char, std::char_traits<char>, std::allocator<char> >, std::basic_string<char, std::char_traits<char>, std::allocator<char> >, std::less<std::basic_string<char, std::char_traits<char>, std::allocator<char> > >, std::allocator<std::pair<const std::basic_string<char, std::char_traits<char>, std::allocator<char> >, std::basic_string<char, std::char_traits<char>, std::allocator<char> > > > > > > >::_Rb_tree_impl<std::less<std::basic_string<char, std::char_traits<char>, std::allocator<char> > >, false>::~_Rb_tree_impl
FUNC 2d0f4 63 0 std::_Rb_tree<std::basic_string<char, std::char_traits<char>, std::allocator<char> >, std::pair<const std::basic_string<char, std::char_traits<char>, std::allocator<char> >, std::map<std::basic_string<char, std::char_traits<char>, std::allocator<char> >, std::basic_string<char, std::char_traits<char>, std::allocator<char> >, std::less<std::basic_string<char, std::char_traits<char>, std::allocator<char> > >, std::allocator<std::pair<const std::basic_string<char, std::char_traits<char>, std::allocator<char> >, std::basic_string<char, std::char_traits<char>, std::allocator<char> > > > > >, std::_Select1st<std::pair<const std::basic_string<char, std::char_traits<char>, std::allocator<char> >, std::map<std::basic_string<char, std::char_traits<char>, std::allocator<char> >, std::basic_string<char, std::char_traits<char>, std::allocator<char> >, std::less<std::basic_string<char, std::char_traits<char>, std::allocator<char> > >, std::allocator<std::pair<const std::basic_string<char, std::char_traits<char>, std::allocator<char> >, std::basic_string<char, std::char_traits<char>, std::allocator<char> > > > > > >, std::less<std::basic_string<char, std::char_traits<char>, std::allocator<char> > >, std::allocator<std::pair<const std::basic_string<char, std::char_traits<char>, std::allocator<char> >, std::map<std::basic_string<char, std::char_traits<char>, std::allocator<char> >, std::basic_string<char, std::char_traits<char>, std::allocator<char> >, std::less<std::basic_string<char, std::char_traits<char>, std::allocator<char> > >, std::allocator<std::pair<const std::basic_string<char, std::char_traits<char>, std::allocator<char> >, std::basic_string<char, std::char_traits<char>, std::allocator<char> > > > > > > >::~_Rb_tree
FUNC 2d158 25 0 std::map<std::basic_string<char, std::char_traits<char>, std::allocator<char> >, std::basic_string<char, std::char_traits<char>, std::allocator<char> >, std::less<std::basic_string<char, std::char_traits<char>, std::allocator<char> > >, std::allocator<std::pair<const std::basic_string<char, std::char_traits<char>, std::allocator<char> >, std::basic_string<char, std::char_traits<char>, std::allocator<char> > > > >::map
FUNC 2d17e b9 0 std::vector<std::basic_string<char, std::char_traits<char>, std::allocator<char> >, std::allocator<std::basic_string<char, std::char_traits<char>, std::allocator<char> > > >::vector
FUNC 2d238 1a 0 std::map<std::basic_string<char, std::char_traits<char>, std::allocator<char> >, IEC61850_STRUCT::IED_61850, std::less<std::basic_string<char, std::char_traits<char>, std::allocator<char> > >, std::allocator<std::pair<const std::basic_string<char, std::char_traits<char>, std::allocator<char> >, IEC61850_STRUCT::IED_61850> > >::clear
FUNC 2d252 25 0 std::map<std::basic_string<char, std::char_traits<char>, std::allocator<char> >, IEC61850_STRUCT::IED_61850, std::less<std::basic_string<char, std::char_traits<char>, std::allocator<char> > >, std::allocator<std::pair<const std::basic_string<char, std::char_traits<char>, std::allocator<char> >, IEC61850_STRUCT::IED_61850> > >::map
FUNC 2d277 2a 0 std::operator==<char, std::char_traits<char>, std::allocator<char> >
FUNC 2d2a2 1a 0 std::map<std::basic_string<char, std::char_traits<char>, std::allocator<char> >, IEC103::stConfigParam, std::less<std::basic_string<char, std::char_traits<char>, std::allocator<char> > >, std::allocator<std::pair<const std::basic_string<char, std::char_traits<char>, std::allocator<char> >, IEC103::stConfigParam> > >::clear
FUNC 2d2bc 1a 0 std::map<std::basic_string<char, std::char_traits<char>, std::allocator<char> >, std::map<std::basic_string<char, std::char_traits<char>, std::allocator<char> >, std::basic_string<char, std::char_traits<char>, std::allocator<char> >, std::less<std::basic_string<char, std::char_traits<char>, std::allocator<char> > >, std::allocator<std::pair<const std::basic_string<char, std::char_traits<char>, std::allocator<char> >, std::basic_string<char, std::char_traits<char>, std::allocator<char> > > > >, std::less<std::basic_string<char, std::char_traits<char>, std::allocator<char> > >, std::allocator<std::pair<const std::basic_string<char, std::char_traits<char>, std::allocator<char> >, std::map<std::basic_string<char, std::char_traits<char>, std::allocator<char> >, std::basic_string<char, std::char_traits<char>, std::allocator<char> >, std::less<std::basic_string<char, std::char_traits<char>, std::allocator<char> > >, std::allocator<std::pair<const std::basic_string<char, std::char_traits<char>, std::allocator<char> >, std::basic_string<char, std::char_traits<char>, std::allocator<char> > > > > > > >::clear
FUNC 2d2d6 25 0 std::map<std::basic_string<char, std::char_traits<char>, std::allocator<char> >, IEC103::stConfigParam, std::less<std::basic_string<char, std::char_traits<char>, std::allocator<char> > >, std::allocator<std::pair<const std::basic_string<char, std::char_traits<char>, std::allocator<char> >, IEC103::stConfigParam> > >::map
FUNC 2d2fc 25 0 std::map<std::basic_string<char, std::char_traits<char>, std::allocator<char> >, std::map<std::basic_string<char, std::char_traits<char>, std::allocator<char> >, std::basic_string<char, std::char_traits<char>, std::allocator<char> >, std::less<std::basic_string<char, std::char_traits<char>, std::allocator<char> > >, std::allocator<std::pair<const std::basic_string<char, std::char_traits<char>, std::allocator<char> >, std::basic_string<char, std::char_traits<char>, std::allocator<char> > > > >, std::less<std::basic_string<char, std::char_traits<char>, std::allocator<char> > >, std::allocator<std::pair<const std::basic_string<char, std::char_traits<char>, std::allocator<char> >, std::map<std::basic_string<char, std::char_traits<char>, std::allocator<char> >, std::basic_string<char, std::char_traits<char>, std::allocator<char> >, std::less<std::basic_string<char, std::char_traits<char>, std::allocator<char> > >, std::allocator<std::pair<const std::basic_string<char, std::char_traits<char>, std::allocator<char> >, std::basic_string<char, std::char_traits<char>, std::allocator<char> > > > > > > >::map
FUNC 2d322 1a 0 std::map<std::basic_string<char, std::char_traits<char>, std::allocator<char> >, std::map<int, std::map<int, IEC104WF::stPointTable, std::less<int>, std::allocator<std::pair<const int, IEC104WF::stPointTable> > >, std::less<int>, std::allocator<std::pair<const int, std::map<int, IEC104WF::stPointTable, std::less<int>, std::allocator<std::pair<const int, IEC104WF::stPointTable> > > > > >, std::less<std::basic_string<char, std::char_traits<char>, std::allocator<char> > >, std::allocator<std::pair<const std::basic_string<char, std::char_traits<char>, std::allocator<char> >, std::map<int, std::map<int, IEC104WF::stPointTable, std::less<int>, std::allocator<std::pair<const int, IEC104WF::stPointTable> > >, std::less<int>, std::allocator<std::pair<const int, std::map<int, IEC104WF::stPointTable, std::less<int>, std::allocator<std::pair<const int, IEC104WF::stPointTable> > > > > > > > >::clear
FUNC 2d33c 1a 0 std::map<int, std::map<int, IEC104WF::stPointTable, std::less<int>, std::allocator<std::pair<const int, IEC104WF::stPointTable> > >, std::less<int>, std::allocator<std::pair<const int, std::map<int, IEC104WF::stPointTable, std::less<int>, std::allocator<std::pair<const int, IEC104WF::stPointTable> > > > > >::clear
FUNC 2d356 1a 0 std::map<int, IEC104WF::stPointTable, std::less<int>, std::allocator<std::pair<const int, IEC104WF::stPointTable> > >::clear
FUNC 2d370 25 0 std::map<std::basic_string<char, std::char_traits<char>, std::allocator<char> >, std::map<int, std::map<int, IEC104WF::stPointTable, std::less<int>, std::allocator<std::pair<const int, IEC104WF::stPointTable> > >, std::less<int>, std::allocator<std::pair<const int, std::map<int, IEC104WF::stPointTable, std::less<int>, std::allocator<std::pair<const int, IEC104WF::stPointTable> > > > > >, std::less<std::basic_string<char, std::char_traits<char>, std::allocator<char> > >, std::allocator<std::pair<const std::basic_string<char, std::char_traits<char>, std::allocator<char> >, std::map<int, std::map<int, IEC104WF::stPointTable, std::less<int>, std::allocator<std::pair<const int, IEC104WF::stPointTable> > >, std::less<int>, std::allocator<std::pair<const int, std::map<int, IEC104WF::stPointTable, std::less<int>, std::allocator<std::pair<const int, IEC104WF::stPointTable> > > > > > > > >::map
FUNC 2d396 26 0 std::list<std::basic_string<char, std::char_traits<char>, std::allocator<char> >, std::allocator<std::basic_string<char, std::char_traits<char>, std::allocator<char> > > >::clear
FUNC 2d3bc cf 0 std::list<std::basic_string<char, std::char_traits<char>, std::allocator<char> >, std::allocator<std::basic_string<char, std::char_traits<char>, std::allocator<char> > > >::list
FUNC 2d48c 55 0 std::pair<const std::basic_string<char, std::char_traits<char>, std::allocator<char> >, IEC61850_STRUCT::IED_61850>::~pair
FUNC 2d4e2 1b7 0 std::map<std::basic_string<char, std::char_traits<char>, std::allocator<char> >, IEC61850_STRUCT::IED_61850, std::less<std::basic_string<char, std::char_traits<char>, std::allocator<char> > >, std::allocator<std::pair<const std::basic_string<char, std::char_traits<char>, std::allocator<char> >, IEC61850_STRUCT::IED_61850> > >::operator[]
FUNC 2d69a 29 0 std::map<std::basic_string<char, std::char_traits<char>, std::allocator<char> >, std::basic_string<char, std::char_traits<char>, std::allocator<char> >, std::less<std::basic_string<char, std::char_traits<char>, std::allocator<char> > >, std::allocator<std::pair<const std::basic_string<char, std::char_traits<char>, std::allocator<char> >, std::basic_string<char, std::char_traits<char>, std::allocator<char> > > > >::operator=
FUNC 2d6c4 9e 0 WgjXml::stringToNum<float>
FUNC 2d762 92 0 WgjXml::stringToNum<int>
FUNC 2d7f4 1e 0 std::pair<const int, IEC104WF::stPointTable>::~pair
FUNC 2d812 15e 0 std::map<int, IEC104WF::stPointTable, std::less<int>, std::allocator<std::pair<const int, IEC104WF::stPointTable> > >::operator[]
FUNC 2d970 1e 0 std::pair<const int, std::map<int, IEC104WF::stPointTable, std::less<int>, std::allocator<std::pair<const int, IEC104WF::stPointTable> > > >::~pair
FUNC 2d98e 185 0 std::map<int, std::map<int, IEC104WF::stPointTable, std::less<int>, std::allocator<std::pair<const int, IEC104WF::stPointTable> > >, std::less<int>, std::allocator<std::pair<const int, std::map<int, IEC104WF::stPointTable, std::less<int>, std::allocator<std::pair<const int, IEC104WF::stPointTable> > > > > >::operator[]
FUNC 2db14 29 0 std::map<int, IEC104WF::stPointTable, std::less<int>, std::allocator<std::pair<const int, IEC104WF::stPointTable> > >::operator=
FUNC 2db3e 55 0 std::pair<const std::basic_string<char, std::char_traits<char>, std::allocator<char> >, std::map<int, std::map<int, IEC104WF::stPointTable, std::less<int>, std::allocator<std::pair<const int, IEC104WF::stPointTable> > >, std::less<int>, std::allocator<std::pair<const int, std::map<int, IEC104WF::stPointTable, std::less<int>, std::allocator<std::pair<const int, IEC104WF::stPointTable> > > > > > >::~pair
FUNC 2db94 185 0 std::map<std::basic_string<char, std::char_traits<char>, std::allocator<char> >, std::map<int, std::map<int, IEC104WF::stPointTable, std::less<int>, std::allocator<std::pair<const int, IEC104WF::stPointTable> > >, std::less<int>, std::allocator<std::pair<const int, std::map<int, IEC104WF::stPointTable, std::less<int>, std::allocator<std::pair<const int, IEC104WF::stPointTable> > > > > >, std::less<std::basic_string<char, std::char_traits<char>, std::allocator<char> > >, std::allocator<std::pair<const std::basic_string<char, std::char_traits<char>, std::allocator<char> >, std::map<int, std::map<int, IEC104WF::stPointTable, std::less<int>, std::allocator<std::pair<const int, IEC104WF::stPointTable> > >, std::less<int>, std::allocator<std::pair<const int, std::map<int, IEC104WF::stPointTable, std::less<int>, std::allocator<std::pair<const int, IEC104WF::stPointTable> > > > > > > > >::operator[]
FUNC 2dd1a 29 0 std::map<int, std::map<int, IEC104WF::stPointTable, std::less<int>, std::allocator<std::pair<const int, IEC104WF::stPointTable> > >, std::less<int>, std::allocator<std::pair<const int, std::map<int, IEC104WF::stPointTable, std::less<int>, std::allocator<std::pair<const int, IEC104WF::stPointTable> > > > > >::operator=
FUNC 2dd43 28 0 std::operator!=<char, std::char_traits<char>, std::allocator<char> >
FUNC 2dd6c 187 0 std::map<std::basic_string<char, std::char_traits<char>, std::allocator<char> >, IEC103::stConfigParam, std::less<std::basic_string<char, std::char_traits<char>, std::allocator<char> > >, std::allocator<std::pair<const std::basic_string<char, std::char_traits<char>, std::allocator<char> >, IEC103::stConfigParam> > >::operator[]
FUNC 2def4 55 0 std::pair<const std::basic_string<char, std::char_traits<char>, std::allocator<char> >, std::map<std::basic_string<char, std::char_traits<char>, std::allocator<char> >, std::basic_string<char, std::char_traits<char>, std::allocator<char> >, std::less<std::basic_string<char, std::char_traits<char>, std::allocator<char> > >, std::allocator<std::pair<const std::basic_string<char, std::char_traits<char>, std::allocator<char> >, std::basic_string<char, std::char_traits<char>, std::allocator<char> > > > > >::~pair
FUNC 2df4a 185 0 std::map<std::basic_string<char, std::char_traits<char>, std::allocator<char> >, std::map<std::basic_string<char, std::char_traits<char>, std::allocator<char> >, std::basic_string<char, std::char_traits<char>, std::allocator<char> >, std::less<std::basic_string<char, std::char_traits<char>, std::allocator<char> > >, std::allocator<std::pair<const std::basic_string<char, std::char_traits<char>, std::allocator<char> >, std::basic_string<char, std::char_traits<char>, std::allocator<char> > > > >, std::less<std::basic_string<char, std::char_traits<char>, std::allocator<char> > >, std::allocator<std::pair<const std::basic_string<char, std::char_traits<char>, std::allocator<char> >, std::map<std::basic_string<char, std::char_traits<char>, std::allocator<char> >, std::basic_string<char, std::char_traits<char>, std::allocator<char> >, std::less<std::basic_string<char, std::char_traits<char>, std::allocator<char> > >, std::allocator<std::pair<const std::basic_string<char, std::char_traits<char>, std::allocator<char> >, std::basic_string<char, std::char_traits<char>, std::allocator<char> > > > > > > >::operator[]
FUNC 2e0d0 34 0 std::list<std::basic_string<char, std::char_traits<char>, std::allocator<char> >, std::allocator<std::basic_string<char, std::char_traits<char>, std::allocator<char> > > >::push_back
FUNC 2e104 1a 0 std::_Rb_tree<std::basic_string<char, std::char_traits<char>, std::allocator<char> >, std::pair<const std::basic_string<char, std::char_traits<char>, std::allocator<char> >, IEC61850_STRUCT::IED_61850>, std::_Select1st<std::pair<const std::basic_string<char, std::char_traits<char>, std::allocator<char> >, IEC61850_STRUCT::IED_61850> >, std::less<std::basic_string<char, std::char_traits<char>, std::allocator<char> > >, std::allocator<std::pair<const std::basic_string<char, std::char_traits<char>, std::allocator<char> >, IEC61850_STRUCT::IED_61850> > >::_Rb_tree
FUNC 2e11e 1a 0 std::allocator<std::_Rb_tree_node<std::pair<const std::basic_string<char, std::char_traits<char>, std::allocator<char> >, IEC61850_STRUCT::IED_61850> > >::~allocator
FUNC 2e138 69 0 std::_Rb_tree<std::basic_string<char, std::char_traits<char>, std::allocator<char> >, std::pair<const std::basic_string<char, std::char_traits<char>, std::allocator<char> >, IEC61850_STRUCT::IED_61850>, std::_Select1st<std::pair<const std::basic_string<char, std::char_traits<char>, std::allocator<char> >, IEC61850_STRUCT::IED_61850> >, std::less<std::basic_string<char, std::char_traits<char>, std::allocator<char> > >, std::allocator<std::pair<const std::basic_string<char, std::char_traits<char>, std::allocator<char> >, IEC61850_STRUCT::IED_61850> > >::_M_erase
FUNC 2e1a2 12 0 std::_Rb_tree<std::basic_string<char, std::char_traits<char>, std::allocator<char> >, std::pair<const std::basic_string<char, std::char_traits<char>, std::allocator<char> >, IEC61850_STRUCT::IED_61850>, std::_Select1st<std::pair<const std::basic_string<char, std::char_traits<char>, std::allocator<char> >, IEC61850_STRUCT::IED_61850> >, std::less<std::basic_string<char, std::char_traits<char>, std::allocator<char> > >, std::allocator<std::pair<const std::basic_string<char, std::char_traits<char>, std::allocator<char> >, IEC61850_STRUCT::IED_61850> > >::_M_begin
FUNC 2e1b4 26 0 std::_List_base<std::basic_string<char, std::char_traits<char>, std::allocator<char> >, std::allocator<std::basic_string<char, std::char_traits<char>, std::allocator<char> > > >::_List_base
FUNC 2e1da 1a 0 std::allocator<std::_List_node<std::basic_string<char, std::char_traits<char>, std::allocator<char> > > >::~allocator
FUNC 2e1f4 b8 0 std::_List_base<std::basic_string<char, std::char_traits<char>, std::allocator<char> >, std::allocator<std::basic_string<char, std::char_traits<char>, std::allocator<char> > > >::_M_clear
FUNC 2e2ac 1a 0 std::_Rb_tree<std::basic_string<char, std::char_traits<char>, std::allocator<char> >, std::pair<const std::basic_string<char, std::char_traits<char>, std::allocator<char> >, std::map<int, std::map<int, IEC104WF::stPointTable, std::less<int>, std::allocator<std::pair<const int, IEC104WF::stPointTable> > >, std::less<int>, std::allocator<std::pair<const int, std::map<int, IEC104WF::stPointTable, std::less<int>, std::allocator<std::pair<const int, IEC104WF::stPointTable> > > > > > >, std::_Select1st<std::pair<const std::basic_string<char, std::char_traits<char>, std::allocator<char> >, std::map<int, std::map<int, IEC104WF::stPointTable, std::less<int>, std::allocator<std::pair<const int, IEC104WF::stPointTable> > >, std::less<int>, std::allocator<std::pair<const int, std::map<int, IEC104WF::stPointTable, std::less<int>, std::allocator<std::pair<const int, IEC104WF::stPointTable> > > > > > > >, std::less<std::basic_string<char, std::char_traits<char>, std::allocator<char> > >, std::allocator<std::pair<const std::basic_string<char, std::char_traits<char>, std::allocator<char> >, std::map<int, std::map<int, IEC104WF::stPointTable, std::less<int>, std::allocator<std::pair<const int, IEC104WF::stPointTable> > >, std::less<int>, std::allocator<std::pair<const int, std::map<int, IEC104WF::stPointTable, std::less<int>, std::allocator<std::pair<const int, IEC104WF::stPointTable> > > > > > > > >::_Rb_tree
FUNC 2e2c6 1a 0 std::allocator<std::_Rb_tree_node<std::pair<const std::basic_string<char, std::char_traits<char>, std::allocator<char> >, std::map<int, std::map<int, IEC104WF::stPointTable, std::less<int>, std::allocator<std::pair<const int, IEC104WF::stPointTable> > >, std::less<int>, std::allocator<std::pair<const int, std::map<int, IEC104WF::stPointTable, std::less<int>, std::allocator<std::pair<const int, IEC104WF::stPointTable> > > > > > > > >::~allocator
FUNC 2e2e0 69 0 std::_Rb_tree<std::basic_string<char, std::char_traits<char>, std::allocator<char> >, std::pair<const std::basic_string<char, std::char_traits<char>, std::allocator<char> >, std::map<int, std::map<int, IEC104WF::stPointTable, std::less<int>, std::allocator<std::pair<const int, IEC104WF::stPointTable> > >, std::less<int>, std::allocator<std::pair<const int, std::map<int, IEC104WF::stPointTable, std::less<int>, std::allocator<std::pair<const int, IEC104WF::stPointTable> > > > > > >, std::_Select1st<std::pair<const std::basic_string<char, std::char_traits<char>, std::allocator<char> >, std::map<int, std::map<int, IEC104WF::stPointTable, std::less<int>, std::allocator<std::pair<const int, IEC104WF::stPointTable> > >, std::less<int>, std::allocator<std::pair<const int, std::map<int, IEC104WF::stPointTable, std::less<int>, std::allocator<std::pair<const int, IEC104WF::stPointTable> > > > > > > >, std::less<std::basic_string<char, std::char_traits<char>, std::allocator<char> > >, std::allocator<std::pair<const std::basic_string<char, std::char_traits<char>, std::allocator<char> >, std::map<int, std::map<int, IEC104WF::stPointTable, std::less<int>, std::allocator<std::pair<const int, IEC104WF::stPointTable> > >, std::less<int>, std::allocator<std::pair<const int, std::map<int, IEC104WF::stPointTable, std::less<int>, std::allocator<std::pair<const int, IEC104WF::stPointTable> > > > > > > > >::_M_erase
FUNC 2e34a 12 0 std::_Rb_tree<std::basic_string<char, std::char_traits<char>, std::allocator<char> >, std::pair<const std::basic_string<char, std::char_traits<char>, std::allocator<char> >, std::map<int, std::map<int, IEC104WF::stPointTable, std::less<int>, std::allocator<std::pair<const int, IEC104WF::stPointTable> > >, std::less<int>, std::allocator<std::pair<const int, std::map<int, IEC104WF::stPointTable, std::less<int>, std::allocator<std::pair<const int, IEC104WF::stPointTable> > > > > > >, std::_Select1st<std::pair<const std::basic_string<char, std::char_traits<char>, std::allocator<char> >, std::map<int, std::map<int, IEC104WF::stPointTable, std::less<int>, std::allocator<std::pair<const int, IEC104WF::stPointTable> > >, std::less<int>, std::allocator<std::pair<const int, std::map<int, IEC104WF::stPointTable, std::less<int>, std::allocator<std::pair<const int, IEC104WF::stPointTable> > > > > > > >, std::less<std::basic_string<char, std::char_traits<char>, std::allocator<char> > >, std::allocator<std::pair<const std::basic_string<char, std::char_traits<char>, std::allocator<char> >, std::map<int, std::map<int, IEC104WF::stPointTable, std::less<int>, std::allocator<std::pair<const int, IEC104WF::stPointTable> > >, std::less<int>, std::allocator<std::pair<const int, std::map<int, IEC104WF::stPointTable, std::less<int>, std::allocator<std::pair<const int, IEC104WF::stPointTable> > > > > > > > >::_M_begin
FUNC 2e35c 1a 0 std::_Rb_tree<int, std::pair<const int, std::map<int, IEC104WF::stPointTable, std::less<int>, std::allocator<std::pair<const int, IEC104WF::stPointTable> > > >, std::_Select1st<std::pair<const int, std::map<int, IEC104WF::stPointTable, std::less<int>, std::allocator<std::pair<const int, IEC104WF::stPointTable> > > > >, std::less<int>, std::allocator<std::pair<const int, std::map<int, IEC104WF::stPointTable, std::less<int>, std::allocator<std::pair<const int, IEC104WF::stPointTable> > > > > >::_Rb_tree
FUNC 2e376 1a 0 std::allocator<std::_Rb_tree_node<std::pair<const int, std::map<int, IEC104WF::stPointTable, std::less<int>, std::allocator<std::pair<const int, IEC104WF::stPointTable> > > > > >::~allocator
FUNC 2e390 69 0 std::_Rb_tree<int, std::pair<const int, std::map<int, IEC104WF::stPointTable, std::less<int>, std::allocator<std::pair<const int, IEC104WF::stPointTable> > > >, std::_Select1st<std::pair<const int, std::map<int, IEC104WF::stPointTable, std::less<int>, std::allocator<std::pair<const int, IEC104WF::stPointTable> > > > >, std::less<int>, std::allocator<std::pair<const int, std::map<int, IEC104WF::stPointTable, std::less<int>, std::allocator<std::pair<const int, IEC104WF::stPointTable> > > > > >::_M_erase
FUNC 2e3fa 12 0 std::_Rb_tree<int, std::pair<const int, std::map<int, IEC104WF::stPointTable, std::less<int>, std::allocator<std::pair<const int, IEC104WF::stPointTable> > > >, std::_Select1st<std::pair<const int, std::map<int, IEC104WF::stPointTable, std::less<int>, std::allocator<std::pair<const int, IEC104WF::stPointTable> > > > >, std::less<int>, std::allocator<std::pair<const int, std::map<int, IEC104WF::stPointTable, std::less<int>, std::allocator<std::pair<const int, IEC104WF::stPointTable> > > > > >::_M_begin
FUNC 2e40c 1a 0 std::_Rb_tree<int, std::pair<const int, IEC104WF::stPointTable>, std::_Select1st<std::pair<const int, IEC104WF::stPointTable> >, std::less<int>, std::allocator<std::pair<const int, IEC104WF::stPointTable> > >::_Rb_tree
FUNC 2e426 1a 0 std::allocator<std::_Rb_tree_node<std::pair<const int, IEC104WF::stPointTable> > >::~allocator
FUNC 2e440 69 0 std::_Rb_tree<int, std::pair<const int, IEC104WF::stPointTable>, std::_Select1st<std::pair<const int, IEC104WF::stPointTable> >, std::less<int>, std::allocator<std::pair<const int, IEC104WF::stPointTable> > >::_M_erase
FUNC 2e4aa 12 0 std::_Rb_tree<int, std::pair<const int, IEC104WF::stPointTable>, std::_Select1st<std::pair<const int, IEC104WF::stPointTable> >, std::less<int>, std::allocator<std::pair<const int, IEC104WF::stPointTable> > >::_M_begin
FUNC 2e4bc 1a 0 std::_Rb_tree<std::basic_string<char, std::char_traits<char>, std::allocator<char> >, std::pair<const std::basic_string<char, std::char_traits<char>, std::allocator<char> >, IEC103::stConfigParam>, std::_Select1st<std::pair<const std::basic_string<char, std::char_traits<char>, std::allocator<char> >, IEC103::stConfigParam> >, std::less<std::basic_string<char, std::char_traits<char>, std::allocator<char> > >, std::allocator<std::pair<const std::basic_string<char, std::char_traits<char>, std::allocator<char> >, IEC103::stConfigParam> > >::_Rb_tree
FUNC 2e4d6 1a 0 std::_Rb_tree<std::basic_string<char, std::char_traits<char>, std::allocator<char> >, std::pair<const std::basic_string<char, std::char_traits<char>, std::allocator<char> >, std::map<std::basic_string<char, std::char_traits<char>, std::allocator<char> >, std::basic_string<char, std::char_traits<char>, std::allocator<char> >, std::less<std::basic_string<char, std::char_traits<char>, std::allocator<char> > >, std::allocator<std::pair<const std::basic_string<char, std::char_traits<char>, std::allocator<char> >, std::basic_string<char, std::char_traits<char>, std::allocator<char> > > > > >, std::_Select1st<std::pair<const std::basic_string<char, std::char_traits<char>, std::allocator<char> >, std::map<std::basic_string<char, std::char_traits<char>, std::allocator<char> >, std::basic_string<char, std::char_traits<char>, std::allocator<char> >, std::less<std::basic_string<char, std::char_traits<char>, std::allocator<char> > >, std::allocator<std::pair<const std::basic_string<char, std::char_traits<char>, std::allocator<char> >, std::basic_string<char, std::char_traits<char>, std::allocator<char> > > > > > >, std::less<std::basic_string<char, std::char_traits<char>, std::allocator<char> > >, std::allocator<std::pair<const std::basic_string<char, std::char_traits<char>, std::allocator<char> >, std::map<std::basic_string<char, std::char_traits<char>, std::allocator<char> >, std::basic_string<char, std::char_traits<char>, std::allocator<char> >, std::less<std::basic_string<char, std::char_traits<char>, std::allocator<char> > >, std::allocator<std::pair<const std::basic_string<char, std::char_traits<char>, std::allocator<char> >, std::basic_string<char, std::char_traits<char>, std::allocator<char> > > > > > > >::_Rb_tree
FUNC 2e4f0 1a 0 std::allocator<std::_Rb_tree_node<std::pair<const std::basic_string<char, std::char_traits<char>, std::allocator<char> >, std::map<std::basic_string<char, std::char_traits<char>, std::allocator<char> >, std::basic_string<char, std::char_traits<char>, std::allocator<char> >, std::less<std::basic_string<char, std::char_traits<char>, std::allocator<char> > >, std::allocator<std::pair<const std::basic_string<char, std::char_traits<char>, std::allocator<char> >, std::basic_string<char, std::char_traits<char>, std::allocator<char> > > > > > > >::~allocator
FUNC 2e50a 69 0 std::_Rb_tree<std::basic_string<char, std::char_traits<char>, std::allocator<char> >, std::pair<const std::basic_string<char, std::char_traits<char>, std::allocator<char> >, std::map<std::basic_string<char, std::char_traits<char>, std::allocator<char> >, std::basic_string<char, std::char_traits<char>, std::allocator<char> >, std::less<std::basic_string<char, std::char_traits<char>, std::allocator<char> > >, std::allocator<std::pair<const std::basic_string<char, std::char_traits<char>, std::allocator<char> >, std::basic_string<char, std::char_traits<char>, std::allocator<char> > > > > >, std::_Select1st<std::pair<const std::basic_string<char, std::char_traits<char>, std::allocator<char> >, std::map<std::basic_string<char, std::char_traits<char>, std::allocator<char> >, std::basic_string<char, std::char_traits<char>, std::allocator<char> >, std::less<std::basic_string<char, std::char_traits<char>, std::allocator<char> > >, std::allocator<std::pair<const std::basic_string<char, std::char_traits<char>, std::allocator<char> >, std::basic_string<char, std::char_traits<char>, std::allocator<char> > > > > > >, std::less<std::basic_string<char, std::char_traits<char>, std::allocator<char> > >, std::allocator<std::pair<const std::basic_string<char, std::char_traits<char>, std::allocator<char> >, std::map<std::basic_string<char, std::char_traits<char>, std::allocator<char> >, std::basic_string<char, std::char_traits<char>, std::allocator<char> >, std::less<std::basic_string<char, std::char_traits<char>, std::allocator<char> > >, std::allocator<std::pair<const std::basic_string<char, std::char_traits<char>, std::allocator<char> >, std::basic_string<char, std::char_traits<char>, std::allocator<char> > > > > > > >::_M_erase
FUNC 2e574 12 0 std::_Rb_tree<std::basic_string<char, std::char_traits<char>, std::allocator<char> >, std::pair<const std::basic_string<char, std::char_traits<char>, std::allocator<char> >, std::map<std::basic_string<char, std::char_traits<char>, std::allocator<char> >, std::basic_string<char, std::char_traits<char>, std::allocator<char> >, std::less<std::basic_string<char, std::char_traits<char>, std::allocator<char> > >, std::allocator<std::pair<const std::basic_string<char, std::char_traits<char>, std::allocator<char> >, std::basic_string<char, std::char_traits<char>, std::allocator<char> > > > > >, std::_Select1st<std::pair<const std::basic_string<char, std::char_traits<char>, std::allocator<char> >, std::map<std::basic_string<char, std::char_traits<char>, std::allocator<char> >, std::basic_string<char, std::char_traits<char>, std::allocator<char> >, std::less<std::basic_string<char, std::char_traits<char>, std::allocator<char> > >, std::allocator<std::pair<const std::basic_string<char, std::char_traits<char>, std::allocator<char> >, std::basic_string<char, std::char_traits<char>, std::allocator<char> > > > > > >, std::less<std::basic_string<char, std::char_traits<char>, std::allocator<char> > >, std::allocator<std::pair<const std::basic_string<char, std::char_traits<char>, std::allocator<char> >, std::map<std::basic_string<char, std::char_traits<char>, std::allocator<char> >, std::basic_string<char, std::char_traits<char>, std::allocator<char> >, std::less<std::basic_string<char, std::char_traits<char>, std::allocator<char> > >, std::allocator<std::pair<const std::basic_string<char, std::char_traits<char>, std::allocator<char> >, std::basic_string<char, std::char_traits<char>, std::allocator<char> > > > > > > >::_M_begin
FUNC 2e586 11d 0 std::_Rb_tree<std::basic_string<char, std::char_traits<char>, std::allocator<char> >, std::pair<const std::basic_string<char, std::char_traits<char>, std::allocator<char> >, std::basic_string<char, std::char_traits<char>, std::allocator<char> > >, std::_Select1st<std::pair<const std::basic_string<char, std::char_traits<char>, std::allocator<char> >, std::basic_string<char, std::char_traits<char>, std::allocator<char> > > >, std::less<std::basic_string<char, std::char_traits<char>, std::allocator<char> > >, std::allocator<std::pair<const std::basic_string<char, std::char_traits<char>, std::allocator<char> >, std::basic_string<char, std::char_traits<char>, std::allocator<char> > > > >::_Rb_tree
FUNC 2e6a4 96 0 std::_Vector_base<std::basic_string<char, std::char_traits<char>, std::allocator<char> >, std::allocator<std::basic_string<char, std::char_traits<char>, std::allocator<char> > > >::_Vector_base
FUNC 2e73a 8d 0 std::_Rb_tree<std::basic_string<char, std::char_traits<char>, std::allocator<char> >, std::pair<const std::basic_string<char, std::char_traits<char>, std::allocator<char> >, IEC61850_STRUCT::IED_61850>, std::_Select1st<std::pair<const std::basic_string<char, std::char_traits<char>, std::allocator<char> >, IEC61850_STRUCT::IED_61850> >, std::less<std::basic_string<char, std::char_traits<char>, std::allocator<char> > >, std::allocator<std::pair<const std::basic_string<char, std::char_traits<char>, std::allocator<char> >, IEC61850_STRUCT::IED_61850> > >::clear
FUNC 2e7c8 11d 0 std::_Rb_tree<std::basic_string<char, std::char_traits<char>, std::allocator<char> >, std::pair<const std::basic_string<char, std::char_traits<char>, std::allocator<char> >, IEC61850_STRUCT::IED_61850>, std::_Select1st<std::pair<const std::basic_string<char, std::char_traits<char>, std::allocator<char> >, IEC61850_STRUCT::IED_61850> >, std::less<std::basic_string<char, std::char_traits<char>, std::allocator<char> > >, std::allocator<std::pair<const std::basic_string<char, std::char_traits<char>, std::allocator<char> >, IEC61850_STRUCT::IED_61850> > >::_Rb_tree
FUNC 2e8e6 8d 0 std::_Rb_tree<std::basic_string<char, std::char_traits<char>, std::allocator<char> >, std::pair<const std::basic_string<char, std::char_traits<char>, std::allocator<char> >, IEC103::stConfigParam>, std::_Select1st<std::pair<const std::basic_string<char, std::char_traits<char>, std::allocator<char> >, IEC103::stConfigParam> >, std::less<std::basic_string<char, std::char_traits<char>, std::allocator<char> > >, std::allocator<std::pair<const std::basic_string<char, std::char_traits<char>, std::allocator<char> >, IEC103::stConfigParam> > >::clear
FUNC 2e974 8d 0 std::_Rb_tree<std::basic_string<char, std::char_traits<char>, std::allocator<char> >, std::pair<const std::basic_string<char, std::char_traits<char>, std::allocator<char> >, std::map<std::basic_string<char, std::char_traits<char>, std::allocator<char> >, std::basic_string<char, std::char_traits<char>, std::allocator<char> >, std::less<std::basic_string<char, std::char_traits<char>, std::allocator<char> > >, std::allocator<std::pair<const std::basic_string<char, std::char_traits<char>, std::allocator<char> >, std::basic_string<char, std::char_traits<char>, std::allocator<char> > > > > >, std::_Select1st<std::pair<const std::basic_string<char, std::char_traits<char>, std::allocator<char> >, std::map<std::basic_string<char, std::char_traits<char>, std::allocator<char> >, std::basic_string<char, std::char_traits<char>, std::allocator<char> >, std::less<std::basic_string<char, std::char_traits<char>, std::allocator<char> > >, std::allocator<std::pair<const std::basic_string<char, std::char_traits<char>, std::allocator<char> >, std::basic_string<char, std::char_traits<char>, std::allocator<char> > > > > > >, std::less<std::basic_string<char, std::char_traits<char>, std::allocator<char> > >, std::allocator<std::pair<const std::basic_string<char, std::char_traits<char>, std::allocator<char> >, std::map<std::basic_string<char, std::char_traits<char>, std::allocator<char> >, std::basic_string<char, std::char_traits<char>, std::allocator<char> >, std::less<std::basic_string<char, std::char_traits<char>, std::allocator<char> > >, std::allocator<std::pair<const std::basic_string<char, std::char_traits<char>, std::allocator<char> >, std::basic_string<char, std::char_traits<char>, std::allocator<char> > > > > > > >::clear
FUNC 2ea02 11d 0 std::_Rb_tree<std::basic_string<char, std::char_traits<char>, std::allocator<char> >, std::pair<const std::basic_string<char, std::char_traits<char>, std::allocator<char> >, IEC103::stConfigParam>, std::_Select1st<std::pair<const std::basic_string<char, std::char_traits<char>, std::allocator<char> >, IEC103::stConfigParam> >, std::less<std::basic_string<char, std::char_traits<char>, std::allocator<char> > >, std::allocator<std::pair<const std::basic_string<char, std::char_traits<char>, std::allocator<char> >, IEC103::stConfigParam> > >::_Rb_tree
FUNC 2eb20 11d 0 std::_Rb_tree<std::basic_string<char, std::char_traits<char>, std::allocator<char> >, std::pair<const std::basic_string<char, std::char_traits<char>, std::allocator<char> >, std::map<std::basic_string<char, std::char_traits<char>, std::allocator<char> >, std::basic_string<char, std::char_traits<char>, std::allocator<char> >, std::less<std::basic_string<char, std::char_traits<char>, std::allocator<char> > >, std::allocator<std::pair<const std::basic_string<char, std::char_traits<char>, std::allocator<char> >, std::basic_string<char, std::char_traits<char>, std::allocator<char> > > > > >, std::_Select1st<std::pair<const std::basic_string<char, std::char_traits<char>, std::allocator<char> >, std::map<std::basic_string<char, std::char_traits<char>, std::allocator<char> >, std::basic_string<char, std::char_traits<char>, std::allocator<char> >, std::less<std::basic_string<char, std::char_traits<char>, std::allocator<char> > >, std::allocator<std::pair<const std::basic_string<char, std::char_traits<char>, std::allocator<char> >, std::basic_string<char, std::char_traits<char>, std::allocator<char> > > > > > >, std::less<std::basic_string<char, std::char_traits<char>, std::allocator<char> > >, std::allocator<std::pair<const std::basic_string<char, std::char_traits<char>, std::allocator<char> >, std::map<std::basic_string<char, std::char_traits<char>, std::allocator<char> >, std::basic_string<char, std::char_traits<char>, std::allocator<char> >, std::less<std::basic_string<char, std::char_traits<char>, std::allocator<char> > >, std::allocator<std::pair<const std::basic_string<char, std::char_traits<char>, std::allocator<char> >, std::basic_string<char, std::char_traits<char>, std::allocator<char> > > > > > > >::_Rb_tree
FUNC 2ec3e 8d 0 std::_Rb_tree<std::basic_string<char, std::char_traits<char>, std::allocator<char> >, std::pair<const std::basic_string<char, std::char_traits<char>, std::allocator<char> >, std::map<int, std::map<int, IEC104WF::stPointTable, std::less<int>, std::allocator<std::pair<const int, IEC104WF::stPointTable> > >, std::less<int>, std::allocator<std::pair<const int, std::map<int, IEC104WF::stPointTable, std::less<int>, std::allocator<std::pair<const int, IEC104WF::stPointTable> > > > > > >, std::_Select1st<std::pair<const std::basic_string<char, std::char_traits<char>, std::allocator<char> >, std::map<int, std::map<int, IEC104WF::stPointTable, std::less<int>, std::allocator<std::pair<const int, IEC104WF::stPointTable> > >, std::less<int>, std::allocator<std::pair<const int, std::map<int, IEC104WF::stPointTable, std::less<int>, std::allocator<std::pair<const int, IEC104WF::stPointTable> > > > > > > >, std::less<std::basic_string<char, std::char_traits<char>, std::allocator<char> > >, std::allocator<std::pair<const std::basic_string<char, std::char_traits<char>, std::allocator<char> >, std::map<int, std::map<int, IEC104WF::stPointTable, std::less<int>, std::allocator<std::pair<const int, IEC104WF::stPointTable> > >, std::less<int>, std::allocator<std::pair<const int, std::map<int, IEC104WF::stPointTable, std::less<int>, std::allocator<std::pair<const int, IEC104WF::stPointTable> > > > > > > > >::clear
FUNC 2eccc 8d 0 std::_Rb_tree<int, std::pair<const int, std::map<int, IEC104WF::stPointTable, std::less<int>, std::allocator<std::pair<const int, IEC104WF::stPointTable> > > >, std::_Select1st<std::pair<const int, std::map<int, IEC104WF::stPointTable, std::less<int>, std::allocator<std::pair<const int, IEC104WF::stPointTable> > > > >, std::less<int>, std::allocator<std::pair<const int, std::map<int, IEC104WF::stPointTable, std::less<int>, std::allocator<std::pair<const int, IEC104WF::stPointTable> > > > > >::clear
FUNC 2ed5a 8d 0 std::_Rb_tree<int, std::pair<const int, IEC104WF::stPointTable>, std::_Select1st<std::pair<const int, IEC104WF::stPointTable> >, std::less<int>, std::allocator<std::pair<const int, IEC104WF::stPointTable> > >::clear
FUNC 2ede8 11d 0 std::_Rb_tree<std::basic_string<char, std::char_traits<char>, std::allocator<char> >, std::pair<const std::basic_string<char, std::char_traits<char>, std::allocator<char> >, std::map<int, std::map<int, IEC104WF::stPointTable, std::less<int>, std::allocator<std::pair<const int, IEC104WF::stPointTable> > >, std::less<int>, std::allocator<std::pair<const int, std::map<int, IEC104WF::stPointTable, std::less<int>, std::allocator<std::pair<const int, IEC104WF::stPointTable> > > > > > >, std::_Select1st<std::pair<const std::basic_string<char, std::char_traits<char>, std::allocator<char> >, std::map<int, std::map<int, IEC104WF::stPointTable, std::less<int>, std::allocator<std::pair<const int, IEC104WF::stPointTable> > >, std::less<int>, std::allocator<std::pair<const int, std::map<int, IEC104WF::stPointTable, std::less<int>, std::allocator<std::pair<const int, IEC104WF::stPointTable> > > > > > > >, std::less<std::basic_string<char, std::char_traits<char>, std::allocator<char> > >, std::allocator<std::pair<const std::basic_string<char, std::char_traits<char>, std::allocator<char> >, std::map<int, std::map<int, IEC104WF::stPointTable, std::less<int>, std::allocator<std::pair<const int, IEC104WF::stPointTable> > >, std::less<int>, std::allocator<std::pair<const int, std::map<int, IEC104WF::stPointTable, std::less<int>, std::allocator<std::pair<const int, IEC104WF::stPointTable> > > > > > > > >::_Rb_tree
FUNC 2ef06 21 0 std::_List_base<std::basic_string<char, std::char_traits<char>, std::allocator<char> >, std::allocator<std::basic_string<char, std::char_traits<char>, std::allocator<char> > > >::_M_init
FUNC 2ef28 e 0 std::_List_base<std::basic_string<char, std::char_traits<char>, std::allocator<char> >, std::allocator<std::basic_string<char, std::char_traits<char>, std::allocator<char> > > >::_M_get_Node_allocator
FUNC 2ef36 1e 0 std::allocator<std::basic_string<char, std::char_traits<char>, std::allocator<char> > >::allocator<std::_List_node<std::basic_string<char, std::char_traits<char>, std::allocator<char> > > >
FUNC 2ef54 50 0 std::_List_base<std::basic_string<char, std::char_traits<char>, std::allocator<char> >, std::allocator<std::basic_string<char, std::char_traits<char>, std::allocator<char> > > >::_List_base
FUNC 2efa4 28 0 std::list<std::basic_string<char, std::char_traits<char>, std::allocator<char> >, std::allocator<std::basic_string<char, std::char_traits<char>, std::allocator<char> > > >::begin
FUNC 2efcc 25 0 std::list<std::basic_string<char, std::char_traits<char>, std::allocator<char> >, std::allocator<std::basic_string<char, std::char_traits<char>, std::allocator<char> > > >::end
FUNC 2eff2 59 0 std::list<std::basic_string<char, std::char_traits<char>, std::allocator<char> >, std::allocator<std::basic_string<char, std::char_traits<char>, std::allocator<char> > > >::_M_initialize_dispatch<std::_List_const_iterator<std::basic_string<char, std::char_traits<char>, std::allocator<char> > > >
FUNC 2f04c 25 0 std::map<std::basic_string<char, std::char_traits<char>, std::allocator<char> >, IEC61850_STRUCT::IED_61850, std::less<std::basic_string<char, std::char_traits<char>, std::allocator<char> > >, std::allocator<std::pair<const std::basic_string<char, std::char_traits<char>, std::allocator<char> >, IEC61850_STRUCT::IED_61850> > >::lower_bound
FUNC 2f072 1a 0 std::map<std::basic_string<char, std::char_traits<char>, std::allocator<char> >, IEC61850_STRUCT::IED_61850, std::less<std::basic_string<char, std::char_traits<char>, std::allocator<char> > >, std::allocator<std::pair<const std::basic_string<char, std::char_traits<char>, std::allocator<char> >, IEC61850_STRUCT::IED_61850> > >::key_comp
FUNC 2f08c 15 0 std::_Rb_tree_iterator<std::pair<const std::basic_string<char, std::char_traits<char>, std::allocator<char> >, IEC61850_STRUCT::IED_61850> >::operator*
FUNC 2f0a2 1a 0 std::map<std::basic_string<char, std::char_traits<char>, std::allocator<char> >, IEC61850_STRUCT::IED_61850, std::less<std::basic_string<char, std::char_traits<char>, std::allocator<char> > >, std::allocator<std::pair<const std::basic_string<char, std::char_traits<char>, std::allocator<char> >, IEC61850_STRUCT::IED_61850> > >::end
FUNC 2f0bc 22 0 std::_Rb_tree_iterator<std::pair<const std::basic_string<char, std::char_traits<char>, std::allocator<char> >, IEC61850_STRUCT::IED_61850> >::operator==
FUNC 2f0de 1dc 0 IEC61850_STRUCT::IED_61850::IED_61850
FUNC 2f2ba 6b 0 std::pair<const std::basic_string<char, std::char_traits<char>, std::allocator<char> >, IEC61850_STRUCT::IED_61850>::pair
FUNC 2f326 40 0 std::map<std::basic_string<char, std::char_traits<char>, std::allocator<char> >, IEC61850_STRUCT::IED_61850, std::less<std::basic_string<char, std::char_traits<char>, std::allocator<char> > >, std::allocator<std::pair<const std::basic_string<char, std::char_traits<char>, std::allocator<char> >, IEC61850_STRUCT::IED_61850> > >::insert
FUNC 2f366 f8 0 std::_Rb_tree<std::basic_string<char, std::char_traits<char>, std::allocator<char> >, std::pair<const std::basic_string<char, std::char_traits<char>, std::allocator<char> >, std::basic_string<char, std::char_traits<char>, std::allocator<char> > >, std::_Select1st<std::pair<const std::basic_string<char, std::char_traits<char>, std::allocator<char> >, std::basic_string<char, std::char_traits<char>, std::allocator<char> > > >, std::less<std::basic_string<char, std::char_traits<char>, std::allocator<char> > >, std::allocator<std::pair<const std::basic_string<char, std::char_traits<char>, std::allocator<char> >, std::basic_string<char, std::char_traits<char>, std::allocator<char> > > > >::operator=
FUNC 2f45e 25 0 std::map<int, IEC104WF::stPointTable, std::less<int>, std::allocator<std::pair<const int, IEC104WF::stPointTable> > >::lower_bound
FUNC 2f484 1a 0 std::map<int, IEC104WF::stPointTable, std::less<int>, std::allocator<std::pair<const int, IEC104WF::stPointTable> > >::key_comp
FUNC 2f49e 15 0 std::_Rb_tree_iterator<std::pair<const int, IEC104WF::stPointTable> >::operator*
FUNC 2f4b4 23 0 std::less<int>::operator()
FUNC 2f4d8 1a 0 std::map<int, IEC104WF::stPointTable, std::less<int>, std::allocator<std::pair<const int, IEC104WF::stPointTable> > >::end
FUNC 2f4f2 22 0 std::_Rb_tree_iterator<std::pair<const int, IEC104WF::stPointTable> >::operator==
FUNC 2f514 41 0 IEC104WF::stPointTable::stPointTable
FUNC 2f556 39 0 std::pair<const int, IEC104WF::stPointTable>::pair
FUNC 2f590 40 0 std::map<int, IEC104WF::stPointTable, std::less<int>, std::allocator<std::pair<const int, IEC104WF::stPointTable> > >::insert
FUNC 2f5d0 25 0 std::map<int, std::map<int, IEC104WF::stPointTable, std::less<int>, std::allocator<std::pair<const int, IEC104WF::stPointTable> > >, std::less<int>, std::allocator<std::pair<const int, std::map<int, IEC104WF::stPointTable, std::less<int>, std::allocator<std::pair<const int, IEC104WF::stPointTable> > > > > >::lower_bound
FUNC 2f5f6 1a 0 std::map<int, std::map<int, IEC104WF::stPointTable, std::less<int>, std::allocator<std::pair<const int, IEC104WF::stPointTable> > >, std::less<int>, std::allocator<std::pair<const int, std::map<int, IEC104WF::stPointTable, std::less<int>, std::allocator<std::pair<const int, IEC104WF::stPointTable> > > > > >::key_comp
FUNC 2f610 15 0 std::_Rb_tree_iterator<std::pair<const int, std::map<int, IEC104WF::stPointTable, std::less<int>, std::allocator<std::pair<const int, IEC104WF::stPointTable> > > > >::operator*
FUNC 2f626 1a 0 std::map<int, std::map<int, IEC104WF::stPointTable, std::less<int>, std::allocator<std::pair<const int, IEC104WF::stPointTable> > >, std::less<int>, std::allocator<std::pair<const int, std::map<int, IEC104WF::stPointTable, std::less<int>, std::allocator<std::pair<const int, IEC104WF::stPointTable> > > > > >::end
FUNC 2f640 22 0 std::_Rb_tree_iterator<std::pair<const int, std::map<int, IEC104WF::stPointTable, std::less<int>, std::allocator<std::pair<const int, IEC104WF::stPointTable> > > > >::operator==
FUNC 2f662 39 0 std::pair<const int, std::map<int, IEC104WF::stPointTable, std::less<int>, std::allocator<std::pair<const int, IEC104WF::stPointTable> > > >::pair
FUNC 2f69c 40 0 std::map<int, std::map<int, IEC104WF::stPointTable, std::less<int>, std::allocator<std::pair<const int, IEC104WF::stPointTable> > >, std::less<int>, std::allocator<std::pair<const int, std::map<int, IEC104WF::stPointTable, std::less<int>, std::allocator<std::pair<const int, IEC104WF::stPointTable> > > > > >::insert
FUNC 2f6dc f8 0 std::_Rb_tree<int, std::pair<const int, IEC104WF::stPointTable>, std::_Select1st<std::pair<const int, IEC104WF::stPointTable> >, std::less<int>, std::allocator<std::pair<const int, IEC104WF::stPointTable> > >::operator=
FUNC 2f7d4 25 0 std::map<std::basic_string<char, std::char_traits<char>, std::allocator<char> >, std::map<int, std::map<int, IEC104WF::stPointTable, std::less<int>, std::allocator<std::pair<const int, IEC104WF::stPointTable> > >, std::less<int>, std::allocator<std::pair<const int, std::map<int, IEC104WF::stPointTable, std::less<int>, std::allocator<std::pair<const int, IEC104WF::stPointTable> > > > > >, std::less<std::basic_string<char, std::char_traits<char>, std::allocator<char> > >, std::allocator<std::pair<const std::basic_string<char, std::char_traits<char>, std::allocator<char> >, std::map<int, std::map<int, IEC104WF::stPointTable, std::less<int>, std::allocator<std::pair<const int, IEC104WF::stPointTable> > >, std::less<int>, std::allocator<std::pair<const int, std::map<int, IEC104WF::stPointTable, std::less<int>, std::allocator<std::pair<const int, IEC104WF::stPointTable> > > > > > > > >::lower_bound
FUNC 2f7fa 1a 0 std::map<std::basic_string<char, std::char_traits<char>, std::allocator<char> >, std::map<int, std::map<int, IEC104WF::stPointTable, std::less<int>, std::allocator<std::pair<const int, IEC104WF::stPointTable> > >, std::less<int>, std::allocator<std::pair<const int, std::map<int, IEC104WF::stPointTable, std::less<int>, std::allocator<std::pair<const int, IEC104WF::stPointTable> > > > > >, std::less<std::basic_string<char, std::char_traits<char>, std::allocator<char> > >, std::allocator<std::pair<const std::basic_string<char, std::char_traits<char>, std::allocator<char> >, std::map<int, std::map<int, IEC104WF::stPointTable, std::less<int>, std::allocator<std::pair<const int, IEC104WF::stPointTable> > >, std::less<int>, std::allocator<std::pair<const int, std::map<int, IEC104WF::stPointTable, std::less<int>, std::allocator<std::pair<const int, IEC104WF::stPointTable> > > > > > > > >::key_comp
FUNC 2f814 15 0 std::_Rb_tree_iterator<std::pair<const std::basic_string<char, std::char_traits<char>, std::allocator<char> >, std::map<int, std::map<int, IEC104WF::stPointTable, std::less<int>, std::allocator<std::pair<const int, IEC104WF::stPointTable> > >, std::less<int>, std::allocator<std::pair<const int, std::map<int, IEC104WF::stPointTable, std::less<int>, std::allocator<std::pair<const int, IEC104WF::stPointTable> > > > > > > >::operator*
FUNC 2f82a 1a 0 std::map<std::basic_string<char, std::char_traits<char>, std::allocator<char> >, std::map<int, std::map<int, IEC104WF::stPointTable, std::less<int>, std::allocator<std::pair<const int, IEC104WF::stPointTable> > >, std::less<int>, std::allocator<std::pair<const int, std::map<int, IEC104WF::stPointTable, std::less<int>, std::allocator<std::pair<const int, IEC104WF::stPointTable> > > > > >, std::less<std::basic_string<char, std::char_traits<char>, std::allocator<char> > >, std::allocator<std::pair<const std::basic_string<char, std::char_traits<char>, std::allocator<char> >, std::map<int, std::map<int, IEC104WF::stPointTable, std::less<int>, std::allocator<std::pair<const int, IEC104WF::stPointTable> > >, std::less<int>, std::allocator<std::pair<const int, std::map<int, IEC104WF::stPointTable, std::less<int>, std::allocator<std::pair<const int, IEC104WF::stPointTable> > > > > > > > >::end
FUNC 2f844 22 0 std::_Rb_tree_iterator<std::pair<const std::basic_string<char, std::char_traits<char>, std::allocator<char> >, std::map<int, std::map<int, IEC104WF::stPointTable, std::less<int>, std::allocator<std::pair<const int, IEC104WF::stPointTable> > >, std::less<int>, std::allocator<std::pair<const int, std::map<int, IEC104WF::stPointTable, std::less<int>, std::allocator<std::pair<const int, IEC104WF::stPointTable> > > > > > > >::operator==
FUNC 2f866 6b 0 std::pair<const std::basic_string<char, std::char_traits<char>, std::allocator<char> >, std::map<int, std::map<int, IEC104WF::stPointTable, std::less<int>, std::allocator<std::pair<const int, IEC104WF::stPointTable> > >, std::less<int>, std::allocator<std::pair<const int, std::map<int, IEC104WF::stPointTable, std::less<int>, std::allocator<std::pair<const int, IEC104WF::stPointTable> > > > > > >::pair
FUNC 2f8d2 40 0 std::map<std::basic_string<char, std::char_traits<char>, std::allocator<char> >, std::map<int, std::map<int, IEC104WF::stPointTable, std::less<int>, std::allocator<std::pair<const int, IEC104WF::stPointTable> > >, std::less<int>, std::allocator<std::pair<const int, std::map<int, IEC104WF::stPointTable, std::less<int>, std::allocator<std::pair<const int, IEC104WF::stPointTable> > > > > >, std::less<std::basic_string<char, std::char_traits<char>, std::allocator<char> > >, std::allocator<std::pair<const std::basic_string<char, std::char_traits<char>, std::allocator<char> >, std::map<int, std::map<int, IEC104WF::stPointTable, std::less<int>, std::allocator<std::pair<const int, IEC104WF::stPointTable> > >, std::less<int>, std::allocator<std::pair<const int, std::map<int, IEC104WF::stPointTable, std::less<int>, std::allocator<std::pair<const int, IEC104WF::stPointTable> > > > > > > > >::insert
FUNC 2f912 f8 0 std::_Rb_tree<int, std::pair<const int, std::map<int, IEC104WF::stPointTable, std::less<int>, std::allocator<std::pair<const int, IEC104WF::stPointTable> > > >, std::_Select1st<std::pair<const int, std::map<int, IEC104WF::stPointTable, std::less<int>, std::allocator<std::pair<const int, IEC104WF::stPointTable> > > > >, std::less<int>, std::allocator<std::pair<const int, std::map<int, IEC104WF::stPointTable, std::less<int>, std::allocator<std::pair<const int, IEC104WF::stPointTable> > > > > >::operator=
FUNC 2fa0a 25 0 std::map<std::basic_string<char, std::char_traits<char>, std::allocator<char> >, IEC103::stConfigParam, std::less<std::basic_string<char, std::char_traits<char>, std::allocator<char> > >, std::allocator<std::pair<const std::basic_string<char, std::char_traits<char>, std::allocator<char> >, IEC103::stConfigParam> > >::lower_bound
FUNC 2fa30 1a 0 std::map<std::basic_string<char, std::char_traits<char>, std::allocator<char> >, IEC103::stConfigParam, std::less<std::basic_string<char, std::char_traits<char>, std::allocator<char> > >, std::allocator<std::pair<const std::basic_string<char, std::char_traits<char>, std::allocator<char> >, IEC103::stConfigParam> > >::key_comp
FUNC 2fa4a 15 0 std::_Rb_tree_iterator<std::pair<const std::basic_string<char, std::char_traits<char>, std::allocator<char> >, IEC103::stConfigParam> >::operator*
FUNC 2fa60 22 0 std::_Rb_tree_iterator<std::pair<const std::basic_string<char, std::char_traits<char>, std::allocator<char> >, IEC103::stConfigParam> >::operator==
FUNC 2fa82 bf 0 IEC103::stConfigParam::stConfigParam
FUNC 2fb42 6b 0 std::pair<const std::basic_string<char, std::char_traits<char>, std::allocator<char> >, IEC103::stConfigParam>::pair
FUNC 2fbae 40 0 std::map<std::basic_string<char, std::char_traits<char>, std::allocator<char> >, IEC103::stConfigParam, std::less<std::basic_string<char, std::char_traits<char>, std::allocator<char> > >, std::allocator<std::pair<const std::basic_string<char, std::char_traits<char>, std::allocator<char> >, IEC103::stConfigParam> > >::insert
FUNC 2fbee 25 0 std::map<std::basic_string<char, std::char_traits<char>, std::allocator<char> >, std::map<std::basic_string<char, std::char_traits<char>, std::allocator<char> >, std::basic_string<char, std::char_traits<char>, std::allocator<char> >, std::less<std::basic_string<char, std::char_traits<char>, std::allocator<char> > >, std::allocator<std::pair<const std::basic_string<char, std::char_traits<char>, std::allocator<char> >, std::basic_string<char, std::char_traits<char>, std::allocator<char> > > > >, std::less<std::basic_string<char, std::char_traits<char>, std::allocator<char> > >, std::allocator<std::pair<const std::basic_string<char, std::char_traits<char>, std::allocator<char> >, std::map<std::basic_string<char, std::char_traits<char>, std::allocator<char> >, std::basic_string<char, std::char_traits<char>, std::allocator<char> >, std::less<std::basic_string<char, std::char_traits<char>, std::allocator<char> > >, std::allocator<std::pair<const std::basic_string<char, std::char_traits<char>, std::allocator<char> >, std::basic_string<char, std::char_traits<char>, std::allocator<char> > > > > > > >::lower_bound
FUNC 2fc14 1a 0 std::map<std::basic_string<char, std::char_traits<char>, std::allocator<char> >, std::map<std::basic_string<char, std::char_traits<char>, std::allocator<char> >, std::basic_string<char, std::char_traits<char>, std::allocator<char> >, std::less<std::basic_string<char, std::char_traits<char>, std::allocator<char> > >, std::allocator<std::pair<const std::basic_string<char, std::char_traits<char>, std::allocator<char> >, std::basic_string<char, std::char_traits<char>, std::allocator<char> > > > >, std::less<std::basic_string<char, std::char_traits<char>, std::allocator<char> > >, std::allocator<std::pair<const std::basic_string<char, std::char_traits<char>, std::allocator<char> >, std::map<std::basic_string<char, std::char_traits<char>, std::allocator<char> >, std::basic_string<char, std::char_traits<char>, std::allocator<char> >, std::less<std::basic_string<char, std::char_traits<char>, std::allocator<char> > >, std::allocator<std::pair<const std::basic_string<char, std::char_traits<char>, std::allocator<char> >, std::basic_string<char, std::char_traits<char>, std::allocator<char> > > > > > > >::key_comp
FUNC 2fc2e 15 0 std::_Rb_tree_iterator<std::pair<const std::basic_string<char, std::char_traits<char>, std::allocator<char> >, std::map<std::basic_string<char, std::char_traits<char>, std::allocator<char> >, std::basic_string<char, std::char_traits<char>, std::allocator<char> >, std::less<std::basic_string<char, std::char_traits<char>, std::allocator<char> > >, std::allocator<std::pair<const std::basic_string<char, std::char_traits<char>, std::allocator<char> >, std::basic_string<char, std::char_traits<char>, std::allocator<char> > > > > > >::operator*
FUNC 2fc44 1a 0 std::map<std::basic_string<char, std::char_traits<char>, std::allocator<char> >, std::map<std::basic_string<char, std::char_traits<char>, std::allocator<char> >, std::basic_string<char, std::char_traits<char>, std::allocator<char> >, std::less<std::basic_string<char, std::char_traits<char>, std::allocator<char> > >, std::allocator<std::pair<const std::basic_string<char, std::char_traits<char>, std::allocator<char> >, std::basic_string<char, std::char_traits<char>, std::allocator<char> > > > >, std::less<std::basic_string<char, std::char_traits<char>, std::allocator<char> > >, std::allocator<std::pair<const std::basic_string<char, std::char_traits<char>, std::allocator<char> >, std::map<std::basic_string<char, std::char_traits<char>, std::allocator<char> >, std::basic_string<char, std::char_traits<char>, std::allocator<char> >, std::less<std::basic_string<char, std::char_traits<char>, std::allocator<char> > >, std::allocator<std::pair<const std::basic_string<char, std::char_traits<char>, std::allocator<char> >, std::basic_string<char, std::char_traits<char>, std::allocator<char> > > > > > > >::end
FUNC 2fc5e 22 0 std::_Rb_tree_iterator<std::pair<const std::basic_string<char, std::char_traits<char>, std::allocator<char> >, std::map<std::basic_string<char, std::char_traits<char>, std::allocator<char> >, std::basic_string<char, std::char_traits<char>, std::allocator<char> >, std::less<std::basic_string<char, std::char_traits<char>, std::allocator<char> > >, std::allocator<std::pair<const std::basic_string<char, std::char_traits<char>, std::allocator<char> >, std::basic_string<char, std::char_traits<char>, std::allocator<char> > > > > > >::operator==
FUNC 2fc80 6b 0 std::pair<const std::basic_string<char, std::char_traits<char>, std::allocator<char> >, std::map<std::basic_string<char, std::char_traits<char>, std::allocator<char> >, std::basic_string<char, std::char_traits<char>, std::allocator<char> >, std::less<std::basic_string<char, std::char_traits<char>, std::allocator<char> > >, std::allocator<std::pair<const std::basic_string<char, std::char_traits<char>, std::allocator<char> >, std::basic_string<char, std::char_traits<char>, std::allocator<char> > > > > >::pair
FUNC 2fcec 40 0 std::map<std::basic_string<char, std::char_traits<char>, std::allocator<char> >, std::map<std::basic_string<char, std::char_traits<char>, std::allocator<char> >, std::basic_string<char, std::char_traits<char>, std::allocator<char> >, std::less<std::basic_string<char, std::char_traits<char>, std::allocator<char> > >, std::allocator<std::pair<const std::basic_string<char, std::char_traits<char>, std::allocator<char> >, std::basic_string<char, std::char_traits<char>, std::allocator<char> > > > >, std::less<std::basic_string<char, std::char_traits<char>, std::allocator<char> > >, std::allocator<std::pair<const std::basic_string<char, std::char_traits<char>, std::allocator<char> >, std::map<std::basic_string<char, std::char_traits<char>, std::allocator<char> >, std::basic_string<char, std::char_traits<char>, std::allocator<char> >, std::less<std::basic_string<char, std::char_traits<char>, std::allocator<char> > >, std::allocator<std::pair<const std::basic_string<char, std::char_traits<char>, std::allocator<char> >, std::basic_string<char, std::char_traits<char>, std::allocator<char> > > > > > > >::insert
FUNC 2fd2c 25 0 std::list<std::basic_string<char, std::char_traits<char>, std::allocator<char> >, std::allocator<std::basic_string<char, std::char_traits<char>, std::allocator<char> > > >::end
FUNC 2fd52 40 0 std::list<std::basic_string<char, std::char_traits<char>, std::allocator<char> >, std::allocator<std::basic_string<char, std::char_traits<char>, std::allocator<char> > > >::_M_insert
FUNC 2fd92 61 0 std::_Rb_tree<std::basic_string<char, std::char_traits<char>, std::allocator<char> >, std::pair<const std::basic_string<char, std::char_traits<char>, std::allocator<char> >, IEC61850_STRUCT::IED_61850>, std::_Select1st<std::pair<const std::basic_string<char, std::char_traits<char>, std::allocator<char> >, IEC61850_STRUCT::IED_61850> >, std::less<std::basic_string<char, std::char_traits<char>, std::allocator<char> > >, std::allocator<std::pair<const std::basic_string<char, std::char_traits<char>, std::allocator<char> >, IEC61850_STRUCT::IED_61850> > >::_Rb_tree_impl<std::less<std::basic_string<char, std::char_traits<char>, std::allocator<char> > >, false>::_Rb_tree_impl
FUNC 2fdf4 a 0 __gnu_cxx::new_allocator<std::_Rb_tree_node<std::pair<const std::basic_string<char, std::char_traits<char>, std::allocator<char> >, IEC61850_STRUCT::IED_61850> > >::~new_allocator
FUNC 2fdfe 12 0 std::_Rb_tree<std::basic_string<char, std::char_traits<char>, std::allocator<char> >, std::pair<const std::basic_string<char, std::char_traits<char>, std::allocator<char> >, IEC61850_STRUCT::IED_61850>, std::_Select1st<std::pair<const std::basic_string<char, std::char_traits<char>, std::allocator<char> >, IEC61850_STRUCT::IED_61850> >, std::less<std::basic_string<char, std::char_traits<char>, std::allocator<char> > >, std::allocator<std::pair<const std::basic_string<char, std::char_traits<char>, std::allocator<char> >, IEC61850_STRUCT::IED_61850> > >::_S_right
FUNC 2fe10 12 0 std::_Rb_tree<std::basic_string<char, std::char_traits<char>, std::allocator<char> >, std::pair<const std::basic_string<char, std::char_traits<char>, std::allocator<char> >, IEC61850_STRUCT::IED_61850>, std::_Select1st<std::pair<const std::basic_string<char, std::char_traits<char>, std::allocator<char> >, IEC61850_STRUCT::IED_61850> >, std::less<std::basic_string<char, std::char_traits<char>, std::allocator<char> > >, std::allocator<std::pair<const std::basic_string<char, std::char_traits<char>, std::allocator<char> >, IEC61850_STRUCT::IED_61850> > >::_S_left
FUNC 2fe22 86 0 std::_Rb_tree<std::basic_string<char, std::char_traits<char>, std::allocator<char> >, std::pair<const std::basic_string<char, std::char_traits<char>, std::allocator<char> >, IEC61850_STRUCT::IED_61850>, std::_Select1st<std::pair<const std::basic_string<char, std::char_traits<char>, std::allocator<char> >, IEC61850_STRUCT::IED_61850> >, std::less<std::basic_string<char, std::char_traits<char>, std::allocator<char> > >, std::allocator<std::pair<const std::basic_string<char, std::char_traits<char>, std::allocator<char> >, IEC61850_STRUCT::IED_61850> > >::_M_destroy_node
FUNC 2fea8 31 0 std::_List_base<std::basic_string<char, std::char_traits<char>, std::allocator<char> >, std::allocator<std::basic_string<char, std::char_traits<char>, std::allocator<char> > > >::_List_impl::_List_impl
FUNC 2feda a 0 __gnu_cxx::new_allocator<std::_List_node<std::basic_string<char, std::char_traits<char>, std::allocator<char> > > >::~new_allocator
FUNC 2fee4 3b 0 std::_List_base<std::basic_string<char, std::char_traits<char>, std::allocator<char> >, std::allocator<std::basic_string<char, std::char_traits<char>, std::allocator<char> > > >::_M_get_Tp_allocator
FUNC 2ff20 2a 0 std::_List_base<std::basic_string<char, std::char_traits<char>, std::allocator<char> >, std::allocator<std::basic_string<char, std::char_traits<char>, std::allocator<char> > > >::_M_put_node
FUNC 2ff4a 61 0 std::_Rb_tree<std::basic_string<char, std::char_traits<char>, std::allocator<char> >, std::pair<const std::basic_string<char, std::char_traits<char>, std::allocator<char> >, std::map<int, std::map<int, IEC104WF::stPointTable, std::less<int>, std::allocator<std::pair<const int, IEC104WF::stPointTable> > >, std::less<int>, std::allocator<std::pair<const int, std::map<int, IEC104WF::stPointTable, std::less<int>, std::allocator<std::pair<const int, IEC104WF::stPointTable> > > > > > >, std::_Select1st<std::pair<const std::basic_string<char, std::char_traits<char>, std::allocator<char> >, std::map<int, std::map<int, IEC104WF::stPointTable, std::less<int>, std::allocator<std::pair<const int, IEC104WF::stPointTable> > >, std::less<int>, std::allocator<std::pair<const int, std::map<int, IEC104WF::stPointTable, std::less<int>, std::allocator<std::pair<const int, IEC104WF::stPointTable> > > > > > > >, std::less<std::basic_string<char, std::char_traits<char>, std::allocator<char> > >, std::allocator<std::pair<const std::basic_string<char, std::char_traits<char>, std::allocator<char> >, std::map<int, std::map<int, IEC104WF::stPointTable, std::less<int>, std::allocator<std::pair<const int, IEC104WF::stPointTable> > >, std::less<int>, std::allocator<std::pair<const int, std::map<int, IEC104WF::stPointTable, std::less<int>, std::allocator<std::pair<const int, IEC104WF::stPointTable> > > > > > > > >::_Rb_tree_impl<std::less<std::basic_string<char, std::char_traits<char>, std::allocator<char> > >, false>::_Rb_tree_impl
FUNC 2ffac a 0 __gnu_cxx::new_allocator<std::_Rb_tree_node<std::pair<const std::basic_string<char, std::char_traits<char>, std::allocator<char> >, std::map<int, std::map<int, IEC104WF::stPointTable, std::less<int>, std::allocator<std::pair<const int, IEC104WF::stPointTable> > >, std::less<int>, std::allocator<std::pair<const int, std::map<int, IEC104WF::stPointTable, std::less<int>, std::allocator<std::pair<const int, IEC104WF::stPointTable> > > > > > > > >::~new_allocator
FUNC 2ffb6 12 0 std::_Rb_tree<std::basic_string<char, std::char_traits<char>, std::allocator<char> >, std::pair<const std::basic_string<char, std::char_traits<char>, std::allocator<char> >, std::map<int, std::map<int, IEC104WF::stPointTable, std::less<int>, std::allocator<std::pair<const int, IEC104WF::stPointTable> > >, std::less<int>, std::allocator<std::pair<const int, std::map<int, IEC104WF::stPointTable, std::less<int>, std::allocator<std::pair<const int, IEC104WF::stPointTable> > > > > > >, std::_Select1st<std::pair<const std::basic_string<char, std::char_traits<char>, std::allocator<char> >, std::map<int, std::map<int, IEC104WF::stPointTable, std::less<int>, std::allocator<std::pair<const int, IEC104WF::stPointTable> > >, std::less<int>, std::allocator<std::pair<const int, std::map<int, IEC104WF::stPointTable, std::less<int>, std::allocator<std::pair<const int, IEC104WF::stPointTable> > > > > > > >, std::less<std::basic_string<char, std::char_traits<char>, std::allocator<char> > >, std::allocator<std::pair<const std::basic_string<char, std::char_traits<char>, std::allocator<char> >, std::map<int, std::map<int, IEC104WF::stPointTable, std::less<int>, std::allocator<std::pair<const int, IEC104WF::stPointTable> > >, std::less<int>, std::allocator<std::pair<const int, std::map<int, IEC104WF::stPointTable, std::less<int>, std::allocator<std::pair<const int, IEC104WF::stPointTable> > > > > > > > >::_S_right
FUNC 2ffc8 12 0 std::_Rb_tree<std::basic_string<char, std::char_traits<char>, std::allocator<char> >, std::pair<const std::basic_string<char, std::char_traits<char>, std::allocator<char> >, std::map<int, std::map<int, IEC104WF::stPointTable, std::less<int>, std::allocator<std::pair<const int, IEC104WF::stPointTable> > >, std::less<int>, std::allocator<std::pair<const int, std::map<int, IEC104WF::stPointTable, std::less<int>, std::allocator<std::pair<const int, IEC104WF::stPointTable> > > > > > >, std::_Select1st<std::pair<const std::basic_string<char, std::char_traits<char>, std::allocator<char> >, std::map<int, std::map<int, IEC104WF::stPointTable, std::less<int>, std::allocator<std::pair<const int, IEC104WF::stPointTable> > >, std::less<int>, std::allocator<std::pair<const int, std::map<int, IEC104WF::stPointTable, std::less<int>, std::allocator<std::pair<const int, IEC104WF::stPointTable> > > > > > > >, std::less<std::basic_string<char, std::char_traits<char>, std::allocator<char> > >, std::allocator<std::pair<const std::basic_string<char, std::char_traits<char>, std::allocator<char> >, std::map<int, std::map<int, IEC104WF::stPointTable, std::less<int>, std::allocator<std::pair<const int, IEC104WF::stPointTable> > >, std::less<int>, std::allocator<std::pair<const int, std::map<int, IEC104WF::stPointTable, std::less<int>, std::allocator<std::pair<const int, IEC104WF::stPointTable> > > > > > > > >::_S_left
FUNC 2ffda 86 0 std::_Rb_tree<std::basic_string<char, std::char_traits<char>, std::allocator<char> >, std::pair<const std::basic_string<char, std::char_traits<char>, std::allocator<char> >, std::map<int, std::map<int, IEC104WF::stPointTable, std::less<int>, std::allocator<std::pair<const int, IEC104WF::stPointTable> > >, std::less<int>, std::allocator<std::pair<const int, std::map<int, IEC104WF::stPointTable, std::less<int>, std::allocator<std::pair<const int, IEC104WF::stPointTable> > > > > > >, std::_Select1st<std::pair<const std::basic_string<char, std::char_traits<char>, std::allocator<char> >, std::map<int, std::map<int, IEC104WF::stPointTable, std::less<int>, std::allocator<std::pair<const int, IEC104WF::stPointTable> > >, std::less<int>, std::allocator<std::pair<const int, std::map<int, IEC104WF::stPointTable, std::less<int>, std::allocator<std::pair<const int, IEC104WF::stPointTable> > > > > > > >, std::less<std::basic_string<char, std::char_traits<char>, std::allocator<char> > >, std::allocator<std::pair<const std::basic_string<char, std::char_traits<char>, std::allocator<char> >, std::map<int, std::map<int, IEC104WF::stPointTable, std::less<int>, std::allocator<std::pair<const int, IEC104WF::stPointTable> > >, std::less<int>, std::allocator<std::pair<const int, std::map<int, IEC104WF::stPointTable, std::less<int>, std::allocator<std::pair<const int, IEC104WF::stPointTable> > > > > > > > >::_M_destroy_node
FUNC 30060 61 0 std::_Rb_tree<int, std::pair<const int, std::map<int, IEC104WF::stPointTable, std::less<int>, std::allocator<std::pair<const int, IEC104WF::stPointTable> > > >, std::_Select1st<std::pair<const int, std::map<int, IEC104WF::stPointTable, std::less<int>, std::allocator<std::pair<const int, IEC104WF::stPointTable> > > > >, std::less<int>, std::allocator<std::pair<const int, std::map<int, IEC104WF::stPointTable, std::less<int>, std::allocator<std::pair<const int, IEC104WF::stPointTable> > > > > >::_Rb_tree_impl<std::less<int>, false>::_Rb_tree_impl
FUNC 300c2 a 0 __gnu_cxx::new_allocator<std::_Rb_tree_node<std::pair<const int, std::map<int, IEC104WF::stPointTable, std::less<int>, std::allocator<std::pair<const int, IEC104WF::stPointTable> > > > > >::~new_allocator
FUNC 300cc 12 0 std::_Rb_tree<int, std::pair<const int, std::map<int, IEC104WF::stPointTable, std::less<int>, std::allocator<std::pair<const int, IEC104WF::stPointTable> > > >, std::_Select1st<std::pair<const int, std::map<int, IEC104WF::stPointTable, std::less<int>, std::allocator<std::pair<const int, IEC104WF::stPointTable> > > > >, std::less<int>, std::allocator<std::pair<const int, std::map<int, IEC104WF::stPointTable, std::less<int>, std::allocator<std::pair<const int, IEC104WF::stPointTable> > > > > >::_S_right
FUNC 300de 12 0 std::_Rb_tree<int, std::pair<const int, std::map<int, IEC104WF::stPointTable, std::less<int>, std::allocator<std::pair<const int, IEC104WF::stPointTable> > > >, std::_Select1st<std::pair<const int, std::map<int, IEC104WF::stPointTable, std::less<int>, std::allocator<std::pair<const int, IEC104WF::stPointTable> > > > >, std::less<int>, std::allocator<std::pair<const int, std::map<int, IEC104WF::stPointTable, std::less<int>, std::allocator<std::pair<const int, IEC104WF::stPointTable> > > > > >::_S_left
FUNC 300f0 86 0 std::_Rb_tree<int, std::pair<const int, std::map<int, IEC104WF::stPointTable, std::less<int>, std::allocator<std::pair<const int, IEC104WF::stPointTable> > > >, std::_Select1st<std::pair<const int, std::map<int, IEC104WF::stPointTable, std::less<int>, std::allocator<std::pair<const int, IEC104WF::stPointTable> > > > >, std::less<int>, std::allocator<std::pair<const int, std::map<int, IEC104WF::stPointTable, std::less<int>, std::allocator<std::pair<const int, IEC104WF::stPointTable> > > > > >::_M_destroy_node
FUNC 30176 61 0 std::_Rb_tree<int, std::pair<const int, IEC104WF::stPointTable>, std::_Select1st<std::pair<const int, IEC104WF::stPointTable> >, std::less<int>, std::allocator<std::pair<const int, IEC104WF::stPointTable> > >::_Rb_tree_impl<std::less<int>, false>::_Rb_tree_impl
FUNC 301d8 a 0 __gnu_cxx::new_allocator<std::_Rb_tree_node<std::pair<const int, IEC104WF::stPointTable> > >::~new_allocator
FUNC 301e2 12 0 std::_Rb_tree<int, std::pair<const int, IEC104WF::stPointTable>, std::_Select1st<std::pair<const int, IEC104WF::stPointTable> >, std::less<int>, std::allocator<std::pair<const int, IEC104WF::stPointTable> > >::_S_right
FUNC 301f4 12 0 std::_Rb_tree<int, std::pair<const int, IEC104WF::stPointTable>, std::_Select1st<std::pair<const int, IEC104WF::stPointTable> >, std::less<int>, std::allocator<std::pair<const int, IEC104WF::stPointTable> > >::_S_left
FUNC 30206 86 0 std::_Rb_tree<int, std::pair<const int, IEC104WF::stPointTable>, std::_Select1st<std::pair<const int, IEC104WF::stPointTable> >, std::less<int>, std::allocator<std::pair<const int, IEC104WF::stPointTable> > >::_M_destroy_node
FUNC 3028c 61 0 std::_Rb_tree<std::basic_string<char, std::char_traits<char>, std::allocator<char> >, std::pair<const std::basic_string<char, std::char_traits<char>, std::allocator<char> >, IEC103::stConfigParam>, std::_Select1st<std::pair<const std::basic_string<char, std::char_traits<char>, std::allocator<char> >, IEC103::stConfigParam> >, std::less<std::basic_string<char, std::char_traits<char>, std::allocator<char> > >, std::allocator<std::pair<const std::basic_string<char, std::char_traits<char>, std::allocator<char> >, IEC103::stConfigParam> > >::_Rb_tree_impl<std::less<std::basic_string<char, std::char_traits<char>, std::allocator<char> > >, false>::_Rb_tree_impl
FUNC 302ee 61 0 std::_Rb_tree<std::basic_string<char, std::char_traits<char>, std::allocator<char> >, std::pair<const std::basic_string<char, std::char_traits<char>, std::allocator<char> >, std::map<std::basic_string<char, std::char_traits<char>, std::allocator<char> >, std::basic_string<char, std::char_traits<char>, std::allocator<char> >, std::less<std::basic_string<char, std::char_traits<char>, std::allocator<char> > >, std::allocator<std::pair<const std::basic_string<char, std::char_traits<char>, std::allocator<char> >, std::basic_string<char, std::char_traits<char>, std::allocator<char> > > > > >, std::_Select1st<std::pair<const std::basic_string<char, std::char_traits<char>, std::allocator<char> >, std::map<std::basic_string<char, std::char_traits<char>, std::allocator<char> >, std::basic_string<char, std::char_traits<char>, std::allocator<char> >, std::less<std::basic_string<char, std::char_traits<char>, std::allocator<char> > >, std::allocator<std::pair<const std::basic_string<char, std::char_traits<char>, std::allocator<char> >, std::basic_string<char, std::char_traits<char>, std::allocator<char> > > > > > >, std::less<std::basic_string<char, std::char_traits<char>, std::allocator<char> > >, std::allocator<std::pair<const std::basic_string<char, std::char_traits<char>, std::allocator<char> >, std::map<std::basic_string<char, std::char_traits<char>, std::allocator<char> >, std::basic_string<char, std::char_traits<char>, std::allocator<char> >, std::less<std::basic_string<char, std::char_traits<char>, std::allocator<char> > >, std::allocator<std::pair<const std::basic_string<char, std::char_traits<char>, std::allocator<char> >, std::basic_string<char, std::char_traits<char>, std::allocator<char> > > > > > > >::_Rb_tree_impl<std::less<std::basic_string<char, std::char_traits<char>, std::allocator<char> > >, false>::_Rb_tree_impl
FUNC 30350 a 0 __gnu_cxx::new_allocator<std::_Rb_tree_node<std::pair<const std::basic_string<char, std::char_traits<char>, std::allocator<char> >, std::map<std::basic_string<char, std::char_traits<char>, std::allocator<char> >, std::basic_string<char, std::char_traits<char>, std::allocator<char> >, std::less<std::basic_string<char, std::char_traits<char>, std::allocator<char> > >, std::allocator<std::pair<const std::basic_string<char, std::char_traits<char>, std::allocator<char> >, std::basic_string<char, std::char_traits<char>, std::allocator<char> > > > > > > >::~new_allocator
FUNC 3035a 12 0 std::_Rb_tree<std::basic_string<char, std::char_traits<char>, std::allocator<char> >, std::pair<const std::basic_string<char, std::char_traits<char>, std::allocator<char> >, std::map<std::basic_string<char, std::char_traits<char>, std::allocator<char> >, std::basic_string<char, std::char_traits<char>, std::allocator<char> >, std::less<std::basic_string<char, std::char_traits<char>, std::allocator<char> > >, std::allocator<std::pair<const std::basic_string<char, std::char_traits<char>, std::allocator<char> >, std::basic_string<char, std::char_traits<char>, std::allocator<char> > > > > >, std::_Select1st<std::pair<const std::basic_string<char, std::char_traits<char>, std::allocator<char> >, std::map<std::basic_string<char, std::char_traits<char>, std::allocator<char> >, std::basic_string<char, std::char_traits<char>, std::allocator<char> >, std::less<std::basic_string<char, std::char_traits<char>, std::allocator<char> > >, std::allocator<std::pair<const std::basic_string<char, std::char_traits<char>, std::allocator<char> >, std::basic_string<char, std::char_traits<char>, std::allocator<char> > > > > > >, std::less<std::basic_string<char, std::char_traits<char>, std::allocator<char> > >, std::allocator<std::pair<const std::basic_string<char, std::char_traits<char>, std::allocator<char> >, std::map<std::basic_string<char, std::char_traits<char>, std::allocator<char> >, std::basic_string<char, std::char_traits<char>, std::allocator<char> >, std::less<std::basic_string<char, std::char_traits<char>, std::allocator<char> > >, std::allocator<std::pair<const std::basic_string<char, std::char_traits<char>, std::allocator<char> >, std::basic_string<char, std::char_traits<char>, std::allocator<char> > > > > > > >::_S_right
FUNC 3036c 12 0 std::_Rb_tree<std::basic_string<char, std::char_traits<char>, std::allocator<char> >, std::pair<const std::basic_string<char, std::char_traits<char>, std::allocator<char> >, std::map<std::basic_string<char, std::char_traits<char>, std::allocator<char> >, std::basic_string<char, std::char_traits<char>, std::allocator<char> >, std::less<std::basic_string<char, std::char_traits<char>, std::allocator<char> > >, std::allocator<std::pair<const std::basic_string<char, std::char_traits<char>, std::allocator<char> >, std::basic_string<char, std::char_traits<char>, std::allocator<char> > > > > >, std::_Select1st<std::pair<const std::basic_string<char, std::char_traits<char>, std::allocator<char> >, std::map<std::basic_string<char, std::char_traits<char>, std::allocator<char> >, std::basic_string<char, std::char_traits<char>, std::allocator<char> >, std::less<std::basic_string<char, std::char_traits<char>, std::allocator<char> > >, std::allocator<std::pair<const std::basic_string<char, std::char_traits<char>, std::allocator<char> >, std::basic_string<char, std::char_traits<char>, std::allocator<char> > > > > > >, std::less<std::basic_string<char, std::char_traits<char>, std::allocator<char> > >, std::allocator<std::pair<const std::basic_string<char, std::char_traits<char>, std::allocator<char> >, std::map<std::basic_string<char, std::char_traits<char>, std::allocator<char> >, std::basic_string<char, std::char_traits<char>, std::allocator<char> >, std::less<std::basic_string<char, std::char_traits<char>, std::allocator<char> > >, std::allocator<std::pair<const std::basic_string<char, std::char_traits<char>, std::allocator<char> >, std::basic_string<char, std::char_traits<char>, std::allocator<char> > > > > > > >::_S_left
FUNC 3037e 86 0 std::_Rb_tree<std::basic_string<char, std::char_traits<char>, std::allocator<char> >, std::pair<const std::basic_string<char, std::char_traits<char>, std::allocator<char> >, std::map<std::basic_string<char, std::char_traits<char>, std::allocator<char> >, std::basic_string<char, std::char_traits<char>, std::allocator<char> >, std::less<std::basic_string<char, std::char_traits<char>, std::allocator<char> > >, std::allocator<std::pair<const std::basic_string<char, std::char_traits<char>, std::allocator<char> >, std::basic_string<char, std::char_traits<char>, std::allocator<char> > > > > >, std::_Select1st<std::pair<const std::basic_string<char, std::char_traits<char>, std::allocator<char> >, std::map<std::basic_string<char, std::char_traits<char>, std::allocator<char> >, std::basic_string<char, std::char_traits<char>, std::allocator<char> >, std::less<std::basic_string<char, std::char_traits<char>, std::allocator<char> > >, std::allocator<std::pair<const std::basic_string<char, std::char_traits<char>, std::allocator<char> >, std::basic_string<char, std::char_traits<char>, std::allocator<char> > > > > > >, std::less<std::basic_string<char, std::char_traits<char>, std::allocator<char> > >, std::allocator<std::pair<const std::basic_string<char, std::char_traits<char>, std::allocator<char> >, std::map<std::basic_string<char, std::char_traits<char>, std::allocator<char> >, std::basic_string<char, std::char_traits<char>, std::allocator<char> >, std::less<std::basic_string<char, std::char_traits<char>, std::allocator<char> > >, std::allocator<std::pair<const std::basic_string<char, std::char_traits<char>, std::allocator<char> >, std::basic_string<char, std::char_traits<char>, std::allocator<char> > > > > > > >::_M_destroy_node
FUNC 30404 70 0 std::_Rb_tree<std::basic_string<char, std::char_traits<char>, std::allocator<char> >, std::pair<const std::basic_string<char, std::char_traits<char>, std::allocator<char> >, std::basic_string<char, std::char_traits<char>, std::allocator<char> > >, std::_Select1st<std::pair<const std::basic_string<char, std::char_traits<char>, std::allocator<char> >, std::basic_string<char, std::char_traits<char>, std::allocator<char> > > >, std::less<std::basic_string<char, std::char_traits<char>, std::allocator<char> > >, std::allocator<std::pair<const std::basic_string<char, std::char_traits<char>, std::allocator<char> >, std::basic_string<char, std::char_traits<char>, std::allocator<char> > > > >::_Rb_tree_impl<std::less<std::basic_string<char, std::char_traits<char>, std::allocator<char> > >, false>::_Rb_tree_impl
FUNC 30474 12 0 std::_Rb_tree<std::basic_string<char, std::char_traits<char>, std::allocator<char> >, std::pair<const std::basic_string<char, std::char_traits<char>, std::allocator<char> >, std::basic_string<char, std::char_traits<char>, std::allocator<char> > >, std::_Select1st<std::pair<const std::basic_string<char, std::char_traits<char>, std::allocator<char> >, std::basic_string<char, std::char_traits<char>, std::allocator<char> > > >, std::less<std::basic_string<char, std::char_traits<char>, std::allocator<char> > >, std::allocator<std::pair<const std::basic_string<char, std::char_traits<char>, std::allocator<char> >, std::basic_string<char, std::char_traits<char>, std::allocator<char> > > > >::_M_root
FUNC 30486 169 0 std::_Rb_tree<std::basic_string<char, std::char_traits<char>, std::allocator<char> >, std::pair<const std::basic_string<char, std::char_traits<char>, std::allocator<char> >, std::basic_string<char, std::char_traits<char>, std::allocator<char> > >, std::_Select1st<std::pair<const std::basic_string<char, std::char_traits<char>, std::allocator<char> >, std::basic_string<char, std::char_traits<char>, std::allocator<char> > > >, std::less<std::basic_string<char, std::char_traits<char>, std::allocator<char> > >, std::allocator<std::pair<const std::basic_string<char, std::char_traits<char>, std::allocator<char> >, std::basic_string<char, std::char_traits<char>, std::allocator<char> > > > >::_M_copy
FUNC 305f0 12 0 std::_Rb_tree<std::basic_string<char, std::char_traits<char>, std::allocator<char> >, std::pair<const std::basic_string<char, std::char_traits<char>, std::allocator<char> >, std::basic_string<char, std::char_traits<char>, std::allocator<char> > >, std::_Select1st<std::pair<const std::basic_string<char, std::char_traits<char>, std::allocator<char> >, std::basic_string<char, std::char_traits<char>, std::allocator<char> > > >, std::less<std::basic_string<char, std::char_traits<char>, std::allocator<char> > >, std::allocator<std::pair<const std::basic_string<char, std::char_traits<char>, std::allocator<char> >, std::basic_string<char, std::char_traits<char>, std::allocator<char> > > > >::_M_begin
FUNC 30602 1a 0 std::_Rb_tree<std::basic_string<char, std::char_traits<char>, std::allocator<char> >, std::pair<const std::basic_string<char, std::char_traits<char>, std::allocator<char> >, std::basic_string<char, std::char_traits<char>, std::allocator<char> > >, std::_Select1st<std::pair<const std::basic_string<char, std::char_traits<char>, std::allocator<char> >, std::basic_string<char, std::char_traits<char>, std::allocator<char> > > >, std::less<std::basic_string<char, std::char_traits<char>, std::allocator<char> > >, std::allocator<std::pair<const std::basic_string<char, std::char_traits<char>, std::allocator<char> >, std::basic_string<char, std::char_traits<char>, std::allocator<char> > > > >::_S_minimum
FUNC 3061c 1a 0 std::_Rb_tree<std::basic_string<char, std::char_traits<char>, std::allocator<char> >, std::pair<const std::basic_string<char, std::char_traits<char>, std::allocator<char> >, std::basic_string<char, std::char_traits<char>, std::allocator<char> > >, std::_Select1st<std::pair<const std::basic_string<char, std::char_traits<char>, std::allocator<char> >, std::basic_string<char, std::char_traits<char>, std::allocator<char> > > >, std::less<std::basic_string<char, std::char_traits<char>, std::allocator<char> > >, std::allocator<std::pair<const std::basic_string<char, std::char_traits<char>, std::allocator<char> >, std::basic_string<char, std::char_traits<char>, std::allocator<char> > > > >::_S_maximum
FUNC 30636 48 0 std::_Vector_base<std::basic_string<char, std::char_traits<char>, std::allocator<char> >, std::allocator<std::basic_string<char, std::char_traits<char>, std::allocator<char> > > >::_Vector_impl::_Vector_impl
FUNC 3067e 12 0 std::_Rb_tree<std::basic_string<char, std::char_traits<char>, std::allocator<char> >, std::pair<const std::basic_string<char, std::char_traits<char>, std::allocator<char> >, IEC61850_STRUCT::IED_61850>, std::_Select1st<std::pair<const std::basic_string<char, std::char_traits<char>, std::allocator<char> >, IEC61850_STRUCT::IED_61850> >, std::less<std::basic_string<char, std::char_traits<char>, std::allocator<char> > >, std::allocator<std::pair<const std::basic_string<char, std::char_traits<char>, std::allocator<char> >, IEC61850_STRUCT::IED_61850> > >::_M_end
FUNC 30690 12 0 std::_Rb_tree<std::basic_string<char, std::char_traits<char>, std::allocator<char> >, std::pair<const std::basic_string<char, std::char_traits<char>, std::allocator<char> >, IEC61850_STRUCT::IED_61850>, std::_Select1st<std::pair<const std::basic_string<char, std::char_traits<char>, std::allocator<char> >, IEC61850_STRUCT::IED_61850> >, std::less<std::basic_string<char, std::char_traits<char>, std::allocator<char> > >, std::allocator<std::pair<const std::basic_string<char, std::char_traits<char>, std::allocator<char> >, IEC61850_STRUCT::IED_61850> > >::_M_leftmost
FUNC 306a2 12 0 std::_Rb_tree<std::basic_string<char, std::char_traits<char>, std::allocator<char> >, std::pair<const std::basic_string<char, std::char_traits<char>, std::allocator<char> >, IEC61850_STRUCT::IED_61850>, std::_Select1st<std::pair<const std::basic_string<char, std::char_traits<char>, std::allocator<char> >, IEC61850_STRUCT::IED_61850> >, std::less<std::basic_string<char, std::char_traits<char>, std::allocator<char> > >, std::allocator<std::pair<const std::basic_string<char, std::char_traits<char>, std::allocator<char> >, IEC61850_STRUCT::IED_61850> > >::_M_root
FUNC 306b4 12 0 std::_Rb_tree<std::basic_string<char, std::char_traits<char>, std::allocator<char> >, std::pair<const std::basic_string<char, std::char_traits<char>, std::allocator<char> >, IEC61850_STRUCT::IED_61850>, std::_Select1st<std::pair<const std::basic_string<char, std::char_traits<char>, std::allocator<char> >, IEC61850_STRUCT::IED_61850> >, std::less<std::basic_string<char, std::char_traits<char>, std::allocator<char> > >, std::allocator<std::pair<const std::basic_string<char, std::char_traits<char>, std::allocator<char> >, IEC61850_STRUCT::IED_61850> > >::_M_rightmost
FUNC 306c6 e 0 std::_Rb_tree<std::basic_string<char, std::char_traits<char>, std::allocator<char> >, std::pair<const std::basic_string<char, std::char_traits<char>, std::allocator<char> >, IEC61850_STRUCT::IED_61850>, std::_Select1st<std::pair<const std::basic_string<char, std::char_traits<char>, std::allocator<char> >, IEC61850_STRUCT::IED_61850> >, std::less<std::basic_string<char, std::char_traits<char>, std::allocator<char> > >, std::allocator<std::pair<const std::basic_string<char, std::char_traits<char>, std::allocator<char> >, IEC61850_STRUCT::IED_61850> > >::_M_get_Node_allocator
FUNC 306d4 70 0 std::_Rb_tree<std::basic_string<char, std::char_traits<char>, std::allocator<char> >, std::pair<const std::basic_string<char, std::char_traits<char>, std::allocator<char> >, IEC61850_STRUCT::IED_61850>, std::_Select1st<std::pair<const std::basic_string<char, std::char_traits<char>, std::allocator<char> >, IEC61850_STRUCT::IED_61850> >, std::less<std::basic_string<char, std::char_traits<char>, std::allocator<char> > >, std::allocator<std::pair<const std::basic_string<char, std::char_traits<char>, std::allocator<char> >, IEC61850_STRUCT::IED_61850> > >::_Rb_tree_impl<std::less<std::basic_string<char, std::char_traits<char>, std::allocator<char> > >, false>::_Rb_tree_impl
FUNC 30744 12 0 std::_Rb_tree<std::basic_string<char, std::char_traits<char>, std::allocator<char> >, std::pair<const std::basic_string<char, std::char_traits<char>, std::allocator<char> >, IEC61850_STRUCT::IED_61850>, std::_Select1st<std::pair<const std::basic_string<char, std::char_traits<char>, std::allocator<char> >, IEC61850_STRUCT::IED_61850> >, std::less<std::basic_string<char, std::char_traits<char>, std::allocator<char> > >, std::allocator<std::pair<const std::basic_string<char, std::char_traits<char>, std::allocator<char> >, IEC61850_STRUCT::IED_61850> > >::_M_root
FUNC 30756 169 0 std::_Rb_tree<std::basic_string<char, std::char_traits<char>, std::allocator<char> >, std::pair<const std::basic_string<char, std::char_traits<char>, std::allocator<char> >, IEC61850_STRUCT::IED_61850>, std::_Select1st<std::pair<const std::basic_string<char, std::char_traits<char>, std::allocator<char> >, IEC61850_STRUCT::IED_61850> >, std::less<std::basic_string<char, std::char_traits<char>, std::allocator<char> > >, std::allocator<std::pair<const std::basic_string<char, std::char_traits<char>, std::allocator<char> >, IEC61850_STRUCT::IED_61850> > >::_M_copy
FUNC 308c0 12 0 std::_Rb_tree<std::basic_string<char, std::char_traits<char>, std::allocator<char> >, std::pair<const std::basic_string<char, std::char_traits<char>, std::allocator<char> >, IEC61850_STRUCT::IED_61850>, std::_Select1st<std::pair<const std::basic_string<char, std::char_traits<char>, std::allocator<char> >, IEC61850_STRUCT::IED_61850> >, std::less<std::basic_string<char, std::char_traits<char>, std::allocator<char> > >, std::allocator<std::pair<const std::basic_string<char, std::char_traits<char>, std::allocator<char> >, IEC61850_STRUCT::IED_61850> > >::_M_begin
FUNC 308d2 1a 0 std::_Rb_tree<std::basic_string<char, std::char_traits<char>, std::allocator<char> >, std::pair<const std::basic_string<char, std::char_traits<char>, std::allocator<char> >, IEC61850_STRUCT::IED_61850>, std::_Select1st<std::pair<const std::basic_string<char, std::char_traits<char>, std::allocator<char> >, IEC61850_STRUCT::IED_61850> >, std::less<std::basic_string<char, std::char_traits<char>, std::allocator<char> > >, std::allocator<std::pair<const std::basic_string<char, std::char_traits<char>, std::allocator<char> >, IEC61850_STRUCT::IED_61850> > >::_S_minimum
FUNC 308ec 1a 0 std::_Rb_tree<std::basic_string<char, std::char_traits<char>, std::allocator<char> >, std::pair<const std::basic_string<char, std::char_traits<char>, std::allocator<char> >, IEC61850_STRUCT::IED_61850>, std::_Select1st<std::pair<const std::basic_string<char, std::char_traits<char>, std::allocator<char> >, IEC61850_STRUCT::IED_61850> >, std::less<std::basic_string<char, std::char_traits<char>, std::allocator<char> > >, std::allocator<std::pair<const std::basic_string<char, std::char_traits<char>, std::allocator<char> >, IEC61850_STRUCT::IED_61850> > >::_S_maximum
FUNC 30906 12 0 std::_Rb_tree<std::basic_string<char, std::char_traits<char>, std::allocator<char> >, std::pair<const std::basic_string<char, std::char_traits<char>, std::allocator<char> >, IEC103::stConfigParam>, std::_Select1st<std::pair<const std::basic_string<char, std::char_traits<char>, std::allocator<char> >, IEC103::stConfigParam> >, std::less<std::basic_string<char, std::char_traits<char>, std::allocator<char> > >, std::allocator<std::pair<const std::basic_string<char, std::char_traits<char>, std::allocator<char> >, IEC103::stConfigParam> > >::_M_end
FUNC 30918 12 0 std::_Rb_tree<std::basic_string<char, std::char_traits<char>, std::allocator<char> >, std::pair<const std::basic_string<char, std::char_traits<char>, std::allocator<char> >, IEC103::stConfigParam>, std::_Select1st<std::pair<const std::basic_string<char, std::char_traits<char>, std::allocator<char> >, IEC103::stConfigParam> >, std::less<std::basic_string<char, std::char_traits<char>, std::allocator<char> > >, std::allocator<std::pair<const std::basic_string<char, std::char_traits<char>, std::allocator<char> >, IEC103::stConfigParam> > >::_M_leftmost
FUNC 3092a 12 0 std::_Rb_tree<std::basic_string<char, std::char_traits<char>, std::allocator<char> >, std::pair<const std::basic_string<char, std::char_traits<char>, std::allocator<char> >, IEC103::stConfigParam>, std::_Select1st<std::pair<const std::basic_string<char, std::char_traits<char>, std::allocator<char> >, IEC103::stConfigParam> >, std::less<std::basic_string<char, std::char_traits<char>, std::allocator<char> > >, std::allocator<std::pair<const std::basic_string<char, std::char_traits<char>, std::allocator<char> >, IEC103::stConfigParam> > >::_M_root
FUNC 3093c 12 0 std::_Rb_tree<std::basic_string<char, std::char_traits<char>, std::allocator<char> >, std::pair<const std::basic_string<char, std::char_traits<char>, std::allocator<char> >, IEC103::stConfigParam>, std::_Select1st<std::pair<const std::basic_string<char, std::char_traits<char>, std::allocator<char> >, IEC103::stConfigParam> >, std::less<std::basic_string<char, std::char_traits<char>, std::allocator<char> > >, std::allocator<std::pair<const std::basic_string<char, std::char_traits<char>, std::allocator<char> >, IEC103::stConfigParam> > >::_M_rightmost
FUNC 3094e 12 0 std::_Rb_tree<std::basic_string<char, std::char_traits<char>, std::allocator<char> >, std::pair<const std::basic_string<char, std::char_traits<char>, std::allocator<char> >, std::map<std::basic_string<char, std::char_traits<char>, std::allocator<char> >, std::basic_string<char, std::char_traits<char>, std::allocator<char> >, std::less<std::basic_string<char, std::char_traits<char>, std::allocator<char> > >, std::allocator<std::pair<const std::basic_string<char, std::char_traits<char>, std::allocator<char> >, std::basic_string<char, std::char_traits<char>, std::allocator<char> > > > > >, std::_Select1st<std::pair<const std::basic_string<char, std::char_traits<char>, std::allocator<char> >, std::map<std::basic_string<char, std::char_traits<char>, std::allocator<char> >, std::basic_string<char, std::char_traits<char>, std::allocator<char> >, std::less<std::basic_string<char, std::char_traits<char>, std::allocator<char> > >, std::allocator<std::pair<const std::basic_string<char, std::char_traits<char>, std::allocator<char> >, std::basic_string<char, std::char_traits<char>, std::allocator<char> > > > > > >, std::less<std::basic_string<char, std::char_traits<char>, std::allocator<char> > >, std::allocator<std::pair<const std::basic_string<char, std::char_traits<char>, std::allocator<char> >, std::map<std::basic_string<char, std::char_traits<char>, std::allocator<char> >, std::basic_string<char, std::char_traits<char>, std::allocator<char> >, std::less<std::basic_string<char, std::char_traits<char>, std::allocator<char> > >, std::allocator<std::pair<const std::basic_string<char, std::char_traits<char>, std::allocator<char> >, std::basic_string<char, std::char_traits<char>, std::allocator<char> > > > > > > >::_M_end
FUNC 30960 12 0 std::_Rb_tree<std::basic_string<char, std::char_traits<char>, std::allocator<char> >, std::pair<const std::basic_string<char, std::char_traits<char>, std::allocator<char> >, std::map<std::basic_string<char, std::char_traits<char>, std::allocator<char> >, std::basic_string<char, std::char_traits<char>, std::allocator<char> >, std::less<std::basic_string<char, std::char_traits<char>, std::allocator<char> > >, std::allocator<std::pair<const std::basic_string<char, std::char_traits<char>, std::allocator<char> >, std::basic_string<char, std::char_traits<char>, std::allocator<char> > > > > >, std::_Select1st<std::pair<const std::basic_string<char, std::char_traits<char>, std::allocator<char> >, std::map<std::basic_string<char, std::char_traits<char>, std::allocator<char> >, std::basic_string<char, std::char_traits<char>, std::allocator<char> >, std::less<std::basic_string<char, std::char_traits<char>, std::allocator<char> > >, std::allocator<std::pair<const std::basic_string<char, std::char_traits<char>, std::allocator<char> >, std::basic_string<char, std::char_traits<char>, std::allocator<char> > > > > > >, std::less<std::basic_string<char, std::char_traits<char>, std::allocator<char> > >, std::allocator<std::pair<const std::basic_string<char, std::char_traits<char>, std::allocator<char> >, std::map<std::basic_string<char, std::char_traits<char>, std::allocator<char> >, std::basic_string<char, std::char_traits<char>, std::allocator<char> >, std::less<std::basic_string<char, std::char_traits<char>, std::allocator<char> > >, std::allocator<std::pair<const std::basic_string<char, std::char_traits<char>, std::allocator<char> >, std::basic_string<char, std::char_traits<char>, std::allocator<char> > > > > > > >::_M_leftmost
FUNC 30972 12 0 std::_Rb_tree<std::basic_string<char, std::char_traits<char>, std::allocator<char> >, std::pair<const std::basic_string<char, std::char_traits<char>, std::allocator<char> >, std::map<std::basic_string<char, std::char_traits<char>, std::allocator<char> >, std::basic_string<char, std::char_traits<char>, std::allocator<char> >, std::less<std::basic_string<char, std::char_traits<char>, std::allocator<char> > >, std::allocator<std::pair<const std::basic_string<char, std::char_traits<char>, std::allocator<char> >, std::basic_string<char, std::char_traits<char>, std::allocator<char> > > > > >, std::_Select1st<std::pair<const std::basic_string<char, std::char_traits<char>, std::allocator<char> >, std::map<std::basic_string<char, std::char_traits<char>, std::allocator<char> >, std::basic_string<char, std::char_traits<char>, std::allocator<char> >, std::less<std::basic_string<char, std::char_traits<char>, std::allocator<char> > >, std::allocator<std::pair<const std::basic_string<char, std::char_traits<char>, std::allocator<char> >, std::basic_string<char, std::char_traits<char>, std::allocator<char> > > > > > >, std::less<std::basic_string<char, std::char_traits<char>, std::allocator<char> > >, std::allocator<std::pair<const std::basic_string<char, std::char_traits<char>, std::allocator<char> >, std::map<std::basic_string<char, std::char_traits<char>, std::allocator<char> >, std::basic_string<char, std::char_traits<char>, std::allocator<char> >, std::less<std::basic_string<char, std::char_traits<char>, std::allocator<char> > >, std::allocator<std::pair<const std::basic_string<char, std::char_traits<char>, std::allocator<char> >, std::basic_string<char, std::char_traits<char>, std::allocator<char> > > > > > > >::_M_root
FUNC 30984 12 0 std::_Rb_tree<std::basic_string<char, std::char_traits<char>, std::allocator<char> >, std::pair<const std::basic_string<char, std::char_traits<char>, std::allocator<char> >, std::map<std::basic_string<char, std::char_traits<char>, std::allocator<char> >, std::basic_string<char, std::char_traits<char>, std::allocator<char> >, std::less<std::basic_string<char, std::char_traits<char>, std::allocator<char> > >, std::allocator<std::pair<const std::basic_string<char, std::char_traits<char>, std::allocator<char> >, std::basic_string<char, std::char_traits<char>, std::allocator<char> > > > > >, std::_Select1st<std::pair<const std::basic_string<char, std::char_traits<char>, std::allocator<char> >, std::map<std::basic_string<char, std::char_traits<char>, std::allocator<char> >, std::basic_string<char, std::char_traits<char>, std::allocator<char> >, std::less<std::basic_string<char, std::char_traits<char>, std::allocator<char> > >, std::allocator<std::pair<const std::basic_string<char, std::char_traits<char>, std::allocator<char> >, std::basic_string<char, std::char_traits<char>, std::allocator<char> > > > > > >, std::less<std::basic_string<char, std::char_traits<char>, std::allocator<char> > >, std::allocator<std::pair<const std::basic_string<char, std::char_traits<char>, std::allocator<char> >, std::map<std::basic_string<char, std::char_traits<char>, std::allocator<char> >, std::basic_string<char, std::char_traits<char>, std::allocator<char> >, std::less<std::basic_string<char, std::char_traits<char>, std::allocator<char> > >, std::allocator<std::pair<const std::basic_string<char, std::char_traits<char>, std::allocator<char> >, std::basic_string<char, std::char_traits<char>, std::allocator<char> > > > > > > >::_M_rightmost
FUNC 30996 70 0 std::_Rb_tree<std::basic_string<char, std::char_traits<char>, std::allocator<char> >, std::pair<const std::basic_string<char, std::char_traits<char>, std::allocator<char> >, IEC103::stConfigParam>, std::_Select1st<std::pair<const std::basic_string<char, std::char_traits<char>, std::allocator<char> >, IEC103::stConfigParam> >, std::less<std::basic_string<char, std::char_traits<char>, std::allocator<char> > >, std::allocator<std::pair<const std::basic_string<char, std::char_traits<char>, std::allocator<char> >, IEC103::stConfigParam> > >::_Rb_tree_impl<std::less<std::basic_string<char, std::char_traits<char>, std::allocator<char> > >, false>::_Rb_tree_impl
FUNC 30a06 12 0 std::_Rb_tree<std::basic_string<char, std::char_traits<char>, std::allocator<char> >, std::pair<const std::basic_string<char, std::char_traits<char>, std::allocator<char> >, IEC103::stConfigParam>, std::_Select1st<std::pair<const std::basic_string<char, std::char_traits<char>, std::allocator<char> >, IEC103::stConfigParam> >, std::less<std::basic_string<char, std::char_traits<char>, std::allocator<char> > >, std::allocator<std::pair<const std::basic_string<char, std::char_traits<char>, std::allocator<char> >, IEC103::stConfigParam> > >::_M_root
FUNC 30a18 169 0 std::_Rb_tree<std::basic_string<char, std::char_traits<char>, std::allocator<char> >, std::pair<const std::basic_string<char, std::char_traits<char>, std::allocator<char> >, IEC103::stConfigParam>, std::_Select1st<std::pair<const std::basic_string<char, std::char_traits<char>, std::allocator<char> >, IEC103::stConfigParam> >, std::less<std::basic_string<char, std::char_traits<char>, std::allocator<char> > >, std::allocator<std::pair<const std::basic_string<char, std::char_traits<char>, std::allocator<char> >, IEC103::stConfigParam> > >::_M_copy
FUNC 30b82 12 0 std::_Rb_tree<std::basic_string<char, std::char_traits<char>, std::allocator<char> >, std::pair<const std::basic_string<char, std::char_traits<char>, std::allocator<char> >, IEC103::stConfigParam>, std::_Select1st<std::pair<const std::basic_string<char, std::char_traits<char>, std::allocator<char> >, IEC103::stConfigParam> >, std::less<std::basic_string<char, std::char_traits<char>, std::allocator<char> > >, std::allocator<std::pair<const std::basic_string<char, std::char_traits<char>, std::allocator<char> >, IEC103::stConfigParam> > >::_M_begin
FUNC 30b94 1a 0 std::_Rb_tree<std::basic_string<char, std::char_traits<char>, std::allocator<char> >, std::pair<const std::basic_string<char, std::char_traits<char>, std::allocator<char> >, IEC103::stConfigParam>, std::_Select1st<std::pair<const std::basic_string<char, std::char_traits<char>, std::allocator<char> >, IEC103::stConfigParam> >, std::less<std::basic_string<char, std::char_traits<char>, std::allocator<char> > >, std::allocator<std::pair<const std::basic_string<char, std::char_traits<char>, std::allocator<char> >, IEC103::stConfigParam> > >::_S_minimum
FUNC 30bae 1a 0 std::_Rb_tree<std::basic_string<char, std::char_traits<char>, std::allocator<char> >, std::pair<const std::basic_string<char, std::char_traits<char>, std::allocator<char> >, IEC103::stConfigParam>, std::_Select1st<std::pair<const std::basic_string<char, std::char_traits<char>, std::allocator<char> >, IEC103::stConfigParam> >, std::less<std::basic_string<char, std::char_traits<char>, std::allocator<char> > >, std::allocator<std::pair<const std::basic_string<char, std::char_traits<char>, std::allocator<char> >, IEC103::stConfigParam> > >::_S_maximum
FUNC 30bc8 e 0 std::_Rb_tree<std::basic_string<char, std::char_traits<char>, std::allocator<char> >, std::pair<const std::basic_string<char, std::char_traits<char>, std::allocator<char> >, std::map<std::basic_string<char, std::char_traits<char>, std::allocator<char> >, std::basic_string<char, std::char_traits<char>, std::allocator<char> >, std::less<std::basic_string<char, std::char_traits<char>, std::allocator<char> > >, std::allocator<std::pair<const std::basic_string<char, std::char_traits<char>, std::allocator<char> >, std::basic_string<char, std::char_traits<char>, std::allocator<char> > > > > >, std::_Select1st<std::pair<const std::basic_string<char, std::char_traits<char>, std::allocator<char> >, std::map<std::basic_string<char, std::char_traits<char>, std::allocator<char> >, std::basic_string<char, std::char_traits<char>, std::allocator<char> >, std::less<std::basic_string<char, std::char_traits<char>, std::allocator<char> > >, std::allocator<std::pair<const std::basic_string<char, std::char_traits<char>, std::allocator<char> >, std::basic_string<char, std::char_traits<char>, std::allocator<char> > > > > > >, std::less<std::basic_string<char, std::char_traits<char>, std::allocator<char> > >, std::allocator<std::pair<const std::basic_string<char, std::char_traits<char>, std::allocator<char> >, std::map<std::basic_string<char, std::char_traits<char>, std::allocator<char> >, std::basic_string<char, std::char_traits<char>, std::allocator<char> >, std::less<std::basic_string<char, std::char_traits<char>, std::allocator<char> > >, std::allocator<std::pair<const std::basic_string<char, std::char_traits<char>, std::allocator<char> >, std::basic_string<char, std::char_traits<char>, std::allocator<char> > > > > > > >::_M_get_Node_allocator
FUNC 30bd6 70 0 std::_Rb_tree<std::basic_string<char, std::char_traits<char>, std::allocator<char> >, std::pair<const std::basic_string<char, std::char_traits<char>, std::allocator<char> >, std::map<std::basic_string<char, std::char_traits<char>, std::allocator<char> >, std::basic_string<char, std::char_traits<char>, std::allocator<char> >, std::less<std::basic_string<char, std::char_traits<char>, std::allocator<char> > >, std::allocator<std::pair<const std::basic_string<char, std::char_traits<char>, std::allocator<char> >, std::basic_string<char, std::char_traits<char>, std::allocator<char> > > > > >, std::_Select1st<std::pair<const std::basic_string<char, std::char_traits<char>, std::allocator<char> >, std::map<std::basic_string<char, std::char_traits<char>, std::allocator<char> >, std::basic_string<char, std::char_traits<char>, std::allocator<char> >, std::less<std::basic_string<char, std::char_traits<char>, std::allocator<char> > >, std::allocator<std::pair<const std::basic_string<char, std::char_traits<char>, std::allocator<char> >, std::basic_string<char, std::char_traits<char>, std::allocator<char> > > > > > >, std::less<std::basic_string<char, std::char_traits<char>, std::allocator<char> > >, std::allocator<std::pair<const std::basic_string<char, std::char_traits<char>, std::allocator<char> >, std::map<std::basic_string<char, std::char_traits<char>, std::allocator<char> >, std::basic_string<char, std::char_traits<char>, std::allocator<char> >, std::less<std::basic_string<char, std::char_traits<char>, std::allocator<char> > >, std::allocator<std::pair<const std::basic_string<char, std::char_traits<char>, std::allocator<char> >, std::basic_string<char, std::char_traits<char>, std::allocator<char> > > > > > > >::_Rb_tree_impl<std::less<std::basic_string<char, std::char_traits<char>, std::allocator<char> > >, false>::_Rb_tree_impl
FUNC 30c46 12 0 std::_Rb_tree<std::basic_string<char, std::char_traits<char>, std::allocator<char> >, std::pair<const std::basic_string<char, std::char_traits<char>, std::allocator<char> >, std::map<std::basic_string<char, std::char_traits<char>, std::allocator<char> >, std::basic_string<char, std::char_traits<char>, std::allocator<char> >, std::less<std::basic_string<char, std::char_traits<char>, std::allocator<char> > >, std::allocator<std::pair<const std::basic_string<char, std::char_traits<char>, std::allocator<char> >, std::basic_string<char, std::char_traits<char>, std::allocator<char> > > > > >, std::_Select1st<std::pair<const std::basic_string<char, std::char_traits<char>, std::allocator<char> >, std::map<std::basic_string<char, std::char_traits<char>, std::allocator<char> >, std::basic_string<char, std::char_traits<char>, std::allocator<char> >, std::less<std::basic_string<char, std::char_traits<char>, std::allocator<char> > >, std::allocator<std::pair<const std::basic_string<char, std::char_traits<char>, std::allocator<char> >, std::basic_string<char, std::char_traits<char>, std::allocator<char> > > > > > >, std::less<std::basic_string<char, std::char_traits<char>, std::allocator<char> > >, std::allocator<std::pair<const std::basic_string<char, std::char_traits<char>, std::allocator<char> >, std::map<std::basic_string<char, std::char_traits<char>, std::allocator<char> >, std::basic_string<char, std::char_traits<char>, std::allocator<char> >, std::less<std::basic_string<char, std::char_traits<char>, std::allocator<char> > >, std::allocator<std::pair<const std::basic_string<char, std::char_traits<char>, std::allocator<char> >, std::basic_string<char, std::char_traits<char>, std::allocator<char> > > > > > > >::_M_root
FUNC 30c58 169 0 std::_Rb_tree<std::basic_string<char, std::char_traits<char>, std::allocator<char> >, std::pair<const std::basic_string<char, std::char_traits<char>, std::allocator<char> >, std::map<std::basic_string<char, std::char_traits<char>, std::allocator<char> >, std::basic_string<char, std::char_traits<char>, std::allocator<char> >, std::less<std::basic_string<char, std::char_traits<char>, std::allocator<char> > >, std::allocator<std::pair<const std::basic_string<char, std::char_traits<char>, std::allocator<char> >, std::basic_string<char, std::char_traits<char>, std::allocator<char> > > > > >, std::_Select1st<std::pair<const std::basic_string<char, std::char_traits<char>, std::allocator<char> >, std::map<std::basic_string<char, std::char_traits<char>, std::allocator<char> >, std::basic_string<char, std::char_traits<char>, std::allocator<char> >, std::less<std::basic_string<char, std::char_traits<char>, std::allocator<char> > >, std::allocator<std::pair<const std::basic_string<char, std::char_traits<char>, std::allocator<char> >, std::basic_string<char, std::char_traits<char>, std::allocator<char> > > > > > >, std::less<std::basic_string<char, std::char_traits<char>, std::allocator<char> > >, std::allocator<std::pair<const std::basic_string<char, std::char_traits<char>, std::allocator<char> >, std::map<std::basic_string<char, std::char_traits<char>, std::allocator<char> >, std::basic_string<char, std::char_traits<char>, std::allocator<char> >, std::less<std::basic_string<char, std::char_traits<char>, std::allocator<char> > >, std::allocator<std::pair<const std::basic_string<char, std::char_traits<char>, std::allocator<char> >, std::basic_string<char, std::char_traits<char>, std::allocator<char> > > > > > > >::_M_copy
FUNC 30dc2 12 0 std::_Rb_tree<std::basic_string<char, std::char_traits<char>, std::allocator<char> >, std::pair<const std::basic_string<char, std::char_traits<char>, std::allocator<char> >, std::map<std::basic_string<char, std::char_traits<char>, std::allocator<char> >, std::basic_string<char, std::char_traits<char>, std::allocator<char> >, std::less<std::basic_string<char, std::char_traits<char>, std::allocator<char> > >, std::allocator<std::pair<const std::basic_string<char, std::char_traits<char>, std::allocator<char> >, std::basic_string<char, std::char_traits<char>, std::allocator<char> > > > > >, std::_Select1st<std::pair<const std::basic_string<char, std::char_traits<char>, std::allocator<char> >, std::map<std::basic_string<char, std::char_traits<char>, std::allocator<char> >, std::basic_string<char, std::char_traits<char>, std::allocator<char> >, std::less<std::basic_string<char, std::char_traits<char>, std::allocator<char> > >, std::allocator<std::pair<const std::basic_string<char, std::char_traits<char>, std::allocator<char> >, std::basic_string<char, std::char_traits<char>, std::allocator<char> > > > > > >, std::less<std::basic_string<char, std::char_traits<char>, std::allocator<char> > >, std::allocator<std::pair<const std::basic_string<char, std::char_traits<char>, std::allocator<char> >, std::map<std::basic_string<char, std::char_traits<char>, std::allocator<char> >, std::basic_string<char, std::char_traits<char>, std::allocator<char> >, std::less<std::basic_string<char, std::char_traits<char>, std::allocator<char> > >, std::allocator<std::pair<const std::basic_string<char, std::char_traits<char>, std::allocator<char> >, std::basic_string<char, std::char_traits<char>, std::allocator<char> > > > > > > >::_M_begin
FUNC 30dd4 1a 0 std::_Rb_tree<std::basic_string<char, std::char_traits<char>, std::allocator<char> >, std::pair<const std::basic_string<char, std::char_traits<char>, std::allocator<char> >, std::map<std::basic_string<char, std::char_traits<char>, std::allocator<char> >, std::basic_string<char, std::char_traits<char>, std::allocator<char> >, std::less<std::basic_string<char, std::char_traits<char>, std::allocator<char> > >, std::allocator<std::pair<const std::basic_string<char, std::char_traits<char>, std::allocator<char> >, std::basic_string<char, std::char_traits<char>, std::allocator<char> > > > > >, std::_Select1st<std::pair<const std::basic_string<char, std::char_traits<char>, std::allocator<char> >, std::map<std::basic_string<char, std::char_traits<char>, std::allocator<char> >, std::basic_string<char, std::char_traits<char>, std::allocator<char> >, std::less<std::basic_string<char, std::char_traits<char>, std::allocator<char> > >, std::allocator<std::pair<const std::basic_string<char, std::char_traits<char>, std::allocator<char> >, std::basic_string<char, std::char_traits<char>, std::allocator<char> > > > > > >, std::less<std::basic_string<char, std::char_traits<char>, std::allocator<char> > >, std::allocator<std::pair<const std::basic_string<char, std::char_traits<char>, std::allocator<char> >, std::map<std::basic_string<char, std::char_traits<char>, std::allocator<char> >, std::basic_string<char, std::char_traits<char>, std::allocator<char> >, std::less<std::basic_string<char, std::char_traits<char>, std::allocator<char> > >, std::allocator<std::pair<const std::basic_string<char, std::char_traits<char>, std::allocator<char> >, std::basic_string<char, std::char_traits<char>, std::allocator<char> > > > > > > >::_S_minimum
FUNC 30dee 1a 0 std::_Rb_tree<std::basic_string<char, std::char_traits<char>, std::allocator<char> >, std::pair<const std::basic_string<char, std::char_traits<char>, std::allocator<char> >, std::map<std::basic_string<char, std::char_traits<char>, std::allocator<char> >, std::basic_string<char, std::char_traits<char>, std::allocator<char> >, std::less<std::basic_string<char, std::char_traits<char>, std::allocator<char> > >, std::allocator<std::pair<const std::basic_string<char, std::char_traits<char>, std::allocator<char> >, std::basic_string<char, std::char_traits<char>, std::allocator<char> > > > > >, std::_Select1st<std::pair<const std::basic_string<char, std::char_traits<char>, std::allocator<char> >, std::map<std::basic_string<char, std::char_traits<char>, std::allocator<char> >, std::basic_string<char, std::char_traits<char>, std::allocator<char> >, std::less<std::basic_string<char, std::char_traits<char>, std::allocator<char> > >, std::allocator<std::pair<const std::basic_string<char, std::char_traits<char>, std::allocator<char> >, std::basic_string<char, std::char_traits<char>, std::allocator<char> > > > > > >, std::less<std::basic_string<char, std::char_traits<char>, std::allocator<char> > >, std::allocator<std::pair<const std::basic_string<char, std::char_traits<char>, std::allocator<char> >, std::map<std::basic_string<char, std::char_traits<char>, std::allocator<char> >, std::basic_string<char, std::char_traits<char>, std::allocator<char> >, std::less<std::basic_string<char, std::char_traits<char>, std::allocator<char> > >, std::allocator<std::pair<const std::basic_string<char, std::char_traits<char>, std::allocator<char> >, std::basic_string<char, std::char_traits<char>, std::allocator<char> > > > > > > >::_S_maximum
FUNC 30e08 12 0 std::_Rb_tree<std::basic_string<char, std::char_traits<char>, std::allocator<char> >, std::pair<const std::basic_string<char, std::char_traits<char>, std::allocator<char> >, std::map<int, std::map<int, IEC104WF::stPointTable, std::less<int>, std::allocator<std::pair<const int, IEC104WF::stPointTable> > >, std::less<int>, std::allocator<std::pair<const int, std::map<int, IEC104WF::stPointTable, std::less<int>, std::allocator<std::pair<const int, IEC104WF::stPointTable> > > > > > >, std::_Select1st<std::pair<const std::basic_string<char, std::char_traits<char>, std::allocator<char> >, std::map<int, std::map<int, IEC104WF::stPointTable, std::less<int>, std::allocator<std::pair<const int, IEC104WF::stPointTable> > >, std::less<int>, std::allocator<std::pair<const int, std::map<int, IEC104WF::stPointTable, std::less<int>, std::allocator<std::pair<const int, IEC104WF::stPointTable> > > > > > > >, std::less<std::basic_string<char, std::char_traits<char>, std::allocator<char> > >, std::allocator<std::pair<const std::basic_string<char, std::char_traits<char>, std::allocator<char> >, std::map<int, std::map<int, IEC104WF::stPointTable, std::less<int>, std::allocator<std::pair<const int, IEC104WF::stPointTable> > >, std::less<int>, std::allocator<std::pair<const int, std::map<int, IEC104WF::stPointTable, std::less<int>, std::allocator<std::pair<const int, IEC104WF::stPointTable> > > > > > > > >::_M_end
FUNC 30e1a 12 0 std::_Rb_tree<std::basic_string<char, std::char_traits<char>, std::allocator<char> >, std::pair<const std::basic_string<char, std::char_traits<char>, std::allocator<char> >, std::map<int, std::map<int, IEC104WF::stPointTable, std::less<int>, std::allocator<std::pair<const int, IEC104WF::stPointTable> > >, std::less<int>, std::allocator<std::pair<const int, std::map<int, IEC104WF::stPointTable, std::less<int>, std::allocator<std::pair<const int, IEC104WF::stPointTable> > > > > > >, std::_Select1st<std::pair<const std::basic_string<char, std::char_traits<char>, std::allocator<char> >, std::map<int, std::map<int, IEC104WF::stPointTable, std::less<int>, std::allocator<std::pair<const int, IEC104WF::stPointTable> > >, std::less<int>, std::allocator<std::pair<const int, std::map<int, IEC104WF::stPointTable, std::less<int>, std::allocator<std::pair<const int, IEC104WF::stPointTable> > > > > > > >, std::less<std::basic_string<char, std::char_traits<char>, std::allocator<char> > >, std::allocator<std::pair<const std::basic_string<char, std::char_traits<char>, std::allocator<char> >, std::map<int, std::map<int, IEC104WF::stPointTable, std::less<int>, std::allocator<std::pair<const int, IEC104WF::stPointTable> > >, std::less<int>, std::allocator<std::pair<const int, std::map<int, IEC104WF::stPointTable, std::less<int>, std::allocator<std::pair<const int, IEC104WF::stPointTable> > > > > > > > >::_M_leftmost
FUNC 30e2c 12 0 std::_Rb_tree<std::basic_string<char, std::char_traits<char>, std::allocator<char> >, std::pair<const std::basic_string<char, std::char_traits<char>, std::allocator<char> >, std::map<int, std::map<int, IEC104WF::stPointTable, std::less<int>, std::allocator<std::pair<const int, IEC104WF::stPointTable> > >, std::less<int>, std::allocator<std::pair<const int, std::map<int, IEC104WF::stPointTable, std::less<int>, std::allocator<std::pair<const int, IEC104WF::stPointTable> > > > > > >, std::_Select1st<std::pair<const std::basic_string<char, std::char_traits<char>, std::allocator<char> >, std::map<int, std::map<int, IEC104WF::stPointTable, std::less<int>, std::allocator<std::pair<const int, IEC104WF::stPointTable> > >, std::less<int>, std::allocator<std::pair<const int, std::map<int, IEC104WF::stPointTable, std::less<int>, std::allocator<std::pair<const int, IEC104WF::stPointTable> > > > > > > >, std::less<std::basic_string<char, std::char_traits<char>, std::allocator<char> > >, std::allocator<std::pair<const std::basic_string<char, std::char_traits<char>, std::allocator<char> >, std::map<int, std::map<int, IEC104WF::stPointTable, std::less<int>, std::allocator<std::pair<const int, IEC104WF::stPointTable> > >, std::less<int>, std::allocator<std::pair<const int, std::map<int, IEC104WF::stPointTable, std::less<int>, std::allocator<std::pair<const int, IEC104WF::stPointTable> > > > > > > > >::_M_root
FUNC 30e3e 12 0 std::_Rb_tree<std::basic_string<char, std::char_traits<char>, std::allocator<char> >, std::pair<const std::basic_string<char, std::char_traits<char>, std::allocator<char> >, std::map<int, std::map<int, IEC104WF::stPointTable, std::less<int>, std::allocator<std::pair<const int, IEC104WF::stPointTable> > >, std::less<int>, std::allocator<std::pair<const int, std::map<int, IEC104WF::stPointTable, std::less<int>, std::allocator<std::pair<const int, IEC104WF::stPointTable> > > > > > >, std::_Select1st<std::pair<const std::basic_string<char, std::char_traits<char>, std::allocator<char> >, std::map<int, std::map<int, IEC104WF::stPointTable, std::less<int>, std::allocator<std::pair<const int, IEC104WF::stPointTable> > >, std::less<int>, std::allocator<std::pair<const int, std::map<int, IEC104WF::stPointTable, std::less<int>, std::allocator<std::pair<const int, IEC104WF::stPointTable> > > > > > > >, std::less<std::basic_string<char, std::char_traits<char>, std::allocator<char> > >, std::allocator<std::pair<const std::basic_string<char, std::char_traits<char>, std::allocator<char> >, std::map<int, std::map<int, IEC104WF::stPointTable, std::less<int>, std::allocator<std::pair<const int, IEC104WF::stPointTable> > >, std::less<int>, std::allocator<std::pair<const int, std::map<int, IEC104WF::stPointTable, std::less<int>, std::allocator<std::pair<const int, IEC104WF::stPointTable> > > > > > > > >::_M_rightmost
FUNC 30e50 12 0 std::_Rb_tree<int, std::pair<const int, std::map<int, IEC104WF::stPointTable, std::less<int>, std::allocator<std::pair<const int, IEC104WF::stPointTable> > > >, std::_Select1st<std::pair<const int, std::map<int, IEC104WF::stPointTable, std::less<int>, std::allocator<std::pair<const int, IEC104WF::stPointTable> > > > >, std::less<int>, std::allocator<std::pair<const int, std::map<int, IEC104WF::stPointTable, std::less<int>, std::allocator<std::pair<const int, IEC104WF::stPointTable> > > > > >::_M_end
FUNC 30e62 12 0 std::_Rb_tree<int, std::pair<const int, std::map<int, IEC104WF::stPointTable, std::less<int>, std::allocator<std::pair<const int, IEC104WF::stPointTable> > > >, std::_Select1st<std::pair<const int, std::map<int, IEC104WF::stPointTable, std::less<int>, std::allocator<std::pair<const int, IEC104WF::stPointTable> > > > >, std::less<int>, std::allocator<std::pair<const int, std::map<int, IEC104WF::stPointTable, std::less<int>, std::allocator<std::pair<const int, IEC104WF::stPointTable> > > > > >::_M_leftmost
FUNC 30e74 12 0 std::_Rb_tree<int, std::pair<const int, std::map<int, IEC104WF::stPointTable, std::less<int>, std::allocator<std::pair<const int, IEC104WF::stPointTable> > > >, std::_Select1st<std::pair<const int, std::map<int, IEC104WF::stPointTable, std::less<int>, std::allocator<std::pair<const int, IEC104WF::stPointTable> > > > >, std::less<int>, std::allocator<std::pair<const int, std::map<int, IEC104WF::stPointTable, std::less<int>, std::allocator<std::pair<const int, IEC104WF::stPointTable> > > > > >::_M_root
FUNC 30e86 12 0 std::_Rb_tree<int, std::pair<const int, std::map<int, IEC104WF::stPointTable, std::less<int>, std::allocator<std::pair<const int, IEC104WF::stPointTable> > > >, std::_Select1st<std::pair<const int, std::map<int, IEC104WF::stPointTable, std::less<int>, std::allocator<std::pair<const int, IEC104WF::stPointTable> > > > >, std::less<int>, std::allocator<std::pair<const int, std::map<int, IEC104WF::stPointTable, std::less<int>, std::allocator<std::pair<const int, IEC104WF::stPointTable> > > > > >::_M_rightmost
FUNC 30e98 12 0 std::_Rb_tree<int, std::pair<const int, IEC104WF::stPointTable>, std::_Select1st<std::pair<const int, IEC104WF::stPointTable> >, std::less<int>, std::allocator<std::pair<const int, IEC104WF::stPointTable> > >::_M_end
FUNC 30eaa 12 0 std::_Rb_tree<int, std::pair<const int, IEC104WF::stPointTable>, std::_Select1st<std::pair<const int, IEC104WF::stPointTable> >, std::less<int>, std::allocator<std::pair<const int, IEC104WF::stPointTable> > >::_M_leftmost
FUNC 30ebc 12 0 std::_Rb_tree<int, std::pair<const int, IEC104WF::stPointTable>, std::_Select1st<std::pair<const int, IEC104WF::stPointTable> >, std::less<int>, std::allocator<std::pair<const int, IEC104WF::stPointTable> > >::_M_root
FUNC 30ece 12 0 std::_Rb_tree<int, std::pair<const int, IEC104WF::stPointTable>, std::_Select1st<std::pair<const int, IEC104WF::stPointTable> >, std::less<int>, std::allocator<std::pair<const int, IEC104WF::stPointTable> > >::_M_rightmost
FUNC 30ee0 e 0 std::_Rb_tree<std::basic_string<char, std::char_traits<char>, std::allocator<char> >, std::pair<const std::basic_string<char, std::char_traits<char>, std::allocator<char> >, std::map<int, std::map<int, IEC104WF::stPointTable, std::less<int>, std::allocator<std::pair<const int, IEC104WF::stPointTable> > >, std::less<int>, std::allocator<std::pair<const int, std::map<int, IEC104WF::stPointTable, std::less<int>, std::allocator<std::pair<const int, IEC104WF::stPointTable> > > > > > >, std::_Select1st<std::pair<const std::basic_string<char, std::char_traits<char>, std::allocator<char> >, std::map<int, std::map<int, IEC104WF::stPointTable, std::less<int>, std::allocator<std::pair<const int, IEC104WF::stPointTable> > >, std::less<int>, std::allocator<std::pair<const int, std::map<int, IEC104WF::stPointTable, std::less<int>, std::allocator<std::pair<const int, IEC104WF::stPointTable> > > > > > > >, std::less<std::basic_string<char, std::char_traits<char>, std::allocator<char> > >, std::allocator<std::pair<const std::basic_string<char, std::char_traits<char>, std::allocator<char> >, std::map<int, std::map<int, IEC104WF::stPointTable, std::less<int>, std::allocator<std::pair<const int, IEC104WF::stPointTable> > >, std::less<int>, std::allocator<std::pair<const int, std::map<int, IEC104WF::stPointTable, std::less<int>, std::allocator<std::pair<const int, IEC104WF::stPointTable> > > > > > > > >::_M_get_Node_allocator
FUNC 30eee 70 0 std::_Rb_tree<std::basic_string<char, std::char_traits<char>, std::allocator<char> >, std::pair<const std::basic_string<char, std::char_traits<char>, std::allocator<char> >, std::map<int, std::map<int, IEC104WF::stPointTable, std::less<int>, std::allocator<std::pair<const int, IEC104WF::stPointTable> > >, std::less<int>, std::allocator<std::pair<const int, std::map<int, IEC104WF::stPointTable, std::less<int>, std::allocator<std::pair<const int, IEC104WF::stPointTable> > > > > > >, std::_Select1st<std::pair<const std::basic_string<char, std::char_traits<char>, std::allocator<char> >, std::map<int, std::map<int, IEC104WF::stPointTable, std::less<int>, std::allocator<std::pair<const int, IEC104WF::stPointTable> > >, std::less<int>, std::allocator<std::pair<const int, std::map<int, IEC104WF::stPointTable, std::less<int>, std::allocator<std::pair<const int, IEC104WF::stPointTable> > > > > > > >, std::less<std::basic_string<char, std::char_traits<char>, std::allocator<char> > >, std::allocator<std::pair<const std::basic_string<char, std::char_traits<char>, std::allocator<char> >, std::map<int, std::map<int, IEC104WF::stPointTable, std::less<int>, std::allocator<std::pair<const int, IEC104WF::stPointTable> > >, std::less<int>, std::allocator<std::pair<const int, std::map<int, IEC104WF::stPointTable, std::less<int>, std::allocator<std::pair<const int, IEC104WF::stPointTable> > > > > > > > >::_Rb_tree_impl<std::less<std::basic_string<char, std::char_traits<char>, std::allocator<char> > >, false>::_Rb_tree_impl
FUNC 30f5e 12 0 std::_Rb_tree<std::basic_string<char, std::char_traits<char>, std::allocator<char> >, std::pair<const std::basic_string<char, std::char_traits<char>, std::allocator<char> >, std::map<int, std::map<int, IEC104WF::stPointTable, std::less<int>, std::allocator<std::pair<const int, IEC104WF::stPointTable> > >, std::less<int>, std::allocator<std::pair<const int, std::map<int, IEC104WF::stPointTable, std::less<int>, std::allocator<std::pair<const int, IEC104WF::stPointTable> > > > > > >, std::_Select1st<std::pair<const std::basic_string<char, std::char_traits<char>, std::allocator<char> >, std::map<int, std::map<int, IEC104WF::stPointTable, std::less<int>, std::allocator<std::pair<const int, IEC104WF::stPointTable> > >, std::less<int>, std::allocator<std::pair<const int, std::map<int, IEC104WF::stPointTable, std::less<int>, std::allocator<std::pair<const int, IEC104WF::stPointTable> > > > > > > >, std::less<std::basic_string<char, std::char_traits<char>, std::allocator<char> > >, std::allocator<std::pair<const std::basic_string<char, std::char_traits<char>, std::allocator<char> >, std::map<int, std::map<int, IEC104WF::stPointTable, std::less<int>, std::allocator<std::pair<const int, IEC104WF::stPointTable> > >, std::less<int>, std::allocator<std::pair<const int, std::map<int, IEC104WF::stPointTable, std::less<int>, std::allocator<std::pair<const int, IEC104WF::stPointTable> > > > > > > > >::_M_root
FUNC 30f70 169 0 std::_Rb_tree<std::basic_string<char, std::char_traits<char>, std::allocator<char> >, std::pair<const std::basic_string<char, std::char_traits<char>, std::allocator<char> >, std::map<int, std::map<int, IEC104WF::stPointTable, std::less<int>, std::allocator<std::pair<const int, IEC104WF::stPointTable> > >, std::less<int>, std::allocator<std::pair<const int, std::map<int, IEC104WF::stPointTable, std::less<int>, std::allocator<std::pair<const int, IEC104WF::stPointTable> > > > > > >, std::_Select1st<std::pair<const std::basic_string<char, std::char_traits<char>, std::allocator<char> >, std::map<int, std::map<int, IEC104WF::stPointTable, std::less<int>, std::allocator<std::pair<const int, IEC104WF::stPointTable> > >, std::less<int>, std::allocator<std::pair<const int, std::map<int, IEC104WF::stPointTable, std::less<int>, std::allocator<std::pair<const int, IEC104WF::stPointTable> > > > > > > >, std::less<std::basic_string<char, std::char_traits<char>, std::allocator<char> > >, std::allocator<std::pair<const std::basic_string<char, std::char_traits<char>, std::allocator<char> >, std::map<int, std::map<int, IEC104WF::stPointTable, std::less<int>, std::allocator<std::pair<const int, IEC104WF::stPointTable> > >, std::less<int>, std::allocator<std::pair<const int, std::map<int, IEC104WF::stPointTable, std::less<int>, std::allocator<std::pair<const int, IEC104WF::stPointTable> > > > > > > > >::_M_copy
FUNC 310da 12 0 std::_Rb_tree<std::basic_string<char, std::char_traits<char>, std::allocator<char> >, std::pair<const std::basic_string<char, std::char_traits<char>, std::allocator<char> >, std::map<int, std::map<int, IEC104WF::stPointTable, std::less<int>, std::allocator<std::pair<const int, IEC104WF::stPointTable> > >, std::less<int>, std::allocator<std::pair<const int, std::map<int, IEC104WF::stPointTable, std::less<int>, std::allocator<std::pair<const int, IEC104WF::stPointTable> > > > > > >, std::_Select1st<std::pair<const std::basic_string<char, std::char_traits<char>, std::allocator<char> >, std::map<int, std::map<int, IEC104WF::stPointTable, std::less<int>, std::allocator<std::pair<const int, IEC104WF::stPointTable> > >, std::less<int>, std::allocator<std::pair<const int, std::map<int, IEC104WF::stPointTable, std::less<int>, std::allocator<std::pair<const int, IEC104WF::stPointTable> > > > > > > >, std::less<std::basic_string<char, std::char_traits<char>, std::allocator<char> > >, std::allocator<std::pair<const std::basic_string<char, std::char_traits<char>, std::allocator<char> >, std::map<int, std::map<int, IEC104WF::stPointTable, std::less<int>, std::allocator<std::pair<const int, IEC104WF::stPointTable> > >, std::less<int>, std::allocator<std::pair<const int, std::map<int, IEC104WF::stPointTable, std::less<int>, std::allocator<std::pair<const int, IEC104WF::stPointTable> > > > > > > > >::_M_begin
FUNC 310ec 1a 0 std::_Rb_tree<std::basic_string<char, std::char_traits<char>, std::allocator<char> >, std::pair<const std::basic_string<char, std::char_traits<char>, std::allocator<char> >, std::map<int, std::map<int, IEC104WF::stPointTable, std::less<int>, std::allocator<std::pair<const int, IEC104WF::stPointTable> > >, std::less<int>, std::allocator<std::pair<const int, std::map<int, IEC104WF::stPointTable, std::less<int>, std::allocator<std::pair<const int, IEC104WF::stPointTable> > > > > > >, std::_Select1st<std::pair<const std::basic_string<char, std::char_traits<char>, std::allocator<char> >, std::map<int, std::map<int, IEC104WF::stPointTable, std::less<int>, std::allocator<std::pair<const int, IEC104WF::stPointTable> > >, std::less<int>, std::allocator<std::pair<const int, std::map<int, IEC104WF::stPointTable, std::less<int>, std::allocator<std::pair<const int, IEC104WF::stPointTable> > > > > > > >, std::less<std::basic_string<char, std::char_traits<char>, std::allocator<char> > >, std::allocator<std::pair<const std::basic_string<char, std::char_traits<char>, std::allocator<char> >, std::map<int, std::map<int, IEC104WF::stPointTable, std::less<int>, std::allocator<std::pair<const int, IEC104WF::stPointTable> > >, std::less<int>, std::allocator<std::pair<const int, std::map<int, IEC104WF::stPointTable, std::less<int>, std::allocator<std::pair<const int, IEC104WF::stPointTable> > > > > > > > >::_S_minimum
FUNC 31106 1a 0 std::_Rb_tree<std::basic_string<char, std::char_traits<char>, std::allocator<char> >, std::pair<const std::basic_string<char, std::char_traits<char>, std::allocator<char> >, std::map<int, std::map<int, IEC104WF::stPointTable, std::less<int>, std::allocator<std::pair<const int, IEC104WF::stPointTable> > >, std::less<int>, std::allocator<std::pair<const int, std::map<int, IEC104WF::stPointTable, std::less<int>, std::allocator<std::pair<const int, IEC104WF::stPointTable> > > > > > >, std::_Select1st<std::pair<const std::basic_string<char, std::char_traits<char>, std::allocator<char> >, std::map<int, std::map<int, IEC104WF::stPointTable, std::less<int>, std::allocator<std::pair<const int, IEC104WF::stPointTable> > >, std::less<int>, std::allocator<std::pair<const int, std::map<int, IEC104WF::stPointTable, std::less<int>, std::allocator<std::pair<const int, IEC104WF::stPointTable> > > > > > > >, std::less<std::basic_string<char, std::char_traits<char>, std::allocator<char> > >, std::allocator<std::pair<const std::basic_string<char, std::char_traits<char>, std::allocator<char> >, std::map<int, std::map<int, IEC104WF::stPointTable, std::less<int>, std::allocator<std::pair<const int, IEC104WF::stPointTable> > >, std::less<int>, std::allocator<std::pair<const int, std::map<int, IEC104WF::stPointTable, std::less<int>, std::allocator<std::pair<const int, IEC104WF::stPointTable> > > > > > > > >::_S_maximum
FUNC 31120 1e 0 std::allocator<std::_List_node<std::basic_string<char, std::char_traits<char>, std::allocator<char> > > >::allocator<std::basic_string<char, std::char_traits<char>, std::allocator<char> > >
FUNC 3113e 3c 0 std::_List_base<std::basic_string<char, std::char_traits<char>, std::allocator<char> >, std::allocator<std::basic_string<char, std::char_traits<char>, std::allocator<char> > > >::_List_impl::_List_impl
FUNC 3117a 19 0 std::_List_const_iterator<std::basic_string<char, std::char_traits<char>, std::allocator<char> > >::_List_const_iterator
FUNC 31194 22 0 std::_List_const_iterator<std::basic_string<char, std::char_traits<char>, std::allocator<char> > >::operator!=
FUNC 311b6 1f 0 std::_List_const_iterator<std::basic_string<char, std::char_traits<char>, std::allocator<char> > >::operator++
FUNC 311d6 15 0 std::_List_const_iterator<std::basic_string<char, std::char_traits<char>, std::allocator<char> > >::operator*
FUNC 311ec 53 0 std::_Rb_tree<std::basic_string<char, std::char_traits<char>, std::allocator<char> >, std::pair<const std::basic_string<char, std::char_traits<char>, std::allocator<char> >, IEC61850_STRUCT::IED_61850>, std::_Select1st<std::pair<const std::basic_string<char, std::char_traits<char>, std::allocator<char> >, IEC61850_STRUCT::IED_61850> >, std::less<std::basic_string<char, std::char_traits<char>, std::allocator<char> > >, std::allocator<std::pair<const std::basic_string<char, std::char_traits<char>, std::allocator<char> >, IEC61850_STRUCT::IED_61850> > >::lower_bound
FUNC 31240 a 0 std::_Rb_tree<std::basic_string<char, std::char_traits<char>, std::allocator<char> >, std::pair<const std::basic_string<char, std::char_traits<char>, std::allocator<char> >, IEC61850_STRUCT::IED_61850>, std::_Select1st<std::pair<const std::basic_string<char, std::char_traits<char>, std::allocator<char> >, IEC61850_STRUCT::IED_61850> >, std::less<std::basic_string<char, std::char_traits<char>, std::allocator<char> > >, std::allocator<std::pair<const std::basic_string<char, std::char_traits<char>, std::allocator<char> >, IEC61850_STRUCT::IED_61850> > >::key_comp
FUNC 3124a 2c 0 std::_Rb_tree<std::basic_string<char, std::char_traits<char>, std::allocator<char> >, std::pair<const std::basic_string<char, std::char_traits<char>, std::allocator<char> >, IEC61850_STRUCT::IED_61850>, std::_Select1st<std::pair<const std::basic_string<char, std::char_traits<char>, std::allocator<char> >, IEC61850_STRUCT::IED_61850> >, std::less<std::basic_string<char, std::char_traits<char>, std::allocator<char> > >, std::allocator<std::pair<const std::basic_string<char, std::char_traits<char>, std::allocator<char> >, IEC61850_STRUCT::IED_61850> > >::end
FUNC 31276 1c 0 std::_Rb_tree_const_iterator<std::pair<const std::basic_string<char, std::char_traits<char>, std::allocator<char> >, IEC61850_STRUCT::IED_61850> >::_Rb_tree_const_iterator
FUNC 31292 4c0 0 std::_Rb_tree<std::basic_string<char, std::char_traits<char>, std::allocator<char> >, std::pair<const std::basic_string<char, std::char_traits<char>, std::allocator<char> >, IEC61850_STRUCT::IED_61850>, std::_Select1st<std::pair<const std::basic_string<char, std::char_traits<char>, std::allocator<char> >, IEC61850_STRUCT::IED_61850> >, std::less<std::basic_string<char, std::char_traits<char>, std::allocator<char> > >, std::allocator<std::pair<const std::basic_string<char, std::char_traits<char>, std::allocator<char> >, IEC61850_STRUCT::IED_61850> > >::_M_insert_unique_
FUNC 31752 53 0 std::_Rb_tree<int, std::pair<const int, IEC104WF::stPointTable>, std::_Select1st<std::pair<const int, IEC104WF::stPointTable> >, std::less<int>, std::allocator<std::pair<const int, IEC104WF::stPointTable> > >::lower_bound
FUNC 317a6 a 0 std::_Rb_tree<int, std::pair<const int, IEC104WF::stPointTable>, std::_Select1st<std::pair<const int, IEC104WF::stPointTable> >, std::less<int>, std::allocator<std::pair<const int, IEC104WF::stPointTable> > >::key_comp
FUNC 317b0 2c 0 std::_Rb_tree<int, std::pair<const int, IEC104WF::stPointTable>, std::_Select1st<std::pair<const int, IEC104WF::stPointTable> >, std::less<int>, std::allocator<std::pair<const int, IEC104WF::stPointTable> > >::end
FUNC 317dc 1c 0 std::_Rb_tree_const_iterator<std::pair<const int, IEC104WF::stPointTable> >::_Rb_tree_const_iterator
FUNC 317f8 4c0 0 std::_Rb_tree<int, std::pair<const int, IEC104WF::stPointTable>, std::_Select1st<std::pair<const int, IEC104WF::stPointTable> >, std::less<int>, std::allocator<std::pair<const int, IEC104WF::stPointTable> > >::_M_insert_unique_
FUNC 31cb8 53 0 std::_Rb_tree<int, std::pair<const int, std::map<int, IEC104WF::stPointTable, std::less<int>, std::allocator<std::pair<const int, IEC104WF::stPointTable> > > >, std::_Select1st<std::pair<const int, std::map<int, IEC104WF::stPointTable, std::less<int>, std::allocator<std::pair<const int, IEC104WF::stPointTable> > > > >, std::less<int>, std::allocator<std::pair<const int, std::map<int, IEC104WF::stPointTable, std::less<int>, std::allocator<std::pair<const int, IEC104WF::stPointTable> > > > > >::lower_bound
FUNC 31d0c a 0 std::_Rb_tree<int, std::pair<const int, std::map<int, IEC104WF::stPointTable, std::less<int>, std::allocator<std::pair<const int, IEC104WF::stPointTable> > > >, std::_Select1st<std::pair<const int, std::map<int, IEC104WF::stPointTable, std::less<int>, std::allocator<std::pair<const int, IEC104WF::stPointTable> > > > >, std::less<int>, std::allocator<std::pair<const int, std::map<int, IEC104WF::stPointTable, std::less<int>, std::allocator<std::pair<const int, IEC104WF::stPointTable> > > > > >::key_comp
FUNC 31d16 2c 0 std::_Rb_tree<int, std::pair<const int, std::map<int, IEC104WF::stPointTable, std::less<int>, std::allocator<std::pair<const int, IEC104WF::stPointTable> > > >, std::_Select1st<std::pair<const int, std::map<int, IEC104WF::stPointTable, std::less<int>, std::allocator<std::pair<const int, IEC104WF::stPointTable> > > > >, std::less<int>, std::allocator<std::pair<const int, std::map<int, IEC104WF::stPointTable, std::less<int>, std::allocator<std::pair<const int, IEC104WF::stPointTable> > > > > >::end
FUNC 31d42 25 0 std::map<int, IEC104WF::stPointTable, std::less<int>, std::allocator<std::pair<const int, IEC104WF::stPointTable> > >::map
FUNC 31d68 1c 0 std::_Rb_tree_const_iterator<std::pair<const int, std::map<int, IEC104WF::stPointTable, std::less<int>, std::allocator<std::pair<const int, IEC104WF::stPointTable> > > > >::_Rb_tree_const_iterator
FUNC 31d84 4c0 0 std::_Rb_tree<int, std::pair<const int, std::map<int, IEC104WF::stPointTable, std::less<int>, std::allocator<std::pair<const int, IEC104WF::stPointTable> > > >, std::_Select1st<std::pair<const int, std::map<int, IEC104WF::stPointTable, std::less<int>, std::allocator<std::pair<const int, IEC104WF::stPointTable> > > > >, std::less<int>, std::allocator<std::pair<const int, std::map<int, IEC104WF::stPointTable, std::less<int>, std::allocator<std::pair<const int, IEC104WF::stPointTable> > > > > >::_M_insert_unique_
FUNC 32244 12 0 std::_Rb_tree<int, std::pair<const int, IEC104WF::stPointTable>, std::_Select1st<std::pair<const int, IEC104WF::stPointTable> >, std::less<int>, std::allocator<std::pair<const int, IEC104WF::stPointTable> > >::_M_root
FUNC 32256 169 0 std::_Rb_tree<int, std::pair<const int, IEC104WF::stPointTable>, std::_Select1st<std::pair<const int, IEC104WF::stPointTable> >, std::less<int>, std::allocator<std::pair<const int, IEC104WF::stPointTable> > >::_M_copy
FUNC 323c0 12 0 std::_Rb_tree<int, std::pair<const int, IEC104WF::stPointTable>, std::_Select1st<std::pair<const int, IEC104WF::stPointTable> >, std::less<int>, std::allocator<std::pair<const int, IEC104WF::stPointTable> > >::_M_begin
FUNC 323d2 1a 0 std::_Rb_tree<int, std::pair<const int, IEC104WF::stPointTable>, std::_Select1st<std::pair<const int, IEC104WF::stPointTable> >, std::less<int>, std::allocator<std::pair<const int, IEC104WF::stPointTable> > >::_S_minimum
FUNC 323ec 1a 0 std::_Rb_tree<int, std::pair<const int, IEC104WF::stPointTable>, std::_Select1st<std::pair<const int, IEC104WF::stPointTable> >, std::less<int>, std::allocator<std::pair<const int, IEC104WF::stPointTable> > >::_S_maximum
FUNC 32406 53 0 std::_Rb_tree<std::basic_string<char, std::char_traits<char>, std::allocator<char> >, std::pair<const std::basic_string<char, std::char_traits<char>, std::allocator<char> >, std::map<int, std::map<int, IEC104WF::stPointTable, std::less<int>, std::allocator<std::pair<const int, IEC104WF::stPointTable> > >, std::less<int>, std::allocator<std::pair<const int, std::map<int, IEC104WF::stPointTable, std::less<int>, std::allocator<std::pair<const int, IEC104WF::stPointTable> > > > > > >, std::_Select1st<std::pair<const std::basic_string<char, std::char_traits<char>, std::allocator<char> >, std::map<int, std::map<int, IEC104WF::stPointTable, std::less<int>, std::allocator<std::pair<const int, IEC104WF::stPointTable> > >, std::less<int>, std::allocator<std::pair<const int, std::map<int, IEC104WF::stPointTable, std::less<int>, std::allocator<std::pair<const int, IEC104WF::stPointTable> > > > > > > >, std::less<std::basic_string<char, std::char_traits<char>, std::allocator<char> > >, std::allocator<std::pair<const std::basic_string<char, std::char_traits<char>, std::allocator<char> >, std::map<int, std::map<int, IEC104WF::stPointTable, std::less<int>, std::allocator<std::pair<const int, IEC104WF::stPointTable> > >, std::less<int>, std::allocator<std::pair<const int, std::map<int, IEC104WF::stPointTable, std::less<int>, std::allocator<std::pair<const int, IEC104WF::stPointTable> > > > > > > > >::lower_bound
FUNC 3245a a 0 std::_Rb_tree<std::basic_string<char, std::char_traits<char>, std::allocator<char> >, std::pair<const std::basic_string<char, std::char_traits<char>, std::allocator<char> >, std::map<int, std::map<int, IEC104WF::stPointTable, std::less<int>, std::allocator<std::pair<const int, IEC104WF::stPointTable> > >, std::less<int>, std::allocator<std::pair<const int, std::map<int, IEC104WF::stPointTable, std::less<int>, std::allocator<std::pair<const int, IEC104WF::stPointTable> > > > > > >, std::_Select1st<std::pair<const std::basic_string<char, std::char_traits<char>, std::allocator<char> >, std::map<int, std::map<int, IEC104WF::stPointTable, std::less<int>, std::allocator<std::pair<const int, IEC104WF::stPointTable> > >, std::less<int>, std::allocator<std::pair<const int, std::map<int, IEC104WF::stPointTable, std::less<int>, std::allocator<std::pair<const int, IEC104WF::stPointTable> > > > > > > >, std::less<std::basic_string<char, std::char_traits<char>, std::allocator<char> > >, std::allocator<std::pair<const std::basic_string<char, std::char_traits<char>, std::allocator<char> >, std::map<int, std::map<int, IEC104WF::stPointTable, std::less<int>, std::allocator<std::pair<const int, IEC104WF::stPointTable> > >, std::less<int>, std::allocator<std::pair<const int, std::map<int, IEC104WF::stPointTable, std::less<int>, std::allocator<std::pair<const int, IEC104WF::stPointTable> > > > > > > > >::key_comp
FUNC 32464 2c 0 std::_Rb_tree<std::basic_string<char, std::char_traits<char>, std::allocator<char> >, std::pair<const std::basic_string<char, std::char_traits<char>, std::allocator<char> >, std::map<int, std::map<int, IEC104WF::stPointTable, std::less<int>, std::allocator<std::pair<const int, IEC104WF::stPointTable> > >, std::less<int>, std::allocator<std::pair<const int, std::map<int, IEC104WF::stPointTable, std::less<int>, std::allocator<std::pair<const int, IEC104WF::stPointTable> > > > > > >, std::_Select1st<std::pair<const std::basic_string<char, std::char_traits<char>, std::allocator<char> >, std::map<int, std::map<int, IEC104WF::stPointTable, std::less<int>, std::allocator<std::pair<const int, IEC104WF::stPointTable> > >, std::less<int>, std::allocator<std::pair<const int, std::map<int, IEC104WF::stPointTable, std::less<int>, std::allocator<std::pair<const int, IEC104WF::stPointTable> > > > > > > >, std::less<std::basic_string<char, std::char_traits<char>, std::allocator<char> > >, std::allocator<std::pair<const std::basic_string<char, std::char_traits<char>, std::allocator<char> >, std::map<int, std::map<int, IEC104WF::stPointTable, std::less<int>, std::allocator<std::pair<const int, IEC104WF::stPointTable> > >, std::less<int>, std::allocator<std::pair<const int, std::map<int, IEC104WF::stPointTable, std::less<int>, std::allocator<std::pair<const int, IEC104WF::stPointTable> > > > > > > > >::end
FUNC 32490 25 0 std::map<int, std::map<int, IEC104WF::stPointTable, std::less<int>, std::allocator<std::pair<const int, IEC104WF::stPointTable> > >, std::less<int>, std::allocator<std::pair<const int, std::map<int, IEC104WF::stPointTable, std::less<int>, std::allocator<std::pair<const int, IEC104WF::stPointTable> > > > > >::map
FUNC 324b6 1c 0 std::_Rb_tree_const_iterator<std::pair<const std::basic_string<char, std::char_traits<char>, std::allocator<char> >, std::map<int, std::map<int, IEC104WF::stPointTable, std::less<int>, std::allocator<std::pair<const int, IEC104WF::stPointTable> > >, std::less<int>, std::allocator<std::pair<const int, std::map<int, IEC104WF::stPointTable, std::less<int>, std::allocator<std::pair<const int, IEC104WF::stPointTable> > > > > > > >::_Rb_tree_const_iterator
FUNC 324d2 4c0 0 std::_Rb_tree<std::basic_string<char, std::char_traits<char>, std::allocator<char> >, std::pair<const std::basic_string<char, std::char_traits<char>, std::allocator<char> >, std::map<int, std::map<int, IEC104WF::stPointTable, std::less<int>, std::allocator<std::pair<const int, IEC104WF::stPointTable> > >, std::less<int>, std::allocator<std::pair<const int, std::map<int, IEC104WF::stPointTable, std::less<int>, std::allocator<std::pair<const int, IEC104WF::stPointTable> > > > > > >, std::_Select1st<std::pair<const std::basic_string<char, std::char_traits<char>, std::allocator<char> >, std::map<int, std::map<int, IEC104WF::stPointTable, std::less<int>, std::allocator<std::pair<const int, IEC104WF::stPointTable> > >, std::less<int>, std::allocator<std::pair<const int, std::map<int, IEC104WF::stPointTable, std::less<int>, std::allocator<std::pair<const int, IEC104WF::stPointTable> > > > > > > >, std::less<std::basic_string<char, std::char_traits<char>, std::allocator<char> > >, std::allocator<std::pair<const std::basic_string<char, std::char_traits<char>, std::allocator<char> >, std::map<int, std::map<int, IEC104WF::stPointTable, std::less<int>, std::allocator<std::pair<const int, IEC104WF::stPointTable> > >, std::less<int>, std::allocator<std::pair<const int, std::map<int, IEC104WF::stPointTable, std::less<int>, std::allocator<std::pair<const int, IEC104WF::stPointTable> > > > > > > > >::_M_insert_unique_
FUNC 32992 12 0 std::_Rb_tree<int, std::pair<const int, std::map<int, IEC104WF::stPointTable, std::less<int>, std::allocator<std::pair<const int, IEC104WF::stPointTable> > > >, std::_Select1st<std::pair<const int, std::map<int, IEC104WF::stPointTable, std::less<int>, std::allocator<std::pair<const int, IEC104WF::stPointTable> > > > >, std::less<int>, std::allocator<std::pair<const int, std::map<int, IEC104WF::stPointTable, std::less<int>, std::allocator<std::pair<const int, IEC104WF::stPointTable> > > > > >::_M_root
FUNC 329a4 169 0 std::_Rb_tree<int, std::pair<const int, std::map<int, IEC104WF::stPointTable, std::less<int>, std::allocator<std::pair<const int, IEC104WF::stPointTable> > > >, std::_Select1st<std::pair<const int, std::map<int, IEC104WF::stPointTable, std::less<int>, std::allocator<std::pair<const int, IEC104WF::stPointTable> > > > >, std::less<int>, std::allocator<std::pair<const int, std::map<int, IEC104WF::stPointTable, std::less<int>, std::allocator<std::pair<const int, IEC104WF::stPointTable> > > > > >::_M_copy
FUNC 32b0e 12 0 std::_Rb_tree<int, std::pair<const int, std::map<int, IEC104WF::stPointTable, std::less<int>, std::allocator<std::pair<const int, IEC104WF::stPointTable> > > >, std::_Select1st<std::pair<const int, std::map<int, IEC104WF::stPointTable, std::less<int>, std::allocator<std::pair<const int, IEC104WF::stPointTable> > > > >, std::less<int>, std::allocator<std::pair<const int, std::map<int, IEC104WF::stPointTable, std::less<int>, std::allocator<std::pair<const int, IEC104WF::stPointTable> > > > > >::_M_begin
FUNC 32b20 1a 0 std::_Rb_tree<int, std::pair<const int, std::map<int, IEC104WF::stPointTable, std::less<int>, std::allocator<std::pair<const int, IEC104WF::stPointTable> > > >, std::_Select1st<std::pair<const int, std::map<int, IEC104WF::stPointTable, std::less<int>, std::allocator<std::pair<const int, IEC104WF::stPointTable> > > > >, std::less<int>, std::allocator<std::pair<const int, std::map<int, IEC104WF::stPointTable, std::less<int>, std::allocator<std::pair<const int, IEC104WF::stPointTable> > > > > >::_S_minimum
FUNC 32b3a 1a 0 std::_Rb_tree<int, std::pair<const int, std::map<int, IEC104WF::stPointTable, std::less<int>, std::allocator<std::pair<const int, IEC104WF::stPointTable> > > >, std::_Select1st<std::pair<const int, std::map<int, IEC104WF::stPointTable, std::less<int>, std::allocator<std::pair<const int, IEC104WF::stPointTable> > > > >, std::less<int>, std::allocator<std::pair<const int, std::map<int, IEC104WF::stPointTable, std::less<int>, std::allocator<std::pair<const int, IEC104WF::stPointTable> > > > > >::_S_maximum
FUNC 32b54 53 0 std::_Rb_tree<std::basic_string<char, std::char_traits<char>, std::allocator<char> >, std::pair<const std::basic_string<char, std::char_traits<char>, std::allocator<char> >, IEC103::stConfigParam>, std::_Select1st<std::pair<const std::basic_string<char, std::char_traits<char>, std::allocator<char> >, IEC103::stConfigParam> >, std::less<std::basic_string<char, std::char_traits<char>, std::allocator<char> > >, std::allocator<std::pair<const std::basic_string<char, std::char_traits<char>, std::allocator<char> >, IEC103::stConfigParam> > >::lower_bound
FUNC 32ba8 a 0 std::_Rb_tree<std::basic_string<char, std::char_traits<char>, std::allocator<char> >, std::pair<const std::basic_string<char, std::char_traits<char>, std::allocator<char> >, IEC103::stConfigParam>, std::_Select1st<std::pair<const std::basic_string<char, std::char_traits<char>, std::allocator<char> >, IEC103::stConfigParam> >, std::less<std::basic_string<char, std::char_traits<char>, std::allocator<char> > >, std::allocator<std::pair<const std::basic_string<char, std::char_traits<char>, std::allocator<char> >, IEC103::stConfigParam> > >::key_comp
FUNC 32bb2 1c 0 std::_Rb_tree_const_iterator<std::pair<const std::basic_string<char, std::char_traits<char>, std::allocator<char> >, IEC103::stConfigParam> >::_Rb_tree_const_iterator
FUNC 32bce 4c0 0 std::_Rb_tree<std::basic_string<char, std::char_traits<char>, std::allocator<char> >, std::pair<const std::basic_string<char, std::char_traits<char>, std::allocator<char> >, IEC103::stConfigParam>, std::_Select1st<std::pair<const std::basic_string<char, std::char_traits<char>, std::allocator<char> >, IEC103::stConfigParam> >, std::less<std::basic_string<char, std::char_traits<char>, std::allocator<char> > >, std::allocator<std::pair<const std::basic_string<char, std::char_traits<char>, std::allocator<char> >, IEC103::stConfigParam> > >::_M_insert_unique_
FUNC 3308e 53 0 std::_Rb_tree<std::basic_string<char, std::char_traits<char>, std::allocator<char> >, std::pair<const std::basic_string<char, std::char_traits<char>, std::allocator<char> >, std::map<std::basic_string<char, std::char_traits<char>, std::allocator<char> >, std::basic_string<char, std::char_traits<char>, std::allocator<char> >, std::less<std::basic_string<char, std::char_traits<char>, std::allocator<char> > >, std::allocator<std::pair<const std::basic_string<char, std::char_traits<char>, std::allocator<char> >, std::basic_string<char, std::char_traits<char>, std::allocator<char> > > > > >, std::_Select1st<std::pair<const std::basic_string<char, std::char_traits<char>, std::allocator<char> >, std::map<std::basic_string<char, std::char_traits<char>, std::allocator<char> >, std::basic_string<char, std::char_traits<char>, std::allocator<char> >, std::less<std::basic_string<char, std::char_traits<char>, std::allocator<char> > >, std::allocator<std::pair<const std::basic_string<char, std::char_traits<char>, std::allocator<char> >, std::basic_string<char, std::char_traits<char>, std::allocator<char> > > > > > >, std::less<std::basic_string<char, std::char_traits<char>, std::allocator<char> > >, std::allocator<std::pair<const std::basic_string<char, std::char_traits<char>, std::allocator<char> >, std::map<std::basic_string<char, std::char_traits<char>, std::allocator<char> >, std::basic_string<char, std::char_traits<char>, std::allocator<char> >, std::less<std::basic_string<char, std::char_traits<char>, std::allocator<char> > >, std::allocator<std::pair<const std::basic_string<char, std::char_traits<char>, std::allocator<char> >, std::basic_string<char, std::char_traits<char>, std::allocator<char> > > > > > > >::lower_bound
FUNC 330e2 a 0 std::_Rb_tree<std::basic_string<char, std::char_traits<char>, std::allocator<char> >, std::pair<const std::basic_string<char, std::char_traits<char>, std::allocator<char> >, std::map<std::basic_string<char, std::char_traits<char>, std::allocator<char> >, std::basic_string<char, std::char_traits<char>, std::allocator<char> >, std::less<std::basic_string<char, std::char_traits<char>, std::allocator<char> > >, std::allocator<std::pair<const std::basic_string<char, std::char_traits<char>, std::allocator<char> >, std::basic_string<char, std::char_traits<char>, std::allocator<char> > > > > >, std::_Select1st<std::pair<const std::basic_string<char, std::char_traits<char>, std::allocator<char> >, std::map<std::basic_string<char, std::char_traits<char>, std::allocator<char> >, std::basic_string<char, std::char_traits<char>, std::allocator<char> >, std::less<std::basic_string<char, std::char_traits<char>, std::allocator<char> > >, std::allocator<std::pair<const std::basic_string<char, std::char_traits<char>, std::allocator<char> >, std::basic_string<char, std::char_traits<char>, std::allocator<char> > > > > > >, std::less<std::basic_string<char, std::char_traits<char>, std::allocator<char> > >, std::allocator<std::pair<const std::basic_string<char, std::char_traits<char>, std::allocator<char> >, std::map<std::basic_string<char, std::char_traits<char>, std::allocator<char> >, std::basic_string<char, std::char_traits<char>, std::allocator<char> >, std::less<std::basic_string<char, std::char_traits<char>, std::allocator<char> > >, std::allocator<std::pair<const std::basic_string<char, std::char_traits<char>, std::allocator<char> >, std::basic_string<char, std::char_traits<char>, std::allocator<char> > > > > > > >::key_comp
FUNC 330ec 2c 0 std::_Rb_tree<std::basic_string<char, std::char_traits<char>, std::allocator<char> >, std::pair<const std::basic_string<char, std::char_traits<char>, std::allocator<char> >, std::map<std::basic_string<char, std::char_traits<char>, std::allocator<char> >, std::basic_string<char, std::char_traits<char>, std::allocator<char> >, std::less<std::basic_string<char, std::char_traits<char>, std::allocator<char> > >, std::allocator<std::pair<const std::basic_string<char, std::char_traits<char>, std::allocator<char> >, std::basic_string<char, std::char_traits<char>, std::allocator<char> > > > > >, std::_Select1st<std::pair<const std::basic_string<char, std::char_traits<char>, std::allocator<char> >, std::map<std::basic_string<char, std::char_traits<char>, std::allocator<char> >, std::basic_string<char, std::char_traits<char>, std::allocator<char> >, std::less<std::basic_string<char, std::char_traits<char>, std::allocator<char> > >, std::allocator<std::pair<const std::basic_string<char, std::char_traits<char>, std::allocator<char> >, std::basic_string<char, std::char_traits<char>, std::allocator<char> > > > > > >, std::less<std::basic_string<char, std::char_traits<char>, std::allocator<char> > >, std::allocator<std::pair<const std::basic_string<char, std::char_traits<char>, std::allocator<char> >, std::map<std::basic_string<char, std::char_traits<char>, std::allocator<char> >, std::basic_string<char, std::char_traits<char>, std::allocator<char> >, std::less<std::basic_string<char, std::char_traits<char>, std::allocator<char> > >, std::allocator<std::pair<const std::basic_string<char, std::char_traits<char>, std::allocator<char> >, std::basic_string<char, std::char_traits<char>, std::allocator<char> > > > > > > >::end
FUNC 33118 1c 0 std::_Rb_tree_const_iterator<std::pair<const std::basic_string<char, std::char_traits<char>, std::allocator<char> >, std::map<std::basic_string<char, std::char_traits<char>, std::allocator<char> >, std::basic_string<char, std::char_traits<char>, std::allocator<char> >, std::less<std::basic_string<char, std::char_traits<char>, std::allocator<char> > >, std::allocator<std::pair<const std::basic_string<char, std::char_traits<char>, std::allocator<char> >, std::basic_string<char, std::char_traits<char>, std::allocator<char> > > > > > >::_Rb_tree_const_iterator
FUNC 33134 4c0 0 std::_Rb_tree<std::basic_string<char, std::char_traits<char>, std::allocator<char> >, std::pair<const std::basic_string<char, std::char_traits<char>, std::allocator<char> >, std::map<std::basic_string<char, std::char_traits<char>, std::allocator<char> >, std::basic_string<char, std::char_traits<char>, std::allocator<char> >, std::less<std::basic_string<char, std::char_traits<char>, std::allocator<char> > >, std::allocator<std::pair<const std::basic_string<char, std::char_traits<char>, std::allocator<char> >, std::basic_string<char, std::char_traits<char>, std::allocator<char> > > > > >, std::_Select1st<std::pair<const std::basic_string<char, std::char_traits<char>, std::allocator<char> >, std::map<std::basic_string<char, std::char_traits<char>, std::allocator<char> >, std::basic_string<char, std::char_traits<char>, std::allocator<char> >, std::less<std::basic_string<char, std::char_traits<char>, std::allocator<char> > >, std::allocator<std::pair<const std::basic_string<char, std::char_traits<char>, std::allocator<char> >, std::basic_string<char, std::char_traits<char>, std::allocator<char> > > > > > >, std::less<std::basic_string<char, std::char_traits<char>, std::allocator<char> > >, std::allocator<std::pair<const std::basic_string<char, std::char_traits<char>, std::allocator<char> >, std::map<std::basic_string<char, std::char_traits<char>, std::allocator<char> >, std::basic_string<char, std::char_traits<char>, std::allocator<char> >, std::less<std::basic_string<char, std::char_traits<char>, std::allocator<char> > >, std::allocator<std::pair<const std::basic_string<char, std::char_traits<char>, std::allocator<char> >, std::basic_string<char, std::char_traits<char>, std::allocator<char> > > > > > > >::_M_insert_unique_
FUNC 335f4 19 0 std::_List_iterator<std::basic_string<char, std::char_traits<char>, std::allocator<char> > >::_List_iterator
FUNC 3360e bb 0 std::list<std::basic_string<char, std::char_traits<char>, std::allocator<char> >, std::allocator<std::basic_string<char, std::char_traits<char>, std::allocator<char> > > >::_M_create_node
FUNC 336ca 1a 0 std::allocator<std::_Rb_tree_node<std::pair<const std::basic_string<char, std::char_traits<char>, std::allocator<char> >, IEC61850_STRUCT::IED_61850> > >::allocator
FUNC 336e4 41 0 std::_Rb_tree<std::basic_string<char, std::char_traits<char>, std::allocator<char> >, std::pair<const std::basic_string<char, std::char_traits<char>, std::allocator<char> >, IEC61850_STRUCT::IED_61850>, std::_Select1st<std::pair<const std::basic_string<char, std::char_traits<char>, std::allocator<char> >, IEC61850_STRUCT::IED_61850> >, std::less<std::basic_string<char, std::char_traits<char>, std::allocator<char> > >, std::allocator<std::pair<const std::basic_string<char, std::char_traits<char>, std::allocator<char> >, IEC61850_STRUCT::IED_61850> > >::_Rb_tree_impl<std::less<std::basic_string<char, std::char_traits<char>, std::allocator<char> > >, false>::_M_initialize
FUNC 33726 3b 0 std::_Rb_tree<std::basic_string<char, std::char_traits<char>, std::allocator<char> >, std::pair<const std::basic_string<char, std::char_traits<char>, std::allocator<char> >, IEC61850_STRUCT::IED_61850>, std::_Select1st<std::pair<const std::basic_string<char, std::char_traits<char>, std::allocator<char> >, IEC61850_STRUCT::IED_61850> >, std::less<std::basic_string<char, std::char_traits<char>, std::allocator<char> > >, std::allocator<std::pair<const std::basic_string<char, std::char_traits<char>, std::allocator<char> >, IEC61850_STRUCT::IED_61850> > >::get_allocator
FUNC 33762 1a 0 std::allocator<std::pair<const std::basic_string<char, std::char_traits<char>, std::allocator<char> >, IEC61850_STRUCT::IED_61850> >::~allocator
FUNC 3377c 1e 0 __gnu_cxx::new_allocator<std::pair<const std::basic_string<char, std::char_traits<char>, std::allocator<char> >, IEC61850_STRUCT::IED_61850> >::destroy
FUNC 3379a 2a 0 std::_Rb_tree<std::basic_string<char, std::char_traits<char>, std::allocator<char> >, std::pair<const std::basic_string<char, std::char_traits<char>, std::allocator<char> >, IEC61850_STRUCT::IED_61850>, std::_Select1st<std::pair<const std::basic_string<char, std::char_traits<char>, std::allocator<char> >, IEC61850_STRUCT::IED_61850> >, std::less<std::basic_string<char, std::char_traits<char>, std::allocator<char> > >, std::allocator<std::pair<const std::basic_string<char, std::char_traits<char>, std::allocator<char> >, IEC61850_STRUCT::IED_61850> > >::_M_put_node
FUNC 337c4 1a 0 std::allocator<std::_List_node<std::basic_string<char, std::char_traits<char>, std::allocator<char> > > >::allocator
FUNC 337de 25 0 std::allocator<std::basic_string<char, std::char_traits<char>, std::allocator<char> > >::allocator
FUNC 33804 22 0 __gnu_cxx::new_allocator<std::_List_node<std::basic_string<char, std::char_traits<char>, std::allocator<char> > > >::deallocate
FUNC 33826 1a 0 std::allocator<std::_Rb_tree_node<std::pair<const std::basic_string<char, std::char_traits<char>, std::allocator<char> >, std::map<int, std::map<int, IEC104WF::stPointTable, std::less<int>, std::allocator<std::pair<const int, IEC104WF::stPointTable> > >, std::less<int>, std::allocator<std::pair<const int, std::map<int, IEC104WF::stPointTable, std::less<int>, std::allocator<std::pair<const int, IEC104WF::stPointTable> > > > > > > > >::allocator
FUNC 33840 41 0 std::_Rb_tree<std::basic_string<char, std::char_traits<char>, std::allocator<char> >, std::pair<const std::basic_string<char, std::char_traits<char>, std::allocator<char> >, std::map<int, std::map<int, IEC104WF::stPointTable, std::less<int>, std::allocator<std::pair<const int, IEC104WF::stPointTable> > >, std::less<int>, std::allocator<std::pair<const int, std::map<int, IEC104WF::stPointTable, std::less<int>, std::allocator<std::pair<const int, IEC104WF::stPointTable> > > > > > >, std::_Select1st<std::pair<const std::basic_string<char, std::char_traits<char>, std::allocator<char> >, std::map<int, std::map<int, IEC104WF::stPointTable, std::less<int>, std::allocator<std::pair<const int, IEC104WF::stPointTable> > >, std::less<int>, std::allocator<std::pair<const int, std::map<int, IEC104WF::stPointTable, std::less<int>, std::allocator<std::pair<const int, IEC104WF::stPointTable> > > > > > > >, std::less<std::basic_string<char, std::char_traits<char>, std::allocator<char> > >, std::allocator<std::pair<const std::basic_string<char, std::char_traits<char>, std::allocator<char> >, std::map<int, std::map<int, IEC104WF::stPointTable, std::less<int>, std::allocator<std::pair<const int, IEC104WF::stPointTable> > >, std::less<int>, std::allocator<std::pair<const int, std::map<int, IEC104WF::stPointTable, std::less<int>, std::allocator<std::pair<const int, IEC104WF::stPointTable> > > > > > > > >::_Rb_tree_impl<std::less<std::basic_string<char, std::char_traits<char>, std::allocator<char> > >, false>::_M_initialize
FUNC 33882 3b 0 std::_Rb_tree<std::basic_string<char, std::char_traits<char>, std::allocator<char> >, std::pair<const std::basic_string<char, std::char_traits<char>, std::allocator<char> >, std::map<int, std::map<int, IEC104WF::stPointTable, std::less<int>, std::allocator<std::pair<const int, IEC104WF::stPointTable> > >, std::less<int>, std::allocator<std::pair<const int, std::map<int, IEC104WF::stPointTable, std::less<int>, std::allocator<std::pair<const int, IEC104WF::stPointTable> > > > > > >, std::_Select1st<std::pair<const std::basic_string<char, std::char_traits<char>, std::allocator<char> >, std::map<int, std::map<int, IEC104WF::stPointTable, std::less<int>, std::allocator<std::pair<const int, IEC104WF::stPointTable> > >, std::less<int>, std::allocator<std::pair<const int, std::map<int, IEC104WF::stPointTable, std::less<int>, std::allocator<std::pair<const int, IEC104WF::stPointTable> > > > > > > >, std::less<std::basic_string<char, std::char_traits<char>, std::allocator<char> > >, std::allocator<std::pair<const std::basic_string<char, std::char_traits<char>, std::allocator<char> >, std::map<int, std::map<int, IEC104WF::stPointTable, std::less<int>, std::allocator<std::pair<const int, IEC104WF::stPointTable> > >, std::less<int>, std::allocator<std::pair<const int, std::map<int, IEC104WF::stPointTable, std::less<int>, std::allocator<std::pair<const int, IEC104WF::stPointTable> > > > > > > > >::get_allocator
FUNC 338be 1a 0 std::allocator<std::pair<const std::basic_string<char, std::char_traits<char>, std::allocator<char> >, std::map<int, std::map<int, IEC104WF::stPointTable, std::less<int>, std::allocator<std::pair<const int, IEC104WF::stPointTable> > >, std::less<int>, std::allocator<std::pair<const int, std::map<int, IEC104WF::stPointTable, std::less<int>, std::allocator<std::pair<const int, IEC104WF::stPointTable> > > > > > > >::~allocator
FUNC 338d8 1e 0 __gnu_cxx::new_allocator<std::pair<const std::basic_string<char, std::char_traits<char>, std::allocator<char> >, std::map<int, std::map<int, IEC104WF::stPointTable, std::less<int>, std::allocator<std::pair<const int, IEC104WF::stPointTable> > >, std::less<int>, std::allocator<std::pair<const int, std::map<int, IEC104WF::stPointTable, std::less<int>, std::allocator<std::pair<const int, IEC104WF::stPointTable> > > > > > > >::destroy
FUNC 338f6 2a 0 std::_Rb_tree<std::basic_string<char, std::char_traits<char>, std::allocator<char> >, std::pair<const std::basic_string<char, std::char_traits<char>, std::allocator<char> >, std::map<int, std::map<int, IEC104WF::stPointTable, std::less<int>, std::allocator<std::pair<const int, IEC104WF::stPointTable> > >, std::less<int>, std::allocator<std::pair<const int, std::map<int, IEC104WF::stPointTable, std::less<int>, std::allocator<std::pair<const int, IEC104WF::stPointTable> > > > > > >, std::_Select1st<std::pair<const std::basic_string<char, std::char_traits<char>, std::allocator<char> >, std::map<int, std::map<int, IEC104WF::stPointTable, std::less<int>, std::allocator<std::pair<const int, IEC104WF::stPointTable> > >, std::less<int>, std::allocator<std::pair<const int, std::map<int, IEC104WF::stPointTable, std::less<int>, std::allocator<std::pair<const int, IEC104WF::stPointTable> > > > > > > >, std::less<std::basic_string<char, std::char_traits<char>, std::allocator<char> > >, std::allocator<std::pair<const std::basic_string<char, std::char_traits<char>, std::allocator<char> >, std::map<int, std::map<int, IEC104WF::stPointTable, std::less<int>, std::allocator<std::pair<const int, IEC104WF::stPointTable> > >, std::less<int>, std::allocator<std::pair<const int, std::map<int, IEC104WF::stPointTable, std::less<int>, std::allocator<std::pair<const int, IEC104WF::stPointTable> > > > > > > > >::_M_put_node
FUNC 33920 1a 0 std::allocator<std::_Rb_tree_node<std::pair<const int, std::map<int, IEC104WF::stPointTable, std::less<int>, std::allocator<std::pair<const int, IEC104WF::stPointTable> > > > > >::allocator
FUNC 3393a 41 0 std::_Rb_tree<int, std::pair<const int, std::map<int, IEC104WF::stPointTable, std::less<int>, std::allocator<std::pair<const int, IEC104WF::stPointTable> > > >, std::_Select1st<std::pair<const int, std::map<int, IEC104WF::stPointTable, std::less<int>, std::allocator<std::pair<const int, IEC104WF::stPointTable> > > > >, std::less<int>, std::allocator<std::pair<const int, std::map<int, IEC104WF::stPointTable, std::less<int>, std::allocator<std::pair<const int, IEC104WF::stPointTable> > > > > >::_Rb_tree_impl<std::less<int>, false>::_M_initialize
FUNC 3397c 3b 0 std::_Rb_tree<int, std::pair<const int, std::map<int, IEC104WF::stPointTable, std::less<int>, std::allocator<std::pair<const int, IEC104WF::stPointTable> > > >, std::_Select1st<std::pair<const int, std::map<int, IEC104WF::stPointTable, std::less<int>, std::allocator<std::pair<const int, IEC104WF::stPointTable> > > > >, std::less<int>, std::allocator<std::pair<const int, std::map<int, IEC104WF::stPointTable, std::less<int>, std::allocator<std::pair<const int, IEC104WF::stPointTable> > > > > >::get_allocator
FUNC 339b8 1a 0 std::allocator<std::pair<const int, std::map<int, IEC104WF::stPointTable, std::less<int>, std::allocator<std::pair<const int, IEC104WF::stPointTable> > > > >::~allocator
FUNC 339d2 1e 0 __gnu_cxx::new_allocator<std::pair<const int, std::map<int, IEC104WF::stPointTable, std::less<int>, std::allocator<std::pair<const int, IEC104WF::stPointTable> > > > >::destroy
FUNC 339f0 2a 0 std::_Rb_tree<int, std::pair<const int, std::map<int, IEC104WF::stPointTable, std::less<int>, std::allocator<std::pair<const int, IEC104WF::stPointTable> > > >, std::_Select1st<std::pair<const int, std::map<int, IEC104WF::stPointTable, std::less<int>, std::allocator<std::pair<const int, IEC104WF::stPointTable> > > > >, std::less<int>, std::allocator<std::pair<const int, std::map<int, IEC104WF::stPointTable, std::less<int>, std::allocator<std::pair<const int, IEC104WF::stPointTable> > > > > >::_M_put_node
FUNC 33a1a 1a 0 std::allocator<std::_Rb_tree_node<std::pair<const int, IEC104WF::stPointTable> > >::allocator
FUNC 33a34 41 0 std::_Rb_tree<int, std::pair<const int, IEC104WF::stPointTable>, std::_Select1st<std::pair<const int, IEC104WF::stPointTable> >, std::less<int>, std::allocator<std::pair<const int, IEC104WF::stPointTable> > >::_Rb_tree_impl<std::less<int>, false>::_M_initialize
FUNC 33a76 3b 0 std::_Rb_tree<int, std::pair<const int, IEC104WF::stPointTable>, std::_Select1st<std::pair<const int, IEC104WF::stPointTable> >, std::less<int>, std::allocator<std::pair<const int, IEC104WF::stPointTable> > >::get_allocator
FUNC 33ab2 1a 0 std::allocator<std::pair<const int, IEC104WF::stPointTable> >::~allocator
FUNC 33acc 1e 0 __gnu_cxx::new_allocator<std::pair<const int, IEC104WF::stPointTable> >::destroy
FUNC 33aea 2a 0 std::_Rb_tree<int, std::pair<const int, IEC104WF::stPointTable>, std::_Select1st<std::pair<const int, IEC104WF::stPointTable> >, std::less<int>, std::allocator<std::pair<const int, IEC104WF::stPointTable> > >::_M_put_node
FUNC 33b14 1a 0 std::allocator<std::_Rb_tree_node<std::pair<const std::basic_string<char, std::char_traits<char>, std::allocator<char> >, IEC103::stConfigParam> > >::allocator
FUNC 33b2e 41 0 std::_Rb_tree<std::basic_string<char, std::char_traits<char>, std::allocator<char> >, std::pair<const std::basic_string<char, std::char_traits<char>, std::allocator<char> >, IEC103::stConfigParam>, std::_Select1st<std::pair<const std::basic_string<char, std::char_traits<char>, std::allocator<char> >, IEC103::stConfigParam> >, std::less<std::basic_string<char, std::char_traits<char>, std::allocator<char> > >, std::allocator<std::pair<const std::basic_string<char, std::char_traits<char>, std::allocator<char> >, IEC103::stConfigParam> > >::_Rb_tree_impl<std::less<std::basic_string<char, std::char_traits<char>, std::allocator<char> > >, false>::_M_initialize
FUNC 33b70 1a 0 std::allocator<std::_Rb_tree_node<std::pair<const std::basic_string<char, std::char_traits<char>, std::allocator<char> >, std::map<std::basic_string<char, std::char_traits<char>, std::allocator<char> >, std::basic_string<char, std::char_traits<char>, std::allocator<char> >, std::less<std::basic_string<char, std::char_traits<char>, std::allocator<char> > >, std::allocator<std::pair<const std::basic_string<char, std::char_traits<char>, std::allocator<char> >, std::basic_string<char, std::char_traits<char>, std::allocator<char> > > > > > > >::allocator
FUNC 33b8a 41 0 std::_Rb_tree<std::basic_string<char, std::char_traits<char>, std::allocator<char> >, std::pair<const std::basic_string<char, std::char_traits<char>, std::allocator<char> >, std::map<std::basic_string<char, std::char_traits<char>, std::allocator<char> >, std::basic_string<char, std::char_traits<char>, std::allocator<char> >, std::less<std::basic_string<char, std::char_traits<char>, std::allocator<char> > >, std::allocator<std::pair<const std::basic_string<char, std::char_traits<char>, std::allocator<char> >, std::basic_string<char, std::char_traits<char>, std::allocator<char> > > > > >, std::_Select1st<std::pair<const std::basic_string<char, std::char_traits<char>, std::allocator<char> >, std::map<std::basic_string<char, std::char_traits<char>, std::allocator<char> >, std::basic_string<char, std::char_traits<char>, std::allocator<char> >, std::less<std::basic_string<char, std::char_traits<char>, std::allocator<char> > >, std::allocator<std::pair<const std::basic_string<char, std::char_traits<char>, std::allocator<char> >, std::basic_string<char, std::char_traits<char>, std::allocator<char> > > > > > >, std::less<std::basic_string<char, std::char_traits<char>, std::allocator<char> > >, std::allocator<std::pair<const std::basic_string<char, std::char_traits<char>, std::allocator<char> >, std::map<std::basic_string<char, std::char_traits<char>, std::allocator<char> >, std::basic_string<char, std::char_traits<char>, std::allocator<char> >, std::less<std::basic_string<char, std::char_traits<char>, std::allocator<char> > >, std::allocator<std::pair<const std::basic_string<char, std::char_traits<char>, std::allocator<char> >, std::basic_string<char, std::char_traits<char>, std::allocator<char> > > > > > > >::_Rb_tree_impl<std::less<std::basic_string<char, std::char_traits<char>, std::allocator<char> > >, false>::_M_initialize
FUNC 33bcc 3b 0 std::_Rb_tree<std::basic_string<char, std::char_traits<char>, std::allocator<char> >, std::pair<const std::basic_string<char, std::char_traits<char>, std::allocator<char> >, std::map<std::basic_string<char, std::char_traits<char>, std::allocator<char> >, std::basic_string<char, std::char_traits<char>, std::allocator<char> >, std::less<std::basic_string<char, std::char_traits<char>, std::allocator<char> > >, std::allocator<std::pair<const std::basic_string<char, std::char_traits<char>, std::allocator<char> >, std::basic_string<char, std::char_traits<char>, std::allocator<char> > > > > >, std::_Select1st<std::pair<const std::basic_string<char, std::char_traits<char>, std::allocator<char> >, std::map<std::basic_string<char, std::char_traits<char>, std::allocator<char> >, std::basic_string<char, std::char_traits<char>, std::allocator<char> >, std::less<std::basic_string<char, std::char_traits<char>, std::allocator<char> > >, std::allocator<std::pair<const std::basic_string<char, std::char_traits<char>, std::allocator<char> >, std::basic_string<char, std::char_traits<char>, std::allocator<char> > > > > > >, std::less<std::basic_string<char, std::char_traits<char>, std::allocator<char> > >, std::allocator<std::pair<const std::basic_string<char, std::char_traits<char>, std::allocator<char> >, std::map<std::basic_string<char, std::char_traits<char>, std::allocator<char> >, std::basic_string<char, std::char_traits<char>, std::allocator<char> >, std::less<std::basic_string<char, std::char_traits<char>, std::allocator<char> > >, std::allocator<std::pair<const std::basic_string<char, std::char_traits<char>, std::allocator<char> >, std::basic_string<char, std::char_traits<char>, std::allocator<char> > > > > > > >::get_allocator
FUNC 33c08 1a 0 std::allocator<std::pair<const std::basic_string<char, std::char_traits<char>, std::allocator<char> >, std::map<std::basic_string<char, std::char_traits<char>, std::allocator<char> >, std::basic_string<char, std::char_traits<char>, std::allocator<char> >, std::less<std::basic_string<char, std::char_traits<char>, std::allocator<char> > >, std::allocator<std::pair<const std::basic_string<char, std::char_traits<char>, std::allocator<char> >, std::basic_string<char, std::char_traits<char>, std::allocator<char> > > > > > >::~allocator
FUNC 33c22 1e 0 __gnu_cxx::new_allocator<std::pair<const std::basic_string<char, std::char_traits<char>, std::allocator<char> >, std::map<std::basic_string<char, std::char_traits<char>, std::allocator<char> >, std::basic_string<char, std::char_traits<char>, std::allocator<char> >, std::less<std::basic_string<char, std::char_traits<char>, std::allocator<char> > >, std::allocator<std::pair<const std::basic_string<char, std::char_traits<char>, std::allocator<char> >, std::basic_string<char, std::char_traits<char>, std::allocator<char> > > > > > >::destroy
FUNC 33c40 2a 0 std::_Rb_tree<std::basic_string<char, std::char_traits<char>, std::allocator<char> >, std::pair<const std::basic_string<char, std::char_traits<char>, std::allocator<char> >, std::map<std::basic_string<char, std::char_traits<char>, std::allocator<char> >, std::basic_string<char, std::char_traits<char>, std::allocator<char> >, std::less<std::basic_string<char, std::char_traits<char>, std::allocator<char> > >, std::allocator<std::pair<const std::basic_string<char, std::char_traits<char>, std::allocator<char> >, std::basic_string<char, std::char_traits<char>, std::allocator<char> > > > > >, std::_Select1st<std::pair<const std::basic_string<char, std::char_traits<char>, std::allocator<char> >, std::map<std::basic_string<char, std::char_traits<char>, std::allocator<char> >, std::basic_string<char, std::char_traits<char>, std::allocator<char> >, std::less<std::basic_string<char, std::char_traits<char>, std::allocator<char> > >, std::allocator<std::pair<const std::basic_string<char, std::char_traits<char>, std::allocator<char> >, std::basic_string<char, std::char_traits<char>, std::allocator<char> > > > > > >, std::less<std::basic_string<char, std::char_traits<char>, std::allocator<char> > >, std::allocator<std::pair<const std::basic_string<char, std::char_traits<char>, std::allocator<char> >, std::map<std::basic_string<char, std::char_traits<char>, std::allocator<char> >, std::basic_string<char, std::char_traits<char>, std::allocator<char> >, std::less<std::basic_string<char, std::char_traits<char>, std::allocator<char> > >, std::allocator<std::pair<const std::basic_string<char, std::char_traits<char>, std::allocator<char> >, std::basic_string<char, std::char_traits<char>, std::allocator<char> > > > > > > >::_M_put_node
FUNC 33c6a 25 0 std::allocator<std::_Rb_tree_node<std::pair<const std::basic_string<char, std::char_traits<char>, std::allocator<char> >, std::basic_string<char, std::char_traits<char>, std::allocator<char> > > > >::allocator
FUNC 33c90 55 0 std::_Rb_tree<std::basic_string<char, std::char_traits<char>, std::allocator<char> >, std::pair<const std::basic_string<char, std::char_traits<char>, std::allocator<char> >, std::basic_string<char, std::char_traits<char>, std::allocator<char> > >, std::_Select1st<std::pair<const std::basic_string<char, std::char_traits<char>, std::allocator<char> >, std::basic_string<char, std::char_traits<char>, std::allocator<char> > > >, std::less<std::basic_string<char, std::char_traits<char>, std::allocator<char> > >, std::allocator<std::pair<const std::basic_string<char, std::char_traits<char>, std::allocator<char> >, std::basic_string<char, std::char_traits<char>, std::allocator<char> > > > >::_M_clone_node
FUNC 33ce5 12 0 std::_Rb_tree<std::basic_string<char, std::char_traits<char>, std::allocator<char> >, std::pair<const std::basic_string<char, std::char_traits<char>, std::allocator<char> >, std::basic_string<char, std::char_traits<char>, std::allocator<char> > >, std::_Select1st<std::pair<const std::basic_string<char, std::char_traits<char>, std::allocator<char> >, std::basic_string<char, std::char_traits<char>, std::allocator<char> > > >, std::less<std::basic_string<char, std::char_traits<char>, std::allocator<char> > >, std::allocator<std::pair<const std::basic_string<char, std::char_traits<char>, std::allocator<char> >, std::basic_string<char, std::char_traits<char>, std::allocator<char> > > > >::_S_left
FUNC 33cf8 25 0 std::allocator<std::_Rb_tree_node<std::pair<const std::basic_string<char, std::char_traits<char>, std::allocator<char> >, IEC61850_STRUCT::IED_61850> > >::allocator
FUNC 33d1e 55 0 std::_Rb_tree<std::basic_string<char, std::char_traits<char>, std::allocator<char> >, std::pair<const std::basic_string<char, std::char_traits<char>, std::allocator<char> >, IEC61850_STRUCT::IED_61850>, std::_Select1st<std::pair<const std::basic_string<char, std::char_traits<char>, std::allocator<char> >, IEC61850_STRUCT::IED_61850> >, std::less<std::basic_string<char, std::char_traits<char>, std::allocator<char> > >, std::allocator<std::pair<const std::basic_string<char, std::char_traits<char>, std::allocator<char> >, IEC61850_STRUCT::IED_61850> > >::_M_clone_node
FUNC 33d73 12 0 std::_Rb_tree<std::basic_string<char, std::char_traits<char>, std::allocator<char> >, std::pair<const std::basic_string<char, std::char_traits<char>, std::allocator<char> >, IEC61850_STRUCT::IED_61850>, std::_Select1st<std::pair<const std::basic_string<char, std::char_traits<char>, std::allocator<char> >, IEC61850_STRUCT::IED_61850> >, std::less<std::basic_string<char, std::char_traits<char>, std::allocator<char> > >, std::allocator<std::pair<const std::basic_string<char, std::char_traits<char>, std::allocator<char> >, IEC61850_STRUCT::IED_61850> > >::_S_right
FUNC 33d85 12 0 std::_Rb_tree<std::basic_string<char, std::char_traits<char>, std::allocator<char> >, std::pair<const std::basic_string<char, std::char_traits<char>, std::allocator<char> >, IEC61850_STRUCT::IED_61850>, std::_Select1st<std::pair<const std::basic_string<char, std::char_traits<char>, std::allocator<char> >, IEC61850_STRUCT::IED_61850> >, std::less<std::basic_string<char, std::char_traits<char>, std::allocator<char> > >, std::allocator<std::pair<const std::basic_string<char, std::char_traits<char>, std::allocator<char> >, IEC61850_STRUCT::IED_61850> > >::_S_left
FUNC 33d98 25 0 std::allocator<std::_Rb_tree_node<std::pair<const std::basic_string<char, std::char_traits<char>, std::allocator<char> >, IEC103::stConfigParam> > >::allocator
FUNC 33dbe 55 0 std::_Rb_tree<std::basic_string<char, std::char_traits<char>, std::allocator<char> >, std::pair<const std::basic_string<char, std::char_traits<char>, std::allocator<char> >, IEC103::stConfigParam>, std::_Select1st<std::pair<const std::basic_string<char, std::char_traits<char>, std::allocator<char> >, IEC103::stConfigParam> >, std::less<std::basic_string<char, std::char_traits<char>, std::allocator<char> > >, std::allocator<std::pair<const std::basic_string<char, std::char_traits<char>, std::allocator<char> >, IEC103::stConfigParam> > >::_M_clone_node
FUNC 33e13 12 0 std::_Rb_tree<std::basic_string<char, std::char_traits<char>, std::allocator<char> >, std::pair<const std::basic_string<char, std::char_traits<char>, std::allocator<char> >, IEC103::stConfigParam>, std::_Select1st<std::pair<const std::basic_string<char, std::char_traits<char>, std::allocator<char> >, IEC103::stConfigParam> >, std::less<std::basic_string<char, std::char_traits<char>, std::allocator<char> > >, std::allocator<std::pair<const std::basic_string<char, std::char_traits<char>, std::allocator<char> >, IEC103::stConfigParam> > >::_S_right
FUNC 33e25 12 0 std::_Rb_tree<std::basic_string<char, std::char_traits<char>, std::allocator<char> >, std::pair<const std::basic_string<char, std::char_traits<char>, std::allocator<char> >, IEC103::stConfigParam>, std::_Select1st<std::pair<const std::basic_string<char, std::char_traits<char>, std::allocator<char> >, IEC103::stConfigParam> >, std::less<std::basic_string<char, std::char_traits<char>, std::allocator<char> > >, std::allocator<std::pair<const std::basic_string<char, std::char_traits<char>, std::allocator<char> >, IEC103::stConfigParam> > >::_S_left
FUNC 33e38 25 0 std::allocator<std::_Rb_tree_node<std::pair<const std::basic_string<char, std::char_traits<char>, std::allocator<char> >, std::map<std::basic_string<char, std::char_traits<char>, std::allocator<char> >, std::basic_string<char, std::char_traits<char>, std::allocator<char> >, std::less<std::basic_string<char, std::char_traits<char>, std::allocator<char> > >, std::allocator<std::pair<const std::basic_string<char, std::char_traits<char>, std::allocator<char> >, std::basic_string<char, std::char_traits<char>, std::allocator<char> > > > > > > >::allocator
FUNC 33e5e 55 0 std::_Rb_tree<std::basic_string<char, std::char_traits<char>, std::allocator<char> >, std::pair<const std::basic_string<char, std::char_traits<char>, std::allocator<char> >, std::map<std::basic_string<char, std::char_traits<char>, std::allocator<char> >, std::basic_string<char, std::char_traits<char>, std::allocator<char> >, std::less<std::basic_string<char, std::char_traits<char>, std::allocator<char> > >, std::allocator<std::pair<const std::basic_string<char, std::char_traits<char>, std::allocator<char> >, std::basic_string<char, std::char_traits<char>, std::allocator<char> > > > > >, std::_Select1st<std::pair<const std::basic_string<char, std::char_traits<char>, std::allocator<char> >, std::map<std::basic_string<char, std::char_traits<char>, std::allocator<char> >, std::basic_string<char, std::char_traits<char>, std::allocator<char> >, std::less<std::basic_string<char, std::char_traits<char>, std::allocator<char> > >, std::allocator<std::pair<const std::basic_string<char, std::char_traits<char>, std::allocator<char> >, std::basic_string<char, std::char_traits<char>, std::allocator<char> > > > > > >, std::less<std::basic_string<char, std::char_traits<char>, std::allocator<char> > >, std::allocator<std::pair<const std::basic_string<char, std::char_traits<char>, std::allocator<char> >, std::map<std::basic_string<char, std::char_traits<char>, std::allocator<char> >, std::basic_string<char, std::char_traits<char>, std::allocator<char> >, std::less<std::basic_string<char, std::char_traits<char>, std::allocator<char> > >, std::allocator<std::pair<const std::basic_string<char, std::char_traits<char>, std::allocator<char> >, std::basic_string<char, std::char_traits<char>, std::allocator<char> > > > > > > >::_M_clone_node
FUNC 33eb3 12 0 std::_Rb_tree<std::basic_string<char, std::char_traits<char>, std::allocator<char> >, std::pair<const std::basic_string<char, std::char_traits<char>, std::allocator<char> >, std::map<std::basic_string<char, std::char_traits<char>, std::allocator<char> >, std::basic_string<char, std::char_traits<char>, std::allocator<char> >, std::less<std::basic_string<char, std::char_traits<char>, std::allocator<char> > >, std::allocator<std::pair<const std::basic_string<char, std::char_traits<char>, std::allocator<char> >, std::basic_string<char, std::char_traits<char>, std::allocator<char> > > > > >, std::_Select1st<std::pair<const std::basic_string<char, std::char_traits<char>, std::allocator<char> >, std::map<std::basic_string<char, std::char_traits<char>, std::allocator<char> >, std::basic_string<char, std::char_traits<char>, std::allocator<char> >, std::less<std::basic_string<char, std::char_traits<char>, std::allocator<char> > >, std::allocator<std::pair<const std::basic_string<char, std::char_traits<char>, std::allocator<char> >, std::basic_string<char, std::char_traits<char>, std::allocator<char> > > > > > >, std::less<std::basic_string<char, std::char_traits<char>, std::allocator<char> > >, std::allocator<std::pair<const std::basic_string<char, std::char_traits<char>, std::allocator<char> >, std::map<std::basic_string<char, std::char_traits<char>, std::allocator<char> >, std::basic_string<char, std::char_traits<char>, std::allocator<char> >, std::less<std::basic_string<char, std::char_traits<char>, std::allocator<char> > >, std::allocator<std::pair<const std::basic_string<char, std::char_traits<char>, std::allocator<char> >, std::basic_string<char, std::char_traits<char>, std::allocator<char> > > > > > > >::_S_right
FUNC 33ec5 12 0 std::_Rb_tree<std::basic_string<char, std::char_traits<char>, std::allocator<char> >, std::pair<const std::basic_string<char, std::char_traits<char>, std::allocator<char> >, std::map<std::basic_string<char, std::char_traits<char>, std::allocator<char> >, std::basic_string<char, std::char_traits<char>, std::allocator<char> >, std::less<std::basic_string<char, std::char_traits<char>, std::allocator<char> > >, std::allocator<std::pair<const std::basic_string<char, std::char_traits<char>, std::allocator<char> >, std::basic_string<char, std::char_traits<char>, std::allocator<char> > > > > >, std::_Select1st<std::pair<const std::basic_string<char, std::char_traits<char>, std::allocator<char> >, std::map<std::basic_string<char, std::char_traits<char>, std::allocator<char> >, std::basic_string<char, std::char_traits<char>, std::allocator<char> >, std::less<std::basic_string<char, std::char_traits<char>, std::allocator<char> > >, std::allocator<std::pair<const std::basic_string<char, std::char_traits<char>, std::allocator<char> >, std::basic_string<char, std::char_traits<char>, std::allocator<char> > > > > > >, std::less<std::basic_string<char, std::char_traits<char>, std::allocator<char> > >, std::allocator<std::pair<const std::basic_string<char, std::char_traits<char>, std::allocator<char> >, std::map<std::basic_string<char, std::char_traits<char>, std::allocator<char> >, std::basic_string<char, std::char_traits<char>, std::allocator<char> >, std::less<std::basic_string<char, std::char_traits<char>, std::allocator<char> > >, std::allocator<std::pair<const std::basic_string<char, std::char_traits<char>, std::allocator<char> >, std::basic_string<char, std::char_traits<char>, std::allocator<char> > > > > > > >::_S_left
FUNC 33ed8 25 0 std::allocator<std::_Rb_tree_node<std::pair<const std::basic_string<char, std::char_traits<char>, std::allocator<char> >, std::map<int, std::map<int, IEC104WF::stPointTable, std::less<int>, std::allocator<std::pair<const int, IEC104WF::stPointTable> > >, std::less<int>, std::allocator<std::pair<const int, std::map<int, IEC104WF::stPointTable, std::less<int>, std::allocator<std::pair<const int, IEC104WF::stPointTable> > > > > > > > >::allocator
FUNC 33efe 55 0 std::_Rb_tree<std::basic_string<char, std::char_traits<char>, std::allocator<char> >, std::pair<const std::basic_string<char, std::char_traits<char>, std::allocator<char> >, std::map<int, std::map<int, IEC104WF::stPointTable, std::less<int>, std::allocator<std::pair<const int, IEC104WF::stPointTable> > >, std::less<int>, std::allocator<std::pair<const int, std::map<int, IEC104WF::stPointTable, std::less<int>, std::allocator<std::pair<const int, IEC104WF::stPointTable> > > > > > >, std::_Select1st<std::pair<const std::basic_string<char, std::char_traits<char>, std::allocator<char> >, std::map<int, std::map<int, IEC104WF::stPointTable, std::less<int>, std::allocator<std::pair<const int, IEC104WF::stPointTable> > >, std::less<int>, std::allocator<std::pair<const int, std::map<int, IEC104WF::stPointTable, std::less<int>, std::allocator<std::pair<const int, IEC104WF::stPointTable> > > > > > > >, std::less<std::basic_string<char, std::char_traits<char>, std::allocator<char> > >, std::allocator<std::pair<const std::basic_string<char, std::char_traits<char>, std::allocator<char> >, std::map<int, std::map<int, IEC104WF::stPointTable, std::less<int>, std::allocator<std::pair<const int, IEC104WF::stPointTable> > >, std::less<int>, std::allocator<std::pair<const int, std::map<int, IEC104WF::stPointTable, std::less<int>, std::allocator<std::pair<const int, IEC104WF::stPointTable> > > > > > > > >::_M_clone_node
FUNC 33f53 12 0 std::_Rb_tree<std::basic_string<char, std::char_traits<char>, std::allocator<char> >, std::pair<const std::basic_string<char, std::char_traits<char>, std::allocator<char> >, std::map<int, std::map<int, IEC104WF::stPointTable, std::less<int>, std::allocator<std::pair<const int, IEC104WF::stPointTable> > >, std::less<int>, std::allocator<std::pair<const int, std::map<int, IEC104WF::stPointTable, std::less<int>, std::allocator<std::pair<const int, IEC104WF::stPointTable> > > > > > >, std::_Select1st<std::pair<const std::basic_string<char, std::char_traits<char>, std::allocator<char> >, std::map<int, std::map<int, IEC104WF::stPointTable, std::less<int>, std::allocator<std::pair<const int, IEC104WF::stPointTable> > >, std::less<int>, std::allocator<std::pair<const int, std::map<int, IEC104WF::stPointTable, std::less<int>, std::allocator<std::pair<const int, IEC104WF::stPointTable> > > > > > > >, std::less<std::basic_string<char, std::char_traits<char>, std::allocator<char> > >, std::allocator<std::pair<const std::basic_string<char, std::char_traits<char>, std::allocator<char> >, std::map<int, std::map<int, IEC104WF::stPointTable, std::less<int>, std::allocator<std::pair<const int, IEC104WF::stPointTable> > >, std::less<int>, std::allocator<std::pair<const int, std::map<int, IEC104WF::stPointTable, std::less<int>, std::allocator<std::pair<const int, IEC104WF::stPointTable> > > > > > > > >::_S_right
FUNC 33f65 12 0 std::_Rb_tree<std::basic_string<char, std::char_traits<char>, std::allocator<char> >, std::pair<const std::basic_string<char, std::char_traits<char>, std::allocator<char> >, std::map<int, std::map<int, IEC104WF::stPointTable, std::less<int>, std::allocator<std::pair<const int, IEC104WF::stPointTable> > >, std::less<int>, std::allocator<std::pair<const int, std::map<int, IEC104WF::stPointTable, std::less<int>, std::allocator<std::pair<const int, IEC104WF::stPointTable> > > > > > >, std::_Select1st<std::pair<const std::basic_string<char, std::char_traits<char>, std::allocator<char> >, std::map<int, std::map<int, IEC104WF::stPointTable, std::less<int>, std::allocator<std::pair<const int, IEC104WF::stPointTable> > >, std::less<int>, std::allocator<std::pair<const int, std::map<int, IEC104WF::stPointTable, std::less<int>, std::allocator<std::pair<const int, IEC104WF::stPointTable> > > > > > > >, std::less<std::basic_string<char, std::char_traits<char>, std::allocator<char> > >, std::allocator<std::pair<const std::basic_string<char, std::char_traits<char>, std::allocator<char> >, std::map<int, std::map<int, IEC104WF::stPointTable, std::less<int>, std::allocator<std::pair<const int, IEC104WF::stPointTable> > >, std::less<int>, std::allocator<std::pair<const int, std::map<int, IEC104WF::stPointTable, std::less<int>, std::allocator<std::pair<const int, IEC104WF::stPointTable> > > > > > > > >::_S_left
FUNC 33f78 a 0 __gnu_cxx::new_allocator<std::_List_node<std::basic_string<char, std::char_traits<char>, std::allocator<char> > > >::new_allocator
FUNC 33f82 25 0 std::allocator<std::_List_node<std::basic_string<char, std::char_traits<char>, std::allocator<char> > > >::allocator
FUNC 33fa8 92 0 std::_Rb_tree<std::basic_string<char, std::char_traits<char>, std::allocator<char> >, std::pair<const std::basic_string<char, std::char_traits<char>, std::allocator<char> >, IEC61850_STRUCT::IED_61850>, std::_Select1st<std::pair<const std::basic_string<char, std::char_traits<char>, std::allocator<char> >, IEC61850_STRUCT::IED_61850> >, std::less<std::basic_string<char, std::char_traits<char>, std::allocator<char> > >, std::allocator<std::pair<const std::basic_string<char, std::char_traits<char>, std::allocator<char> >, IEC61850_STRUCT::IED_61850> > >::_M_lower_bound
FUNC 3403a 19 0 std::_Rb_tree_iterator<std::pair<const std::basic_string<char, std::char_traits<char>, std::allocator<char> >, IEC61850_STRUCT::IED_61850> >::_Rb_tree_iterator
FUNC 34053 2c 0 std::_Rb_tree<std::basic_string<char, std::char_traits<char>, std::allocator<char> >, std::pair<const std::basic_string<char, std::char_traits<char>, std::allocator<char> >, IEC61850_STRUCT::IED_61850>, std::_Select1st<std::pair<const std::basic_string<char, std::char_traits<char>, std::allocator<char> >, IEC61850_STRUCT::IED_61850> >, std::less<std::basic_string<char, std::char_traits<char>, std::allocator<char> > >, std::allocator<std::pair<const std::basic_string<char, std::char_traits<char>, std::allocator<char> >, IEC61850_STRUCT::IED_61850> > >::_S_key
FUNC 34080 12 0 std::_Select1st<std::pair<const std::basic_string<char, std::char_traits<char>, std::allocator<char> >, IEC61850_STRUCT::IED_61850> >::operator()
FUNC 34092 12 0 std::_Rb_tree<std::basic_string<char, std::char_traits<char>, std::allocator<char> >, std::pair<const std::basic_string<char, std::char_traits<char>, std::allocator<char> >, IEC61850_STRUCT::IED_61850>, std::_Select1st<std::pair<const std::basic_string<char, std::char_traits<char>, std::allocator<char> >, IEC61850_STRUCT::IED_61850> >, std::less<std::basic_string<char, std::char_traits<char>, std::allocator<char> > >, std::allocator<std::pair<const std::basic_string<char, std::char_traits<char>, std::allocator<char> >, IEC61850_STRUCT::IED_61850> > >::size
FUNC 340a4 e3 0 std::_Rb_tree<std::basic_string<char, std::char_traits<char>, std::allocator<char> >, std::pair<const std::basic_string<char, std::char_traits<char>, std::allocator<char> >, IEC61850_STRUCT::IED_61850>, std::_Select1st<std::pair<const std::basic_string<char, std::char_traits<char>, std::allocator<char> >, IEC61850_STRUCT::IED_61850> >, std::less<std::basic_string<char, std::char_traits<char>, std::allocator<char> > >, std::allocator<std::pair<const std::basic_string<char, std::char_traits<char>, std::allocator<char> >, IEC61850_STRUCT::IED_61850> > >::_M_insert_
FUNC 34188 271 0 std::_Rb_tree<std::basic_string<char, std::char_traits<char>, std::allocator<char> >, std::pair<const std::basic_string<char, std::char_traits<char>, std::allocator<char> >, IEC61850_STRUCT::IED_61850>, std::_Select1st<std::pair<const std::basic_string<char, std::char_traits<char>, std::allocator<char> >, IEC61850_STRUCT::IED_61850> >, std::less<std::basic_string<char, std::char_traits<char>, std::allocator<char> > >, std::allocator<std::pair<const std::basic_string<char, std::char_traits<char>, std::allocator<char> >, IEC61850_STRUCT::IED_61850> > >::_M_insert_unique
FUNC 343fa 28 0 std::_Rb_tree_const_iterator<std::pair<const std::basic_string<char, std::char_traits<char>, std::allocator<char> >, IEC61850_STRUCT::IED_61850> >::operator--
FUNC 34422 28 0 std::_Rb_tree_const_iterator<std::pair<const std::basic_string<char, std::char_traits<char>, std::allocator<char> >, IEC61850_STRUCT::IED_61850> >::operator++
FUNC 3444a 92 0 std::_Rb_tree<int, std::pair<const int, IEC104WF::stPointTable>, std::_Select1st<std::pair<const int, IEC104WF::stPointTable> >, std::less<int>, std::allocator<std::pair<const int, IEC104WF::stPointTable> > >::_M_lower_bound
FUNC 344dc 19 0 std::_Rb_tree_iterator<std::pair<const int, IEC104WF::stPointTable> >::_Rb_tree_iterator
FUNC 344f5 2c 0 std::_Rb_tree<int, std::pair<const int, IEC104WF::stPointTable>, std::_Select1st<std::pair<const int, IEC104WF::stPointTable> >, std::less<int>, std::allocator<std::pair<const int, IEC104WF::stPointTable> > >::_S_key
FUNC 34522 12 0 std::_Select1st<std::pair<const int, IEC104WF::stPointTable> >::operator()
FUNC 34534 12 0 std::_Rb_tree<int, std::pair<const int, IEC104WF::stPointTable>, std::_Select1st<std::pair<const int, IEC104WF::stPointTable> >, std::less<int>, std::allocator<std::pair<const int, IEC104WF::stPointTable> > >::size
FUNC 34546 e3 0 std::_Rb_tree<int, std::pair<const int, IEC104WF::stPointTable>, std::_Select1st<std::pair<const int, IEC104WF::stPointTable> >, std::less<int>, std::allocator<std::pair<const int, IEC104WF::stPointTable> > >::_M_insert_
FUNC 3462a 271 0 std::_Rb_tree<int, std::pair<const int, IEC104WF::stPointTable>, std::_Select1st<std::pair<const int, IEC104WF::stPointTable> >, std::less<int>, std::allocator<std::pair<const int, IEC104WF::stPointTable> > >::_M_insert_unique
FUNC 3489c 28 0 std::_Rb_tree_const_iterator<std::pair<const int, IEC104WF::stPointTable> >::operator--
FUNC 348c4 12 0 std::_Rb_tree<int, std::pair<const int, IEC104WF::stPointTable>, std::_Select1st<std::pair<const int, IEC104WF::stPointTable> >, std::less<int>, std::allocator<std::pair<const int, IEC104WF::stPointTable> > >::_S_right
FUNC 348d6 28 0 std::_Rb_tree_const_iterator<std::pair<const int, IEC104WF::stPointTable> >::operator++
FUNC 348fe 92 0 std::_Rb_tree<int, std::pair<const int, std::map<int, IEC104WF::stPointTable, std::less<int>, std::allocator<std::pair<const int, IEC104WF::stPointTable> > > >, std::_Select1st<std::pair<const int, std::map<int, IEC104WF::stPointTable, std::less<int>, std::allocator<std::pair<const int, IEC104WF::stPointTable> > > > >, std::less<int>, std::allocator<std::pair<const int, std::map<int, IEC104WF::stPointTable, std::less<int>, std::allocator<std::pair<const int, IEC104WF::stPointTable> > > > > >::_M_lower_bound
FUNC 34990 19 0 std::_Rb_tree_iterator<std::pair<const int, std::map<int, IEC104WF::stPointTable, std::less<int>, std::allocator<std::pair<const int, IEC104WF::stPointTable> > > > >::_Rb_tree_iterator
FUNC 349aa 11d 0 std::_Rb_tree<int, std::pair<const int, IEC104WF::stPointTable>, std::_Select1st<std::pair<const int, IEC104WF::stPointTable> >, std::less<int>, std::allocator<std::pair<const int, IEC104WF::stPointTable> > >::_Rb_tree
FUNC 34ac7 2c 0 std::_Rb_tree<int, std::pair<const int, std::map<int, IEC104WF::stPointTable, std::less<int>, std::allocator<std::pair<const int, IEC104WF::stPointTable> > > >, std::_Select1st<std::pair<const int, std::map<int, IEC104WF::stPointTable, std::less<int>, std::allocator<std::pair<const int, IEC104WF::stPointTable> > > > >, std::less<int>, std::allocator<std::pair<const int, std::map<int, IEC104WF::stPointTable, std::less<int>, std::allocator<std::pair<const int, IEC104WF::stPointTable> > > > > >::_S_key
FUNC 34af4 12 0 std::_Select1st<std::pair<const int, std::map<int, IEC104WF::stPointTable, std::less<int>, std::allocator<std::pair<const int, IEC104WF::stPointTable> > > > >::operator()
FUNC 34b06 12 0 std::_Rb_tree<int, std::pair<const int, std::map<int, IEC104WF::stPointTable, std::less<int>, std::allocator<std::pair<const int, IEC104WF::stPointTable> > > >, std::_Select1st<std::pair<const int, std::map<int, IEC104WF::stPointTable, std::less<int>, std::allocator<std::pair<const int, IEC104WF::stPointTable> > > > >, std::less<int>, std::allocator<std::pair<const int, std::map<int, IEC104WF::stPointTable, std::less<int>, std::allocator<std::pair<const int, IEC104WF::stPointTable> > > > > >::size
FUNC 34b18 e3 0 std::_Rb_tree<int, std::pair<const int, std::map<int, IEC104WF::stPointTable, std::less<int>, std::allocator<std::pair<const int, IEC104WF::stPointTable> > > >, std::_Select1st<std::pair<const int, std::map<int, IEC104WF::stPointTable, std::less<int>, std::allocator<std::pair<const int, IEC104WF::stPointTable> > > > >, std::less<int>, std::allocator<std::pair<const int, std::map<int, IEC104WF::stPointTable, std::less<int>, std::allocator<std::pair<const int, IEC104WF::stPointTable> > > > > >::_M_insert_
FUNC 34bfc 271 0 std::_Rb_tree<int, std::pair<const int, std::map<int, IEC104WF::stPointTable, std::less<int>, std::allocator<std::pair<const int, IEC104WF::stPointTable> > > >, std::_Select1st<std::pair<const int, std::map<int, IEC104WF::stPointTable, std::less<int>, std::allocator<std::pair<const int, IEC104WF::stPointTable> > > > >, std::less<int>, std::allocator<std::pair<const int, std::map<int, IEC104WF::stPointTable, std::less<int>, std::allocator<std::pair<const int, IEC104WF::stPointTable> > > > > >::_M_insert_unique
FUNC 34e6e 28 0 std::_Rb_tree_const_iterator<std::pair<const int, std::map<int, IEC104WF::stPointTable, std::less<int>, std::allocator<std::pair<const int, IEC104WF::stPointTable> > > > >::operator--
FUNC 34e96 12 0 std::_Rb_tree<int, std::pair<const int, std::map<int, IEC104WF::stPointTable, std::less<int>, std::allocator<std::pair<const int, IEC104WF::stPointTable> > > >, std::_Select1st<std::pair<const int, std::map<int, IEC104WF::stPointTable, std::less<int>, std::allocator<std::pair<const int, IEC104WF::stPointTable> > > > >, std::less<int>, std::allocator<std::pair<const int, std::map<int, IEC104WF::stPointTable, std::less<int>, std::allocator<std::pair<const int, IEC104WF::stPointTable> > > > > >::_S_right
FUNC 34ea8 28 0 std::_Rb_tree_const_iterator<std::pair<const int, std::map<int, IEC104WF::stPointTable, std::less<int>, std::allocator<std::pair<const int, IEC104WF::stPointTable> > > > >::operator++
FUNC 34ed0 55 0 std::_Rb_tree<int, std::pair<const int, IEC104WF::stPointTable>, std::_Select1st<std::pair<const int, IEC104WF::stPointTable> >, std::less<int>, std::allocator<std::pair<const int, IEC104WF::stPointTable> > >::_M_clone_node
FUNC 34f25 12 0 std::_Rb_tree<int, std::pair<const int, IEC104WF::stPointTable>, std::_Select1st<std::pair<const int, IEC104WF::stPointTable> >, std::less<int>, std::allocator<std::pair<const int, IEC104WF::stPointTable> > >::_S_left
FUNC 34f38 92 0 std::_Rb_tree<std::basic_string<char, std::char_traits<char>, std::allocator<char> >, std::pair<const std::basic_string<char, std::char_traits<char>, std::allocator<char> >, std::map<int, std::map<int, IEC104WF::stPointTable, std::less<int>, std::allocator<std::pair<const int, IEC104WF::stPointTable> > >, std::less<int>, std::allocator<std::pair<const int, std::map<int, IEC104WF::stPointTable, std::less<int>, std::allocator<std::pair<const int, IEC104WF::stPointTable> > > > > > >, std::_Select1st<std::pair<const std::basic_string<char, std::char_traits<char>, std::allocator<char> >, std::map<int, std::map<int, IEC104WF::stPointTable, std::less<int>, std::allocator<std::pair<const int, IEC104WF::stPointTable> > >, std::less<int>, std::allocator<std::pair<const int, std::map<int, IEC104WF::stPointTable, std::less<int>, std::allocator<std::pair<const int, IEC104WF::stPointTable> > > > > > > >, std::less<std::basic_string<char, std::char_traits<char>, std::allocator<char> > >, std::allocator<std::pair<const std::basic_string<char, std::char_traits<char>, std::allocator<char> >, std::map<int, std::map<int, IEC104WF::stPointTable, std::less<int>, std::allocator<std::pair<const int, IEC104WF::stPointTable> > >, std::less<int>, std::allocator<std::pair<const int, std::map<int, IEC104WF::stPointTable, std::less<int>, std::allocator<std::pair<const int, IEC104WF::stPointTable> > > > > > > > >::_M_lower_bound
FUNC 34fca 19 0 std::_Rb_tree_iterator<std::pair<const std::basic_string<char, std::char_traits<char>, std::allocator<char> >, std::map<int, std::map<int, IEC104WF::stPointTable, std::less<int>, std::allocator<std::pair<const int, IEC104WF::stPointTable> > >, std::less<int>, std::allocator<std::pair<const int, std::map<int, IEC104WF::stPointTable, std::less<int>, std::allocator<std::pair<const int, IEC104WF::stPointTable> > > > > > > >::_Rb_tree_iterator
FUNC 34fe4 11d 0 std::_Rb_tree<int, std::pair<const int, std::map<int, IEC104WF::stPointTable, std::less<int>, std::allocator<std::pair<const int, IEC104WF::stPointTable> > > >, std::_Select1st<std::pair<const int, std::map<int, IEC104WF::stPointTable, std::less<int>, std::allocator<std::pair<const int, IEC104WF::stPointTable> > > > >, std::less<int>, std::allocator<std::pair<const int, std::map<int, IEC104WF::stPointTable, std::less<int>, std::allocator<std::pair<const int, IEC104WF::stPointTable> > > > > >::_Rb_tree
FUNC 35101 2c 0 std::_Rb_tree<std::basic_string<char, std::char_traits<char>, std::allocator<char> >, std::pair<const std::basic_string<char, std::char_traits<char>, std::allocator<char> >, std::map<int, std::map<int, IEC104WF::stPointTable, std::less<int>, std::allocator<std::pair<const int, IEC104WF::stPointTable> > >, std::less<int>, std::allocator<std::pair<const int, std::map<int, IEC104WF::stPointTable, std::less<int>, std::allocator<std::pair<const int, IEC104WF::stPointTable> > > > > > >, std::_Select1st<std::pair<const std::basic_string<char, std::char_traits<char>, std::allocator<char> >, std::map<int, std::map<int, IEC104WF::stPointTable, std::less<int>, std::allocator<std::pair<const int, IEC104WF::stPointTable> > >, std::less<int>, std::allocator<std::pair<const int, std::map<int, IEC104WF::stPointTable, std::less<int>, std::allocator<std::pair<const int, IEC104WF::stPointTable> > > > > > > >, std::less<std::basic_string<char, std::char_traits<char>, std::allocator<char> > >, std::allocator<std::pair<const std::basic_string<char, std::char_traits<char>, std::allocator<char> >, std::map<int, std::map<int, IEC104WF::stPointTable, std::less<int>, std::allocator<std::pair<const int, IEC104WF::stPointTable> > >, std::less<int>, std::allocator<std::pair<const int, std::map<int, IEC104WF::stPointTable, std::less<int>, std::allocator<std::pair<const int, IEC104WF::stPointTable> > > > > > > > >::_S_key
FUNC 3512e 12 0 std::_Select1st<std::pair<const std::basic_string<char, std::char_traits<char>, std::allocator<char> >, std::map<int, std::map<int, IEC104WF::stPointTable, std::less<int>, std::allocator<std::pair<const int, IEC104WF::stPointTable> > >, std::less<int>, std::allocator<std::pair<const int, std::map<int, IEC104WF::stPointTable, std::less<int>, std::allocator<std::pair<const int, IEC104WF::stPointTable> > > > > > > >::operator()
FUNC 35140 12 0 std::_Rb_tree<std::basic_string<char, std::char_traits<char>, std::allocator<char> >, std::pair<const std::basic_string<char, std::char_traits<char>, std::allocator<char> >, std::map<int, std::map<int, IEC104WF::stPointTable, std::less<int>, std::allocator<std::pair<const int, IEC104WF::stPointTable> > >, std::less<int>, std::allocator<std::pair<const int, std::map<int, IEC104WF::stPointTable, std::less<int>, std::allocator<std::pair<const int, IEC104WF::stPointTable> > > > > > >, std::_Select1st<std::pair<const std::basic_string<char, std::char_traits<char>, std::allocator<char> >, std::map<int, std::map<int, IEC104WF::stPointTable, std::less<int>, std::allocator<std::pair<const int, IEC104WF::stPointTable> > >, std::less<int>, std::allocator<std::pair<const int, std::map<int, IEC104WF::stPointTable, std::less<int>, std::allocator<std::pair<const int, IEC104WF::stPointTable> > > > > > > >, std::less<std::basic_string<char, std::char_traits<char>, std::allocator<char> > >, std::allocator<std::pair<const std::basic_string<char, std::char_traits<char>, std::allocator<char> >, std::map<int, std::map<int, IEC104WF::stPointTable, std::less<int>, std::allocator<std::pair<const int, IEC104WF::stPointTable> > >, std::less<int>, std::allocator<std::pair<const int, std::map<int, IEC104WF::stPointTable, std::less<int>, std::allocator<std::pair<const int, IEC104WF::stPointTable> > > > > > > > >::size
FUNC 35152 e3 0 std::_Rb_tree<std::basic_string<char, std::char_traits<char>, std::allocator<char> >, std::pair<const std::basic_string<char, std::char_traits<char>, std::allocator<char> >, std::map<int, std::map<int, IEC104WF::stPointTable, std::less<int>, std::allocator<std::pair<const int, IEC104WF::stPointTable> > >, std::less<int>, std::allocator<std::pair<const int, std::map<int, IEC104WF::stPointTable, std::less<int>, std::allocator<std::pair<const int, IEC104WF::stPointTable> > > > > > >, std::_Select1st<std::pair<const std::basic_string<char, std::char_traits<char>, std::allocator<char> >, std::map<int, std::map<int, IEC104WF::stPointTable, std::less<int>, std::allocator<std::pair<const int, IEC104WF::stPointTable> > >, std::less<int>, std::allocator<std::pair<const int, std::map<int, IEC104WF::stPointTable, std::less<int>, std::allocator<std::pair<const int, IEC104WF::stPointTable> > > > > > > >, std::less<std::basic_string<char, std::char_traits<char>, std::allocator<char> > >, std::allocator<std::pair<const std::basic_string<char, std::char_traits<char>, std::allocator<char> >, std::map<int, std::map<int, IEC104WF::stPointTable, std::less<int>, std::allocator<std::pair<const int, IEC104WF::stPointTable> > >, std::less<int>, std::allocator<std::pair<const int, std::map<int, IEC104WF::stPointTable, std::less<int>, std::allocator<std::pair<const int, IEC104WF::stPointTable> > > > > > > > >::_M_insert_
FUNC 35236 271 0 std::_Rb_tree<std::basic_string<char, std::char_traits<char>, std::allocator<char> >, std::pair<const std::basic_string<char, std::char_traits<char>, std::allocator<char> >, std::map<int, std::map<int, IEC104WF::stPointTable, std::less<int>, std::allocator<std::pair<const int, IEC104WF::stPointTable> > >, std::less<int>, std::allocator<std::pair<const int, std::map<int, IEC104WF::stPointTable, std::less<int>, std::allocator<std::pair<const int, IEC104WF::stPointTable> > > > > > >, std::_Select1st<std::pair<const std::basic_string<char, std::char_traits<char>, std::allocator<char> >, std::map<int, std::map<int, IEC104WF::stPointTable, std::less<int>, std::allocator<std::pair<const int, IEC104WF::stPointTable> > >, std::less<int>, std::allocator<std::pair<const int, std::map<int, IEC104WF::stPointTable, std::less<int>, std::allocator<std::pair<const int, IEC104WF::stPointTable> > > > > > > >, std::less<std::basic_string<char, std::char_traits<char>, std::allocator<char> > >, std::allocator<std::pair<const std::basic_string<char, std::char_traits<char>, std::allocator<char> >, std::map<int, std::map<int, IEC104WF::stPointTable, std::less<int>, std::allocator<std::pair<const int, IEC104WF::stPointTable> > >, std::less<int>, std::allocator<std::pair<const int, std::map<int, IEC104WF::stPointTable, std::less<int>, std::allocator<std::pair<const int, IEC104WF::stPointTable> > > > > > > > >::_M_insert_unique
FUNC 354a8 28 0 std::_Rb_tree_const_iterator<std::pair<const std::basic_string<char, std::char_traits<char>, std::allocator<char> >, std::map<int, std::map<int, IEC104WF::stPointTable, std::less<int>, std::allocator<std::pair<const int, IEC104WF::stPointTable> > >, std::less<int>, std::allocator<std::pair<const int, std::map<int, IEC104WF::stPointTable, std::less<int>, std::allocator<std::pair<const int, IEC104WF::stPointTable> > > > > > > >::operator--
FUNC 354d0 28 0 std::_Rb_tree_const_iterator<std::pair<const std::basic_string<char, std::char_traits<char>, std::allocator<char> >, std::map<int, std::map<int, IEC104WF::stPointTable, std::less<int>, std::allocator<std::pair<const int, IEC104WF::stPointTable> > >, std::less<int>, std::allocator<std::pair<const int, std::map<int, IEC104WF::stPointTable, std::less<int>, std::allocator<std::pair<const int, IEC104WF::stPointTable> > > > > > > >::operator++
FUNC 354f8 55 0 std::_Rb_tree<int, std::pair<const int, std::map<int, IEC104WF::stPointTable, std::less<int>, std::allocator<std::pair<const int, IEC104WF::stPointTable> > > >, std::_Select1st<std::pair<const int, std::map<int, IEC104WF::stPointTable, std::less<int>, std::allocator<std::pair<const int, IEC104WF::stPointTable> > > > >, std::less<int>, std::allocator<std::pair<const int, std::map<int, IEC104WF::stPointTable, std::less<int>, std::allocator<std::pair<const int, IEC104WF::stPointTable> > > > > >::_M_clone_node
FUNC 3554d 12 0 std::_Rb_tree<int, std::pair<const int, std::map<int, IEC104WF::stPointTable, std::less<int>, std::allocator<std::pair<const int, IEC104WF::stPointTable> > > >, std::_Select1st<std::pair<const int, std::map<int, IEC104WF::stPointTable, std::less<int>, std::allocator<std::pair<const int, IEC104WF::stPointTable> > > > >, std::less<int>, std::allocator<std::pair<const int, std::map<int, IEC104WF::stPointTable, std::less<int>, std::allocator<std::pair<const int, IEC104WF::stPointTable> > > > > >::_S_left
FUNC 35560 92 0 std::_Rb_tree<std::basic_string<char, std::char_traits<char>, std::allocator<char> >, std::pair<const std::basic_string<char, std::char_traits<char>, std::allocator<char> >, IEC103::stConfigParam>, std::_Select1st<std::pair<const std::basic_string<char, std::char_traits<char>, std::allocator<char> >, IEC103::stConfigParam> >, std::less<std::basic_string<char, std::char_traits<char>, std::allocator<char> > >, std::allocator<std::pair<const std::basic_string<char, std::char_traits<char>, std::allocator<char> >, IEC103::stConfigParam> > >::_M_lower_bound
FUNC 355f2 2c 0 std::_Rb_tree<std::basic_string<char, std::char_traits<char>, std::allocator<char> >, std::pair<const std::basic_string<char, std::char_traits<char>, std::allocator<char> >, IEC103::stConfigParam>, std::_Select1st<std::pair<const std::basic_string<char, std::char_traits<char>, std::allocator<char> >, IEC103::stConfigParam> >, std::less<std::basic_string<char, std::char_traits<char>, std::allocator<char> > >, std::allocator<std::pair<const std::basic_string<char, std::char_traits<char>, std::allocator<char> >, IEC103::stConfigParam> > >::_S_key
FUNC 3561e 12 0 std::_Select1st<std::pair<const std::basic_string<char, std::char_traits<char>, std::allocator<char> >, IEC103::stConfigParam> >::operator()
FUNC 35630 e3 0 std::_Rb_tree<std::basic_string<char, std::char_traits<char>, std::allocator<char> >, std::pair<const std::basic_string<char, std::char_traits<char>, std::allocator<char> >, IEC103::stConfigParam>, std::_Select1st<std::pair<const std::basic_string<char, std::char_traits<char>, std::allocator<char> >, IEC103::stConfigParam> >, std::less<std::basic_string<char, std::char_traits<char>, std::allocator<char> > >, std::allocator<std::pair<const std::basic_string<char, std::char_traits<char>, std::allocator<char> >, IEC103::stConfigParam> > >::_M_insert_
FUNC 35714 271 0 std::_Rb_tree<std::basic_string<char, std::char_traits<char>, std::allocator<char> >, std::pair<const std::basic_string<char, std::char_traits<char>, std::allocator<char> >, IEC103::stConfigParam>, std::_Select1st<std::pair<const std::basic_string<char, std::char_traits<char>, std::allocator<char> >, IEC103::stConfigParam> >, std::less<std::basic_string<char, std::char_traits<char>, std::allocator<char> > >, std::allocator<std::pair<const std::basic_string<char, std::char_traits<char>, std::allocator<char> >, IEC103::stConfigParam> > >::_M_insert_unique
FUNC 35986 28 0 std::_Rb_tree_const_iterator<std::pair<const std::basic_string<char, std::char_traits<char>, std::allocator<char> >, IEC103::stConfigParam> >::operator--
FUNC 359ae 28 0 std::_Rb_tree_const_iterator<std::pair<const std::basic_string<char, std::char_traits<char>, std::allocator<char> >, IEC103::stConfigParam> >::operator++
FUNC 359d6 92 0 std::_Rb_tree<std::basic_string<char, std::char_traits<char>, std::allocator<char> >, std::pair<const std::basic_string<char, std::char_traits<char>, std::allocator<char> >, std::map<std::basic_string<char, std::char_traits<char>, std::allocator<char> >, std::basic_string<char, std::char_traits<char>, std::allocator<char> >, std::less<std::basic_string<char, std::char_traits<char>, std::allocator<char> > >, std::allocator<std::pair<const std::basic_string<char, std::char_traits<char>, std::allocator<char> >, std::basic_string<char, std::char_traits<char>, std::allocator<char> > > > > >, std::_Select1st<std::pair<const std::basic_string<char, std::char_traits<char>, std::allocator<char> >, std::map<std::basic_string<char, std::char_traits<char>, std::allocator<char> >, std::basic_string<char, std::char_traits<char>, std::allocator<char> >, std::less<std::basic_string<char, std::char_traits<char>, std::allocator<char> > >, std::allocator<std::pair<const std::basic_string<char, std::char_traits<char>, std::allocator<char> >, std::basic_string<char, std::char_traits<char>, std::allocator<char> > > > > > >, std::less<std::basic_string<char, std::char_traits<char>, std::allocator<char> > >, std::allocator<std::pair<const std::basic_string<char, std::char_traits<char>, std::allocator<char> >, std::map<std::basic_string<char, std::char_traits<char>, std::allocator<char> >, std::basic_string<char, std::char_traits<char>, std::allocator<char> >, std::less<std::basic_string<char, std::char_traits<char>, std::allocator<char> > >, std::allocator<std::pair<const std::basic_string<char, std::char_traits<char>, std::allocator<char> >, std::basic_string<char, std::char_traits<char>, std::allocator<char> > > > > > > >::_M_lower_bound
FUNC 35a68 19 0 std::_Rb_tree_iterator<std::pair<const std::basic_string<char, std::char_traits<char>, std::allocator<char> >, std::map<std::basic_string<char, std::char_traits<char>, std::allocator<char> >, std::basic_string<char, std::char_traits<char>, std::allocator<char> >, std::less<std::basic_string<char, std::char_traits<char>, std::allocator<char> > >, std::allocator<std::pair<const std::basic_string<char, std::char_traits<char>, std::allocator<char> >, std::basic_string<char, std::char_traits<char>, std::allocator<char> > > > > > >::_Rb_tree_iterator
FUNC 35a81 2c 0 std::_Rb_tree<std::basic_string<char, std::char_traits<char>, std::allocator<char> >, std::pair<const std::basic_string<char, std::char_traits<char>, std::allocator<char> >, std::map<std::basic_string<char, std::char_traits<char>, std::allocator<char> >, std::basic_string<char, std::char_traits<char>, std::allocator<char> >, std::less<std::basic_string<char, std::char_traits<char>, std::allocator<char> > >, std::allocator<std::pair<const std::basic_string<char, std::char_traits<char>, std::allocator<char> >, std::basic_string<char, std::char_traits<char>, std::allocator<char> > > > > >, std::_Select1st<std::pair<const std::basic_string<char, std::char_traits<char>, std::allocator<char> >, std::map<std::basic_string<char, std::char_traits<char>, std::allocator<char> >, std::basic_string<char, std::char_traits<char>, std::allocator<char> >, std::less<std::basic_string<char, std::char_traits<char>, std::allocator<char> > >, std::allocator<std::pair<const std::basic_string<char, std::char_traits<char>, std::allocator<char> >, std::basic_string<char, std::char_traits<char>, std::allocator<char> > > > > > >, std::less<std::basic_string<char, std::char_traits<char>, std::allocator<char> > >, std::allocator<std::pair<const std::basic_string<char, std::char_traits<char>, std::allocator<char> >, std::map<std::basic_string<char, std::char_traits<char>, std::allocator<char> >, std::basic_string<char, std::char_traits<char>, std::allocator<char> >, std::less<std::basic_string<char, std::char_traits<char>, std::allocator<char> > >, std::allocator<std::pair<const std::basic_string<char, std::char_traits<char>, std::allocator<char> >, std::basic_string<char, std::char_traits<char>, std::allocator<char> > > > > > > >::_S_key
FUNC 35aae 12 0 std::_Select1st<std::pair<const std::basic_string<char, std::char_traits<char>, std::allocator<char> >, std::map<std::basic_string<char, std::char_traits<char>, std::allocator<char> >, std::basic_string<char, std::char_traits<char>, std::allocator<char> >, std::less<std::basic_string<char, std::char_traits<char>, std::allocator<char> > >, std::allocator<std::pair<const std::basic_string<char, std::char_traits<char>, std::allocator<char> >, std::basic_string<char, std::char_traits<char>, std::allocator<char> > > > > > >::operator()
FUNC 35ac0 12 0 std::_Rb_tree<std::basic_string<char, std::char_traits<char>, std::allocator<char> >, std::pair<const std::basic_string<char, std::char_traits<char>, std::allocator<char> >, std::map<std::basic_string<char, std::char_traits<char>, std::allocator<char> >, std::basic_string<char, std::char_traits<char>, std::allocator<char> >, std::less<std::basic_string<char, std::char_traits<char>, std::allocator<char> > >, std::allocator<std::pair<const std::basic_string<char, std::char_traits<char>, std::allocator<char> >, std::basic_string<char, std::char_traits<char>, std::allocator<char> > > > > >, std::_Select1st<std::pair<const std::basic_string<char, std::char_traits<char>, std::allocator<char> >, std::map<std::basic_string<char, std::char_traits<char>, std::allocator<char> >, std::basic_string<char, std::char_traits<char>, std::allocator<char> >, std::less<std::basic_string<char, std::char_traits<char>, std::allocator<char> > >, std::allocator<std::pair<const std::basic_string<char, std::char_traits<char>, std::allocator<char> >, std::basic_string<char, std::char_traits<char>, std::allocator<char> > > > > > >, std::less<std::basic_string<char, std::char_traits<char>, std::allocator<char> > >, std::allocator<std::pair<const std::basic_string<char, std::char_traits<char>, std::allocator<char> >, std::map<std::basic_string<char, std::char_traits<char>, std::allocator<char> >, std::basic_string<char, std::char_traits<char>, std::allocator<char> >, std::less<std::basic_string<char, std::char_traits<char>, std::allocator<char> > >, std::allocator<std::pair<const std::basic_string<char, std::char_traits<char>, std::allocator<char> >, std::basic_string<char, std::char_traits<char>, std::allocator<char> > > > > > > >::size
FUNC 35ad2 e3 0 std::_Rb_tree<std::basic_string<char, std::char_traits<char>, std::allocator<char> >, std::pair<const std::basic_string<char, std::char_traits<char>, std::allocator<char> >, std::map<std::basic_string<char, std::char_traits<char>, std::allocator<char> >, std::basic_string<char, std::char_traits<char>, std::allocator<char> >, std::less<std::basic_string<char, std::char_traits<char>, std::allocator<char> > >, std::allocator<std::pair<const std::basic_string<char, std::char_traits<char>, std::allocator<char> >, std::basic_string<char, std::char_traits<char>, std::allocator<char> > > > > >, std::_Select1st<std::pair<const std::basic_string<char, std::char_traits<char>, std::allocator<char> >, std::map<std::basic_string<char, std::char_traits<char>, std::allocator<char> >, std::basic_string<char, std::char_traits<char>, std::allocator<char> >, std::less<std::basic_string<char, std::char_traits<char>, std::allocator<char> > >, std::allocator<std::pair<const std::basic_string<char, std::char_traits<char>, std::allocator<char> >, std::basic_string<char, std::char_traits<char>, std::allocator<char> > > > > > >, std::less<std::basic_string<char, std::char_traits<char>, std::allocator<char> > >, std::allocator<std::pair<const std::basic_string<char, std::char_traits<char>, std::allocator<char> >, std::map<std::basic_string<char, std::char_traits<char>, std::allocator<char> >, std::basic_string<char, std::char_traits<char>, std::allocator<char> >, std::less<std::basic_string<char, std::char_traits<char>, std::allocator<char> > >, std::allocator<std::pair<const std::basic_string<char, std::char_traits<char>, std::allocator<char> >, std::basic_string<char, std::char_traits<char>, std::allocator<char> > > > > > > >::_M_insert_
FUNC 35bb6 271 0 std::_Rb_tree<std::basic_string<char, std::char_traits<char>, std::allocator<char> >, std::pair<const std::basic_string<char, std::char_traits<char>, std::allocator<char> >, std::map<std::basic_string<char, std::char_traits<char>, std::allocator<char> >, std::basic_string<char, std::char_traits<char>, std::allocator<char> >, std::less<std::basic_string<char, std::char_traits<char>, std::allocator<char> > >, std::allocator<std::pair<const std::basic_string<char, std::char_traits<char>, std::allocator<char> >, std::basic_string<char, std::char_traits<char>, std::allocator<char> > > > > >, std::_Select1st<std::pair<const std::basic_string<char, std::char_traits<char>, std::allocator<char> >, std::map<std::basic_string<char, std::char_traits<char>, std::allocator<char> >, std::basic_string<char, std::char_traits<char>, std::allocator<char> >, std::less<std::basic_string<char, std::char_traits<char>, std::allocator<char> > >, std::allocator<std::pair<const std::basic_string<char, std::char_traits<char>, std::allocator<char> >, std::basic_string<char, std::char_traits<char>, std::allocator<char> > > > > > >, std::less<std::basic_string<char, std::char_traits<char>, std::allocator<char> > >, std::allocator<std::pair<const std::basic_string<char, std::char_traits<char>, std::allocator<char> >, std::map<std::basic_string<char, std::char_traits<char>, std::allocator<char> >, std::basic_string<char, std::char_traits<char>, std::allocator<char> >, std::less<std::basic_string<char, std::char_traits<char>, std::allocator<char> > >, std::allocator<std::pair<const std::basic_string<char, std::char_traits<char>, std::allocator<char> >, std::basic_string<char, std::char_traits<char>, std::allocator<char> > > > > > > >::_M_insert_unique
FUNC 35e28 28 0 std::_Rb_tree_const_iterator<std::pair<const std::basic_string<char, std::char_traits<char>, std::allocator<char> >, std::map<std::basic_string<char, std::char_traits<char>, std::allocator<char> >, std::basic_string<char, std::char_traits<char>, std::allocator<char> >, std::less<std::basic_string<char, std::char_traits<char>, std::allocator<char> > >, std::allocator<std::pair<const std::basic_string<char, std::char_traits<char>, std::allocator<char> >, std::basic_string<char, std::char_traits<char>, std::allocator<char> > > > > > >::operator--
FUNC 35e50 28 0 std::_Rb_tree_const_iterator<std::pair<const std::basic_string<char, std::char_traits<char>, std::allocator<char> >, std::map<std::basic_string<char, std::char_traits<char>, std::allocator<char> >, std::basic_string<char, std::char_traits<char>, std::allocator<char> >, std::less<std::basic_string<char, std::char_traits<char>, std::allocator<char> > >, std::allocator<std::pair<const std::basic_string<char, std::char_traits<char>, std::allocator<char> >, std::basic_string<char, std::char_traits<char>, std::allocator<char> > > > > > >::operator++
FUNC 35e78 24 0 std::_List_base<std::basic_string<char, std::char_traits<char>, std::allocator<char> >, std::allocator<std::basic_string<char, std::char_traits<char>, std::allocator<char> > > >::_M_get_node
FUNC 35e9c a 0 __gnu_cxx::new_allocator<std::_Rb_tree_node<std::pair<const std::basic_string<char, std::char_traits<char>, std::allocator<char> >, IEC61850_STRUCT::IED_61850> > >::new_allocator
FUNC 35ea6 1e 0 std::allocator<std::pair<const std::basic_string<char, std::char_traits<char>, std::allocator<char> >, IEC61850_STRUCT::IED_61850> >::allocator<std::_Rb_tree_node<std::pair<const std::basic_string<char, std::char_traits<char>, std::allocator<char> >, IEC61850_STRUCT::IED_61850> > >
FUNC 35ec4 a 0 __gnu_cxx::new_allocator<std::pair<const std::basic_string<char, std::char_traits<char>, std::allocator<char> >, IEC61850_STRUCT::IED_61850> >::~new_allocator
FUNC 35ece 22 0 __gnu_cxx::new_allocator<std::_Rb_tree_node<std::pair<const std::basic_string<char, std::char_traits<char>, std::allocator<char> >, IEC61850_STRUCT::IED_61850> > >::deallocate
FUNC 35ef0 e 0 __gnu_cxx::new_allocator<std::basic_string<char, std::char_traits<char>, std::allocator<char> > >::new_allocator
FUNC 35efe a 0 __gnu_cxx::new_allocator<std::_Rb_tree_node<std::pair<const std::basic_string<char, std::char_traits<char>, std::allocator<char> >, std::map<int, std::map<int, IEC104WF::stPointTable, std::less<int>, std::allocator<std::pair<const int, IEC104WF::stPointTable> > >, std::less<int>, std::allocator<std::pair<const int, std::map<int, IEC104WF::stPointTable, std::less<int>, std::allocator<std::pair<const int, IEC104WF::stPointTable> > > > > > > > >::new_allocator
FUNC 35f08 1e 0 std::allocator<std::pair<const std::basic_string<char, std::char_traits<char>, std::allocator<char> >, std::map<int, std::map<int, IEC104WF::stPointTable, std::less<int>, std::allocator<std::pair<const int, IEC104WF::stPointTable> > >, std::less<int>, std::allocator<std::pair<const int, std::map<int, IEC104WF::stPointTable, std::less<int>, std::allocator<std::pair<const int, IEC104WF::stPointTable> > > > > > > >::allocator<std::_Rb_tree_node<std::pair<const std::basic_string<char, std::char_traits<char>, std::allocator<char> >, std::map<int, std::map<int, IEC104WF::stPointTable, std::less<int>, std::allocator<std::pair<const int, IEC104WF::stPointTable> > >, std::less<int>, std::allocator<std::pair<const int, std::map<int, IEC104WF::stPointTable, std::less<int>, std::allocator<std::pair<const int, IEC104WF::stPointTable> > > > > > > > >
FUNC 35f26 a 0 __gnu_cxx::new_allocator<std::pair<const std::basic_string<char, std::char_traits<char>, std::allocator<char> >, std::map<int, std::map<int, IEC104WF::stPointTable, std::less<int>, std::allocator<std::pair<const int, IEC104WF::stPointTable> > >, std::less<int>, std::allocator<std::pair<const int, std::map<int, IEC104WF::stPointTable, std::less<int>, std::allocator<std::pair<const int, IEC104WF::stPointTable> > > > > > > >::~new_allocator
FUNC 35f30 22 0 __gnu_cxx::new_allocator<std::_Rb_tree_node<std::pair<const std::basic_string<char, std::char_traits<char>, std::allocator<char> >, std::map<int, std::map<int, IEC104WF::stPointTable, std::less<int>, std::allocator<std::pair<const int, IEC104WF::stPointTable> > >, std::less<int>, std::allocator<std::pair<const int, std::map<int, IEC104WF::stPointTable, std::less<int>, std::allocator<std::pair<const int, IEC104WF::stPointTable> > > > > > > > >::deallocate
FUNC 35f52 a 0 __gnu_cxx::new_allocator<std::_Rb_tree_node<std::pair<const int, std::map<int, IEC104WF::stPointTable, std::less<int>, std::allocator<std::pair<const int, IEC104WF::stPointTable> > > > > >::new_allocator
FUNC 35f5c e 0 std::_Rb_tree<int, std::pair<const int, std::map<int, IEC104WF::stPointTable, std::less<int>, std::allocator<std::pair<const int, IEC104WF::stPointTable> > > >, std::_Select1st<std::pair<const int, std::map<int, IEC104WF::stPointTable, std::less<int>, std::allocator<std::pair<const int, IEC104WF::stPointTable> > > > >, std::less<int>, std::allocator<std::pair<const int, std::map<int, IEC104WF::stPointTable, std::less<int>, std::allocator<std::pair<const int, IEC104WF::stPointTable> > > > > >::_M_get_Node_allocator
FUNC 35f6a 1e 0 std::allocator<std::pair<const int, std::map<int, IEC104WF::stPointTable, std::less<int>, std::allocator<std::pair<const int, IEC104WF::stPointTable> > > > >::allocator<std::_Rb_tree_node<std::pair<const int, std::map<int, IEC104WF::stPointTable, std::less<int>, std::allocator<std::pair<const int, IEC104WF::stPointTable> > > > > >
FUNC 35f88 a 0 __gnu_cxx::new_allocator<std::pair<const int, std::map<int, IEC104WF::stPointTable, std::less<int>, std::allocator<std::pair<const int, IEC104WF::stPointTable> > > > >::~new_allocator
FUNC 35f92 22 0 __gnu_cxx::new_allocator<std::_Rb_tree_node<std::pair<const int, std::map<int, IEC104WF::stPointTable, std::less<int>, std::allocator<std::pair<const int, IEC104WF::stPointTable> > > > > >::deallocate
FUNC 35fb4 a 0 __gnu_cxx::new_allocator<std::_Rb_tree_node<std::pair<const int, IEC104WF::stPointTable> > >::new_allocator
FUNC 35fbe e 0 std::_Rb_tree<int, std::pair<const int, IEC104WF::stPointTable>, std::_Select1st<std::pair<const int, IEC104WF::stPointTable> >, std::less<int>, std::allocator<std::pair<const int, IEC104WF::stPointTable> > >::_M_get_Node_allocator
FUNC 35fcc 1e 0 std::allocator<std::pair<const int, IEC104WF::stPointTable> >::allocator<std::_Rb_tree_node<std::pair<const int, IEC104WF::stPointTable> > >
FUNC 35fea a 0 __gnu_cxx::new_allocator<std::pair<const int, IEC104WF::stPointTable> >::~new_allocator
FUNC 35ff4 22 0 __gnu_cxx::new_allocator<std::_Rb_tree_node<std::pair<const int, IEC104WF::stPointTable> > >::deallocate
FUNC 36016 a 0 __gnu_cxx::new_allocator<std::_Rb_tree_node<std::pair<const std::basic_string<char, std::char_traits<char>, std::allocator<char> >, IEC103::stConfigParam> > >::new_allocator
FUNC 36020 a 0 __gnu_cxx::new_allocator<std::_Rb_tree_node<std::pair<const std::basic_string<char, std::char_traits<char>, std::allocator<char> >, std::map<std::basic_string<char, std::char_traits<char>, std::allocator<char> >, std::basic_string<char, std::char_traits<char>, std::allocator<char> >, std::less<std::basic_string<char, std::char_traits<char>, std::allocator<char> > >, std::allocator<std::pair<const std::basic_string<char, std::char_traits<char>, std::allocator<char> >, std::basic_string<char, std::char_traits<char>, std::allocator<char> > > > > > > >::new_allocator
FUNC 3602a 1e 0 std::allocator<std::pair<const std::basic_string<char, std::char_traits<char>, std::allocator<char> >, std::map<std::basic_string<char, std::char_traits<char>, std::allocator<char> >, std::basic_string<char, std::char_traits<char>, std::allocator<char> >, std::less<std::basic_string<char, std::char_traits<char>, std::allocator<char> > >, std::allocator<std::pair<const std::basic_string<char, std::char_traits<char>, std::allocator<char> >, std::basic_string<char, std::char_traits<char>, std::allocator<char> > > > > > >::allocator<std::_Rb_tree_node<std::pair<const std::basic_string<char, std::char_traits<char>, std::allocator<char> >, std::map<std::basic_string<char, std::char_traits<char>, std::allocator<char> >, std::basic_string<char, std::char_traits<char>, std::allocator<char> >, std::less<std::basic_string<char, std::char_traits<char>, std::allocator<char> > >, std::allocator<std::pair<const std::basic_string<char, std::char_traits<char>, std::allocator<char> >, std::basic_string<char, std::char_traits<char>, std::allocator<char> > > > > > > >
FUNC 36048 a 0 __gnu_cxx::new_allocator<std::pair<const std::basic_string<char, std::char_traits<char>, std::allocator<char> >, std::map<std::basic_string<char, std::char_traits<char>, std::allocator<char> >, std::basic_string<char, std::char_traits<char>, std::allocator<char> >, std::less<std::basic_string<char, std::char_traits<char>, std::allocator<char> > >, std::allocator<std::pair<const std::basic_string<char, std::char_traits<char>, std::allocator<char> >, std::basic_string<char, std::char_traits<char>, std::allocator<char> > > > > > >::~new_allocator
FUNC 36052 22 0 __gnu_cxx::new_allocator<std::_Rb_tree_node<std::pair<const std::basic_string<char, std::char_traits<char>, std::allocator<char> >, std::map<std::basic_string<char, std::char_traits<char>, std::allocator<char> >, std::basic_string<char, std::char_traits<char>, std::allocator<char> >, std::less<std::basic_string<char, std::char_traits<char>, std::allocator<char> > >, std::allocator<std::pair<const std::basic_string<char, std::char_traits<char>, std::allocator<char> >, std::basic_string<char, std::char_traits<char>, std::allocator<char> > > > > > > >::deallocate
FUNC 36074 e 0 __gnu_cxx::new_allocator<std::_Rb_tree_node<std::pair<const std::basic_string<char, std::char_traits<char>, std::allocator<char> >, std::basic_string<char, std::char_traits<char>, std::allocator<char> > > > >::new_allocator
FUNC 36082 e 0 __gnu_cxx::new_allocator<std::_Rb_tree_node<std::pair<const std::basic_string<char, std::char_traits<char>, std::allocator<char> >, IEC61850_STRUCT::IED_61850> > >::new_allocator
FUNC 36090 bb 0 std::_Rb_tree<std::basic_string<char, std::char_traits<char>, std::allocator<char> >, std::pair<const std::basic_string<char, std::char_traits<char>, std::allocator<char> >, IEC61850_STRUCT::IED_61850>, std::_Select1st<std::pair<const std::basic_string<char, std::char_traits<char>, std::allocator<char> >, IEC61850_STRUCT::IED_61850> >, std::less<std::basic_string<char, std::char_traits<char>, std::allocator<char> > >, std::allocator<std::pair<const std::basic_string<char, std::char_traits<char>, std::allocator<char> >, IEC61850_STRUCT::IED_61850> > >::_M_create_node
FUNC 3614c e 0 __gnu_cxx::new_allocator<std::_Rb_tree_node<std::pair<const std::basic_string<char, std::char_traits<char>, std::allocator<char> >, IEC103::stConfigParam> > >::new_allocator
FUNC 3615a bb 0 std::_Rb_tree<std::basic_string<char, std::char_traits<char>, std::allocator<char> >, std::pair<const std::basic_string<char, std::char_traits<char>, std::allocator<char> >, IEC103::stConfigParam>, std::_Select1st<std::pair<const std::basic_string<char, std::char_traits<char>, std::allocator<char> >, IEC103::stConfigParam> >, std::less<std::basic_string<char, std::char_traits<char>, std::allocator<char> > >, std::allocator<std::pair<const std::basic_string<char, std::char_traits<char>, std::allocator<char> >, IEC103::stConfigParam> > >::_M_create_node
FUNC 36216 e 0 __gnu_cxx::new_allocator<std::_Rb_tree_node<std::pair<const std::basic_string<char, std::char_traits<char>, std::allocator<char> >, std::map<std::basic_string<char, std::char_traits<char>, std::allocator<char> >, std::basic_string<char, std::char_traits<char>, std::allocator<char> >, std::less<std::basic_string<char, std::char_traits<char>, std::allocator<char> > >, std::allocator<std::pair<const std::basic_string<char, std::char_traits<char>, std::allocator<char> >, std::basic_string<char, std::char_traits<char>, std::allocator<char> > > > > > > >::new_allocator
FUNC 36224 bb 0 std::_Rb_tree<std::basic_string<char, std::char_traits<char>, std::allocator<char> >, std::pair<const std::basic_string<char, std::char_traits<char>, std::allocator<char> >, std::map<std::basic_string<char, std::char_traits<char>, std::allocator<char> >, std::basic_string<char, std::char_traits<char>, std::allocator<char> >, std::less<std::basic_string<char, std::char_traits<char>, std::allocator<char> > >, std::allocator<std::pair<const std::basic_string<char, std::char_traits<char>, std::allocator<char> >, std::basic_string<char, std::char_traits<char>, std::allocator<char> > > > > >, std::_Select1st<std::pair<const std::basic_string<char, std::char_traits<char>, std::allocator<char> >, std::map<std::basic_string<char, std::char_traits<char>, std::allocator<char> >, std::basic_string<char, std::char_traits<char>, std::allocator<char> >, std::less<std::basic_string<char, std::char_traits<char>, std::allocator<char> > >, std::allocator<std::pair<const std::basic_string<char, std::char_traits<char>, std::allocator<char> >, std::basic_string<char, std::char_traits<char>, std::allocator<char> > > > > > >, std::less<std::basic_string<char, std::char_traits<char>, std::allocator<char> > >, std::allocator<std::pair<const std::basic_string<char, std::char_traits<char>, std::allocator<char> >, std::map<std::basic_string<char, std::char_traits<char>, std::allocator<char> >, std::basic_string<char, std::char_traits<char>, std::allocator<char> >, std::less<std::basic_string<char, std::char_traits<char>, std::allocator<char> > >, std::allocator<std::pair<const std::basic_string<char, std::char_traits<char>, std::allocator<char> >, std::basic_string<char, std::char_traits<char>, std::allocator<char> > > > > > > >::_M_create_node
FUNC 362e0 e 0 __gnu_cxx::new_allocator<std::_Rb_tree_node<std::pair<const std::basic_string<char, std::char_traits<char>, std::allocator<char> >, std::map<int, std::map<int, IEC104WF::stPointTable, std::less<int>, std::allocator<std::pair<const int, IEC104WF::stPointTable> > >, std::less<int>, std::allocator<std::pair<const int, std::map<int, IEC104WF::stPointTable, std::less<int>, std::allocator<std::pair<const int, IEC104WF::stPointTable> > > > > > > > >::new_allocator
FUNC 362ee bb 0 std::_Rb_tree<std::basic_string<char, std::char_traits<char>, std::allocator<char> >, std::pair<const std::basic_string<char, std::char_traits<char>, std::allocator<char> >, std::map<int, std::map<int, IEC104WF::stPointTable, std::less<int>, std::allocator<std::pair<const int, IEC104WF::stPointTable> > >, std::less<int>, std::allocator<std::pair<const int, std::map<int, IEC104WF::stPointTable, std::less<int>, std::allocator<std::pair<const int, IEC104WF::stPointTable> > > > > > >, std::_Select1st<std::pair<const std::basic_string<char, std::char_traits<char>, std::allocator<char> >, std::map<int, std::map<int, IEC104WF::stPointTable, std::less<int>, std::allocator<std::pair<const int, IEC104WF::stPointTable> > >, std::less<int>, std::allocator<std::pair<const int, std::map<int, IEC104WF::stPointTable, std::less<int>, std::allocator<std::pair<const int, IEC104WF::stPointTable> > > > > > > >, std::less<std::basic_string<char, std::char_traits<char>, std::allocator<char> > >, std::allocator<std::pair<const std::basic_string<char, std::char_traits<char>, std::allocator<char> >, std::map<int, std::map<int, IEC104WF::stPointTable, std::less<int>, std::allocator<std::pair<const int, IEC104WF::stPointTable> > >, std::less<int>, std::allocator<std::pair<const int, std::map<int, IEC104WF::stPointTable, std::less<int>, std::allocator<std::pair<const int, IEC104WF::stPointTable> > > > > > > > >::_M_create_node
FUNC 363aa e 0 __gnu_cxx::new_allocator<std::_List_node<std::basic_string<char, std::char_traits<char>, std::allocator<char> > > >::new_allocator
FUNC 363b8 2c 0 std::_Rb_tree<std::basic_string<char, std::char_traits<char>, std::allocator<char> >, std::pair<const std::basic_string<char, std::char_traits<char>, std::allocator<char> >, IEC61850_STRUCT::IED_61850>, std::_Select1st<std::pair<const std::basic_string<char, std::char_traits<char>, std::allocator<char> >, IEC61850_STRUCT::IED_61850> >, std::less<std::basic_string<char, std::char_traits<char>, std::allocator<char> > >, std::allocator<std::pair<const std::basic_string<char, std::char_traits<char>, std::allocator<char> >, IEC61850_STRUCT::IED_61850> > >::_S_key
FUNC 363e4 12 0 std::_Rb_tree<std::basic_string<char, std::char_traits<char>, std::allocator<char> >, std::pair<const std::basic_string<char, std::char_traits<char>, std::allocator<char> >, IEC61850_STRUCT::IED_61850>, std::_Select1st<std::pair<const std::basic_string<char, std::char_traits<char>, std::allocator<char> >, IEC61850_STRUCT::IED_61850> >, std::less<std::basic_string<char, std::char_traits<char>, std::allocator<char> > >, std::allocator<std::pair<const std::basic_string<char, std::char_traits<char>, std::allocator<char> >, IEC61850_STRUCT::IED_61850> > >::_S_value
FUNC 363f6 2c 0 std::_Rb_tree<std::basic_string<char, std::char_traits<char>, std::allocator<char> >, std::pair<const std::basic_string<char, std::char_traits<char>, std::allocator<char> >, IEC61850_STRUCT::IED_61850>, std::_Select1st<std::pair<const std::basic_string<char, std::char_traits<char>, std::allocator<char> >, IEC61850_STRUCT::IED_61850> >, std::less<std::basic_string<char, std::char_traits<char>, std::allocator<char> > >, std::allocator<std::pair<const std::basic_string<char, std::char_traits<char>, std::allocator<char> >, IEC61850_STRUCT::IED_61850> > >::begin
FUNC 36422 2e 0 std::pair<std::_Rb_tree_iterator<std::pair<const std::basic_string<char, std::char_traits<char>, std::allocator<char> >, IEC61850_STRUCT::IED_61850> >, bool>::pair
FUNC 36450 28 0 std::_Rb_tree_iterator<std::pair<const std::basic_string<char, std::char_traits<char>, std::allocator<char> >, IEC61850_STRUCT::IED_61850> >::operator--
FUNC 36478 2c 0 std::_Rb_tree<int, std::pair<const int, IEC104WF::stPointTable>, std::_Select1st<std::pair<const int, IEC104WF::stPointTable> >, std::less<int>, std::allocator<std::pair<const int, IEC104WF::stPointTable> > >::_S_key
FUNC 364a4 12 0 std::_Rb_tree<int, std::pair<const int, IEC104WF::stPointTable>, std::_Select1st<std::pair<const int, IEC104WF::stPointTable> >, std::less<int>, std::allocator<std::pair<const int, IEC104WF::stPointTable> > >::_S_value
FUNC 364b6 bb 0 std::_Rb_tree<int, std::pair<const int, IEC104WF::stPointTable>, std::_Select1st<std::pair<const int, IEC104WF::stPointTable> >, std::less<int>, std::allocator<std::pair<const int, IEC104WF::stPointTable> > >::_M_create_node
FUNC 36572 2c 0 std::_Rb_tree<int, std::pair<const int, IEC104WF::stPointTable>, std::_Select1st<std::pair<const int, IEC104WF::stPointTable> >, std::less<int>, std::allocator<std::pair<const int, IEC104WF::stPointTable> > >::begin
FUNC 3659e 2e 0 std::pair<std::_Rb_tree_iterator<std::pair<const int, IEC104WF::stPointTable> >, bool>::pair
FUNC 365cc 28 0 std::_Rb_tree_iterator<std::pair<const int, IEC104WF::stPointTable> >::operator--
FUNC 365f4 2c 0 std::_Rb_tree<int, std::pair<const int, std::map<int, IEC104WF::stPointTable, std::less<int>, std::allocator<std::pair<const int, IEC104WF::stPointTable> > > >, std::_Select1st<std::pair<const int, std::map<int, IEC104WF::stPointTable, std::less<int>, std::allocator<std::pair<const int, IEC104WF::stPointTable> > > > >, std::less<int>, std::allocator<std::pair<const int, std::map<int, IEC104WF::stPointTable, std::less<int>, std::allocator<std::pair<const int, IEC104WF::stPointTable> > > > > >::_S_key
FUNC 36620 70 0 std::_Rb_tree<int, std::pair<const int, IEC104WF::stPointTable>, std::_Select1st<std::pair<const int, IEC104WF::stPointTable> >, std::less<int>, std::allocator<std::pair<const int, IEC104WF::stPointTable> > >::_Rb_tree_impl<std::less<int>, false>::_Rb_tree_impl
FUNC 36690 12 0 std::_Rb_tree<int, std::pair<const int, std::map<int, IEC104WF::stPointTable, std::less<int>, std::allocator<std::pair<const int, IEC104WF::stPointTable> > > >, std::_Select1st<std::pair<const int, std::map<int, IEC104WF::stPointTable, std::less<int>, std::allocator<std::pair<const int, IEC104WF::stPointTable> > > > >, std::less<int>, std::allocator<std::pair<const int, std::map<int, IEC104WF::stPointTable, std::less<int>, std::allocator<std::pair<const int, IEC104WF::stPointTable> > > > > >::_S_value
FUNC 366a2 bb 0 std::_Rb_tree<int, std::pair<const int, std::map<int, IEC104WF::stPointTable, std::less<int>, std::allocator<std::pair<const int, IEC104WF::stPointTable> > > >, std::_Select1st<std::pair<const int, std::map<int, IEC104WF::stPointTable, std::less<int>, std::allocator<std::pair<const int, IEC104WF::stPointTable> > > > >, std::less<int>, std::allocator<std::pair<const int, std::map<int, IEC104WF::stPointTable, std::less<int>, std::allocator<std::pair<const int, IEC104WF::stPointTable> > > > > >::_M_create_node
FUNC 3675e 2c 0 std::_Rb_tree<int, std::pair<const int, std::map<int, IEC104WF::stPointTable, std::less<int>, std::allocator<std::pair<const int, IEC104WF::stPointTable> > > >, std::_Select1st<std::pair<const int, std::map<int, IEC104WF::stPointTable, std::less<int>, std::allocator<std::pair<const int, IEC104WF::stPointTable> > > > >, std::less<int>, std::allocator<std::pair<const int, std::map<int, IEC104WF::stPointTable, std::less<int>, std::allocator<std::pair<const int, IEC104WF::stPointTable> > > > > >::begin
FUNC 3678a 2e 0 std::pair<std::_Rb_tree_iterator<std::pair<const int, std::map<int, IEC104WF::stPointTable, std::less<int>, std::allocator<std::pair<const int, IEC104WF::stPointTable> > > > >, bool>::pair
FUNC 367b8 28 0 std::_Rb_tree_iterator<std::pair<const int, std::map<int, IEC104WF::stPointTable, std::less<int>, std::allocator<std::pair<const int, IEC104WF::stPointTable> > > > >::operator--
FUNC 367e0 2c 0 std::_Rb_tree<std::basic_string<char, std::char_traits<char>, std::allocator<char> >, std::pair<const std::basic_string<char, std::char_traits<char>, std::allocator<char> >, std::map<int, std::map<int, IEC104WF::stPointTable, std::less<int>, std::allocator<std::pair<const int, IEC104WF::stPointTable> > >, std::less<int>, std::allocator<std::pair<const int, std::map<int, IEC104WF::stPointTable, std::less<int>, std::allocator<std::pair<const int, IEC104WF::stPointTable> > > > > > >, std::_Select1st<std::pair<const std::basic_string<char, std::char_traits<char>, std::allocator<char> >, std::map<int, std::map<int, IEC104WF::stPointTable, std::less<int>, std::allocator<std::pair<const int, IEC104WF::stPointTable> > >, std::less<int>, std::allocator<std::pair<const int, std::map<int, IEC104WF::stPointTable, std::less<int>, std::allocator<std::pair<const int, IEC104WF::stPointTable> > > > > > > >, std::less<std::basic_string<char, std::char_traits<char>, std::allocator<char> > >, std::allocator<std::pair<const std::basic_string<char, std::char_traits<char>, std::allocator<char> >, std::map<int, std::map<int, IEC104WF::stPointTable, std::less<int>, std::allocator<std::pair<const int, IEC104WF::stPointTable> > >, std::less<int>, std::allocator<std::pair<const int, std::map<int, IEC104WF::stPointTable, std::less<int>, std::allocator<std::pair<const int, IEC104WF::stPointTable> > > > > > > > >::_S_key
FUNC 3680c 70 0 std::_Rb_tree<int, std::pair<const int, std::map<int, IEC104WF::stPointTable, std::less<int>, std::allocator<std::pair<const int, IEC104WF::stPointTable> > > >, std::_Select1st<std::pair<const int, std::map<int, IEC104WF::stPointTable, std::less<int>, std::allocator<std::pair<const int, IEC104WF::stPointTable> > > > >, std::less<int>, std::allocator<std::pair<const int, std::map<int, IEC104WF::stPointTable, std::less<int>, std::allocator<std::pair<const int, IEC104WF::stPointTable> > > > > >::_Rb_tree_impl<std::less<int>, false>::_Rb_tree_impl
FUNC 3687c 12 0 std::_Rb_tree<std::basic_string<char, std::char_traits<char>, std::allocator<char> >, std::pair<const std::basic_string<char, std::char_traits<char>, std::allocator<char> >, std::map<int, std::map<int, IEC104WF::stPointTable, std::less<int>, std::allocator<std::pair<const int, IEC104WF::stPointTable> > >, std::less<int>, std::allocator<std::pair<const int, std::map<int, IEC104WF::stPointTable, std::less<int>, std::allocator<std::pair<const int, IEC104WF::stPointTable> > > > > > >, std::_Select1st<std::pair<const std::basic_string<char, std::char_traits<char>, std::allocator<char> >, std::map<int, std::map<int, IEC104WF::stPointTable, std::less<int>, std::allocator<std::pair<const int, IEC104WF::stPointTable> > >, std::less<int>, std::allocator<std::pair<const int, std::map<int, IEC104WF::stPointTable, std::less<int>, std::allocator<std::pair<const int, IEC104WF::stPointTable> > > > > > > >, std::less<std::basic_string<char, std::char_traits<char>, std::allocator<char> > >, std::allocator<std::pair<const std::basic_string<char, std::char_traits<char>, std::allocator<char> >, std::map<int, std::map<int, IEC104WF::stPointTable, std::less<int>, std::allocator<std::pair<const int, IEC104WF::stPointTable> > >, std::less<int>, std::allocator<std::pair<const int, std::map<int, IEC104WF::stPointTable, std::less<int>, std::allocator<std::pair<const int, IEC104WF::stPointTable> > > > > > > > >::_S_value
FUNC 3688e 2c 0 std::_Rb_tree<std::basic_string<char, std::char_traits<char>, std::allocator<char> >, std::pair<const std::basic_string<char, std::char_traits<char>, std::allocator<char> >, std::map<int, std::map<int, IEC104WF::stPointTable, std::less<int>, std::allocator<std::pair<const int, IEC104WF::stPointTable> > >, std::less<int>, std::allocator<std::pair<const int, std::map<int, IEC104WF::stPointTable, std::less<int>, std::allocator<std::pair<const int, IEC104WF::stPointTable> > > > > > >, std::_Select1st<std::pair<const std::basic_string<char, std::char_traits<char>, std::allocator<char> >, std::map<int, std::map<int, IEC104WF::stPointTable, std::less<int>, std::allocator<std::pair<const int, IEC104WF::stPointTable> > >, std::less<int>, std::allocator<std::pair<const int, std::map<int, IEC104WF::stPointTable, std::less<int>, std::allocator<std::pair<const int, IEC104WF::stPointTable> > > > > > > >, std::less<std::basic_string<char, std::char_traits<char>, std::allocator<char> > >, std::allocator<std::pair<const std::basic_string<char, std::char_traits<char>, std::allocator<char> >, std::map<int, std::map<int, IEC104WF::stPointTable, std::less<int>, std::allocator<std::pair<const int, IEC104WF::stPointTable> > >, std::less<int>, std::allocator<std::pair<const int, std::map<int, IEC104WF::stPointTable, std::less<int>, std::allocator<std::pair<const int, IEC104WF::stPointTable> > > > > > > > >::begin
FUNC 368ba 2e 0 std::pair<std::_Rb_tree_iterator<std::pair<const std::basic_string<char, std::char_traits<char>, std::allocator<char> >, std::map<int, std::map<int, IEC104WF::stPointTable, std::less<int>, std::allocator<std::pair<const int, IEC104WF::stPointTable> > >, std::less<int>, std::allocator<std::pair<const int, std::map<int, IEC104WF::stPointTable, std::less<int>, std::allocator<std::pair<const int, IEC104WF::stPointTable> > > > > > > >, bool>::pair
FUNC 368e8 28 0 std::_Rb_tree_iterator<std::pair<const std::basic_string<char, std::char_traits<char>, std::allocator<char> >, std::map<int, std::map<int, IEC104WF::stPointTable, std::less<int>, std::allocator<std::pair<const int, IEC104WF::stPointTable> > >, std::less<int>, std::allocator<std::pair<const int, std::map<int, IEC104WF::stPointTable, std::less<int>, std::allocator<std::pair<const int, IEC104WF::stPointTable> > > > > > > >::operator--
FUNC 36910 2c 0 std::_Rb_tree<std::basic_string<char, std::char_traits<char>, std::allocator<char> >, std::pair<const std::basic_string<char, std::char_traits<char>, std::allocator<char> >, IEC103::stConfigParam>, std::_Select1st<std::pair<const std::basic_string<char, std::char_traits<char>, std::allocator<char> >, IEC103::stConfigParam> >, std::less<std::basic_string<char, std::char_traits<char>, std::allocator<char> > >, std::allocator<std::pair<const std::basic_string<char, std::char_traits<char>, std::allocator<char> >, IEC103::stConfigParam> > >::_S_key
FUNC 3693c 12 0 std::_Rb_tree<std::basic_string<char, std::char_traits<char>, std::allocator<char> >, std::pair<const std::basic_string<char, std::char_traits<char>, std::allocator<char> >, IEC103::stConfigParam>, std::_Select1st<std::pair<const std::basic_string<char, std::char_traits<char>, std::allocator<char> >, IEC103::stConfigParam> >, std::less<std::basic_string<char, std::char_traits<char>, std::allocator<char> > >, std::allocator<std::pair<const std::basic_string<char, std::char_traits<char>, std::allocator<char> >, IEC103::stConfigParam> > >::_S_value
FUNC 3694e 2e 0 std::pair<std::_Rb_tree_iterator<std::pair<const std::basic_string<char, std::char_traits<char>, std::allocator<char> >, IEC103::stConfigParam> >, bool>::pair
FUNC 3697c 28 0 std::_Rb_tree_iterator<std::pair<const std::basic_string<char, std::char_traits<char>, std::allocator<char> >, IEC103::stConfigParam> >::operator--
FUNC 369a4 2c 0 std::_Rb_tree<std::basic_string<char, std::char_traits<char>, std::allocator<char> >, std::pair<const std::basic_string<char, std::char_traits<char>, std::allocator<char> >, std::map<std::basic_string<char, std::char_traits<char>, std::allocator<char> >, std::basic_string<char, std::char_traits<char>, std::allocator<char> >, std::less<std::basic_string<char, std::char_traits<char>, std::allocator<char> > >, std::allocator<std::pair<const std::basic_string<char, std::char_traits<char>, std::allocator<char> >, std::basic_string<char, std::char_traits<char>, std::allocator<char> > > > > >, std::_Select1st<std::pair<const std::basic_string<char, std::char_traits<char>, std::allocator<char> >, std::map<std::basic_string<char, std::char_traits<char>, std::allocator<char> >, std::basic_string<char, std::char_traits<char>, std::allocator<char> >, std::less<std::basic_string<char, std::char_traits<char>, std::allocator<char> > >, std::allocator<std::pair<const std::basic_string<char, std::char_traits<char>, std::allocator<char> >, std::basic_string<char, std::char_traits<char>, std::allocator<char> > > > > > >, std::less<std::basic_string<char, std::char_traits<char>, std::allocator<char> > >, std::allocator<std::pair<const std::basic_string<char, std::char_traits<char>, std::allocator<char> >, std::map<std::basic_string<char, std::char_traits<char>, std::allocator<char> >, std::basic_string<char, std::char_traits<char>, std::allocator<char> >, std::less<std::basic_string<char, std::char_traits<char>, std::allocator<char> > >, std::allocator<std::pair<const std::basic_string<char, std::char_traits<char>, std::allocator<char> >, std::basic_string<char, std::char_traits<char>, std::allocator<char> > > > > > > >::_S_key
FUNC 369d0 12 0 std::_Rb_tree<std::basic_string<char, std::char_traits<char>, std::allocator<char> >, std::pair<const std::basic_string<char, std::char_traits<char>, std::allocator<char> >, std::map<std::basic_string<char, std::char_traits<char>, std::allocator<char> >, std::basic_string<char, std::char_traits<char>, std::allocator<char> >, std::less<std::basic_string<char, std::char_traits<char>, std::allocator<char> > >, std::allocator<std::pair<const std::basic_string<char, std::char_traits<char>, std::allocator<char> >, std::basic_string<char, std::char_traits<char>, std::allocator<char> > > > > >, std::_Select1st<std::pair<const std::basic_string<char, std::char_traits<char>, std::allocator<char> >, std::map<std::basic_string<char, std::char_traits<char>, std::allocator<char> >, std::basic_string<char, std::char_traits<char>, std::allocator<char> >, std::less<std::basic_string<char, std::char_traits<char>, std::allocator<char> > >, std::allocator<std::pair<const std::basic_string<char, std::char_traits<char>, std::allocator<char> >, std::basic_string<char, std::char_traits<char>, std::allocator<char> > > > > > >, std::less<std::basic_string<char, std::char_traits<char>, std::allocator<char> > >, std::allocator<std::pair<const std::basic_string<char, std::char_traits<char>, std::allocator<char> >, std::map<std::basic_string<char, std::char_traits<char>, std::allocator<char> >, std::basic_string<char, std::char_traits<char>, std::allocator<char> >, std::less<std::basic_string<char, std::char_traits<char>, std::allocator<char> > >, std::allocator<std::pair<const std::basic_string<char, std::char_traits<char>, std::allocator<char> >, std::basic_string<char, std::char_traits<char>, std::allocator<char> > > > > > > >::_S_value
FUNC 369e2 2c 0 std::_Rb_tree<std::basic_string<char, std::char_traits<char>, std::allocator<char> >, std::pair<const std::basic_string<char, std::char_traits<char>, std::allocator<char> >, std::map<std::basic_string<char, std::char_traits<char>, std::allocator<char> >, std::basic_string<char, std::char_traits<char>, std::allocator<char> >, std::less<std::basic_string<char, std::char_traits<char>, std::allocator<char> > >, std::allocator<std::pair<const std::basic_string<char, std::char_traits<char>, std::allocator<char> >, std::basic_string<char, std::char_traits<char>, std::allocator<char> > > > > >, std::_Select1st<std::pair<const std::basic_string<char, std::char_traits<char>, std::allocator<char> >, std::map<std::basic_string<char, std::char_traits<char>, std::allocator<char> >, std::basic_string<char, std::char_traits<char>, std::allocator<char> >, std::less<std::basic_string<char, std::char_traits<char>, std::allocator<char> > >, std::allocator<std::pair<const std::basic_string<char, std::char_traits<char>, std::allocator<char> >, std::basic_string<char, std::char_traits<char>, std::allocator<char> > > > > > >, std::less<std::basic_string<char, std::char_traits<char>, std::allocator<char> > >, std::allocator<std::pair<const std::basic_string<char, std::char_traits<char>, std::allocator<char> >, std::map<std::basic_string<char, std::char_traits<char>, std::allocator<char> >, std::basic_string<char, std::char_traits<char>, std::allocator<char> >, std::less<std::basic_string<char, std::char_traits<char>, std::allocator<char> > >, std::allocator<std::pair<const std::basic_string<char, std::char_traits<char>, std::allocator<char> >, std::basic_string<char, std::char_traits<char>, std::allocator<char> > > > > > > >::begin
FUNC 36a0e 2e 0 std::pair<std::_Rb_tree_iterator<std::pair<const std::basic_string<char, std::char_traits<char>, std::allocator<char> >, std::map<std::basic_string<char, std::char_traits<char>, std::allocator<char> >, std::basic_string<char, std::char_traits<char>, std::allocator<char> >, std::less<std::basic_string<char, std::char_traits<char>, std::allocator<char> > >, std::allocator<std::pair<const std::basic_string<char, std::char_traits<char>, std::allocator<char> >, std::basic_string<char, std::char_traits<char>, std::allocator<char> > > > > > >, bool>::pair
FUNC 36a3c 28 0 std::_Rb_tree_iterator<std::pair<const std::basic_string<char, std::char_traits<char>, std::allocator<char> >, std::map<std::basic_string<char, std::char_traits<char>, std::allocator<char> >, std::basic_string<char, std::char_traits<char>, std::allocator<char> >, std::less<std::basic_string<char, std::char_traits<char>, std::allocator<char> > >, std::allocator<std::pair<const std::basic_string<char, std::char_traits<char>, std::allocator<char> >, std::basic_string<char, std::char_traits<char>, std::allocator<char> > > > > > >::operator--
FUNC 36a64 54 0 __gnu_cxx::new_allocator<std::_List_node<std::basic_string<char, std::char_traits<char>, std::allocator<char> > > >::allocate
FUNC 36ab8 a 0 __gnu_cxx::new_allocator<std::pair<const std::basic_string<char, std::char_traits<char>, std::allocator<char> >, IEC61850_STRUCT::IED_61850> >::new_allocator
FUNC 36ac2 a 0 __gnu_cxx::new_allocator<std::pair<const std::basic_string<char, std::char_traits<char>, std::allocator<char> >, std::map<int, std::map<int, IEC104WF::stPointTable, std::less<int>, std::allocator<std::pair<const int, IEC104WF::stPointTable> > >, std::less<int>, std::allocator<std::pair<const int, std::map<int, IEC104WF::stPointTable, std::less<int>, std::allocator<std::pair<const int, IEC104WF::stPointTable> > > > > > > >::new_allocator
FUNC 36acc a 0 __gnu_cxx::new_allocator<std::pair<const int, std::map<int, IEC104WF::stPointTable, std::less<int>, std::allocator<std::pair<const int, IEC104WF::stPointTable> > > > >::new_allocator
FUNC 36ad6 a 0 __gnu_cxx::new_allocator<std::pair<const int, IEC104WF::stPointTable> >::new_allocator
FUNC 36ae0 a 0 __gnu_cxx::new_allocator<std::pair<const std::basic_string<char, std::char_traits<char>, std::allocator<char> >, std::map<std::basic_string<char, std::char_traits<char>, std::allocator<char> >, std::basic_string<char, std::char_traits<char>, std::allocator<char> >, std::less<std::basic_string<char, std::char_traits<char>, std::allocator<char> > >, std::allocator<std::pair<const std::basic_string<char, std::char_traits<char>, std::allocator<char> >, std::basic_string<char, std::char_traits<char>, std::allocator<char> > > > > > >::new_allocator
FUNC 36aea 24 0 std::_Rb_tree<std::basic_string<char, std::char_traits<char>, std::allocator<char> >, std::pair<const std::basic_string<char, std::char_traits<char>, std::allocator<char> >, IEC61850_STRUCT::IED_61850>, std::_Select1st<std::pair<const std::basic_string<char, std::char_traits<char>, std::allocator<char> >, IEC61850_STRUCT::IED_61850> >, std::less<std::basic_string<char, std::char_traits<char>, std::allocator<char> > >, std::allocator<std::pair<const std::basic_string<char, std::char_traits<char>, std::allocator<char> >, IEC61850_STRUCT::IED_61850> > >::_M_get_node
FUNC 36b0e 6b 0 std::pair<const std::basic_string<char, std::char_traits<char>, std::allocator<char> >, IEC61850_STRUCT::IED_61850>::pair
FUNC 36b7a 77 0 __gnu_cxx::new_allocator<std::pair<const std::basic_string<char, std::char_traits<char>, std::allocator<char> >, IEC61850_STRUCT::IED_61850> >::construct
FUNC 36bf2 24 0 std::_Rb_tree<std::basic_string<char, std::char_traits<char>, std::allocator<char> >, std::pair<const std::basic_string<char, std::char_traits<char>, std::allocator<char> >, IEC103::stConfigParam>, std::_Select1st<std::pair<const std::basic_string<char, std::char_traits<char>, std::allocator<char> >, IEC103::stConfigParam> >, std::less<std::basic_string<char, std::char_traits<char>, std::allocator<char> > >, std::allocator<std::pair<const std::basic_string<char, std::char_traits<char>, std::allocator<char> >, IEC103::stConfigParam> > >::_M_get_node
FUNC 36c16 6b 0 std::pair<const std::basic_string<char, std::char_traits<char>, std::allocator<char> >, IEC103::stConfigParam>::pair
FUNC 36c82 77 0 __gnu_cxx::new_allocator<std::pair<const std::basic_string<char, std::char_traits<char>, std::allocator<char> >, IEC103::stConfigParam> >::construct
FUNC 36cfa 24 0 std::_Rb_tree<std::basic_string<char, std::char_traits<char>, std::allocator<char> >, std::pair<const std::basic_string<char, std::char_traits<char>, std::allocator<char> >, std::map<std::basic_string<char, std::char_traits<char>, std::allocator<char> >, std::basic_string<char, std::char_traits<char>, std::allocator<char> >, std::less<std::basic_string<char, std::char_traits<char>, std::allocator<char> > >, std::allocator<std::pair<const std::basic_string<char, std::char_traits<char>, std::allocator<char> >, std::basic_string<char, std::char_traits<char>, std::allocator<char> > > > > >, std::_Select1st<std::pair<const std::basic_string<char, std::char_traits<char>, std::allocator<char> >, std::map<std::basic_string<char, std::char_traits<char>, std::allocator<char> >, std::basic_string<char, std::char_traits<char>, std::allocator<char> >, std::less<std::basic_string<char, std::char_traits<char>, std::allocator<char> > >, std::allocator<std::pair<const std::basic_string<char, std::char_traits<char>, std::allocator<char> >, std::basic_string<char, std::char_traits<char>, std::allocator<char> > > > > > >, std::less<std::basic_string<char, std::char_traits<char>, std::allocator<char> > >, std::allocator<std::pair<const std::basic_string<char, std::char_traits<char>, std::allocator<char> >, std::map<std::basic_string<char, std::char_traits<char>, std::allocator<char> >, std::basic_string<char, std::char_traits<char>, std::allocator<char> >, std::less<std::basic_string<char, std::char_traits<char>, std::allocator<char> > >, std::allocator<std::pair<const std::basic_string<char, std::char_traits<char>, std::allocator<char> >, std::basic_string<char, std::char_traits<char>, std::allocator<char> > > > > > > >::_M_get_node
FUNC 36d1e 6b 0 std::pair<const std::basic_string<char, std::char_traits<char>, std::allocator<char> >, std::map<std::basic_string<char, std::char_traits<char>, std::allocator<char> >, std::basic_string<char, std::char_traits<char>, std::allocator<char> >, std::less<std::basic_string<char, std::char_traits<char>, std::allocator<char> > >, std::allocator<std::pair<const std::basic_string<char, std::char_traits<char>, std::allocator<char> >, std::basic_string<char, std::char_traits<char>, std::allocator<char> > > > > >::pair
FUNC 36d8a 77 0 __gnu_cxx::new_allocator<std::pair<const std::basic_string<char, std::char_traits<char>, std::allocator<char> >, std::map<std::basic_string<char, std::char_traits<char>, std::allocator<char> >, std::basic_string<char, std::char_traits<char>, std::allocator<char> >, std::less<std::basic_string<char, std::char_traits<char>, std::allocator<char> > >, std::allocator<std::pair<const std::basic_string<char, std::char_traits<char>, std::allocator<char> >, std::basic_string<char, std::char_traits<char>, std::allocator<char> > > > > > >::construct
FUNC 36e02 24 0 std::_Rb_tree<std::basic_string<char, std::char_traits<char>, std::allocator<char> >, std::pair<const std::basic_string<char, std::char_traits<char>, std::allocator<char> >, std::map<int, std::map<int, IEC104WF::stPointTable, std::less<int>, std::allocator<std::pair<const int, IEC104WF::stPointTable> > >, std::less<int>, std::allocator<std::pair<const int, std::map<int, IEC104WF::stPointTable, std::less<int>, std::allocator<std::pair<const int, IEC104WF::stPointTable> > > > > > >, std::_Select1st<std::pair<const std::basic_string<char, std::char_traits<char>, std::allocator<char> >, std::map<int, std::map<int, IEC104WF::stPointTable, std::less<int>, std::allocator<std::pair<const int, IEC104WF::stPointTable> > >, std::less<int>, std::allocator<std::pair<const int, std::map<int, IEC104WF::stPointTable, std::less<int>, std::allocator<std::pair<const int, IEC104WF::stPointTable> > > > > > > >, std::less<std::basic_string<char, std::char_traits<char>, std::allocator<char> > >, std::allocator<std::pair<const std::basic_string<char, std::char_traits<char>, std::allocator<char> >, std::map<int, std::map<int, IEC104WF::stPointTable, std::less<int>, std::allocator<std::pair<const int, IEC104WF::stPointTable> > >, std::less<int>, std::allocator<std::pair<const int, std::map<int, IEC104WF::stPointTable, std::less<int>, std::allocator<std::pair<const int, IEC104WF::stPointTable> > > > > > > > >::_M_get_node
FUNC 36e26 6b 0 std::pair<const std::basic_string<char, std::char_traits<char>, std::allocator<char> >, std::map<int, std::map<int, IEC104WF::stPointTable, std::less<int>, std::allocator<std::pair<const int, IEC104WF::stPointTable> > >, std::less<int>, std::allocator<std::pair<const int, std::map<int, IEC104WF::stPointTable, std::less<int>, std::allocator<std::pair<const int, IEC104WF::stPointTable> > > > > > >::pair
FUNC 36e92 77 0 __gnu_cxx::new_allocator<std::pair<const std::basic_string<char, std::char_traits<char>, std::allocator<char> >, std::map<int, std::map<int, IEC104WF::stPointTable, std::less<int>, std::allocator<std::pair<const int, IEC104WF::stPointTable> > >, std::less<int>, std::allocator<std::pair<const int, std::map<int, IEC104WF::stPointTable, std::less<int>, std::allocator<std::pair<const int, IEC104WF::stPointTable> > > > > > > >::construct
FUNC 36f09 12 0 std::_Rb_tree<std::basic_string<char, std::char_traits<char>, std::allocator<char> >, std::pair<const std::basic_string<char, std::char_traits<char>, std::allocator<char> >, IEC61850_STRUCT::IED_61850>, std::_Select1st<std::pair<const std::basic_string<char, std::char_traits<char>, std::allocator<char> >, IEC61850_STRUCT::IED_61850> >, std::less<std::basic_string<char, std::char_traits<char>, std::allocator<char> > >, std::allocator<std::pair<const std::basic_string<char, std::char_traits<char>, std::allocator<char> >, IEC61850_STRUCT::IED_61850> > >::_S_value
FUNC 36f1b 12 0 std::_Rb_tree<int, std::pair<const int, IEC104WF::stPointTable>, std::_Select1st<std::pair<const int, IEC104WF::stPointTable> >, std::less<int>, std::allocator<std::pair<const int, IEC104WF::stPointTable> > >::_S_value
FUNC 36f2e 24 0 std::_Rb_tree<int, std::pair<const int, IEC104WF::stPointTable>, std::_Select1st<std::pair<const int, IEC104WF::stPointTable> >, std::less<int>, std::allocator<std::pair<const int, IEC104WF::stPointTable> > >::_M_get_node
FUNC 36f52 39 0 std::pair<const int, IEC104WF::stPointTable>::pair
FUNC 36f8c 77 0 __gnu_cxx::new_allocator<std::pair<const int, IEC104WF::stPointTable> >::construct
FUNC 37003 12 0 std::_Rb_tree<int, std::pair<const int, std::map<int, IEC104WF::stPointTable, std::less<int>, std::allocator<std::pair<const int, IEC104WF::stPointTable> > > >, std::_Select1st<std::pair<const int, std::map<int, IEC104WF::stPointTable, std::less<int>, std::allocator<std::pair<const int, IEC104WF::stPointTable> > > > >, std::less<int>, std::allocator<std::pair<const int, std::map<int, IEC104WF::stPointTable, std::less<int>, std::allocator<std::pair<const int, IEC104WF::stPointTable> > > > > >::_S_value
FUNC 37016 25 0 std::allocator<std::_Rb_tree_node<std::pair<const int, IEC104WF::stPointTable> > >::allocator
FUNC 3703c 24 0 std::_Rb_tree<int, std::pair<const int, std::map<int, IEC104WF::stPointTable, std::less<int>, std::allocator<std::pair<const int, IEC104WF::stPointTable> > > >, std::_Select1st<std::pair<const int, std::map<int, IEC104WF::stPointTable, std::less<int>, std::allocator<std::pair<const int, IEC104WF::stPointTable> > > > >, std::less<int>, std::allocator<std::pair<const int, std::map<int, IEC104WF::stPointTable, std::less<int>, std::allocator<std::pair<const int, IEC104WF::stPointTable> > > > > >::_M_get_node
FUNC 37060 39 0 std::pair<const int, std::map<int, IEC104WF::stPointTable, std::less<int>, std::allocator<std::pair<const int, IEC104WF::stPointTable> > > >::pair
FUNC 3709a 77 0 __gnu_cxx::new_allocator<std::pair<const int, std::map<int, IEC104WF::stPointTable, std::less<int>, std::allocator<std::pair<const int, IEC104WF::stPointTable> > > > >::construct
FUNC 37111 12 0 std::_Rb_tree<std::basic_string<char, std::char_traits<char>, std::allocator<char> >, std::pair<const std::basic_string<char, std::char_traits<char>, std::allocator<char> >, std::map<int, std::map<int, IEC104WF::stPointTable, std::less<int>, std::allocator<std::pair<const int, IEC104WF::stPointTable> > >, std::less<int>, std::allocator<std::pair<const int, std::map<int, IEC104WF::stPointTable, std::less<int>, std::allocator<std::pair<const int, IEC104WF::stPointTable> > > > > > >, std::_Select1st<std::pair<const std::basic_string<char, std::char_traits<char>, std::allocator<char> >, std::map<int, std::map<int, IEC104WF::stPointTable, std::less<int>, std::allocator<std::pair<const int, IEC104WF::stPointTable> > >, std::less<int>, std::allocator<std::pair<const int, std::map<int, IEC104WF::stPointTable, std::less<int>, std::allocator<std::pair<const int, IEC104WF::stPointTable> > > > > > > >, std::less<std::basic_string<char, std::char_traits<char>, std::allocator<char> > >, std::allocator<std::pair<const std::basic_string<char, std::char_traits<char>, std::allocator<char> >, std::map<int, std::map<int, IEC104WF::stPointTable, std::less<int>, std::allocator<std::pair<const int, IEC104WF::stPointTable> > >, std::less<int>, std::allocator<std::pair<const int, std::map<int, IEC104WF::stPointTable, std::less<int>, std::allocator<std::pair<const int, IEC104WF::stPointTable> > > > > > > > >::_S_value
FUNC 37124 25 0 std::allocator<std::_Rb_tree_node<std::pair<const int, std::map<int, IEC104WF::stPointTable, std::less<int>, std::allocator<std::pair<const int, IEC104WF::stPointTable> > > > > >::allocator
FUNC 37149 12 0 std::_Rb_tree<std::basic_string<char, std::char_traits<char>, std::allocator<char> >, std::pair<const std::basic_string<char, std::char_traits<char>, std::allocator<char> >, IEC103::stConfigParam>, std::_Select1st<std::pair<const std::basic_string<char, std::char_traits<char>, std::allocator<char> >, IEC103::stConfigParam> >, std::less<std::basic_string<char, std::char_traits<char>, std::allocator<char> > >, std::allocator<std::pair<const std::basic_string<char, std::char_traits<char>, std::allocator<char> >, IEC103::stConfigParam> > >::_S_value
FUNC 3715b 12 0 std::_Rb_tree<std::basic_string<char, std::char_traits<char>, std::allocator<char> >, std::pair<const std::basic_string<char, std::char_traits<char>, std::allocator<char> >, std::map<std::basic_string<char, std::char_traits<char>, std::allocator<char> >, std::basic_string<char, std::char_traits<char>, std::allocator<char> >, std::less<std::basic_string<char, std::char_traits<char>, std::allocator<char> > >, std::allocator<std::pair<const std::basic_string<char, std::char_traits<char>, std::allocator<char> >, std::basic_string<char, std::char_traits<char>, std::allocator<char> > > > > >, std::_Select1st<std::pair<const std::basic_string<char, std::char_traits<char>, std::allocator<char> >, std::map<std::basic_string<char, std::char_traits<char>, std::allocator<char> >, std::basic_string<char, std::char_traits<char>, std::allocator<char> >, std::less<std::basic_string<char, std::char_traits<char>, std::allocator<char> > >, std::allocator<std::pair<const std::basic_string<char, std::char_traits<char>, std::allocator<char> >, std::basic_string<char, std::char_traits<char>, std::allocator<char> > > > > > >, std::less<std::basic_string<char, std::char_traits<char>, std::allocator<char> > >, std::allocator<std::pair<const std::basic_string<char, std::char_traits<char>, std::allocator<char> >, std::map<std::basic_string<char, std::char_traits<char>, std::allocator<char> >, std::basic_string<char, std::char_traits<char>, std::allocator<char> >, std::less<std::basic_string<char, std::char_traits<char>, std::allocator<char> > >, std::allocator<std::pair<const std::basic_string<char, std::char_traits<char>, std::allocator<char> >, std::basic_string<char, std::char_traits<char>, std::allocator<char> > > > > > > >::_S_value
FUNC 3716e 14 0 __gnu_cxx::new_allocator<std::_List_node<std::basic_string<char, std::char_traits<char>, std::allocator<char> > > >::max_size
FUNC 37182 55 0 __gnu_cxx::new_allocator<std::_Rb_tree_node<std::pair<const std::basic_string<char, std::char_traits<char>, std::allocator<char> >, IEC61850_STRUCT::IED_61850> > >::allocate
FUNC 371d8 55 0 __gnu_cxx::new_allocator<std::_Rb_tree_node<std::pair<const std::basic_string<char, std::char_traits<char>, std::allocator<char> >, IEC103::stConfigParam> > >::allocate
FUNC 3722e 5b 0 __gnu_cxx::new_allocator<std::_Rb_tree_node<std::pair<const std::basic_string<char, std::char_traits<char>, std::allocator<char> >, std::map<std::basic_string<char, std::char_traits<char>, std::allocator<char> >, std::basic_string<char, std::char_traits<char>, std::allocator<char> >, std::less<std::basic_string<char, std::char_traits<char>, std::allocator<char> > >, std::allocator<std::pair<const std::basic_string<char, std::char_traits<char>, std::allocator<char> >, std::basic_string<char, std::char_traits<char>, std::allocator<char> > > > > > > >::allocate
FUNC 3728a 5b 0 __gnu_cxx::new_allocator<std::_Rb_tree_node<std::pair<const std::basic_string<char, std::char_traits<char>, std::allocator<char> >, std::map<int, std::map<int, IEC104WF::stPointTable, std::less<int>, std::allocator<std::pair<const int, IEC104WF::stPointTable> > >, std::less<int>, std::allocator<std::pair<const int, std::map<int, IEC104WF::stPointTable, std::less<int>, std::allocator<std::pair<const int, IEC104WF::stPointTable> > > > > > > > >::allocate
FUNC 372e6 5c 0 __gnu_cxx::new_allocator<std::_Rb_tree_node<std::pair<const int, IEC104WF::stPointTable> > >::allocate
FUNC 37342 e 0 __gnu_cxx::new_allocator<std::_Rb_tree_node<std::pair<const int, IEC104WF::stPointTable> > >::new_allocator
FUNC 37350 5b 0 __gnu_cxx::new_allocator<std::_Rb_tree_node<std::pair<const int, std::map<int, IEC104WF::stPointTable, std::less<int>, std::allocator<std::pair<const int, IEC104WF::stPointTable> > > > > >::allocate
FUNC 373ac e 0 __gnu_cxx::new_allocator<std::_Rb_tree_node<std::pair<const int, std::map<int, IEC104WF::stPointTable, std::less<int>, std::allocator<std::pair<const int, IEC104WF::stPointTable> > > > > >::new_allocator
FUNC 373ba 14 0 __gnu_cxx::new_allocator<std::_Rb_tree_node<std::pair<const std::basic_string<char, std::char_traits<char>, std::allocator<char> >, IEC61850_STRUCT::IED_61850> > >::max_size
FUNC 373ce 14 0 __gnu_cxx::new_allocator<std::_Rb_tree_node<std::pair<const std::basic_string<char, std::char_traits<char>, std::allocator<char> >, IEC103::stConfigParam> > >::max_size
FUNC 373e2 14 0 __gnu_cxx::new_allocator<std::_Rb_tree_node<std::pair<const std::basic_string<char, std::char_traits<char>, std::allocator<char> >, std::map<std::basic_string<char, std::char_traits<char>, std::allocator<char> >, std::basic_string<char, std::char_traits<char>, std::allocator<char> >, std::less<std::basic_string<char, std::char_traits<char>, std::allocator<char> > >, std::allocator<std::pair<const std::basic_string<char, std::char_traits<char>, std::allocator<char> >, std::basic_string<char, std::char_traits<char>, std::allocator<char> > > > > > > >::max_size
FUNC 373f6 14 0 __gnu_cxx::new_allocator<std::_Rb_tree_node<std::pair<const std::basic_string<char, std::char_traits<char>, std::allocator<char> >, std::map<int, std::map<int, IEC104WF::stPointTable, std::less<int>, std::allocator<std::pair<const int, IEC104WF::stPointTable> > >, std::less<int>, std::allocator<std::pair<const int, std::map<int, IEC104WF::stPointTable, std::less<int>, std::allocator<std::pair<const int, IEC104WF::stPointTable> > > > > > > > >::max_size
FUNC 3740a 14 0 __gnu_cxx::new_allocator<std::_Rb_tree_node<std::pair<const int, IEC104WF::stPointTable> > >::max_size
FUNC 3741e 14 0 __gnu_cxx::new_allocator<std::_Rb_tree_node<std::pair<const int, std::map<int, IEC104WF::stPointTable, std::less<int>, std::allocator<std::pair<const int, IEC104WF::stPointTable> > > > > >::max_size
FUNC 37440 d 0 mysql_get_parameters
FUNC 37450 6 0 mysql_debug
FUNC 37460 6 0 my_pipe_sig_handler
FUNC 37470 29 0 mysql_set_local_infile_handler
FUNC 374a0 3e 0 mysql_set_local_infile_default
FUNC 374e0 29 0 mysql_fetch_field
FUNC 37510 47 0 mysql_data_seek
FUNC 37560 16 0 mysql_row_seek
FUNC 37580 12 0 mysql_field_seek
FUNC 375a0 3e 0 mysql_shutdown
FUNC 375e0 3e 0 mysql_refresh
FUNC 37620 55 0 mysql_kill
FUNC 37680 3e 0 mysql_set_server_option
FUNC 376c0 36 0 mysql_dump_debug_info
FUNC 37700 66 0 mysql_stat
FUNC 37770 36 0 mysql_ping
FUNC 377b0 d 0 mysql_get_server_info
FUNC 377c0 d 0 mysql_get_host_info
FUNC 377d0 c 0 mysql_get_proto_info
FUNC 377e0 d 0 mysql_get_client_info
FUNC 377f0 b 0 mysql_get_client_version
FUNC 37800 d 0 mysql_eof
FUNC 37810 10 0 mysql_fetch_field_direct
FUNC 37820 a 0 mysql_fetch_fields
FUNC 37830 a 0 mysql_row_tell
FUNC 37840 c 0 mysql_field_tell
FUNC 37850 c 0 mysql_field_count
FUNC 37860 d 0 mysql_affected_rows
FUNC 37870 d 0 mysql_insert_id
FUNC 37880 24 0 mysql_sqlstate
FUNC 378b0 c 0 mysql_warning_count
FUNC 378c0 d 0 mysql_info
FUNC 378d0 d 0 mysql_thread_id
FUNC 378e0 11 0 mysql_character_set_name
FUNC 37900 90 0 mysql_get_character_set_info
FUNC 37990 b 0 mysql_thread_safe
FUNC 379a0 8 0 mysql_embedded
FUNC 379b0 67 0 mysql_hex_string
FUNC 37a20 1e0 0 myodbc_remove_escape
FUNC 37c00 8 0 mysql_stmt_param_metadata
FUNC 37c10 1b 0 store_param_tinyint
FUNC 37c30 19 0 store_param_short
FUNC 37c50 17 0 store_param_int32
FUNC 37c70 19 0 store_param_int64
FUNC 37c90 17 0 store_param_float
FUNC 37cb0 19 0 store_param_double
FUNC 37cd0 3e 0 stmt_read_row_buffered
FUNC 37d10 b 0 stmt_read_row_no_data
FUNC 37d20 4e 0 mysql_stmt_attr_get
FUNC 37d70 c 0 mysql_stmt_param_count
FUNC 37d80 d 0 mysql_stmt_affected_rows
FUNC 37d90 c 0 mysql_stmt_field_count
FUNC 37da0 d 0 mysql_stmt_insert_id
FUNC 37db0 34 0 fetch_result_tinyint
FUNC 37df0 35 0 fetch_result_short
FUNC 37e30 33 0 fetch_result_int32
FUNC 37e70 c 0 skip_result_fixed
FUNC 37e80 488 0 setup_one_fetch_function
FUNC 38310 180 0 mysql_stmt_fetch
FUNC 38490 14 0 mysql_stmt_row_seek
FUNC 384b0 d 0 mysql_stmt_row_tell
FUNC 384c0 55 0 mysql_stmt_data_seek
FUNC 38520 d 0 mysql_stmt_num_rows
FUNC 38530 c 0 mysql_stmt_errno
FUNC 38540 d 0 mysql_stmt_sqlstate
FUNC 38550 d 0 mysql_stmt_error
FUNC 38560 12 0 mysql_more_results
FUNC 38580 12 0 mysql_use_result
FUNC 385a0 11 0 mysql_read_query_result
FUNC 385c0 5c 0 set_stmt_errmsg
FUNC 38620 167 0 stmt_read_row_from_cursor
FUNC 38790 1f0 0 reset_stmt_handle
FUNC 38980 f 0 mysql_stmt_free_result
FUNC 38990 70 0 set_stmt_error
FUNC 38a00 21 0 stmt_read_row_no_result_set
FUNC 38a30 111 0 stmt_read_row_unbuffered
FUNC 38b50 3d 0 mysql_stmt_reset
FUNC 38b90 7b 0 mysql_stmt_attr_set
FUNC 38c10 1fb 0 mysql_stmt_prepare
FUNC 38e10 239 0 alloc_stmt_fields
FUNC 39050 52 0 cli_read_statistics
FUNC 390b0 70 0 mysql_next_result
FUNC 39120 26 0 mysql_autocommit
FUNC 39150 17 0 mysql_rollback
FUNC 39170 17 0 mysql_commit
FUNC 39190 151 0 mysql_stmt_close
FUNC 392f0 1f 0 fetch_result_double
FUNC 39310 1b 0 fetch_result_float
FUNC 39330 3a 0 fetch_result_int64
FUNC 39370 ad 0 store_param_datetime
FUNC 39420 a5 0 store_param_time
FUNC 394d0 180 0 cli_read_binary_rows
FUNC 39650 4b 0 cli_unbuffered_fetch
FUNC 396a0 37 0 skip_result_string
FUNC 396e0 1e 0 skip_result_with_length
FUNC 39700 7c 0 fetch_result_str
FUNC 39780 6e 0 fetch_result_bin
FUNC 397f0 361 0 fetch_string_with_conversion
FUNC 39b60 35b 0 fetch_long_with_conversion
FUNC 39ec0 32a 0 fetch_float_with_conversion
FUNC 3a1f0 1ca 0 fetch_datetime_with_conversion
FUNC 3a3c0 39e 0 fetch_result_with_conversion
FUNC 3a760 110 0 mysql_stmt_fetch_column
FUNC 3a870 1d3 0 mysql_stmt_bind_result
FUNC 3aa50 35a 0 mysql_stmt_store_result
FUNC 3adb0 165 0 mysql_stmt_next_result
FUNC 3af20 1f5 0 mysql_stmt_execute
FUNC 3b120 161 0 mysql_stmt_send_long_data
FUNC 3b290 3a8 0 mysql_stmt_bind_param
FUNC 3b640 61 0 store_param_str
FUNC 3b6b0 88 0 mysql_stmt_result_metadata
FUNC 3b740 113 0 mysql_stmt_init
FUNC 3b860 133 0 cli_read_prepare_result
FUNC 3b9a0 3d 0 mysql_real_escape_string
FUNC 3b9e0 22 0 mysql_escape_string
FUNC 3ba10 62 0 my_net_local_init
FUNC 3ba80 e6 0 mysql_list_processes
FUNC 3bb70 148 0 mysql_list_fields
FUNC 3bcc0 4c 0 default_local_infile_error
FUNC 3bd10 67 0 cli_list_fields
FUNC 3bd80 35 0 mysql_query
FUNC 3bdc0 e7 0 mysql_list_dbs
FUNC 3beb0 37 0 default_local_infile_end
FUNC 3bef0 9c 0 default_local_infile_read
FUNC 3bf90 e6 0 default_local_infile_init
FUNC 3c080 1dd 0 handle_local_infile
FUNC 3c260 af 0 read_user_name
FUNC 3c310 18e 0 mysql_change_user
FUNC 3c4a0 a 0 mysql_thread_end
FUNC 3c4b0 a 0 mysql_thread_init
FUNC 3c4c0 51 0 mysql_server_end
FUNC 3c520 115 0 mysql_server_init
FUNC 3c640 c9 0 store_param_date
FUNC 3c710 d7 0 mysql_list_tables
FUNC 3c7f0 8c 0 fetch_result_date
FUNC 3c880 a1 0 fetch_result_time
FUNC 3c930 a1 0 fetch_result_datetime
FUNC 3c9e0 786 0 cli_stmt_execute
FUNC 3d170 27 0 mysql_plugin_options
FUNC 3d1a0 139 0 do_add_plugin
FUNC 3d2e0 98 0 add_plugin_noargs
FUNC 3d380 d1 0 mysql_client_plugin_deinit
FUNC 3d460 349 0 mysql_load_plugin_v
FUNC 3d7b0 98 0 mysql_load_plugin
FUNC 3d850 12b 0 mysql_client_find_plugin
FUNC 3d980 219 0 mysql_client_plugin_init
FUNC 3dba0 1a8 0 mysql_client_register_plugin
FUNC 3dd50 4f 0 calc_days_in_year
FUNC 3dda0 1b 0 set_max_hhmmss
FUNC 3ddc0 d9 0 check_date
FUNC 3dea0 27 0 check_time_mmssff_range
FUNC 3ded0 4a 0 check_time_range_quick
FUNC 3df20 57 0 check_datetime_range
FUNC 3df80 46 0 adjust_time_range
FUNC 3dfd0 1a 0 year_2000_handling
FUNC 3dff0 a8 0 calc_daynr
FUNC 3e0a0 4f 0 TIME_to_ulonglong_datetime
FUNC 3e0f0 25 0 TIME_to_ulonglong_date
FUNC 3e120 26 0 TIME_to_ulonglong_time
FUNC 3e150 4e 0 TIME_set_yymmdd
FUNC 3e1a0 4f 0 TIME_set_hhmmss
FUNC 3e1f0 36 0 TIME_to_ulonglong
FUNC 3e230 3f 0 TIME_to_longlong_time_packed
FUNC 3e270 7d 0 TIME_from_longlong_time_packed
FUNC 3e2f0 e 0 my_time_binary_length
FUNC 3e300 13f 0 my_time_packed_to_binary
FUNC 3e440 125 0 my_time_packed_from_binary
FUNC 3e570 45 0 TIME_to_longlong_datetime_packed
FUNC 3e5c0 1b 0 TIME_to_longlong_date_packed
FUNC 3e5e0 12 0 year_to_longlong_datetime_packed
FUNC 3e600 d3 0 TIME_from_longlong_datetime_packed
FUNC 3e6e0 1f 0 TIME_from_longlong_date_packed
FUNC 3e700 e 0 my_datetime_binary_length
FUNC 3e710 e4 0 my_datetime_packed_from_binary
FUNC 3e800 10f 0 my_datetime_packed_to_binary
FUNC 3e910 e 0 my_timestamp_binary_length
FUNC 3e920 e0 0 my_timestamp_from_binary
FUNC 3ea00 b4 0 my_timestamp_to_binary
FUNC 3eac0 36 0 TIME_to_longlong_packed
FUNC 3eb00 2ca 0 number_to_datetime
FUNC 3edd0 30 0 set_zero_time
FUNC 3ee00 995 0 str_to_datetime
FUNC 3f7a0 37 0 set_max_time
FUNC 3f7e0 1a5 0 number_to_time
FUNC 3f990 187 0 my_datetime_to_str
FUNC 3fb20 22 0 my_date_to_str
FUNC 3fb50 461 0 my_system_gmt_sec
FUNC 3ffc0 80 0 my_init_time
FUNC 40040 68e 0 str_to_time
FUNC 406d0 ab 0 my_time_to_str
FUNC 40780 66 0 my_TIME_to_str
FUNC 407f0 8a 0 my_timeval_to_str
FUNC 40880 e 0 my_net_is_inited
FUNC 40890 62 0 cli_fetch_lengths
FUNC 40900 36 0 mysql_send_query
FUNC 40940 32 0 mysql_real_query
FUNC 40980 3a 0 mysql_fetch_lengths
FUNC 409c0 10 0 get_attr_key
FUNC 409d0 9 0 mysql_num_rows
FUNC 409e0 c 0 mysql_num_fields
FUNC 409f0 23 0 mysql_errno
FUNC 40a20 18 0 mysql_error
FUNC 40a40 3e 0 clear_password_auth_client
FUNC 40a80 44 0 write_string
FUNC 40ad0 c1 0 native_password_auth_client
FUNC 40ba0 60 0 write_length_encoded_string4
FUNC 40c00 89 0 mysql_select_db
FUNC 40c90 89 0 add_init_command
FUNC 40d20 7b 0 set_ssl_option_unpack_path
FUNC 40da0 7e9 0 mysql_options
FUNC 41590 b5 0 mysql_ssl_set
FUNC 41650 245 0 mysql_close_free_options
FUNC 418a0 92 0 mysql_detach_stmt_list
FUNC 41940 2c 0 net_clear_error
FUNC 41970 c0 0 set_mysql_error
FUNC 41a30 11c 0 old_password_auth_client
FUNC 41b50 b4 0 mysql_get_server_version
FUNC 41c10 2b3 0 mysql_options4
FUNC 41ed0 1be 0 mysql_store_result
FUNC 42090 18d 0 cli_use_result
FUNC 42220 d2 0 mpvio_info
FUNC 42300 11 0 client_mpvio_info
FUNC 42320 105 0 send_client_connect_attrs
FUNC 42430 1d1 0 send_change_user_packet
FUNC 42610 22 0 mysql_get_ssl_cipher
FUNC 42640 cb 0 mysql_init
FUNC 42710 767 0 mysql_read_default_options
FUNC 42e80 72 0 free_old_query
FUNC 42f00 37 0 free_rows
FUNC 42f40 523 0 unpack_fields
FUNC 43470 cd 0 mysql_free_result
FUNC 43540 103 0 end_server
FUNC 43650 15e 0 cli_safe_read
FUNC 437b0 245 0 mysql_fetch_row
FUNC 43a00 b 0 cli_read_change_user_result
FUNC 43a10 354 0 cli_read_rows
FUNC 43d70 1f8 0 cli_read_query_result
FUNC 43f70 9b 0 opt_flush_ok_packet
FUNC 44010 64 0 flush_one_result
FUNC 44080 62 0 cli_flush_use_result
FUNC 440f0 c6 0 set_mysql_extended_error
FUNC 441c0 481 0 run_plugin_auth
FUNC 44650 7cf 0 send_client_reply_packet
FUNC 44e20 c7 0 client_mpvio_write_packet
FUNC 44ef0 2b5 0 mysql_init_character_set
FUNC 451b0 1ac 0 mysql_set_character_set
FUNC 45360 106f 0 mysql_real_connect
FUNC 463d0 16b 0 client_mpvio_read_packet
FUNC 46540 12e 0 mysql_close
FUNC 46670 222 0 mysql_reconnect
FUNC 468a0 219 0 cli_advanced_command
FUNC 46ac0 71 0 net_field_length
FUNC 46b40 71 0 net_field_length_ll
FUNC 46bc0 71 0 net_store_length
FUNC 46c40 c8 0 int10_to_str
FUNC 46d10 11d 0 int2str
FUNC 46e30 28 0 bmove_upp
FUNC 46e60 13 0 my_coll_init_8bit_bin
FUNC 46e80 9 0 my_lengthsp_binary
FUNC 46e90 95 0 my_strnncollsp_8bit_bin
FUNC 46f30 8 0 my_case_str_bin
FUNC 46f40 9 0 my_case_bin
FUNC 46f50 b 0 my_mbcharlen_8bit
FUNC 46f60 1b 0 my_mb_wc_bin
FUNC 46f80 20 0 my_wc_mb_bin
FUNC 46fa0 c2 0 my_hash_sort_8bit_bin
FUNC 47070 4a 0 my_hash_sort_bin
FUNC 470c0 231 0 my_wildcmp_bin_impl
FUNC 47300 24 0 my_wildcmp_bin
FUNC 47330 127 0 my_instr_bin
FUNC 47460 36 0 my_strnncoll_binary
FUNC 474a0 36 0 my_strnncoll_8bit_bin
FUNC 474e0 10 0 my_strcasecmp_bin
FUNC 474f0 8f 0 my_strnxfrm_8bit_bin
FUNC 47580 2b 0 my_strnncollsp_binary
FUNC 475b0 87 0 Balloc
FUNC 47640 36 0 Bfree
FUNC 47680 391 0 d2b
FUNC 47a20 262 0 lshift
FUNC 47c90 166 0 multadd
FUNC 47e00 915 0 pow5mult
FUNC 48720 1d46 0 my_strtod
FUNC 4a470 22 0 my_atof
FUNC 4a4a0 20fd 0 dtoa
FUNC 4c5a0 32d 0 my_fcvt
FUNC 4c8d0 6d9 0 my_gcvt
FUNC 4cfb0 1e 0 strend
FUNC 4cfd0 9e 0 strxnmov
FUNC 4d070 3c4 0 my_strtoll10
FUNC 4d440 16e 0 process_str_arg
FUNC 4d5b0 1db 0 process_int_arg
FUNC 4d790 848 0 process_args
FUNC 4dfe0 5cc 0 my_vsnprintf_ex
FUNC 4e5b0 1d 0 my_vsnprintf
FUNC 4e5d0 96 0 my_snprintf
FUNC 4e670 1d 0 my_strnxfrmlen_simple
FUNC 4e690 71 0 my_strnncoll_simple
FUNC 4e710 c2 0 my_strnncollsp_simple
FUNC 4e7e0 39 0 my_caseup_str_8bit
FUNC 4e820 39 0 my_casedn_str_8bit
FUNC 4e860 2c 0 my_caseup_8bit
FUNC 4e890 2c 0 my_casedn_8bit
FUNC 4e8c0 4c 0 my_strcasecmp_8bit
FUNC 4e910 32 0 my_mb_wc_8bit
FUNC 4e950 66 0 my_wc_mb_8bit
FUNC 4e9c0 cf 0 my_hash_sort_simple
FUNC 4ea90 203 0 my_strntol_8bit
FUNC 4eca0 1b0 0 my_strntoul_8bit
FUNC 4ee50 219 0 my_strntoll_8bit
FUNC 4f070 1d5 0 my_strntoull_8bit
FUNC 4f250 267 0 my_wildcmp_8bit_impl
FUNC 4f4c0 24 0 my_wildcmp_8bit
FUNC 4f4f0 281 0 my_like_range_simple
FUNC 4f780 80 0 my_scan_8bit
FUNC 4f800 c 0 my_numchars_8bit
FUNC 4f810 c 0 my_numcells_8bit
FUNC 4f820 9 0 my_charpos_8bit
FUNC 4f830 1a 0 my_well_formed_len_8bit
FUNC 4f850 147 0 my_instr_simple
FUNC 4f9a0 16 0 pcmp
FUNC 4f9c0 54 0 my_coll_init_simple
FUNC 4fa20 2d 0 my_mb_ctype_8bit
FUNC 4fa50 4b5 0 my_strntoull10rnd_8bit
FUNC 4ff10 b 0 my_propagate_simple
FUNC 4ff20 8 0 my_propagate_complex
FUNC 4ff30 155 0 my_strxfrm_flag_normalize
FUNC 50090 145 0 my_strxfrm_desc_and_reverse
FUNC 501e0 fc 0 my_strxfrm_pad_desc_and_reverse
FUNC 502e0 b5 0 my_strnxfrm_simple
FUNC 503a0 f 0 my_fill_8bit
FUNC 503b0 267 0 create_fromuni
FUNC 50620 1f 0 my_cset_init_8bit
FUNC 50640 13 0 my_strtoll10_8bit
FUNC 50660 117 0 my_longlong10_to_str_8bit
FUNC 50780 e2 0 my_long10_to_str_8bit
FUNC 50870 2a 0 my_strntod_8bit
FUNC 508a0 9a 0 my_snprintf_8bit
FUNC 50940 b3 0 my_lengthsp_8bit
FUNC 50a00 35 0 strmake
FUNC 50a40 90 0 my_string_repertoire
FUNC 50ad0 19 0 my_charset_repertoire
FUNC 50af0 4a 0 my_charset_is_ascii_based
FUNC 50b40 37 0 my_charset_is_8bit_pure_ascii
FUNC 50b80 37 0 my_charset_is_ascii_compatible
FUNC 50bc0 c5 0 tailoring_append
FUNC 50c90 15c 0 my_parse_charset_xml
FUNC 50df0 d9 0 fill_uchar
FUNC 50ed0 22b 0 cs_leave
FUNC 51100 2c4 0 my_convert
FUNC 513d0 abf 0 cs_value
FUNC 51e90 1c1 0 cs_enter
FUNC 52060 22 0 strcend
FUNC 52090 19 0 my_strnxfrmlen_unicode_full_bin
FUNC 520b0 c9 0 my_utf8_uni
FUNC 52180 a6 0 my_uni_utf8
FUNC 52230 15a 0 my_casedn_str_utf8
FUNC 52390 1e 0 my_strnxfrmlen_utf8
FUNC 523b0 2e 0 my_mbcharlen_utf8
FUNC 523e0 131 0 my_mb_wc_filename
FUNC 52520 184 0 my_wc_mb_filename
FUNC 526b0 179 0 my_mb_wc_utf8mb4
FUNC 52830 d4 0 my_wc_mb_utf8mb4
FUNC 52910 f 0 my_strnxfrmlen_utf8mb4
FUNC 52920 e5 0 my_ismbchar_utf8mb4
FUNC 52a10 38 0 my_mbcharlen_utf8mb4
FUNC 52a50 1c1 0 my_strnxfrm_unicode_full_bin
FUNC 52c20 1ba 0 my_hash_sort_utf8mb4
FUNC 52de0 299 0 my_strnncollsp_utf8mb4
FUNC 53080 25a 0 my_strnncoll_utf8mb4
FUNC 532e0 351 0 my_strnxfrm_unicode
FUNC 53640 15a 0 my_caseup_str_utf8
FUNC 537a0 eb 0 my_well_formed_len_utf8
FUNC 53890 177 0 my_well_formed_len_utf8mb4
FUNC 53a10 175 0 my_caseup_utf8mb4
FUNC 53b90 175 0 my_casedn_utf8mb4
FUNC 53d10 235 0 my_casedn_str_utf8mb4
FUNC 53f50 235 0 my_caseup_str_utf8mb4
FUNC 54190 7d 0 my_ismbchar_utf8
FUNC 54210 3cb 0 my_strnncollsp_utf8
FUNC 545e0 396 0 my_strnncoll_utf8
FUNC 54980 1c7 0 my_caseup_utf8
FUNC 54b50 1c7 0 my_hash_sort_utf8
FUNC 54d20 1c7 0 my_casedn_utf8
FUNC 54ef0 34e 0 my_strcasecmp_utf8mb4
FUNC 55240 21c 0 my_strcasecmp_utf8
FUNC 55460 4de 0 my_wildcmp_unicode_impl
FUNC 55940 2d 0 my_wildcmp_unicode
FUNC 55970 25 0 my_wildcmp_utf8
FUNC 559a0 25 0 my_wildcmp_utf8mb4
FUNC 559d0 35 0 my_mb_wc_latin1
FUNC 55a10 51 0 my_wc_mb_latin1
FUNC 55a70 c4 0 my_strnncoll_latin1_de
FUNC 55b40 109 0 my_strnncollsp_latin1_de
FUNC 55c50 111 0 my_hash_sort_latin1_de
FUNC 55d70 bd 0 my_strnxfrm_latin1_de
FUNC 55e30 17 0 vio_buff_has_data
FUNC 55e50 c 0 vio_type
FUNC 55e60 8 0 vio_fd
FUNC 55e70 c 0 vio_is_no_name_error
FUNC 55e80 41 0 vio_getnameinfo
FUNC 55ed0 d 0 vio_errno
FUNC 55ee0 11 0 vio_was_timeout
FUNC 55f00 11 0 vio_should_retry
FUNC 55f20 bc 0 vio_io_wait
FUNC 55fe0 90 0 vio_is_connected
FUNC 56070 35 0 vio_socket_io_wait
FUNC 560b0 240 0 vio_peer_addr
FUNC 562f0 4d 0 vio_description
FUNC 56340 175 0 vio_shutdown
FUNC 564c0 12a 0 vio_write
FUNC 565f0 11a 0 vio_read
FUNC 56710 ee 0 vio_read_buff
FUNC 56800 272 0 vio_socket_connect
FUNC 56a80 195 0 vio_fastsend
FUNC 56c20 ca 0 vio_get_normalized_ip_string
FUNC 56cf0 101 0 vio_keepalive
FUNC 56e00 ab 0 vio_socket_timeout
FUNC 56eb0 8 0 has_no_data
FUNC 56ec0 63 0 vio_timeout
FUNC 56f30 c 0 vio_end
FUNC 56f40 47 0 vio_delete
FUNC 56f90 326 0 mysql_socket_vio_new
FUNC 572c0 32 0 vio_new
FUNC 57300 39e 0 vio_reset
FUNC 576a0 13 0 sslGetErrString
FUNC 576c0 22 0 free_vio_ssl_acceptor_fd
FUNC 576f0 43 0 report_errors
FUNC 57740 45 0 ssl_start
FUNC 57790 361 0 new_VioSSLFd
FUNC 57b00 65 0 new_VioSSLAcceptorFd
FUNC 57b70 75 0 new_VioSSLConnectorFd
FUNC 57bf0 17 0 vio_ssl_has_data
FUNC 57c10 a 0 yassl_send
FUNC 57c20 a 0 yassl_recv
FUNC 57c30 46 0 vio_ssl_shutdown
FUNC 57c80 57 0 vio_ssl_delete
FUNC 57ce0 ac 0 vio_ssl_write
FUNC 57d90 ac 0 vio_ssl_read
FUNC 57e40 19c 0 ssl_do
FUNC 57fe0 14 0 sslconnect
FUNC 58000 14 0 sslaccept
FUNC 58020 b8 0 my_realpath
FUNC 580e0 3c 0 my_is_symlink
FUNC 58120 c3 0 my_symlink
FUNC 581f0 cc 0 my_readlink
FUNC 582c0 1f 0 pop_dynamic
FUNC 582e0 5c 0 freeze_size
FUNC 58340 2b 0 delete_dynamic_element
FUNC 58370 3e 0 delete_dynamic
FUNC 583b0 36 0 get_dynamic
FUNC 583f0 bd 0 allocate_dynamic
FUNC 584b0 87 0 set_dynamic
FUNC 58540 b7 0 alloc_dynamic
FUNC 58600 54 0 insert_dynamic
FUNC 58660 a9 0 init_dynamic_array2
FUNC 58710 11 0 init_dynamic_array
FUNC 58730 14e 0 my_multi_malloc
FUNC 58880 51a 0 my_read
FUNC 58da0 6 0 init_glob_errs
FUNC 58db0 d 0 get_global_errmsgs
FUNC 58dc0 8f 0 wait_for_free_space
FUNC 58e50 3d 0 list_add
FUNC 58e90 39 0 list_delete
FUNC 58ed0 2b 0 list_reverse
FUNC 58f00 1e 0 list_length
FUNC 58f20 42 0 list_walk
FUNC 58f70 53 0 list_cons
FUNC 58fd0 57 0 list_free
FUNC 59030 5e 0 set_prealloc_root
FUNC 59090 121 0 free_root
FUNC 591c0 138 0 alloc_root
FUNC 59300 49 0 memdup_root
FUNC 59350 4f 0 strmake_root
FUNC 593a0 36 0 strdup_root
FUNC 593e0 146 0 multi_alloc_root
FUNC 59530 cd 0 reset_root_defaults
FUNC 59600 a3 0 init_alloc_root
FUNC 596b0 7c 0 my_init_mysys_psi_keys
FUNC 59730 1fb 0 my_end
FUNC 59930 1a4 0 my_init
FUNC 59ae0 79 0 intern_filename
FUNC 59b60 20 0 system_filename
FUNC 59b80 380 0 cleanup_dirname
FUNC 59f00 9b 0 normalize_dirname
FUNC 59fa0 180 0 unpack_dirname
FUNC 5a120 a1 0 unpack_filename
FUNC 5a1d0 24d 0 pack_dirname
FUNC 5a420 6b 0 my_get_err_msg
FUNC 5a490 11 0 my_message
FUNC 5a4b0 48 0 my_error_unregister_all
FUNC 5a500 69 0 my_error_unregister
FUNC 5a570 a9 0 my_error_register
FUNC 5a620 54 0 my_printv_error
FUNC 5a680 cd 0 my_printf_warning
FUNC 5a750 df 0 my_printf_error
FUNC 5a830 10f 0 my_error
FUNC 5a940 89 0 my_strerror
FUNC 5a9d0 29 0 get_type
FUNC 5aa00 145 0 copy_typelib
FUNC 5ab50 3c 0 make_type
FUNC 5ab90 21c 0 find_type
FUNC 5adb0 1bf 0 find_set_from_flags
FUNC 5af70 e2 0 find_typeset
FUNC 5b060 e2 0 find_type_or_exit
FUNC 5b150 33 0 cset_hash_sort_adapter
FUNC 5b190 6a 0 my_hash_reset
FUNC 5b200 14 0 my_calc_hash
FUNC 5b220 180 0 my_hash_next
FUNC 5b3a0 1b 0 my_hash_element
FUNC 5b3c0 1c 0 my_hash_replace
FUNC 5b3e0 74 0 my_hash_free
FUNC 5b460 66 0 _my_hash_init
FUNC 5b4d0 1a2 0 my_hash_first_from_hash_value
FUNC 5b680 87 0 my_hash_first
FUNC 5b710 13 0 my_hash_search
FUNC 5b730 13 0 my_hash_search_using_hash_value
FUNC 5b750 304 0 my_hash_update
FUNC 5ba60 4e0 0 my_hash_insert
FUNC 5bf40 3fc 0 my_hash_delete
FUNC 5c340 6 0 proc_info_dummy
FUNC 5c350 58 0 strlength
FUNC 5c3b0 307 0 fn_format
FUNC 5c6c0 33 0 dirname_length
FUNC 5c700 6d 0 convert_dirname
FUNC 5c770 5a 0 dirname_part
FUNC 5c7d0 a 0 my_free
FUNC 5c7e0 c6 0 my_malloc
FUNC 5c8b0 51 0 my_strndup
FUNC 5c910 53 0 my_strdup
FUNC 5c970 4b 0 my_memdup
FUNC 5c9c0 ba 0 my_realloc
FUNC 5ca80 49 0 my_filename
FUNC 5cad0 3d 0 my_once_free
FUNC 5cb10 118 0 my_once_alloc
FUNC 5cc30 4b 0 my_once_memdup
FUNC 5cc80 53 0 my_once_strdup
FUNC 5cce0 46 0 test_if_hard_path
FUNC 5cd30 16 0 has_path
FUNC 5cd50 125 0 my_setwd
FUNC 5ce80 f7 0 my_getwd
FUNC 5cf80 6 0 default_reporter
FUNC 5cf90 60 0 my_charset_loader_init_mysys
FUNC 5cff0 1a 0 add_compiled_collation
FUNC 5d010 10 0 free_charsets
FUNC 5d020 2de 0 escape_string_for_mysql
FUNC 5d300 213 0 escape_quotes_for_mysql
FUNC 5d520 60 0 get_charset_name
FUNC 5d580 14d 0 get_charset_number
FUNC 5d6d0 f 0 my_malloc_c
FUNC 5d6e0 2f3 0 my_read_charset_file
FUNC 5d9e0 1a5 0 init_state_maps
FUNC 5db90 f 0 my_once_alloc_c
FUNC 5dba0 c6 0 get_charsets_dir
FUNC 5dc70 1cf 0 get_internal_charset
FUNC 5de40 bd 0 my_charset_get_by_name
FUNC 5df00 56 0 get_charset_by_csname
FUNC 5df60 58 0 resolve_charset
FUNC 5dfc0 aa 0 init_available_charsets
FUNC 5e070 e9 0 get_charset
FUNC 5e160 22 0 my_charset_same
FUNC 5e190 74e 0 add_collation
FUNC 5e8e0 f 0 my_realloc_c
FUNC 5e8f0 139 0 get_collation_number
FUNC 5ea30 c5 0 my_collation_get_by_name
FUNC 5eb00 48 0 get_charset_by_name
FUNC 5eb50 42 0 resolve_collation
FUNC 5eba0 1ad 0 my_close
FUNC 5ed50 29c 0 my_register_filename
FUNC 5eff0 47 0 my_open
FUNC 5f040 15c 0 my_load_path
FUNC 5f1a0 96 0 my_message_stderr
FUNC 5f240 14 0 thr_set_sync_wait_callback
FUNC 5f260 128 0 my_sync
FUNC 5f390 7c 0 my_sync_dir
FUNC 5f410 41 0 my_sync_dir_by_file
FUNC 5f460 d 0 my_thread_name
FUNC 5f470 2a 0 set_mysys_var
FUNC 5f4a0 27 0 _my_thread_var
FUNC 5f4d0 12 0 my_thread_dbug_id
FUNC 5f4f0 3c 0 inline_mysql_mutex_init
FUNC 5f530 2d 0 inline_mysql_cond_init
FUNC 5f560 15b 0 my_thread_init
FUNC 5f6c0 31c 0 my_thread_global_reinit
FUNC 5f9e0 434 0 my_thread_global_end
FUNC 5fe20 215 0 my_thread_global_init
FUNC 60040 15a 0 my_thread_end
FUNC 601a0 6 0 register_mutex_noop
FUNC 601b0 6 0 register_rwlock_noop
FUNC 601c0 6 0 register_cond_noop
FUNC 601d0 6 0 register_thread_noop
FUNC 601e0 6 0 register_file_noop
FUNC 601f0 6 0 register_stage_noop
FUNC 60200 6 0 register_statement_noop
FUNC 60210 6 0 register_socket_noop
FUNC 60220 8 0 init_mutex_noop
FUNC 60230 6 0 destroy_mutex_noop
FUNC 60240 8 0 init_rwlock_noop
FUNC 60250 6 0 destroy_rwlock_noop
FUNC 60260 8 0 init_cond_noop
FUNC 60270 6 0 destroy_cond_noop
FUNC 60280 8 0 init_socket_noop
FUNC 60290 6 0 destroy_socket_noop
FUNC 602a0 8 0 get_table_share_noop
FUNC 602b0 6 0 release_table_share_noop
FUNC 602c0 6 0 drop_table_share_noop
FUNC 602d0 8 0 open_table_noop
FUNC 602e0 6 0 unbind_table_noop
FUNC 602f0 8 0 rebind_table_noop
FUNC 60300 6 0 close_table_noop
FUNC 60310 6 0 create_file_noop
FUNC 60320 8 0 new_thread_noop
FUNC 60330 6 0 set_thread_id_noop
FUNC 60340 8 0 get_thread_noop
FUNC 60350 6 0 set_thread_user_noop
FUNC 60360 6 0 set_thread_user_host_noop
FUNC 60370 6 0 set_thread_db_noop
FUNC 60380 6 0 set_thread_command_noop
FUNC 60390 6 0 set_thread_start_time_noop
FUNC 603a0 6 0 set_thread_state_noop
FUNC 603b0 6 0 set_thread_info_noop
FUNC 603c0 6 0 set_thread_noop
FUNC 603d0 6 0 delete_current_thread_noop
FUNC 603e0 6 0 delete_thread_noop
FUNC 603f0 8 0 get_thread_file_name_locker_noop
FUNC 60400 8 0 get_thread_file_stream_locker_noop
FUNC 60410 8 0 get_thread_file_descriptor_locker_noop
FUNC 60420 6 0 unlock_mutex_noop
FUNC 60430 6 0 unlock_rwlock_noop
FUNC 60440 6 0 signal_cond_noop
FUNC 60450 6 0 broadcast_cond_noop
FUNC 60460 8 0 start_idle_wait_noop
FUNC 60470 6 0 end_idle_wait_noop
FUNC 60480 8 0 start_mutex_wait_noop
FUNC 60490 6 0 end_mutex_wait_noop
FUNC 604a0 8 0 start_rwlock_rdwait_noop
FUNC 604b0 6 0 end_rwlock_rdwait_noop
FUNC 604c0 8 0 start_rwlock_wrwait_noop
FUNC 604d0 6 0 end_rwlock_wrwait_noop
FUNC 604e0 8 0 start_cond_wait_noop
FUNC 604f0 6 0 end_cond_wait_noop
FUNC 60500 8 0 start_table_io_wait_noop
FUNC 60510 6 0 end_table_io_wait_noop
FUNC 60520 8 0 start_table_lock_wait_noop
FUNC 60530 6 0 end_table_lock_wait_noop
FUNC 60540 6 0 start_file_open_wait_noop
FUNC 60550 8 0 end_file_open_wait_noop
FUNC 60560 6 0 end_file_open_wait_and_bind_to_descriptor_noop
FUNC 60570 6 0 start_file_wait_noop
FUNC 60580 6 0 end_file_wait_noop
FUNC 60590 6 0 start_file_close_wait_noop
FUNC 605a0 6 0 end_file_close_wait_noop
FUNC 605b0 6 0 start_stage_noop
FUNC 605c0 6 0 end_stage_noop
FUNC 605d0 8 0 get_thread_statement_locker_noop
FUNC 605e0 8 0 refine_statement_noop
FUNC 605f0 6 0 start_statement_noop
FUNC 60600 6 0 set_statement_text_noop
FUNC 60610 6 0 set_statement_lock_time_noop
FUNC 60620 6 0 set_statement_rows_sent_noop
FUNC 60630 6 0 set_statement_rows_examined_noop
FUNC 60640 6 0 inc_statement_created_tmp_disk_tables_noop
FUNC 60650 6 0 inc_statement_created_tmp_tables_noop
FUNC 60660 6 0 inc_statement_select_full_join_noop
FUNC 60670 6 0 inc_statement_select_full_range_join_noop
FUNC 60680 6 0 inc_statement_select_range_noop
FUNC 60690 6 0 inc_statement_select_range_check_noop
FUNC 606a0 6 0 inc_statement_select_scan_noop
FUNC 606b0 6 0 inc_statement_sort_merge_passes_noop
FUNC 606c0 6 0 inc_statement_sort_range_noop
FUNC 606d0 6 0 inc_statement_sort_rows_noop
FUNC 606e0 6 0 inc_statement_sort_scan_noop
FUNC 606f0 6 0 set_statement_no_index_used_noop
FUNC 60700 6 0 set_statement_no_good_index_used_noop
FUNC 60710 6 0 end_statement_noop
FUNC 60720 8 0 start_socket_wait_noop
FUNC 60730 6 0 end_socket_wait_noop
FUNC 60740 6 0 set_socket_state_noop
FUNC 60750 6 0 set_socket_info_noop
FUNC 60760 6 0 set_socket_thread_owner_noop
FUNC 60770 8 0 digest_start_noop
FUNC 60780 6 0 digest_end_noop
FUNC 60790 8 0 set_thread_connect_attrs_noop
FUNC 607a0 10 0 set_psi_server
FUNC 607b0 16 0 spawn_thread_noop
FUNC 607d0 1d 0 my_time_possible_from_micro
FUNC 607f0 42 0 my_micro_time_and_time
FUNC 60840 34 0 my_micro_time
FUNC 60880 51 0 my_time
FUNC 608e0 3d 0 my_getsystime
FUNC 60920 10 0 my_getopt_is_args_separator
FUNC 60930 ac 0 check_file_permissions
FUNC 609e0 a1 0 my_default_get_login_file
FUNC 60a90 64 0 add_directory
FUNC 60b00 da 0 init_default_directories
FUNC 60be0 1e6 0 my_print_default_files
FUNC 60dd0 be 0 print_defaults
FUNC 60e90 50 0 free_defaults
FUNC 60ee0 90 0 handle_default_option
FUNC 60f70 1ba 0 get_defaults_options
FUNC 61130 70 0 fn_expand
FUNC 611a0 d9 0 inline_mysql_file_fread
FUNC 61280 f6c 0 search_default_file_with_ext
FUNC 621f0 66b 0 my_search_option_files
FUNC 62860 471 0 my_load_defaults
FUNC 62ce0 11 0 load_defaults
FUNC 62d00 c 0 my_aes_get_size
FUNC 62d10 c 0 my_aes_needs_iv
FUNC 62d20 955 0 my_aes_encrypt
FUNC 63680 980 0 my_aes_decrypt
FUNC 64000 10 0 TaoCrypt::Mode_BASE::~Mode_BASE
FUNC 64010 15b 0 TaoCrypt::Mode_BASE::Process
FUNC 64170 14 0 TaoCrypt::Mode_BASE::~Mode_BASE
FUNC 64190 6c 0 my_aes_create_key
FUNC 64200 8 0 __cxa_pure_virtual
FUNC 64210 19 0 yaSSL::c32to24
FUNC 64230 23 0 yaSSL::c24to32
FUNC 64260 1b 0 yaSSL::c24to32
FUNC 64280 1a 0 yaSSL::ato16
FUNC 642a0 19 0 yaSSL::ato24
FUNC 642c0 12 0 yaSSL::c16toa
FUNC 642e0 19 0 yaSSL::c24toa
FUNC 64300 21 0 yaSSL::c32toa
FUNC 64330 5a 0 yaSSL::States::States
FUNC 64390 9 0 yaSSL::States::getRecord
FUNC 643a0 a 0 yaSSL::States::getHandShake
FUNC 643b0 a 0 yaSSL::States::getClient
FUNC 643c0 a 0 yaSSL::States::getServer
FUNC 643d0 a 0 yaSSL::States::GetConnect
FUNC 643e0 a 0 yaSSL::States::GetAccept
FUNC 643f0 a 0 yaSSL::States::getString
FUNC 64400 9 0 yaSSL::States::What
FUNC 64410 9 0 yaSSL::States::useRecord
FUNC 64420 a 0 yaSSL::States::useHandShake
FUNC 64430 a 0 yaSSL::States::useClient
FUNC 64440 a 0 yaSSL::States::useServer
FUNC 64450 a 0 yaSSL::States::UseConnect
FUNC 64460 a 0 yaSSL::States::UseAccept
FUNC 64470 a 0 yaSSL::States::useString
FUNC 64480 9 0 yaSSL::States::SetError
FUNC 64490 117 0 yaSSL::States::SetMessageRecvd
FUNC 645b0 9 0 yaSSL::sslFactory::getMessage
FUNC 645c0 a 0 yaSSL::sslFactory::getHandShake
FUNC 645d0 a 0 yaSSL::sslFactory::getServerKey
FUNC 645e0 a 0 yaSSL::sslFactory::getClientKey
FUNC 645f0 b 0 yaSSL::SSL::SetCompression
FUNC 64600 d 0 yaSSL::SSL::UnSetCompression
FUNC 64610 d 0 yaSSL::SSL::CompressionOn
FUNC 64620 c 0 yaSSL::SSL::SetError
FUNC 64630 d 0 yaSSL::SSL::SetQuietShutdown
FUNC 64640 d 0 yaSSL::SSL::useBuffers
FUNC 64650 10 0 yaSSL::SSL::order_error
FUNC 64660 89 0 yaSSL::SSL::setKeys
FUNC 646f0 31 0 yaSSL::SSL::get_SEQIncrement
FUNC 64730 36 0 yaSSL::SSL::get_macSecret
FUNC 64770 50 0 yaSSL::SSL::verifyState
FUNC 647c0 22 0 yaSSL::SSL::verifyState
FUNC 647f0 24 0 yaSSL::SSL::verifyState
FUNC 64820 25 0 yaSSL::SSL::verfiyHandShakeComplete
FUNC 64850 a1 0 yaSSL::SSL::verifyClientState
FUNC 64900 84 0 yaSSL::SSL::verifyServerState
FUNC 64990 b0 0 yaSSL::SSL::matchSuite
FUNC 64a40 9 0 yaSSL::SSL::getCrypto
FUNC 64a50 d 0 yaSSL::SSL::getSecurity
FUNC 64a60 d 0 yaSSL::SSL::getStates
FUNC 64a70 d 0 yaSSL::SSL::getHashes
FUNC 64a80 d 0 yaSSL::SSL::getSocket
FUNC 64a90 c 0 yaSSL::SSL::GetError
FUNC 64aa0 d 0 yaSSL::SSL::GetQuietShutdown
FUNC 64ab0 14 0 yaSSL::SSL::GetMultiProtocol
FUNC 64ad0 9 0 yaSSL::SSL::useCrypto
FUNC 64ae0 d 0 yaSSL::SSL::useSecurity
FUNC 64af0 d 0 yaSSL::SSL::useStates
FUNC 64b00 d 0 yaSSL::SSL::useHashes
FUNC 64b10 d 0 yaSSL::SSL::useSocket
FUNC 64b20 d 0 yaSSL::SSL::useLog
FUNC 64b30 d 0 yaSSL::SSL::isTLS
FUNC 64b40 d 0 yaSSL::SSL::isTLSv1_1
FUNC 64b50 d 0 yaSSL::SSL::HasData
FUNC 64b60 9 0 yaSSL::SSL_SESSION::GetID
FUNC 64b70 a 0 yaSSL::SSL_SESSION::GetSecret
FUNC 64b80 a 0 yaSSL::SSL_SESSION::GetSuite
FUNC 64b90 a 0 yaSSL::SSL_SESSION::GetPeerX509
FUNC 64ba0 9 0 yaSSL::SSL_SESSION::GetBornOn
FUNC 64bb0 9 0 yaSSL::SSL_SESSION::GetTimeOut
FUNC 64bc0 9 0 yaSSL::SSL_SESSION::SetTimeOut
FUNC 64bd0 1b 0 yaSSL::SSL_METHOD::SSL_METHOD
FUNC 64bf0 9 0 yaSSL::SSL_METHOD::getVersion
FUNC 64c00 9 0 yaSSL::SSL_METHOD::getSide
FUNC 64c10 a 0 yaSSL::SSL_METHOD::setVerifyPeer
FUNC 64c20 a 0 yaSSL::SSL_METHOD::setVerifyNone
FUNC 64c30 a 0 yaSSL::SSL_METHOD::setFailNoCert
FUNC 64c40 a 0 yaSSL::SSL_METHOD::verifyPeer
FUNC 64c50 a 0 yaSSL::SSL_METHOD::verifyNone
FUNC 64c60 a 0 yaSSL::SSL_METHOD::failNoCert
FUNC 64c70 a 0 yaSSL::SSL_METHOD::multipleProtocol
FUNC 64c80 a 0 yaSSL::SSL_CTX::GetCA_List
FUNC 64c90 d 0 yaSSL::SSL_CTX::getVerifyCallback
FUNC 64ca0 a 0 yaSSL::SSL_CTX::getCert
FUNC 64cb0 a 0 yaSSL::SSL_CTX::getKey
FUNC 64cc0 9 0 yaSSL::SSL_CTX::getMethod
FUNC 64cd0 a 0 yaSSL::SSL_CTX::GetCiphers
FUNC 64ce0 d 0 yaSSL::SSL_CTX::GetDH_Parms
FUNC 64cf0 d 0 yaSSL::SSL_CTX::GetStats
FUNC 64d00 d 0 yaSSL::SSL_CTX::GetPasswordCb
FUNC 64d10 d 0 yaSSL::SSL_CTX::SetPasswordCb
FUNC 64d20 d 0 yaSSL::SSL_CTX::GetUserData
FUNC 64d30 d 0 yaSSL::SSL_CTX::GetSessionCacheOff
FUNC 64d40 d 0 yaSSL::SSL_CTX::GetSessionCacheFlushOff
FUNC 64d50 d 0 yaSSL::SSL_CTX::SetUserData
FUNC 64d60 d 0 yaSSL::SSL_CTX::SetSessionCacheOff
FUNC 64d70 d 0 yaSSL::SSL_CTX::SetSessionCacheFlushOff
FUNC 64d80 d 0 yaSSL::SSL_CTX::setVerifyPeer
FUNC 64d90 d 0 yaSSL::SSL_CTX::setVerifyNone
FUNC 64da0 d 0 yaSSL::SSL_CTX::setFailNoCert
FUNC 64db0 d 0 yaSSL::SSL_CTX::setVerifyCallback
FUNC 64dc0 9 0 yaSSL::Crypto::get_digest
FUNC 64dd0 a 0 yaSSL::Crypto::get_cipher
FUNC 64de0 a 0 yaSSL::Crypto::get_dh
FUNC 64df0 a 0 yaSSL::Crypto::get_random
FUNC 64e00 a 0 yaSSL::Crypto::get_certManager
FUNC 64e10 9 0 yaSSL::Crypto::use_digest
FUNC 64e20 a 0 yaSSL::Crypto::use_cipher
FUNC 64e30 a 0 yaSSL::Crypto::use_dh
FUNC 64e40 a 0 yaSSL::Crypto::use_random
FUNC 64e50 a 0 yaSSL::Crypto::use_certManager
FUNC 64e60 a 0 yaSSL::Crypto::SetDH
FUNC 64e70 e 0 yaSSL::Crypto::DhSet
FUNC 64e80 9 0 yaSSL::Crypto::setDigest
FUNC 64e90 a 0 yaSSL::Crypto::setCipher
FUNC 64ea0 9 0 yaSSL::sslHashes::get_MD5
FUNC 64eb0 a 0 yaSSL::sslHashes::get_SHA
FUNC 64ec0 a 0 yaSSL::sslHashes::get_verify
FUNC 64ed0 a 0 yaSSL::sslHashes::get_certVerify
FUNC 64ee0 9 0 yaSSL::sslHashes::use_MD5
FUNC 64ef0 a 0 yaSSL::sslHashes::use_SHA
FUNC 64f00 a 0 yaSSL::sslHashes::use_verify
FUNC 64f10 a 0 yaSSL::sslHashes::use_certVerify
FUNC 64f20 53 0 yaSSL::Buffers::Buffers
FUNC 64f80 a 0 yaSSL::Buffers::SetOutput
FUNC 64f90 a 0 yaSSL::Buffers::SetRawInput
FUNC 64fa0 12 0 yaSSL::Buffers::TakeRawInput
FUNC 64fc0 12 0 yaSSL::Buffers::TakeOutput
FUNC 64fe0 a 0 yaSSL::Buffers::getData
FUNC 64ff0 a 0 yaSSL::Buffers::getHandShake
FUNC 65000 a 0 yaSSL::Buffers::useData
FUNC 65010 a 0 yaSSL::Buffers::useHandShake
FUNC 65020 9 0 yaSSL::Security::get_connection
FUNC 65030 d 0 yaSSL::Security::GetContext
FUNC 65040 d 0 yaSSL::Security::get_parms
FUNC 65050 d 0 yaSSL::Security::get_resume
FUNC 65060 d 0 yaSSL::Security::get_resuming
FUNC 65070 9 0 yaSSL::Security::use_connection
FUNC 65080 d 0 yaSSL::Security::use_parms
FUNC 65090 d 0 yaSSL::Security::use_resume
FUNC 650a0 d 0 yaSSL::Security::set_resuming
FUNC 650b0 9 0 yaSSL::X509_NAME::GetName
FUNC 650c0 a 0 yaSSL::X509_NAME::GetLength
FUNC 650d0 9 0 yaSSL::X509::GetIssuer
FUNC 650e0 a 0 yaSSL::X509::GetSubject
FUNC 650f0 a 0 yaSSL::X509::GetBefore
FUNC 65100 a 0 yaSSL::X509::GetAfter
FUNC 65110 9 0 yaSSL::StringHolder::GetString
FUNC 65120 b 0 yaSSL::Compress
FUNC 65130 b 0 yaSSL::DeCompress
FUNC 65140 66 0 yaSSL::SSL_CTX::AddCA
FUNC 651b0 79 0 yaSSL::SSL::addBuffer
FUNC 65230 89 0 yaSSL::SSL::addData
FUNC 652c0 61 0 yaSSL::StringHolder::StringHolder
FUNC 65330 98 0 yaSSL::X509_NAME::GetEntry
FUNC 653d0 55 0 yaSSL::X509_NAME::X509_NAME
FUNC 65430 a1 0 yaSSL::::setPrefix
FUNC 654e0 36 0 yaSSL::SSL::set_sessionID
FUNC 65520 3f 0 yaSSL::SSL::set_masterSecret
FUNC 65560 4b 0 yaSSL::SSL::set_random
FUNC 655b0 6e 0 yaSSL::Crypto::SetDH
FUNC 65620 78 0 yaSSL::Crypto::~Crypto
FUNC 656a0 5e 0 yaSSL::Crypto::Crypto
FUNC 65700 15d 0 yaSSL::SSL_CTX::IncrementStats
FUNC 65860 162 0 yaSSL::SSL_CTX::SetCipherList
FUNC 659d0 4d 0 yaSSL::SSL_CTX::SetDH
FUNC 65a20 9b 0 yaSSL::GetErrors
FUNC 65ac0 9f 0 yaSSL::Session_initialize
FUNC 65b60 a 0 yaSSL::c_session_initialize
FUNC 65b70 193 0 yaSSL::SSL_CTX::SSL_CTX
FUNC 65d10 a1 0 yaSSL::default_password_callback
FUNC 65dc0 14 0 yaSSL::yassl_mysql_strdup
FUNC 65de0 a 0 yaSSL::yassl_int_cpp_local2::GetSelf
FUNC 65df0 20 0 yaSSL::GetSessions
FUNC 65e10 59 0 yaSSL::SSL_SESSION::SSL_SESSION
FUNC 65e70 b9 0 yaSSL::SSL::Send
FUNC 65f30 3d 0 yaSSL::SSL::bufferedData
FUNC 65f70 a7 0 yaSSL::SSL::set_preMaster
FUNC 66020 ff5 0 yaSSL::SSL::set_pending
FUNC 67020 eb 0 yaSSL::sslFactory::sslFactory
FUNC 67110 70 0 yaSSL::GetSSL_Factory
FUNC 67180 164 0 yaSSL::SSL::PeekData
FUNC 672f0 1f0 0 yaSSL::SSL::fillData
FUNC 674e0 1a 0 yaSSL::StringHolder::~StringHolder
FUNC 67500 37 0 yaSSL::X509_NAME::~X509_NAME
FUNC 67540 135 0 yaSSL::Buffers::~Buffers
FUNC 67680 16e 0 yaSSL::X509::X509
FUNC 677f0 de 0 yaSSL::SSL_SESSION::CopyX509
FUNC 678d0 70 0 yaSSL::SSL::getFactory
FUNC 67940 10f 0 yaSSL::Errors::Lookup
FUNC 67a50 fd 0 yaSSL::Security::Security
FUNC 67b50 2d 0 yaSSL::SSL_SESSION::~SSL_SESSION
FUNC 67b80 da 0 yaSSL::Sessions::~Sessions
FUNC 67c60 b8 0 yayaSSL_CleanUp
FUNC 67d20 151 0 yaSSL::Sessions::Flush
FUNC 67e80 41a 0 yaSSL::SSL::SSL
FUNC 682a0 129 0 yaSSL::SSL_CTX::~SSL_CTX
FUNC 683d0 168 0 yaSSL::SSL_SESSION::operator=
FUNC 68540 161 0 yaSSL::Sessions::lookup
FUNC 686b0 8b 0 yaSSL::SSL::set_session
FUNC 68740 17a 0 yaSSL::SSL_SESSION::SSL_SESSION
FUNC 688c0 105 0 yaSSL::Sessions::add
FUNC 689d0 169 0 yaSSL::SSL::storeKeys
FUNC 68b40 134 0 yaSSL::SSL::deriveTLSKeys
FUNC 68c80 ae 0 yaSSL::SSL::makeTLSMasterSecret
FUNC 68d30 2fa 0 yaSSL::SSL::deriveKeys
FUNC 69030 f5 0 yaSSL::Errors::Remove
FUNC 69130 b8 0 yaSSL::Errors::Add
FUNC 691f0 139 0 yaSSL::Sessions::remove
FUNC 69330 10e 0 yaSSL::SSL::SendWriteBuffered
FUNC 69440 1f7 0 yaSSL::SSL::flushBuffer
FUNC 69640 4f1 0 yaSSL::SSL::makeMasterSecret
FUNC 69b40 1f0 0 yaSSL::SSL::verifyState
FUNC 69d30 10 0 yaSSL::HandShakeBase::~HandShakeBase
FUNC 69d40 14 0 yaSSL::HandShakeBase::~HandShakeBase
FUNC 69d60 12 0 yaSSL::ysArrayDelete<unsigned char>
FUNC 69d80 3b 0 yaSSL::DH_Parms::~DH_Parms
FUNC 69dc0 67 0 yaSSL::ysDelete<yaSSL::sslFactory>
FUNC 69e30 7f 0 yaSSL::ysDelete<yaSSL::X509>
FUNC 69eb0 8 0 __cxa_pure_virtual
FUNC 69ec0 18 0 yaSSL::lowResTimer
FUNC 69ee0 2d 0 yaSSL::timer
FUNC 69f10 8 0 __cxa_pure_virtual
FUNC 69f20 6 0 yaSSL::Log::Log
FUNC 69f30 6 0 yaSSL::Log::~Log
FUNC 69f40 6 0 yaSSL::Log::Trace
FUNC 69f50 6 0 yaSSL::Log::ShowTCP
FUNC 69f60 6 0 yaSSL::Log::ShowData
FUNC 69f70 8 0 __cxa_pure_virtual
FUNC 69f80 b 0 yaSSL::MD5::get_digestSize
FUNC 69f90 b 0 yaSSL::MD5::get_padSize
FUNC 69fa0 b 0 yaSSL::SHA::get_digestSize
FUNC 69fb0 b 0 yaSSL::SHA::get_padSize
FUNC 69fc0 b 0 yaSSL::RMD::get_digestSize
FUNC 69fd0 b 0 yaSSL::RMD::get_padSize
FUNC 69fe0 b 0 yaSSL::HMAC_MD5::get_digestSize
FUNC 69ff0 b 0 yaSSL::HMAC_MD5::get_padSize
FUNC 6a000 b 0 yaSSL::HMAC_SHA::get_digestSize
FUNC 6a010 b 0 yaSSL::HMAC_SHA::get_padSize
FUNC 6a020 b 0 yaSSL::HMAC_RMD::get_digestSize
FUNC 6a030 b 0 yaSSL::HMAC_RMD::get_padSize
FUNC 6a040 10 0 yaSSL::AES::get_keySize
FUNC 6a050 c 0 yaSSL::RandomPool::GetError
FUNC 6a060 d 0 yaSSL::DiffieHellman::get_agreedKey
FUNC 6a070 c 0 yaSSL::DiffieHellman::get_publicKeyLength
FUNC 6a080 d 0 yaSSL::DiffieHellman::get_publicKey
FUNC 6a090 46 0 yaSSL::AES::~AES
FUNC 6a0e0 30 0 yaSSL::RC4::~RC4
FUNC 6a110 46 0 yaSSL::DES_EDE::~DES_EDE
FUNC 6a160 46 0 yaSSL::DES::~DES
FUNC 6a1b0 40 0 yaSSL::HMAC_RMD::~HMAC_RMD
FUNC 6a1f0 40 0 yaSSL::HMAC_SHA::~HMAC_SHA
FUNC 6a230 40 0 yaSSL::HMAC_MD5::~HMAC_MD5
FUNC 6a270 3f 0 yaSSL::RMD::~RMD
FUNC 6a2b0 3f 0 yaSSL::SHA::~SHA
FUNC 6a2f0 3f 0 yaSSL::MD5::~MD5
FUNC 6a330 b7 0 yaSSL::AES::AES
FUNC 6a3f0 3d 0 yaSSL::RC4::RC4
FUNC 6a430 b1 0 yaSSL::DES_EDE::DES_EDE
FUNC 6a4f0 b1 0 yaSSL::DES::DES
FUNC 6a5b0 58 0 yaSSL::Integer::Integer
FUNC 6a610 d 0 yaSSL::DiffieHellman::get_agreedKeyLength
FUNC 6a620 e 0 yaSSL::RSA::get_cipherLength
FUNC 6a630 e 0 yaSSL::RSA::get_signatureLength
FUNC 6a640 1b 0 yaSSL::DiffieHellman::makeAgreement
FUNC 6a660 4a 0 yaSSL::Integer::Integer
FUNC 6a6b0 21 0 yaSSL::Integer::operator=
FUNC 6a6e0 e 0 yaSSL::DSS::get_signatureLength
FUNC 6a6f0 d 0 yaSSL::RandomPool::Fill
FUNC 6a700 37 0 yaSSL::RandomPool::~RandomPool
FUNC 6a740 4a 0 yaSSL::RandomPool::RandomPool
FUNC 6a790 50 0 yaSSL::AES::set_decryptKey
FUNC 6a7e0 43 0 yaSSL::AES::set_encryptKey
FUNC 6a830 15 0 yaSSL::RC4::decrypt
FUNC 6a850 e 0 yaSSL::RC4::encrypt
FUNC 6a860 1a 0 yaSSL::RC4::set_decryptKey
FUNC 6a880 13 0 yaSSL::RC4::set_encryptKey
FUNC 6a8a0 43 0 yaSSL::DES_EDE::set_decryptKey
FUNC 6a8f0 39 0 yaSSL::DES_EDE::set_encryptKey
FUNC 6a930 4d 0 yaSSL::DES::set_decryptKey
FUNC 6a980 41 0 yaSSL::DES::set_encryptKey
FUNC 6a9d0 e 0 yaSSL::RMD::update
FUNC 6a9e0 e 0 yaSSL::SHA::update
FUNC 6a9f0 e 0 yaSSL::MD5::update
FUNC 6aa00 d1 0 yaSSL::HMAC_RMD::get_digest
FUNC 6aae0 d1 0 yaSSL::HMAC_SHA::get_digest
FUNC 6abc0 d1 0 yaSSL::HMAC_MD5::get_digest
FUNC 6aca0 e 0 yaSSL::RMD::get_digest
FUNC 6acb0 3a 0 yaSSL::RMD::get_digest
FUNC 6acf0 e 0 yaSSL::SHA::get_digest
FUNC 6ad00 3a 0 yaSSL::SHA::get_digest
FUNC 6ad40 e 0 yaSSL::MD5::get_digest
FUNC 6ad50 3a 0 yaSSL::MD5::get_digest
FUNC 6ad90 15a 0 yaSSL::HMAC_RMD::HMAC_RMD
FUNC 6aef0 15a 0 yaSSL::HMAC_SHA::HMAC_SHA
FUNC 6b050 15a 0 yaSSL::HMAC_MD5::HMAC_MD5
FUNC 6b1b0 23 0 yaSSL::RMD::operator=
FUNC 6b1e0 71 0 yaSSL::RMD::RMD
FUNC 6b260 23 0 yaSSL::SHA::operator=
FUNC 6b290 71 0 yaSSL::SHA::SHA
FUNC 6b310 23 0 yaSSL::MD5::operator=
FUNC 6b340 71 0 yaSSL::MD5::MD5
FUNC 6b3c0 37 0 yaSSL::RC4::~RC4
FUNC 6b400 46 0 yaSSL::MD5::~MD5
FUNC 6b450 46 0 yaSSL::SHA::~SHA
FUNC 6b4a0 46 0 yaSSL::RMD::~RMD
FUNC 6b4f0 47 0 yaSSL::HMAC_MD5::~HMAC_MD5
FUNC 6b540 47 0 yaSSL::HMAC_SHA::~HMAC_SHA
FUNC 6b590 47 0 yaSSL::HMAC_RMD::~HMAC_RMD
FUNC 6b5e0 4d 0 yaSSL::DES::~DES
FUNC 6b630 4d 0 yaSSL::DES_EDE::~DES_EDE
FUNC 6b680 4d 0 yaSSL::AES::~AES
FUNC 6b6d0 62 0 yaSSL::HMAC_SHA::update
FUNC 6b740 62 0 yaSSL::HMAC_MD5::update
FUNC 6b7b0 62 0 yaSSL::HMAC_RMD::update
FUNC 6b820 92 0 yaSSL::SHA::SHA
FUNC 6b8c0 92 0 yaSSL::RMD::RMD
FUNC 6b960 92 0 yaSSL::MD5::MD5
FUNC 6ba00 698 0 yaSSL::PemToDer
FUNC 6c0a0 90 0 yaSSL::RSA::RSAImpl::SetPublic
FUNC 6c130 90 0 yaSSL::DSS::DSSImpl::SetPublic
FUNC 6c1c0 110 0 yaSSL::DiffieHellman::DiffieHellman
FUNC 6c2d0 84 0 yaSSL::HMAC_SHA::get_digest
FUNC 6c360 84 0 yaSSL::HMAC_RMD::get_digest
FUNC 6c3f0 84 0 yaSSL::HMAC_MD5::get_digest
FUNC 6c480 1b 0 yaSSL::RSA::verify
FUNC 6c4a0 e3 0 yaSSL::DiffieHellman::DiffieHellman
FUNC 6c590 10d 0 yaSSL::DiffieHellman::get_parms
FUNC 6c6a0 17b 0 yaSSL::DiffieHellman::DiffieHellman
FUNC 6c820 66 0 yaSSL::Integer::assign
FUNC 6c890 e9 0 yaSSL::DiffieHellman::set_sizes
FUNC 6c980 5b 0 yaSSL::Integer::~Integer
FUNC 6c9e0 df 0 yaSSL::DSS::verify
FUNC 6cac0 29 0 yaSSL::RSA::encrypt
FUNC 6caf0 eb 0 yaSSL::DSS::sign
FUNC 6cbe0 2d 0 yaSSL::RSA::decrypt
FUNC 6cc10 ea 0 yaSSL::DiffieHellman::operator=
FUNC 6cd00 95 0 yaSSL::DiffieHellman::~DiffieHellman
FUNC 6cda0 183 0 yaSSL::DES::decrypt
FUNC 6cf30 15b 0 yaSSL::DES::encrypt
FUNC 6d090 183 0 yaSSL::AES::decrypt
FUNC 6d220 15b 0 yaSSL::AES::encrypt
FUNC 6d380 183 0 yaSSL::DES_EDE::decrypt
FUNC 6d510 15b 0 yaSSL::DES_EDE::encrypt
FUNC 6d670 2d 0 yaSSL::RSA::sign
FUNC 6d6a0 1c4 0 yaSSL::RSA::RSAImpl::SetPrivate
FUNC 6d870 1ad 0 yaSSL::RSA::RSA
FUNC 6da20 30 0 yaSSL::RSA::~RSA
FUNC 6da50 37 0 yaSSL::RSA::~RSA
FUNC 6da90 163 0 yaSSL::DSS::DSSImpl::SetPrivate
FUNC 6dc00 17e 0 yaSSL::DSS::DSS
FUNC 6dd80 30 0 yaSSL::DSS::~DSS
FUNC 6ddb0 37 0 yaSSL::DSS::~DSS
FUNC 6ddf0 10 0 yaSSL::Digest::~Digest
FUNC 6de00 10 0 yaSSL::BulkCipher::~BulkCipher
FUNC 6de10 b 0 yaSSL::DES::get_blockSize
FUNC 6de20 b 0 yaSSL::DES::get_keySize
FUNC 6de30 b 0 yaSSL::DES::get_ivSize
FUNC 6de40 b 0 yaSSL::DES_EDE::get_blockSize
FUNC 6de50 b 0 yaSSL::DES_EDE::get_keySize
FUNC 6de60 b 0 yaSSL::DES_EDE::get_ivSize
FUNC 6de70 8 0 yaSSL::RC4::get_blockSize
FUNC 6de80 b 0 yaSSL::RC4::get_keySize
FUNC 6de90 8 0 yaSSL::RC4::get_ivSize
FUNC 6dea0 b 0 yaSSL::AES::get_blockSize
FUNC 6deb0 b 0 yaSSL::AES::get_ivSize
FUNC 6dec0 10 0 yaSSL::Auth::~Auth
FUNC 6ded0 10 0 TaoCrypt::HASH::~HASH
FUNC 6dee0 14 0 yaSSL::Auth::~Auth
FUNC 6df00 14 0 yaSSL::BulkCipher::~BulkCipher
FUNC 6df20 14 0 TaoCrypt::HASH::~HASH
FUNC 6df40 14 0 yaSSL::Digest::~Digest
FUNC 6df60 3f 0 TaoCrypt::Integer::~Integer
FUNC 6dfa0 37 0 mySTL::auto_ptr<yaSSL::x509>::~auto_ptr
FUNC 6dfe0 37 0 TaoCrypt::Block<unsigned char, TaoCrypt::AllocatorWithCleanup<unsigned char> >::~Block
FUNC 6e020 ea 0 TaoCrypt::RSA_Encryptor<TaoCrypt::RSA_BlockType2>::SSL_Verify
FUNC 6e110 5d 0 TaoCrypt::DH::~DH
FUNC 6e170 5d 0 TaoCrypt::RSA_PublicKey::~RSA_PublicKey
FUNC 6e1d0 a5 0 TaoCrypt::DSA_PublicKey::~DSA_PublicKey
FUNC 6e280 1b6 0 TaoCrypt::RSA_Encryptor<TaoCrypt::RSA_BlockType2>::Encrypt
FUNC 6e440 1b6 0 TaoCrypt::RSA_Encryptor<TaoCrypt::RSA_BlockType1>::Encrypt
FUNC 6e600 1ce 0 TaoCrypt::RSA_Decryptor<TaoCrypt::RSA_BlockType2>::Decrypt
FUNC 6e7d0 f7 0 TaoCrypt::RSA_Decryptor<TaoCrypt::RSA_BlockType2>::SSL_Sign
FUNC 6e8d0 1b3 0 yaSSL::ysDelete<yaSSL::RSA::RSAImpl>
FUNC 6ea90 183 0 yaSSL::ysDelete<yaSSL::DSS::DSSImpl>
FUNC 6ec20 8 0 __cxa_pure_virtual
FUNC 6ec30 1e 0 yaSSL::x509::Swap
FUNC 6ec50 8 0 yaSSL::x509::get_length
FUNC 6ec60 a 0 yaSSL::x509::get_buffer
FUNC 6ec70 a 0 yaSSL::x509::use_buffer
FUNC 6ec80 d 0 yaSSL::CertManager::verifyPeer
FUNC 6ec90 d 0 yaSSL::CertManager::verifyNone
FUNC 6eca0 d 0 yaSSL::CertManager::failNoCert
FUNC 6ecb0 d 0 yaSSL::CertManager::sendVerify
FUNC 6ecc0 d 0 yaSSL::CertManager::setVerifyPeer
FUNC 6ecd0 d 0 yaSSL::CertManager::setVerifyNone
FUNC 6ece0 d 0 yaSSL::CertManager::sendBlankCert
FUNC 6ecf0 d 0 yaSSL::CertManager::setFailNoCert
FUNC 6ed00 d 0 yaSSL::CertManager::setSendVerify
FUNC 6ed10 d 0 yaSSL::CertManager::setSendBlankCert
FUNC 6ed20 d 0 yaSSL::CertManager::setVerifyCallback
FUNC 6ed30 14 0 yaSSL::CertManager::get_cert
FUNC 6ed50 a 0 yaSSL::CertManager::get_peerX509
FUNC 6ed60 a 0 yaSSL::CertManager::get_selfX509
FUNC 6ed70 c 0 yaSSL::CertManager::get_peerKeyType
FUNC 6ed80 c 0 yaSSL::CertManager::get_keyType
FUNC 6ed90 128 0 yaSSL::CertManager::setPeerX509
FUNC 6eec0 66 0 yaSSL::CertManager::AddPeerCert
FUNC 6ef30 3c 0 yaSSL::x509::x509
FUNC 6ef70 20 0 yaSSL::x509::x509
FUNC 6ef90 1a 0 yaSSL::x509::~x509
FUNC 6efb0 e 0 yaSSL::CertManager::get_privateKeyLength
FUNC 6efc0 e 0 yaSSL::CertManager::get_peerKeyLength
FUNC 6efd0 e 0 yaSSL::CertManager::get_privateKey
FUNC 6efe0 e 0 yaSSL::CertManager::get_peerKey
FUNC 6eff0 70 0 yaSSL::x509::operator=
FUNC 6f060 b0 0 yaSSL::CertManager::CopySelfCert
FUNC 6f110 196 0 yaSSL::CertManager::CopyCaCert
FUNC 6f2b0 302 0 yaSSL::CertManager::SetPrivateKey
FUNC 6f5c0 56e 0 yaSSL::CertManager::Validate
FUNC 6fb30 1cb 0 yaSSL::CertManager::~CertManager
FUNC 6fd00 118 0 yaSSL::CertManager::CertManager
FUNC 6fe20 8 0 __cxa_pure_virtual
FUNC 6fe30 d 0 yaSSL::Mutex::Lock::~Lock
FUNC 6fe40 10 0 yaSSL::Mutex::Lock::Lock
FUNC 6fe50 a 0 yaSSL::Mutex::~Mutex
FUNC 6fe60 c 0 yaSSL::Mutex::Mutex
FUNC 6fe70 8 0 __cxa_pure_virtual
FUNC 6fe80 2a 0 yaSSL::Socket::Socket
FUNC 6feb0 8 0 yaSSL::Socket::set_fd
FUNC 6fec0 8 0 yaSSL::Socket::get_fd
FUNC 6fed0 6 0 yaSSL::Socket::~Socket
FUNC 6fee0 a 0 yaSSL::Socket::set_transport_ptr
FUNC 6fef0 a 0 yaSSL::Socket::set_transport_recv_function
FUNC 6ff00 a 0 yaSSL::Socket::set_transport_send_function
FUNC 6ff10 a 0 yaSSL::Socket::WouldBlock
FUNC 6ff20 a 0 yaSSL::Socket::IsNonBlocking
FUNC 6ff30 19 0 yaSSL::Socket::set_lastError
FUNC 6ff50 d 0 yaSSL::Socket::get_lastError
FUNC 6ff60 56 0 yaSSL::Socket::receive
FUNC 6ffc0 9d 0 yaSSL::Socket::send
FUNC 70060 c 0 yaSSL::Socket::shutDown
FUNC 70070 26 0 yaSSL::Socket::get_ready
FUNC 700a0 25 0 yaSSL::Socket::closeSocket
FUNC 700d0 e 0 system_send
FUNC 700e0 e 0 system_recv
FUNC 700f0 8 0 __cxa_pure_virtual
FUNC 70100 b 0 yaSSL::yaSSL_get_default_timeout
FUNC 70110 d 0 yaSSL::yaSSLeay_version
FUNC 70120 6 0 yaSSL::yaX509_free
FUNC 70130 a 0 yaSSL::yaX509_STORE_CTX_get_current_cert
FUNC 70140 8 0 yaSSL::yaX509_STORE_CTX_get_error
FUNC 70150 9 0 yaSSL::yaX509_STORE_CTX_get_error_depth
FUNC 70160 6 0 yaSSL::yaSSL_load_error_strings
FUNC 70170 6 0 yaSSL::yaSSL_set_connect_state
FUNC 70180 8 0 yaSSL::yaSSL_get_verify_result
FUNC 70190 8 0 yaSSL::yaSSL_CTX_sess_set_cache_size
FUNC 701a0 8 0 yaSSL::yaSSL_CTX_get_session_cache_mode
FUNC 701b0 b 0 yaSSL::yaSSL_CTX_set_default_verify_paths
FUNC 701c0 b 0 yaSSL::yaSSL_CTX_set_session_id_context
FUNC 701d0 b 0 yaSSL::yaSSL_CTX_check_private_key
FUNC 701e0 b 0 yaSSL::yaSSL_CTX_set_options
FUNC 701f0 6 0 yaSSL::yaSSL_CTX_set_info_callback
FUNC 70200 6 0 yaSSL::yaOpenSSL_add_all_algorithms
FUNC 70210 b 0 yaSSL::yaSSL_library_init
FUNC 70220 8 0 yaSSL::yaERR_get_error_line_data
FUNC 70230 6 0 yaSSL::yaERR_print_errors_fp
FUNC 70240 d 0 yaSSL::yaX509_verify_cert_error_string
FUNC 70250 d 0 yaSSL::yaEVP_md5
FUNC 70260 d 0 yaSSL::yaEVP_des_ede3_cbc
FUNC 70270 b 0 yaSSL::yaRAND_status
FUNC 70280 6 0 yaSSL::yaDES_set_odd_parity
FUNC 70290 8 0 yaSSL::yaSSL_get_privatekey
FUNC 702a0 6 0 yaSSL::yaSSL_SESSION_free
FUNC 702b0 8 0 yaSSL::yaX509_get_pubkey
FUNC 702c0 8 0 yaSSL::yaEVP_PKEY_copy_parameters
FUNC 702d0 6 0 yaSSL::yaEVP_PKEY_free
FUNC 702e0 6 0 yaSSL::yaERR_free_strings
FUNC 702f0 6 0 yaSSL::yaEVP_cleanup
FUNC 70300 8 0 yaSSL::yaSSLv2_client_method
FUNC 70310 6 0 yaSSL::yaGENERAL_NAMES_free
FUNC 70320 8 0 yaSSL::yask_GENERAL_NAME_num
FUNC 70330 8 0 yaSSL::yask_GENERAL_NAME_value
FUNC 70340 11 0 yaSSL::yaASN1_STRING_data
FUNC 70360 10 0 yaSSL::yaASN1_STRING_length
FUNC 70370 f 0 yaSSL::yaASN1_STRING_type
FUNC 70380 19 0 yaSSL::yaX509_NAME_get_index_by_NID
FUNC 703a0 9 0 yaSSL::yaX509_NAME_ENTRY_get_data
FUNC 703b0 8 0 yaSSL::yaX509_get_ext_d2i
FUNC 703c0 e 0 yaSSL::yaMD4_Update
FUNC 703d0 17 0 yaSSL::yaMD4_Final
FUNC 703f0 e 0 yaSSL::yaMD5_Update
FUNC 70400 17 0 yaSSL::yaMD5_Final
FUNC 70420 b 0 yaSSL::yaSSLeay_add_ssl_algorithms
FUNC 70430 d 0 yaSSL::yaERR_GET_REASON
FUNC 70440 6 0 yaSSL::yaRAND_screen
FUNC 70450 8 0 yaSSL::yaRAND_file_name
FUNC 70460 8 0 yaSSL::yaRAND_write_file
FUNC 70470 8 0 yaSSL::yaRAND_load_file
FUNC 70480 6 0 yaSSL::yaRSA_free
FUNC 70490 8 0 yaSSL::yaRSA_generate_key
FUNC 704a0 b 0 yaSSL::yaX509_LOOKUP_add_dir
FUNC 704b0 b 0 yaSSL::yaX509_LOOKUP_load_file
FUNC 704c0 8 0 yaSSL::yaX509_LOOKUP_hash_dir
FUNC 704d0 8 0 yaSSL::yaX509_LOOKUP_file
FUNC 704e0 8 0 yaSSL::yaX509_STORE_add_lookup
FUNC 704f0 b 0 yaSSL::yaX509_STORE_get_by_subject
FUNC 70500 8 0 yaSSL::yaX509_STORE_new
FUNC 70510 8 0 yaSSL::yaSSL_alert_type_string_long
FUNC 70520 8 0 yaSSL::yaSSL_alert_desc_string_long
FUNC 70530 8 0 yaSSL::yaSSL_state_string_long
FUNC 70540 6 0 yaSSL::yaSSL_CTX_set_tmp_rsa_callback
FUNC 70550 b 0 yaSSL::yaSSL_CTX_set_timeout
FUNC 70560 b 0 yaSSL::yaSSL_CTX_use_certificate_chain_file
FUNC 70570 b 0 yaSSL::yaSSL_CTX_use_RSAPrivateKey_file
FUNC 70580 b 0 yaSSL::yaSSL_set_rfd
FUNC 70590 b 0 yaSSL::yaSSL_set_wfd
FUNC 705a0 8 0 yaSSL::yaSSL_want_read
FUNC 705b0 8 0 yaSSL::yaSSL_want_write
FUNC 705c0 6 0 yaSSL::yaSSL_set_shutdown
FUNC 705d0 8 0 yaSSL::yaSSL_get_current_cipher
FUNC 705e0 8 0 yaSSL::yaSSL_CIPHER_description
FUNC 705f0 22 0 yaSSL::yaSSL_transport_set_send_function
FUNC 70620 22 0 yaSSL::yaSSL_transport_set_recv_function
FUNC 70650 22 0 yaSSL::yaSSL_transport_set_ptr
FUNC 70680 71 0 yaSSL::ya_SSL_ASN1_TIME_to_string
FUNC 70700 38 0 yaSSL::err_helper
FUNC 70740 12 0 yaSSL::yaERR_remove_state
FUNC 70760 18 0 yaSSL::yaSSL_clear
FUNC 70780 a 0 yaSSL::yaSSL_CTX_set_default_passwd_cb
FUNC 70790 58 0 yaSSL::yaSSL_peek
FUNC 707f0 55 0 yaSSL::yaSSL_read
FUNC 70850 7d 0 yaSSL::yaRAND_bytes
FUNC 708d0 4c 0 yaSSL::yaMD5_Init
FUNC 70920 4c 0 yaSSL::yaMD4_Init
FUNC 70970 5e 0 yaSSL::yaASN1_STRING_to_UTF8
FUNC 709d0 11 0 yaSSL::yaDES_set_key
FUNC 709f0 c 0 yaSSL::yaDES_set_key_unchecked
FUNC 70a00 a 0 yaSSL::yaX509_NAME_get_entry
FUNC 70a10 14 0 yaSSL::yaX509_get_notAfter
FUNC 70a30 14 0 yaSSL::yaX509_get_notBefore
FUNC 70a50 1a 0 yaSSL::yaSSL_get_certificate
FUNC 70a70 a 0 yaSSL::yaSSL_CTX_set_default_passwd_cb_userdata
FUNC 70a80 b5 0 yaSSL::yaDES_ecb_encrypt
FUNC 70b40 d2 0 yaSSL::yaDES_ede3_cbc_encrypt
FUNC 70c20 2d4 0 yaSSL::yaEVP_BytesToKey
FUNC 70f00 31 0 yaSSL::yaERR_error_string
FUNC 70f40 24 0 yaSSL::yaDH_new
FUNC 70f70 1e 0 yaSSL::yaSSL_get_verify_depth
FUNC 70f90 e 0 yaSSL::yaSSL_CTX_get_verify_depth
FUNC 70fa0 1e 0 yaSSL::yaSSL_get_verify_mode
FUNC 70fc0 e 0 yaSSL::yaSSL_CTX_get_verify_mode
FUNC 70fd0 f 0 yaSSL::yaSSL_CTX_sess_get_cache_size
FUNC 70fe0 f 0 yaSSL::yaSSL_CTX_sess_number
FUNC 70ff0 f 0 yaSSL::yaSSL_CTX_sess_timeouts
FUNC 71000 f 0 yaSSL::yaSSL_CTX_sess_misses
FUNC 71010 f 0 yaSSL::yaSSL_CTX_sess_cache_full
FUNC 71020 f 0 yaSSL::yaSSL_CTX_sess_cb_hits
FUNC 71030 f 0 yaSSL::yaSSL_CTX_sess_hits
FUNC 71040 f 0 yaSSL::yaSSL_CTX_sess_connect_renegotiate
FUNC 71050 f 0 yaSSL::yaSSL_CTX_sess_accept_renegotiate
FUNC 71060 f 0 yaSSL::yaSSL_CTX_sess_connect_good
FUNC 71070 f 0 yaSSL::yaSSL_CTX_sess_accept_good
FUNC 71080 f 0 yaSSL::yaSSL_CTX_sess_connect
FUNC 71090 e 0 yaSSL::yaSSL_CTX_sess_accept
FUNC 710a0 17 0 yaSSL::yaSSL_get_shared_ciphers
FUNC 710c0 6d 0 yaSSL::yaSSL_CTX_set_verify
FUNC 71130 e 0 yaSSL::yaSSL_CTX_set_tmp_dh
FUNC 71140 19 0 yaSSL::yaSSL_set_accept_state
FUNC 71160 a 0 yaSSL::yaX509_get_subject_name
FUNC 71170 a 0 yaSSL::yaX509_get_issuer_name
FUNC 71180 aa 0 yaSSL::yaX509_NAME_oneline
FUNC 71230 1a 0 yaSSL::yaSSL_get_peer_certificate
FUNC 71250 a 0 yaSSL::yaSSL_set_compression
FUNC 71260 12 0 yaSSL::yaSSL_get_error
FUNC 71280 29 0 yaSSL::yaSSL_get_version
FUNC 712b0 e 0 yaSSL::yaSSL_CTX_set_cipher_list
FUNC 712c0 6b 0 yaSSL::yaSSL_get_cipher_list
FUNC 71330 19 0 yaSSL::yaSSL_get_cipher
FUNC 71350 1e 0 yaSSL::yaSSL_flush_sessions
FUNC 71370 17 0 yaSSL::yaSSL_SESSION_set_timeout
FUNC 71390 16 0 yaSSL::yaSSL_session_reused
FUNC 713b0 4e 0 yaSSL::yaSSL_set_session
FUNC 71400 5c 0 yaSSL::yaSSL_get_session
FUNC 71460 a 0 yaSSL::yaSSL_get1_session
FUNC 71470 3c 0 yaSSL::yaSSL_CTX_set_session_cache_mode
FUNC 714b0 e 0 yaSSL::yaSSL_get_quiet_shutdown
FUNC 714c0 14 0 yaSSL::yaSSL_set_quiet_shutdown
FUNC 714e0 12 0 yaSSL::yaSSL_get_fd
FUNC 71500 8e 0 yaSSL::yaSSL_shutdown
FUNC 71590 349 0 yaSSL::yaSSL_accept
FUNC 718e0 a 0 yaSSL::yaSSL_write
FUNC 718f0 37e 0 yaSSL::yaSSL_connect
FUNC 71c70 3e 0 yaSSL::yaSSL_do_handshake
FUNC 71cb0 26 0 yaSSL::yaSSL_set_fd
FUNC 71ce0 4c 0 yaSSL::yaSSL_new
FUNC 71d30 2f 0 yaSSL::yaSSL_CTX_free
FUNC 71d60 4c 0 yaSSL::yaSSL_CTX_new
FUNC 71db0 61 0 yaSSL::yaSSLv23_client_method
FUNC 71e20 5e 0 yaSSL::yaSSLv23_server_method
FUNC 71e80 5e 0 yaSSL::yaTLSv1_1_client_method
FUNC 71ee0 5b 0 yaSSL::yaTLSv1_1_server_method
FUNC 71f40 5e 0 yaSSL::yaTLSv1_client_method
FUNC 71fa0 5b 0 yaSSL::yaTLSv1_server_method
FUNC 72000 5b 0 yaSSL::yaSSLv3_client_method
FUNC 72060 58 0 yaSSL::yaSSLv3_server_method
FUNC 720c0 5d 0 yaSSL::yaSSL_pending
FUNC 72120 1b 0 yaSSL::yaERR_error_string_n
FUNC 72140 19 0 yaSSL::yaSSL_get_cipher_name
FUNC 72160 2b 0 yaSSL::yaERR_get_error
FUNC 72190 2e 0 yaSSL::yaERR_peek_error
FUNC 721c0 56 0 yaSSL::yaDH_free
FUNC 72220 5b 0 yaSSL::yaSSLv3_method
FUNC 72280 a 0 yaSSL::yaSSL_free
FUNC 72290 d1 0 yaSSL::yaBN_bin2bn
FUNC 72370 868 0 yaSSL::read_file
FUNC 72be0 247 0 yaSSL::yaSSL_CTX_load_verify_locations
FUNC 72e30 f 0 yaSSL::yaSSL_CTX_use_PrivateKey_file
FUNC 72e40 c 0 yaSSL::yaSSL_CTX_use_certificate_file
FUNC 72e50 10 0 yaSSL::Message::~Message
FUNC 72e60 37 0 mySTL::auto_ptr<yaSSL::BulkCipher>::reset
FUNC 72ea0 14 0 yaSSL::Message::~Message
FUNC 72ec0 4c 0 TaoCrypt::Source::Source
FUNC 72f10 37 0 TaoCrypt::AllocatorWithCleanup<unsigned char>::deallocate
FUNC 72f50 2f 0 yaSSL::ysDelete<yaSSL::x509>
FUNC 72f80 118 0 yaSSL::ysDelete<yaSSL::SSL>
FUNC 730a0 135 0 TaoCrypt::RSA_PrivateKey::~RSA_PrivateKey
FUNC 731e0 c5 0 TaoCrypt::DSA_PrivateKey::~DSA_PrivateKey
FUNC 732b0 8 0 __cxa_pure_virtual
FUNC 732c0 b4 0 yaSSL::::hashHandShake
FUNC 73380 22c 0 yaSSL::sendCertificateVerify
FUNC 735b0 94 0 yaSSL::hashHandShake
FUNC 73650 5a9 0 yaSSL::build_certHashes
FUNC 73c00 1f4 0 yaSSL::hmac
FUNC 73e00 317 0 yaSSL::ProcessOldClientHello
FUNC 74120 10c 0 yaSSL::buildClientHello
FUNC 74230 140 0 yaSSL::buildServerHello
FUNC 74370 1d3 0 yaSSL::hmac
FUNC 74550 600 0 yaSSL::DoProcessReply
FUNC 74b50 73 0 yaSSL::processReply
FUNC 74bd0 115 0 yaSSL::receiveData
FUNC 74cf0 234 0 yaSSL::::p_hash
FUNC 74f30 21e 0 yaSSL::PRF
FUNC 75150 95c 0 yaSSL::buildFinished
FUNC 75ab0 1e2 0 yaSSL::TLS_hmac
FUNC 75ca0 1d4 0 yaSSL::TLS_hmac
FUNC 75e80 440 0 yaSSL::::buildMessage
FUNC 762c0 2ff 0 yaSSL::sendData
FUNC 765c0 136 0 yaSSL::sendAlert
FUNC 76700 1d8 0 yaSSL::sendChangeCipher
FUNC 768e0 667 0 yaSSL::sendFinished
FUNC 76f50 25f 0 yaSSL::sendServerHello
FUNC 771b0 1de 0 yaSSL::sendClientHello
FUNC 77390 214 0 yaSSL::sendClientKeyExchange
FUNC 775b0 204 0 yaSSL::sendCertificateRequest
FUNC 777c0 1e6 0 yaSSL::sendCertificate
FUNC 779b0 1c6 0 yaSSL::sendServerHelloDone
FUNC 77b80 214 0 yaSSL::sendServerKeyExchange
FUNC 77da0 37 0 mySTL::auto_ptr<yaSSL::output_buffer>::~auto_ptr
FUNC 77de0 8 0 __cxa_pure_virtual
FUNC 77df0 c 0 yaSSL::ProtocolVersion::ProtocolVersion
FUNC 77e00 1f 0 yaSSL::EncryptedPreMasterSecret::EncryptedPreMasterSecret
FUNC 77e20 9 0 yaSSL::EncryptedPreMasterSecret::get_length
FUNC 77e30 a 0 yaSSL::EncryptedPreMasterSecret::get_clientKey
FUNC 77e40 1f 0 yaSSL::ClientDiffieHellmanPublic::ClientDiffieHellmanPublic
FUNC 77e60 9 0 yaSSL::ClientDiffieHellmanPublic::get_length
FUNC 77e70 a 0 yaSSL::ClientDiffieHellmanPublic::get_clientKey
