MODULE Linux x86_64 285940CD2D0505469BFFA1CE5C2AB7460 IEC103_SFIEC103
FUNC 133f4 1b0 0 main
FUNC 135a4 1c4 0 __static_initialization_and_destruction_0
FUNC 13768 15 0 _GLOBAL__I_IEC103.cpp
FUNC 1377e 1c 0 std::exception::exception
FUNC 1379a 2c 0 std::bad_exception::bad_exception
FUNC 137c6 2c 0 std::bad_alloc::bad_alloc
FUNC 137f2 29 0 Config::setChannelName
FUNC 1381c 19 0 boost::error_info<boost::throw_function_, const char*>::error_info
FUNC 13836 19 0 boost::error_info<boost::throw_file_, const char*>::error_info
FUNC 13850 16 0 boost::error_info<boost::throw_line_, int>::error_info
FUNC 13866 53 0 boost::exception::exception
FUNC 138ba 5d 0 boost::exception::~exception
FUNC 13918 26 0 boost::exception::~exception
FUNC 1393e 35 0 boost::exception_detail::clone_base::~clone_base
FUNC 13974 26 0 boost::exception_detail::clone_base::~clone_base
FUNC 1399a 10d 0 boost::exception_detail::copy_boost_exception
FUNC 13aa7 22 0 boost::detail::atomic_exchange_and_add
FUNC 13ac9 15 0 boost::detail::atomic_increment
FUNC 13ade 32 0 boost::detail::sp_counted_base::sp_counted_base
FUNC 13b10 35 0 boost::detail::sp_counted_base::~sp_counted_base
FUNC 13b46 26 0 boost::detail::sp_counted_base::~sp_counted_base
FUNC 13b6c 2c 0 boost::detail::sp_counted_base::destroy
FUNC 13b98 1e 0 boost::detail::sp_counted_base::add_ref_copy
FUNC 13bb6 50 0 boost::detail::sp_counted_base::release
FUNC 13c06 44 0 boost::detail::sp_counted_base::weak_release
FUNC 13c4a 29 0 boost::detail::shared_count::~shared_count
FUNC 13c74 3b 0 boost::detail::shared_count::shared_count
FUNC 13caf 6 0 boost::detail::sp_enable_shared_from_this
FUNC 13cb6 1e 0 boost::shared_ptr<const boost::exception_detail::clone_base>::~shared_ptr
FUNC 13cd4 3b 0 boost::shared_ptr<const boost::exception_detail::clone_base>::shared_ptr
FUNC 13d10 25 0 boost::exception_ptr::exception_ptr
FUNC 13d36 7c 0 boost::exception_detail::bad_alloc_::~bad_alloc_
FUNC 13dc2 26 0 boost::exception_detail::bad_alloc_::~bad_alloc_
FUNC 13de8 7c 0 boost::exception_detail::bad_exception_::~bad_exception_
FUNC 13e74 26 0 boost::exception_detail::bad_exception_::~bad_exception_
FUNC 13e9a 6d 0 boost::exception::exception
FUNC 13f08 1a 0 boost::exception_ptr::~exception_ptr
FUNC 13f22 25 0 boost::exception_ptr::exception_ptr
FUNC 13f48 15 0 boost::exception_detail::refcount_ptr<boost::exception_detail::error_info_container>::refcount_ptr
FUNC 13f5e 1a 0 boost::exception_detail::refcount_ptr<boost::exception_detail::error_info_container>::~refcount_ptr
FUNC 13f78 11 0 boost::exception_detail::refcount_ptr<boost::exception_detail::error_info_container>::get
FUNC 13f8a 2c 0 boost::exception_detail::refcount_ptr<boost::exception_detail::error_info_container>::operator=
FUNC 13fb6 20 0 std::exception::exception
FUNC 13fd6 20 0 boost::exception_detail::clone_base::clone_base
FUNC 13ff6 a 0 boost::arg<1>::arg
FUNC 14000 a 0 boost::arg<2>::arg
FUNC 1400a a 0 boost::arg<3>::arg
FUNC 14014 a 0 boost::arg<4>::arg
FUNC 1401e a 0 boost::arg<5>::arg
FUNC 14028 a 0 boost::arg<6>::arg
FUNC 14032 a 0 boost::arg<7>::arg
FUNC 1403c a 0 boost::arg<8>::arg
FUNC 14046 a 0 boost::arg<9>::arg
FUNC 14050 35 0 boost::exception_detail::refcount_ptr<boost::exception_detail::error_info_container>::adopt
FUNC 14086 2c 0 boost::exception_detail::refcount_ptr<boost::exception_detail::error_info_container>::refcount_ptr
FUNC 140b2 4f 0 boost::exception_detail::bad_alloc_::bad_alloc_
FUNC 14102 37 0 std::bad_alloc::bad_alloc
FUNC 1413a 65 0 boost::exception_detail::bad_alloc_::bad_alloc_
FUNC 141a0 78 0 boost::exception_detail::clone_impl<boost::exception_detail::bad_alloc_>::clone_impl
FUNC 14218 228 0 boost::exception_detail::get_static_exception_object<boost::exception_detail::bad_alloc_>
FUNC 14440 4f 0 boost::exception_detail::bad_exception_::bad_exception_
FUNC 14490 37 0 std::bad_exception::bad_exception
FUNC 144c8 65 0 boost::exception_detail::bad_exception_::bad_exception_
FUNC 1452e 78 0 boost::exception_detail::clone_impl<boost::exception_detail::bad_exception_>::clone_impl
FUNC 145a6 228 0 boost::exception_detail::get_static_exception_object<boost::exception_detail::bad_exception_>
FUNC 147ce 56 0 boost::exception_detail::refcount_ptr<boost::exception_detail::error_info_container>::release
FUNC 14824 37 0 boost::exception_detail::refcount_ptr<boost::exception_detail::error_info_container>::add_ref
FUNC 1485c 1c 0 boost::exception_detail::clone_base::clone_base
FUNC 14878 c6 0 boost::exception_detail::clone_impl<boost::exception_detail::bad_alloc_>::clone_impl
FUNC 1493e 8f 0 boost::exception_detail::clone_impl<boost::exception_detail::bad_alloc_>::~clone_impl
FUNC 149ec 26 0 boost::exception_detail::clone_impl<boost::exception_detail::bad_alloc_>::~clone_impl
FUNC 14a12 25 0 boost::operator<< <boost::exception_detail::clone_impl<boost::exception_detail::bad_alloc_>, boost::throw_function_, const char*>
FUNC 14a37 25 0 boost::operator<< <boost::exception_detail::clone_impl<boost::exception_detail::bad_alloc_>, boost::throw_file_, const char*>
FUNC 14a5c 25 0 boost::operator<< <boost::exception_detail::clone_impl<boost::exception_detail::bad_alloc_>, boost::throw_line_, int>
FUNC 14a82 62 0 boost::shared_ptr<const boost::exception_detail::clone_base>::shared_ptr<boost::exception_detail::clone_impl<boost::exception_detail::bad_alloc_> >
FUNC 14ae4 c6 0 boost::exception_detail::clone_impl<boost::exception_detail::bad_exception_>::clone_impl
FUNC 14baa 8f 0 boost::exception_detail::clone_impl<boost::exception_detail::bad_exception_>::~clone_impl
FUNC 14c58 26 0 boost::exception_detail::clone_impl<boost::exception_detail::bad_exception_>::~clone_impl
FUNC 14c7e 25 0 boost::operator<< <boost::exception_detail::clone_impl<boost::exception_detail::bad_exception_>, boost::throw_function_, const char*>
FUNC 14ca3 25 0 boost::operator<< <boost::exception_detail::clone_impl<boost::exception_detail::bad_exception_>, boost::throw_file_, const char*>
FUNC 14cc8 25 0 boost::operator<< <boost::exception_detail::clone_impl<boost::exception_detail::bad_exception_>, boost::throw_line_, int>
FUNC 14cee 62 0 boost::shared_ptr<const boost::exception_detail::clone_base>::shared_ptr<boost::exception_detail::clone_impl<boost::exception_detail::bad_exception_> >
FUNC 14d50 21 0 boost::exception_detail::set_info<boost::exception_detail::clone_impl<boost::exception_detail::bad_alloc_> >
FUNC 14d71 21 0 boost::exception_detail::set_info<boost::exception_detail::clone_impl<boost::exception_detail::bad_alloc_> >
FUNC 14d92 1f 0 boost::exception_detail::set_info<boost::exception_detail::clone_impl<boost::exception_detail::bad_alloc_> >
FUNC 14db2 a0 0 boost::detail::shared_count::shared_count<boost::exception_detail::clone_impl<boost::exception_detail::bad_alloc_> >
FUNC 14e52 21 0 boost::exception_detail::set_info<boost::exception_detail::clone_impl<boost::exception_detail::bad_exception_> >
FUNC 14e73 21 0 boost::exception_detail::set_info<boost::exception_detail::clone_impl<boost::exception_detail::bad_exception_> >
FUNC 14e94 1f 0 boost::exception_detail::set_info<boost::exception_detail::clone_impl<boost::exception_detail::bad_exception_> >
FUNC 14eb4 a0 0 boost::detail::shared_count::shared_count<boost::exception_detail::clone_impl<boost::exception_detail::bad_exception_> >
FUNC 14f54 3c 0 boost::detail::sp_counted_impl_p<boost::exception_detail::clone_impl<boost::exception_detail::bad_alloc_> >::sp_counted_impl_p
FUNC 14f90 2c 0 boost::checked_delete<boost::exception_detail::clone_impl<boost::exception_detail::bad_alloc_> >
FUNC 14fbc 3c 0 boost::detail::sp_counted_impl_p<boost::exception_detail::clone_impl<boost::exception_detail::bad_exception_> >::sp_counted_impl_p
FUNC 14ff8 2c 0 boost::checked_delete<boost::exception_detail::clone_impl<boost::exception_detail::bad_exception_> >
FUNC 15024 41 0 boost::detail::sp_counted_impl_p<boost::exception_detail::clone_impl<boost::exception_detail::bad_exception_> >::~sp_counted_impl_p
FUNC 15066 26 0 boost::detail::sp_counted_impl_p<boost::exception_detail::clone_impl<boost::exception_detail::bad_exception_> >::~sp_counted_impl_p
FUNC 1508c 41 0 boost::detail::sp_counted_impl_p<boost::exception_detail::clone_impl<boost::exception_detail::bad_alloc_> >::~sp_counted_impl_p
FUNC 150ce 26 0 boost::detail::sp_counted_impl_p<boost::exception_detail::clone_impl<boost::exception_detail::bad_alloc_> >::~sp_counted_impl_p
FUNC 150f4 1e 0 boost::detail::sp_counted_impl_p<boost::exception_detail::clone_impl<boost::exception_detail::bad_exception_> >::dispose
FUNC 15112 13 0 boost::detail::sp_counted_impl_p<boost::exception_detail::clone_impl<boost::exception_detail::bad_exception_> >::get_deleter
FUNC 15126 1e 0 boost::detail::sp_counted_impl_p<boost::exception_detail::clone_impl<boost::exception_detail::bad_alloc_> >::dispose
FUNC 15144 13 0 boost::detail::sp_counted_impl_p<boost::exception_detail::clone_impl<boost::exception_detail::bad_alloc_> >::get_deleter
FUNC 1515e 6c 0 boost::exception_detail::clone_impl<boost::exception_detail::bad_exception_>::clone
FUNC 151d0 5d 0 boost::exception_detail::clone_impl<boost::exception_detail::bad_exception_>::rethrow
FUNC 15234 6c 0 boost::exception_detail::clone_impl<boost::exception_detail::bad_alloc_>::clone
FUNC 152a6 5d 0 boost::exception_detail::clone_impl<boost::exception_detail::bad_alloc_>::rethrow
FUNC 15304 570 0 Config::Config
FUNC 15874 74 0 Config::GetInstance
FUNC 158e8 2a3 0 Config::~Config
FUNC 15b8c 26 0 Config::~Config
FUNC 15bb2 cbf 0 Config::Init
FUNC 16872 27 0 Config::IsSpace
FUNC 1689a 24 0 Config::IsCommentChar
FUNC 168be 173 0 Config::Trim
FUNC 16a32 21d 0 Config::AnalyseLine
FUNC 16c50 238 0 Config::ReadConfig
FUNC 16e88 ad 0 Config::GetStrValueByKey
FUNC 16f36 d03 0 Config::InitMysqlParams
FUNC 17c3a 134 0 Config::Split
FUNC 17d6e 48 0 __static_initialization_and_destruction_0
FUNC 17db6 15 0 _GLOBAL__I_Config.cpp
FUNC 17dcb 12 0 operator new
FUNC 17ddd e 0 operator delete
FUNC 17deb 14 0 std::operator|
FUNC 17e00 1a 0 std::map<std::basic_string<char, std::char_traits<char>, std::allocator<char> >, std::basic_string<char, std::char_traits<char>, std::allocator<char> >, std::less<std::basic_string<char, std::char_traits<char>, std::allocator<char> > >, std::allocator<std::pair<const std::basic_string<char, std::char_traits<char>, std::allocator<char> >, std::basic_string<char, std::char_traits<char>, std::allocator<char> > > > >::~map
FUNC 17e1a 1a 0 std::map<std::basic_string<char, std::char_traits<char>, std::allocator<char> >, std::basic_string<char, std::char_traits<char>, std::allocator<char> >, std::less<std::basic_string<char, std::char_traits<char>, std::allocator<char> > >, std::allocator<std::pair<const std::basic_string<char, std::char_traits<char>, std::allocator<char> >, std::basic_string<char, std::char_traits<char>, std::allocator<char> > > > >::map
FUNC 17e34 1a 0 std::_Rb_tree<std::basic_string<char, std::char_traits<char>, std::allocator<char> >, std::pair<const std::basic_string<char, std::char_traits<char>, std::allocator<char> >, std::basic_string<char, std::char_traits<char>, std::allocator<char> > >, std::_Select1st<std::pair<const std::basic_string<char, std::char_traits<char>, std::allocator<char> >, std::basic_string<char, std::char_traits<char>, std::allocator<char> > > >, std::less<std::basic_string<char, std::char_traits<char>, std::allocator<char> > >, std::allocator<std::pair<const std::basic_string<char, std::char_traits<char>, std::allocator<char> >, std::basic_string<char, std::char_traits<char>, std::allocator<char> > > > >::_Rb_tree_impl<std::less<std::basic_string<char, std::char_traits<char>, std::allocator<char> > >, false>::~_Rb_tree_impl
FUNC 17e4e 63 0 std::_Rb_tree<std::basic_string<char, std::char_traits<char>, std::allocator<char> >, std::pair<const std::basic_string<char, std::char_traits<char>, std::allocator<char> >, std::basic_string<char, std::char_traits<char>, std::allocator<char> > >, std::_Select1st<std::pair<const std::basic_string<char, std::char_traits<char>, std::allocator<char> >, std::basic_string<char, std::char_traits<char>, std::allocator<char> > > >, std::less<std::basic_string<char, std::char_traits<char>, std::allocator<char> > >, std::allocator<std::pair<const std::basic_string<char, std::char_traits<char>, std::allocator<char> >, std::basic_string<char, std::char_traits<char>, std::allocator<char> > > > >::~_Rb_tree
FUNC 17eb2 1a 0 std::vector<short unsigned int, std::allocator<short unsigned int> >::vector
FUNC 17ecc 6e 0 std::vector<short unsigned int, std::allocator<short unsigned int> >::~vector
FUNC 17f3a 1a 0 std::vector<std::basic_string<char, std::char_traits<char>, std::allocator<char> >, std::allocator<std::basic_string<char, std::char_traits<char>, std::allocator<char> > > >::vector
FUNC 17f54 6e 0 std::vector<std::basic_string<char, std::char_traits<char>, std::allocator<char> >, std::allocator<std::basic_string<char, std::char_traits<char>, std::allocator<char> > > >::~vector
FUNC 17fc2 24 0 std::vector<short unsigned int, std::allocator<short unsigned int> >::clear
FUNC 17fe6 24 0 std::vector<std::basic_string<char, std::char_traits<char>, std::allocator<char> >, std::allocator<std::basic_string<char, std::char_traits<char>, std::allocator<char> > > >::clear
FUNC 1800a 16d 0 Config::GetValueByKey<int32_t>
FUNC 18178 16d 0 Config::GetValueByKey<uint16_t>
FUNC 182e6 1a 0 std::map<std::basic_string<char, std::char_traits<char>, std::allocator<char> >, std::basic_string<char, std::char_traits<char>, std::allocator<char> >, std::less<std::basic_string<char, std::char_traits<char>, std::allocator<char> > >, std::allocator<std::pair<const std::basic_string<char, std::char_traits<char>, std::allocator<char> >, std::basic_string<char, std::char_traits<char>, std::allocator<char> > > > >::clear
FUNC 18300 55 0 std::pair<const std::basic_string<char, std::char_traits<char>, std::allocator<char> >, std::basic_string<char, std::char_traits<char>, std::allocator<char> > >::~pair
FUNC 18356 146 0 std::map<std::basic_string<char, std::char_traits<char>, std::allocator<char> >, std::basic_string<char, std::char_traits<char>, std::allocator<char> >, std::less<std::basic_string<char, std::char_traits<char>, std::allocator<char> > >, std::allocator<std::pair<const std::basic_string<char, std::char_traits<char>, std::allocator<char> >, std::basic_string<char, std::char_traits<char>, std::allocator<char> > > > >::operator[]
FUNC 1849c 25 0 std::map<std::basic_string<char, std::char_traits<char>, std::allocator<char> >, std::basic_string<char, std::char_traits<char>, std::allocator<char> >, std::less<std::basic_string<char, std::char_traits<char>, std::allocator<char> > >, std::allocator<std::pair<const std::basic_string<char, std::char_traits<char>, std::allocator<char> >, std::basic_string<char, std::char_traits<char>, std::allocator<char> > > > >::find
FUNC 184c2 1c 0 std::_Rb_tree_const_iterator<std::pair<const std::basic_string<char, std::char_traits<char>, std::allocator<char> >, std::basic_string<char, std::char_traits<char>, std::allocator<char> > > >::_Rb_tree_const_iterator
FUNC 184de 1a 0 std::map<std::basic_string<char, std::char_traits<char>, std::allocator<char> >, std::basic_string<char, std::char_traits<char>, std::allocator<char> >, std::less<std::basic_string<char, std::char_traits<char>, std::allocator<char> > >, std::allocator<std::pair<const std::basic_string<char, std::char_traits<char>, std::allocator<char> >, std::basic_string<char, std::char_traits<char>, std::allocator<char> > > > >::end
FUNC 184f8 22 0 std::_Rb_tree_const_iterator<std::pair<const std::basic_string<char, std::char_traits<char>, std::allocator<char> >, std::basic_string<char, std::char_traits<char>, std::allocator<char> > > >::operator!=
FUNC 1851a 15 0 std::_Rb_tree_const_iterator<std::pair<const std::basic_string<char, std::char_traits<char>, std::allocator<char> >, std::basic_string<char, std::char_traits<char>, std::allocator<char> > > >::operator->
FUNC 18530 20 0 std::vector<std::basic_string<char, std::char_traits<char>, std::allocator<char> >, std::allocator<std::basic_string<char, std::char_traits<char>, std::allocator<char> > > >::operator[]
FUNC 18550 f3 0 Config::String2Int<uint16_t>
FUNC 18644 25 0 std::vector<std::basic_string<char, std::char_traits<char>, std::allocator<char> >, std::allocator<std::basic_string<char, std::char_traits<char>, std::allocator<char> > > >::begin
FUNC 1866a 28 0 __gnu_cxx::__normal_iterator<const std::basic_string<char, std::char_traits<char>, std::allocator<char> >*, std::vector<std::basic_string<char, std::char_traits<char>, std::allocator<char> >, std::allocator<std::basic_string<char, std::char_traits<char>, std::allocator<char> > > > >::__normal_iterator<std::basic_string<char, std::char_traits<char>, std::allocator<char> >*>
FUNC 18692 29 0 std::vector<std::basic_string<char, std::char_traits<char>, std::allocator<char> >, std::allocator<std::basic_string<char, std::char_traits<char>, std::allocator<char> > > >::end
FUNC 186bb 3c 0 __gnu_cxx::operator!=<const std::basic_string<char, std::char_traits<char>, std::allocator<char> >*, std::basic_string<char, std::char_traits<char>, std::allocator<char> >*, std::vector<std::basic_string<char, std::char_traits<char>, std::allocator<char> >, std::allocator<std::basic_string<char, std::char_traits<char>, std::allocator<char> > > > >
FUNC 186f8 20 0 __gnu_cxx::__normal_iterator<const std::basic_string<char, std::char_traits<char>, std::allocator<char> >*, std::vector<std::basic_string<char, std::char_traits<char>, std::allocator<char> >, std::allocator<std::basic_string<char, std::char_traits<char>, std::allocator<char> > > > >::operator++
FUNC 18718 11 0 __gnu_cxx::__normal_iterator<const std::basic_string<char, std::char_traits<char>, std::allocator<char> >*, std::vector<std::basic_string<char, std::char_traits<char>, std::allocator<char> >, std::allocator<std::basic_string<char, std::char_traits<char>, std::allocator<char> > > > >::operator*
FUNC 1872a 7a 0 std::vector<short unsigned int, std::allocator<short unsigned int> >::push_back
FUNC 187a4 41 0 std::vector<short unsigned int, std::allocator<short unsigned int> >::empty
FUNC 187e6 1f 0 std::vector<short unsigned int, std::allocator<short unsigned int> >::operator[]
FUNC 18806 f3 0 Config::String2Int<int32_t>
FUNC 188fa 242 0 std::vector<std::basic_string<char, std::char_traits<char>, std::allocator<char> >, std::allocator<std::basic_string<char, std::char_traits<char>, std::allocator<char> > > >::operator=
FUNC 18b3c 29 0 std::vector<std::basic_string<char, std::char_traits<char>, std::allocator<char> >, std::allocator<std::basic_string<char, std::char_traits<char>, std::allocator<char> > > >::size
FUNC 18b66 7a 0 std::vector<std::basic_string<char, std::char_traits<char>, std::allocator<char> >, std::allocator<std::basic_string<char, std::char_traits<char>, std::allocator<char> > > >::push_back
FUNC 18be0 1a 0 std::_Rb_tree<std::basic_string<char, std::char_traits<char>, std::allocator<char> >, std::pair<const std::basic_string<char, std::char_traits<char>, std::allocator<char> >, std::basic_string<char, std::char_traits<char>, std::allocator<char> > >, std::_Select1st<std::pair<const std::basic_string<char, std::char_traits<char>, std::allocator<char> >, std::basic_string<char, std::char_traits<char>, std::allocator<char> > > >, std::less<std::basic_string<char, std::char_traits<char>, std::allocator<char> > >, std::allocator<std::pair<const std::basic_string<char, std::char_traits<char>, std::allocator<char> >, std::basic_string<char, std::char_traits<char>, std::allocator<char> > > > >::_Rb_tree
FUNC 18bfa 1a 0 std::allocator<std::_Rb_tree_node<std::pair<const std::basic_string<char, std::char_traits<char>, std::allocator<char> >, std::basic_string<char, std::char_traits<char>, std::allocator<char> > > > >::~allocator
FUNC 18c14 69 0 std::_Rb_tree<std::basic_string<char, std::char_traits<char>, std::allocator<char> >, std::pair<const std::basic_string<char, std::char_traits<char>, std::allocator<char> >, std::basic_string<char, std::char_traits<char>, std::allocator<char> > >, std::_Select1st<std::pair<const std::basic_string<char, std::char_traits<char>, std::allocator<char> >, std::basic_string<char, std::char_traits<char>, std::allocator<char> > > >, std::less<std::basic_string<char, std::char_traits<char>, std::allocator<char> > >, std::allocator<std::pair<const std::basic_string<char, std::char_traits<char>, std::allocator<char> >, std::basic_string<char, std::char_traits<char>, std::allocator<char> > > > >::_M_erase
FUNC 18c7e 12 0 std::_Rb_tree<std::basic_string<char, std::char_traits<char>, std::allocator<char> >, std::pair<const std::basic_string<char, std::char_traits<char>, std::allocator<char> >, std::basic_string<char, std::char_traits<char>, std::allocator<char> > >, std::_Select1st<std::pair<const std::basic_string<char, std::char_traits<char>, std::allocator<char> >, std::basic_string<char, std::char_traits<char>, std::allocator<char> > > >, std::less<std::basic_string<char, std::char_traits<char>, std::allocator<char> > >, std::allocator<std::pair<const std::basic_string<char, std::char_traits<char>, std::allocator<char> >, std::basic_string<char, std::char_traits<char>, std::allocator<char> > > > >::_M_begin
FUNC 18c90 1a 0 std::_Vector_base<short unsigned int, std::allocator<short unsigned int> >::_Vector_impl::~_Vector_impl
FUNC 18caa 1a 0 std::_Vector_base<short unsigned int, std::allocator<short unsigned int> >::_Vector_base
FUNC 18cc4 7c 0 std::_Vector_base<short unsigned int, std::allocator<short unsigned int> >::~_Vector_base
FUNC 18d40 e 0 std::_Vector_base<short unsigned int, std::allocator<short unsigned int> >::_M_get_Tp_allocator
FUNC 18d4e 29 0 std::_Destroy<short unsigned int*, short unsigned int>
FUNC 18d78 1a 0 std::_Vector_base<std::basic_string<char, std::char_traits<char>, std::allocator<char> >, std::allocator<std::basic_string<char, std::char_traits<char>, std::allocator<char> > > >::_Vector_impl::~_Vector_impl
FUNC 18d92 1a 0 std::_Vector_base<std::basic_string<char, std::char_traits<char>, std::allocator<char> >, std::allocator<std::basic_string<char, std::char_traits<char>, std::allocator<char> > > >::_Vector_base
FUNC 18dac 7d 0 std::_Vector_base<std::basic_string<char, std::char_traits<char>, std::allocator<char> >, std::allocator<std::basic_string<char, std::char_traits<char>, std::allocator<char> > > >::~_Vector_base
FUNC 18e2a e 0 std::_Vector_base<std::basic_string<char, std::char_traits<char>, std::allocator<char> >, std::allocator<std::basic_string<char, std::char_traits<char>, std::allocator<char> > > >::_M_get_Tp_allocator
FUNC 18e38 29 0 std::_Destroy<std::basic_string<char, std::char_traits<char>, std::allocator<char> >*, std::basic_string<char, std::char_traits<char>, std::allocator<char> > >
FUNC 18e62 44 0 std::vector<short unsigned int, std::allocator<short unsigned int> >::_M_erase_at_end
FUNC 18ea6 44 0 std::vector<std::basic_string<char, std::char_traits<char>, std::allocator<char> >, std::allocator<std::basic_string<char, std::char_traits<char>, std::allocator<char> > > >::_M_erase_at_end
FUNC 18eea 8d 0 std::_Rb_tree<std::basic_string<char, std::char_traits<char>, std::allocator<char> >, std::pair<const std::basic_string<char, std::char_traits<char>, std::allocator<char> >, std::basic_string<char, std::char_traits<char>, std::allocator<char> > >, std::_Select1st<std::pair<const std::basic_string<char, std::char_traits<char>, std::allocator<char> >, std::basic_string<char, std::char_traits<char>, std::allocator<char> > > >, std::less<std::basic_string<char, std::char_traits<char>, std::allocator<char> > >, std::allocator<std::pair<const std::basic_string<char, std::char_traits<char>, std::allocator<char> >, std::basic_string<char, std::char_traits<char>, std::allocator<char> > > > >::clear
FUNC 18f78 25 0 std::map<std::basic_string<char, std::char_traits<char>, std::allocator<char> >, std::basic_string<char, std::char_traits<char>, std::allocator<char> >, std::less<std::basic_string<char, std::char_traits<char>, std::allocator<char> > >, std::allocator<std::pair<const std::basic_string<char, std::char_traits<char>, std::allocator<char> >, std::basic_string<char, std::char_traits<char>, std::allocator<char> > > > >::lower_bound
FUNC 18f9e 1a 0 std::map<std::basic_string<char, std::char_traits<char>, std::allocator<char> >, std::basic_string<char, std::char_traits<char>, std::allocator<char> >, std::less<std::basic_string<char, std::char_traits<char>, std::allocator<char> > >, std::allocator<std::pair<const std::basic_string<char, std::char_traits<char>, std::allocator<char> >, std::basic_string<char, std::char_traits<char>, std::allocator<char> > > > >::key_comp
FUNC 18fb8 15 0 std::_Rb_tree_iterator<std::pair<const std::basic_string<char, std::char_traits<char>, std::allocator<char> >, std::basic_string<char, std::char_traits<char>, std::allocator<char> > > >::operator*
FUNC 18fce 29 0 std::less<std::basic_string<char, std::char_traits<char>, std::allocator<char> > >::operator()
FUNC 18ff8 22 0 std::_Rb_tree_iterator<std::pair<const std::basic_string<char, std::char_traits<char>, std::allocator<char> >, std::basic_string<char, std::char_traits<char>, std::allocator<char> > > >::operator==
FUNC 1901a 6b 0 std::pair<const std::basic_string<char, std::char_traits<char>, std::allocator<char> >, std::basic_string<char, std::char_traits<char>, std::allocator<char> > >::pair
FUNC 19086 40 0 std::map<std::basic_string<char, std::char_traits<char>, std::allocator<char> >, std::basic_string<char, std::char_traits<char>, std::allocator<char> >, std::less<std::basic_string<char, std::char_traits<char>, std::allocator<char> > >, std::allocator<std::pair<const std::basic_string<char, std::char_traits<char>, std::allocator<char> >, std::basic_string<char, std::char_traits<char>, std::allocator<char> > > > >::insert
FUNC 190c6 b6 0 std::_Rb_tree<std::basic_string<char, std::char_traits<char>, std::allocator<char> >, std::pair<const std::basic_string<char, std::char_traits<char>, std::allocator<char> >, std::basic_string<char, std::char_traits<char>, std::allocator<char> > >, std::_Select1st<std::pair<const std::basic_string<char, std::char_traits<char>, std::allocator<char> >, std::basic_string<char, std::char_traits<char>, std::allocator<char> > > >, std::less<std::basic_string<char, std::char_traits<char>, std::allocator<char> > >, std::allocator<std::pair<const std::basic_string<char, std::char_traits<char>, std::allocator<char> >, std::basic_string<char, std::char_traits<char>, std::allocator<char> > > > >::find
FUNC 1917c 2c 0 std::_Rb_tree<std::basic_string<char, std::char_traits<char>, std::allocator<char> >, std::pair<const std::basic_string<char, std::char_traits<char>, std::allocator<char> >, std::basic_string<char, std::char_traits<char>, std::allocator<char> > >, std::_Select1st<std::pair<const std::basic_string<char, std::char_traits<char>, std::allocator<char> >, std::basic_string<char, std::char_traits<char>, std::allocator<char> > > >, std::less<std::basic_string<char, std::char_traits<char>, std::allocator<char> > >, std::allocator<std::pair<const std::basic_string<char, std::char_traits<char>, std::allocator<char> >, std::basic_string<char, std::char_traits<char>, std::allocator<char> > > > >::end
FUNC 191a8 1c 0 __gnu_cxx::__normal_iterator<std::basic_string<char, std::char_traits<char>, std::allocator<char> >*, std::vector<std::basic_string<char, std::char_traits<char>, std::allocator<char> >, std::allocator<std::basic_string<char, std::char_traits<char>, std::allocator<char> > > > >::__normal_iterator
FUNC 191c4 e 0 __gnu_cxx::__normal_iterator<std::basic_string<char, std::char_traits<char>, std::allocator<char> >*, std::vector<std::basic_string<char, std::char_traits<char>, std::allocator<char> >, std::allocator<std::basic_string<char, std::char_traits<char>, std::allocator<char> > > > >::base
FUNC 191d2 e 0 __gnu_cxx::__normal_iterator<const std::basic_string<char, std::char_traits<char>, std::allocator<char> >*, std::vector<std::basic_string<char, std::char_traits<char>, std::allocator<char> >, std::allocator<std::basic_string<char, std::char_traits<char>, std::allocator<char> > > > >::base
FUNC 191e0 39 0 __gnu_cxx::new_allocator<short unsigned int>::construct
FUNC 1921a 2e5 0 std::vector<short unsigned int, std::allocator<short unsigned int> >::_M_insert_aux
FUNC 19500 29 0 std::vector<short unsigned int, std::allocator<short unsigned int> >::end
FUNC 1952a 31 0 std::vector<short unsigned int, std::allocator<short unsigned int> >::end
FUNC 1955c 30 0 std::vector<short unsigned int, std::allocator<short unsigned int> >::begin
FUNC 1958c 3c 0 __gnu_cxx::operator==<const short unsigned int*, std::vector<short unsigned int, std::allocator<short unsigned int> > >
FUNC 195c8 29 0 std::vector<std::basic_string<char, std::char_traits<char>, std::allocator<char> >, std::allocator<std::basic_string<char, std::char_traits<char>, std::allocator<char> > > >::capacity
FUNC 195f2 30 0 std::vector<std::basic_string<char, std::char_traits<char>, std::allocator<char> >, std::allocator<std::basic_string<char, std::char_traits<char>, std::allocator<char> > > >::begin
FUNC 19622 31 0 std::vector<std::basic_string<char, std::char_traits<char>, std::allocator<char> >, std::allocator<std::basic_string<char, std::char_traits<char>, std::allocator<char> > > >::end
FUNC 19654 a1 0 std::vector<std::basic_string<char, std::char_traits<char>, std::allocator<char> >, std::allocator<std::basic_string<char, std::char_traits<char>, std::allocator<char> > > >::_M_allocate_and_copy<__gnu_cxx::__normal_iterator<const std::basic_string<char, std::char_traits<char>, std::allocator<char> >*, std::vector<std::basic_string<char, std::char_traits<char>, std::allocator<char> >, std::allocator<std::basic_string<char, std::char_traits<char>, std::allocator<char> > > > > >
FUNC 196f6 34 0 std::_Vector_base<std::basic_string<char, std::char_traits<char>, std::allocator<char> >, std::allocator<std::basic_string<char, std::char_traits<char>, std::allocator<char> > > >::_M_deallocate
FUNC 1972a 46 0 std::copy<__gnu_cxx::__normal_iterator<const std::basic_string<char, std::char_traits<char>, std::allocator<char> >*, std::vector<std::basic_string<char, std::char_traits<char>, std::allocator<char> >, std::allocator<std::basic_string<char, std::char_traits<char>, std::allocator<char> > > > >, __gnu_cxx::__normal_iterator<std::basic_string<char, std::char_traits<char>, std::allocator<char> >*, std::vector<std::basic_string<char, std::char_traits<char>, std::allocator<char> >, std::allocator<std::basic_string<char, std::char_traits<char>, std::allocator<char> > > > > >
FUNC 19770 29 0 std::_Destroy<__gnu_cxx::__normal_iterator<std::basic_string<char, std::char_traits<char>, std::allocator<char> >*, std::vector<std::basic_string<char, std::char_traits<char>, std::allocator<char> >, std::allocator<std::basic_string<char, std::char_traits<char>, std::allocator<char> > > > >, std::basic_string<char, std::char_traits<char>, std::allocator<char> > >
FUNC 19799 46 0 std::copy<std::basic_string<char, std::char_traits<char>, std::allocator<char> >*, std::basic_string<char, std::char_traits<char>, std::allocator<char> >*>
FUNC 197df 31 0 std::__uninitialized_copy_a<std::basic_string<char, std::char_traits<char>, std::allocator<char> >*, std::basic_string<char, std::char_traits<char>, std::allocator<char> >*, std::basic_string<char, std::char_traits<char>, std::allocator<char> > >
FUNC 19810 77 0 __gnu_cxx::new_allocator<std::basic_string<char, std::char_traits<char>, std::allocator<char> > >::construct
FUNC 19888 326 0 std::vector<std::basic_string<char, std::char_traits<char>, std::allocator<char> >, std::allocator<std::basic_string<char, std::char_traits<char>, std::allocator<char> > > >::_M_insert_aux
FUNC 19bae e 0 std::_Vector_base<std::basic_string<char, std::char_traits<char>, std::allocator<char> >, std::allocator<std::basic_string<char, std::char_traits<char>, std::allocator<char> > > >::_M_get_Tp_allocator
FUNC 19bbc 31 0 std::__uninitialized_copy_a<__gnu_cxx::__normal_iterator<const std::basic_string<char, std::char_traits<char>, std::allocator<char> >*, std::vector<std::basic_string<char, std::char_traits<char>, std::allocator<char> >, std::allocator<std::basic_string<char, std::char_traits<char>, std::allocator<char> > > > >, std::basic_string<char, std::char_traits<char>, std::allocator<char> >*, std::basic_string<char, std::char_traits<char>, std::allocator<char> > >
FUNC 19bee 12 0 std::_Rb_tree<std::basic_string<char, std::char_traits<char>, std::allocator<char> >, std::pair<const std::basic_string<char, std::char_traits<char>, std::allocator<char> >, std::basic_string<char, std::char_traits<char>, std::allocator<char> > >, std::_Select1st<std::pair<const std::basic_string<char, std::char_traits<char>, std::allocator<char> >, std::basic_string<char, std::char_traits<char>, std::allocator<char> > > >, std::less<std::basic_string<char, std::char_traits<char>, std::allocator<char> > >, std::allocator<std::pair<const std::basic_string<char, std::char_traits<char>, std::allocator<char> >, std::basic_string<char, std::char_traits<char>, std::allocator<char> > > > >::_M_end
FUNC 19c00 12 0 std::_Rb_tree<std::basic_string<char, std::char_traits<char>, std::allocator<char> >, std::pair<const std::basic_string<char, std::char_traits<char>, std::allocator<char> >, std::basic_string<char, std::char_traits<char>, std::allocator<char> > >, std::_Select1st<std::pair<const std::basic_string<char, std::char_traits<char>, std::allocator<char> >, std::basic_string<char, std::char_traits<char>, std::allocator<char> > > >, std::less<std::basic_string<char, std::char_traits<char>, std::allocator<char> > >, std::allocator<std::pair<const std::basic_string<char, std::char_traits<char>, std::allocator<char> >, std::basic_string<char, std::char_traits<char>, std::allocator<char> > > > >::_M_root
FUNC 19c12 12 0 std::_Rb_tree<std::basic_string<char, std::char_traits<char>, std::allocator<char> >, std::pair<const std::basic_string<char, std::char_traits<char>, std::allocator<char> >, std::basic_string<char, std::char_traits<char>, std::allocator<char> > >, std::_Select1st<std::pair<const std::basic_string<char, std::char_traits<char>, std::allocator<char> >, std::basic_string<char, std::char_traits<char>, std::allocator<char> > > >, std::less<std::basic_string<char, std::char_traits<char>, std::allocator<char> > >, std::allocator<std::pair<const std::basic_string<char, std::char_traits<char>, std::allocator<char> >, std::basic_string<char, std::char_traits<char>, std::allocator<char> > > > >::_M_leftmost
FUNC 19c24 12 0 std::_Rb_tree<std::basic_string<char, std::char_traits<char>, std::allocator<char> >, std::pair<const std::basic_string<char, std::char_traits<char>, std::allocator<char> >, std::basic_string<char, std::char_traits<char>, std::allocator<char> > >, std::_Select1st<std::pair<const std::basic_string<char, std::char_traits<char>, std::allocator<char> >, std::basic_string<char, std::char_traits<char>, std::allocator<char> > > >, std::less<std::basic_string<char, std::char_traits<char>, std::allocator<char> > >, std::allocator<std::pair<const std::basic_string<char, std::char_traits<char>, std::allocator<char> >, std::basic_string<char, std::char_traits<char>, std::allocator<char> > > > >::_M_rightmost
FUNC 19c36 8c 0 std::_Rb_tree<std::basic_string<char, std::char_traits<char>, std::allocator<char> >, std::pair<const std::basic_string<char, std::char_traits<char>, std::allocator<char> >, std::basic_string<char, std::char_traits<char>, std::allocator<char> > >, std::_Select1st<std::pair<const std::basic_string<char, std::char_traits<char>, std::allocator<char> >, std::basic_string<char, std::char_traits<char>, std::allocator<char> > > >, std::less<std::basic_string<char, std::char_traits<char>, std::allocator<char> > >, std::allocator<std::pair<const std::basic_string<char, std::char_traits<char>, std::allocator<char> >, std::basic_string<char, std::char_traits<char>, std::allocator<char> > > > >::_Rb_tree_impl<std::less<std::basic_string<char, std::char_traits<char>, std::allocator<char> > >, false>::_Rb_tree_impl
FUNC 19cc2 a 0 __gnu_cxx::new_allocator<std::_Rb_tree_node<std::pair<const std::basic_string<char, std::char_traits<char>, std::allocator<char> >, std::basic_string<char, std::char_traits<char>, std::allocator<char> > > > >::~new_allocator
FUNC 19ccc 12 0 std::_Rb_tree<std::basic_string<char, std::char_traits<char>, std::allocator<char> >, std::pair<const std::basic_string<char, std::char_traits<char>, std::allocator<char> >, std::basic_string<char, std::char_traits<char>, std::allocator<char> > >, std::_Select1st<std::pair<const std::basic_string<char, std::char_traits<char>, std::allocator<char> >, std::basic_string<char, std::char_traits<char>, std::allocator<char> > > >, std::less<std::basic_string<char, std::char_traits<char>, std::allocator<char> > >, std::allocator<std::pair<const std::basic_string<char, std::char_traits<char>, std::allocator<char> >, std::basic_string<char, std::char_traits<char>, std::allocator<char> > > > >::_S_right
FUNC 19cde 12 0 std::_Rb_tree<std::basic_string<char, std::char_traits<char>, std::allocator<char> >, std::pair<const std::basic_string<char, std::char_traits<char>, std::allocator<char> >, std::basic_string<char, std::char_traits<char>, std::allocator<char> > >, std::_Select1st<std::pair<const std::basic_string<char, std::char_traits<char>, std::allocator<char> >, std::basic_string<char, std::char_traits<char>, std::allocator<char> > > >, std::less<std::basic_string<char, std::char_traits<char>, std::allocator<char> > >, std::allocator<std::pair<const std::basic_string<char, std::char_traits<char>, std::allocator<char> >, std::basic_string<char, std::char_traits<char>, std::allocator<char> > > > >::_S_left
FUNC 19cf0 86 0 std::_Rb_tree<std::basic_string<char, std::char_traits<char>, std::allocator<char> >, std::pair<const std::basic_string<char, std::char_traits<char>, std::allocator<char> >, std::basic_string<char, std::char_traits<char>, std::allocator<char> > >, std::_Select1st<std::pair<const std::basic_string<char, std::char_traits<char>, std::allocator<char> >, std::basic_string<char, std::char_traits<char>, std::allocator<char> > > >, std::less<std::basic_string<char, std::char_traits<char>, std::allocator<char> > >, std::allocator<std::pair<const std::basic_string<char, std::char_traits<char>, std::allocator<char> >, std::basic_string<char, std::char_traits<char>, std::allocator<char> > > > >::_M_destroy_node
FUNC 19d76 3d 0 std::_Vector_base<short unsigned int, std::allocator<short unsigned int> >::_Vector_impl::_Vector_impl
FUNC 19db4 1a 0 std::allocator<short unsigned int>::~allocator
FUNC 19dce 34 0 std::_Vector_base<short unsigned int, std::allocator<short unsigned int> >::_M_deallocate
FUNC 19e02 25 0 std::_Destroy<short unsigned int*>
FUNC 19e28 3d 0 std::_Vector_base<std::basic_string<char, std::char_traits<char>, std::allocator<char> >, std::allocator<std::basic_string<char, std::char_traits<char>, std::allocator<char> > > >::_Vector_impl::_Vector_impl
FUNC 19e66 1a 0 std::allocator<std::basic_string<char, std::char_traits<char>, std::allocator<char> > >::~allocator
FUNC 19e80 25 0 std::_Destroy<std::basic_string<char, std::char_traits<char>, std::allocator<char> >*>
FUNC 19ea6 53 0 std::_Rb_tree<std::basic_string<char, std::char_traits<char>, std::allocator<char> >, std::pair<const std::basic_string<char, std::char_traits<char>, std::allocator<char> >, std::basic_string<char, std::char_traits<char>, std::allocator<char> > >, std::_Select1st<std::pair<const std::basic_string<char, std::char_traits<char>, std::allocator<char> >, std::basic_string<char, std::char_traits<char>, std::allocator<char> > > >, std::less<std::basic_string<char, std::char_traits<char>, std::allocator<char> > >, std::allocator<std::pair<const std::basic_string<char, std::char_traits<char>, std::allocator<char> >, std::basic_string<char, std::char_traits<char>, std::allocator<char> > > > >::lower_bound
FUNC 19efa a 0 std::_Rb_tree<std::basic_string<char, std::char_traits<char>, std::allocator<char> >, std::pair<const std::basic_string<char, std::char_traits<char>, std::allocator<char> >, std::basic_string<char, std::char_traits<char>, std::allocator<char> > >, std::_Select1st<std::pair<const std::basic_string<char, std::char_traits<char>, std::allocator<char> >, std::basic_string<char, std::char_traits<char>, std::allocator<char> > > >, std::less<std::basic_string<char, std::char_traits<char>, std::allocator<char> > >, std::allocator<std::pair<const std::basic_string<char, std::char_traits<char>, std::allocator<char> >, std::basic_string<char, std::char_traits<char>, std::allocator<char> > > > >::key_comp
FUNC 19f04 28 0 std::operator< <char, std::char_traits<char>, std::allocator<char> >
FUNC 19f2c 4c0 0 std::_Rb_tree<std::basic_string<char, std::char_traits<char>, std::allocator<char> >, std::pair<const std::basic_string<char, std::char_traits<char>, std::allocator<char> >, std::basic_string<char, std::char_traits<char>, std::allocator<char> > >, std::_Select1st<std::pair<const std::basic_string<char, std::char_traits<char>, std::allocator<char> >, std::basic_string<char, std::char_traits<char>, std::allocator<char> > > >, std::less<std::basic_string<char, std::char_traits<char>, std::allocator<char> > >, std::allocator<std::pair<const std::basic_string<char, std::char_traits<char>, std::allocator<char> >, std::basic_string<char, std::char_traits<char>, std::allocator<char> > > > >::_M_insert_unique_
FUNC 1a3ec 92 0 std::_Rb_tree<std::basic_string<char, std::char_traits<char>, std::allocator<char> >, std::pair<const std::basic_string<char, std::char_traits<char>, std::allocator<char> >, std::basic_string<char, std::char_traits<char>, std::allocator<char> > >, std::_Select1st<std::pair<const std::basic_string<char, std::char_traits<char>, std::allocator<char> >, std::basic_string<char, std::char_traits<char>, std::allocator<char> > > >, std::less<std::basic_string<char, std::char_traits<char>, std::allocator<char> > >, std::allocator<std::pair<const std::basic_string<char, std::char_traits<char>, std::allocator<char> >, std::basic_string<char, std::char_traits<char>, std::allocator<char> > > > >::_M_lower_bound
FUNC 1a47e 2c 0 std::_Rb_tree<std::basic_string<char, std::char_traits<char>, std::allocator<char> >, std::pair<const std::basic_string<char, std::char_traits<char>, std::allocator<char> >, std::basic_string<char, std::char_traits<char>, std::allocator<char> > >, std::_Select1st<std::pair<const std::basic_string<char, std::char_traits<char>, std::allocator<char> >, std::basic_string<char, std::char_traits<char>, std::allocator<char> > > >, std::less<std::basic_string<char, std::char_traits<char>, std::allocator<char> > >, std::allocator<std::pair<const std::basic_string<char, std::char_traits<char>, std::allocator<char> >, std::basic_string<char, std::char_traits<char>, std::allocator<char> > > > >::_S_key
FUNC 1a4aa 19 0 std::_Rb_tree_iterator<std::pair<const std::basic_string<char, std::char_traits<char>, std::allocator<char> >, std::basic_string<char, std::char_traits<char>, std::allocator<char> > > >::_Rb_tree_iterator
FUNC 1a4c4 e 0 __gnu_cxx::__normal_iterator<short unsigned int*, std::vector<short unsigned int, std::allocator<short unsigned int> > >::base
FUNC 1a4d2 46 0 std::copy_backward<short unsigned int*, short unsigned int*>
FUNC 1a518 11 0 __gnu_cxx::__normal_iterator<short unsigned int*, std::vector<short unsigned int, std::allocator<short unsigned int> > >::operator*
FUNC 1a52a ca 0 std::vector<short unsigned int, std::allocator<short unsigned int> >::_M_check_len
FUNC 1a5f4 25 0 std::vector<short unsigned int, std::allocator<short unsigned int> >::begin
FUNC 1a619 45 0 __gnu_cxx::operator-<short unsigned int*, std::vector<short unsigned int, std::allocator<short unsigned int> > >
FUNC 1a65e 38 0 std::_Vector_base<short unsigned int, std::allocator<short unsigned int> >::_M_allocate
FUNC 1a696 3b 0 std::__uninitialized_move_a<short unsigned int*, short unsigned int*, std::allocator<short unsigned int> >
FUNC 1a6d2 e 0 __gnu_cxx::new_allocator<short unsigned int>::destroy
FUNC 1a6e0 1c 0 __gnu_cxx::__normal_iterator<short unsigned int*, std::vector<short unsigned int, std::allocator<short unsigned int> > >::__normal_iterator
FUNC 1a6fc 1c 0 __gnu_cxx::__normal_iterator<const short unsigned int*, std::vector<short unsigned int, std::allocator<short unsigned int> > >::__normal_iterator
FUNC 1a718 e 0 __gnu_cxx::__normal_iterator<const short unsigned int*, std::vector<short unsigned int, std::allocator<short unsigned int> > >::base
FUNC 1a726 1c 0 __gnu_cxx::__normal_iterator<const std::basic_string<char, std::char_traits<char>, std::allocator<char> >*, std::vector<std::basic_string<char, std::char_traits<char>, std::allocator<char> >, std::allocator<std::basic_string<char, std::char_traits<char>, std::allocator<char> > > > >::__normal_iterator
FUNC 1a742 38 0 std::_Vector_base<std::basic_string<char, std::char_traits<char>, std::allocator<char> >, std::allocator<std::basic_string<char, std::char_traits<char>, std::allocator<char> > > >::_M_allocate
FUNC 1a77a 22 0 __gnu_cxx::new_allocator<std::basic_string<char, std::char_traits<char>, std::allocator<char> > >::deallocate
FUNC 1a79c e 0 std::__miter_base<__gnu_cxx::__normal_iterator<const std::basic_string<char, std::char_traits<char>, std::allocator<char> >*, std::vector<std::basic_string<char, std::char_traits<char>, std::allocator<char> >, std::allocator<std::basic_string<char, std::char_traits<char>, std::allocator<char> > > > >, false>::__b
FUNC 1a7aa 73 0 std::__copy_move_a2<false, __gnu_cxx::__normal_iterator<const std::basic_string<char, std::char_traits<char>, std::allocator<char> >*, std::vector<std::basic_string<char, std::char_traits<char>, std::allocator<char> >, std::allocator<std::basic_string<char, std::char_traits<char>, std::allocator<char> > > > >, __gnu_cxx::__normal_iterator<std::basic_string<char, std::char_traits<char>, std::allocator<char> >*, std::vector<std::basic_string<char, std::char_traits<char>, std::allocator<char> >, std::allocator<std::basic_string<char, std::char_traits<char>, std::allocator<char> > > > > >
FUNC 1a81d 25 0 std::_Destroy<__gnu_cxx::__normal_iterator<std::basic_string<char, std::char_traits<char>, std::allocator<char> >*, std::vector<std::basic_string<char, std::char_traits<char>, std::allocator<char> >, std::allocator<std::basic_string<char, std::char_traits<char>, std::allocator<char> > > > > >
FUNC 1a842 e 0 std::__miter_base<std::basic_string<char, std::char_traits<char>, std::allocator<char> >*, false>::__b
FUNC 1a850 58 0 std::__copy_move_a2<false, std::basic_string<char, std::char_traits<char>, std::allocator<char> >*, std::basic_string<char, std::char_traits<char>, std::allocator<char> >*>
FUNC 1a8a8 2d 0 std::uninitialized_copy<std::basic_string<char, std::char_traits<char>, std::allocator<char> >*, std::basic_string<char, std::char_traits<char>, std::allocator<char> >*>
FUNC 1a8d5 46 0 std::copy_backward<std::basic_string<char, std::char_traits<char>, std::allocator<char> >*, std::basic_string<char, std::char_traits<char>, std::allocator<char> >*>
FUNC 1a91c 11 0 __gnu_cxx::__normal_iterator<std::basic_string<char, std::char_traits<char>, std::allocator<char> >*, std::vector<std::basic_string<char, std::char_traits<char>, std::allocator<char> >, std::allocator<std::basic_string<char, std::char_traits<char>, std::allocator<char> > > > >::operator*
FUNC 1a92e ca 0 std::vector<std::basic_string<char, std::char_traits<char>, std::allocator<char> >, std::allocator<std::basic_string<char, std::char_traits<char>, std::allocator<char> > > >::_M_check_len
FUNC 1a9f8 46 0 __gnu_cxx::operator-<std::basic_string<char, std::char_traits<char>, std::allocator<char> >*, std::vector<std::basic_string<char, std::char_traits<char>, std::allocator<char> >, std::allocator<std::basic_string<char, std::char_traits<char>, std::allocator<char> > > > >
FUNC 1aa3e 3b 0 std::__uninitialized_move_a<std::basic_string<char, std::char_traits<char>, std::allocator<char> >*, std::basic_string<char, std::char_traits<char>, std::allocator<char> >*, std::allocator<std::basic_string<char, std::char_traits<char>, std::allocator<char> > > >
FUNC 1aa7a 1e 0 __gnu_cxx::new_allocator<std::basic_string<char, std::char_traits<char>, std::allocator<char> > >::destroy
FUNC 1aa98 2d 0 std::uninitialized_copy<__gnu_cxx::__normal_iterator<const std::basic_string<char, std::char_traits<char>, std::allocator<char> >*, std::vector<std::basic_string<char, std::char_traits<char>, std::allocator<char> >, std::allocator<std::basic_string<char, std::char_traits<char>, std::allocator<char> > > > >, std::basic_string<char, std::char_traits<char>, std::allocator<char> >*>
FUNC 1aac5 12 0 std::_Rb_tree<std::basic_string<char, std::char_traits<char>, std::allocator<char> >, std::pair<const std::basic_string<char, std::char_traits<char>, std::allocator<char> >, std::basic_string<char, std::char_traits<char>, std::allocator<char> > >, std::_Select1st<std::pair<const std::basic_string<char, std::char_traits<char>, std::allocator<char> >, std::basic_string<char, std::char_traits<char>, std::allocator<char> > > >, std::less<std::basic_string<char, std::char_traits<char>, std::allocator<char> > >, std::allocator<std::pair<const std::basic_string<char, std::char_traits<char>, std::allocator<char> >, std::basic_string<char, std::char_traits<char>, std::allocator<char> > > > >::_S_right
FUNC 1aad8 1a 0 std::allocator<std::_Rb_tree_node<std::pair<const std::basic_string<char, std::char_traits<char>, std::allocator<char> >, std::basic_string<char, std::char_traits<char>, std::allocator<char> > > > >::allocator
FUNC 1aaf2 41 0 std::_Rb_tree<std::basic_string<char, std::char_traits<char>, std::allocator<char> >, std::pair<const std::basic_string<char, std::char_traits<char>, std::allocator<char> >, std::basic_string<char, std::char_traits<char>, std::allocator<char> > >, std::_Select1st<std::pair<const std::basic_string<char, std::char_traits<char>, std::allocator<char> >, std::basic_string<char, std::char_traits<char>, std::allocator<char> > > >, std::less<std::basic_string<char, std::char_traits<char>, std::allocator<char> > >, std::allocator<std::pair<const std::basic_string<char, std::char_traits<char>, std::allocator<char> >, std::basic_string<char, std::char_traits<char>, std::allocator<char> > > > >::_Rb_tree_impl<std::less<std::basic_string<char, std::char_traits<char>, std::allocator<char> > >, false>::_M_initialize
FUNC 1ab34 3b 0 std::_Rb_tree<std::basic_string<char, std::char_traits<char>, std::allocator<char> >, std::pair<const std::basic_string<char, std::char_traits<char>, std::allocator<char> >, std::basic_string<char, std::char_traits<char>, std::allocator<char> > >, std::_Select1st<std::pair<const std::basic_string<char, std::char_traits<char>, std::allocator<char> >, std::basic_string<char, std::char_traits<char>, std::allocator<char> > > >, std::less<std::basic_string<char, std::char_traits<char>, std::allocator<char> > >, std::allocator<std::pair<const std::basic_string<char, std::char_traits<char>, std::allocator<char> >, std::basic_string<char, std::char_traits<char>, std::allocator<char> > > > >::get_allocator
FUNC 1ab70 1a 0 std::allocator<std::pair<const std::basic_string<char, std::char_traits<char>, std::allocator<char> >, std::basic_string<char, std::char_traits<char>, std::allocator<char> > > >::~allocator
FUNC 1ab8a 1e 0 __gnu_cxx::new_allocator<std::pair<const std::basic_string<char, std::char_traits<char>, std::allocator<char> >, std::basic_string<char, std::char_traits<char>, std::allocator<char> > > >::destroy
FUNC 1aba8 2a 0 std::_Rb_tree<std::basic_string<char, std::char_traits<char>, std::allocator<char> >, std::pair<const std::basic_string<char, std::char_traits<char>, std::allocator<char> >, std::basic_string<char, std::char_traits<char>, std::allocator<char> > >, std::_Select1st<std::pair<const std::basic_string<char, std::char_traits<char>, std::allocator<char> >, std::basic_string<char, std::char_traits<char>, std::allocator<char> > > >, std::less<std::basic_string<char, std::char_traits<char>, std::allocator<char> > >, std::allocator<std::pair<const std::basic_string<char, std::char_traits<char>, std::allocator<char> >, std::basic_string<char, std::char_traits<char>, std::allocator<char> > > > >::_M_put_node
FUNC 1abd2 1a 0 std::allocator<short unsigned int>::allocator
FUNC 1abec a 0 __gnu_cxx::new_allocator<short unsigned int>::~new_allocator
FUNC 1abf6 22 0 __gnu_cxx::new_allocator<short unsigned int>::deallocate
FUNC 1ac18 e 0 std::_Destroy_aux<true>::__destroy<short unsigned int*>
FUNC 1ac26 1a 0 std::allocator<std::basic_string<char, std::char_traits<char>, std::allocator<char> > >::allocator
FUNC 1ac40 a 0 __gnu_cxx::new_allocator<std::basic_string<char, std::char_traits<char>, std::allocator<char> > >::~new_allocator
FUNC 1ac4a 34 0 std::_Destroy_aux<false>::__destroy<std::basic_string<char, std::char_traits<char>, std::allocator<char> >*>
FUNC 1ac7e 12 0 std::_Select1st<std::pair<const std::basic_string<char, std::char_traits<char>, std::allocator<char> >, std::basic_string<char, std::char_traits<char>, std::allocator<char> > > >::operator()
FUNC 1ac90 12 0 std::_Rb_tree<std::basic_string<char, std::char_traits<char>, std::allocator<char> >, std::pair<const std::basic_string<char, std::char_traits<char>, std::allocator<char> >, std::basic_string<char, std::char_traits<char>, std::allocator<char> > >, std::_Select1st<std::pair<const std::basic_string<char, std::char_traits<char>, std::allocator<char> >, std::basic_string<char, std::char_traits<char>, std::allocator<char> > > >, std::less<std::basic_string<char, std::char_traits<char>, std::allocator<char> > >, std::allocator<std::pair<const std::basic_string<char, std::char_traits<char>, std::allocator<char> >, std::basic_string<char, std::char_traits<char>, std::allocator<char> > > > >::size
FUNC 1aca2 e3 0 std::_Rb_tree<std::basic_string<char, std::char_traits<char>, std::allocator<char> >, std::pair<const std::basic_string<char, std::char_traits<char>, std::allocator<char> >, std::basic_string<char, std::char_traits<char>, std::allocator<char> > >, std::_Select1st<std::pair<const std::basic_string<char, std::char_traits<char>, std::allocator<char> >, std::basic_string<char, std::char_traits<char>, std::allocator<char> > > >, std::less<std::basic_string<char, std::char_traits<char>, std::allocator<char> > >, std::allocator<std::pair<const std::basic_string<char, std::char_traits<char>, std::allocator<char> >, std::basic_string<char, std::char_traits<char>, std::allocator<char> > > > >::_M_insert_
FUNC 1ad86 271 0 std::_Rb_tree<std::basic_string<char, std::char_traits<char>, std::allocator<char> >, std::pair<const std::basic_string<char, std::char_traits<char>, std::allocator<char> >, std::basic_string<char, std::char_traits<char>, std::allocator<char> > >, std::_Select1st<std::pair<const std::basic_string<char, std::char_traits<char>, std::allocator<char> >, std::basic_string<char, std::char_traits<char>, std::allocator<char> > > >, std::less<std::basic_string<char, std::char_traits<char>, std::allocator<char> > >, std::allocator<std::pair<const std::basic_string<char, std::char_traits<char>, std::allocator<char> >, std::basic_string<char, std::char_traits<char>, std::allocator<char> > > > >::_M_insert_unique
FUNC 1aff8 28 0 std::_Rb_tree_const_iterator<std::pair<const std::basic_string<char, std::char_traits<char>, std::allocator<char> >, std::basic_string<char, std::char_traits<char>, std::allocator<char> > > >::operator--
FUNC 1b020 28 0 std::_Rb_tree_const_iterator<std::pair<const std::basic_string<char, std::char_traits<char>, std::allocator<char> >, std::basic_string<char, std::char_traits<char>, std::allocator<char> > > >::operator++
FUNC 1b048 2c 0 std::_Rb_tree<std::basic_string<char, std::char_traits<char>, std::allocator<char> >, std::pair<const std::basic_string<char, std::char_traits<char>, std::allocator<char> >, std::basic_string<char, std::char_traits<char>, std::allocator<char> > >, std::_Select1st<std::pair<const std::basic_string<char, std::char_traits<char>, std::allocator<char> >, std::basic_string<char, std::char_traits<char>, std::allocator<char> > > >, std::less<std::basic_string<char, std::char_traits<char>, std::allocator<char> > >, std::allocator<std::pair<const std::basic_string<char, std::char_traits<char>, std::allocator<char> >, std::basic_string<char, std::char_traits<char>, std::allocator<char> > > > >::_S_key
FUNC 1b074 12 0 std::_Rb_tree<std::basic_string<char, std::char_traits<char>, std::allocator<char> >, std::pair<const std::basic_string<char, std::char_traits<char>, std::allocator<char> >, std::basic_string<char, std::char_traits<char>, std::allocator<char> > >, std::_Select1st<std::pair<const std::basic_string<char, std::char_traits<char>, std::allocator<char> >, std::basic_string<char, std::char_traits<char>, std::allocator<char> > > >, std::less<std::basic_string<char, std::char_traits<char>, std::allocator<char> > >, std::allocator<std::pair<const std::basic_string<char, std::char_traits<char>, std::allocator<char> >, std::basic_string<char, std::char_traits<char>, std::allocator<char> > > > >::_S_value
FUNC 1b086 e 0 std::__miter_base<short unsigned int*, false>::__b
FUNC 1b094 58 0 std::__copy_move_backward_a2<false, short unsigned int*, short unsigned int*>
FUNC 1b0ec 28 0 std::vector<short unsigned int, std::allocator<short unsigned int> >::size
FUNC 1b114 22 0 std::vector<short unsigned int, std::allocator<short unsigned int> >::max_size
FUNC 1b136 2b 0 std::max<size_t>
FUNC 1b162 4a 0 __gnu_cxx::new_allocator<short unsigned int>::allocate
FUNC 1b1ac 31 0 std::__uninitialized_copy_a<short unsigned int*, short unsigned int*, short unsigned int>
FUNC 1b1de 4b 0 __gnu_cxx::new_allocator<std::basic_string<char, std::char_traits<char>, std::allocator<char> > >::allocate
FUNC 1b229 1d 0 std::__niter_base<__gnu_cxx::__normal_iterator<const std::basic_string<char, std::char_traits<char>, std::allocator<char> >*, std::vector<std::basic_string<char, std::char_traits<char>, std::allocator<char> >, std::allocator<std::basic_string<char, std::char_traits<char>, std::allocator<char> > > > >, true>::__b
FUNC 1b246 1d 0 std::__niter_base<__gnu_cxx::__normal_iterator<std::basic_string<char, std::char_traits<char>, std::allocator<char> >*, std::vector<std::basic_string<char, std::char_traits<char>, std::allocator<char> >, std::allocator<std::basic_string<char, std::char_traits<char>, std::allocator<char> > > > >, true>::__b
FUNC 1b263 31 0 std::__copy_move_a<false, const std::basic_string<char, std::char_traits<char>, std::allocator<char> >*, std::basic_string<char, std::char_traits<char>, std::allocator<char> >*>
FUNC 1b294 4b 0 std::_Destroy_aux<false>::__destroy<__gnu_cxx::__normal_iterator<std::basic_string<char, std::char_traits<char>, std::allocator<char> >*, std::vector<std::basic_string<char, std::char_traits<char>, std::allocator<char> >, std::allocator<std::basic_string<char, std::char_traits<char>, std::allocator<char> > > > > >
FUNC 1b2df e 0 std::__niter_base<std::basic_string<char, std::char_traits<char>, std::allocator<char> >*, false>::__b
FUNC 1b2ed 31 0 std::__copy_move_a<false, std::basic_string<char, std::char_traits<char>, std::allocator<char> >*, std::basic_string<char, std::char_traits<char>, std::allocator<char> >*>
FUNC 1b31e 92 0 std::__uninitialized_copy<false>::uninitialized_copy<std::basic_string<char, std::char_traits<char>, std::allocator<char> >*, std::basic_string<char, std::char_traits<char>, std::allocator<char> >*>
FUNC 1b3b0 58 0 std::__copy_move_backward_a2<false, std::basic_string<char, std::char_traits<char>, std::allocator<char> >*, std::basic_string<char, std::char_traits<char>, std::allocator<char> >*>
FUNC 1b408 22 0 std::vector<std::basic_string<char, std::char_traits<char>, std::allocator<char> >, std::allocator<std::basic_string<char, std::char_traits<char>, std::allocator<char> > > >::max_size
FUNC 1b42a ac 0 std::__uninitialized_copy<false>::uninitialized_copy<__gnu_cxx::__normal_iterator<const std::basic_string<char, std::char_traits<char>, std::allocator<char> >*, std::vector<std::basic_string<char, std::char_traits<char>, std::allocator<char> >, std::allocator<std::basic_string<char, std::char_traits<char>, std::allocator<char> > > > >, std::basic_string<char, std::char_traits<char>, std::allocator<char> >*>
FUNC 1b4d6 bd 0 std::_Rb_tree<std::basic_string<char, std::char_traits<char>, std::allocator<char> >, std::pair<const std::basic_string<char, std::char_traits<char>, std::allocator<char> >, std::basic_string<char, std::char_traits<char>, std::allocator<char> > >, std::_Select1st<std::pair<const std::basic_string<char, std::char_traits<char>, std::allocator<char> >, std::basic_string<char, std::char_traits<char>, std::allocator<char> > > >, std::less<std::basic_string<char, std::char_traits<char>, std::allocator<char> > >, std::allocator<std::pair<const std::basic_string<char, std::char_traits<char>, std::allocator<char> >, std::basic_string<char, std::char_traits<char>, std::allocator<char> > > > >::_M_create_node
FUNC 1b594 a 0 __gnu_cxx::new_allocator<std::_Rb_tree_node<std::pair<const std::basic_string<char, std::char_traits<char>, std::allocator<char> >, std::basic_string<char, std::char_traits<char>, std::allocator<char> > > > >::new_allocator
FUNC 1b59e e 0 std::_Rb_tree<std::basic_string<char, std::char_traits<char>, std::allocator<char> >, std::pair<const std::basic_string<char, std::char_traits<char>, std::allocator<char> >, std::basic_string<char, std::char_traits<char>, std::allocator<char> > >, std::_Select1st<std::pair<const std::basic_string<char, std::char_traits<char>, std::allocator<char> >, std::basic_string<char, std::char_traits<char>, std::allocator<char> > > >, std::less<std::basic_string<char, std::char_traits<char>, std::allocator<char> > >, std::allocator<std::pair<const std::basic_string<char, std::char_traits<char>, std::allocator<char> >, std::basic_string<char, std::char_traits<char>, std::allocator<char> > > > >::_M_get_Node_allocator
FUNC 1b5ac 1e 0 std::allocator<std::pair<const std::basic_string<char, std::char_traits<char>, std::allocator<char> >, std::basic_string<char, std::char_traits<char>, std::allocator<char> > > >::allocator<std::_Rb_tree_node<std::pair<const std::basic_string<char, std::char_traits<char>, std::allocator<char> >, std::basic_string<char, std::char_traits<char>, std::allocator<char> > > > >
FUNC 1b5ca a 0 __gnu_cxx::new_allocator<std::pair<const std::basic_string<char, std::char_traits<char>, std::allocator<char> >, std::basic_string<char, std::char_traits<char>, std::allocator<char> > > >::~new_allocator
FUNC 1b5d4 22 0 __gnu_cxx::new_allocator<std::_Rb_tree_node<std::pair<const std::basic_string<char, std::char_traits<char>, std::allocator<char> >, std::basic_string<char, std::char_traits<char>, std::allocator<char> > > > >::deallocate
FUNC 1b5f6 a 0 __gnu_cxx::new_allocator<short unsigned int>::new_allocator
FUNC 1b600 a 0 __gnu_cxx::new_allocator<std::basic_string<char, std::char_traits<char>, std::allocator<char> > >::new_allocator
FUNC 1b60a 1a 0 std::_Destroy<std::basic_string<char, std::char_traits<char>, std::allocator<char> > >
FUNC 1b624 2c 0 std::_Rb_tree<std::basic_string<char, std::char_traits<char>, std::allocator<char> >, std::pair<const std::basic_string<char, std::char_traits<char>, std::allocator<char> >, std::basic_string<char, std::char_traits<char>, std::allocator<char> > >, std::_Select1st<std::pair<const std::basic_string<char, std::char_traits<char>, std::allocator<char> >, std::basic_string<char, std::char_traits<char>, std::allocator<char> > > >, std::less<std::basic_string<char, std::char_traits<char>, std::allocator<char> > >, std::allocator<std::pair<const std::basic_string<char, std::char_traits<char>, std::allocator<char> >, std::basic_string<char, std::char_traits<char>, std::allocator<char> > > > >::begin
FUNC 1b650 2e 0 std::pair<std::_Rb_tree_iterator<std::pair<const std::basic_string<char, std::char_traits<char>, std::allocator<char> >, std::basic_string<char, std::char_traits<char>, std::allocator<char> > > >, bool>::pair
FUNC 1b67e 28 0 std::_Rb_tree_iterator<std::pair<const std::basic_string<char, std::char_traits<char>, std::allocator<char> >, std::basic_string<char, std::char_traits<char>, std::allocator<char> > > >::operator--
FUNC 1b6a6 12 0 std::_Rb_tree<std::basic_string<char, std::char_traits<char>, std::allocator<char> >, std::pair<const std::basic_string<char, std::char_traits<char>, std::allocator<char> >, std::basic_string<char, std::char_traits<char>, std::allocator<char> > >, std::_Select1st<std::pair<const std::basic_string<char, std::char_traits<char>, std::allocator<char> >, std::basic_string<char, std::char_traits<char>, std::allocator<char> > > >, std::less<std::basic_string<char, std::char_traits<char>, std::allocator<char> > >, std::allocator<std::pair<const std::basic_string<char, std::char_traits<char>, std::allocator<char> >, std::basic_string<char, std::char_traits<char>, std::allocator<char> > > > >::_S_value
FUNC 1b6b8 e 0 std::__niter_base<short unsigned int*, false>::__b
FUNC 1b6c6 31 0 std::__copy_move_backward_a<false, short unsigned int*, short unsigned int*>
FUNC 1b6f8 e 0 std::_Vector_base<short unsigned int, std::allocator<short unsigned int> >::_M_get_Tp_allocator
FUNC 1b706 14 0 __gnu_cxx::new_allocator<short unsigned int>::max_size
FUNC 1b71a 2d 0 std::uninitialized_copy<short unsigned int*, short unsigned int*>
FUNC 1b748 14 0 __gnu_cxx::new_allocator<std::basic_string<char, std::char_traits<char>, std::allocator<char> > >::max_size
FUNC 1b75c 63 0 std::__copy_move<false, false, std::random_access_iterator_tag>::__copy_m<const std::basic_string<char, std::char_traits<char>, std::allocator<char> >*, std::basic_string<char, std::char_traits<char>, std::allocator<char> >*>
FUNC 1b7bf 3c 0 __gnu_cxx::operator!=<std::basic_string<char, std::char_traits<char>, std::allocator<char> >*, std::vector<std::basic_string<char, std::char_traits<char>, std::allocator<char> >, std::allocator<std::basic_string<char, std::char_traits<char>, std::allocator<char> > > > >
FUNC 1b7fc 20 0 __gnu_cxx::__normal_iterator<std::basic_string<char, std::char_traits<char>, std::allocator<char> >*, std::vector<std::basic_string<char, std::char_traits<char>, std::allocator<char> >, std::allocator<std::basic_string<char, std::char_traits<char>, std::allocator<char> > > > >::operator++
FUNC 1b81c 63 0 std::__copy_move<false, false, std::random_access_iterator_tag>::__copy_m<std::basic_string<char, std::char_traits<char>, std::allocator<char> >*, std::basic_string<char, std::char_traits<char>, std::allocator<char> >*>
FUNC 1b87f 73 0 std::_Construct<std::basic_string<char, std::char_traits<char>, std::allocator<char> >, std::basic_string<char, std::char_traits<char>, std::allocator<char> > >
FUNC 1b8f2 31 0 std::__copy_move_backward_a<false, std::basic_string<char, std::char_traits<char>, std::allocator<char> >*, std::basic_string<char, std::char_traits<char>, std::allocator<char> >*>
FUNC 1b923 3c 0 __gnu_cxx::operator!=<const std::basic_string<char, std::char_traits<char>, std::allocator<char> >*, std::vector<std::basic_string<char, std::char_traits<char>, std::allocator<char> >, std::allocator<std::basic_string<char, std::char_traits<char>, std::allocator<char> > > > >
FUNC 1b960 24 0 std::_Rb_tree<std::basic_string<char, std::char_traits<char>, std::allocator<char> >, std::pair<const std::basic_string<char, std::char_traits<char>, std::allocator<char> >, std::basic_string<char, std::char_traits<char>, std::allocator<char> > >, std::_Select1st<std::pair<const std::basic_string<char, std::char_traits<char>, std::allocator<char> >, std::basic_string<char, std::char_traits<char>, std::allocator<char> > > >, std::less<std::basic_string<char, std::char_traits<char>, std::allocator<char> > >, std::allocator<std::pair<const std::basic_string<char, std::char_traits<char>, std::allocator<char> >, std::basic_string<char, std::char_traits<char>, std::allocator<char> > > > >::_M_get_node
FUNC 1b984 6b 0 std::pair<const std::basic_string<char, std::char_traits<char>, std::allocator<char> >, std::basic_string<char, std::char_traits<char>, std::allocator<char> > >::pair
FUNC 1b9f0 77 0 __gnu_cxx::new_allocator<std::pair<const std::basic_string<char, std::char_traits<char>, std::allocator<char> >, std::basic_string<char, std::char_traits<char>, std::allocator<char> > > >::construct
FUNC 1ba68 a 0 __gnu_cxx::new_allocator<std::pair<const std::basic_string<char, std::char_traits<char>, std::allocator<char> >, std::basic_string<char, std::char_traits<char>, std::allocator<char> > > >::new_allocator
FUNC 1ba72 61 0 std::__copy_move_backward<false, true, std::random_access_iterator_tag>::__copy_move_b<short unsigned int>
FUNC 1bad3 2d 0 std::__uninitialized_copy<true>::uninitialized_copy<short unsigned int*, short unsigned int*>
FUNC 1bb00 63 0 std::__copy_move_backward<false, false, std::random_access_iterator_tag>::__copy_move_b<std::basic_string<char, std::char_traits<char>, std::allocator<char> >*, std::basic_string<char, std::char_traits<char>, std::allocator<char> >*>
FUNC 1bb64 54 0 __gnu_cxx::new_allocator<std::_Rb_tree_node<std::pair<const std::basic_string<char, std::char_traits<char>, std::allocator<char> >, std::basic_string<char, std::char_traits<char>, std::allocator<char> > > > >::allocate
FUNC 1bbb8 46 0 std::copy<short unsigned int*, short unsigned int*>
FUNC 1bbfe 14 0 __gnu_cxx::new_allocator<std::_Rb_tree_node<std::pair<const std::basic_string<char, std::char_traits<char>, std::allocator<char> >, std::basic_string<char, std::char_traits<char>, std::allocator<char> > > > >::max_size
FUNC 1bc12 58 0 std::__copy_move_a2<false, short unsigned int*, short unsigned int*>
FUNC 1bc6a 31 0 std::__copy_move_a<false, short unsigned int*, short unsigned int*>
FUNC 1bc9b 5c 0 std::__copy_move<false, true, std::random_access_iterator_tag>::__copy_m<short unsigned int>
FUNC 1bcf8 119 0 EncapMysql::EncapMysql
FUNC 1be12 102 0 EncapMysql::~EncapMysql
FUNC 1bf14 74 0 EncapMysql::GetInstance
FUNC 1bf88 112 0 EncapMysql::Connect
FUNC 1c09a 31 0 EncapMysql::CloseConnect
FUNC 1c0cc 402 0 EncapMysql::SelectQuery
FUNC 1c4ce 1e3 0 EncapMysql::ModifyQuery
FUNC 1c6b2 4e 0 EncapMysql::FetchRow
FUNC 1c700 c3 0 EncapMysql::GetField
FUNC 1c7c4 3b 0 EncapMysql::GetField
FUNC 1c800 40 0 EncapMysql::FreePreResult
FUNC 1c840 12 0 EncapMysql::GetErrMsg
FUNC 1c852 12 0 EncapMysql::IsConnected
FUNC 1c864 1a 0 EncapMysql::SetConnected
FUNC 1c87e 68 0 EncapMysql::SaveParam
FUNC 1c8e6 107 0 EncapMysql::ReConnect
FUNC 1c9ee 11 0 EncapMysql::SetUsed
FUNC 1ca00 11 0 EncapMysql::SetIdle
FUNC 1ca12 14 0 EncapMysql::IsIdle
FUNC 1ca26 77 0 __static_initialization_and_destruction_0
FUNC 1ca9d 15 0 _GLOBAL__I_EncapMysql.cpp
FUNC 1cab2 1a 0 Mutex::WriterLock
FUNC 1cacc 1a 0 Mutex::WriterUnlock
FUNC 1cae6 12 0 Mutex::SetIsSafe
FUNC 1caf8 50 0 Mutex::Mutex
FUNC 1cb48 3f 0 Mutex::~Mutex
FUNC 1cb88 3f 0 Mutex::Lock
FUNC 1cbc8 3f 0 Mutex::Unlock
FUNC 1cc08 2c 0 WriterMutexLock::WriterMutexLock
FUNC 1cc34 1d 0 WriterMutexLock::~WriterMutexLock
FUNC 1cc52 1a 0 std::map<std::basic_string<char, std::char_traits<char>, std::allocator<char> >, int, std::less<std::basic_string<char, std::char_traits<char>, std::allocator<char> > >, std::allocator<std::pair<const std::basic_string<char, std::char_traits<char>, std::allocator<char> >, int> > >::~map
FUNC 1cc6c 1a 0 std::map<std::basic_string<char, std::char_traits<char>, std::allocator<char> >, int, std::less<std::basic_string<char, std::char_traits<char>, std::allocator<char> > >, std::allocator<std::pair<const std::basic_string<char, std::char_traits<char>, std::allocator<char> >, int> > >::map
FUNC 1cc86 1a 0 std::_Rb_tree<std::basic_string<char, std::char_traits<char>, std::allocator<char> >, std::pair<const std::basic_string<char, std::char_traits<char>, std::allocator<char> >, int>, std::_Select1st<std::pair<const std::basic_string<char, std::char_traits<char>, std::allocator<char> >, int> >, std::less<std::basic_string<char, std::char_traits<char>, std::allocator<char> > >, std::allocator<std::pair<const std::basic_string<char, std::char_traits<char>, std::allocator<char> >, int> > >::_Rb_tree_impl<std::less<std::basic_string<char, std::char_traits<char>, std::allocator<char> > >, false>::~_Rb_tree_impl
FUNC 1cca0 63 0 std::_Rb_tree<std::basic_string<char, std::char_traits<char>, std::allocator<char> >, std::pair<const std::basic_string<char, std::char_traits<char>, std::allocator<char> >, int>, std::_Select1st<std::pair<const std::basic_string<char, std::char_traits<char>, std::allocator<char> >, int> >, std::less<std::basic_string<char, std::char_traits<char>, std::allocator<char> > >, std::allocator<std::pair<const std::basic_string<char, std::char_traits<char>, std::allocator<char> >, int> > >::~_Rb_tree
FUNC 1cd04 1a 0 std::map<std::basic_string<char, std::char_traits<char>, std::allocator<char> >, int, std::less<std::basic_string<char, std::char_traits<char>, std::allocator<char> > >, std::allocator<std::pair<const std::basic_string<char, std::char_traits<char>, std::allocator<char> >, int> > >::clear
FUNC 1cd1e 1a 0 std::pair<const std::basic_string<char, std::char_traits<char>, std::allocator<char> >, int>::~pair
FUNC 1cd38 118 0 std::map<std::basic_string<char, std::char_traits<char>, std::allocator<char> >, int, std::less<std::basic_string<char, std::char_traits<char>, std::allocator<char> > >, std::allocator<std::pair<const std::basic_string<char, std::char_traits<char>, std::allocator<char> >, int> > >::operator[]
FUNC 1ce50 1a 0 std::_Rb_tree<std::basic_string<char, std::char_traits<char>, std::allocator<char> >, std::pair<const std::basic_string<char, std::char_traits<char>, std::allocator<char> >, int>, std::_Select1st<std::pair<const std::basic_string<char, std::char_traits<char>, std::allocator<char> >, int> >, std::less<std::basic_string<char, std::char_traits<char>, std::allocator<char> > >, std::allocator<std::pair<const std::basic_string<char, std::char_traits<char>, std::allocator<char> >, int> > >::_Rb_tree
FUNC 1ce6a 1a 0 std::allocator<std::_Rb_tree_node<std::pair<const std::basic_string<char, std::char_traits<char>, std::allocator<char> >, int> > >::~allocator
FUNC 1ce84 69 0 std::_Rb_tree<std::basic_string<char, std::char_traits<char>, std::allocator<char> >, std::pair<const std::basic_string<char, std::char_traits<char>, std::allocator<char> >, int>, std::_Select1st<std::pair<const std::basic_string<char, std::char_traits<char>, std::allocator<char> >, int> >, std::less<std::basic_string<char, std::char_traits<char>, std::allocator<char> > >, std::allocator<std::pair<const std::basic_string<char, std::char_traits<char>, std::allocator<char> >, int> > >::_M_erase
FUNC 1ceee 12 0 std::_Rb_tree<std::basic_string<char, std::char_traits<char>, std::allocator<char> >, std::pair<const std::basic_string<char, std::char_traits<char>, std::allocator<char> >, int>, std::_Select1st<std::pair<const std::basic_string<char, std::char_traits<char>, std::allocator<char> >, int> >, std::less<std::basic_string<char, std::char_traits<char>, std::allocator<char> > >, std::allocator<std::pair<const std::basic_string<char, std::char_traits<char>, std::allocator<char> >, int> > >::_M_begin
FUNC 1cf00 8d 0 std::_Rb_tree<std::basic_string<char, std::char_traits<char>, std::allocator<char> >, std::pair<const std::basic_string<char, std::char_traits<char>, std::allocator<char> >, int>, std::_Select1st<std::pair<const std::basic_string<char, std::char_traits<char>, std::allocator<char> >, int> >, std::less<std::basic_string<char, std::char_traits<char>, std::allocator<char> > >, std::allocator<std::pair<const std::basic_string<char, std::char_traits<char>, std::allocator<char> >, int> > >::clear
FUNC 1cf8e 25 0 std::map<std::basic_string<char, std::char_traits<char>, std::allocator<char> >, int, std::less<std::basic_string<char, std::char_traits<char>, std::allocator<char> > >, std::allocator<std::pair<const std::basic_string<char, std::char_traits<char>, std::allocator<char> >, int> > >::lower_bound
FUNC 1cfb4 1a 0 std::map<std::basic_string<char, std::char_traits<char>, std::allocator<char> >, int, std::less<std::basic_string<char, std::char_traits<char>, std::allocator<char> > >, std::allocator<std::pair<const std::basic_string<char, std::char_traits<char>, std::allocator<char> >, int> > >::key_comp
FUNC 1cfce 15 0 std::_Rb_tree_iterator<std::pair<const std::basic_string<char, std::char_traits<char>, std::allocator<char> >, int> >::operator*
FUNC 1cfe4 1a 0 std::map<std::basic_string<char, std::char_traits<char>, std::allocator<char> >, int, std::less<std::basic_string<char, std::char_traits<char>, std::allocator<char> > >, std::allocator<std::pair<const std::basic_string<char, std::char_traits<char>, std::allocator<char> >, int> > >::end
FUNC 1cffe 22 0 std::_Rb_tree_iterator<std::pair<const std::basic_string<char, std::char_traits<char>, std::allocator<char> >, int> >::operator==
FUNC 1d020 36 0 std::pair<const std::basic_string<char, std::char_traits<char>, std::allocator<char> >, int>::pair
FUNC 1d056 40 0 std::map<std::basic_string<char, std::char_traits<char>, std::allocator<char> >, int, std::less<std::basic_string<char, std::char_traits<char>, std::allocator<char> > >, std::allocator<std::pair<const std::basic_string<char, std::char_traits<char>, std::allocator<char> >, int> > >::insert
FUNC 1d096 8c 0 std::_Rb_tree<std::basic_string<char, std::char_traits<char>, std::allocator<char> >, std::pair<const std::basic_string<char, std::char_traits<char>, std::allocator<char> >, int>, std::_Select1st<std::pair<const std::basic_string<char, std::char_traits<char>, std::allocator<char> >, int> >, std::less<std::basic_string<char, std::char_traits<char>, std::allocator<char> > >, std::allocator<std::pair<const std::basic_string<char, std::char_traits<char>, std::allocator<char> >, int> > >::_Rb_tree_impl<std::less<std::basic_string<char, std::char_traits<char>, std::allocator<char> > >, false>::_Rb_tree_impl
FUNC 1d122 a 0 __gnu_cxx::new_allocator<std::_Rb_tree_node<std::pair<const std::basic_string<char, std::char_traits<char>, std::allocator<char> >, int> > >::~new_allocator
FUNC 1d12c 12 0 std::_Rb_tree<std::basic_string<char, std::char_traits<char>, std::allocator<char> >, std::pair<const std::basic_string<char, std::char_traits<char>, std::allocator<char> >, int>, std::_Select1st<std::pair<const std::basic_string<char, std::char_traits<char>, std::allocator<char> >, int> >, std::less<std::basic_string<char, std::char_traits<char>, std::allocator<char> > >, std::allocator<std::pair<const std::basic_string<char, std::char_traits<char>, std::allocator<char> >, int> > >::_S_right
FUNC 1d13e 12 0 std::_Rb_tree<std::basic_string<char, std::char_traits<char>, std::allocator<char> >, std::pair<const std::basic_string<char, std::char_traits<char>, std::allocator<char> >, int>, std::_Select1st<std::pair<const std::basic_string<char, std::char_traits<char>, std::allocator<char> >, int> >, std::less<std::basic_string<char, std::char_traits<char>, std::allocator<char> > >, std::allocator<std::pair<const std::basic_string<char, std::char_traits<char>, std::allocator<char> >, int> > >::_S_left
FUNC 1d150 86 0 std::_Rb_tree<std::basic_string<char, std::char_traits<char>, std::allocator<char> >, std::pair<const std::basic_string<char, std::char_traits<char>, std::allocator<char> >, int>, std::_Select1st<std::pair<const std::basic_string<char, std::char_traits<char>, std::allocator<char> >, int> >, std::less<std::basic_string<char, std::char_traits<char>, std::allocator<char> > >, std::allocator<std::pair<const std::basic_string<char, std::char_traits<char>, std::allocator<char> >, int> > >::_M_destroy_node
FUNC 1d1d6 12 0 std::_Rb_tree<std::basic_string<char, std::char_traits<char>, std::allocator<char> >, std::pair<const std::basic_string<char, std::char_traits<char>, std::allocator<char> >, int>, std::_Select1st<std::pair<const std::basic_string<char, std::char_traits<char>, std::allocator<char> >, int> >, std::less<std::basic_string<char, std::char_traits<char>, std::allocator<char> > >, std::allocator<std::pair<const std::basic_string<char, std::char_traits<char>, std::allocator<char> >, int> > >::_M_end
FUNC 1d1e8 12 0 std::_Rb_tree<std::basic_string<char, std::char_traits<char>, std::allocator<char> >, std::pair<const std::basic_string<char, std::char_traits<char>, std::allocator<char> >, int>, std::_Select1st<std::pair<const std::basic_string<char, std::char_traits<char>, std::allocator<char> >, int> >, std::less<std::basic_string<char, std::char_traits<char>, std::allocator<char> > >, std::allocator<std::pair<const std::basic_string<char, std::char_traits<char>, std::allocator<char> >, int> > >::_M_leftmost
FUNC 1d1fa 12 0 std::_Rb_tree<std::basic_string<char, std::char_traits<char>, std::allocator<char> >, std::pair<const std::basic_string<char, std::char_traits<char>, std::allocator<char> >, int>, std::_Select1st<std::pair<const std::basic_string<char, std::char_traits<char>, std::allocator<char> >, int> >, std::less<std::basic_string<char, std::char_traits<char>, std::allocator<char> > >, std::allocator<std::pair<const std::basic_string<char, std::char_traits<char>, std::allocator<char> >, int> > >::_M_root
FUNC 1d20c 12 0 std::_Rb_tree<std::basic_string<char, std::char_traits<char>, std::allocator<char> >, std::pair<const std::basic_string<char, std::char_traits<char>, std::allocator<char> >, int>, std::_Select1st<std::pair<const std::basic_string<char, std::char_traits<char>, std::allocator<char> >, int> >, std::less<std::basic_string<char, std::char_traits<char>, std::allocator<char> > >, std::allocator<std::pair<const std::basic_string<char, std::char_traits<char>, std::allocator<char> >, int> > >::_M_rightmost
FUNC 1d21e 53 0 std::_Rb_tree<std::basic_string<char, std::char_traits<char>, std::allocator<char> >, std::pair<const std::basic_string<char, std::char_traits<char>, std::allocator<char> >, int>, std::_Select1st<std::pair<const std::basic_string<char, std::char_traits<char>, std::allocator<char> >, int> >, std::less<std::basic_string<char, std::char_traits<char>, std::allocator<char> > >, std::allocator<std::pair<const std::basic_string<char, std::char_traits<char>, std::allocator<char> >, int> > >::lower_bound
FUNC 1d272 a 0 std::_Rb_tree<std::basic_string<char, std::char_traits<char>, std::allocator<char> >, std::pair<const std::basic_string<char, std::char_traits<char>, std::allocator<char> >, int>, std::_Select1st<std::pair<const std::basic_string<char, std::char_traits<char>, std::allocator<char> >, int> >, std::less<std::basic_string<char, std::char_traits<char>, std::allocator<char> > >, std::allocator<std::pair<const std::basic_string<char, std::char_traits<char>, std::allocator<char> >, int> > >::key_comp
FUNC 1d27c 2c 0 std::_Rb_tree<std::basic_string<char, std::char_traits<char>, std::allocator<char> >, std::pair<const std::basic_string<char, std::char_traits<char>, std::allocator<char> >, int>, std::_Select1st<std::pair<const std::basic_string<char, std::char_traits<char>, std::allocator<char> >, int> >, std::less<std::basic_string<char, std::char_traits<char>, std::allocator<char> > >, std::allocator<std::pair<const std::basic_string<char, std::char_traits<char>, std::allocator<char> >, int> > >::end
FUNC 1d2a8 1c 0 std::_Rb_tree_const_iterator<std::pair<const std::basic_string<char, std::char_traits<char>, std::allocator<char> >, int> >::_Rb_tree_const_iterator
FUNC 1d2c4 4c0 0 std::_Rb_tree<std::basic_string<char, std::char_traits<char>, std::allocator<char> >, std::pair<const std::basic_string<char, std::char_traits<char>, std::allocator<char> >, int>, std::_Select1st<std::pair<const std::basic_string<char, std::char_traits<char>, std::allocator<char> >, int> >, std::less<std::basic_string<char, std::char_traits<char>, std::allocator<char> > >, std::allocator<std::pair<const std::basic_string<char, std::char_traits<char>, std::allocator<char> >, int> > >::_M_insert_unique_
FUNC 1d784 1a 0 std::allocator<std::_Rb_tree_node<std::pair<const std::basic_string<char, std::char_traits<char>, std::allocator<char> >, int> > >::allocator
FUNC 1d79e 41 0 std::_Rb_tree<std::basic_string<char, std::char_traits<char>, std::allocator<char> >, std::pair<const std::basic_string<char, std::char_traits<char>, std::allocator<char> >, int>, std::_Select1st<std::pair<const std::basic_string<char, std::char_traits<char>, std::allocator<char> >, int> >, std::less<std::basic_string<char, std::char_traits<char>, std::allocator<char> > >, std::allocator<std::pair<const std::basic_string<char, std::char_traits<char>, std::allocator<char> >, int> > >::_Rb_tree_impl<std::less<std::basic_string<char, std::char_traits<char>, std::allocator<char> > >, false>::_M_initialize
FUNC 1d7e0 3b 0 std::_Rb_tree<std::basic_string<char, std::char_traits<char>, std::allocator<char> >, std::pair<const std::basic_string<char, std::char_traits<char>, std::allocator<char> >, int>, std::_Select1st<std::pair<const std::basic_string<char, std::char_traits<char>, std::allocator<char> >, int> >, std::less<std::basic_string<char, std::char_traits<char>, std::allocator<char> > >, std::allocator<std::pair<const std::basic_string<char, std::char_traits<char>, std::allocator<char> >, int> > >::get_allocator
FUNC 1d81c 1a 0 std::allocator<std::pair<const std::basic_string<char, std::char_traits<char>, std::allocator<char> >, int> >::~allocator
FUNC 1d836 1e 0 __gnu_cxx::new_allocator<std::pair<const std::basic_string<char, std::char_traits<char>, std::allocator<char> >, int> >::destroy
FUNC 1d854 2a 0 std::_Rb_tree<std::basic_string<char, std::char_traits<char>, std::allocator<char> >, std::pair<const std::basic_string<char, std::char_traits<char>, std::allocator<char> >, int>, std::_Select1st<std::pair<const std::basic_string<char, std::char_traits<char>, std::allocator<char> >, int> >, std::less<std::basic_string<char, std::char_traits<char>, std::allocator<char> > >, std::allocator<std::pair<const std::basic_string<char, std::char_traits<char>, std::allocator<char> >, int> > >::_M_put_node
FUNC 1d87e 92 0 std::_Rb_tree<std::basic_string<char, std::char_traits<char>, std::allocator<char> >, std::pair<const std::basic_string<char, std::char_traits<char>, std::allocator<char> >, int>, std::_Select1st<std::pair<const std::basic_string<char, std::char_traits<char>, std::allocator<char> >, int> >, std::less<std::basic_string<char, std::char_traits<char>, std::allocator<char> > >, std::allocator<std::pair<const std::basic_string<char, std::char_traits<char>, std::allocator<char> >, int> > >::_M_lower_bound
FUNC 1d910 19 0 std::_Rb_tree_iterator<std::pair<const std::basic_string<char, std::char_traits<char>, std::allocator<char> >, int> >::_Rb_tree_iterator
FUNC 1d929 2c 0 std::_Rb_tree<std::basic_string<char, std::char_traits<char>, std::allocator<char> >, std::pair<const std::basic_string<char, std::char_traits<char>, std::allocator<char> >, int>, std::_Select1st<std::pair<const std::basic_string<char, std::char_traits<char>, std::allocator<char> >, int> >, std::less<std::basic_string<char, std::char_traits<char>, std::allocator<char> > >, std::allocator<std::pair<const std::basic_string<char, std::char_traits<char>, std::allocator<char> >, int> > >::_S_key
FUNC 1d956 12 0 std::_Select1st<std::pair<const std::basic_string<char, std::char_traits<char>, std::allocator<char> >, int> >::operator()
FUNC 1d968 12 0 std::_Rb_tree<std::basic_string<char, std::char_traits<char>, std::allocator<char> >, std::pair<const std::basic_string<char, std::char_traits<char>, std::allocator<char> >, int>, std::_Select1st<std::pair<const std::basic_string<char, std::char_traits<char>, std::allocator<char> >, int> >, std::less<std::basic_string<char, std::char_traits<char>, std::allocator<char> > >, std::allocator<std::pair<const std::basic_string<char, std::char_traits<char>, std::allocator<char> >, int> > >::size
FUNC 1d97a e3 0 std::_Rb_tree<std::basic_string<char, std::char_traits<char>, std::allocator<char> >, std::pair<const std::basic_string<char, std::char_traits<char>, std::allocator<char> >, int>, std::_Select1st<std::pair<const std::basic_string<char, std::char_traits<char>, std::allocator<char> >, int> >, std::less<std::basic_string<char, std::char_traits<char>, std::allocator<char> > >, std::allocator<std::pair<const std::basic_string<char, std::char_traits<char>, std::allocator<char> >, int> > >::_M_insert_
FUNC 1da5e 271 0 std::_Rb_tree<std::basic_string<char, std::char_traits<char>, std::allocator<char> >, std::pair<const std::basic_string<char, std::char_traits<char>, std::allocator<char> >, int>, std::_Select1st<std::pair<const std::basic_string<char, std::char_traits<char>, std::allocator<char> >, int> >, std::less<std::basic_string<char, std::char_traits<char>, std::allocator<char> > >, std::allocator<std::pair<const std::basic_string<char, std::char_traits<char>, std::allocator<char> >, int> > >::_M_insert_unique
FUNC 1dcd0 28 0 std::_Rb_tree_const_iterator<std::pair<const std::basic_string<char, std::char_traits<char>, std::allocator<char> >, int> >::operator--
FUNC 1dcf8 12 0 std::_Rb_tree<std::basic_string<char, std::char_traits<char>, std::allocator<char> >, std::pair<const std::basic_string<char, std::char_traits<char>, std::allocator<char> >, int>, std::_Select1st<std::pair<const std::basic_string<char, std::char_traits<char>, std::allocator<char> >, int> >, std::less<std::basic_string<char, std::char_traits<char>, std::allocator<char> > >, std::allocator<std::pair<const std::basic_string<char, std::char_traits<char>, std::allocator<char> >, int> > >::_S_right
FUNC 1dd0a 28 0 std::_Rb_tree_const_iterator<std::pair<const std::basic_string<char, std::char_traits<char>, std::allocator<char> >, int> >::operator++
FUNC 1dd32 a 0 __gnu_cxx::new_allocator<std::_Rb_tree_node<std::pair<const std::basic_string<char, std::char_traits<char>, std::allocator<char> >, int> > >::new_allocator
FUNC 1dd3c e 0 std::_Rb_tree<std::basic_string<char, std::char_traits<char>, std::allocator<char> >, std::pair<const std::basic_string<char, std::char_traits<char>, std::allocator<char> >, int>, std::_Select1st<std::pair<const std::basic_string<char, std::char_traits<char>, std::allocator<char> >, int> >, std::less<std::basic_string<char, std::char_traits<char>, std::allocator<char> > >, std::allocator<std::pair<const std::basic_string<char, std::char_traits<char>, std::allocator<char> >, int> > >::_M_get_Node_allocator
FUNC 1dd4a 1e 0 std::allocator<std::pair<const std::basic_string<char, std::char_traits<char>, std::allocator<char> >, int> >::allocator<std::_Rb_tree_node<std::pair<const std::basic_string<char, std::char_traits<char>, std::allocator<char> >, int> > >
FUNC 1dd68 a 0 __gnu_cxx::new_allocator<std::pair<const std::basic_string<char, std::char_traits<char>, std::allocator<char> >, int> >::~new_allocator
FUNC 1dd72 22 0 __gnu_cxx::new_allocator<std::_Rb_tree_node<std::pair<const std::basic_string<char, std::char_traits<char>, std::allocator<char> >, int> > >::deallocate
FUNC 1dd94 2c 0 std::_Rb_tree<std::basic_string<char, std::char_traits<char>, std::allocator<char> >, std::pair<const std::basic_string<char, std::char_traits<char>, std::allocator<char> >, int>, std::_Select1st<std::pair<const std::basic_string<char, std::char_traits<char>, std::allocator<char> >, int> >, std::less<std::basic_string<char, std::char_traits<char>, std::allocator<char> > >, std::allocator<std::pair<const std::basic_string<char, std::char_traits<char>, std::allocator<char> >, int> > >::_S_key
FUNC 1ddc0 12 0 std::_Rb_tree<std::basic_string<char, std::char_traits<char>, std::allocator<char> >, std::pair<const std::basic_string<char, std::char_traits<char>, std::allocator<char> >, int>, std::_Select1st<std::pair<const std::basic_string<char, std::char_traits<char>, std::allocator<char> >, int> >, std::less<std::basic_string<char, std::char_traits<char>, std::allocator<char> > >, std::allocator<std::pair<const std::basic_string<char, std::char_traits<char>, std::allocator<char> >, int> > >::_S_value
FUNC 1ddd2 bd 0 std::_Rb_tree<std::basic_string<char, std::char_traits<char>, std::allocator<char> >, std::pair<const std::basic_string<char, std::char_traits<char>, std::allocator<char> >, int>, std::_Select1st<std::pair<const std::basic_string<char, std::char_traits<char>, std::allocator<char> >, int> >, std::less<std::basic_string<char, std::char_traits<char>, std::allocator<char> > >, std::allocator<std::pair<const std::basic_string<char, std::char_traits<char>, std::allocator<char> >, int> > >::_M_create_node
FUNC 1de90 2c 0 std::_Rb_tree<std::basic_string<char, std::char_traits<char>, std::allocator<char> >, std::pair<const std::basic_string<char, std::char_traits<char>, std::allocator<char> >, int>, std::_Select1st<std::pair<const std::basic_string<char, std::char_traits<char>, std::allocator<char> >, int> >, std::less<std::basic_string<char, std::char_traits<char>, std::allocator<char> > >, std::allocator<std::pair<const std::basic_string<char, std::char_traits<char>, std::allocator<char> >, int> > >::begin
FUNC 1debc 2e 0 std::pair<std::_Rb_tree_iterator<std::pair<const std::basic_string<char, std::char_traits<char>, std::allocator<char> >, int> >, bool>::pair
FUNC 1deea 28 0 std::_Rb_tree_iterator<std::pair<const std::basic_string<char, std::char_traits<char>, std::allocator<char> >, int> >::operator--
FUNC 1df12 a 0 __gnu_cxx::new_allocator<std::pair<const std::basic_string<char, std::char_traits<char>, std::allocator<char> >, int> >::new_allocator
FUNC 1df1c 12 0 std::_Rb_tree<std::basic_string<char, std::char_traits<char>, std::allocator<char> >, std::pair<const std::basic_string<char, std::char_traits<char>, std::allocator<char> >, int>, std::_Select1st<std::pair<const std::basic_string<char, std::char_traits<char>, std::allocator<char> >, int> >, std::less<std::basic_string<char, std::char_traits<char>, std::allocator<char> > >, std::allocator<std::pair<const std::basic_string<char, std::char_traits<char>, std::allocator<char> >, int> > >::_S_value
FUNC 1df2e 24 0 std::_Rb_tree<std::basic_string<char, std::char_traits<char>, std::allocator<char> >, std::pair<const std::basic_string<char, std::char_traits<char>, std::allocator<char> >, int>, std::_Select1st<std::pair<const std::basic_string<char, std::char_traits<char>, std::allocator<char> >, int> >, std::less<std::basic_string<char, std::char_traits<char>, std::allocator<char> > >, std::allocator<std::pair<const std::basic_string<char, std::char_traits<char>, std::allocator<char> >, int> > >::_M_get_node
FUNC 1df52 33 0 std::pair<const std::basic_string<char, std::char_traits<char>, std::allocator<char> >, int>::pair
FUNC 1df86 77 0 __gnu_cxx::new_allocator<std::pair<const std::basic_string<char, std::char_traits<char>, std::allocator<char> >, int> >::construct
FUNC 1dffe 54 0 __gnu_cxx::new_allocator<std::_Rb_tree_node<std::pair<const std::basic_string<char, std::char_traits<char>, std::allocator<char> >, int> > >::allocate
FUNC 1e052 14 0 __gnu_cxx::new_allocator<std::_Rb_tree_node<std::pair<const std::basic_string<char, std::char_traits<char>, std::allocator<char> >, int> > >::max_size
FUNC 1e068 28 0 IEC103Manager::IEC103Manager
FUNC 1e090 61 0 IEC103Manager::~IEC103Manager
FUNC 1e0f2 26 0 IEC103Manager::~IEC103Manager
FUNC 1e118 d2e 0 IEC103Manager::Init
FUNC 1ee46 2d 0 IEC103Manager::Start
FUNC 1ee74 1b 0 IEC103Manager::Stop
FUNC 1ee90 62 0 IEC103Manager::SignalHandle
FUNC 1eef2 257 0 __static_initialization_and_destruction_0
FUNC 1f149 15 0 _GLOBAL__I_IEC103Manager.cpp
FUNC 1f15e 1a 0 std::char_traits<char>::length
FUNC 1f178 2e 0 std::_Rb_tree_node_base::_S_minimum
FUNC 1f1a6 2e 0 std::_Rb_tree_node_base::_S_maximum
FUNC 1f1d4 33 0 Config::GetChannelName
FUNC 1f208 12 0 Config::GetNetType
FUNC 1f21a 29 0 Config::SetIp
FUNC 1f244 1a 0 Config::SetUdpPort
FUNC 1f25e 14 0 Config::GetIec103RunType
FUNC 1f272 37 0 boost::thread_exception::thread_exception
FUNC 1f2aa 39 0 boost::thread_exception::thread_exception
FUNC 1f2e4 41 0 boost::thread_exception::~thread_exception
FUNC 1f326 26 0 boost::thread_exception::~thread_exception
FUNC 1f34c 34 0 boost::lock_error::lock_error
FUNC 1f380 41 0 boost::lock_error::~lock_error
FUNC 1f3c2 26 0 boost::lock_error::~lock_error
FUNC 1f3e8 11 0 boost::lock_error::what
FUNC 1f3fa 2c 0 boost::thread_resource_error::thread_resource_error
FUNC 1f426 41 0 boost::thread_resource_error::~thread_resource_error
FUNC 1f468 26 0 boost::thread_resource_error::~thread_resource_error
FUNC 1f48e 11 0 boost::thread_resource_error::what
FUNC 1f49f a 0 boost::throw_exception_assert_compatibility
FUNC 1f4aa 69 0 boost::mutex::mutex
FUNC 1f514 3d 0 boost::mutex::~mutex
FUNC 1f552 69 0 boost::mutex::lock
FUNC 1f5bc 3d 0 boost::mutex::unlock
FUNC 1f5fa 2c 0 Log::Logger::setlogPath
FUNC 1f626 bd 0 stLogInfo::stLogInfo
FUNC 1f6e4 5d 0 stLogInfo::~stLogInfo
FUNC 1f742 d1 0 WgjFunctionEx::LogSend
FUNC 1f814 1a 0 std::map<std::basic_string<char, std::char_traits<char>, std::allocator<char> >, IEC103::stConfigParam, std::less<std::basic_string<char, std::char_traits<char>, std::allocator<char> > >, std::allocator<std::pair<const std::basic_string<char, std::char_traits<char>, std::allocator<char> >, IEC103::stConfigParam> > >::~map
FUNC 1f82e 1a 0 std::map<std::basic_string<char, std::char_traits<char>, std::allocator<char> >, std::map<std::basic_string<char, std::char_traits<char>, std::allocator<char> >, std::basic_string<char, std::char_traits<char>, std::allocator<char> >, std::less<std::basic_string<char, std::char_traits<char>, std::allocator<char> > >, std::allocator<std::pair<const std::basic_string<char, std::char_traits<char>, std::allocator<char> >, std::basic_string<char, std::char_traits<char>, std::allocator<char> > > > >, std::less<std::basic_string<char, std::char_traits<char>, std::allocator<char> > >, std::allocator<std::pair<const std::basic_string<char, std::char_traits<char>, std::allocator<char> >, std::map<std::basic_string<char, std::char_traits<char>, std::allocator<char> >, std::basic_string<char, std::char_traits<char>, std::allocator<char> >, std::less<std::basic_string<char, std::char_traits<char>, std::allocator<char> > >, std::allocator<std::pair<const std::basic_string<char, std::char_traits<char>, std::allocator<char> >, std::basic_string<char, std::char_traits<char>, std::allocator<char> > > > > > > >::~map
FUNC 1f848 45 0 boost::thread_exception::thread_exception
FUNC 1f88e 37 0 boost::thread_resource_error::thread_resource_error
FUNC 1f8c6 8e 0 boost::exception_detail::error_info_injector<boost::thread_resource_error>::error_info_injector
FUNC 1f954 78 0 boost::exception_detail::clone_impl<boost::exception_detail::error_info_injector<boost::thread_resource_error> >::clone_impl
FUNC 1f9cc ac 0 boost::throw_exception<boost::thread_resource_error>
FUNC 1fa78 37 0 boost::lock_error::lock_error
FUNC 1fab0 8e 0 boost::exception_detail::error_info_injector<boost::lock_error>::error_info_injector
FUNC 1fb3e 78 0 boost::exception_detail::clone_impl<boost::exception_detail::error_info_injector<boost::lock_error> >::clone_impl
FUNC 1fbb6 ac 0 boost::throw_exception<boost::lock_error>
FUNC 1fc62 2c 0 boost::lock_guard<boost::mutex>::lock_guard
FUNC 1fc8e 1d 0 boost::lock_guard<boost::mutex>::~lock_guard
FUNC 1fcab ae 0 std::operator+<char, std::char_traits<char>, std::allocator<char> >
FUNC 1fd5a 34 0 std::list<stLogInfo, std::allocator<stLogInfo> >::push_back
FUNC 1fd8e e5 0 DesignPattern::Singleton<Log::Logger, 0>::instance
FUNC 1fe73 6e 0 std::operator+<char, std::char_traits<char>, std::allocator<char> >
FUNC 1fee2 1a 0 std::_Rb_tree<std::basic_string<char, std::char_traits<char>, std::allocator<char> >, std::pair<const std::basic_string<char, std::char_traits<char>, std::allocator<char> >, IEC103::stConfigParam>, std::_Select1st<std::pair<const std::basic_string<char, std::char_traits<char>, std::allocator<char> >, IEC103::stConfigParam> >, std::less<std::basic_string<char, std::char_traits<char>, std::allocator<char> > >, std::allocator<std::pair<const std::basic_string<char, std::char_traits<char>, std::allocator<char> >, IEC103::stConfigParam> > >::_Rb_tree_impl<std::less<std::basic_string<char, std::char_traits<char>, std::allocator<char> > >, false>::~_Rb_tree_impl
FUNC 1fefc 63 0 std::_Rb_tree<std::basic_string<char, std::char_traits<char>, std::allocator<char> >, std::pair<const std::basic_string<char, std::char_traits<char>, std::allocator<char> >, IEC103::stConfigParam>, std::_Select1st<std::pair<const std::basic_string<char, std::char_traits<char>, std::allocator<char> >, IEC103::stConfigParam> >, std::less<std::basic_string<char, std::char_traits<char>, std::allocator<char> > >, std::allocator<std::pair<const std::basic_string<char, std::char_traits<char>, std::allocator<char> >, IEC103::stConfigParam> > >::~_Rb_tree
FUNC 1ff60 1a 0 std::map<std::basic_string<char, std::char_traits<char>, std::allocator<char> >, IEC103::stConfigParam, std::less<std::basic_string<char, std::char_traits<char>, std::allocator<char> > >, std::allocator<std::pair<const std::basic_string<char, std::char_traits<char>, std::allocator<char> >, IEC103::stConfigParam> > >::size
FUNC 1ff7a 1a 0 std::map<std::basic_string<char, std::char_traits<char>, std::allocator<char> >, IEC103::stConfigParam, std::less<std::basic_string<char, std::char_traits<char>, std::allocator<char> > >, std::allocator<std::pair<const std::basic_string<char, std::char_traits<char>, std::allocator<char> >, IEC103::stConfigParam> > >::begin
FUNC 1ff94 15 0 std::_Rb_tree_iterator<std::pair<const std::basic_string<char, std::char_traits<char>, std::allocator<char> >, IEC103::stConfigParam> >::operator->
FUNC 1ffaa 1a 0 std::_Rb_tree<std::basic_string<char, std::char_traits<char>, std::allocator<char> >, std::pair<const std::basic_string<char, std::char_traits<char>, std::allocator<char> >, std::map<std::basic_string<char, std::char_traits<char>, std::allocator<char> >, std::basic_string<char, std::char_traits<char>, std::allocator<char> >, std::less<std::basic_string<char, std::char_traits<char>, std::allocator<char> > >, std::allocator<std::pair<const std::basic_string<char, std::char_traits<char>, std::allocator<char> >, std::basic_string<char, std::char_traits<char>, std::allocator<char> > > > > >, std::_Select1st<std::pair<const std::basic_string<char, std::char_traits<char>, std::allocator<char> >, std::map<std::basic_string<char, std::char_traits<char>, std::allocator<char> >, std::basic_string<char, std::char_traits<char>, std::allocator<char> >, std::less<std::basic_string<char, std::char_traits<char>, std::allocator<char> > >, std::allocator<std::pair<const std::basic_string<char, std::char_traits<char>, std::allocator<char> >, std::basic_string<char, std::char_traits<char>, std::allocator<char> > > > > > >, std::less<std::basic_string<char, std::char_traits<char>, std::allocator<char> > >, std::allocator<std::pair<const std::basic_string<char, std::char_traits<char>, std::allocator<char> >, std::map<std::basic_string<char, std::char_traits<char>, std::allocator<char> >, std::basic_string<char, std::char_traits<char>, std::allocator<char> >, std::less<std::basic_string<char, std::char_traits<char>, std::allocator<char> > >, std::allocator<std::pair<const std::basic_string<char, std::char_traits<char>, std::allocator<char> >, std::basic_string<char, std::char_traits<char>, std::allocator<char> > > > > > > >::_Rb_tree_impl<std::less<std::basic_string<char, std::char_traits<char>, std::allocator<char> > >, false>::~_Rb_tree_impl
FUNC 1ffc4 63 0 std::_Rb_tree<std::basic_string<char, std::char_traits<char>, std::allocator<char> >, std::pair<const std::basic_string<char, std::char_traits<char>, std::allocator<char> >, std::map<std::basic_string<char, std::char_traits<char>, std::allocator<char> >, std::basic_string<char, std::char_traits<char>, std::allocator<char> >, std::less<std::basic_string<char, std::char_traits<char>, std::allocator<char> > >, std::allocator<std::pair<const std::basic_string<char, std::char_traits<char>, std::allocator<char> >, std::basic_string<char, std::char_traits<char>, std::allocator<char> > > > > >, std::_Select1st<std::pair<const std::basic_string<char, std::char_traits<char>, std::allocator<char> >, std::map<std::basic_string<char, std::char_traits<char>, std::allocator<char> >, std::basic_string<char, std::char_traits<char>, std::allocator<char> >, std::less<std::basic_string<char, std::char_traits<char>, std::allocator<char> > >, std::allocator<std::pair<const std::basic_string<char, std::char_traits<char>, std::allocator<char> >, std::basic_string<char, std::char_traits<char>, std::allocator<char> > > > > > >, std::less<std::basic_string<char, std::char_traits<char>, std::allocator<char> > >, std::allocator<std::pair<const std::basic_string<char, std::char_traits<char>, std::allocator<char> >, std::map<std::basic_string<char, std::char_traits<char>, std::allocator<char> >, std::basic_string<char, std::char_traits<char>, std::allocator<char> >, std::less<std::basic_string<char, std::char_traits<char>, std::allocator<char> > >, std::allocator<std::pair<const std::basic_string<char, std::char_traits<char>, std::allocator<char> >, std::basic_string<char, std::char_traits<char>, std::allocator<char> > > > > > > >::~_Rb_tree
FUNC 20028 1a 0 std::map<std::basic_string<char, std::char_traits<char>, std::allocator<char> >, std::map<std::basic_string<char, std::char_traits<char>, std::allocator<char> >, std::basic_string<char, std::char_traits<char>, std::allocator<char> >, std::less<std::basic_string<char, std::char_traits<char>, std::allocator<char> > >, std::allocator<std::pair<const std::basic_string<char, std::char_traits<char>, std::allocator<char> >, std::basic_string<char, std::char_traits<char>, std::allocator<char> > > > >, std::less<std::basic_string<char, std::char_traits<char>, std::allocator<char> > >, std::allocator<std::pair<const std::basic_string<char, std::char_traits<char>, std::allocator<char> >, std::map<std::basic_string<char, std::char_traits<char>, std::allocator<char> >, std::basic_string<char, std::char_traits<char>, std::allocator<char> >, std::less<std::basic_string<char, std::char_traits<char>, std::allocator<char> > >, std::allocator<std::pair<const std::basic_string<char, std::char_traits<char>, std::allocator<char> >, std::basic_string<char, std::char_traits<char>, std::allocator<char> > > > > > > >::begin
FUNC 20042 15 0 std::_Rb_tree_iterator<std::pair<const std::basic_string<char, std::char_traits<char>, std::allocator<char> >, std::map<std::basic_string<char, std::char_traits<char>, std::allocator<char> >, std::basic_string<char, std::char_traits<char>, std::allocator<char> >, std::less<std::basic_string<char, std::char_traits<char>, std::allocator<char> > >, std::allocator<std::pair<const std::basic_string<char, std::char_traits<char>, std::allocator<char> >, std::basic_string<char, std::char_traits<char>, std::allocator<char> > > > > > >::operator->
FUNC 20058 25 0 std::map<std::basic_string<char, std::char_traits<char>, std::allocator<char> >, std::basic_string<char, std::char_traits<char>, std::allocator<char> >, std::less<std::basic_string<char, std::char_traits<char>, std::allocator<char> > >, std::allocator<std::pair<const std::basic_string<char, std::char_traits<char>, std::allocator<char> >, std::basic_string<char, std::char_traits<char>, std::allocator<char> > > > >::map
FUNC 2007d 2f 0 boost::enable_error_info<boost::thread_resource_error>
FUNC 200ac a1 0 boost::exception_detail::error_info_injector<boost::thread_resource_error>::~error_info_injector
FUNC 2015c 26 0 boost::exception_detail::error_info_injector<boost::thread_resource_error>::~error_info_injector
FUNC 20182 2f 0 boost::enable_current_exception<boost::exception_detail::error_info_injector<boost::thread_resource_error> >
FUNC 201b2 8f 0 boost::exception_detail::clone_impl<boost::exception_detail::error_info_injector<boost::thread_resource_error> >::~clone_impl
FUNC 20260 26 0 boost::exception_detail::clone_impl<boost::exception_detail::error_info_injector<boost::thread_resource_error> >::~clone_impl
FUNC 20286 2f 0 boost::enable_error_info<boost::lock_error>
FUNC 202b6 a1 0 boost::exception_detail::error_info_injector<boost::lock_error>::~error_info_injector
FUNC 20366 26 0 boost::exception_detail::error_info_injector<boost::lock_error>::~error_info_injector
FUNC 2038c 2f 0 boost::enable_current_exception<boost::exception_detail::error_info_injector<boost::lock_error> >
FUNC 203bc 8f 0 boost::exception_detail::clone_impl<boost::exception_detail::error_info_injector<boost::lock_error> >::~clone_impl
FUNC 2046a 26 0 boost::exception_detail::clone_impl<boost::exception_detail::error_info_injector<boost::lock_error> >::~clone_impl
FUNC 20490 25 0 std::list<stLogInfo, std::allocator<stLogInfo> >::end
FUNC 204b6 40 0 std::list<stLogInfo, std::allocator<stLogInfo> >::_M_insert
FUNC 204f6 19 0 std::auto_ptr<Log::Logger>::auto_ptr
FUNC 20510 11 0 std::auto_ptr<Log::Logger>::get
FUNC 20522 64 0 std::auto_ptr<Log::Logger>::reset
FUNC 20586 1a 0 std::allocator<std::_Rb_tree_node<std::pair<const std::basic_string<char, std::char_traits<char>, std::allocator<char> >, IEC103::stConfigParam> > >::~allocator
FUNC 205a0 69 0 std::_Rb_tree<std::basic_string<char, std::char_traits<char>, std::allocator<char> >, std::pair<const std::basic_string<char, std::char_traits<char>, std::allocator<char> >, IEC103::stConfigParam>, std::_Select1st<std::pair<const std::basic_string<char, std::char_traits<char>, std::allocator<char> >, IEC103::stConfigParam> >, std::less<std::basic_string<char, std::char_traits<char>, std::allocator<char> > >, std::allocator<std::pair<const std::basic_string<char, std::char_traits<char>, std::allocator<char> >, IEC103::stConfigParam> > >::_M_erase
FUNC 2060a 12 0 std::_Rb_tree<std::basic_string<char, std::char_traits<char>, std::allocator<char> >, std::pair<const std::basic_string<char, std::char_traits<char>, std::allocator<char> >, IEC103::stConfigParam>, std::_Select1st<std::pair<const std::basic_string<char, std::char_traits<char>, std::allocator<char> >, IEC103::stConfigParam> >, std::less<std::basic_string<char, std::char_traits<char>, std::allocator<char> > >, std::allocator<std::pair<const std::basic_string<char, std::char_traits<char>, std::allocator<char> >, IEC103::stConfigParam> > >::_M_begin
FUNC 2061c 12 0 std::_Rb_tree<std::basic_string<char, std::char_traits<char>, std::allocator<char> >, std::pair<const std::basic_string<char, std::char_traits<char>, std::allocator<char> >, IEC103::stConfigParam>, std::_Select1st<std::pair<const std::basic_string<char, std::char_traits<char>, std::allocator<char> >, IEC103::stConfigParam> >, std::less<std::basic_string<char, std::char_traits<char>, std::allocator<char> > >, std::allocator<std::pair<const std::basic_string<char, std::char_traits<char>, std::allocator<char> >, IEC103::stConfigParam> > >::size
FUNC 2062e 2c 0 std::_Rb_tree<std::basic_string<char, std::char_traits<char>, std::allocator<char> >, std::pair<const std::basic_string<char, std::char_traits<char>, std::allocator<char> >, IEC103::stConfigParam>, std::_Select1st<std::pair<const std::basic_string<char, std::char_traits<char>, std::allocator<char> >, IEC103::stConfigParam> >, std::less<std::basic_string<char, std::char_traits<char>, std::allocator<char> > >, std::allocator<std::pair<const std::basic_string<char, std::char_traits<char>, std::allocator<char> >, IEC103::stConfigParam> > >::begin
FUNC 2065a 1a 0 std::allocator<std::_Rb_tree_node<std::pair<const std::basic_string<char, std::char_traits<char>, std::allocator<char> >, std::map<std::basic_string<char, std::char_traits<char>, std::allocator<char> >, std::basic_string<char, std::char_traits<char>, std::allocator<char> >, std::less<std::basic_string<char, std::char_traits<char>, std::allocator<char> > >, std::allocator<std::pair<const std::basic_string<char, std::char_traits<char>, std::allocator<char> >, std::basic_string<char, std::char_traits<char>, std::allocator<char> > > > > > > >::~allocator
FUNC 20674 69 0 std::_Rb_tree<std::basic_string<char, std::char_traits<char>, std::allocator<char> >, std::pair<const std::basic_string<char, std::char_traits<char>, std::allocator<char> >, std::map<std::basic_string<char, std::char_traits<char>, std::allocator<char> >, std::basic_string<char, std::char_traits<char>, std::allocator<char> >, std::less<std::basic_string<char, std::char_traits<char>, std::allocator<char> > >, std::allocator<std::pair<const std::basic_string<char, std::char_traits<char>, std::allocator<char> >, std::basic_string<char, std::char_traits<char>, std::allocator<char> > > > > >, std::_Select1st<std::pair<const std::basic_string<char, std::char_traits<char>, std::allocator<char> >, std::map<std::basic_string<char, std::char_traits<char>, std::allocator<char> >, std::basic_string<char, std::char_traits<char>, std::allocator<char> >, std::less<std::basic_string<char, std::char_traits<char>, std::allocator<char> > >, std::allocator<std::pair<const std::basic_string<char, std::char_traits<char>, std::allocator<char> >, std::basic_string<char, std::char_traits<char>, std::allocator<char> > > > > > >, std::less<std::basic_string<char, std::char_traits<char>, std::allocator<char> > >, std::allocator<std::pair<const std::basic_string<char, std::char_traits<char>, std::allocator<char> >, std::map<std::basic_string<char, std::char_traits<char>, std::allocator<char> >, std::basic_string<char, std::char_traits<char>, std::allocator<char> >, std::less<std::basic_string<char, std::char_traits<char>, std::allocator<char> > >, std::allocator<std::pair<const std::basic_string<char, std::char_traits<char>, std::allocator<char> >, std::basic_string<char, std::char_traits<char>, std::allocator<char> > > > > > > >::_M_erase
FUNC 206de 12 0 std::_Rb_tree<std::basic_string<char, std::char_traits<char>, std::allocator<char> >, std::pair<const std::basic_string<char, std::char_traits<char>, std::allocator<char> >, std::map<std::basic_string<char, std::char_traits<char>, std::allocator<char> >, std::basic_string<char, std::char_traits<char>, std::allocator<char> >, std::less<std::basic_string<char, std::char_traits<char>, std::allocator<char> > >, std::allocator<std::pair<const std::basic_string<char, std::char_traits<char>, std::allocator<char> >, std::basic_string<char, std::char_traits<char>, std::allocator<char> > > > > >, std::_Select1st<std::pair<const std::basic_string<char, std::char_traits<char>, std::allocator<char> >, std::map<std::basic_string<char, std::char_traits<char>, std::allocator<char> >, std::basic_string<char, std::char_traits<char>, std::allocator<char> >, std::less<std::basic_string<char, std::char_traits<char>, std::allocator<char> > >, std::allocator<std::pair<const std::basic_string<char, std::char_traits<char>, std::allocator<char> >, std::basic_string<char, std::char_traits<char>, std::allocator<char> > > > > > >, std::less<std::basic_string<char, std::char_traits<char>, std::allocator<char> > >, std::allocator<std::pair<const std::basic_string<char, std::char_traits<char>, std::allocator<char> >, std::map<std::basic_string<char, std::char_traits<char>, std::allocator<char> >, std::basic_string<char, std::char_traits<char>, std::allocator<char> >, std::less<std::basic_string<char, std::char_traits<char>, std::allocator<char> > >, std::allocator<std::pair<const std::basic_string<char, std::char_traits<char>, std::allocator<char> >, std::basic_string<char, std::char_traits<char>, std::allocator<char> > > > > > > >::_M_begin
FUNC 206f0 2c 0 std::_Rb_tree<std::basic_string<char, std::char_traits<char>, std::allocator<char> >, std::pair<const std::basic_string<char, std::char_traits<char>, std::allocator<char> >, std::map<std::basic_string<char, std::char_traits<char>, std::allocator<char> >, std::basic_string<char, std::char_traits<char>, std::allocator<char> >, std::less<std::basic_string<char, std::char_traits<char>, std::allocator<char> > >, std::allocator<std::pair<const std::basic_string<char, std::char_traits<char>, std::allocator<char> >, std::basic_string<char, std::char_traits<char>, std::allocator<char> > > > > >, std::_Select1st<std::pair<const std::basic_string<char, std::char_traits<char>, std::allocator<char> >, std::map<std::basic_string<char, std::char_traits<char>, std::allocator<char> >, std::basic_string<char, std::char_traits<char>, std::allocator<char> >, std::less<std::basic_string<char, std::char_traits<char>, std::allocator<char> > >, std::allocator<std::pair<const std::basic_string<char, std::char_traits<char>, std::allocator<char> >, std::basic_string<char, std::char_traits<char>, std::allocator<char> > > > > > >, std::less<std::basic_string<char, std::char_traits<char>, std::allocator<char> > >, std::allocator<std::pair<const std::basic_string<char, std::char_traits<char>, std::allocator<char> >, std::map<std::basic_string<char, std::char_traits<char>, std::allocator<char> >, std::basic_string<char, std::char_traits<char>, std::allocator<char> >, std::less<std::basic_string<char, std::char_traits<char>, std::allocator<char> > >, std::allocator<std::pair<const std::basic_string<char, std::char_traits<char>, std::allocator<char> >, std::basic_string<char, std::char_traits<char>, std::allocator<char> > > > > > > >::begin
FUNC 2071c 11d 0 std::_Rb_tree<std::basic_string<char, std::char_traits<char>, std::allocator<char> >, std::pair<const std::basic_string<char, std::char_traits<char>, std::allocator<char> >, std::basic_string<char, std::char_traits<char>, std::allocator<char> > >, std::_Select1st<std::pair<const std::basic_string<char, std::char_traits<char>, std::allocator<char> >, std::basic_string<char, std::char_traits<char>, std::allocator<char> > > >, std::less<std::basic_string<char, std::char_traits<char>, std::allocator<char> > >, std::allocator<std::pair<const std::basic_string<char, std::char_traits<char>, std::allocator<char> >, std::basic_string<char, std::char_traits<char>, std::allocator<char> > > > >::_Rb_tree
FUNC 2083a 12 0 std::_Rb_tree<std::basic_string<char, std::char_traits<char>, std::allocator<char> >, std::pair<const std::basic_string<char, std::char_traits<char>, std::allocator<char> >, std::basic_string<char, std::char_traits<char>, std::allocator<char> > >, std::_Select1st<std::pair<const std::basic_string<char, std::char_traits<char>, std::allocator<char> >, std::basic_string<char, std::char_traits<char>, std::allocator<char> > > >, std::less<std::basic_string<char, std::char_traits<char>, std::allocator<char> > >, std::allocator<std::pair<const std::basic_string<char, std::char_traits<char>, std::allocator<char> >, std::basic_string<char, std::char_traits<char>, std::allocator<char> > > > >::_M_root
FUNC 2084c 169 0 std::_Rb_tree<std::basic_string<char, std::char_traits<char>, std::allocator<char> >, std::pair<const std::basic_string<char, std::char_traits<char>, std::allocator<char> >, std::basic_string<char, std::char_traits<char>, std::allocator<char> > >, std::_Select1st<std::pair<const std::basic_string<char, std::char_traits<char>, std::allocator<char> >, std::basic_string<char, std::char_traits<char>, std::allocator<char> > > >, std::less<std::basic_string<char, std::char_traits<char>, std::allocator<char> > >, std::allocator<std::pair<const std::basic_string<char, std::char_traits<char>, std::allocator<char> >, std::basic_string<char, std::char_traits<char>, std::allocator<char> > > > >::_M_copy
FUNC 209b6 12 0 std::_Rb_tree<std::basic_string<char, std::char_traits<char>, std::allocator<char> >, std::pair<const std::basic_string<char, std::char_traits<char>, std::allocator<char> >, std::basic_string<char, std::char_traits<char>, std::allocator<char> > >, std::_Select1st<std::pair<const std::basic_string<char, std::char_traits<char>, std::allocator<char> >, std::basic_string<char, std::char_traits<char>, std::allocator<char> > > >, std::less<std::basic_string<char, std::char_traits<char>, std::allocator<char> > >, std::allocator<std::pair<const std::basic_string<char, std::char_traits<char>, std::allocator<char> >, std::basic_string<char, std::char_traits<char>, std::allocator<char> > > > >::_M_begin
FUNC 209c8 1a 0 std::_Rb_tree<std::basic_string<char, std::char_traits<char>, std::allocator<char> >, std::pair<const std::basic_string<char, std::char_traits<char>, std::allocator<char> >, std::basic_string<char, std::char_traits<char>, std::allocator<char> > >, std::_Select1st<std::pair<const std::basic_string<char, std::char_traits<char>, std::allocator<char> >, std::basic_string<char, std::char_traits<char>, std::allocator<char> > > >, std::less<std::basic_string<char, std::char_traits<char>, std::allocator<char> > >, std::allocator<std::pair<const std::basic_string<char, std::char_traits<char>, std::allocator<char> >, std::basic_string<char, std::char_traits<char>, std::allocator<char> > > > >::_S_minimum
FUNC 209e2 1a 0 std::_Rb_tree<std::basic_string<char, std::char_traits<char>, std::allocator<char> >, std::pair<const std::basic_string<char, std::char_traits<char>, std::allocator<char> >, std::basic_string<char, std::char_traits<char>, std::allocator<char> > >, std::_Select1st<std::pair<const std::basic_string<char, std::char_traits<char>, std::allocator<char> >, std::basic_string<char, std::char_traits<char>, std::allocator<char> > > >, std::less<std::basic_string<char, std::char_traits<char>, std::allocator<char> > >, std::allocator<std::pair<const std::basic_string<char, std::char_traits<char>, std::allocator<char> >, std::basic_string<char, std::char_traits<char>, std::allocator<char> > > > >::_S_maximum
FUNC 209fc 83 0 boost::exception_detail::error_info_injector<boost::thread_resource_error>::error_info_injector
FUNC 20a80 ce 0 boost::exception_detail::clone_impl<boost::exception_detail::error_info_injector<boost::thread_resource_error> >::clone_impl
FUNC 20b4e 83 0 boost::exception_detail::error_info_injector<boost::lock_error>::error_info_injector
FUNC 20bd2 ce 0 boost::exception_detail::clone_impl<boost::exception_detail::error_info_injector<boost::lock_error> >::clone_impl
FUNC 20ca0 19 0 std::_List_iterator<stLogInfo>::_List_iterator
FUNC 20cba bd 0 std::list<stLogInfo, std::allocator<stLogInfo> >::_M_create_node
FUNC 20d78 a 0 __gnu_cxx::new_allocator<std::_Rb_tree_node<std::pair<const std::basic_string<char, std::char_traits<char>, std::allocator<char> >, IEC103::stConfigParam> > >::~new_allocator
FUNC 20d82 12 0 std::_Rb_tree<std::basic_string<char, std::char_traits<char>, std::allocator<char> >, std::pair<const std::basic_string<char, std::char_traits<char>, std::allocator<char> >, IEC103::stConfigParam>, std::_Select1st<std::pair<const std::basic_string<char, std::char_traits<char>, std::allocator<char> >, IEC103::stConfigParam> >, std::less<std::basic_string<char, std::char_traits<char>, std::allocator<char> > >, std::allocator<std::pair<const std::basic_string<char, std::char_traits<char>, std::allocator<char> >, IEC103::stConfigParam> > >::_S_right
FUNC 20d94 12 0 std::_Rb_tree<std::basic_string<char, std::char_traits<char>, std::allocator<char> >, std::pair<const std::basic_string<char, std::char_traits<char>, std::allocator<char> >, IEC103::stConfigParam>, std::_Select1st<std::pair<const std::basic_string<char, std::char_traits<char>, std::allocator<char> >, IEC103::stConfigParam> >, std::less<std::basic_string<char, std::char_traits<char>, std::allocator<char> > >, std::allocator<std::pair<const std::basic_string<char, std::char_traits<char>, std::allocator<char> >, IEC103::stConfigParam> > >::_S_left
FUNC 20da6 86 0 std::_Rb_tree<std::basic_string<char, std::char_traits<char>, std::allocator<char> >, std::pair<const std::basic_string<char, std::char_traits<char>, std::allocator<char> >, IEC103::stConfigParam>, std::_Select1st<std::pair<const std::basic_string<char, std::char_traits<char>, std::allocator<char> >, IEC103::stConfigParam> >, std::less<std::basic_string<char, std::char_traits<char>, std::allocator<char> > >, std::allocator<std::pair<const std::basic_string<char, std::char_traits<char>, std::allocator<char> >, IEC103::stConfigParam> > >::_M_destroy_node
FUNC 20e2c e 0 std::_Rb_tree<std::basic_string<char, std::char_traits<char>, std::allocator<char> >, std::pair<const std::basic_string<char, std::char_traits<char>, std::allocator<char> >, IEC103::stConfigParam>, std::_Select1st<std::pair<const std::basic_string<char, std::char_traits<char>, std::allocator<char> >, IEC103::stConfigParam> >, std::less<std::basic_string<char, std::char_traits<char>, std::allocator<char> > >, std::allocator<std::pair<const std::basic_string<char, std::char_traits<char>, std::allocator<char> >, IEC103::stConfigParam> > >::_M_get_Node_allocator
FUNC 20e3a 19 0 std::_Rb_tree_iterator<std::pair<const std::basic_string<char, std::char_traits<char>, std::allocator<char> >, IEC103::stConfigParam> >::_Rb_tree_iterator
FUNC 20e54 a 0 __gnu_cxx::new_allocator<std::_Rb_tree_node<std::pair<const std::basic_string<char, std::char_traits<char>, std::allocator<char> >, std::map<std::basic_string<char, std::char_traits<char>, std::allocator<char> >, std::basic_string<char, std::char_traits<char>, std::allocator<char> >, std::less<std::basic_string<char, std::char_traits<char>, std::allocator<char> > >, std::allocator<std::pair<const std::basic_string<char, std::char_traits<char>, std::allocator<char> >, std::basic_string<char, std::char_traits<char>, std::allocator<char> > > > > > > >::~new_allocator
FUNC 20e5e 12 0 std::_Rb_tree<std::basic_string<char, std::char_traits<char>, std::allocator<char> >, std::pair<const std::basic_string<char, std::char_traits<char>, std::allocator<char> >, std::map<std::basic_string<char, std::char_traits<char>, std::allocator<char> >, std::basic_string<char, std::char_traits<char>, std::allocator<char> >, std::less<std::basic_string<char, std::char_traits<char>, std::allocator<char> > >, std::allocator<std::pair<const std::basic_string<char, std::char_traits<char>, std::allocator<char> >, std::basic_string<char, std::char_traits<char>, std::allocator<char> > > > > >, std::_Select1st<std::pair<const std::basic_string<char, std::char_traits<char>, std::allocator<char> >, std::map<std::basic_string<char, std::char_traits<char>, std::allocator<char> >, std::basic_string<char, std::char_traits<char>, std::allocator<char> >, std::less<std::basic_string<char, std::char_traits<char>, std::allocator<char> > >, std::allocator<std::pair<const std::basic_string<char, std::char_traits<char>, std::allocator<char> >, std::basic_string<char, std::char_traits<char>, std::allocator<char> > > > > > >, std::less<std::basic_string<char, std::char_traits<char>, std::allocator<char> > >, std::allocator<std::pair<const std::basic_string<char, std::char_traits<char>, std::allocator<char> >, std::map<std::basic_string<char, std::char_traits<char>, std::allocator<char> >, std::basic_string<char, std::char_traits<char>, std::allocator<char> >, std::less<std::basic_string<char, std::char_traits<char>, std::allocator<char> > >, std::allocator<std::pair<const std::basic_string<char, std::char_traits<char>, std::allocator<char> >, std::basic_string<char, std::char_traits<char>, std::allocator<char> > > > > > > >::_S_right
FUNC 20e70 12 0 std::_Rb_tree<std::basic_string<char, std::char_traits<char>, std::allocator<char> >, std::pair<const std::basic_string<char, std::char_traits<char>, std::allocator<char> >, std::map<std::basic_string<char, std::char_traits<char>, std::allocator<char> >, std::basic_string<char, std::char_traits<char>, std::allocator<char> >, std::less<std::basic_string<char, std::char_traits<char>, std::allocator<char> > >, std::allocator<std::pair<const std::basic_string<char, std::char_traits<char>, std::allocator<char> >, std::basic_string<char, std::char_traits<char>, std::allocator<char> > > > > >, std::_Select1st<std::pair<const std::basic_string<char, std::char_traits<char>, std::allocator<char> >, std::map<std::basic_string<char, std::char_traits<char>, std::allocator<char> >, std::basic_string<char, std::char_traits<char>, std::allocator<char> >, std::less<std::basic_string<char, std::char_traits<char>, std::allocator<char> > >, std::allocator<std::pair<const std::basic_string<char, std::char_traits<char>, std::allocator<char> >, std::basic_string<char, std::char_traits<char>, std::allocator<char> > > > > > >, std::less<std::basic_string<char, std::char_traits<char>, std::allocator<char> > >, std::allocator<std::pair<const std::basic_string<char, std::char_traits<char>, std::allocator<char> >, std::map<std::basic_string<char, std::char_traits<char>, std::allocator<char> >, std::basic_string<char, std::char_traits<char>, std::allocator<char> >, std::less<std::basic_string<char, std::char_traits<char>, std::allocator<char> > >, std::allocator<std::pair<const std::basic_string<char, std::char_traits<char>, std::allocator<char> >, std::basic_string<char, std::char_traits<char>, std::allocator<char> > > > > > > >::_S_left
FUNC 20e82 86 0 std::_Rb_tree<std::basic_string<char, std::char_traits<char>, std::allocator<char> >, std::pair<const std::basic_string<char, std::char_traits<char>, std::allocator<char> >, std::map<std::basic_string<char, std::char_traits<char>, std::allocator<char> >, std::basic_string<char, std::char_traits<char>, std::allocator<char> >, std::less<std::basic_string<char, std::char_traits<char>, std::allocator<char> > >, std::allocator<std::pair<const std::basic_string<char, std::char_traits<char>, std::allocator<char> >, std::basic_string<char, std::char_traits<char>, std::allocator<char> > > > > >, std::_Select1st<std::pair<const std::basic_string<char, std::char_traits<char>, std::allocator<char> >, std::map<std::basic_string<char, std::char_traits<char>, std::allocator<char> >, std::basic_string<char, std::char_traits<char>, std::allocator<char> >, std::less<std::basic_string<char, std::char_traits<char>, std::allocator<char> > >, std::allocator<std::pair<const std::basic_string<char, std::char_traits<char>, std::allocator<char> >, std::basic_string<char, std::char_traits<char>, std::allocator<char> > > > > > >, std::less<std::basic_string<char, std::char_traits<char>, std::allocator<char> > >, std::allocator<std::pair<const std::basic_string<char, std::char_traits<char>, std::allocator<char> >, std::map<std::basic_string<char, std::char_traits<char>, std::allocator<char> >, std::basic_string<char, std::char_traits<char>, std::allocator<char> >, std::less<std::basic_string<char, std::char_traits<char>, std::allocator<char> > >, std::allocator<std::pair<const std::basic_string<char, std::char_traits<char>, std::allocator<char> >, std::basic_string<char, std::char_traits<char>, std::allocator<char> > > > > > > >::_M_destroy_node
FUNC 20f08 e 0 std::_Rb_tree<std::basic_string<char, std::char_traits<char>, std::allocator<char> >, std::pair<const std::basic_string<char, std::char_traits<char>, std::allocator<char> >, std::map<std::basic_string<char, std::char_traits<char>, std::allocator<char> >, std::basic_string<char, std::char_traits<char>, std::allocator<char> >, std::less<std::basic_string<char, std::char_traits<char>, std::allocator<char> > >, std::allocator<std::pair<const std::basic_string<char, std::char_traits<char>, std::allocator<char> >, std::basic_string<char, std::char_traits<char>, std::allocator<char> > > > > >, std::_Select1st<std::pair<const std::basic_string<char, std::char_traits<char>, std::allocator<char> >, std::map<std::basic_string<char, std::char_traits<char>, std::allocator<char> >, std::basic_string<char, std::char_traits<char>, std::allocator<char> >, std::less<std::basic_string<char, std::char_traits<char>, std::allocator<char> > >, std::allocator<std::pair<const std::basic_string<char, std::char_traits<char>, std::allocator<char> >, std::basic_string<char, std::char_traits<char>, std::allocator<char> > > > > > >, std::less<std::basic_string<char, std::char_traits<char>, std::allocator<char> > >, std::allocator<std::pair<const std::basic_string<char, std::char_traits<char>, std::allocator<char> >, std::map<std::basic_string<char, std::char_traits<char>, std::allocator<char> >, std::basic_string<char, std::char_traits<char>, std::allocator<char> >, std::less<std::basic_string<char, std::char_traits<char>, std::allocator<char> > >, std::allocator<std::pair<const std::basic_string<char, std::char_traits<char>, std::allocator<char> >, std::basic_string<char, std::char_traits<char>, std::allocator<char> > > > > > > >::_M_get_Node_allocator
FUNC 20f16 19 0 std::_Rb_tree_iterator<std::pair<const std::basic_string<char, std::char_traits<char>, std::allocator<char> >, std::map<std::basic_string<char, std::char_traits<char>, std::allocator<char> >, std::basic_string<char, std::char_traits<char>, std::allocator<char> >, std::less<std::basic_string<char, std::char_traits<char>, std::allocator<char> > >, std::allocator<std::pair<const std::basic_string<char, std::char_traits<char>, std::allocator<char> >, std::basic_string<char, std::char_traits<char>, std::allocator<char> > > > > > >::_Rb_tree_iterator
FUNC 20f30 9b 0 std::_Rb_tree<std::basic_string<char, std::char_traits<char>, std::allocator<char> >, std::pair<const std::basic_string<char, std::char_traits<char>, std::allocator<char> >, std::basic_string<char, std::char_traits<char>, std::allocator<char> > >, std::_Select1st<std::pair<const std::basic_string<char, std::char_traits<char>, std::allocator<char> >, std::basic_string<char, std::char_traits<char>, std::allocator<char> > > >, std::less<std::basic_string<char, std::char_traits<char>, std::allocator<char> > >, std::allocator<std::pair<const std::basic_string<char, std::char_traits<char>, std::allocator<char> >, std::basic_string<char, std::char_traits<char>, std::allocator<char> > > > >::_Rb_tree_impl<std::less<std::basic_string<char, std::char_traits<char>, std::allocator<char> > >, false>::_Rb_tree_impl
FUNC 20fcc 55 0 std::_Rb_tree<std::basic_string<char, std::char_traits<char>, std::allocator<char> >, std::pair<const std::basic_string<char, std::char_traits<char>, std::allocator<char> >, std::basic_string<char, std::char_traits<char>, std::allocator<char> > >, std::_Select1st<std::pair<const std::basic_string<char, std::char_traits<char>, std::allocator<char> >, std::basic_string<char, std::char_traits<char>, std::allocator<char> > > >, std::less<std::basic_string<char, std::char_traits<char>, std::allocator<char> > >, std::allocator<std::pair<const std::basic_string<char, std::char_traits<char>, std::allocator<char> >, std::basic_string<char, std::char_traits<char>, std::allocator<char> > > > >::_M_clone_node
FUNC 21021 12 0 std::_Rb_tree<std::basic_string<char, std::char_traits<char>, std::allocator<char> >, std::pair<const std::basic_string<char, std::char_traits<char>, std::allocator<char> >, std::basic_string<char, std::char_traits<char>, std::allocator<char> > >, std::_Select1st<std::pair<const std::basic_string<char, std::char_traits<char>, std::allocator<char> >, std::basic_string<char, std::char_traits<char>, std::allocator<char> > > >, std::less<std::basic_string<char, std::char_traits<char>, std::allocator<char> > >, std::allocator<std::pair<const std::basic_string<char, std::char_traits<char>, std::allocator<char> >, std::basic_string<char, std::char_traits<char>, std::allocator<char> > > > >::_S_left
FUNC 21034 24 0 std::_List_base<stLogInfo, std::allocator<stLogInfo> >::_M_get_node
FUNC 21058 3b 0 std::_List_base<stLogInfo, std::allocator<stLogInfo> >::_M_get_Tp_allocator
FUNC 21094 1a 0 std::allocator<stLogInfo>::~allocator
FUNC 210ae 91 0 stLogInfo::stLogInfo
FUNC 21140 77 0 __gnu_cxx::new_allocator<stLogInfo>::construct
FUNC 211b8 2a 0 std::_List_base<stLogInfo, std::allocator<stLogInfo> >::_M_put_node
FUNC 211e2 3b 0 std::_Rb_tree<std::basic_string<char, std::char_traits<char>, std::allocator<char> >, std::pair<const std::basic_string<char, std::char_traits<char>, std::allocator<char> >, IEC103::stConfigParam>, std::_Select1st<std::pair<const std::basic_string<char, std::char_traits<char>, std::allocator<char> >, IEC103::stConfigParam> >, std::less<std::basic_string<char, std::char_traits<char>, std::allocator<char> > >, std::allocator<std::pair<const std::basic_string<char, std::char_traits<char>, std::allocator<char> >, IEC103::stConfigParam> > >::get_allocator
FUNC 2121e 1a 0 std::allocator<std::pair<const std::basic_string<char, std::char_traits<char>, std::allocator<char> >, IEC103::stConfigParam> >::~allocator
FUNC 21238 84 0 IEC103::stConfigParam::~stConfigParam
FUNC 212bc 55 0 std::pair<const std::basic_string<char, std::char_traits<char>, std::allocator<char> >, IEC103::stConfigParam>::~pair
FUNC 21312 1e 0 __gnu_cxx::new_allocator<std::pair<const std::basic_string<char, std::char_traits<char>, std::allocator<char> >, IEC103::stConfigParam> >::destroy
FUNC 21330 2a 0 std::_Rb_tree<std::basic_string<char, std::char_traits<char>, std::allocator<char> >, std::pair<const std::basic_string<char, std::char_traits<char>, std::allocator<char> >, IEC103::stConfigParam>, std::_Select1st<std::pair<const std::basic_string<char, std::char_traits<char>, std::allocator<char> >, IEC103::stConfigParam> >, std::less<std::basic_string<char, std::char_traits<char>, std::allocator<char> > >, std::allocator<std::pair<const std::basic_string<char, std::char_traits<char>, std::allocator<char> >, IEC103::stConfigParam> > >::_M_put_node
FUNC 2135a 3b 0 std::_Rb_tree<std::basic_string<char, std::char_traits<char>, std::allocator<char> >, std::pair<const std::basic_string<char, std::char_traits<char>, std::allocator<char> >, std::map<std::basic_string<char, std::char_traits<char>, std::allocator<char> >, std::basic_string<char, std::char_traits<char>, std::allocator<char> >, std::less<std::basic_string<char, std::char_traits<char>, std::allocator<char> > >, std::allocator<std::pair<const std::basic_string<char, std::char_traits<char>, std::allocator<char> >, std::basic_string<char, std::char_traits<char>, std::allocator<char> > > > > >, std::_Select1st<std::pair<const std::basic_string<char, std::char_traits<char>, std::allocator<char> >, std::map<std::basic_string<char, std::char_traits<char>, std::allocator<char> >, std::basic_string<char, std::char_traits<char>, std::allocator<char> >, std::less<std::basic_string<char, std::char_traits<char>, std::allocator<char> > >, std::allocator<std::pair<const std::basic_string<char, std::char_traits<char>, std::allocator<char> >, std::basic_string<char, std::char_traits<char>, std::allocator<char> > > > > > >, std::less<std::basic_string<char, std::char_traits<char>, std::allocator<char> > >, std::allocator<std::pair<const std::basic_string<char, std::char_traits<char>, std::allocator<char> >, std::map<std::basic_string<char, std::char_traits<char>, std::allocator<char> >, std::basic_string<char, std::char_traits<char>, std::allocator<char> >, std::less<std::basic_string<char, std::char_traits<char>, std::allocator<char> > >, std::allocator<std::pair<const std::basic_string<char, std::char_traits<char>, std::allocator<char> >, std::basic_string<char, std::char_traits<char>, std::allocator<char> > > > > > > >::get_allocator
FUNC 21396 1a 0 std::allocator<std::pair<const std::basic_string<char, std::char_traits<char>, std::allocator<char> >, std::map<std::basic_string<char, std::char_traits<char>, std::allocator<char> >, std::basic_string<char, std::char_traits<char>, std::allocator<char> >, std::less<std::basic_string<char, std::char_traits<char>, std::allocator<char> > >, std::allocator<std::pair<const std::basic_string<char, std::char_traits<char>, std::allocator<char> >, std::basic_string<char, std::char_traits<char>, std::allocator<char> > > > > > >::~allocator
FUNC 213b0 55 0 std::pair<const std::basic_string<char, std::char_traits<char>, std::allocator<char> >, std::map<std::basic_string<char, std::char_traits<char>, std::allocator<char> >, std::basic_string<char, std::char_traits<char>, std::allocator<char> >, std::less<std::basic_string<char, std::char_traits<char>, std::allocator<char> > >, std::allocator<std::pair<const std::basic_string<char, std::char_traits<char>, std::allocator<char> >, std::basic_string<char, std::char_traits<char>, std::allocator<char> > > > > >::~pair
FUNC 21406 1e 0 __gnu_cxx::new_allocator<std::pair<const std::basic_string<char, std::char_traits<char>, std::allocator<char> >, std::map<std::basic_string<char, std::char_traits<char>, std::allocator<char> >, std::basic_string<char, std::char_traits<char>, std::allocator<char> >, std::less<std::basic_string<char, std::char_traits<char>, std::allocator<char> > >, std::allocator<std::pair<const std::basic_string<char, std::char_traits<char>, std::allocator<char> >, std::basic_string<char, std::char_traits<char>, std::allocator<char> > > > > > >::destroy
FUNC 21424 2a 0 std::_Rb_tree<std::basic_string<char, std::char_traits<char>, std::allocator<char> >, std::pair<const std::basic_string<char, std::char_traits<char>, std::allocator<char> >, std::map<std::basic_string<char, std::char_traits<char>, std::allocator<char> >, std::basic_string<char, std::char_traits<char>, std::allocator<char> >, std::less<std::basic_string<char, std::char_traits<char>, std::allocator<char> > >, std::allocator<std::pair<const std::basic_string<char, std::char_traits<char>, std::allocator<char> >, std::basic_string<char, std::char_traits<char>, std::allocator<char> > > > > >, std::_Select1st<std::pair<const std::basic_string<char, std::char_traits<char>, std::allocator<char> >, std::map<std::basic_string<char, std::char_traits<char>, std::allocator<char> >, std::basic_string<char, std::char_traits<char>, std::allocator<char> >, std::less<std::basic_string<char, std::char_traits<char>, std::allocator<char> > >, std::allocator<std::pair<const std::basic_string<char, std::char_traits<char>, std::allocator<char> >, std::basic_string<char, std::char_traits<char>, std::allocator<char> > > > > > >, std::less<std::basic_string<char, std::char_traits<char>, std::allocator<char> > >, std::allocator<std::pair<const std::basic_string<char, std::char_traits<char>, std::allocator<char> >, std::map<std::basic_string<char, std::char_traits<char>, std::allocator<char> >, std::basic_string<char, std::char_traits<char>, std::allocator<char> >, std::less<std::basic_string<char, std::char_traits<char>, std::allocator<char> > >, std::allocator<std::pair<const std::basic_string<char, std::char_traits<char>, std::allocator<char> >, std::basic_string<char, std::char_traits<char>, std::allocator<char> > > > > > > >::_M_put_node
FUNC 2144e 25 0 std::allocator<std::_Rb_tree_node<std::pair<const std::basic_string<char, std::char_traits<char>, std::allocator<char> >, std::basic_string<char, std::char_traits<char>, std::allocator<char> > > > >::allocator
FUNC 21474 55 0 __gnu_cxx::new_allocator<std::_List_node<stLogInfo> >::allocate
FUNC 214ca e 0 std::_List_base<stLogInfo, std::allocator<stLogInfo> >::_M_get_Node_allocator
FUNC 214d8 1e 0 std::allocator<stLogInfo>::allocator<std::_List_node<stLogInfo> >
FUNC 214f6 a 0 __gnu_cxx::new_allocator<stLogInfo>::~new_allocator
FUNC 21500 22 0 __gnu_cxx::new_allocator<std::_List_node<stLogInfo> >::deallocate
FUNC 21522 1e 0 std::allocator<std::pair<const std::basic_string<char, std::char_traits<char>, std::allocator<char> >, IEC103::stConfigParam> >::allocator<std::_Rb_tree_node<std::pair<const std::basic_string<char, std::char_traits<char>, std::allocator<char> >, IEC103::stConfigParam> > >
FUNC 21540 a 0 __gnu_cxx::new_allocator<std::pair<const std::basic_string<char, std::char_traits<char>, std::allocator<char> >, IEC103::stConfigParam> >::~new_allocator
FUNC 2154a 22 0 __gnu_cxx::new_allocator<std::_Rb_tree_node<std::pair<const std::basic_string<char, std::char_traits<char>, std::allocator<char> >, IEC103::stConfigParam> > >::deallocate
FUNC 2156c 1e 0 std::allocator<std::pair<const std::basic_string<char, std::char_traits<char>, std::allocator<char> >, std::map<std::basic_string<char, std::char_traits<char>, std::allocator<char> >, std::basic_string<char, std::char_traits<char>, std::allocator<char> >, std::less<std::basic_string<char, std::char_traits<char>, std::allocator<char> > >, std::allocator<std::pair<const std::basic_string<char, std::char_traits<char>, std::allocator<char> >, std::basic_string<char, std::char_traits<char>, std::allocator<char> > > > > > >::allocator<std::_Rb_tree_node<std::pair<const std::basic_string<char, std::char_traits<char>, std::allocator<char> >, std::map<std::basic_string<char, std::char_traits<char>, std::allocator<char> >, std::basic_string<char, std::char_traits<char>, std::allocator<char> >, std::less<std::basic_string<char, std::char_traits<char>, std::allocator<char> > >, std::allocator<std::pair<const std::basic_string<char, std::char_traits<char>, std::allocator<char> >, std::basic_string<char, std::char_traits<char>, std::allocator<char> > > > > > > >
FUNC 2158a a 0 __gnu_cxx::new_allocator<std::pair<const std::basic_string<char, std::char_traits<char>, std::allocator<char> >, std::map<std::basic_string<char, std::char_traits<char>, std::allocator<char> >, std::basic_string<char, std::char_traits<char>, std::allocator<char> >, std::less<std::basic_string<char, std::char_traits<char>, std::allocator<char> > >, std::allocator<std::pair<const std::basic_string<char, std::char_traits<char>, std::allocator<char> >, std::basic_string<char, std::char_traits<char>, std::allocator<char> > > > > > >::~new_allocator
FUNC 21594 22 0 __gnu_cxx::new_allocator<std::_Rb_tree_node<std::pair<const std::basic_string<char, std::char_traits<char>, std::allocator<char> >, std::map<std::basic_string<char, std::char_traits<char>, std::allocator<char> >, std::basic_string<char, std::char_traits<char>, std::allocator<char> >, std::less<std::basic_string<char, std::char_traits<char>, std::allocator<char> > >, std::allocator<std::pair<const std::basic_string<char, std::char_traits<char>, std::allocator<char> >, std::basic_string<char, std::char_traits<char>, std::allocator<char> > > > > > > >::deallocate
FUNC 215b6 e 0 __gnu_cxx::new_allocator<std::_Rb_tree_node<std::pair<const std::basic_string<char, std::char_traits<char>, std::allocator<char> >, std::basic_string<char, std::char_traits<char>, std::allocator<char> > > > >::new_allocator
FUNC 215c4 14 0 __gnu_cxx::new_allocator<std::_List_node<stLogInfo> >::max_size
FUNC 215d8 a 0 __gnu_cxx::new_allocator<stLogInfo>::new_allocator
FUNC 215e2 a 0 __gnu_cxx::new_allocator<std::pair<const std::basic_string<char, std::char_traits<char>, std::allocator<char> >, IEC103::stConfigParam> >::new_allocator
FUNC 215ec a 0 __gnu_cxx::new_allocator<std::pair<const std::basic_string<char, std::char_traits<char>, std::allocator<char> >, std::map<std::basic_string<char, std::char_traits<char>, std::allocator<char> >, std::basic_string<char, std::char_traits<char>, std::allocator<char> >, std::less<std::basic_string<char, std::char_traits<char>, std::allocator<char> > >, std::allocator<std::pair<const std::basic_string<char, std::char_traits<char>, std::allocator<char> >, std::basic_string<char, std::char_traits<char>, std::allocator<char> > > > > > >::new_allocator
FUNC 215fc 6c 0 boost::exception_detail::clone_impl<boost::exception_detail::error_info_injector<boost::lock_error> >::clone
FUNC 2166e 5d 0 boost::exception_detail::clone_impl<boost::exception_detail::error_info_injector<boost::lock_error> >::rethrow
FUNC 216d2 6c 0 boost::exception_detail::clone_impl<boost::exception_detail::error_info_injector<boost::thread_resource_error> >::clone
FUNC 21744 5d 0 boost::exception_detail::clone_impl<boost::exception_detail::error_info_injector<boost::thread_resource_error> >::rethrow
FUNC 217a2 30 0 std::auto_ptr<Log::Logger>::~auto_ptr
FUNC 217d4 27 0 Inet::Inet
FUNC 217fc 35 0 Inet::~Inet
FUNC 21832 26 0 Inet::~Inet
FUNC 21858 13d 0 combine_folder
FUNC 21995 23e 0 InitPaths
FUNC 21bd3 31 0 InitLogging
FUNC 21c04 c8 0 GetLocalDate
FUNC 21ccc c8 0 GetCurTime
FUNC 21d94 2a1 0 Logger::Logger
FUNC 22036 138 0 Logger::~Logger
FUNC 2216e 26 0 Logger::~Logger
FUNC 22194 124 0 Logger::Debug
FUNC 222b8 20c 0 Logger::Debug
FUNC 224c4 125 0 Logger::Info
FUNC 225ea 20d 0 Logger::Info
FUNC 227f8 125 0 Logger::Warn
FUNC 2291e 20d 0 Logger::Warn
FUNC 22b2c 125 0 Logger::Error
FUNC 22c52 20d 0 Logger::Error
FUNC 22e60 125 0 Logger::Fatal
FUNC 22f86 20d 0 Logger::Fatal
FUNC 23194 bc 0 Logger::GetInstance
FUNC 23250 164 0 Logger::Log
FUNC 233b4 24a 0 Logger::Log
FUNC 235fe 266 0 Logger::Log
FUNC 23864 b 0 Logger::GetInstancePtr
FUNC 23870 354 0 Logger::Log
FUNC 23bc4 85 0 LogMessage::LogMessage
FUNC 23c4a 86 0 LogMessage::~LogMessage
FUNC 23cd0 26 0 LogMessage::~LogMessage
FUNC 23cf6 4e 0 __static_initialization_and_destruction_0
FUNC 23d44 15 0 _GLOBAL__I_Logger.cpp
FUNC 23d5a 35 0 ILogger::~ILogger
FUNC 23d90 26 0 ILogger::~ILogger
FUNC 23db6 12 0 Logger::stream
FUNC 23dc8 12c 0 FileHelper::CreateDir
FUNC 23ef4 1c 0 ILogger::ILogger
FUNC 23f10 eb 0 MemCache::MemCache
FUNC 23ffc 80 0 MemCache::~MemCache
FUNC 2407c 26 0 MemCache::~MemCache
FUNC 240a2 74 0 MemCache::GetInstance
FUNC 24116 4bc 0 MemCache::Init
FUNC 245d2 af 0 MemCache::GetFunction
FUNC 24682 1a2 0 MemCache::WritePointsValue_V
FUNC 24824 2b 0 MemCache::Post
FUNC 24850 3c 0 MemCache::Free
FUNC 2488c ca 0 __static_initialization_and_destruction_0
FUNC 24956 15 0 _GLOBAL__I_MemCache.cpp
FUNC 2496c 14 0 Config::GetRedisPostName
FUNC 24980 15 0 Config::GetRedisPostSize
FUNC 24996 39 0 std::vector<Tag, std::allocator<Tag> >::operator[]
FUNC 249d0 2d 0 std::vector<Tag, std::allocator<Tag> >::size
FUNC 24a00 123 0 protobuf_RtdbMessage_2eproto::TableStruct::Shutdown
FUNC 24b24 2a7 0 protobuf_RtdbMessage_2eproto::TableStruct::InitDefaultsImpl
FUNC 24dcb 1c 0 protobuf_RtdbMessage_2eproto::InitDefaults
FUNC 24de7 1a 0 protobuf_RtdbMessage_2eproto::AddDescriptorsImpl
FUNC 24e01 1c 0 protobuf_RtdbMessage_2eproto::AddDescriptors
FUNC 24e1d 20 0 PointValueType_IsValid
FUNC 24e3d 20 0 RtdbMessageType_IsValid
FUNC 24e5d 20 0 ObjectType_IsValid
FUNC 24e7e b3 0 RawMessage::RawMessage
FUNC 24f32 1f8 0 RawMessage::RawMessage
FUNC 2512a 63 0 RawMessage::SharedCtor
FUNC 2518e a7 0 RawMessage::~RawMessage
FUNC 25236 26 0 RawMessage::~RawMessage
FUNC 2525c 3e 0 RawMessage::SharedDtor
FUNC 2529a 17 0 RawMessage::SetCachedSize
FUNC 252b2 10 0 RawMessage::default_instance
FUNC 252c2 78 0 RawMessage::New
FUNC 2533a 58 0 RawMessage::Clear
FUNC 25392 40f 0 RawMessage::MergePartialFromCodedStream
FUNC 257a2 177 0 RawMessage::SerializeWithCachedSizes
FUNC 2591a 117 0 RawMessage::ByteSizeLong
FUNC 25a32 30 0 RawMessage::CheckTypeAndMergeFrom
FUNC 25a62 25d 0 RawMessage::MergeFrom
FUNC 25cc0 49 0 RawMessage::CopyFrom
FUNC 25d0a f 0 RawMessage::IsInitialized
FUNC 25d1a 32 0 RawMessage::Swap
FUNC 25d4c b9 0 RawMessage::InternalSwap
FUNC 25e06 73 0 RawMessage::GetTypeName
FUNC 25e7a b3 0 AlarmMessage::AlarmMessage
FUNC 25f2e 2a4 0 AlarmMessage::AlarmMessage
FUNC 261d2 93 0 AlarmMessage::SharedCtor
FUNC 26266 a7 0 AlarmMessage::~AlarmMessage
FUNC 2630e 26 0 AlarmMessage::~AlarmMessage
FUNC 26334 6e 0 AlarmMessage::SharedDtor
FUNC 263a2 17 0 AlarmMessage::SetCachedSize
FUNC 263ba 10 0 AlarmMessage::default_instance
FUNC 263ca 78 0 AlarmMessage::New
FUNC 26442 88 0 AlarmMessage::Clear
FUNC 264ca 5a9 0 AlarmMessage::MergePartialFromCodedStream
FUNC 26a74 2cf 0 AlarmMessage::SerializeWithCachedSizes
FUNC 26d44 1fb 0 AlarmMessage::ByteSizeLong
FUNC 26f40 30 0 AlarmMessage::CheckTypeAndMergeFrom
FUNC 26f70 35f 0 AlarmMessage::MergeFrom
FUNC 272d0 49 0 AlarmMessage::CopyFrom
FUNC 2731a f 0 AlarmMessage::IsInitialized
FUNC 2732a 32 0 AlarmMessage::Swap
FUNC 2735c 145 0 AlarmMessage::InternalSwap
FUNC 274a2 73 0 AlarmMessage::GetTypeName
FUNC 27516 b3 0 DebugRequest::DebugRequest
FUNC 275ca 1a2 0 DebugRequest::DebugRequest
FUNC 2776c 4b 0 DebugRequest::SharedCtor
FUNC 277b8 a7 0 DebugRequest::~DebugRequest
FUNC 27860 26 0 DebugRequest::~DebugRequest
FUNC 27886 26 0 DebugRequest::SharedDtor
FUNC 278ac 17 0 DebugRequest::SetCachedSize
FUNC 278c4 10 0 DebugRequest::default_instance
FUNC 278d4 78 0 DebugRequest::New
FUNC 2794c 40 0 DebugRequest::Clear
FUNC 2798c 365 0 DebugRequest::MergePartialFromCodedStream
FUNC 27cf2 fc 0 DebugRequest::SerializeWithCachedSizes
FUNC 27dee d9 0 DebugRequest::ByteSizeLong
FUNC 27ec8 30 0 DebugRequest::CheckTypeAndMergeFrom
FUNC 27ef8 216 0 DebugRequest::MergeFrom
FUNC 2810e 49 0 DebugRequest::CopyFrom
FUNC 28158 f 0 DebugRequest::IsInitialized
FUNC 28168 32 0 DebugRequest::Swap
FUNC 2819a 8e 0 DebugRequest::InternalSwap
FUNC 28228 73 0 DebugRequest::GetTypeName
FUNC 2829c b3 0 SOEMessage::SOEMessage
FUNC 28350 1a2 0 SOEMessage::SOEMessage
FUNC 284f2 4b 0 SOEMessage::SharedCtor
FUNC 2853e a7 0 SOEMessage::~SOEMessage
FUNC 285e6 26 0 SOEMessage::~SOEMessage
FUNC 2860c 26 0 SOEMessage::SharedDtor
FUNC 28632 17 0 SOEMessage::SetCachedSize
FUNC 2864a 10 0 SOEMessage::default_instance
FUNC 2865a 78 0 SOEMessage::New
FUNC 286d2 40 0 SOEMessage::Clear
FUNC 28712 365 0 SOEMessage::MergePartialFromCodedStream
FUNC 28a78 fc 0 SOEMessage::SerializeWithCachedSizes
FUNC 28b74 d9 0 SOEMessage::ByteSizeLong
FUNC 28c4e 30 0 SOEMessage::CheckTypeAndMergeFrom
FUNC 28c7e 216 0 SOEMessage::MergeFrom
FUNC 28e94 49 0 SOEMessage::CopyFrom
FUNC 28ede f 0 SOEMessage::IsInitialized
FUNC 28eee 32 0 SOEMessage::Swap
FUNC 28f20 8e 0 SOEMessage::InternalSwap
FUNC 28fae 73 0 SOEMessage::GetTypeName
FUNC 29022 b3 0 ControlRequet::ControlRequet
FUNC 290d6 1e7 0 ControlRequet::ControlRequet
FUNC 292be 51 0 ControlRequet::SharedCtor
FUNC 29310 a7 0 ControlRequet::~ControlRequet
FUNC 293b8 26 0 ControlRequet::~ControlRequet
FUNC 293de 3e 0 ControlRequet::SharedDtor
FUNC 2941c 17 0 ControlRequet::SetCachedSize
FUNC 29434 10 0 ControlRequet::default_instance
FUNC 29444 78 0 ControlRequet::New
FUNC 294bc 46 0 ControlRequet::Clear
FUNC 29502 3c1 0 ControlRequet::MergePartialFromCodedStream
FUNC 298c4 144 0 ControlRequet::SerializeWithCachedSizes
FUNC 29a08 c4 0 ControlRequet::ByteSizeLong
FUNC 29acc 30 0 ControlRequet::CheckTypeAndMergeFrom
FUNC 29afc 21f 0 ControlRequet::MergeFrom
FUNC 29d1c 49 0 ControlRequet::CopyFrom
FUNC 29d66 f 0 ControlRequet::IsInitialized
FUNC 29d76 32 0 ControlRequet::Swap
FUNC 29da8 9e 0 ControlRequet::InternalSwap
FUNC 29e46 73 0 ControlRequet::GetTypeName
FUNC 29eba b3 0 LogRequest::LogRequest
FUNC 29f6e 190 0 LogRequest::LogRequest
FUNC 2a0fe 3c 0 LogRequest::SharedCtor
FUNC 2a13a a7 0 LogRequest::~LogRequest
FUNC 2a1e2 26 0 LogRequest::~LogRequest
FUNC 2a208 26 0 LogRequest::SharedDtor
FUNC 2a22e 17 0 LogRequest::SetCachedSize
FUNC 2a246 10 0 LogRequest::default_instance
FUNC 2a256 78 0 LogRequest::New
FUNC 2a2ce 31 0 LogRequest::Clear
FUNC 2a300 326 0 LogRequest::MergePartialFromCodedStream
FUNC 2a626 cb 0 LogRequest::SerializeWithCachedSizes
FUNC 2a6f2 a5 0 LogRequest::ByteSizeLong
FUNC 2a798 30 0 LogRequest::CheckTypeAndMergeFrom
FUNC 2a7c8 1dc 0 LogRequest::MergeFrom
FUNC 2a9a4 49 0 LogRequest::CopyFrom
FUNC 2a9ee f 0 LogRequest::IsInitialized
FUNC 2a9fe 32 0 LogRequest::Swap
FUNC 2aa30 73 0 LogRequest::InternalSwap
FUNC 2aaa4 73 0 LogRequest::GetTypeName
FUNC 2ab18 b3 0 RealLogResponse::RealLogResponse
FUNC 2abcc 24e 0 RealLogResponse::RealLogResponse
FUNC 2ae1a 7b 0 RealLogResponse::SharedCtor
FUNC 2ae96 a7 0 RealLogResponse::~RealLogResponse
FUNC 2af3e 26 0 RealLogResponse::~RealLogResponse
FUNC 2af64 56 0 RealLogResponse::SharedDtor
FUNC 2afba 17 0 RealLogResponse::SetCachedSize
FUNC 2afd2 10 0 RealLogResponse::default_instance
FUNC 2afe2 78 0 RealLogResponse::New
FUNC 2b05a 70 0 RealLogResponse::Clear
FUNC 2b0ca 4e3 0 RealLogResponse::MergePartialFromCodedStream
FUNC 2b5ae 225 0 RealLogResponse::SerializeWithCachedSizes
FUNC 2b7d4 18b 0 RealLogResponse::ByteSizeLong
FUNC 2b960 30 0 RealLogResponse::CheckTypeAndMergeFrom
FUNC 2b990 2e1 0 RealLogResponse::MergeFrom
FUNC 2bc72 49 0 RealLogResponse::CopyFrom
FUNC 2bcbc f 0 RealLogResponse::IsInitialized
FUNC 2bccc 32 0 RealLogResponse::Swap
FUNC 2bcfe ff 0 RealLogResponse::InternalSwap
FUNC 2bdfe 73 0 RealLogResponse::GetTypeName
FUNC 2be72 b3 0 LogQuery::LogQuery
FUNC 2bf26 1f8 0 LogQuery::LogQuery
FUNC 2c11e 63 0 LogQuery::SharedCtor
FUNC 2c182 a7 0 LogQuery::~LogQuery
FUNC 2c22a 26 0 LogQuery::~LogQuery
FUNC 2c250 3e 0 LogQuery::SharedDtor
FUNC 2c28e 17 0 LogQuery::SetCachedSize
FUNC 2c2a6 10 0 LogQuery::default_instance
FUNC 2c2b6 78 0 LogQuery::New
FUNC 2c32e 58 0 LogQuery::Clear
FUNC 2c386 4c2 0 LogQuery::MergePartialFromCodedStream
FUNC 2c848 20e 0 LogQuery::SerializeWithCachedSizes
FUNC 2ca56 1b7 0 LogQuery::ByteSizeLong
FUNC 2cc0e 30 0 LogQuery::CheckTypeAndMergeFrom
FUNC 2cc3e 311 0 LogQuery::MergeFrom
FUNC 2cf50 49 0 LogQuery::CopyFrom
FUNC 2cf9a f 0 LogQuery::IsInitialized
FUNC 2cfaa 32 0 LogQuery::Swap
FUNC 2cfdc 10a 0 LogQuery::InternalSwap
FUNC 2d0e6 73 0 LogQuery::GetTypeName
FUNC 2d15a b3 0 HisLogResponse::HisLogResponse
FUNC 2d20e 24e 0 HisLogResponse::HisLogResponse
FUNC 2d45c 7b 0 HisLogResponse::SharedCtor
FUNC 2d4d8 a7 0 HisLogResponse::~HisLogResponse
FUNC 2d580 26 0 HisLogResponse::~HisLogResponse
FUNC 2d5a6 56 0 HisLogResponse::SharedDtor
FUNC 2d5fc 17 0 HisLogResponse::SetCachedSize
FUNC 2d614 10 0 HisLogResponse::default_instance
FUNC 2d624 78 0 HisLogResponse::New
FUNC 2d69c 70 0 HisLogResponse::Clear
FUNC 2d70c 51a 0 HisLogResponse::MergePartialFromCodedStream
FUNC 2dc26 256 0 HisLogResponse::SerializeWithCachedSizes
FUNC 2de7c 1bf 0 HisLogResponse::ByteSizeLong
FUNC 2e03c 30 0 HisLogResponse::CheckTypeAndMergeFrom
FUNC 2e06c 31b 0 HisLogResponse::MergeFrom
FUNC 2e388 49 0 HisLogResponse::CopyFrom
FUNC 2e3d2 f 0 HisLogResponse::IsInitialized
FUNC 2e3e2 32 0 HisLogResponse::Swap
FUNC 2e414 11a 0 HisLogResponse::InternalSwap
FUNC 2e52e 73 0 HisLogResponse::GetTypeName
FUNC 2e5a2 b3 0 NetcardInfoRequest::NetcardInfoRequest
FUNC 2e656 184 0 NetcardInfoRequest::NetcardInfoRequest
FUNC 2e7da 31 0 NetcardInfoRequest::SharedCtor
FUNC 2e80c a7 0 NetcardInfoRequest::~NetcardInfoRequest
FUNC 2e8b4 26 0 NetcardInfoRequest::~NetcardInfoRequest
FUNC 2e8da 26 0 NetcardInfoRequest::SharedDtor
FUNC 2e900 17 0 NetcardInfoRequest::SetCachedSize
FUNC 2e918 10 0 NetcardInfoRequest::default_instance
FUNC 2e928 78 0 NetcardInfoRequest::New
FUNC 2e9a0 26 0 NetcardInfoRequest::Clear
FUNC 2e9c6 2e7 0 NetcardInfoRequest::MergePartialFromCodedStream
FUNC 2ecae 9a 0 NetcardInfoRequest::SerializeWithCachedSizes
FUNC 2ed48 71 0 NetcardInfoRequest::ByteSizeLong
FUNC 2edba 30 0 NetcardInfoRequest::CheckTypeAndMergeFrom
FUNC 2edea 1a2 0 NetcardInfoRequest::MergeFrom
FUNC 2ef8c 49 0 NetcardInfoRequest::CopyFrom
FUNC 2efd6 f 0 NetcardInfoRequest::IsInitialized
FUNC 2efe6 32 0 NetcardInfoRequest::Swap
FUNC 2f018 58 0 NetcardInfoRequest::InternalSwap
FUNC 2f070 73 0 NetcardInfoRequest::GetTypeName
FUNC 2f0e4 b3 0 NetcardInfo::NetcardInfo
FUNC 2f198 286 0 NetcardInfo::NetcardInfo
FUNC 2f41e 79 0 NetcardInfo::SharedCtor
FUNC 2f498 a7 0 NetcardInfo::~NetcardInfo
FUNC 2f540 26 0 NetcardInfo::~NetcardInfo
FUNC 2f566 6e 0 NetcardInfo::SharedDtor
FUNC 2f5d4 17 0 NetcardInfo::SetCachedSize
FUNC 2f5ec 10 0 NetcardInfo::default_instance
FUNC 2f5fc 78 0 NetcardInfo::New
FUNC 2f674 6e 0 NetcardInfo::Clear
FUNC 2f6e2 4c7 0 NetcardInfo::MergePartialFromCodedStream
FUNC 2fbaa 20b 0 NetcardInfo::SerializeWithCachedSizes
FUNC 2fdb6 12b 0 NetcardInfo::ByteSizeLong
FUNC 2fee2 30 0 NetcardInfo::CheckTypeAndMergeFrom
FUNC 2ff12 277 0 NetcardInfo::MergeFrom
FUNC 3018a 49 0 NetcardInfo::CopyFrom
FUNC 301d4 f 0 NetcardInfo::IsInitialized
FUNC 301e4 32 0 NetcardInfo::Swap
FUNC 30216 d9 0 NetcardInfo::InternalSwap
FUNC 302f0 73 0 NetcardInfo::GetTypeName
FUNC 30364 e0 0 NetcardInfoResponse::NetcardInfoResponse
FUNC 30444 16a 0 NetcardInfoResponse::NetcardInfoResponse
FUNC 305ae 15 0 NetcardInfoResponse::SharedCtor
FUNC 305c4 d6 0 NetcardInfoResponse::~NetcardInfoResponse
FUNC 3069a 26 0 NetcardInfoResponse::~NetcardInfoResponse
FUNC 306c0 a 0 NetcardInfoResponse::SharedDtor
FUNC 306ca 17 0 NetcardInfoResponse::SetCachedSize
FUNC 306e2 10 0 NetcardInfoResponse::default_instance
FUNC 306f2 78 0 NetcardInfoResponse::New
FUNC 3076a 1e 0 NetcardInfoResponse::Clear
FUNC 30788 284 0 NetcardInfoResponse::MergePartialFromCodedStream
FUNC 30a0c 64 0 NetcardInfoResponse::SerializeWithCachedSizes
FUNC 30a70 80 0 NetcardInfoResponse::ByteSizeLong
FUNC 30af0 30 0 NetcardInfoResponse::CheckTypeAndMergeFrom
FUNC 30b20 17c 0 NetcardInfoResponse::MergeFrom
FUNC 30c9c 49 0 NetcardInfoResponse::CopyFrom
FUNC 30ce6 f 0 NetcardInfoResponse::IsInitialized
FUNC 30cf6 32 0 NetcardInfoResponse::Swap
FUNC 30d28 48 0 NetcardInfoResponse::InternalSwap
FUNC 30d70 73 0 NetcardInfoResponse::GetTypeName
FUNC 30de4 b3 0 ProcessData::ProcessData
FUNC 30e98 24e 0 ProcessData::ProcessData
FUNC 310e6 7b 0 ProcessData::SharedCtor
FUNC 31162 a7 0 ProcessData::~ProcessData
FUNC 3120a 26 0 ProcessData::~ProcessData
FUNC 31230 56 0 ProcessData::SharedDtor
FUNC 31286 17 0 ProcessData::SetCachedSize
FUNC 3129e 10 0 ProcessData::default_instance
FUNC 312ae 78 0 ProcessData::New
FUNC 31326 70 0 ProcessData::Clear
FUNC 31396 5c7 0 ProcessData::MergePartialFromCodedStream
FUNC 3195e 2fb 0 ProcessData::SerializeWithCachedSizes
FUNC 31c5a 237 0 ProcessData::ByteSizeLong
FUNC 31e92 30 0 ProcessData::CheckTypeAndMergeFrom
FUNC 31ec2 3d0 0 ProcessData::MergeFrom
FUNC 32292 49 0 ProcessData::CopyFrom
FUNC 322dc f 0 ProcessData::IsInitialized
FUNC 322ec 32 0 ProcessData::Swap
FUNC 3231e 16b 0 ProcessData::InternalSwap
FUNC 3248a 73 0 ProcessData::GetTypeName
FUNC 324fe b3 0 ProcessCtrl::ProcessCtrl
FUNC 325b2 190 0 ProcessCtrl::ProcessCtrl
FUNC 32742 3c 0 ProcessCtrl::SharedCtor
FUNC 3277e a7 0 ProcessCtrl::~ProcessCtrl
FUNC 32826 26 0 ProcessCtrl::~ProcessCtrl
FUNC 3284c 26 0 ProcessCtrl::SharedDtor
FUNC 32872 17 0 ProcessCtrl::SetCachedSize
FUNC 3288a 10 0 ProcessCtrl::default_instance
FUNC 3289a 78 0 ProcessCtrl::New
FUNC 32912 31 0 ProcessCtrl::Clear
FUNC 32944 326 0 ProcessCtrl::MergePartialFromCodedStream
FUNC 32c6a cb 0 ProcessCtrl::SerializeWithCachedSizes
FUNC 32d36 a5 0 ProcessCtrl::ByteSizeLong
FUNC 32ddc 30 0 ProcessCtrl::CheckTypeAndMergeFrom
FUNC 32e0c 1dc 0 ProcessCtrl::MergeFrom
FUNC 32fe8 49 0 ProcessCtrl::CopyFrom
FUNC 33032 f 0 ProcessCtrl::IsInitialized
FUNC 33042 32 0 ProcessCtrl::Swap
FUNC 33074 73 0 ProcessCtrl::InternalSwap
FUNC 330e8 73 0 ProcessCtrl::GetTypeName
FUNC 3315c b3 0 RealPointValue::RealPointValue
FUNC 33210 2a4 0 RealPointValue::RealPointValue
FUNC 334b4 93 0 RealPointValue::SharedCtor
FUNC 33548 a7 0 RealPointValue::~RealPointValue
FUNC 335f0 26 0 RealPointValue::~RealPointValue
FUNC 33616 6e 0 RealPointValue::SharedDtor
FUNC 33684 17 0 RealPointValue::SetCachedSize
FUNC 3369c 10 0 RealPointValue::default_instance
FUNC 336ac 78 0 RealPointValue::New
FUNC 33724 88 0 RealPointValue::Clear
FUNC 337ac 540 0 RealPointValue::MergePartialFromCodedStream
FUNC 33cec 26d 0 RealPointValue::SerializeWithCachedSizes
FUNC 33f5a 193 0 RealPointValue::ByteSizeLong
FUNC 340ee 30 0 RealPointValue::CheckTypeAndMergeFrom
FUNC 3411e 2eb 0 RealPointValue::MergeFrom
FUNC 3440a 49 0 RealPointValue::CopyFrom
FUNC 34454 f 0 RealPointValue::IsInitialized
FUNC 34464 32 0 RealPointValue::Swap
FUNC 34496 10f 0 RealPointValue::InternalSwap
FUNC 345a6 73 0 RealPointValue::GetTypeName
FUNC 3461a b3 0 HeartBeatMessage::HeartBeatMessage
FUNC 346ce 190 0 HeartBeatMessage::HeartBeatMessage
FUNC 3485e 3c 0 HeartBeatMessage::SharedCtor
FUNC 3489a a7 0 HeartBeatMessage::~HeartBeatMessage
FUNC 34942 26 0 HeartBeatMessage::~HeartBeatMessage
FUNC 34968 26 0 HeartBeatMessage::SharedDtor
FUNC 3498e 17 0 HeartBeatMessage::SetCachedSize
FUNC 349a6 10 0 HeartBeatMessage::default_instance
FUNC 349b6 78 0 HeartBeatMessage::New
FUNC 34a2e 31 0 HeartBeatMessage::Clear
FUNC 34a60 326 0 HeartBeatMessage::MergePartialFromCodedStream
FUNC 34d86 cb 0 HeartBeatMessage::SerializeWithCachedSizes
FUNC 34e52 a5 0 HeartBeatMessage::ByteSizeLong
FUNC 34ef8 30 0 HeartBeatMessage::CheckTypeAndMergeFrom
FUNC 34f28 1dc 0 HeartBeatMessage::MergeFrom
FUNC 35104 49 0 HeartBeatMessage::CopyFrom
FUNC 3514e f 0 HeartBeatMessage::IsInitialized
FUNC 3515e 32 0 HeartBeatMessage::Swap
FUNC 35190 73 0 HeartBeatMessage::InternalSwap
FUNC 35204 73 0 HeartBeatMessage::GetTypeName
FUNC 35278 b3 0 CommunicationPair::CommunicationPair
FUNC 3532c 4fe 0 CommunicationPair::CommunicationPair
FUNC 3582a 13b 0 CommunicationPair::SharedCtor
FUNC 35966 a7 0 CommunicationPair::~CommunicationPair
FUNC 35a0e 26 0 CommunicationPair::~CommunicationPair
FUNC 35a34 116 0 CommunicationPair::SharedDtor
FUNC 35b4a 17 0 CommunicationPair::SetCachedSize
FUNC 35b62 10 0 CommunicationPair::default_instance
FUNC 35b72 78 0 CommunicationPair::New
FUNC 35bea 130 0 CommunicationPair::Clear
FUNC 35d1a 97f 0 CommunicationPair::MergePartialFromCodedStream
FUNC 3669a 5fb 0 CommunicationPair::SerializeWithCachedSizes
FUNC 36c96 379 0 CommunicationPair::ByteSizeLong
FUNC 37010 30 0 CommunicationPair::CheckTypeAndMergeFrom
FUNC 37040 516 0 CommunicationPair::MergeFrom
FUNC 37556 49 0 CommunicationPair::CopyFrom
FUNC 375a0 f 0 CommunicationPair::IsInitialized
FUNC 375b0 32 0 CommunicationPair::Swap
FUNC 375e2 2de 0 CommunicationPair::InternalSwap
FUNC 378c0 73 0 CommunicationPair::GetTypeName
FUNC 37934 b3 0 FlowThreshold::FlowThreshold
FUNC 379e8 286 0 FlowThreshold::FlowThreshold
FUNC 37c6e 79 0 FlowThreshold::SharedCtor
FUNC 37ce8 a7 0 FlowThreshold::~FlowThreshold
FUNC 37d90 26 0 FlowThreshold::~FlowThreshold
FUNC 37db6 6e 0 FlowThreshold::SharedDtor
FUNC 37e24 17 0 FlowThreshold::SetCachedSize
FUNC 37e3c 10 0 FlowThreshold::default_instance
FUNC 37e4c 78 0 FlowThreshold::New
FUNC 37ec4 6e 0 FlowThreshold::Clear
FUNC 37f32 4c7 0 FlowThreshold::MergePartialFromCodedStream
FUNC 383fa 20b 0 FlowThreshold::SerializeWithCachedSizes
FUNC 38606 12b 0 FlowThreshold::ByteSizeLong
FUNC 38732 30 0 FlowThreshold::CheckTypeAndMergeFrom
FUNC 38762 277 0 FlowThreshold::MergeFrom
FUNC 389da 49 0 FlowThreshold::CopyFrom
FUNC 38a24 f 0 FlowThreshold::IsInitialized
FUNC 38a34 32 0 FlowThreshold::Swap
FUNC 38a66 d9 0 FlowThreshold::InternalSwap
FUNC 38b40 73 0 FlowThreshold::GetTypeName
FUNC 38bb4 b3 0 RtdbMessage::RtdbMessage
FUNC 38c68 68b 0 RtdbMessage::RtdbMessage
FUNC 392f4 36 0 RtdbMessage::SharedCtor
FUNC 3932a a7 0 RtdbMessage::~RtdbMessage
FUNC 393d2 26 0 RtdbMessage::~RtdbMessage
FUNC 393f8 31a 0 RtdbMessage::SharedDtor
FUNC 39712 1a 0 RtdbMessage::SetCachedSize
FUNC 3972c 10 0 RtdbMessage::default_instance
FUNC 3973c 78 0 RtdbMessage::New
FUNC 397b4 556 0 RtdbMessage::Clear
FUNC 39d0a 75c 0 RtdbMessage::MergePartialFromCodedStream
FUNC 3a466 354 0 RtdbMessage::SerializeWithCachedSizes
FUNC 3a7ba 3aa 0 RtdbMessage::ByteSizeLong
FUNC 3ab64 30 0 RtdbMessage::CheckTypeAndMergeFrom
FUNC 3ab94 5ea 0 RtdbMessage::MergeFrom
FUNC 3b17e 49 0 RtdbMessage::CopyFrom
FUNC 3b1c8 f 0 RtdbMessage::IsInitialized
FUNC 3b1d8 32 0 RtdbMessage::Swap
FUNC 3b20a 245 0 RtdbMessage::InternalSwap
FUNC 3b450 73 0 RtdbMessage::GetTypeName
FUNC 3b4c3 2e 0 __static_initialization_and_destruction_0
FUNC 3b4f1 15 0 _GLOBAL__I_RtdbMessage.pb.cpp
FUNC 3b506 13 0 google::protobuf::Bits::Log2FloorNonZero
FUNC 3b519 16 0 google::protobuf::Bits::Log2FloorNonZero64
FUNC 3b530 1c 0 google::protobuf::Closure::Closure
FUNC 3b54c 4c 0 google::protobuf::internal::FunctionClosure0::FunctionClosure0
FUNC 3b598 19 0 google::protobuf::internal::Acquire_Load
FUNC 3b5b2 99 0 google::protobuf::io::CodedInputStream::ReadVarint32
FUNC 3b64c 9f 0 google::protobuf::io::CodedInputStream::ReadVarint64
FUNC 3b6ec 83 0 google::protobuf::io::CodedInputStream::ReadVarintSizeAsInt
FUNC 3b770 32 0 google::protobuf::io::CodedInputStream::ReadLittleEndian32FromArray
FUNC 3b7a2 68 0 google::protobuf::io::CodedInputStream::ReadLittleEndian32
FUNC 3b80a 2f 0 google::protobuf::io::CodedOutputStream::VarintSize32
FUNC 3b83a 33 0 google::protobuf::io::CodedOutputStream::VarintSize64
FUNC 3b86e 24 0 google::protobuf::io::CodedOutputStream::VarintSize32SignExtended
FUNC 3b892 23 0 google::protobuf::io::CodedInputStream::Advance
FUNC 3b8b6 21 0 google::protobuf::io::CodedInputStream::BufferSize
FUNC 3b8d8 19 0 google::protobuf::internal::ArenaStringPtr::UnsafeSetDefault
FUNC 3b8f2 4e 0 google::protobuf::internal::ArenaStringPtr::SetNoArena
FUNC 3b940 11 0 google::protobuf::internal::ArenaStringPtr::GetNoArena
FUNC 3b952 39 0 google::protobuf::internal::ArenaStringPtr::MutableNoArena
FUNC 3b98c 41 0 google::protobuf::internal::ArenaStringPtr::DestroyNoArena
FUNC 3b9ce 2e 0 google::protobuf::internal::ArenaStringPtr::ClearToEmptyNoArena
FUNC 3b9fc e 0 google::protobuf::internal::ArenaStringPtr::UnsafeRawStringPointer
FUNC 3ba0a f0 0 google::protobuf::internal::ArenaStringPtr::CreateInstanceNoArena
FUNC 3bafa 68 0 google::protobuf::internal::ArenaStringPtr::AssignWithDefault
FUNC 3bb62 8b 0 google::protobuf::GoogleOnceInit
FUNC 3bbed 15 0 google::protobuf::internal::GetEmptyStringAlreadyInited
FUNC 3bc02 e 0 google::protobuf::internal::ToCachedSize
FUNC 3bc10 1c 0 google::protobuf::MessageLite::MessageLite
FUNC 3bc2c 35 0 google::protobuf::MessageLite::~MessageLite
FUNC 3bc62 26 0 google::protobuf::MessageLite::~MessageLite
FUNC 3bc88 f 0 google::protobuf::MessageLite::GetArena
FUNC 3bc98 25 0 google::protobuf::MessageLite::GetMaybeArenaPointer
FUNC 3bcbe a 0 google::protobuf::internal::AuxillaryParseTableField::AuxillaryParseTableField
FUNC 3bcc8 25 0 google::protobuf::internal::InternalMetadataWithArenaLite::InternalMetadataWithArenaLite
FUNC 3bcee 70 0 google::protobuf::internal::InternalMetadataWithArenaLite::DoMergeFrom
FUNC 3bd5e b 0 google::protobuf::internal::InternalMetadataWithArenaLite::default_instance
FUNC 3bd6a a 0 google::protobuf::internal::RepeatedPtrFieldBase::~RepeatedPtrFieldBase
FUNC 3bd74 11 0 google::protobuf::internal::RepeatedPtrFieldBase::GetArenaNoVirtual
FUNC 3bd86 37 0 google::protobuf::internal::RepeatedPtrFieldBase::RepeatedPtrFieldBase
FUNC 3bdbe 11 0 google::protobuf::internal::RepeatedPtrFieldBase::size
FUNC 3bdd0 f1 0 google::protobuf::internal::RepeatedPtrFieldBase::MergeFromInternal
FUNC 3bec2 1c3 0 google::protobuf::internal::RepeatedPtrFieldBase::InternalSwap
FUNC 3c085 d 0 RawMessage::internal_default_instance
FUNC 3c092 2a 0 RawMessage::New
FUNC 3c0bc 11 0 RawMessage::GetCachedSize
FUNC 3c0cd d 0 AlarmMessage::internal_default_instance
FUNC 3c0da 2a 0 AlarmMessage::New
FUNC 3c104 11 0 AlarmMessage::GetCachedSize
FUNC 3c115 d 0 DebugRequest::internal_default_instance
FUNC 3c122 2a 0 DebugRequest::New
FUNC 3c14c 11 0 DebugRequest::GetCachedSize
FUNC 3c15d d 0 SOEMessage::internal_default_instance
FUNC 3c16a 2a 0 SOEMessage::New
FUNC 3c194 11 0 SOEMessage::GetCachedSize
FUNC 3c1a5 d 0 ControlRequet::internal_default_instance
FUNC 3c1b2 2a 0 ControlRequet::New
FUNC 3c1dc 11 0 ControlRequet::GetCachedSize
FUNC 3c1ed d 0 LogRequest::internal_default_instance
FUNC 3c1fa 2a 0 LogRequest::New
FUNC 3c224 11 0 LogRequest::GetCachedSize
FUNC 3c235 d 0 RealLogResponse::internal_default_instance
FUNC 3c242 2a 0 RealLogResponse::New
FUNC 3c26c 11 0 RealLogResponse::GetCachedSize
FUNC 3c27d d 0 LogQuery::internal_default_instance
FUNC 3c28a 2a 0 LogQuery::New
FUNC 3c2b4 11 0 LogQuery::GetCachedSize
FUNC 3c2c5 d 0 HisLogResponse::internal_default_instance
FUNC 3c2d2 2a 0 HisLogResponse::New
FUNC 3c2fc 11 0 HisLogResponse::GetCachedSize
FUNC 3c30d d 0 NetcardInfoRequest::internal_default_instance
FUNC 3c31a 2a 0 NetcardInfoRequest::New
FUNC 3c344 11 0 NetcardInfoRequest::GetCachedSize
FUNC 3c355 d 0 NetcardInfo::internal_default_instance
FUNC 3c362 2a 0 NetcardInfo::New
FUNC 3c38c 11 0 NetcardInfo::GetCachedSize
FUNC 3c39d d 0 NetcardInfoResponse::internal_default_instance
FUNC 3c3aa 2a 0 NetcardInfoResponse::New
FUNC 3c3d4 11 0 NetcardInfoResponse::GetCachedSize
FUNC 3c3e5 d 0 ProcessData::internal_default_instance
FUNC 3c3f2 2a 0 ProcessData::New
FUNC 3c41c 11 0 ProcessData::GetCachedSize
FUNC 3c42d d 0 ProcessCtrl::internal_default_instance
FUNC 3c43a 2a 0 ProcessCtrl::New
FUNC 3c464 11 0 ProcessCtrl::GetCachedSize
FUNC 3c475 d 0 RealPointValue::internal_default_instance
FUNC 3c482 2a 0 RealPointValue::New
FUNC 3c4ac 11 0 RealPointValue::GetCachedSize
FUNC 3c4bd d 0 HeartBeatMessage::internal_default_instance
FUNC 3c4ca 2a 0 HeartBeatMessage::New
FUNC 3c4f4 11 0 HeartBeatMessage::GetCachedSize
FUNC 3c505 d 0 CommunicationPair::internal_default_instance
FUNC 3c512 2a 0 CommunicationPair::New
FUNC 3c53c 11 0 CommunicationPair::GetCachedSize
FUNC 3c54d d 0 FlowThreshold::internal_default_instance
FUNC 3c55a 2a 0 FlowThreshold::New
FUNC 3c584 11 0 FlowThreshold::GetCachedSize
FUNC 3c595 d 0 RtdbMessage::internal_default_instance
FUNC 3c5a2 2a 0 RtdbMessage::New
FUNC 3c5cc 14 0 RtdbMessage::GetCachedSize
FUNC 3c5e0 f 0 RtdbMessage::GetArenaNoVirtual
FUNC 3c5f0 1e 0 RawMessage::data
FUNC 3c60e 26 0 RawMessage::mutable_data
FUNC 3c634 1e 0 RawMessage::filename
FUNC 3c652 26 0 RawMessage::mutable_filename
FUNC 3c678 11 0 RawMessage::startoffset
FUNC 3c68a 17 0 RawMessage::set_startoffset
FUNC 3c6a2 11 0 RawMessage::messagenumber
FUNC 3c6b4 17 0 RawMessage::set_messagenumber
FUNC 3c6cc 1e 0 AlarmMessage::type
FUNC 3c6ea 26 0 AlarmMessage::mutable_type
FUNC 3c710 1e 0 AlarmMessage::ethname
FUNC 3c72e 26 0 AlarmMessage::mutable_ethname
FUNC 3c754 1e 0 AlarmMessage::mac
FUNC 3c772 26 0 AlarmMessage::mutable_mac
FUNC 3c798 1e 0 AlarmMessage::ip
FUNC 3c7b6 26 0 AlarmMessage::mutable_ip
FUNC 3c7dc 11 0 AlarmMessage::time
FUNC 3c7ee 17 0 AlarmMessage::set_time
FUNC 3c806 11 0 AlarmMessage::port
FUNC 3c818 17 0 AlarmMessage::set_port
FUNC 3c830 11 0 AlarmMessage::alarmid
FUNC 3c842 17 0 AlarmMessage::set_alarmid
FUNC 3c85a 11 0 AlarmMessage::alarmstatus
FUNC 3c86c 17 0 AlarmMessage::set_alarmstatus
FUNC 3c884 1e 0 DebugRequest::address
FUNC 3c8a2 26 0 DebugRequest::mutable_address
FUNC 3c8c8 11 0 DebugRequest::time
FUNC 3c8da 17 0 DebugRequest::set_time
FUNC 3c8f2 11 0 DebugRequest::quality
FUNC 3c904 17 0 DebugRequest::set_quality
FUNC 3c91c 1e 0 SOEMessage::address
FUNC 3c93a 26 0 SOEMessage::mutable_address
FUNC 3c960 11 0 SOEMessage::time
FUNC 3c972 17 0 SOEMessage::set_time
FUNC 3c98a 11 0 SOEMessage::quality
FUNC 3c99c 17 0 SOEMessage::set_quality
FUNC 3c9b4 1e 0 ControlRequet::address
FUNC 3c9d2 26 0 ControlRequet::mutable_address
FUNC 3c9f8 1e 0 ControlRequet::errorinfo
FUNC 3ca16 26 0 ControlRequet::mutable_errorinfo
FUNC 3ca3c 12 0 ControlRequet::status
FUNC 3ca4e 1a 0 ControlRequet::set_status
FUNC 3ca68 1e 0 LogRequest::channelname
FUNC 3ca86 26 0 LogRequest::mutable_channelname
FUNC 3caac 11 0 LogRequest::command
FUNC 3cabe 17 0 LogRequest::set_command
FUNC 3cad6 11 0 RealLogResponse::type
FUNC 3cae8 17 0 RealLogResponse::set_type
FUNC 3cb00 11 0 RealLogResponse::level
FUNC 3cb12 17 0 RealLogResponse::set_level
FUNC 3cb2a 1e 0 RealLogResponse::channelname
FUNC 3cb48 26 0 RealLogResponse::mutable_channelname
FUNC 3cb6e 1e 0 RealLogResponse::devname
FUNC 3cb8c 26 0 RealLogResponse::mutable_devname
FUNC 3cbb2 12 0 RealLogResponse::logtime
FUNC 3cbc4 1a 0 RealLogResponse::set_logtime
FUNC 3cbde 1e 0 RealLogResponse::logdetail
FUNC 3cbfc 26 0 RealLogResponse::mutable_logdetail
FUNC 3cc22 11 0 LogQuery::level
FUNC 3cc34 17 0 LogQuery::set_level
FUNC 3cc4c 11 0 LogQuery::type
FUNC 3cc5e 17 0 LogQuery::set_type
FUNC 3cc76 12 0 LogQuery::starttime
FUNC 3cc88 1a 0 LogQuery::set_starttime
FUNC 3cca2 12 0 LogQuery::endtime
FUNC 3ccb4 1a 0 LogQuery::set_endtime
FUNC 3ccce 1e 0 LogQuery::channelname
FUNC 3ccec 26 0 LogQuery::mutable_channelname
FUNC 3cd12 1e 0 LogQuery::devname
FUNC 3cd30 26 0 LogQuery::mutable_devname
FUNC 3cd56 11 0 LogQuery::stopquery
FUNC 3cd68 17 0 LogQuery::set_stopquery
FUNC 3cd80 11 0 HisLogResponse::type
FUNC 3cd92 17 0 HisLogResponse::set_type
FUNC 3cdaa 11 0 HisLogResponse::level
FUNC 3cdbc 17 0 HisLogResponse::set_level
FUNC 3cdd4 1e 0 HisLogResponse::channelname
FUNC 3cdf2 26 0 HisLogResponse::mutable_channelname
FUNC 3ce18 1e 0 HisLogResponse::devname
FUNC 3ce36 26 0 HisLogResponse::mutable_devname
FUNC 3ce5c 12 0 HisLogResponse::logtime
FUNC 3ce6e 1a 0 HisLogResponse::set_logtime
FUNC 3ce88 1e 0 HisLogResponse::logdetail
FUNC 3cea6 26 0 HisLogResponse::mutable_logdetail
FUNC 3cecc 11 0 HisLogResponse::isend
FUNC 3cede 17 0 HisLogResponse::set_isend
FUNC 3cef6 1e 0 NetcardInfoRequest::value
FUNC 3cf14 26 0 NetcardInfoRequest::mutable_value
FUNC 3cf3a 1e 0 NetcardInfo::name
FUNC 3cf58 26 0 NetcardInfo::mutable_name
FUNC 3cf7e 1e 0 NetcardInfo::ip
FUNC 3cf9c 26 0 NetcardInfo::mutable_ip
FUNC 3cfc2 1e 0 NetcardInfo::mac
FUNC 3cfe0 26 0 NetcardInfo::mutable_mac
FUNC 3d006 1e 0 NetcardInfo::networktype
FUNC 3d024 26 0 NetcardInfo::mutable_networktype
FUNC 3d04a 1e 0 NetcardInfoResponse::netcardinfo_size
FUNC 3d068 26 0 NetcardInfoResponse::netcardinfo
FUNC 3d08e 1e 0 NetcardInfoResponse::add_netcardinfo
FUNC 3d0ac 1e 0 ProcessData::process_id
FUNC 3d0ca 26 0 ProcessData::mutable_process_id
FUNC 3d0f0 1e 0 ProcessData::process_path
FUNC 3d10e 26 0 ProcessData::mutable_process_path
FUNC 3d134 1e 0 ProcessData::process_name
FUNC 3d152 26 0 ProcessData::mutable_process_name
FUNC 3d178 11 0 ProcessData::start_time
FUNC 3d18a 17 0 ProcessData::set_start_time
FUNC 3d1a2 11 0 ProcessData::process_pid
FUNC 3d1b4 17 0 ProcessData::set_process_pid
FUNC 3d1cc 11 0 ProcessData::process_status
FUNC 3d1de 17 0 ProcessData::set_process_status
FUNC 3d1f6 11 0 ProcessData::heart_beat_time
FUNC 3d208 17 0 ProcessData::set_heart_beat_time
FUNC 3d220 19 0 ProcessData::cpu_use
FUNC 3d23a 19 0 ProcessData::set_cpu_use
FUNC 3d254 19 0 ProcessData::ram_use
FUNC 3d26e 19 0 ProcessData::set_ram_use
FUNC 3d288 11 0 ProcessData::restart_num
FUNC 3d29a 17 0 ProcessData::set_restart_num
FUNC 3d2b2 1e 0 ProcessCtrl::process_id
FUNC 3d2d0 26 0 ProcessCtrl::mutable_process_id
FUNC 3d2f6 11 0 ProcessCtrl::command
FUNC 3d308 17 0 ProcessCtrl::set_command
FUNC 3d320 1e 0 RealPointValue::channelname
FUNC 3d33e 26 0 RealPointValue::mutable_channelname
FUNC 3d364 1e 0 RealPointValue::devicename
FUNC 3d382 26 0 RealPointValue::mutable_devicename
FUNC 3d3a8 1e 0 RealPointValue::pointvalue
FUNC 3d3c6 26 0 RealPointValue::mutable_pointvalue
FUNC 3d3ec 1e 0 RealPointValue::pointaddr
FUNC 3d40a 26 0 RealPointValue::mutable_pointaddr
FUNC 3d430 11 0 RealPointValue::valuetype
FUNC 3d442 17 0 RealPointValue::set_valuetype
FUNC 3d45a 11 0 RealPointValue::channeltype
FUNC 3d46c 17 0 RealPointValue::set_channeltype
FUNC 3d484 1e 0 HeartBeatMessage::channelname
FUNC 3d4a2 26 0 HeartBeatMessage::mutable_channelname
FUNC 3d4c8 11 0 HeartBeatMessage::time
FUNC 3d4da 17 0 HeartBeatMessage::set_time
FUNC 3d4f2 1e 0 CommunicationPair::type
FUNC 3d510 26 0 CommunicationPair::mutable_type
FUNC 3d536 1e 0 CommunicationPair::source_ip
FUNC 3d554 26 0 CommunicationPair::mutable_source_ip
FUNC 3d57a 1e 0 CommunicationPair::source_mac
FUNC 3d598 26 0 CommunicationPair::mutable_source_mac
FUNC 3d5be 11 0 CommunicationPair::soure_port
FUNC 3d5d0 17 0 CommunicationPair::set_soure_port
FUNC 3d5e8 1e 0 CommunicationPair::dest_ip
FUNC 3d606 26 0 CommunicationPair::mutable_dest_ip
FUNC 3d62c 1e 0 CommunicationPair::dest_mac
FUNC 3d64a 26 0 CommunicationPair::mutable_dest_mac
FUNC 3d670 11 0 CommunicationPair::dest_port
FUNC 3d682 17 0 CommunicationPair::set_dest_port
FUNC 3d69a 11 0 CommunicationPair::netstatus
FUNC 3d6ac 17 0 CommunicationPair::set_netstatus
FUNC 3d6c4 1e 0 CommunicationPair::lasttime
FUNC 3d6e2 26 0 CommunicationPair::mutable_lasttime
FUNC 3d708 1e 0 CommunicationPair::eth_name
FUNC 3d726 26 0 CommunicationPair::mutable_eth_name
FUNC 3d74c 1e 0 CommunicationPair::conn_start_time
FUNC 3d76a 26 0 CommunicationPair::mutable_conn_start_time
FUNC 3d790 1e 0 CommunicationPair::conn_end_time
FUNC 3d7ae 26 0 CommunicationPair::mutable_conn_end_time
FUNC 3d7d4 1e 0 CommunicationPair::packagename
FUNC 3d7f2 26 0 CommunicationPair::mutable_packagename
FUNC 3d818 1e 0 CommunicationPair::packageline
FUNC 3d836 26 0 CommunicationPair::mutable_packageline
FUNC 3d85c 1e 0 FlowThreshold::messagecount
FUNC 3d87a 26 0 FlowThreshold::mutable_messagecount
FUNC 3d8a0 1e 0 FlowThreshold::flowmax
FUNC 3d8be 26 0 FlowThreshold::mutable_flowmax
FUNC 3d8e4 1e 0 FlowThreshold::noflowtime
FUNC 3d902 26 0 FlowThreshold::mutable_noflowtime
FUNC 3d928 1e 0 FlowThreshold::linkmax
FUNC 3d946 26 0 FlowThreshold::mutable_linkmax
FUNC 3d96c 11 0 RtdbMessage::fromobject
FUNC 3d97e 17 0 RtdbMessage::set_fromobject
FUNC 3d996 11 0 RtdbMessage::toobject
FUNC 3d9a8 17 0 RtdbMessage::set_toobject
FUNC 3d9c0 14 0 RtdbMessage::fromobjecttype
FUNC 3d9d4 1a 0 RtdbMessage::set_fromobjecttype
FUNC 3d9ee 14 0 RtdbMessage::toobjecttype
FUNC 3da02 1a 0 RtdbMessage::set_toobjecttype
FUNC 3da1c 14 0 RtdbMessage::messagetype
FUNC 3da30 1a 0 RtdbMessage::set_messagetype
FUNC 3da4a 14 0 RtdbMessage::transactionid
FUNC 3da5e 1a 0 RtdbMessage::set_transactionid
FUNC 3da78 32 0 RtdbMessage::has_logrequest
FUNC 3daaa 2a 0 RtdbMessage::logrequest
FUNC 3dad4 72 0 RtdbMessage::mutable_logrequest
FUNC 3db46 32 0 RtdbMessage::has_reallogresponse
FUNC 3db78 2a 0 RtdbMessage::reallogresponse
FUNC 3dba2 72 0 RtdbMessage::mutable_reallogresponse
FUNC 3dc14 32 0 RtdbMessage::has_hislogquery
FUNC 3dc46 2a 0 RtdbMessage::hislogquery
FUNC 3dc70 72 0 RtdbMessage::mutable_hislogquery
FUNC 3dce2 32 0 RtdbMessage::has_hislogresponse
FUNC 3dd14 2a 0 RtdbMessage::hislogresponse
FUNC 3dd3e 72 0 RtdbMessage::mutable_hislogresponse
FUNC 3ddb0 32 0 RtdbMessage::has_netcardinforequest
FUNC 3dde2 2a 0 RtdbMessage::netcardinforequest
FUNC 3de0c 72 0 RtdbMessage::mutable_netcardinforequest
FUNC 3de7e 32 0 RtdbMessage::has_netcardinforesponse
FUNC 3deb0 2a 0 RtdbMessage::netcardinforesponse
FUNC 3deda 72 0 RtdbMessage::mutable_netcardinforesponse
FUNC 3df4c 32 0 RtdbMessage::has_processdata
FUNC 3df7e 2a 0 RtdbMessage::processdata
FUNC 3dfa8 72 0 RtdbMessage::mutable_processdata
FUNC 3e01a 32 0 RtdbMessage::has_processctrl
FUNC 3e04c 2a 0 RtdbMessage::processctrl
FUNC 3e076 72 0 RtdbMessage::mutable_processctrl
FUNC 3e0e8 32 0 RtdbMessage::has_realpointvalue
FUNC 3e11a 2a 0 RtdbMessage::realpointvalue
FUNC 3e144 72 0 RtdbMessage::mutable_realpointvalue
FUNC 3e1b6 32 0 RtdbMessage::has_heartbeatmessage
FUNC 3e1e8 2a 0 RtdbMessage::heartbeatmessage
FUNC 3e212 72 0 RtdbMessage::mutable_heartbeatmessage
FUNC 3e284 32 0 RtdbMessage::has_alarmmessage
FUNC 3e2b6 2a 0 RtdbMessage::alarmmessage
FUNC 3e2e0 72 0 RtdbMessage::mutable_alarmmessage
FUNC 3e352 32 0 RtdbMessage::has_communicationpair
FUNC 3e384 2a 0 RtdbMessage::communicationpair
FUNC 3e3ae 72 0 RtdbMessage::mutable_communicationpair
FUNC 3e420 32 0 RtdbMessage::has_flowthreshold
FUNC 3e452 2a 0 RtdbMessage::flowthreshold
FUNC 3e47c 72 0 RtdbMessage::mutable_flowthreshold
FUNC 3e4ee f 0 google::protobuf::internal::WireFormatLite::GetTagWireType
FUNC 3e4fe f 0 google::protobuf::internal::WireFormatLite::GetTagFieldNumber
FUNC 3e50e 1a 0 google::protobuf::internal::WireFormatLite::DecodeFloat
FUNC 3e528 25 0 google::protobuf::internal::WireFormatLite::ReadString
FUNC 3e54e 43 0 google::protobuf::internal::WireFormatLite::ReadPrimitive<int, (google::protobuf::internal::WireFormatLite::FieldType)5u>
FUNC 3e592 25 0 google::protobuf::internal::WireFormatLite::ReadPrimitive<long unsigned int, (google::protobuf::internal::WireFormatLite::FieldType)4u>
FUNC 3e5b8 4a 0 google::protobuf::internal::WireFormatLite::ReadPrimitive<float, (google::protobuf::internal::WireFormatLite::FieldType)2u>
FUNC 3e602 48 0 google::protobuf::internal::WireFormatLite::ReadPrimitive<bool, (google::protobuf::internal::WireFormatLite::FieldType)8u>
FUNC 3e64a 43 0 google::protobuf::internal::WireFormatLite::ReadPrimitive<int, (google::protobuf::internal::WireFormatLite::FieldType)14u>
FUNC 3e68e 17 0 google::protobuf::internal::WireFormatLite::Int32Size
FUNC 3e6a6 1a 0 google::protobuf::internal::WireFormatLite::UInt64Size
FUNC 3e6c0 17 0 google::protobuf::internal::WireFormatLite::EnumSize
FUNC 3e6d8 22 0 google::protobuf::internal::WireFormatLite::StringSize
FUNC 3e6fa 1d 0 google::protobuf::internal::WireFormatLite::LengthDelimitedSize
FUNC 3e718 1a 0 google::protobuf::internal::InternalMetadataWithArenaLite::~InternalMetadataWithArenaLite
FUNC 3e732 32 0 std::swap<std::string*>
FUNC 3e764 e 0 google::protobuf::internal::ExplicitlyConstructed<std::basic_string<char, std::char_traits<char>, std::allocator<char> > >::get
FUNC 3e772 1a 0 google::protobuf::internal::InternalMetadataWithArenaBase<std::basic_string<char, std::char_traits<char>, std::allocator<char> >, google::protobuf::internal::InternalMetadataWithArenaLite>::Container::~Container
FUNC 3e78c cf 0 google::protobuf::internal::InternalMetadataWithArenaBase<std::basic_string<char, std::char_traits<char>, std::allocator<char> >, google::protobuf::internal::InternalMetadataWithArenaLite>::~InternalMetadataWithArenaBase
FUNC 3e85c 19 0 google::protobuf::internal::InternalMetadataWithArenaBase<std::basic_string<char, std::char_traits<char>, std::allocator<char> >, google::protobuf::internal::InternalMetadataWithArenaLite>::InternalMetadataWithArenaBase
FUNC 3e875 32 0 std::swap<google::protobuf::internal::RepeatedPtrFieldBase::Rep*>
FUNC 3e8a7 2c 0 std::swap<int>
FUNC 3e8d4 1a 0 google::protobuf::RepeatedPtrField<NetcardInfo>::size
FUNC 3e8ee 1a 0 google::protobuf::RepeatedPtrField<NetcardInfo>::Clear
FUNC 3e908 22 0 google::protobuf::RepeatedPtrField<NetcardInfo>::Get
FUNC 3e92a 1f 0 google::protobuf::RepeatedPtrField<NetcardInfo>::Add
FUNC 3e94a 39 0 google::protobuf::internal::ExplicitlyConstructed<RawMessage>::Shutdown
FUNC 3e984 39 0 google::protobuf::internal::ExplicitlyConstructed<AlarmMessage>::Shutdown
FUNC 3e9be 39 0 google::protobuf::internal::ExplicitlyConstructed<DebugRequest>::Shutdown
FUNC 3e9f8 39 0 google::protobuf::internal::ExplicitlyConstructed<SOEMessage>::Shutdown
FUNC 3ea32 39 0 google::protobuf::internal::ExplicitlyConstructed<ControlRequet>::Shutdown
FUNC 3ea6c 39 0 google::protobuf::internal::ExplicitlyConstructed<LogRequest>::Shutdown
FUNC 3eaa6 39 0 google::protobuf::internal::ExplicitlyConstructed<RealLogResponse>::Shutdown
FUNC 3eae0 39 0 google::protobuf::internal::ExplicitlyConstructed<LogQuery>::Shutdown
FUNC 3eb1a 39 0 google::protobuf::internal::ExplicitlyConstructed<HisLogResponse>::Shutdown
FUNC 3eb54 39 0 google::protobuf::internal::ExplicitlyConstructed<NetcardInfoRequest>::Shutdown
FUNC 3eb8e 39 0 google::protobuf::internal::ExplicitlyConstructed<NetcardInfo>::Shutdown
FUNC 3ebc8 39 0 google::protobuf::internal::ExplicitlyConstructed<NetcardInfoResponse>::Shutdown
FUNC 3ec02 39 0 google::protobuf::internal::ExplicitlyConstructed<ProcessData>::Shutdown
FUNC 3ec3c 39 0 google::protobuf::internal::ExplicitlyConstructed<ProcessCtrl>::Shutdown
FUNC 3ec76 39 0 google::protobuf::internal::ExplicitlyConstructed<RealPointValue>::Shutdown
FUNC 3ecb0 39 0 google::protobuf::internal::ExplicitlyConstructed<HeartBeatMessage>::Shutdown
FUNC 3ecea 39 0 google::protobuf::internal::ExplicitlyConstructed<CommunicationPair>::Shutdown
FUNC 3ed24 39 0 google::protobuf::internal::ExplicitlyConstructed<FlowThreshold>::Shutdown
FUNC 3ed5e 3f 0 google::protobuf::internal::ExplicitlyConstructed<RtdbMessage>::Shutdown
FUNC 3ed9e 70 0 google::protobuf::internal::ExplicitlyConstructed<RawMessage>::DefaultConstruct
FUNC 3ee0e 70 0 google::protobuf::internal::ExplicitlyConstructed<AlarmMessage>::DefaultConstruct
FUNC 3ee7e 70 0 google::protobuf::internal::ExplicitlyConstructed<DebugRequest>::DefaultConstruct
FUNC 3eeee 70 0 google::protobuf::internal::ExplicitlyConstructed<SOEMessage>::DefaultConstruct
FUNC 3ef5e 70 0 google::protobuf::internal::ExplicitlyConstructed<ControlRequet>::DefaultConstruct
FUNC 3efce 70 0 google::protobuf::internal::ExplicitlyConstructed<LogRequest>::DefaultConstruct
FUNC 3f03e 70 0 google::protobuf::internal::ExplicitlyConstructed<RealLogResponse>::DefaultConstruct
FUNC 3f0ae 70 0 google::protobuf::internal::ExplicitlyConstructed<LogQuery>::DefaultConstruct
FUNC 3f11e 70 0 google::protobuf::internal::ExplicitlyConstructed<HisLogResponse>::DefaultConstruct
FUNC 3f18e 70 0 google::protobuf::internal::ExplicitlyConstructed<NetcardInfoRequest>::DefaultConstruct
FUNC 3f1fe 70 0 google::protobuf::internal::ExplicitlyConstructed<NetcardInfo>::DefaultConstruct
FUNC 3f26e 70 0 google::protobuf::internal::ExplicitlyConstructed<NetcardInfoResponse>::DefaultConstruct
FUNC 3f2de 70 0 google::protobuf::internal::ExplicitlyConstructed<ProcessData>::DefaultConstruct
FUNC 3f34e 70 0 google::protobuf::internal::ExplicitlyConstructed<ProcessCtrl>::DefaultConstruct
FUNC 3f3be 70 0 google::protobuf::internal::ExplicitlyConstructed<RealPointValue>::DefaultConstruct
FUNC 3f42e 70 0 google::protobuf::internal::ExplicitlyConstructed<HeartBeatMessage>::DefaultConstruct
FUNC 3f49e 70 0 google::protobuf::internal::ExplicitlyConstructed<CommunicationPair>::DefaultConstruct
FUNC 3f50e 70 0 google::protobuf::internal::ExplicitlyConstructed<FlowThreshold>::DefaultConstruct
FUNC 3f57e 73 0 google::protobuf::internal::ExplicitlyConstructed<RtdbMessage>::DefaultConstruct
FUNC 3f5f2 e 0 google::protobuf::internal::ExplicitlyConstructed<RtdbMessage>::get_mutable
FUNC 3f600 43 0 google::protobuf::Arena::Own<RawMessage>
FUNC 3f643 6a 0 google::protobuf::internal::down_cast<const RawMessage*, const google::protobuf::MessageLite>
FUNC 3f6ae 43 0 google::protobuf::Arena::Own<AlarmMessage>
FUNC 3f6f1 6a 0 google::protobuf::internal::down_cast<const AlarmMessage*, const google::protobuf::MessageLite>
FUNC 3f75c 43 0 google::protobuf::Arena::Own<DebugRequest>
FUNC 3f79f 6a 0 google::protobuf::internal::down_cast<const DebugRequest*, const google::protobuf::MessageLite>
FUNC 3f80a 43 0 google::protobuf::Arena::Own<SOEMessage>
FUNC 3f84d 6a 0 google::protobuf::internal::down_cast<const SOEMessage*, const google::protobuf::MessageLite>
FUNC 3f8b8 43 0 google::protobuf::Arena::Own<ControlRequet>
FUNC 3f8fb 6a 0 google::protobuf::internal::down_cast<const ControlRequet*, const google::protobuf::MessageLite>
FUNC 3f965 2f 0 std::swap<bool>
FUNC 3f994 43 0 google::protobuf::Arena::Own<LogRequest>
FUNC 3f9d7 6a 0 google::protobuf::internal::down_cast<const LogRequest*, const google::protobuf::MessageLite>
FUNC 3fa42 43 0 google::protobuf::Arena::Own<RealLogResponse>
FUNC 3fa85 6a 0 google::protobuf::internal::down_cast<const RealLogResponse*, const google::protobuf::MessageLite>
FUNC 3faef 32 0 std::swap<google::protobuf::uint64>
FUNC 3fb22 43 0 google::protobuf::Arena::Own<LogQuery>
FUNC 3fb65 6a 0 google::protobuf::internal::down_cast<const LogQuery*, const google::protobuf::MessageLite>
FUNC 3fbd0 43 0 google::protobuf::Arena::Own<HisLogResponse>
FUNC 3fc13 6a 0 google::protobuf::internal::down_cast<const HisLogResponse*, const google::protobuf::MessageLite>
FUNC 3fc7e 43 0 google::protobuf::Arena::Own<NetcardInfoRequest>
FUNC 3fcc1 6a 0 google::protobuf::internal::down_cast<const NetcardInfoRequest*, const google::protobuf::MessageLite>
FUNC 3fd2c 43 0 google::protobuf::Arena::Own<NetcardInfo>
FUNC 3fd6f 6a 0 google::protobuf::internal::down_cast<const NetcardInfo*, const google::protobuf::MessageLite>
FUNC 3fdda 1a 0 google::protobuf::RepeatedPtrField<NetcardInfo>::RepeatedPtrField
FUNC 3fdf4 51 0 google::protobuf::RepeatedPtrField<NetcardInfo>::~RepeatedPtrField
FUNC 3fe46 5c 0 google::protobuf::RepeatedPtrField<NetcardInfo>::RepeatedPtrField
FUNC 3fea2 43 0 google::protobuf::Arena::Own<NetcardInfoResponse>
FUNC 3fee6 91 0 google::protobuf::internal::WireFormatLite::ReadMessageNoVirtual<NetcardInfo>
FUNC 3ff78 22 0 google::protobuf::internal::WireFormatLite::MessageSizeNoVirtual<NetcardInfo>
FUNC 3ff9a 6a 0 google::protobuf::internal::down_cast<const NetcardInfoResponse*, const google::protobuf::MessageLite>
FUNC 40004 25 0 google::protobuf::RepeatedPtrField<NetcardInfo>::MergeFrom
FUNC 4002a 43 0 google::protobuf::Arena::Own<ProcessData>
FUNC 4006d 6a 0 google::protobuf::internal::down_cast<const ProcessData*, const google::protobuf::MessageLite>
FUNC 400d7 2c 0 std::swap<float>
FUNC 40104 43 0 google::protobuf::Arena::Own<ProcessCtrl>
FUNC 40147 6a 0 google::protobuf::internal::down_cast<const ProcessCtrl*, const google::protobuf::MessageLite>
FUNC 401b2 43 0 google::protobuf::Arena::Own<RealPointValue>
FUNC 401f5 6a 0 google::protobuf::internal::down_cast<const RealPointValue*, const google::protobuf::MessageLite>
FUNC 40260 43 0 google::protobuf::Arena::Own<HeartBeatMessage>
FUNC 402a3 6a 0 google::protobuf::internal::down_cast<const HeartBeatMessage*, const google::protobuf::MessageLite>
FUNC 4030e 43 0 google::protobuf::Arena::Own<CommunicationPair>
FUNC 40351 6a 0 google::protobuf::internal::down_cast<const CommunicationPair*, const google::protobuf::MessageLite>
FUNC 403bc 43 0 google::protobuf::Arena::Own<FlowThreshold>
FUNC 403ff 6a 0 google::protobuf::internal::down_cast<const FlowThreshold*, const google::protobuf::MessageLite>
FUNC 4046a 43 0 google::protobuf::Arena::Own<RtdbMessage>
FUNC 404ae 91 0 google::protobuf::internal::WireFormatLite::ReadMessageNoVirtual<LogRequest>
FUNC 40540 91 0 google::protobuf::internal::WireFormatLite::ReadMessageNoVirtual<RealLogResponse>
FUNC 405d2 91 0 google::protobuf::internal::WireFormatLite::ReadMessageNoVirtual<LogQuery>
FUNC 40664 91 0 google::protobuf::internal::WireFormatLite::ReadMessageNoVirtual<HisLogResponse>
FUNC 406f6 91 0 google::protobuf::internal::WireFormatLite::ReadMessageNoVirtual<NetcardInfoRequest>
FUNC 40788 91 0 google::protobuf::internal::WireFormatLite::ReadMessageNoVirtual<NetcardInfoResponse>
FUNC 4081a 91 0 google::protobuf::internal::WireFormatLite::ReadMessageNoVirtual<ProcessData>
FUNC 408ac 91 0 google::protobuf::internal::WireFormatLite::ReadMessageNoVirtual<ProcessCtrl>
FUNC 4093e 91 0 google::protobuf::internal::WireFormatLite::ReadMessageNoVirtual<RealPointValue>
FUNC 409d0 91 0 google::protobuf::internal::WireFormatLite::ReadMessageNoVirtual<HeartBeatMessage>
FUNC 40a62 91 0 google::protobuf::internal::WireFormatLite::ReadMessageNoVirtual<AlarmMessage>
FUNC 40af4 91 0 google::protobuf::internal::WireFormatLite::ReadMessageNoVirtual<CommunicationPair>
FUNC 40b86 91 0 google::protobuf::internal::WireFormatLite::ReadMessageNoVirtual<FlowThreshold>
FUNC 40c18 22 0 google::protobuf::internal::WireFormatLite::MessageSizeNoVirtual<LogRequest>
FUNC 40c3a 22 0 google::protobuf::internal::WireFormatLite::MessageSizeNoVirtual<RealLogResponse>
FUNC 40c5c 22 0 google::protobuf::internal::WireFormatLite::MessageSizeNoVirtual<LogQuery>
FUNC 40c7e 22 0 google::protobuf::internal::WireFormatLite::MessageSizeNoVirtual<HisLogResponse>
FUNC 40ca0 22 0 google::protobuf::internal::WireFormatLite::MessageSizeNoVirtual<NetcardInfoRequest>
FUNC 40cc2 22 0 google::protobuf::internal::WireFormatLite::MessageSizeNoVirtual<NetcardInfoResponse>
FUNC 40ce4 22 0 google::protobuf::internal::WireFormatLite::MessageSizeNoVirtual<ProcessData>
FUNC 40d06 22 0 google::protobuf::internal::WireFormatLite::MessageSizeNoVirtual<ProcessCtrl>
FUNC 40d28 22 0 google::protobuf::internal::WireFormatLite::MessageSizeNoVirtual<RealPointValue>
FUNC 40d4a 22 0 google::protobuf::internal::WireFormatLite::MessageSizeNoVirtual<HeartBeatMessage>
FUNC 40d6c 22 0 google::protobuf::internal::WireFormatLite::MessageSizeNoVirtual<AlarmMessage>
FUNC 40d8e 22 0 google::protobuf::internal::WireFormatLite::MessageSizeNoVirtual<CommunicationPair>
FUNC 40db0 22 0 google::protobuf::internal::WireFormatLite::MessageSizeNoVirtual<FlowThreshold>
FUNC 40dd2 6a 0 google::protobuf::internal::down_cast<const RtdbMessage*, const google::protobuf::MessageLite>
FUNC 40e3c 32 0 std::swap<LogRequest*>
FUNC 40e6e 32 0 std::swap<RealLogResponse*>
FUNC 40ea0 32 0 std::swap<LogQuery*>
FUNC 40ed2 32 0 std::swap<HisLogResponse*>
FUNC 40f04 32 0 std::swap<NetcardInfoRequest*>
FUNC 40f36 32 0 std::swap<NetcardInfoResponse*>
FUNC 40f68 32 0 std::swap<ProcessData*>
FUNC 40f9a 32 0 std::swap<ProcessCtrl*>
FUNC 40fcc 32 0 std::swap<RealPointValue*>
FUNC 40ffe 32 0 std::swap<HeartBeatMessage*>
FUNC 41030 32 0 std::swap<AlarmMessage*>
FUNC 41062 32 0 std::swap<CommunicationPair*>
FUNC 41094 32 0 std::swap<FlowThreshold*>
FUNC 410c6 2d 0 std::make_pair<unsigned int, bool>
FUNC 410f4 15 0 google::protobuf::internal::InternalMetadataWithArenaBase<std::basic_string<char, std::char_traits<char>, std::allocator<char> >, google::protobuf::internal::InternalMetadataWithArenaLite>::PtrValue<google::protobuf::internal::InternalMetadataWithArenaBase<std::basic_string<char, std::char_traits<char>, std::allocator<char> >, google::protobuf::internal::InternalMetadataWithArenaLite>::Container>
FUNC 4110a 1ae 0 google::protobuf::internal::InternalMetadataWithArenaBase<std::basic_string<char, std::char_traits<char>, std::allocator<char> >, google::protobuf::internal::InternalMetadataWithArenaLite>::mutable_unknown_fields_slow
FUNC 412b8 107 0 google::protobuf::internal::RepeatedPtrFieldBase::Clear<google::protobuf::RepeatedPtrField<NetcardInfo>::TypeHandler>
FUNC 413c0 165 0 google::protobuf::internal::RepeatedPtrFieldBase::Get<google::protobuf::RepeatedPtrField<NetcardInfo>::TypeHandler>
FUNC 41526 f4 0 google::protobuf::internal::RepeatedPtrFieldBase::Add<google::protobuf::RepeatedPtrField<NetcardInfo>::TypeHandler>
FUNC 4161a e 0 google::protobuf::internal::ExplicitlyConstructed<RawMessage>::get_mutable
FUNC 41628 e 0 google::protobuf::internal::ExplicitlyConstructed<AlarmMessage>::get_mutable
FUNC 41636 e 0 google::protobuf::internal::ExplicitlyConstructed<DebugRequest>::get_mutable
FUNC 41644 e 0 google::protobuf::internal::ExplicitlyConstructed<SOEMessage>::get_mutable
FUNC 41652 e 0 google::protobuf::internal::ExplicitlyConstructed<ControlRequet>::get_mutable
FUNC 41660 e 0 google::protobuf::internal::ExplicitlyConstructed<LogRequest>::get_mutable
FUNC 4166e e 0 google::protobuf::internal::ExplicitlyConstructed<RealLogResponse>::get_mutable
FUNC 4167c e 0 google::protobuf::internal::ExplicitlyConstructed<LogQuery>::get_mutable
FUNC 4168a e 0 google::protobuf::internal::ExplicitlyConstructed<HisLogResponse>::get_mutable
FUNC 41698 e 0 google::protobuf::internal::ExplicitlyConstructed<NetcardInfoRequest>::get_mutable
FUNC 416a6 e 0 google::protobuf::internal::ExplicitlyConstructed<NetcardInfo>::get_mutable
FUNC 416b4 e 0 google::protobuf::internal::ExplicitlyConstructed<NetcardInfoResponse>::get_mutable
FUNC 416c2 e 0 google::protobuf::internal::ExplicitlyConstructed<ProcessData>::get_mutable
FUNC 416d0 e 0 google::protobuf::internal::ExplicitlyConstructed<ProcessCtrl>::get_mutable
FUNC 416de e 0 google::protobuf::internal::ExplicitlyConstructed<RealPointValue>::get_mutable
FUNC 416ec e 0 google::protobuf::internal::ExplicitlyConstructed<HeartBeatMessage>::get_mutable
FUNC 416fa e 0 google::protobuf::internal::ExplicitlyConstructed<CommunicationPair>::get_mutable
FUNC 41708 e 0 google::protobuf::internal::ExplicitlyConstructed<FlowThreshold>::get_mutable
FUNC 41716 9f 0 google::protobuf::internal::RepeatedPtrFieldBase::Destroy<google::protobuf::RepeatedPtrField<NetcardInfo>::TypeHandler>
FUNC 417b6 e8 0 google::protobuf::internal::RepeatedPtrFieldBase::MergeFrom<google::protobuf::RepeatedPtrField<NetcardInfo>::TypeHandler>
FUNC 4189e 2c 0 std::pair<unsigned int, bool>::pair
FUNC 418ca 15 0 google::protobuf::internal::InternalMetadataWithArenaBase<std::basic_string<char, std::char_traits<char>, std::allocator<char> >, google::protobuf::internal::InternalMetadataWithArenaLite>::PtrValue<google::protobuf::Arena>
FUNC 418e0 1a 0 google::protobuf::internal::InternalMetadataWithArenaBase<std::basic_string<char, std::char_traits<char>, std::allocator<char> >, google::protobuf::internal::InternalMetadataWithArenaLite>::Container::Container
FUNC 418fa 25 0 google::protobuf::internal::GenericTypeHandler<NetcardInfo>::Clear
FUNC 4191f e 0 google::protobuf::internal::RepeatedPtrFieldBase::cast<google::protobuf::RepeatedPtrField<NetcardInfo>::TypeHandler>
FUNC 4192e 1e 0 google::protobuf::internal::GenericTypeHandler<NetcardInfo>::NewFromPrototype
FUNC 4194c 2e 0 google::protobuf::internal::arena_delete_object<RawMessage>
FUNC 4197a 2e 0 google::protobuf::internal::arena_delete_object<AlarmMessage>
FUNC 419a8 2e 0 google::protobuf::internal::arena_delete_object<DebugRequest>
FUNC 419d6 2e 0 google::protobuf::internal::arena_delete_object<SOEMessage>
FUNC 41a04 2e 0 google::protobuf::internal::arena_delete_object<ControlRequet>
FUNC 41a32 2e 0 google::protobuf::internal::arena_delete_object<LogRequest>
FUNC 41a60 2e 0 google::protobuf::internal::arena_delete_object<RealLogResponse>
FUNC 41a8e 2e 0 google::protobuf::internal::arena_delete_object<LogQuery>
FUNC 41abc 2e 0 google::protobuf::internal::arena_delete_object<HisLogResponse>
FUNC 41aea 2e 0 google::protobuf::internal::arena_delete_object<NetcardInfoRequest>
FUNC 41b18 2e 0 google::protobuf::internal::arena_delete_object<NetcardInfo>
FUNC 41b46 37 0 google::protobuf::internal::GenericTypeHandler<NetcardInfo>::Delete
FUNC 41b7d 2e 0 google::protobuf::internal::arena_delete_object<NetcardInfoResponse>
FUNC 41bac 100 0 google::protobuf::internal::RepeatedPtrFieldBase::MergeFromInnerLoop<google::protobuf::RepeatedPtrField<NetcardInfo>::TypeHandler>
FUNC 41cac 2e 0 google::protobuf::internal::arena_delete_object<ProcessData>
FUNC 41cda 2e 0 google::protobuf::internal::arena_delete_object<ProcessCtrl>
FUNC 41d08 2e 0 google::protobuf::internal::arena_delete_object<RealPointValue>
FUNC 41d36 2e 0 google::protobuf::internal::arena_delete_object<HeartBeatMessage>
FUNC 41d64 2e 0 google::protobuf::internal::arena_delete_object<CommunicationPair>
FUNC 41d92 2e 0 google::protobuf::internal::arena_delete_object<FlowThreshold>
FUNC 41dc0 2e 0 google::protobuf::internal::arena_delete_object<RtdbMessage>
FUNC 41dee 11b 0 google::protobuf::internal::GenericTypeHandler<NetcardInfo>::New
FUNC 41f0a 25 0 google::protobuf::internal::GenericTypeHandler<NetcardInfo>::Merge
FUNC 41f2f 1a 0 google::protobuf::internal::arena_destruct_object<google::protobuf::internal::InternalMetadataWithArenaBase<std::basic_string<char, std::char_traits<char>, std::allocator<char> >, google::protobuf::internal::InternalMetadataWithArenaLite>::Container>
FUNC 41f49 21 0 google::protobuf::internal::arena_destruct_object<NetcardInfo>
FUNC 41f6c 2c 0 Serial485ClientService::Serial485ClientService
FUNC 41f98 41 0 Serial485ClientService::~Serial485ClientService
FUNC 41fda 26 0 Serial485ClientService::~Serial485ClientService
FUNC 42000 141 0 Serial485ClientService::Start
FUNC 42142 385 0 Serial485ClientService::Read
FUNC 424c7 14a 0 __static_initialization_and_destruction_0
FUNC 42611 15 0 _GLOBAL__I_Serial485ClientService.cpp
FUNC 42628 109 0 SerialNet::SerialNet
FUNC 42732 e3 0 SerialNet::~SerialNet
FUNC 42816 26 0 SerialNet::~SerialNet
FUNC 4283c 485 0 SerialNet::Connect
FUNC 42cc2 af 0 SerialNet::GetFunction
FUNC 42d72 312 0 SerialNet::Read
FUNC 43084 b3 0 SerialNet::Write
FUNC 43138 2c 0 SerialNet::DisConnect
FUNC 43164 2b2 0 SerialNet::SetSpeed
FUNC 43416 35a 0 SerialNet::SetParity
FUNC 43770 42 0 SerialNet::SumCheck
FUNC 437b2 112 0 SerialNet::ToHexString
FUNC 438c4 48 0 __static_initialization_and_destruction_0
FUNC 4390c 15 0 _GLOBAL__I_SerialNet.cpp
FUNC 43924 cd 0 SerialService::SerialService
FUNC 439f2 b1 0 SerialService::~SerialService
FUNC 43aa4 26 0 SerialService::~SerialService
FUNC 43aca 221 0 SerialService::Start
FUNC 43cec 67e 0 SerialService::Write
FUNC 4436a 57d 0 SerialService::Read
FUNC 448e8 9c 0 SerialService::ParseRecvData
FUNC 44984 b0 0 SerialService::ParseFixedData
FUNC 44a34 213 0 SerialService::ParseVariableData
FUNC 44c48 189 0 SerialService::InitConfig
FUNC 44dd1 14a 0 __static_initialization_and_destruction_0
FUNC 44f1b 15 0 _GLOBAL__I_SerialService.cpp
FUNC 44f30 33 0 Config::GetSerialPortPath
FUNC 44f64 11 0 Config::GetSpeed
FUNC 44f76 11 0 Config::GetDatabits
FUNC 44f88 11 0 Config::GetStopbits
FUNC 44f9a 12 0 Config::GetParity
FUNC 44fac 12 0 Config::GetClientAddr
FUNC 44fbe 33 0 Config::GetIp
FUNC 44ff2 12 0 Config::GetTcpPort
FUNC 45004 15 0 Config::GetOutTime
FUNC 4501a 1a 0 std::vector<char, std::allocator<char> >::vector
FUNC 45034 6e 0 std::vector<char, std::allocator<char> >::~vector
FUNC 450a2 229 0 std::vector<char, std::allocator<char> >::operator=
FUNC 452cc 11 0 std::vector<char, std::allocator<char> >::data
FUNC 452de 25 0 std::vector<char, std::allocator<char> >::size
FUNC 45304 1f 0 std::vector<short unsigned int, std::allocator<short unsigned int> >::operator[]
FUNC 45324 1a 0 std::_Vector_base<char, std::allocator<char> >::_Vector_impl::~_Vector_impl
FUNC 4533e 1a 0 std::_Vector_base<char, std::allocator<char> >::_Vector_base
FUNC 45358 79 0 std::_Vector_base<char, std::allocator<char> >::~_Vector_base
FUNC 453d2 e 0 std::_Vector_base<char, std::allocator<char> >::_M_get_Tp_allocator
FUNC 453e0 29 0 std::_Destroy<char*, char>
FUNC 4540a 25 0 std::vector<char, std::allocator<char> >::capacity
FUNC 45430 30 0 std::vector<char, std::allocator<char> >::begin
FUNC 45460 31 0 std::vector<char, std::allocator<char> >::end
FUNC 45492 a1 0 std::vector<char, std::allocator<char> >::_M_allocate_and_copy<__gnu_cxx::__normal_iterator<const char*, std::vector<char, std::allocator<char> > > >
FUNC 45534 34 0 std::_Vector_base<char, std::allocator<char> >::_M_deallocate
FUNC 45568 25 0 std::vector<char, std::allocator<char> >::begin
FUNC 4558d 46 0 std::copy<__gnu_cxx::__normal_iterator<const char*, std::vector<char, std::allocator<char> > >, __gnu_cxx::__normal_iterator<char*, std::vector<char, std::allocator<char> > > >
FUNC 455d4 29 0 std::vector<char, std::allocator<char> >::end
FUNC 455fd 29 0 std::_Destroy<__gnu_cxx::__normal_iterator<char*, std::vector<char, std::allocator<char> > >, char>
FUNC 45626 46 0 std::copy<char*, char*>
FUNC 4566c 31 0 std::__uninitialized_copy_a<char*, char*, char>
FUNC 4569e 3d 0 std::_Vector_base<char, std::allocator<char> >::_Vector_impl::_Vector_impl
FUNC 456db 25 0 std::_Destroy<char*>
FUNC 45700 1c 0 __gnu_cxx::__normal_iterator<const char*, std::vector<char, std::allocator<char> > >::__normal_iterator
FUNC 4571c 38 0 std::_Vector_base<char, std::allocator<char> >::_M_allocate
FUNC 45754 31 0 std::__uninitialized_copy_a<__gnu_cxx::__normal_iterator<const char*, std::vector<char, std::allocator<char> > >, char*, char>
FUNC 45786 22 0 __gnu_cxx::new_allocator<char>::deallocate
FUNC 457a8 1c 0 __gnu_cxx::__normal_iterator<char*, std::vector<char, std::allocator<char> > >::__normal_iterator
FUNC 457c4 e 0 std::__miter_base<__gnu_cxx::__normal_iterator<const char*, std::vector<char, std::allocator<char> > >, false>::__b
FUNC 457d2 73 0 std::__copy_move_a2<false, __gnu_cxx::__normal_iterator<const char*, std::vector<char, std::allocator<char> > >, __gnu_cxx::__normal_iterator<char*, std::vector<char, std::allocator<char> > > >
FUNC 45845 25 0 std::_Destroy<__gnu_cxx::__normal_iterator<char*, std::vector<char, std::allocator<char> > > >
FUNC 4586a e 0 std::__miter_base<char*, false>::__b
FUNC 45878 58 0 std::__copy_move_a2<false, char*, char*>
FUNC 458d0 2d 0 std::uninitialized_copy<char*, char*>
FUNC 458fd e 0 std::_Destroy_aux<true>::__destroy<char*>
FUNC 4590c 47 0 __gnu_cxx::new_allocator<char>::allocate
FUNC 45953 2d 0 std::uninitialized_copy<__gnu_cxx::__normal_iterator<const char*, std::vector<char, std::allocator<char> > >, char*>
FUNC 45980 1d 0 std::__niter_base<__gnu_cxx::__normal_iterator<const char*, std::vector<char, std::allocator<char> > >, true>::__b
FUNC 4599d 1d 0 std::__niter_base<__gnu_cxx::__normal_iterator<char*, std::vector<char, std::allocator<char> > >, true>::__b
FUNC 459ba 31 0 std::__copy_move_a<false, const char*, char*>
FUNC 459eb e 0 std::_Destroy_aux<true>::__destroy<__gnu_cxx::__normal_iterator<char*, std::vector<char, std::allocator<char> > > >
FUNC 459f9 e 0 std::__niter_base<char*, false>::__b
FUNC 45a07 31 0 std::__copy_move_a<false, char*, char*>
FUNC 45a38 2d 0 std::__uninitialized_copy<true>::uninitialized_copy<char*, char*>
FUNC 45a66 11 0 __gnu_cxx::new_allocator<char>::max_size
FUNC 45a77 2d 0 std::__uninitialized_copy<true>::uninitialized_copy<__gnu_cxx::__normal_iterator<const char*, std::vector<char, std::allocator<char> > >, char*>
FUNC 45aa4 e 0 __gnu_cxx::__normal_iterator<const char*, std::vector<char, std::allocator<char> > >::base
FUNC 45ab2 e 0 __gnu_cxx::__normal_iterator<char*, std::vector<char, std::allocator<char> > >::base
FUNC 45ac0 52 0 std::__copy_move<false, true, std::random_access_iterator_tag>::__copy_m<char>
FUNC 45b12 46 0 std::copy<__gnu_cxx::__normal_iterator<const char*, std::vector<char, std::allocator<char> > >, char*>
FUNC 45b58 58 0 std::__copy_move_a2<false, __gnu_cxx::__normal_iterator<const char*, std::vector<char, std::allocator<char> > >, char*>
FUNC 45bb0 c7 0 Service::Service
FUNC 45c78 ad 0 Service::~Service
FUNC 45d26 26 0 Service::~Service
FUNC 45d4c a 0 Service::InitConfig
FUNC 45d56 2a 0 Service::Init
FUNC 45d80 f2 0 Service::setPointAddrMap
FUNC 45e72 2b7 0 Service::Start
FUNC 4612a 94c 0 Service::Write
FUNC 46a76 6f5 0 Service::Read
FUNC 4716c 15e 0 Service::ParseRecvData
FUNC 472ca 6d 0 Service::ParseFixedData
FUNC 47338 181 0 Service::ParseVariableData
FUNC 474ba 47 0 Service::CmdResetCon
FUNC 47502 47 0 Service::CmdResetNum
FUNC 4754a 4b 0 Service::CmdGetDataLv1
FUNC 47596 4b 0 Service::CmdGetDataLv2
FUNC 475e2 13a 0 Service::CmdFixedData
FUNC 4771c 3ad 0 Service::CmdSetTimeStamp
FUNC 47aca 22c 0 Service::CmdResetEventAlarm
FUNC 47cf6 347 0 Service::CmdSettingDownload
FUNC 4803e 347 0 Service::CmdSettingModify
FUNC 48386 23f 0 Service::CmdGetAll
FUNC 485c6 26d 0 Service::CmdGetGroupValue
FUNC 48834 273 0 Service::CmdGetEntryValue
FUNC 48aa8 42 0 Service::SumCheck
FUNC 48aea 356 0 Service::ParseASDU44
FUNC 48e40 2d0 0 Service::ParseASDU40
FUNC 49110 3c 0 Service::ParseASDU41
FUNC 4914c 5a7 0 Service::ParseASDU42
FUNC 496f4 437 0 Service::ParseASDU50
FUNC 49b2c 3f3 0 Service::ParseASDU1
FUNC 49f20 469 0 Service::ParseASDU2
FUNC 4a38a 124 0 Service::GetGlobalAddrByPrivateAddr
FUNC 4a4ae a3 0 Service::GetRateByPrivateAddr
FUNC 4a552 112 0 Service::ToHexString
FUNC 4a664 4dc 0 Service::InitPointAddrMap
FUNC 4ab40 a4 0 Service::StartBreakHeart
FUNC 4abe4 db 0 Service::ThreadFunc
FUNC 4acc0 18e 0 Service::ParseASDU10
FUNC 4ae4e 53d 0 Service::ParseASDU10AllValue
FUNC 4b38b 1c4 0 __static_initialization_and_destruction_0
FUNC 4b54f 15 0 _GLOBAL__I_Service.cpp
FUNC 4b564 12 0 Config::GetUdpPort
FUNC 4b576 15 0 Config::GetId
FUNC 4b58c 14 0 Config::GetIedName
FUNC 4b5a0 66 0 Tag::Tag
FUNC 4b606 50 0 Tag::~Tag
FUNC 4b656 63 0 Tag::operator=
FUNC 4b6ba 8b 0 Tag::ZeroTag
FUNC 4b746 1a 0 std::map<std::basic_string<char, std::char_traits<char>, std::allocator<char> >, Service::Point103, std::less<std::basic_string<char, std::char_traits<char>, std::allocator<char> > >, std::allocator<std::pair<const std::basic_string<char, std::char_traits<char>, std::allocator<char> >, Service::Point103> > >::~map
FUNC 4b760 1e 0 Service::Point103::Point103
FUNC 4b77e 1e 0 Service::Point103::~Point103
FUNC 4b79c 3d 0 Service::Point103::operator=
FUNC 4b7da 39 0 Service::Point103::Point103
FUNC 4b814 1e 0 std::pair<char*, Service::Point103>::~pair
FUNC 4b832 55 0 std::pair<const std::basic_string<char, std::char_traits<char>, std::allocator<char> >, Service::Point103>::~pair
FUNC 4b888 1a 0 std::vector<Tag, std::allocator<Tag> >::vector
FUNC 4b8a2 6e 0 std::vector<Tag, std::allocator<Tag> >::~vector
FUNC 4b910 1a 0 std::map<std::basic_string<char, std::char_traits<char>, std::allocator<char> >, Service::Point103, std::less<std::basic_string<char, std::char_traits<char>, std::allocator<char> > >, std::allocator<std::pair<const std::basic_string<char, std::char_traits<char>, std::allocator<char> >, Service::Point103> > >::map
FUNC 4b92a 1a 0 std::_Rb_tree<std::basic_string<char, std::char_traits<char>, std::allocator<char> >, std::pair<const std::basic_string<char, std::char_traits<char>, std::allocator<char> >, Service::Point103>, std::_Select1st<std::pair<const std::basic_string<char, std::char_traits<char>, std::allocator<char> >, Service::Point103> >, std::less<std::basic_string<char, std::char_traits<char>, std::allocator<char> > >, std::allocator<std::pair<const std::basic_string<char, std::char_traits<char>, std::allocator<char> >, Service::Point103> > >::_Rb_tree_impl<std::less<std::basic_string<char, std::char_traits<char>, std::allocator<char> > >, false>::~_Rb_tree_impl
FUNC 4b944 63 0 std::_Rb_tree<std::basic_string<char, std::char_traits<char>, std::allocator<char> >, std::pair<const std::basic_string<char, std::char_traits<char>, std::allocator<char> >, Service::Point103>, std::_Select1st<std::pair<const std::basic_string<char, std::char_traits<char>, std::allocator<char> >, Service::Point103> >, std::less<std::basic_string<char, std::char_traits<char>, std::allocator<char> > >, std::allocator<std::pair<const std::basic_string<char, std::char_traits<char>, std::allocator<char> >, Service::Point103> > >::~_Rb_tree
FUNC 4b9a8 1a 0 std::map<std::basic_string<char, std::char_traits<char>, std::allocator<char> >, std::basic_string<char, std::char_traits<char>, std::allocator<char> >, std::less<std::basic_string<char, std::char_traits<char>, std::allocator<char> > >, std::allocator<std::pair<const std::basic_string<char, std::char_traits<char>, std::allocator<char> >, std::basic_string<char, std::char_traits<char>, std::allocator<char> > > > >::begin
FUNC 4b9c2 22 0 std::_Rb_tree_iterator<std::pair<const std::basic_string<char, std::char_traits<char>, std::allocator<char> >, std::basic_string<char, std::char_traits<char>, std::allocator<char> > > >::operator!=
FUNC 4b9e4 28 0 std::_Rb_tree_iterator<std::pair<const std::basic_string<char, std::char_traits<char>, std::allocator<char> >, std::basic_string<char, std::char_traits<char>, std::allocator<char> > > >::operator++
FUNC 4ba0c 15 0 std::_Rb_tree_iterator<std::pair<const std::basic_string<char, std::char_traits<char>, std::allocator<char> >, std::basic_string<char, std::char_traits<char>, std::allocator<char> > > >::operator->
FUNC 4ba22 156 0 std::map<std::basic_string<char, std::char_traits<char>, std::allocator<char> >, Service::Point103, std::less<std::basic_string<char, std::char_traits<char>, std::allocator<char> > >, std::allocator<std::pair<const std::basic_string<char, std::char_traits<char>, std::allocator<char> >, Service::Point103> > >::operator[]
FUNC 4bb78 73 0 std::vector<char, std::allocator<char> >::vector
FUNC 4bbec 19 0 std::vector<char, std::allocator<char> >::operator[]
FUNC 4bc06 7d 0 std::vector<Tag, std::allocator<Tag> >::push_back
FUNC 4bc84 25 0 std::map<std::basic_string<char, std::char_traits<char>, std::allocator<char> >, Service::Point103, std::less<std::basic_string<char, std::char_traits<char>, std::allocator<char> > >, std::allocator<std::pair<const std::basic_string<char, std::char_traits<char>, std::allocator<char> >, Service::Point103> > >::find
FUNC 4bcaa 1c 0 std::_Rb_tree_const_iterator<std::pair<const std::basic_string<char, std::char_traits<char>, std::allocator<char> >, Service::Point103> >::_Rb_tree_const_iterator
FUNC 4bcc6 1a 0 std::map<std::basic_string<char, std::char_traits<char>, std::allocator<char> >, Service::Point103, std::less<std::basic_string<char, std::char_traits<char>, std::allocator<char> > >, std::allocator<std::pair<const std::basic_string<char, std::char_traits<char>, std::allocator<char> >, Service::Point103> > >::end
FUNC 4bce0 22 0 std::_Rb_tree_const_iterator<std::pair<const std::basic_string<char, std::char_traits<char>, std::allocator<char> >, Service::Point103> >::operator!=
FUNC 4bd02 15 0 std::_Rb_tree_const_iterator<std::pair<const std::basic_string<char, std::char_traits<char>, std::allocator<char> >, Service::Point103> >::operator->
FUNC 4bd18 1a 0 std::map<std::basic_string<char, std::char_traits<char>, std::allocator<char> >, Service::Point103, std::less<std::basic_string<char, std::char_traits<char>, std::allocator<char> > >, std::allocator<std::pair<const std::basic_string<char, std::char_traits<char>, std::allocator<char> >, Service::Point103> > >::clear
FUNC 4bd32 37 0 std::make_pair<char*, Service::Point103>
FUNC 4bd6a ab 0 std::pair<const std::basic_string<char, std::char_traits<char>, std::allocator<char> >, Service::Point103>::pair<char*, Service::Point103>
FUNC 4be16 47 0 std::map<std::basic_string<char, std::char_traits<char>, std::allocator<char> >, Service::Point103, std::less<std::basic_string<char, std::char_traits<char>, std::allocator<char> > >, std::allocator<std::pair<const std::basic_string<char, std::char_traits<char>, std::allocator<char> >, Service::Point103> > >::insert
FUNC 4be5e 1a 0 std::map<std::basic_string<char, std::char_traits<char>, std::allocator<char> >, Service::Point103, std::less<std::basic_string<char, std::char_traits<char>, std::allocator<char> > >, std::allocator<std::pair<const std::basic_string<char, std::char_traits<char>, std::allocator<char> >, Service::Point103> > >::size
FUNC 4be78 1a 0 std::_Vector_base<Tag, std::allocator<Tag> >::_Vector_impl::~_Vector_impl
FUNC 4be92 1a 0 std::_Vector_base<Tag, std::allocator<Tag> >::_Vector_base
FUNC 4beac 81 0 std::_Vector_base<Tag, std::allocator<Tag> >::~_Vector_base
FUNC 4bf2e e 0 std::_Vector_base<Tag, std::allocator<Tag> >::_M_get_Tp_allocator
FUNC 4bf3c 29 0 std::_Destroy<Tag*, Tag>
FUNC 4bf66 1a 0 std::_Rb_tree<std::basic_string<char, std::char_traits<char>, std::allocator<char> >, std::pair<const std::basic_string<char, std::char_traits<char>, std::allocator<char> >, Service::Point103>, std::_Select1st<std::pair<const std::basic_string<char, std::char_traits<char>, std::allocator<char> >, Service::Point103> >, std::less<std::basic_string<char, std::char_traits<char>, std::allocator<char> > >, std::allocator<std::pair<const std::basic_string<char, std::char_traits<char>, std::allocator<char> >, Service::Point103> > >::_Rb_tree
FUNC 4bf80 1a 0 std::allocator<std::_Rb_tree_node<std::pair<const std::basic_string<char, std::char_traits<char>, std::allocator<char> >, Service::Point103> > >::~allocator
FUNC 4bf9a 69 0 std::_Rb_tree<std::basic_string<char, std::char_traits<char>, std::allocator<char> >, std::pair<const std::basic_string<char, std::char_traits<char>, std::allocator<char> >, Service::Point103>, std::_Select1st<std::pair<const std::basic_string<char, std::char_traits<char>, std::allocator<char> >, Service::Point103> >, std::less<std::basic_string<char, std::char_traits<char>, std::allocator<char> > >, std::allocator<std::pair<const std::basic_string<char, std::char_traits<char>, std::allocator<char> >, Service::Point103> > >::_M_erase
FUNC 4c004 12 0 std::_Rb_tree<std::basic_string<char, std::char_traits<char>, std::allocator<char> >, std::pair<const std::basic_string<char, std::char_traits<char>, std::allocator<char> >, Service::Point103>, std::_Select1st<std::pair<const std::basic_string<char, std::char_traits<char>, std::allocator<char> >, Service::Point103> >, std::less<std::basic_string<char, std::char_traits<char>, std::allocator<char> > >, std::allocator<std::pair<const std::basic_string<char, std::char_traits<char>, std::allocator<char> >, Service::Point103> > >::_M_begin
FUNC 4c016 25 0 std::map<std::basic_string<char, std::char_traits<char>, std::allocator<char> >, Service::Point103, std::less<std::basic_string<char, std::char_traits<char>, std::allocator<char> > >, std::allocator<std::pair<const std::basic_string<char, std::char_traits<char>, std::allocator<char> >, Service::Point103> > >::lower_bound
FUNC 4c03c 1a 0 std::map<std::basic_string<char, std::char_traits<char>, std::allocator<char> >, Service::Point103, std::less<std::basic_string<char, std::char_traits<char>, std::allocator<char> > >, std::allocator<std::pair<const std::basic_string<char, std::char_traits<char>, std::allocator<char> >, Service::Point103> > >::key_comp
FUNC 4c056 15 0 std::_Rb_tree_iterator<std::pair<const std::basic_string<char, std::char_traits<char>, std::allocator<char> >, Service::Point103> >::operator*
FUNC 4c06c 22 0 std::_Rb_tree_iterator<std::pair<const std::basic_string<char, std::char_traits<char>, std::allocator<char> >, Service::Point103> >::operator==
FUNC 4c08e 6b 0 std::pair<const std::basic_string<char, std::char_traits<char>, std::allocator<char> >, Service::Point103>::pair
FUNC 4c0fa 40 0 std::map<std::basic_string<char, std::char_traits<char>, std::allocator<char> >, Service::Point103, std::less<std::basic_string<char, std::char_traits<char>, std::allocator<char> > >, std::allocator<std::pair<const std::basic_string<char, std::char_traits<char>, std::allocator<char> >, Service::Point103> > >::insert
FUNC 4c13a 91 0 std::_Vector_base<char, std::allocator<char> >::_Vector_base
FUNC 4c1cc 55 0 std::vector<char, std::allocator<char> >::_M_fill_initialize
FUNC 4c222 e2 0 __gnu_cxx::new_allocator<Tag>::construct
FUNC 4c304 42b 0 std::vector<Tag, std::allocator<Tag> >::_M_insert_aux
FUNC 4c730 29 0 std::vector<Tag, std::allocator<Tag> >::end
FUNC 4c75a b6 0 std::_Rb_tree<std::basic_string<char, std::char_traits<char>, std::allocator<char> >, std::pair<const std::basic_string<char, std::char_traits<char>, std::allocator<char> >, Service::Point103>, std::_Select1st<std::pair<const std::basic_string<char, std::char_traits<char>, std::allocator<char> >, Service::Point103> >, std::less<std::basic_string<char, std::char_traits<char>, std::allocator<char> > >, std::allocator<std::pair<const std::basic_string<char, std::char_traits<char>, std::allocator<char> >, Service::Point103> > >::find
FUNC 4c810 2c 0 std::_Rb_tree<std::basic_string<char, std::char_traits<char>, std::allocator<char> >, std::pair<const std::basic_string<char, std::char_traits<char>, std::allocator<char> >, Service::Point103>, std::_Select1st<std::pair<const std::basic_string<char, std::char_traits<char>, std::allocator<char> >, Service::Point103> >, std::less<std::basic_string<char, std::char_traits<char>, std::allocator<char> > >, std::allocator<std::pair<const std::basic_string<char, std::char_traits<char>, std::allocator<char> >, Service::Point103> > >::end
FUNC 4c83c 8d 0 std::_Rb_tree<std::basic_string<char, std::char_traits<char>, std::allocator<char> >, std::pair<const std::basic_string<char, std::char_traits<char>, std::allocator<char> >, Service::Point103>, std::_Select1st<std::pair<const std::basic_string<char, std::char_traits<char>, std::allocator<char> >, Service::Point103> >, std::less<std::basic_string<char, std::char_traits<char>, std::allocator<char> > >, std::allocator<std::pair<const std::basic_string<char, std::char_traits<char>, std::allocator<char> >, Service::Point103> > >::clear
FUNC 4c8ca 3b 0 std::pair<char*, Service::Point103>::pair
FUNC 4c906 271 0 std::_Rb_tree<std::basic_string<char, std::char_traits<char>, std::allocator<char> >, std::pair<const std::basic_string<char, std::char_traits<char>, std::allocator<char> >, Service::Point103>, std::_Select1st<std::pair<const std::basic_string<char, std::char_traits<char>, std::allocator<char> >, Service::Point103> >, std::less<std::basic_string<char, std::char_traits<char>, std::allocator<char> > >, std::allocator<std::pair<const std::basic_string<char, std::char_traits<char>, std::allocator<char> >, Service::Point103> > >::_M_insert_unique
FUNC 4cb78 12 0 std::_Rb_tree<std::basic_string<char, std::char_traits<char>, std::allocator<char> >, std::pair<const std::basic_string<char, std::char_traits<char>, std::allocator<char> >, Service::Point103>, std::_Select1st<std::pair<const std::basic_string<char, std::char_traits<char>, std::allocator<char> >, Service::Point103> >, std::less<std::basic_string<char, std::char_traits<char>, std::allocator<char> > >, std::allocator<std::pair<const std::basic_string<char, std::char_traits<char>, std::allocator<char> >, Service::Point103> > >::size
FUNC 4cb8a 3d 0 std::_Vector_base<Tag, std::allocator<Tag> >::_Vector_impl::_Vector_impl
FUNC 4cbc8 1a 0 std::allocator<Tag>::~allocator
FUNC 4cbe2 34 0 std::_Vector_base<Tag, std::allocator<Tag> >::_M_deallocate
FUNC 4cc16 25 0 std::_Destroy<Tag*>
FUNC 4cc3c 8c 0 std::_Rb_tree<std::basic_string<char, std::char_traits<char>, std::allocator<char> >, std::pair<const std::basic_string<char, std::char_traits<char>, std::allocator<char> >, Service::Point103>, std::_Select1st<std::pair<const std::basic_string<char, std::char_traits<char>, std::allocator<char> >, Service::Point103> >, std::less<std::basic_string<char, std::char_traits<char>, std::allocator<char> > >, std::allocator<std::pair<const std::basic_string<char, std::char_traits<char>, std::allocator<char> >, Service::Point103> > >::_Rb_tree_impl<std::less<std::basic_string<char, std::char_traits<char>, std::allocator<char> > >, false>::_Rb_tree_impl
FUNC 4ccc8 a 0 __gnu_cxx::new_allocator<std::_Rb_tree_node<std::pair<const std::basic_string<char, std::char_traits<char>, std::allocator<char> >, Service::Point103> > >::~new_allocator
FUNC 4ccd2 12 0 std::_Rb_tree<std::basic_string<char, std::char_traits<char>, std::allocator<char> >, std::pair<const std::basic_string<char, std::char_traits<char>, std::allocator<char> >, Service::Point103>, std::_Select1st<std::pair<const std::basic_string<char, std::char_traits<char>, std::allocator<char> >, Service::Point103> >, std::less<std::basic_string<char, std::char_traits<char>, std::allocator<char> > >, std::allocator<std::pair<const std::basic_string<char, std::char_traits<char>, std::allocator<char> >, Service::Point103> > >::_S_right
FUNC 4cce4 12 0 std::_Rb_tree<std::basic_string<char, std::char_traits<char>, std::allocator<char> >, std::pair<const std::basic_string<char, std::char_traits<char>, std::allocator<char> >, Service::Point103>, std::_Select1st<std::pair<const std::basic_string<char, std::char_traits<char>, std::allocator<char> >, Service::Point103> >, std::less<std::basic_string<char, std::char_traits<char>, std::allocator<char> > >, std::allocator<std::pair<const std::basic_string<char, std::char_traits<char>, std::allocator<char> >, Service::Point103> > >::_S_left
FUNC 4ccf6 86 0 std::_Rb_tree<std::basic_string<char, std::char_traits<char>, std::allocator<char> >, std::pair<const std::basic_string<char, std::char_traits<char>, std::allocator<char> >, Service::Point103>, std::_Select1st<std::pair<const std::basic_string<char, std::char_traits<char>, std::allocator<char> >, Service::Point103> >, std::less<std::basic_string<char, std::char_traits<char>, std::allocator<char> > >, std::allocator<std::pair<const std::basic_string<char, std::char_traits<char>, std::allocator<char> >, Service::Point103> > >::_M_destroy_node
FUNC 4cd7c 53 0 std::_Rb_tree<std::basic_string<char, std::char_traits<char>, std::allocator<char> >, std::pair<const std::basic_string<char, std::char_traits<char>, std::allocator<char> >, Service::Point103>, std::_Select1st<std::pair<const std::basic_string<char, std::char_traits<char>, std::allocator<char> >, Service::Point103> >, std::less<std::basic_string<char, std::char_traits<char>, std::allocator<char> > >, std::allocator<std::pair<const std::basic_string<char, std::char_traits<char>, std::allocator<char> >, Service::Point103> > >::lower_bound
FUNC 4cdd0 a 0 std::_Rb_tree<std::basic_string<char, std::char_traits<char>, std::allocator<char> >, std::pair<const std::basic_string<char, std::char_traits<char>, std::allocator<char> >, Service::Point103>, std::_Select1st<std::pair<const std::basic_string<char, std::char_traits<char>, std::allocator<char> >, Service::Point103> >, std::less<std::basic_string<char, std::char_traits<char>, std::allocator<char> > >, std::allocator<std::pair<const std::basic_string<char, std::char_traits<char>, std::allocator<char> >, Service::Point103> > >::key_comp
FUNC 4cdda 4c0 0 std::_Rb_tree<std::basic_string<char, std::char_traits<char>, std::allocator<char> >, std::pair<const std::basic_string<char, std::char_traits<char>, std::allocator<char> >, Service::Point103>, std::_Select1st<std::pair<const std::basic_string<char, std::char_traits<char>, std::allocator<char> >, Service::Point103> >, std::less<std::basic_string<char, std::char_traits<char>, std::allocator<char> > >, std::allocator<std::pair<const std::basic_string<char, std::char_traits<char>, std::allocator<char> >, Service::Point103> > >::_M_insert_unique_
FUNC 4d29a 48 0 std::_Vector_base<char, std::allocator<char> >::_Vector_impl::_Vector_impl
FUNC 4d2e2 31 0 std::__uninitialized_fill_n_a<char*, long unsigned int, char, char>
FUNC 4d314 e 0 __gnu_cxx::__normal_iterator<Tag*, std::vector<Tag, std::allocator<Tag> > >::base
FUNC 4d322 46 0 std::copy_backward<Tag*, Tag*>
FUNC 4d368 11 0 __gnu_cxx::__normal_iterator<Tag*, std::vector<Tag, std::allocator<Tag> > >::operator*
FUNC 4d37a ca 0 std::vector<Tag, std::allocator<Tag> >::_M_check_len
FUNC 4d444 25 0 std::vector<Tag, std::allocator<Tag> >::begin
FUNC 4d469 4d 0 __gnu_cxx::operator-<Tag*, std::vector<Tag, std::allocator<Tag> > >
FUNC 4d4b6 38 0 std::_Vector_base<Tag, std::allocator<Tag> >::_M_allocate
FUNC 4d4ee 3b 0 std::__uninitialized_move_a<Tag*, Tag*, std::allocator<Tag> >
FUNC 4d52a 1e 0 __gnu_cxx::new_allocator<Tag>::destroy
FUNC 4d548 1c 0 __gnu_cxx::__normal_iterator<Tag*, std::vector<Tag, std::allocator<Tag> > >::__normal_iterator
FUNC 4d564 12 0 std::_Rb_tree<std::basic_string<char, std::char_traits<char>, std::allocator<char> >, std::pair<const std::basic_string<char, std::char_traits<char>, std::allocator<char> >, Service::Point103>, std::_Select1st<std::pair<const std::basic_string<char, std::char_traits<char>, std::allocator<char> >, Service::Point103> >, std::less<std::basic_string<char, std::char_traits<char>, std::allocator<char> > >, std::allocator<std::pair<const std::basic_string<char, std::char_traits<char>, std::allocator<char> >, Service::Point103> > >::_M_end
FUNC 4d576 92 0 std::_Rb_tree<std::basic_string<char, std::char_traits<char>, std::allocator<char> >, std::pair<const std::basic_string<char, std::char_traits<char>, std::allocator<char> >, Service::Point103>, std::_Select1st<std::pair<const std::basic_string<char, std::char_traits<char>, std::allocator<char> >, Service::Point103> >, std::less<std::basic_string<char, std::char_traits<char>, std::allocator<char> > >, std::allocator<std::pair<const std::basic_string<char, std::char_traits<char>, std::allocator<char> >, Service::Point103> > >::_M_lower_bound
FUNC 4d608 2c 0 std::_Rb_tree<std::basic_string<char, std::char_traits<char>, std::allocator<char> >, std::pair<const std::basic_string<char, std::char_traits<char>, std::allocator<char> >, Service::Point103>, std::_Select1st<std::pair<const std::basic_string<char, std::char_traits<char>, std::allocator<char> >, Service::Point103> >, std::less<std::basic_string<char, std::char_traits<char>, std::allocator<char> > >, std::allocator<std::pair<const std::basic_string<char, std::char_traits<char>, std::allocator<char> >, Service::Point103> > >::_S_key
FUNC 4d634 19 0 std::_Rb_tree_iterator<std::pair<const std::basic_string<char, std::char_traits<char>, std::allocator<char> >, Service::Point103> >::_Rb_tree_iterator
FUNC 4d64e 12 0 std::_Rb_tree<std::basic_string<char, std::char_traits<char>, std::allocator<char> >, std::pair<const std::basic_string<char, std::char_traits<char>, std::allocator<char> >, Service::Point103>, std::_Select1st<std::pair<const std::basic_string<char, std::char_traits<char>, std::allocator<char> >, Service::Point103> >, std::less<std::basic_string<char, std::char_traits<char>, std::allocator<char> > >, std::allocator<std::pair<const std::basic_string<char, std::char_traits<char>, std::allocator<char> >, Service::Point103> > >::_M_leftmost
FUNC 4d660 12 0 std::_Rb_tree<std::basic_string<char, std::char_traits<char>, std::allocator<char> >, std::pair<const std::basic_string<char, std::char_traits<char>, std::allocator<char> >, Service::Point103>, std::_Select1st<std::pair<const std::basic_string<char, std::char_traits<char>, std::allocator<char> >, Service::Point103> >, std::less<std::basic_string<char, std::char_traits<char>, std::allocator<char> > >, std::allocator<std::pair<const std::basic_string<char, std::char_traits<char>, std::allocator<char> >, Service::Point103> > >::_M_root
FUNC 4d672 12 0 std::_Rb_tree<std::basic_string<char, std::char_traits<char>, std::allocator<char> >, std::pair<const std::basic_string<char, std::char_traits<char>, std::allocator<char> >, Service::Point103>, std::_Select1st<std::pair<const std::basic_string<char, std::char_traits<char>, std::allocator<char> >, Service::Point103> >, std::less<std::basic_string<char, std::char_traits<char>, std::allocator<char> > >, std::allocator<std::pair<const std::basic_string<char, std::char_traits<char>, std::allocator<char> >, Service::Point103> > >::_M_rightmost
FUNC 4d684 12 0 std::_Select1st<std::pair<const std::basic_string<char, std::char_traits<char>, std::allocator<char> >, Service::Point103> >::operator()
FUNC 4d696 2c 0 std::_Rb_tree<std::basic_string<char, std::char_traits<char>, std::allocator<char> >, std::pair<const std::basic_string<char, std::char_traits<char>, std::allocator<char> >, Service::Point103>, std::_Select1st<std::pair<const std::basic_string<char, std::char_traits<char>, std::allocator<char> >, Service::Point103> >, std::less<std::basic_string<char, std::char_traits<char>, std::allocator<char> > >, std::allocator<std::pair<const std::basic_string<char, std::char_traits<char>, std::allocator<char> >, Service::Point103> > >::_S_key
FUNC 4d6c2 2c 0 std::_Rb_tree<std::basic_string<char, std::char_traits<char>, std::allocator<char> >, std::pair<const std::basic_string<char, std::char_traits<char>, std::allocator<char> >, Service::Point103>, std::_Select1st<std::pair<const std::basic_string<char, std::char_traits<char>, std::allocator<char> >, Service::Point103> >, std::less<std::basic_string<char, std::char_traits<char>, std::allocator<char> > >, std::allocator<std::pair<const std::basic_string<char, std::char_traits<char>, std::allocator<char> >, Service::Point103> > >::begin
FUNC 4d6ee e3 0 std::_Rb_tree<std::basic_string<char, std::char_traits<char>, std::allocator<char> >, std::pair<const std::basic_string<char, std::char_traits<char>, std::allocator<char> >, Service::Point103>, std::_Select1st<std::pair<const std::basic_string<char, std::char_traits<char>, std::allocator<char> >, Service::Point103> >, std::less<std::basic_string<char, std::char_traits<char>, std::allocator<char> > >, std::allocator<std::pair<const std::basic_string<char, std::char_traits<char>, std::allocator<char> >, Service::Point103> > >::_M_insert_
FUNC 4d7d2 2e 0 std::pair<std::_Rb_tree_iterator<std::pair<const std::basic_string<char, std::char_traits<char>, std::allocator<char> >, Service::Point103> >, bool>::pair
FUNC 4d800 28 0 std::_Rb_tree_iterator<std::pair<const std::basic_string<char, std::char_traits<char>, std::allocator<char> >, Service::Point103> >::operator--
FUNC 4d828 1a 0 std::allocator<Tag>::allocator
FUNC 4d842 a 0 __gnu_cxx::new_allocator<Tag>::~new_allocator
FUNC 4d84c 22 0 __gnu_cxx::new_allocator<Tag>::deallocate
FUNC 4d86e 37 0 std::_Destroy_aux<false>::__destroy<Tag*>
FUNC 4d8a6 1a 0 std::allocator<std::_Rb_tree_node<std::pair<const std::basic_string<char, std::char_traits<char>, std::allocator<char> >, Service::Point103> > >::allocator
FUNC 4d8c0 41 0 std::_Rb_tree<std::basic_string<char, std::char_traits<char>, std::allocator<char> >, std::pair<const std::basic_string<char, std::char_traits<char>, std::allocator<char> >, Service::Point103>, std::_Select1st<std::pair<const std::basic_string<char, std::char_traits<char>, std::allocator<char> >, Service::Point103> >, std::less<std::basic_string<char, std::char_traits<char>, std::allocator<char> > >, std::allocator<std::pair<const std::basic_string<char, std::char_traits<char>, std::allocator<char> >, Service::Point103> > >::_Rb_tree_impl<std::less<std::basic_string<char, std::char_traits<char>, std::allocator<char> > >, false>::_M_initialize
FUNC 4d902 3b 0 std::_Rb_tree<std::basic_string<char, std::char_traits<char>, std::allocator<char> >, std::pair<const std::basic_string<char, std::char_traits<char>, std::allocator<char> >, Service::Point103>, std::_Select1st<std::pair<const std::basic_string<char, std::char_traits<char>, std::allocator<char> >, Service::Point103> >, std::less<std::basic_string<char, std::char_traits<char>, std::allocator<char> > >, std::allocator<std::pair<const std::basic_string<char, std::char_traits<char>, std::allocator<char> >, Service::Point103> > >::get_allocator
FUNC 4d93e 1a 0 std::allocator<std::pair<const std::basic_string<char, std::char_traits<char>, std::allocator<char> >, Service::Point103> >::~allocator
FUNC 4d958 1e 0 __gnu_cxx::new_allocator<std::pair<const std::basic_string<char, std::char_traits<char>, std::allocator<char> >, Service::Point103> >::destroy
FUNC 4d976 2a 0 std::_Rb_tree<std::basic_string<char, std::char_traits<char>, std::allocator<char> >, std::pair<const std::basic_string<char, std::char_traits<char>, std::allocator<char> >, Service::Point103>, std::_Select1st<std::pair<const std::basic_string<char, std::char_traits<char>, std::allocator<char> >, Service::Point103> >, std::less<std::basic_string<char, std::char_traits<char>, std::allocator<char> > >, std::allocator<std::pair<const std::basic_string<char, std::char_traits<char>, std::allocator<char> >, Service::Point103> > >::_M_put_node
FUNC 4d9a0 28 0 std::_Rb_tree_const_iterator<std::pair<const std::basic_string<char, std::char_traits<char>, std::allocator<char> >, Service::Point103> >::operator--
FUNC 4d9c8 12 0 std::_Rb_tree<std::basic_string<char, std::char_traits<char>, std::allocator<char> >, std::pair<const std::basic_string<char, std::char_traits<char>, std::allocator<char> >, Service::Point103>, std::_Select1st<std::pair<const std::basic_string<char, std::char_traits<char>, std::allocator<char> >, Service::Point103> >, std::less<std::basic_string<char, std::char_traits<char>, std::allocator<char> > >, std::allocator<std::pair<const std::basic_string<char, std::char_traits<char>, std::allocator<char> >, Service::Point103> > >::_S_right
FUNC 4d9da 28 0 std::_Rb_tree_const_iterator<std::pair<const std::basic_string<char, std::char_traits<char>, std::allocator<char> >, Service::Point103> >::operator++
FUNC 4da02 2d 0 std::uninitialized_fill_n<char*, long unsigned int, char>
FUNC 4da2f e 0 std::__miter_base<Tag*, false>::__b
FUNC 4da3d 58 0 std::__copy_move_backward_a2<false, Tag*, Tag*>
FUNC 4da96 22 0 std::vector<Tag, std::allocator<Tag> >::max_size
FUNC 4dab8 63 0 __gnu_cxx::new_allocator<Tag>::allocate
FUNC 4db1b 31 0 std::__uninitialized_copy_a<Tag*, Tag*, Tag>
FUNC 4db4c 12 0 std::_Rb_tree<std::basic_string<char, std::char_traits<char>, std::allocator<char> >, std::pair<const std::basic_string<char, std::char_traits<char>, std::allocator<char> >, Service::Point103>, std::_Select1st<std::pair<const std::basic_string<char, std::char_traits<char>, std::allocator<char> >, Service::Point103> >, std::less<std::basic_string<char, std::char_traits<char>, std::allocator<char> > >, std::allocator<std::pair<const std::basic_string<char, std::char_traits<char>, std::allocator<char> >, Service::Point103> > >::_S_value
FUNC 4db5e 12 0 std::_Rb_tree<std::basic_string<char, std::char_traits<char>, std::allocator<char> >, std::pair<const std::basic_string<char, std::char_traits<char>, std::allocator<char> >, Service::Point103>, std::_Select1st<std::pair<const std::basic_string<char, std::char_traits<char>, std::allocator<char> >, Service::Point103> >, std::less<std::basic_string<char, std::char_traits<char>, std::allocator<char> > >, std::allocator<std::pair<const std::basic_string<char, std::char_traits<char>, std::allocator<char> >, Service::Point103> > >::_S_value
FUNC 4db70 bd 0 std::_Rb_tree<std::basic_string<char, std::char_traits<char>, std::allocator<char> >, std::pair<const std::basic_string<char, std::char_traits<char>, std::allocator<char> >, Service::Point103>, std::_Select1st<std::pair<const std::basic_string<char, std::char_traits<char>, std::allocator<char> >, Service::Point103> >, std::less<std::basic_string<char, std::char_traits<char>, std::allocator<char> > >, std::allocator<std::pair<const std::basic_string<char, std::char_traits<char>, std::allocator<char> >, Service::Point103> > >::_M_create_node
FUNC 4dc2e a 0 __gnu_cxx::new_allocator<Tag>::new_allocator
FUNC 4dc38 1a 0 std::_Destroy<Tag>
FUNC 4dc52 a 0 __gnu_cxx::new_allocator<std::_Rb_tree_node<std::pair<const std::basic_string<char, std::char_traits<char>, std::allocator<char> >, Service::Point103> > >::new_allocator
FUNC 4dc5c e 0 std::_Rb_tree<std::basic_string<char, std::char_traits<char>, std::allocator<char> >, std::pair<const std::basic_string<char, std::char_traits<char>, std::allocator<char> >, Service::Point103>, std::_Select1st<std::pair<const std::basic_string<char, std::char_traits<char>, std::allocator<char> >, Service::Point103> >, std::less<std::basic_string<char, std::char_traits<char>, std::allocator<char> > >, std::allocator<std::pair<const std::basic_string<char, std::char_traits<char>, std::allocator<char> >, Service::Point103> > >::_M_get_Node_allocator
FUNC 4dc6a 1e 0 std::allocator<std::pair<const std::basic_string<char, std::char_traits<char>, std::allocator<char> >, Service::Point103> >::allocator<std::_Rb_tree_node<std::pair<const std::basic_string<char, std::char_traits<char>, std::allocator<char> >, Service::Point103> > >
FUNC 4dc88 a 0 __gnu_cxx::new_allocator<std::pair<const std::basic_string<char, std::char_traits<char>, std::allocator<char> >, Service::Point103> >::~new_allocator
FUNC 4dc92 22 0 __gnu_cxx::new_allocator<std::_Rb_tree_node<std::pair<const std::basic_string<char, std::char_traits<char>, std::allocator<char> >, Service::Point103> > >::deallocate
FUNC 4dcb4 2d 0 std::__uninitialized_fill_n<true>::uninitialized_fill_n<char*, long unsigned int, char>
FUNC 4dce1 e 0 std::__niter_base<Tag*, false>::__b
FUNC 4dcef 31 0 std::__copy_move_backward_a<false, Tag*, Tag*>
FUNC 4dd20 e 0 std::_Vector_base<Tag, std::allocator<Tag> >::_M_get_Tp_allocator
FUNC 4dd2e 14 0 __gnu_cxx::new_allocator<Tag>::max_size
FUNC 4dd42 2d 0 std::uninitialized_copy<Tag*, Tag*>
FUNC 4dd70 24 0 std::_Rb_tree<std::basic_string<char, std::char_traits<char>, std::allocator<char> >, std::pair<const std::basic_string<char, std::char_traits<char>, std::allocator<char> >, Service::Point103>, std::_Select1st<std::pair<const std::basic_string<char, std::char_traits<char>, std::allocator<char> >, Service::Point103> >, std::less<std::basic_string<char, std::char_traits<char>, std::allocator<char> > >, std::allocator<std::pair<const std::basic_string<char, std::char_traits<char>, std::allocator<char> >, Service::Point103> > >::_M_get_node
FUNC 4dd94 6b 0 std::pair<const std::basic_string<char, std::char_traits<char>, std::allocator<char> >, Service::Point103>::pair
FUNC 4de00 77 0 __gnu_cxx::new_allocator<std::pair<const std::basic_string<char, std::char_traits<char>, std::allocator<char> >, Service::Point103> >::construct
FUNC 4de78 a 0 __gnu_cxx::new_allocator<std::pair<const std::basic_string<char, std::char_traits<char>, std::allocator<char> >, Service::Point103> >::new_allocator
FUNC 4de82 35 0 std::fill_n<char*, long unsigned int, char>
FUNC 4deb7 6d 0 std::__copy_move_backward<false, false, std::random_access_iterator_tag>::__copy_move_b<Tag*, Tag*>
FUNC 4df24 98 0 std::__uninitialized_copy<false>::uninitialized_copy<Tag*, Tag*>
FUNC 4dfbc 5c 0 __gnu_cxx::new_allocator<std::_Rb_tree_node<std::pair<const std::basic_string<char, std::char_traits<char>, std::allocator<char> >, Service::Point103> > >::allocate
FUNC 4e018 41 0 std::__fill_n_a<long unsigned int, char>
FUNC 4e059 de 0 std::_Construct<Tag, Tag>
FUNC 4e138 14 0 __gnu_cxx::new_allocator<std::_Rb_tree_node<std::pair<const std::basic_string<char, std::char_traits<char>, std::allocator<char> >, Service::Point103> > >::max_size
FUNC 4e14c 49 0 std::__fill_a<char>
FUNC 4e198 db 0 TcpNet::TcpNet
FUNC 4e274 7c 0 TcpNet::~TcpNet
FUNC 4e2f0 26 0 TcpNet::~TcpNet
FUNC 4e316 17d 0 TcpNet::Connect
FUNC 4e494 15d 0 TcpNet::Read
FUNC 4e5f2 e8 0 TcpNet::Write
FUNC 4e6da 2c 0 TcpNet::DisConnect
FUNC 4e706 48 0 __static_initialization_and_destruction_0
FUNC 4e74e 15 0 _GLOBAL__I_TcpNet.cpp
FUNC 4e764 91 0 TcpService::TcpService
FUNC 4e7f6 7e 0 TcpService::~TcpService
FUNC 4e874 26 0 TcpService::~TcpService
FUNC 4e89a 18f 0 TcpService::Start
FUNC 4ea2a 622 0 TcpService::Write
FUNC 4f04c 581 0 TcpService::Read
FUNC 4f5ce 20b 0 TcpService::ParseRecvData
FUNC 4f7da 11f 0 TcpService::CmdConnection
FUNC 4f8fa 11f 0 TcpService::CmdGetTest1
FUNC 4fa1a 11f 0 TcpService::CmdGetTest2
FUNC 4fb3a 2a7 0 TcpService::CmdGetAll
FUNC 4fde2 2e1 0 TcpService::CmdGetGroupData
FUNC 500c4 15b 0 TcpService::ParseVariableData
FUNC 50220 379 0 TcpService::ParseASDU1
FUNC 5059a 120 0 TcpService::ParseASDU10
FUNC 506ba 82f 0 TcpService::ParseASDU10AllValue
FUNC 50eea 2fe 0 TcpService::ParseASDU40
FUNC 511e8 3c 0 TcpService::ParseASDU41
FUNC 51224 391 0 TcpService::ParseASDU42
FUNC 515b6 388 0 TcpService::ParseASDU44
FUNC 5193e 465 0 TcpService::ParseASDU50
FUNC 51da4 8e 0 TcpService::InitConfig
FUNC 51e32 14 0 TcpService::GetSendID
FUNC 51e46 14 0 TcpService::GetRecvID
FUNC 51e5a 1c4 0 __static_initialization_and_destruction_0
FUNC 5201e 15 0 _GLOBAL__I_TcpService.cpp
FUNC 52034 41 0 std::vector<Tag, std::allocator<Tag> >::empty
FUNC 52076 31 0 std::vector<Tag, std::allocator<Tag> >::end
FUNC 520a8 30 0 std::vector<Tag, std::allocator<Tag> >::begin
FUNC 520d8 3c 0 __gnu_cxx::operator==<const Tag*, std::vector<Tag, std::allocator<Tag> > >
FUNC 52114 1c 0 __gnu_cxx::__normal_iterator<const Tag*, std::vector<Tag, std::allocator<Tag> > >::__normal_iterator
FUNC 52130 e 0 __gnu_cxx::__normal_iterator<const Tag*, std::vector<Tag, std::allocator<Tag> > >::base
FUNC 52140 107 0 UdpNet::UdpNet
FUNC 52248 7c 0 UdpNet::~UdpNet
FUNC 522c4 26 0 UdpNet::~UdpNet
FUNC 522ea 17b 0 UdpNet::Connect
FUNC 52466 aa 0 UdpNet::Read
FUNC 52510 ce 0 UdpNet::Write
FUNC 525de 2c 0 UdpNet::DisConnect
FUNC 5260a 48 0 __static_initialization_and_destruction_0
FUNC 52652 15 0 _GLOBAL__I_UdpNet.cpp
FUNC 52668 1c 0 WarningLib::WarningLib
FUNC 52684 35 0 WarningLib::~WarningLib
FUNC 526ba 26 0 WarningLib::~WarningLib
FUNC 526e0 74 0 WarningLib::GetInstance
FUNC 52754 2f4 0 WarningLib::Init
FUNC 52a48 96 0 WarningLib::GetFunction
FUNC 52ade 2b 0 WarningLib::Start
FUNC 52b0a 36 0 WarningLib::WriteWarn
FUNC 52b40 63 0 WarningLib::WriteWarn2
FUNC 52ba4 2b 0 WarningLib::Stop
FUNC 52bd0 1bc 0 WgjFunctionEx::WgjFunctionEx
FUNC 52d8c 196 0 WgjFunctionEx::~WgjFunctionEx
FUNC 52f22 26 0 WgjFunctionEx::~WgjFunctionEx
FUNC 52f48 80 0 WgjFunctionEx::GetInstance
FUNC 52fc8 27b 0 WgjFunctionEx::InitParam
FUNC 53244 957 0 WgjFunctionEx::ThreadLogWork
FUNC 53b9c 4fe 0 WgjFunctionEx::ThreadRedisWork
FUNC 5409a 134 0 WgjFunctionEx::setHeartBeatTime
FUNC 541ce 1cc 0 WgjFunctionEx::serializeLog
FUNC 5439a 7ac 0 WgjFunctionEx::LogToFile
FUNC 54b46 179 0 WgjFunctionEx::isCreateDir
FUNC 54cc0 25 0 WgjFunctionEx::GetCurrentTime
FUNC 54ce5 1dd 0 __static_initialization_and_destruction_0
FUNC 54ec2 15 0 _GLOBAL__I_WgjFunctionEx.cpp
FUNC 54ed7 ac 0 google::protobuf::internal::ToIntSize
FUNC 54f84 2d 0 google::protobuf::MessageLite::ByteSize
FUNC 54fb2 2e 0 RealLogResponse::set_channelname
FUNC 54fe0 2e 0 RealLogResponse::set_devname
FUNC 5500e 2e 0 RealLogResponse::set_logdetail
FUNC 5503c 2e 0 HeartBeatMessage::set_channelname
FUNC 5506a 55 0 stWriteValue::~stWriteValue
FUNC 550c0 1b 0 WgjFunctionEx::SetLogMode
FUNC 550dc 1a 0 std::list<stWriteValue, std::allocator<stWriteValue> >::~list
FUNC 550f6 1a 0 std::list<stLogInfo, std::allocator<stLogInfo> >::~list
FUNC 55110 1a 0 std::list<stWriteValue, std::allocator<stWriteValue> >::list
FUNC 5512a 1a 0 std::_List_base<stWriteValue, std::allocator<stWriteValue> >::_List_impl::~_List_impl
FUNC 55144 51 0 std::_List_base<stWriteValue, std::allocator<stWriteValue> >::~_List_base
FUNC 55196 1a 0 std::list<stLogInfo, std::allocator<stLogInfo> >::list
FUNC 551b0 1a 0 std::_List_base<stLogInfo, std::allocator<stLogInfo> >::_List_impl::~_List_impl
FUNC 551ca 51 0 std::_List_base<stLogInfo, std::allocator<stLogInfo> >::~_List_base
FUNC 5521c b9 0 std::vector<std::basic_string<char, std::char_traits<char>, std::allocator<char> >, std::allocator<std::basic_string<char, std::char_traits<char>, std::allocator<char> > > >::vector
FUNC 552d6 3a 0 std::list<stLogInfo, std::allocator<stLogInfo> >::size
FUNC 55310 28 0 std::list<stLogInfo, std::allocator<stLogInfo> >::begin
FUNC 55338 15 0 std::_List_iterator<stLogInfo>::operator->
FUNC 5534e 2c 0 std::list<stLogInfo, std::allocator<stLogInfo> >::pop_front
FUNC 5537a 26 0 std::list<stLogInfo, std::allocator<stLogInfo> >::clear
FUNC 553a0 6e 0 std::operator+<char, std::char_traits<char>, std::allocator<char> >
FUNC 5540e 51 0 std::_List_base<stWriteValue, std::allocator<stWriteValue> >::_List_base
FUNC 55460 1a 0 std::allocator<std::_List_node<stWriteValue> >::~allocator
FUNC 5547a b8 0 std::_List_base<stWriteValue, std::allocator<stWriteValue> >::_M_clear
FUNC 55532 51 0 std::_List_base<stLogInfo, std::allocator<stLogInfo> >::_List_base
FUNC 55584 1a 0 std::allocator<std::_List_node<stLogInfo> >::~allocator
FUNC 5559e b8 0 std::_List_base<stLogInfo, std::allocator<stLogInfo> >::_M_clear
FUNC 55656 96 0 std::_Vector_base<std::basic_string<char, std::char_traits<char>, std::allocator<char> >, std::allocator<std::basic_string<char, std::char_traits<char>, std::allocator<char> > > >::_Vector_base
FUNC 556ec 28 0 std::list<stLogInfo, std::allocator<stLogInfo> >::begin
FUNC 55714 25 0 std::list<stLogInfo, std::allocator<stLogInfo> >::end
FUNC 55739 3d 0 std::distance<std::_List_const_iterator<stLogInfo> >
FUNC 55776 9a 0 std::list<stLogInfo, std::allocator<stLogInfo> >::_M_erase
FUNC 55810 21 0 std::_List_base<stLogInfo, std::allocator<stLogInfo> >::_M_init
FUNC 55832 31 0 std::_List_base<stWriteValue, std::allocator<stWriteValue> >::_List_impl::_List_impl
FUNC 55864 21 0 std::_List_base<stWriteValue, std::allocator<stWriteValue> >::_M_init
FUNC 55886 a 0 __gnu_cxx::new_allocator<std::_List_node<stWriteValue> >::~new_allocator
FUNC 55890 3b 0 std::_List_base<stWriteValue, std::allocator<stWriteValue> >::_M_get_Tp_allocator
FUNC 558cc 1a 0 std::allocator<stWriteValue>::~allocator
FUNC 558e6 1e 0 __gnu_cxx::new_allocator<stWriteValue>::destroy
FUNC 55904 2a 0 std::_List_base<stWriteValue, std::allocator<stWriteValue> >::_M_put_node
FUNC 5592e 31 0 std::_List_base<stLogInfo, std::allocator<stLogInfo> >::_List_impl::_List_impl
FUNC 55960 a 0 __gnu_cxx::new_allocator<std::_List_node<stLogInfo> >::~new_allocator
FUNC 5596a 1e 0 __gnu_cxx::new_allocator<stLogInfo>::destroy
FUNC 55988 48 0 std::_Vector_base<std::basic_string<char, std::char_traits<char>, std::allocator<char> >, std::allocator<std::basic_string<char, std::char_traits<char>, std::allocator<char> > > >::_Vector_impl::_Vector_impl
FUNC 559d0 19 0 std::_List_const_iterator<stLogInfo>::_List_const_iterator
FUNC 559e9 a 0 std::__iterator_category<std::_List_const_iterator<stLogInfo> >
FUNC 559f3 48 0 std::__distance<std::_List_const_iterator<stLogInfo> >
FUNC 55a3c 1a 0 std::allocator<std::_List_node<stWriteValue> >::allocator
FUNC 55a56 e 0 std::_List_base<stWriteValue, std::allocator<stWriteValue> >::_M_get_Node_allocator
FUNC 55a64 1e 0 std::allocator<stWriteValue>::allocator<std::_List_node<stWriteValue> >
FUNC 55a82 a 0 __gnu_cxx::new_allocator<stWriteValue>::~new_allocator
FUNC 55a8c 22 0 __gnu_cxx::new_allocator<std::_List_node<stWriteValue> >::deallocate
FUNC 55aae 1a 0 std::allocator<std::_List_node<stLogInfo> >::allocator
FUNC 55ac8 25 0 std::allocator<std::basic_string<char, std::char_traits<char>, std::allocator<char> > >::allocator
FUNC 55aee 22 0 std::_List_const_iterator<stLogInfo>::operator!=
FUNC 55b10 1f 0 std::_List_const_iterator<stLogInfo>::operator++
FUNC 55b30 a 0 __gnu_cxx::new_allocator<std::_List_node<stWriteValue> >::new_allocator
FUNC 55b3a a 0 __gnu_cxx::new_allocator<stWriteValue>::new_allocator
FUNC 55b44 a 0 __gnu_cxx::new_allocator<std::_List_node<stLogInfo> >::new_allocator
FUNC 55b4e e 0 __gnu_cxx::new_allocator<std::basic_string<char, std::char_traits<char>, std::allocator<char> > >::new_allocator
FUNC 55b5c f3 0 Log::Logger::Logger
FUNC 55c50 e2 0 Log::Logger::~Logger
FUNC 55d32 b9a 0 Log::Logger::trafficLogger
FUNC 568cc 507 0 Log::Logger::configLogger
FUNC 56dd3 112 0 __static_initialization_and_destruction_0
FUNC 56ee5 15 0 _GLOBAL__I__ZN3Log6LoggerC2Ev
FUNC 56efa 1e 0 boost::shared_ptr<Config::ConfigCenter>::~shared_ptr
FUNC 56f18 3a 0 boost::shared_ptr<Config::ConfigCenter>::operator->
FUNC 56f52 29 0 log4cplus::helpers::SharedObjectPtr<log4cplus::Appender>::SharedObjectPtr
FUNC 56f7c 41 0 log4cplus::helpers::SharedObjectPtr<log4cplus::Appender>::~SharedObjectPtr
FUNC 56fbe 19 0 std::auto_ptr<log4cplus::Layout>::auto_ptr
FUNC 56fd8 37 0 std::auto_ptr<log4cplus::Layout>::~auto_ptr
FUNC 57010 3a 0 log4cplus::helpers::SharedObjectPtr<log4cplus::Appender>::operator->
FUNC 5704a 25 0 std::auto_ptr<log4cplus::Layout>::auto_ptr
FUNC 57070 2c 0 log4cplus::helpers::SharedObjectPtr<log4cplus::Appender>::SharedObjectPtr
FUNC 5709c 41 0 log4cplus::helpers::SharedObjectPtr<log4cplus::Appender>::addref
FUNC 570de 24 0 std::auto_ptr<log4cplus::Layout>::release
FUNC 57104 279 0 Config::ConfigCenter::instance
FUNC 5737e 488 0 Config::ConfigCenter::loadConfig
FUNC 57806 5c3 0 Config::ConfigCenter::borrowFrom
FUNC 57dca 68 0 Config::ConfigCenter::ConfigCenter
FUNC 57e32 af 0 Config::ConfigCenter::~ConfigCenter
FUNC 57ee2 68e 0 Config::ConfigCenter::loadXml
FUNC 58570 2ea 0 Config::ConfigCenter::saveXml
FUNC 5885a 78 0 Config::ConfigCenter::get
FUNC 588d2 197 0 Config::ConfigCenter::set
FUNC 58a6a 19a 0 Config::ConfigCenter::setInt
FUNC 58c04 1a8 0 Config::ConfigCenter::registValueWatcher
FUNC 58dac 19a 0 Config::ConfigCenter::unregistIntValueWatcher
FUNC 58f46 a1 0 Config::ConfigCenter::get
FUNC 58fe8 19a 0 Config::ConfigCenter::set
FUNC 59182 1a8 0 Config::ConfigCenter::registValueWatcher
FUNC 5932a 19a 0 Config::ConfigCenter::unregistStrValueWatcher
FUNC 594c4 233 0 __static_initialization_and_destruction_0
FUNC 596f7 15 0 _GLOBAL__I__ZN6Config12ConfigCenter16TOP_XMLNODE_NAMEE
FUNC 5970c 14 0 std::operator&
FUNC 59720 2d 0 std::operator&=
FUNC 5974d e 0 std::operator~
FUNC 5975c 2d 0 std::ios_base::unsetf
FUNC 5978a f 0 boost::condition_error::what
FUNC 5979a 25 0 boost::lock_error::lock_error
FUNC 597c0 15 0 boost::detail::shared_count::shared_count
FUNC 597d6 32 0 boost::detail::shared_count::swap
FUNC 59808 51 0 boost::pthread::pthread_mutex_scoped_lock::pthread_mutex_scoped_lock
FUNC 5985a 42 0 boost::pthread::pthread_mutex_scoped_lock::unlock
FUNC 5989c 26 0 boost::pthread::pthread_mutex_scoped_lock::~pthread_mutex_scoped_lock
FUNC 598c2 e7 0 boost::condition_variable::condition_variable
FUNC 599aa 64 0 boost::condition_variable::~condition_variable
FUNC 59a0e 4a 0 boost::detail::interruption_checker::check_for_interruption
FUNC 59a58 14a 0 boost::detail::interruption_checker::interruption_checker
FUNC 59ba2 c0 0 boost::detail::interruption_checker::~interruption_checker
FUNC 59c62 25 0 boost::condition_error::condition_error
FUNC 59c88 3a 0 boost::condition_error::~condition_error
FUNC 59cc2 26 0 boost::condition_error::~condition_error
FUNC 59ce8 113 0 boost::condition_variable::wait
FUNC 59dfc 5a 0 boost::condition_variable::notify_one
FUNC 59e56 5a 0 boost::condition_variable::notify_all
FUNC 59eb0 30 0 boost::shared_mutex::release_waiters
FUNC 59ee0 d9 0 boost::shared_mutex::shared_mutex
FUNC 59fba 52 0 boost::shared_mutex::~shared_mutex
FUNC 5a00c dd 0 boost::shared_mutex::lock_shared
FUNC 5a0ea 98 0 boost::shared_mutex::unlock_shared
FUNC 5a182 df 0 boost::shared_mutex::lock
FUNC 5a262 4d 0 boost::shared_mutex::unlock
FUNC 5a2b0 12 0 Config::IntParameter::_getCheckRange
FUNC 5a2c2 11 0 Config::IntParameter::_getMinValue
FUNC 5a2d4 11 0 Config::IntParameter::_getMaxValue
FUNC 5a2e6 11 0 Config::IntParameter::_getValue
FUNC 5a2f8 12 0 Config::StringParameter::_getValue
FUNC 5a30a 45 0 rapidxml::parse_error::parse_error
FUNC 5a350 12 0 rapidxml::parse_error::what
FUNC 5a362 140 0 Config::XmlParameter::~XmlParameter
FUNC 5a4a2 82 0 Config::XmlGroup::XmlGroup
FUNC 5a524 84 0 Config::XmlGroup::~XmlGroup
FUNC 5a5a8 3b 0 boost::shared_ptr<Config::ConfigCenter>::shared_ptr
FUNC 5a5e4 1a 0 std::map<std::basic_string<char, std::char_traits<char>, std::allocator<char> >, Config::IntParameter, std::less<std::basic_string<char, std::char_traits<char>, std::allocator<char> > >, std::allocator<std::pair<const std::basic_string<char, std::char_traits<char>, std::allocator<char> >, Config::IntParameter> > >::~map
FUNC 5a5fe 1a 0 std::map<std::basic_string<char, std::char_traits<char>, std::allocator<char> >, Config::StringParameter, std::less<std::basic_string<char, std::char_traits<char>, std::allocator<char> > >, std::allocator<std::pair<const std::basic_string<char, std::char_traits<char>, std::allocator<char> >, Config::StringParameter> > >::~map
FUNC 5a618 5f 0 Config::XmlGroup::operator=
FUNC 5a678 1a 0 rapidxml::file<char>::~file
FUNC 5a692 1e 0 rapidxml::xml_document<char>::~xml_document
FUNC 5a6b0 15 0 boost::thread_cv_detail::lock_on_exit<boost::unique_lock<boost::mutex> >::lock_on_exit
FUNC 5a6c6 29 0 boost::thread_cv_detail::lock_on_exit<boost::unique_lock<boost::mutex> >::~lock_on_exit
FUNC 5a6f0 29 0 boost::thread_cv_detail::lock_on_exit<boost::unique_lock<boost::mutex> >::activate
FUNC 5a71a 30 0 boost::condition_error::condition_error
FUNC 5a74a 80 0 boost::exception_detail::error_info_injector<boost::condition_error>::error_info_injector
FUNC 5a7ca 63 0 boost::exception_detail::clone_impl<boost::exception_detail::error_info_injector<boost::condition_error> >::clone_impl
FUNC 5a82d a2 0 boost::throw_exception<boost::condition_error>
FUNC 5a8d0 31 0 boost::unique_lock<boost::mutex>::unique_lock
FUNC 5a902 2d 0 boost::unique_lock<boost::mutex>::~unique_lock
FUNC 5a930 31 0 boost::shared_lock<boost::shared_mutex>::shared_lock
FUNC 5a962 2d 0 boost::shared_lock<boost::shared_mutex>::~shared_lock
FUNC 5a990 79 0 boost::unique_lock<boost::mutex>::unlock
FUNC 5aa0a 76 0 boost::unique_lock<boost::mutex>::lock
FUNC 5aa80 1a 0 std::vector<Config::XmlGroup, std::allocator<Config::XmlGroup> >::vector
FUNC 5aa9a 6e 0 std::vector<Config::XmlGroup, std::allocator<Config::XmlGroup> >::~vector
FUNC 5ab08 1a 0 std::vector<Config::XmlParameter, std::allocator<Config::XmlParameter> >::vector
FUNC 5ab22 6e 0 std::vector<Config::XmlParameter, std::allocator<Config::XmlParameter> >::~vector
FUNC 5ab90 29 0 boost::shared_ptr<Config::ConfigCenter>::shared_ptr
FUNC 5abba 11 0 boost::shared_ptr<Config::ConfigCenter>::get
FUNC 5abcc 31 0 boost::unique_lock<boost::shared_mutex>::unique_lock
FUNC 5abfe 2d 0 boost::unique_lock<boost::shared_mutex>::~unique_lock
FUNC 5ac2c 9c 0 boost::shared_ptr<Config::ConfigCenter>::reset<Config::ConfigCenter>
FUNC 5acc8 50 0 boost::shared_ptr<Config::ConfigCenter>::shared_ptr<Config::ConfigCenter>
FUNC 5ad18 73 0 boost::shared_ptr<Config::ConfigCenter>::operator=
FUNC 5ad8c 1a 0 std::map<std::basic_string<char, std::char_traits<char>, std::allocator<char> >, Config::IntParameter, std::less<std::basic_string<char, std::char_traits<char>, std::allocator<char> > >, std::allocator<std::pair<const std::basic_string<char, std::char_traits<char>, std::allocator<char> >, Config::IntParameter> > >::begin
FUNC 5ada6 1a 0 std::map<std::basic_string<char, std::char_traits<char>, std::allocator<char> >, Config::IntParameter, std::less<std::basic_string<char, std::char_traits<char>, std::allocator<char> > >, std::allocator<std::pair<const std::basic_string<char, std::char_traits<char>, std::allocator<char> >, Config::IntParameter> > >::end
FUNC 5adc0 1a 0 std::map<std::basic_string<char, std::char_traits<char>, std::allocator<char> >, Config::IntParameter, std::less<std::basic_string<char, std::char_traits<char>, std::allocator<char> > >, std::allocator<std::pair<const std::basic_string<char, std::char_traits<char>, std::allocator<char> >, Config::IntParameter> > >::key_comp
FUNC 5adda 1a 0 std::map<std::basic_string<char, std::char_traits<char>, std::allocator<char> >, Config::IntParameter, std::less<std::basic_string<char, std::char_traits<char>, std::allocator<char> > >, std::allocator<std::pair<const std::basic_string<char, std::char_traits<char>, std::allocator<char> >, Config::IntParameter> > >::map
FUNC 5adf4 1a 0 std::_Rb_tree<std::basic_string<char, std::char_traits<char>, std::allocator<char> >, std::pair<const std::basic_string<char, std::char_traits<char>, std::allocator<char> >, Config::IntParameter>, std::_Select1st<std::pair<const std::basic_string<char, std::char_traits<char>, std::allocator<char> >, Config::IntParameter> >, std::less<std::basic_string<char, std::char_traits<char>, std::allocator<char> > >, std::allocator<std::pair<const std::basic_string<char, std::char_traits<char>, std::allocator<char> >, Config::IntParameter> > >::_Rb_tree_impl<std::less<std::basic_string<char, std::char_traits<char>, std::allocator<char> > >, false>::~_Rb_tree_impl
FUNC 5ae0e 63 0 std::_Rb_tree<std::basic_string<char, std::char_traits<char>, std::allocator<char> >, std::pair<const std::basic_string<char, std::char_traits<char>, std::allocator<char> >, Config::IntParameter>, std::_Select1st<std::pair<const std::basic_string<char, std::char_traits<char>, std::allocator<char> >, Config::IntParameter> >, std::less<std::basic_string<char, std::char_traits<char>, std::allocator<char> > >, std::allocator<std::pair<const std::basic_string<char, std::char_traits<char>, std::allocator<char> >, Config::IntParameter> > >::~_Rb_tree
FUNC 5ae72 22 0 std::_Rb_tree_iterator<std::pair<const std::basic_string<char, std::char_traits<char>, std::allocator<char> >, Config::IntParameter> >::operator!=
FUNC 5ae94 15 0 std::_Rb_tree_iterator<std::pair<const std::basic_string<char, std::char_traits<char>, std::allocator<char> >, Config::IntParameter> >::operator->
FUNC 5aeaa 28 0 std::_Rb_tree_iterator<std::pair<const std::basic_string<char, std::char_traits<char>, std::allocator<char> >, Config::IntParameter> >::operator++
FUNC 5aed2 15 0 std::_Rb_tree_iterator<std::pair<const std::basic_string<char, std::char_traits<char>, std::allocator<char> >, Config::IntParameter> >::operator*
FUNC 5aee8 47 0 std::map<std::basic_string<char, std::char_traits<char>, std::allocator<char> >, Config::IntParameter, std::less<std::basic_string<char, std::char_traits<char>, std::allocator<char> > >, std::allocator<std::pair<const std::basic_string<char, std::char_traits<char>, std::allocator<char> >, Config::IntParameter> > >::insert
FUNC 5af30 36 0 std::_Rb_tree_iterator<std::pair<const std::basic_string<char, std::char_traits<char>, std::allocator<char> >, Config::IntParameter> >::operator++
FUNC 5af66 2d 0 std::map<std::basic_string<char, std::char_traits<char>, std::allocator<char> >, Config::IntParameter, std::less<std::basic_string<char, std::char_traits<char>, std::allocator<char> > >, std::allocator<std::pair<const std::basic_string<char, std::char_traits<char>, std::allocator<char> >, Config::IntParameter> > >::insert<std::_Rb_tree_iterator<std::pair<const std::basic_string<char, std::char_traits<char>, std::allocator<char> >, Config::IntParameter> > >
FUNC 5af94 1a 0 std::map<std::basic_string<char, std::char_traits<char>, std::allocator<char> >, Config::StringParameter, std::less<std::basic_string<char, std::char_traits<char>, std::allocator<char> > >, std::allocator<std::pair<const std::basic_string<char, std::char_traits<char>, std::allocator<char> >, Config::StringParameter> > >::begin
FUNC 5afae 1a 0 std::map<std::basic_string<char, std::char_traits<char>, std::allocator<char> >, Config::StringParameter, std::less<std::basic_string<char, std::char_traits<char>, std::allocator<char> > >, std::allocator<std::pair<const std::basic_string<char, std::char_traits<char>, std::allocator<char> >, Config::StringParameter> > >::end
FUNC 5afc8 1a 0 std::map<std::basic_string<char, std::char_traits<char>, std::allocator<char> >, Config::StringParameter, std::less<std::basic_string<char, std::char_traits<char>, std::allocator<char> > >, std::allocator<std::pair<const std::basic_string<char, std::char_traits<char>, std::allocator<char> >, Config::StringParameter> > >::key_comp
FUNC 5afe2 1a 0 std::map<std::basic_string<char, std::char_traits<char>, std::allocator<char> >, Config::StringParameter, std::less<std::basic_string<char, std::char_traits<char>, std::allocator<char> > >, std::allocator<std::pair<const std::basic_string<char, std::char_traits<char>, std::allocator<char> >, Config::StringParameter> > >::map
FUNC 5affc 1a 0 std::_Rb_tree<std::basic_string<char, std::char_traits<char>, std::allocator<char> >, std::pair<const std::basic_string<char, std::char_traits<char>, std::allocator<char> >, Config::StringParameter>, std::_Select1st<std::pair<const std::basic_string<char, std::char_traits<char>, std::allocator<char> >, Config::StringParameter> >, std::less<std::basic_string<char, std::char_traits<char>, std::allocator<char> > >, std::allocator<std::pair<const std::basic_string<char, std::char_traits<char>, std::allocator<char> >, Config::StringParameter> > >::_Rb_tree_impl<std::less<std::basic_string<char, std::char_traits<char>, std::allocator<char> > >, false>::~_Rb_tree_impl
FUNC 5b016 63 0 std::_Rb_tree<std::basic_string<char, std::char_traits<char>, std::allocator<char> >, std::pair<const std::basic_string<char, std::char_traits<char>, std::allocator<char> >, Config::StringParameter>, std::_Select1st<std::pair<const std::basic_string<char, std::char_traits<char>, std::allocator<char> >, Config::StringParameter> >, std::less<std::basic_string<char, std::char_traits<char>, std::allocator<char> > >, std::allocator<std::pair<const std::basic_string<char, std::char_traits<char>, std::allocator<char> >, Config::StringParameter> > >::~_Rb_tree
FUNC 5b07a 22 0 std::_Rb_tree_iterator<std::pair<const std::basic_string<char, std::char_traits<char>, std::allocator<char> >, Config::StringParameter> >::operator!=
FUNC 5b09c 15 0 std::_Rb_tree_iterator<std::pair<const std::basic_string<char, std::char_traits<char>, std::allocator<char> >, Config::StringParameter> >::operator->
FUNC 5b0b2 28 0 std::_Rb_tree_iterator<std::pair<const std::basic_string<char, std::char_traits<char>, std::allocator<char> >, Config::StringParameter> >::operator++
FUNC 5b0da 15 0 std::_Rb_tree_iterator<std::pair<const std::basic_string<char, std::char_traits<char>, std::allocator<char> >, Config::StringParameter> >::operator*
FUNC 5b0f0 47 0 std::map<std::basic_string<char, std::char_traits<char>, std::allocator<char> >, Config::StringParameter, std::less<std::basic_string<char, std::char_traits<char>, std::allocator<char> > >, std::allocator<std::pair<const std::basic_string<char, std::char_traits<char>, std::allocator<char> >, Config::StringParameter> > >::insert
FUNC 5b138 36 0 std::_Rb_tree_iterator<std::pair<const std::basic_string<char, std::char_traits<char>, std::allocator<char> >, Config::StringParameter> >::operator++
FUNC 5b16e 2d 0 std::map<std::basic_string<char, std::char_traits<char>, std::allocator<char> >, Config::StringParameter, std::less<std::basic_string<char, std::char_traits<char>, std::allocator<char> > >, std::allocator<std::pair<const std::basic_string<char, std::char_traits<char>, std::allocator<char> >, Config::StringParameter> > >::insert<std::_Rb_tree_iterator<std::pair<const std::basic_string<char, std::char_traits<char>, std::allocator<char> >, Config::StringParameter> > >
FUNC 5b19c 295 0 std::vector<Config::XmlGroup, std::allocator<Config::XmlGroup> >::operator=
FUNC 5b432 295 0 std::vector<Config::XmlParameter, std::allocator<Config::XmlParameter> >::operator=
FUNC 5b6c8 32d 0 rapidxml::file<char>::file
FUNC 5b9f6 2f 0 rapidxml::xml_document<char>::xml_document
FUNC 5ba26 1a 0 rapidxml::memory_pool<char>::~memory_pool
FUNC 5ba40 1a 0 rapidxml::file<char>::data
FUNC 5ba5a 3a 0 rapidxml::parse_error::~parse_error
FUNC 5ba94 26 0 rapidxml::parse_error::~parse_error
FUNC 5baba fd 0 rapidxml::xml_document<char>::parse<0>
FUNC 5bbb8 cf 0 rapidxml::xml_node<char>::first_node
FUNC 5bc88 28 0 rapidxml::xml_base<char>::name
FUNC 5bcb0 28 0 std::operator!=<char, std::char_traits<char>, std::allocator<char> >
FUNC 5bcd8 b4 0 rapidxml::memory_pool<char>::allocate_string
FUNC 5bd8c 119 0 rapidxml::memory_pool<char>::allocate_node
FUNC 5bea6 d6 0 rapidxml::xml_node<char>::append_node
FUNC 5bf7c 2a 0 rapidxml::operator<< <char>
FUNC 5bfa6 25 0 std::map<std::basic_string<char, std::char_traits<char>, std::allocator<char> >, Config::IntParameter, std::less<std::basic_string<char, std::char_traits<char>, std::allocator<char> > >, std::allocator<std::pair<const std::basic_string<char, std::char_traits<char>, std::allocator<char> >, Config::IntParameter> > >::find
FUNC 5bfcc 25 0 std::map<std::basic_string<char, std::char_traits<char>, std::allocator<char> >, Config::StringParameter, std::less<std::basic_string<char, std::char_traits<char>, std::allocator<char> > >, std::allocator<std::pair<const std::basic_string<char, std::char_traits<char>, std::allocator<char> >, Config::StringParameter> > >::find
FUNC 5bff1 2f 0 boost::enable_error_info<boost::condition_error>
FUNC 5c020 93 0 boost::exception_detail::error_info_injector<boost::condition_error>::~error_info_injector
FUNC 5c0c2 26 0 boost::exception_detail::error_info_injector<boost::condition_error>::~error_info_injector
FUNC 5c0e8 2f 0 boost::enable_current_exception<boost::exception_detail::error_info_injector<boost::condition_error> >
FUNC 5c118 7a 0 boost::exception_detail::clone_impl<boost::exception_detail::error_info_injector<boost::condition_error> >::~clone_impl
FUNC 5c1b0 26 0 boost::exception_detail::clone_impl<boost::exception_detail::error_info_injector<boost::condition_error> >::~clone_impl
FUNC 5c1d6 12 0 boost::unique_lock<boost::mutex>::owns_lock
FUNC 5c1e8 76 0 boost::shared_lock<boost::shared_mutex>::lock
FUNC 5c25e 12 0 boost::shared_lock<boost::shared_mutex>::owns_lock
FUNC 5c270 1a 0 std::_Vector_base<Config::XmlGroup, std::allocator<Config::XmlGroup> >::_Vector_impl::~_Vector_impl
FUNC 5c28a 1a 0 std::_Vector_base<Config::XmlGroup, std::allocator<Config::XmlGroup> >::_Vector_base
FUNC 5c2a4 8e 0 std::_Vector_base<Config::XmlGroup, std::allocator<Config::XmlGroup> >::~_Vector_base
FUNC 5c332 e 0 std::_Vector_base<Config::XmlGroup, std::allocator<Config::XmlGroup> >::_M_get_Tp_allocator
FUNC 5c340 29 0 std::_Destroy<Config::XmlGroup*, Config::XmlGroup>
FUNC 5c36a 1a 0 std::_Vector_base<Config::XmlParameter, std::allocator<Config::XmlParameter> >::_Vector_impl::~_Vector_impl
FUNC 5c384 1a 0 std::_Vector_base<Config::XmlParameter, std::allocator<Config::XmlParameter> >::_Vector_base
FUNC 5c39e 8e 0 std::_Vector_base<Config::XmlParameter, std::allocator<Config::XmlParameter> >::~_Vector_base
FUNC 5c42c e 0 std::_Vector_base<Config::XmlParameter, std::allocator<Config::XmlParameter> >::_M_get_Tp_allocator
FUNC 5c43a 29 0 std::_Destroy<Config::XmlParameter*, Config::XmlParameter>
FUNC 5c464 76 0 boost::unique_lock<boost::shared_mutex>::lock
FUNC 5c4da 12 0 boost::unique_lock<boost::shared_mutex>::owns_lock
FUNC 5c4ec 40 0 boost::shared_ptr<Config::ConfigCenter>::swap
FUNC 5c52c 84 0 boost::detail::shared_count::shared_count<Config::ConfigCenter>
FUNC 5c5b0 2c 0 std::_Rb_tree<std::basic_string<char, std::char_traits<char>, std::allocator<char> >, std::pair<const std::basic_string<char, std::char_traits<char>, std::allocator<char> >, Config::IntParameter>, std::_Select1st<std::pair<const std::basic_string<char, std::char_traits<char>, std::allocator<char> >, Config::IntParameter> >, std::less<std::basic_string<char, std::char_traits<char>, std::allocator<char> > >, std::allocator<std::pair<const std::basic_string<char, std::char_traits<char>, std::allocator<char> >, Config::IntParameter> > >::begin
FUNC 5c5dc 2c 0 std::_Rb_tree<std::basic_string<char, std::char_traits<char>, std::allocator<char> >, std::pair<const std::basic_string<char, std::char_traits<char>, std::allocator<char> >, Config::IntParameter>, std::_Select1st<std::pair<const std::basic_string<char, std::char_traits<char>, std::allocator<char> >, Config::IntParameter> >, std::less<std::basic_string<char, std::char_traits<char>, std::allocator<char> > >, std::allocator<std::pair<const std::basic_string<char, std::char_traits<char>, std::allocator<char> >, Config::IntParameter> > >::end
FUNC 5c608 a 0 std::_Rb_tree<std::basic_string<char, std::char_traits<char>, std::allocator<char> >, std::pair<const std::basic_string<char, std::char_traits<char>, std::allocator<char> >, Config::IntParameter>, std::_Select1st<std::pair<const std::basic_string<char, std::char_traits<char>, std::allocator<char> >, Config::IntParameter> >, std::less<std::basic_string<char, std::char_traits<char>, std::allocator<char> > >, std::allocator<std::pair<const std::basic_string<char, std::char_traits<char>, std::allocator<char> >, Config::IntParameter> > >::key_comp
FUNC 5c612 1a 0 std::_Rb_tree<std::basic_string<char, std::char_traits<char>, std::allocator<char> >, std::pair<const std::basic_string<char, std::char_traits<char>, std::allocator<char> >, Config::IntParameter>, std::_Select1st<std::pair<const std::basic_string<char, std::char_traits<char>, std::allocator<char> >, Config::IntParameter> >, std::less<std::basic_string<char, std::char_traits<char>, std::allocator<char> > >, std::allocator<std::pair<const std::basic_string<char, std::char_traits<char>, std::allocator<char> >, Config::IntParameter> > >::_Rb_tree
FUNC 5c62c 1a 0 std::allocator<std::_Rb_tree_node<std::pair<const std::basic_string<char, std::char_traits<char>, std::allocator<char> >, Config::IntParameter> > >::~allocator
FUNC 5c646 69 0 std::_Rb_tree<std::basic_string<char, std::char_traits<char>, std::allocator<char> >, std::pair<const std::basic_string<char, std::char_traits<char>, std::allocator<char> >, Config::IntParameter>, std::_Select1st<std::pair<const std::basic_string<char, std::char_traits<char>, std::allocator<char> >, Config::IntParameter> >, std::less<std::basic_string<char, std::char_traits<char>, std::allocator<char> > >, std::allocator<std::pair<const std::basic_string<char, std::char_traits<char>, std::allocator<char> >, Config::IntParameter> > >::_M_erase
FUNC 5c6b0 12 0 std::_Rb_tree<std::basic_string<char, std::char_traits<char>, std::allocator<char> >, std::pair<const std::basic_string<char, std::char_traits<char>, std::allocator<char> >, Config::IntParameter>, std::_Select1st<std::pair<const std::basic_string<char, std::char_traits<char>, std::allocator<char> >, Config::IntParameter> >, std::less<std::basic_string<char, std::char_traits<char>, std::allocator<char> > >, std::allocator<std::pair<const std::basic_string<char, std::char_traits<char>, std::allocator<char> >, Config::IntParameter> > >::_M_begin
FUNC 5c6c2 271 0 std::_Rb_tree<std::basic_string<char, std::char_traits<char>, std::allocator<char> >, std::pair<const std::basic_string<char, std::char_traits<char>, std::allocator<char> >, Config::IntParameter>, std::_Select1st<std::pair<const std::basic_string<char, std::char_traits<char>, std::allocator<char> >, Config::IntParameter> >, std::less<std::basic_string<char, std::char_traits<char>, std::allocator<char> > >, std::allocator<std::pair<const std::basic_string<char, std::char_traits<char>, std::allocator<char> >, Config::IntParameter> > >::_M_insert_unique
FUNC 5c934 89 0 std::_Rb_tree<std::basic_string<char, std::char_traits<char>, std::allocator<char> >, std::pair<const std::basic_string<char, std::char_traits<char>, std::allocator<char> >, Config::IntParameter>, std::_Select1st<std::pair<const std::basic_string<char, std::char_traits<char>, std::allocator<char> >, Config::IntParameter> >, std::less<std::basic_string<char, std::char_traits<char>, std::allocator<char> > >, std::allocator<std::pair<const std::basic_string<char, std::char_traits<char>, std::allocator<char> >, Config::IntParameter> > >::_M_insert_unique<std::_Rb_tree_iterator<std::pair<const std::basic_string<char, std::char_traits<char>, std::allocator<char> >, Config::IntParameter> > >
FUNC 5c9be 2c 0 std::_Rb_tree<std::basic_string<char, std::char_traits<char>, std::allocator<char> >, std::pair<const std::basic_string<char, std::char_traits<char>, std::allocator<char> >, Config::StringParameter>, std::_Select1st<std::pair<const std::basic_string<char, std::char_traits<char>, std::allocator<char> >, Config::StringParameter> >, std::less<std::basic_string<char, std::char_traits<char>, std::allocator<char> > >, std::allocator<std::pair<const std::basic_string<char, std::char_traits<char>, std::allocator<char> >, Config::StringParameter> > >::begin
FUNC 5c9ea 2c 0 std::_Rb_tree<std::basic_string<char, std::char_traits<char>, std::allocator<char> >, std::pair<const std::basic_string<char, std::char_traits<char>, std::allocator<char> >, Config::StringParameter>, std::_Select1st<std::pair<const std::basic_string<char, std::char_traits<char>, std::allocator<char> >, Config::StringParameter> >, std::less<std::basic_string<char, std::char_traits<char>, std::allocator<char> > >, std::allocator<std::pair<const std::basic_string<char, std::char_traits<char>, std::allocator<char> >, Config::StringParameter> > >::end
FUNC 5ca16 a 0 std::_Rb_tree<std::basic_string<char, std::char_traits<char>, std::allocator<char> >, std::pair<const std::basic_string<char, std::char_traits<char>, std::allocator<char> >, Config::StringParameter>, std::_Select1st<std::pair<const std::basic_string<char, std::char_traits<char>, std::allocator<char> >, Config::StringParameter> >, std::less<std::basic_string<char, std::char_traits<char>, std::allocator<char> > >, std::allocator<std::pair<const std::basic_string<char, std::char_traits<char>, std::allocator<char> >, Config::StringParameter> > >::key_comp
FUNC 5ca20 1a 0 std::_Rb_tree<std::basic_string<char, std::char_traits<char>, std::allocator<char> >, std::pair<const std::basic_string<char, std::char_traits<char>, std::allocator<char> >, Config::StringParameter>, std::_Select1st<std::pair<const std::basic_string<char, std::char_traits<char>, std::allocator<char> >, Config::StringParameter> >, std::less<std::basic_string<char, std::char_traits<char>, std::allocator<char> > >, std::allocator<std::pair<const std::basic_string<char, std::char_traits<char>, std::allocator<char> >, Config::StringParameter> > >::_Rb_tree
FUNC 5ca3a 1a 0 std::allocator<std::_Rb_tree_node<std::pair<const std::basic_string<char, std::char_traits<char>, std::allocator<char> >, Config::StringParameter> > >::~allocator
FUNC 5ca54 69 0 std::_Rb_tree<std::basic_string<char, std::char_traits<char>, std::allocator<char> >, std::pair<const std::basic_string<char, std::char_traits<char>, std::allocator<char> >, Config::StringParameter>, std::_Select1st<std::pair<const std::basic_string<char, std::char_traits<char>, std::allocator<char> >, Config::StringParameter> >, std::less<std::basic_string<char, std::char_traits<char>, std::allocator<char> > >, std::allocator<std::pair<const std::basic_string<char, std::char_traits<char>, std::allocator<char> >, Config::StringParameter> > >::_M_erase
FUNC 5cabe 12 0 std::_Rb_tree<std::basic_string<char, std::char_traits<char>, std::allocator<char> >, std::pair<const std::basic_string<char, std::char_traits<char>, std::allocator<char> >, Config::StringParameter>, std::_Select1st<std::pair<const std::basic_string<char, std::char_traits<char>, std::allocator<char> >, Config::StringParameter> >, std::less<std::basic_string<char, std::char_traits<char>, std::allocator<char> > >, std::allocator<std::pair<const std::basic_string<char, std::char_traits<char>, std::allocator<char> >, Config::StringParameter> > >::_M_begin
FUNC 5cad0 271 0 std::_Rb_tree<std::basic_string<char, std::char_traits<char>, std::allocator<char> >, std::pair<const std::basic_string<char, std::char_traits<char>, std::allocator<char> >, Config::StringParameter>, std::_Select1st<std::pair<const std::basic_string<char, std::char_traits<char>, std::allocator<char> >, Config::StringParameter> >, std::less<std::basic_string<char, std::char_traits<char>, std::allocator<char> > >, std::allocator<std::pair<const std::basic_string<char, std::char_traits<char>, std::allocator<char> >, Config::StringParameter> > >::_M_insert_unique
FUNC 5cd42 89 0 std::_Rb_tree<std::basic_string<char, std::char_traits<char>, std::allocator<char> >, std::pair<const std::basic_string<char, std::char_traits<char>, std::allocator<char> >, Config::StringParameter>, std::_Select1st<std::pair<const std::basic_string<char, std::char_traits<char>, std::allocator<char> >, Config::StringParameter> >, std::less<std::basic_string<char, std::char_traits<char>, std::allocator<char> > >, std::allocator<std::pair<const std::basic_string<char, std::char_traits<char>, std::allocator<char> >, Config::StringParameter> > >::_M_insert_unique<std::_Rb_tree_iterator<std::pair<const std::basic_string<char, std::char_traits<char>, std::allocator<char> >, Config::StringParameter> > >
FUNC 5cdcc 3a 0 std::vector<Config::XmlGroup, std::allocator<Config::XmlGroup> >::size
FUNC 5ce06 3a 0 std::vector<Config::XmlGroup, std::allocator<Config::XmlGroup> >::capacity
FUNC 5ce40 30 0 std::vector<Config::XmlGroup, std::allocator<Config::XmlGroup> >::begin
FUNC 5ce70 31 0 std::vector<Config::XmlGroup, std::allocator<Config::XmlGroup> >::end
FUNC 5cea2 a1 0 std::vector<Config::XmlGroup, std::allocator<Config::XmlGroup> >::_M_allocate_and_copy<__gnu_cxx::__normal_iterator<const Config::XmlGroup*, std::vector<Config::XmlGroup, std::allocator<Config::XmlGroup> > > >
FUNC 5cf44 34 0 std::_Vector_base<Config::XmlGroup, std::allocator<Config::XmlGroup> >::_M_deallocate
FUNC 5cf78 25 0 std::vector<Config::XmlGroup, std::allocator<Config::XmlGroup> >::begin
FUNC 5cf9d 46 0 std::copy<__gnu_cxx::__normal_iterator<const Config::XmlGroup*, std::vector<Config::XmlGroup, std::allocator<Config::XmlGroup> > >, __gnu_cxx::__normal_iterator<Config::XmlGroup*, std::vector<Config::XmlGroup, std::allocator<Config::XmlGroup> > > >
FUNC 5cfe4 29 0 std::vector<Config::XmlGroup, std::allocator<Config::XmlGroup> >::end
FUNC 5d00d 29 0 std::_Destroy<__gnu_cxx::__normal_iterator<Config::XmlGroup*, std::vector<Config::XmlGroup, std::allocator<Config::XmlGroup> > >, Config::XmlGroup>
FUNC 5d036 46 0 std::copy<Config::XmlGroup*, Config::XmlGroup*>
FUNC 5d07c 31 0 std::__uninitialized_copy_a<Config::XmlGroup*, Config::XmlGroup*, Config::XmlGroup>
FUNC 5d0ae 3a 0 std::vector<Config::XmlParameter, std::allocator<Config::XmlParameter> >::size
FUNC 5d0e8 3a 0 std::vector<Config::XmlParameter, std::allocator<Config::XmlParameter> >::capacity
FUNC 5d122 30 0 std::vector<Config::XmlParameter, std::allocator<Config::XmlParameter> >::begin
FUNC 5d152 31 0 std::vector<Config::XmlParameter, std::allocator<Config::XmlParameter> >::end
FUNC 5d184 a1 0 std::vector<Config::XmlParameter, std::allocator<Config::XmlParameter> >::_M_allocate_and_copy<__gnu_cxx::__normal_iterator<const Config::XmlParameter*, std::vector<Config::XmlParameter, std::allocator<Config::XmlParameter> > > >
FUNC 5d226 34 0 std::_Vector_base<Config::XmlParameter, std::allocator<Config::XmlParameter> >::_M_deallocate
FUNC 5d25a 25 0 std::vector<Config::XmlParameter, std::allocator<Config::XmlParameter> >::begin
FUNC 5d27f 46 0 std::copy<__gnu_cxx::__normal_iterator<const Config::XmlParameter*, std::vector<Config::XmlParameter, std::allocator<Config::XmlParameter> > >, __gnu_cxx::__normal_iterator<Config::XmlParameter*, std::vector<Config::XmlParameter, std::allocator<Config::XmlParameter> > > >
FUNC 5d2c6 29 0 std::vector<Config::XmlParameter, std::allocator<Config::XmlParameter> >::end
FUNC 5d2ef 29 0 std::_Destroy<__gnu_cxx::__normal_iterator<Config::XmlParameter*, std::vector<Config::XmlParameter, std::allocator<Config::XmlParameter> > >, Config::XmlParameter>
FUNC 5d318 46 0 std::copy<Config::XmlParameter*, Config::XmlParameter*>
FUNC 5d35e 31 0 std::__uninitialized_copy_a<Config::XmlParameter*, Config::XmlParameter*, Config::XmlParameter>
FUNC 5d390 11 0 std::fpos<__mbstate_t>::operator std::streamoff
FUNC 5d3a2 25 0 std::fpos<__mbstate_t>::fpos
FUNC 5d3c8 95 0 std::vector<char, std::allocator<char> >::resize
FUNC 5d45e 2a 0 std::vector<char, std::allocator<char> >::front
FUNC 5d488 3f 0 rapidxml::xml_node<char>::xml_node
FUNC 5d4c8 38 0 rapidxml::memory_pool<char>::memory_pool
FUNC 5d500 a5 0 rapidxml::memory_pool<char>::clear
FUNC 5d5a6 5f 0 rapidxml::xml_node<char>::remove_all_nodes
FUNC 5d606 5f 0 rapidxml::xml_node<char>::remove_all_attributes
FUNC 5d666 52 0 rapidxml::xml_document<char>::parse_bom<0>
FUNC 5d6b8 45 0 rapidxml::xml_document<char>::skip<rapidxml::xml_document<char>::whitespace_pred, 0>
FUNC 5d6fe 3ae 0 rapidxml::xml_document<char>::parse_node<0>
FUNC 5daac 3a 0 rapidxml::internal::measure<char>
FUNC 5dae6 e2 0 rapidxml::xml_node<char>::next_sibling
FUNC 5dbc8 25 0 rapidxml::xml_base<char>::name_size
FUNC 5dbed dd 0 rapidxml::internal::compare<char>
FUNC 5dcca b 0 rapidxml::xml_base<char>::nullstr
FUNC 5dcd5 2a 0 std::operator==<char, std::char_traits<char>, std::allocator<char> >
FUNC 5dd00 113 0 rapidxml::memory_pool<char>::allocate_aligned
FUNC 5de14 29 0 rapidxml::xml_base<char>::name
FUNC 5de3e 34 0 rapidxml::xml_base<char>::name
FUNC 5de72 2a 0 rapidxml::xml_base<char>::value
FUNC 5de9c 34 0 rapidxml::xml_base<char>::value
FUNC 5ded0 11 0 rapidxml::xml_node<char>::type
FUNC 5dee2 12 0 rapidxml::xml_base<char>::parent
FUNC 5def4 4c 0 rapidxml::print<char>
FUNC 5df40 b6 0 std::_Rb_tree<std::basic_string<char, std::char_traits<char>, std::allocator<char> >, std::pair<const std::basic_string<char, std::char_traits<char>, std::allocator<char> >, Config::IntParameter>, std::_Select1st<std::pair<const std::basic_string<char, std::char_traits<char>, std::allocator<char> >, Config::IntParameter> >, std::less<std::basic_string<char, std::char_traits<char>, std::allocator<char> > >, std::allocator<std::pair<const std::basic_string<char, std::char_traits<char>, std::allocator<char> >, Config::IntParameter> > >::find
FUNC 5dff6 b6 0 std::_Rb_tree<std::basic_string<char, std::char_traits<char>, std::allocator<char> >, std::pair<const std::basic_string<char, std::char_traits<char>, std::allocator<char> >, Config::StringParameter>, std::_Select1st<std::pair<const std::basic_string<char, std::char_traits<char>, std::allocator<char> >, Config::StringParameter> >, std::less<std::basic_string<char, std::char_traits<char>, std::allocator<char> > >, std::allocator<std::pair<const std::basic_string<char, std::char_traits<char>, std::allocator<char> >, Config::StringParameter> > >::find
FUNC 5e0ac 4c 0 boost::exception_detail::error_info_injector<boost::condition_error>::error_info_injector
FUNC 5e0f8 b9 0 boost::exception_detail::clone_impl<boost::exception_detail::error_info_injector<boost::condition_error> >::clone_impl
FUNC 5e1b2 3d 0 std::_Vector_base<Config::XmlGroup, std::allocator<Config::XmlGroup> >::_Vector_impl::_Vector_impl
FUNC 5e1f0 1a 0 std::allocator<Config::XmlGroup>::~allocator
FUNC 5e20a 25 0 std::_Destroy<Config::XmlGroup*>
FUNC 5e230 3d 0 std::_Vector_base<Config::XmlParameter, std::allocator<Config::XmlParameter> >::_Vector_impl::_Vector_impl
FUNC 5e26e 1a 0 std::allocator<Config::XmlParameter>::~allocator
FUNC 5e288 25 0 std::_Destroy<Config::XmlParameter*>
FUNC 5e2ad 32 0 std::swap<Config::ConfigCenter*>
FUNC 5e2e0 35 0 boost::detail::sp_counted_impl_p<Config::ConfigCenter>::sp_counted_impl_p
FUNC 5e315 2d 0 boost::checked_delete<Config::ConfigCenter>
FUNC 5e342 19 0 std::_Rb_tree_iterator<std::pair<const std::basic_string<char, std::char_traits<char>, std::allocator<char> >, Config::IntParameter> >::_Rb_tree_iterator
FUNC 5e35c 61 0 std::_Rb_tree<std::basic_string<char, std::char_traits<char>, std::allocator<char> >, std::pair<const std::basic_string<char, std::char_traits<char>, std::allocator<char> >, Config::IntParameter>, std::_Select1st<std::pair<const std::basic_string<char, std::char_traits<char>, std::allocator<char> >, Config::IntParameter> >, std::less<std::basic_string<char, std::char_traits<char>, std::allocator<char> > >, std::allocator<std::pair<const std::basic_string<char, std::char_traits<char>, std::allocator<char> >, Config::IntParameter> > >::_Rb_tree_impl<std::less<std::basic_string<char, std::char_traits<char>, std::allocator<char> > >, false>::_Rb_tree_impl
FUNC 5e3be a 0 __gnu_cxx::new_allocator<std::_Rb_tree_node<std::pair<const std::basic_string<char, std::char_traits<char>, std::allocator<char> >, Config::IntParameter> > >::~new_allocator
FUNC 5e3c8 12 0 std::_Rb_tree<std::basic_string<char, std::char_traits<char>, std::allocator<char> >, std::pair<const std::basic_string<char, std::char_traits<char>, std::allocator<char> >, Config::IntParameter>, std::_Select1st<std::pair<const std::basic_string<char, std::char_traits<char>, std::allocator<char> >, Config::IntParameter> >, std::less<std::basic_string<char, std::char_traits<char>, std::allocator<char> > >, std::allocator<std::pair<const std::basic_string<char, std::char_traits<char>, std::allocator<char> >, Config::IntParameter> > >::_S_right
FUNC 5e3da 12 0 std::_Rb_tree<std::basic_string<char, std::char_traits<char>, std::allocator<char> >, std::pair<const std::basic_string<char, std::char_traits<char>, std::allocator<char> >, Config::IntParameter>, std::_Select1st<std::pair<const std::basic_string<char, std::char_traits<char>, std::allocator<char> >, Config::IntParameter> >, std::less<std::basic_string<char, std::char_traits<char>, std::allocator<char> > >, std::allocator<std::pair<const std::basic_string<char, std::char_traits<char>, std::allocator<char> >, Config::IntParameter> > >::_S_left
FUNC 5e3ec 86 0 std::_Rb_tree<std::basic_string<char, std::char_traits<char>, std::allocator<char> >, std::pair<const std::basic_string<char, std::char_traits<char>, std::allocator<char> >, Config::IntParameter>, std::_Select1st<std::pair<const std::basic_string<char, std::char_traits<char>, std::allocator<char> >, Config::IntParameter> >, std::less<std::basic_string<char, std::char_traits<char>, std::allocator<char> > >, std::allocator<std::pair<const std::basic_string<char, std::char_traits<char>, std::allocator<char> >, Config::IntParameter> > >::_M_destroy_node
FUNC 5e472 12 0 std::_Rb_tree<std::basic_string<char, std::char_traits<char>, std::allocator<char> >, std::pair<const std::basic_string<char, std::char_traits<char>, std::allocator<char> >, Config::IntParameter>, std::_Select1st<std::pair<const std::basic_string<char, std::char_traits<char>, std::allocator<char> >, Config::IntParameter> >, std::less<std::basic_string<char, std::char_traits<char>, std::allocator<char> > >, std::allocator<std::pair<const std::basic_string<char, std::char_traits<char>, std::allocator<char> >, Config::IntParameter> > >::_M_end
FUNC 5e484 12 0 std::_Select1st<std::pair<const std::basic_string<char, std::char_traits<char>, std::allocator<char> >, Config::IntParameter> >::operator()
FUNC 5e496 2c 0 std::_Rb_tree<std::basic_string<char, std::char_traits<char>, std::allocator<char> >, std::pair<const std::basic_string<char, std::char_traits<char>, std::allocator<char> >, Config::IntParameter>, std::_Select1st<std::pair<const std::basic_string<char, std::char_traits<char>, std::allocator<char> >, Config::IntParameter> >, std::less<std::basic_string<char, std::char_traits<char>, std::allocator<char> > >, std::allocator<std::pair<const std::basic_string<char, std::char_traits<char>, std::allocator<char> >, Config::IntParameter> > >::_S_key
FUNC 5e4c2 22 0 std::_Rb_tree_iterator<std::pair<const std::basic_string<char, std::char_traits<char>, std::allocator<char> >, Config::IntParameter> >::operator==
FUNC 5e4e4 e3 0 std::_Rb_tree<std::basic_string<char, std::char_traits<char>, std::allocator<char> >, std::pair<const std::basic_string<char, std::char_traits<char>, std::allocator<char> >, Config::IntParameter>, std::_Select1st<std::pair<const std::basic_string<char, std::char_traits<char>, std::allocator<char> >, Config::IntParameter> >, std::less<std::basic_string<char, std::char_traits<char>, std::allocator<char> > >, std::allocator<std::pair<const std::basic_string<char, std::char_traits<char>, std::allocator<char> >, Config::IntParameter> > >::_M_insert_
FUNC 5e5c8 2e 0 std::pair<std::_Rb_tree_iterator<std::pair<const std::basic_string<char, std::char_traits<char>, std::allocator<char> >, Config::IntParameter> >, bool>::pair
FUNC 5e5f6 28 0 std::_Rb_tree_iterator<std::pair<const std::basic_string<char, std::char_traits<char>, std::allocator<char> >, Config::IntParameter> >::operator--
FUNC 5e61e 2c 0 std::_Rb_tree<std::basic_string<char, std::char_traits<char>, std::allocator<char> >, std::pair<const std::basic_string<char, std::char_traits<char>, std::allocator<char> >, Config::IntParameter>, std::_Select1st<std::pair<const std::basic_string<char, std::char_traits<char>, std::allocator<char> >, Config::IntParameter> >, std::less<std::basic_string<char, std::char_traits<char>, std::allocator<char> > >, std::allocator<std::pair<const std::basic_string<char, std::char_traits<char>, std::allocator<char> >, Config::IntParameter> > >::_S_key
FUNC 5e64a 4c0 0 std::_Rb_tree<std::basic_string<char, std::char_traits<char>, std::allocator<char> >, std::pair<const std::basic_string<char, std::char_traits<char>, std::allocator<char> >, Config::IntParameter>, std::_Select1st<std::pair<const std::basic_string<char, std::char_traits<char>, std::allocator<char> >, Config::IntParameter> >, std::less<std::basic_string<char, std::char_traits<char>, std::allocator<char> > >, std::allocator<std::pair<const std::basic_string<char, std::char_traits<char>, std::allocator<char> >, Config::IntParameter> > >::_M_insert_unique_
FUNC 5eb0a 1c 0 std::_Rb_tree_const_iterator<std::pair<const std::basic_string<char, std::char_traits<char>, std::allocator<char> >, Config::IntParameter> >::_Rb_tree_const_iterator
FUNC 5eb26 19 0 std::_Rb_tree_iterator<std::pair<const std::basic_string<char, std::char_traits<char>, std::allocator<char> >, Config::StringParameter> >::_Rb_tree_iterator
FUNC 5eb40 61 0 std::_Rb_tree<std::basic_string<char, std::char_traits<char>, std::allocator<char> >, std::pair<const std::basic_string<char, std::char_traits<char>, std::allocator<char> >, Config::StringParameter>, std::_Select1st<std::pair<const std::basic_string<char, std::char_traits<char>, std::allocator<char> >, Config::StringParameter> >, std::less<std::basic_string<char, std::char_traits<char>, std::allocator<char> > >, std::allocator<std::pair<const std::basic_string<char, std::char_traits<char>, std::allocator<char> >, Config::StringParameter> > >::_Rb_tree_impl<std::less<std::basic_string<char, std::char_traits<char>, std::allocator<char> > >, false>::_Rb_tree_impl
FUNC 5eba2 a 0 __gnu_cxx::new_allocator<std::_Rb_tree_node<std::pair<const std::basic_string<char, std::char_traits<char>, std::allocator<char> >, Config::StringParameter> > >::~new_allocator
FUNC 5ebac 12 0 std::_Rb_tree<std::basic_string<char, std::char_traits<char>, std::allocator<char> >, std::pair<const std::basic_string<char, std::char_traits<char>, std::allocator<char> >, Config::StringParameter>, std::_Select1st<std::pair<const std::basic_string<char, std::char_traits<char>, std::allocator<char> >, Config::StringParameter> >, std::less<std::basic_string<char, std::char_traits<char>, std::allocator<char> > >, std::allocator<std::pair<const std::basic_string<char, std::char_traits<char>, std::allocator<char> >, Config::StringParameter> > >::_S_right
FUNC 5ebbe 12 0 std::_Rb_tree<std::basic_string<char, std::char_traits<char>, std::allocator<char> >, std::pair<const std::basic_string<char, std::char_traits<char>, std::allocator<char> >, Config::StringParameter>, std::_Select1st<std::pair<const std::basic_string<char, std::char_traits<char>, std::allocator<char> >, Config::StringParameter> >, std::less<std::basic_string<char, std::char_traits<char>, std::allocator<char> > >, std::allocator<std::pair<const std::basic_string<char, std::char_traits<char>, std::allocator<char> >, Config::StringParameter> > >::_S_left
FUNC 5ebd0 86 0 std::_Rb_tree<std::basic_string<char, std::char_traits<char>, std::allocator<char> >, std::pair<const std::basic_string<char, std::char_traits<char>, std::allocator<char> >, Config::StringParameter>, std::_Select1st<std::pair<const std::basic_string<char, std::char_traits<char>, std::allocator<char> >, Config::StringParameter> >, std::less<std::basic_string<char, std::char_traits<char>, std::allocator<char> > >, std::allocator<std::pair<const std::basic_string<char, std::char_traits<char>, std::allocator<char> >, Config::StringParameter> > >::_M_destroy_node
FUNC 5ec56 12 0 std::_Rb_tree<std::basic_string<char, std::char_traits<char>, std::allocator<char> >, std::pair<const std::basic_string<char, std::char_traits<char>, std::allocator<char> >, Config::StringParameter>, std::_Select1st<std::pair<const std::basic_string<char, std::char_traits<char>, std::allocator<char> >, Config::StringParameter> >, std::less<std::basic_string<char, std::char_traits<char>, std::allocator<char> > >, std::allocator<std::pair<const std::basic_string<char, std::char_traits<char>, std::allocator<char> >, Config::StringParameter> > >::_M_end
FUNC 5ec68 12 0 std::_Select1st<std::pair<const std::basic_string<char, std::char_traits<char>, std::allocator<char> >, Config::StringParameter> >::operator()
FUNC 5ec7a 2c 0 std::_Rb_tree<std::basic_string<char, std::char_traits<char>, std::allocator<char> >, std::pair<const std::basic_string<char, std::char_traits<char>, std::allocator<char> >, Config::StringParameter>, std::_Select1st<std::pair<const std::basic_string<char, std::char_traits<char>, std::allocator<char> >, Config::StringParameter> >, std::less<std::basic_string<char, std::char_traits<char>, std::allocator<char> > >, std::allocator<std::pair<const std::basic_string<char, std::char_traits<char>, std::allocator<char> >, Config::StringParameter> > >::_S_key
FUNC 5eca6 22 0 std::_Rb_tree_iterator<std::pair<const std::basic_string<char, std::char_traits<char>, std::allocator<char> >, Config::StringParameter> >::operator==
FUNC 5ecc8 e3 0 std::_Rb_tree<std::basic_string<char, std::char_traits<char>, std::allocator<char> >, std::pair<const std::basic_string<char, std::char_traits<char>, std::allocator<char> >, Config::StringParameter>, std::_Select1st<std::pair<const std::basic_string<char, std::char_traits<char>, std::allocator<char> >, Config::StringParameter> >, std::less<std::basic_string<char, std::char_traits<char>, std::allocator<char> > >, std::allocator<std::pair<const std::basic_string<char, std::char_traits<char>, std::allocator<char> >, Config::StringParameter> > >::_M_insert_
FUNC 5edac 2e 0 std::pair<std::_Rb_tree_iterator<std::pair<const std::basic_string<char, std::char_traits<char>, std::allocator<char> >, Config::StringParameter> >, bool>::pair
FUNC 5edda 28 0 std::_Rb_tree_iterator<std::pair<const std::basic_string<char, std::char_traits<char>, std::allocator<char> >, Config::StringParameter> >::operator--
FUNC 5ee02 2c 0 std::_Rb_tree<std::basic_string<char, std::char_traits<char>, std::allocator<char> >, std::pair<const std::basic_string<char, std::char_traits<char>, std::allocator<char> >, Config::StringParameter>, std::_Select1st<std::pair<const std::basic_string<char, std::char_traits<char>, std::allocator<char> >, Config::StringParameter> >, std::less<std::basic_string<char, std::char_traits<char>, std::allocator<char> > >, std::allocator<std::pair<const std::basic_string<char, std::char_traits<char>, std::allocator<char> >, Config::StringParameter> > >::_S_key
FUNC 5ee2e 4c0 0 std::_Rb_tree<std::basic_string<char, std::char_traits<char>, std::allocator<char> >, std::pair<const std::basic_string<char, std::char_traits<char>, std::allocator<char> >, Config::StringParameter>, std::_Select1st<std::pair<const std::basic_string<char, std::char_traits<char>, std::allocator<char> >, Config::StringParameter> >, std::less<std::basic_string<char, std::char_traits<char>, std::allocator<char> > >, std::allocator<std::pair<const std::basic_string<char, std::char_traits<char>, std::allocator<char> >, Config::StringParameter> > >::_M_insert_unique_
FUNC 5f2ee 1c 0 std::_Rb_tree_const_iterator<std::pair<const std::basic_string<char, std::char_traits<char>, std::allocator<char> >, Config::StringParameter> >::_Rb_tree_const_iterator
FUNC 5f30a 1c 0 __gnu_cxx::__normal_iterator<const Config::XmlGroup*, std::vector<Config::XmlGroup, std::allocator<Config::XmlGroup> > >::__normal_iterator
FUNC 5f326 38 0 std::_Vector_base<Config::XmlGroup, std::allocator<Config::XmlGroup> >::_M_allocate
FUNC 5f35e 31 0 std::__uninitialized_copy_a<__gnu_cxx::__normal_iterator<const Config::XmlGroup*, std::vector<Config::XmlGroup, std::allocator<Config::XmlGroup> > >, Config::XmlGroup*, Config::XmlGroup>
FUNC 5f390 22 0 __gnu_cxx::new_allocator<Config::XmlGroup>::deallocate
FUNC 5f3b2 1c 0 __gnu_cxx::__normal_iterator<Config::XmlGroup*, std::vector<Config::XmlGroup, std::allocator<Config::XmlGroup> > >::__normal_iterator
FUNC 5f3ce e 0 std::__miter_base<__gnu_cxx::__normal_iterator<const Config::XmlGroup*, std::vector<Config::XmlGroup, std::allocator<Config::XmlGroup> > >, false>::__b
FUNC 5f3dc 73 0 std::__copy_move_a2<false, __gnu_cxx::__normal_iterator<const Config::XmlGroup*, std::vector<Config::XmlGroup, std::allocator<Config::XmlGroup> > >, __gnu_cxx::__normal_iterator<Config::XmlGroup*, std::vector<Config::XmlGroup, std::allocator<Config::XmlGroup> > > >
FUNC 5f44f 25 0 std::_Destroy<__gnu_cxx::__normal_iterator<Config::XmlGroup*, std::vector<Config::XmlGroup, std::allocator<Config::XmlGroup> > > >
FUNC 5f474 e 0 std::__miter_base<Config::XmlGroup*, false>::__b
FUNC 5f482 58 0 std::__copy_move_a2<false, Config::XmlGroup*, Config::XmlGroup*>
FUNC 5f4da 2d 0 std::uninitialized_copy<Config::XmlGroup*, Config::XmlGroup*>
FUNC 5f508 1c 0 __gnu_cxx::__normal_iterator<const Config::XmlParameter*, std::vector<Config::XmlParameter, std::allocator<Config::XmlParameter> > >::__normal_iterator
FUNC 5f524 38 0 std::_Vector_base<Config::XmlParameter, std::allocator<Config::XmlParameter> >::_M_allocate
FUNC 5f55c 31 0 std::__uninitialized_copy_a<__gnu_cxx::__normal_iterator<const Config::XmlParameter*, std::vector<Config::XmlParameter, std::allocator<Config::XmlParameter> > >, Config::XmlParameter*, Config::XmlParameter>
FUNC 5f58e 22 0 __gnu_cxx::new_allocator<Config::XmlParameter>::deallocate
FUNC 5f5b0 1c 0 __gnu_cxx::__normal_iterator<Config::XmlParameter*, std::vector<Config::XmlParameter, std::allocator<Config::XmlParameter> > >::__normal_iterator
FUNC 5f5cc e 0 std::__miter_base<__gnu_cxx::__normal_iterator<const Config::XmlParameter*, std::vector<Config::XmlParameter, std::allocator<Config::XmlParameter> > >, false>::__b
FUNC 5f5da 73 0 std::__copy_move_a2<false, __gnu_cxx::__normal_iterator<const Config::XmlParameter*, std::vector<Config::XmlParameter, std::allocator<Config::XmlParameter> > >, __gnu_cxx::__normal_iterator<Config::XmlParameter*, std::vector<Config::XmlParameter, std::allocator<Config::XmlParameter> > > >
FUNC 5f64d 25 0 std::_Destroy<__gnu_cxx::__normal_iterator<Config::XmlParameter*, std::vector<Config::XmlParameter, std::allocator<Config::XmlParameter> > > >
FUNC 5f672 e 0 std::__miter_base<Config::XmlParameter*, false>::__b
FUNC 5f680 58 0 std::__copy_move_a2<false, Config::XmlParameter*, Config::XmlParameter*>
FUNC 5f6d8 2d 0 std::uninitialized_copy<Config::XmlParameter*, Config::XmlParameter*>
FUNC 5f706 44 0 std::vector<char, std::allocator<char> >::_M_erase_at_end
FUNC 5f74a 3b 0 std::vector<char, std::allocator<char> >::insert
FUNC 5f786 11 0 __gnu_cxx::__normal_iterator<char*, std::vector<char, std::allocator<char> > >::operator*
FUNC 5f798 2d 0 rapidxml::xml_base<char>::xml_base
FUNC 5f7c6 52 0 rapidxml::memory_pool<char>::init
FUNC 5f818 33 0 rapidxml::memory_pool<char>::align
FUNC 5f84c bc 0 rapidxml::xml_node<char>::first_attribute
FUNC 5f908 1b 0 rapidxml::xml_document<char>::whitespace_pred::test
FUNC 5f924 201 0 rapidxml::xml_document<char>::parse_element<0>
FUNC 5fb26 bb 0 rapidxml::xml_document<char>::parse_xml_declaration<0>
FUNC 5fbe2 bb 0 rapidxml::xml_document<char>::parse_pi<0>
FUNC 5fc9e cd 0 rapidxml::xml_document<char>::parse_comment<0>
FUNC 5fd6c 13d 0 rapidxml::xml_document<char>::parse_cdata<0>
FUNC 5feaa 156 0 rapidxml::xml_document<char>::parse_doctype<0>
FUNC 60000 6e 0 rapidxml::memory_pool<char>::allocate_raw
FUNC 6006e a 0 std::iterator<std::output_iterator_tag, void, void, void, void>::iterator
FUNC 60078 35 0 std::ostream_iterator<char, char, std::char_traits<char> >::ostream_iterator
FUNC 600ae 3c 0 std::ostream_iterator<char, char, std::char_traits<char> >::ostream_iterator
FUNC 600ea 5a 0 rapidxml::print<std::ostream_iterator<char, char, std::char_traits<char> >, char>
FUNC 60144 92 0 std::_Rb_tree<std::basic_string<char, std::char_traits<char>, std::allocator<char> >, std::pair<const std::basic_string<char, std::char_traits<char>, std::allocator<char> >, Config::IntParameter>, std::_Select1st<std::pair<const std::basic_string<char, std::char_traits<char>, std::allocator<char> >, Config::IntParameter> >, std::less<std::basic_string<char, std::char_traits<char>, std::allocator<char> > >, std::allocator<std::pair<const std::basic_string<char, std::char_traits<char>, std::allocator<char> >, Config::IntParameter> > >::_M_lower_bound
FUNC 601d6 92 0 std::_Rb_tree<std::basic_string<char, std::char_traits<char>, std::allocator<char> >, std::pair<const std::basic_string<char, std::char_traits<char>, std::allocator<char> >, Config::StringParameter>, std::_Select1st<std::pair<const std::basic_string<char, std::char_traits<char>, std::allocator<char> >, Config::StringParameter> >, std::less<std::basic_string<char, std::char_traits<char>, std::allocator<char> > >, std::allocator<std::pair<const std::basic_string<char, std::char_traits<char>, std::allocator<char> >, Config::StringParameter> > >::_M_lower_bound
FUNC 60268 1a 0 std::allocator<Config::XmlGroup>::allocator
FUNC 60282 a 0 __gnu_cxx::new_allocator<Config::XmlGroup>::~new_allocator
FUNC 6028c 34 0 std::_Destroy_aux<false>::__destroy<Config::XmlGroup*>
FUNC 602c0 1a 0 std::allocator<Config::XmlParameter>::allocator
FUNC 602da a 0 __gnu_cxx::new_allocator<Config::XmlParameter>::~new_allocator
FUNC 602e4 34 0 std::_Destroy_aux<false>::__destroy<Config::XmlParameter*>
FUNC 60318 1a 0 std::allocator<std::_Rb_tree_node<std::pair<const std::basic_string<char, std::char_traits<char>, std::allocator<char> >, Config::IntParameter> > >::allocator
FUNC 60332 41 0 std::_Rb_tree<std::basic_string<char, std::char_traits<char>, std::allocator<char> >, std::pair<const std::basic_string<char, std::char_traits<char>, std::allocator<char> >, Config::IntParameter>, std::_Select1st<std::pair<const std::basic_string<char, std::char_traits<char>, std::allocator<char> >, Config::IntParameter> >, std::less<std::basic_string<char, std::char_traits<char>, std::allocator<char> > >, std::allocator<std::pair<const std::basic_string<char, std::char_traits<char>, std::allocator<char> >, Config::IntParameter> > >::_Rb_tree_impl<std::less<std::basic_string<char, std::char_traits<char>, std::allocator<char> > >, false>::_M_initialize
FUNC 60374 3b 0 std::_Rb_tree<std::basic_string<char, std::char_traits<char>, std::allocator<char> >, std::pair<const std::basic_string<char, std::char_traits<char>, std::allocator<char> >, Config::IntParameter>, std::_Select1st<std::pair<const std::basic_string<char, std::char_traits<char>, std::allocator<char> >, Config::IntParameter> >, std::less<std::basic_string<char, std::char_traits<char>, std::allocator<char> > >, std::allocator<std::pair<const std::basic_string<char, std::char_traits<char>, std::allocator<char> >, Config::IntParameter> > >::get_allocator
FUNC 603b0 1a 0 std::allocator<std::pair<const std::basic_string<char, std::char_traits<char>, std::allocator<char> >, Config::IntParameter> >::~allocator
FUNC 603ca 55 0 std::pair<const std::basic_string<char, std::char_traits<char>, std::allocator<char> >, Config::IntParameter>::~pair
FUNC 60420 1e 0 __gnu_cxx::new_allocator<std::pair<const std::basic_string<char, std::char_traits<char>, std::allocator<char> >, Config::IntParameter> >::destroy
FUNC 6043e 2a 0 std::_Rb_tree<std::basic_string<char, std::char_traits<char>, std::allocator<char> >, std::pair<const std::basic_string<char, std::char_traits<char>, std::allocator<char> >, Config::IntParameter>, std::_Select1st<std::pair<const std::basic_string<char, std::char_traits<char>, std::allocator<char> >, Config::IntParameter> >, std::less<std::basic_string<char, std::char_traits<char>, std::allocator<char> > >, std::allocator<std::pair<const std::basic_string<char, std::char_traits<char>, std::allocator<char> >, Config::IntParameter> > >::_M_put_node
FUNC 60468 12 0 std::_Rb_tree<std::basic_string<char, std::char_traits<char>, std::allocator<char> >, std::pair<const std::basic_string<char, std::char_traits<char>, std::allocator<char> >, Config::IntParameter>, std::_Select1st<std::pair<const std::basic_string<char, std::char_traits<char>, std::allocator<char> >, Config::IntParameter> >, std::less<std::basic_string<char, std::char_traits<char>, std::allocator<char> > >, std::allocator<std::pair<const std::basic_string<char, std::char_traits<char>, std::allocator<char> >, Config::IntParameter> > >::_S_value
FUNC 6047a bb 0 std::_Rb_tree<std::basic_string<char, std::char_traits<char>, std::allocator<char> >, std::pair<const std::basic_string<char, std::char_traits<char>, std::allocator<char> >, Config::IntParameter>, std::_Select1st<std::pair<const std::basic_string<char, std::char_traits<char>, std::allocator<char> >, Config::IntParameter> >, std::less<std::basic_string<char, std::char_traits<char>, std::allocator<char> > >, std::allocator<std::pair<const std::basic_string<char, std::char_traits<char>, std::allocator<char> >, Config::IntParameter> > >::_M_create_node
FUNC 60535 12 0 std::_Rb_tree<std::basic_string<char, std::char_traits<char>, std::allocator<char> >, std::pair<const std::basic_string<char, std::char_traits<char>, std::allocator<char> >, Config::IntParameter>, std::_Select1st<std::pair<const std::basic_string<char, std::char_traits<char>, std::allocator<char> >, Config::IntParameter> >, std::less<std::basic_string<char, std::char_traits<char>, std::allocator<char> > >, std::allocator<std::pair<const std::basic_string<char, std::char_traits<char>, std::allocator<char> >, Config::IntParameter> > >::_S_value
FUNC 60548 12 0 std::_Rb_tree<std::basic_string<char, std::char_traits<char>, std::allocator<char> >, std::pair<const std::basic_string<char, std::char_traits<char>, std::allocator<char> >, Config::IntParameter>, std::_Select1st<std::pair<const std::basic_string<char, std::char_traits<char>, std::allocator<char> >, Config::IntParameter> >, std::less<std::basic_string<char, std::char_traits<char>, std::allocator<char> > >, std::allocator<std::pair<const std::basic_string<char, std::char_traits<char>, std::allocator<char> >, Config::IntParameter> > >::_M_rightmost
FUNC 6055a 12 0 std::_Rb_tree<std::basic_string<char, std::char_traits<char>, std::allocator<char> >, std::pair<const std::basic_string<char, std::char_traits<char>, std::allocator<char> >, Config::IntParameter>, std::_Select1st<std::pair<const std::basic_string<char, std::char_traits<char>, std::allocator<char> >, Config::IntParameter> >, std::less<std::basic_string<char, std::char_traits<char>, std::allocator<char> > >, std::allocator<std::pair<const std::basic_string<char, std::char_traits<char>, std::allocator<char> >, Config::IntParameter> > >::size
FUNC 6056c 12 0 std::_Rb_tree<std::basic_string<char, std::char_traits<char>, std::allocator<char> >, std::pair<const std::basic_string<char, std::char_traits<char>, std::allocator<char> >, Config::IntParameter>, std::_Select1st<std::pair<const std::basic_string<char, std::char_traits<char>, std::allocator<char> >, Config::IntParameter> >, std::less<std::basic_string<char, std::char_traits<char>, std::allocator<char> > >, std::allocator<std::pair<const std::basic_string<char, std::char_traits<char>, std::allocator<char> >, Config::IntParameter> > >::_M_leftmost
FUNC 6057e 28 0 std::_Rb_tree_const_iterator<std::pair<const std::basic_string<char, std::char_traits<char>, std::allocator<char> >, Config::IntParameter> >::operator--
FUNC 605a6 12 0 std::_Rb_tree<std::basic_string<char, std::char_traits<char>, std::allocator<char> >, std::pair<const std::basic_string<char, std::char_traits<char>, std::allocator<char> >, Config::IntParameter>, std::_Select1st<std::pair<const std::basic_string<char, std::char_traits<char>, std::allocator<char> >, Config::IntParameter> >, std::less<std::basic_string<char, std::char_traits<char>, std::allocator<char> > >, std::allocator<std::pair<const std::basic_string<char, std::char_traits<char>, std::allocator<char> >, Config::IntParameter> > >::_S_right
FUNC 605b8 28 0 std::_Rb_tree_const_iterator<std::pair<const std::basic_string<char, std::char_traits<char>, std::allocator<char> >, Config::IntParameter> >::operator++
FUNC 605e0 1a 0 std::allocator<std::_Rb_tree_node<std::pair<const std::basic_string<char, std::char_traits<char>, std::allocator<char> >, Config::StringParameter> > >::allocator
FUNC 605fa 41 0 std::_Rb_tree<std::basic_string<char, std::char_traits<char>, std::allocator<char> >, std::pair<const std::basic_string<char, std::char_traits<char>, std::allocator<char> >, Config::StringParameter>, std::_Select1st<std::pair<const std::basic_string<char, std::char_traits<char>, std::allocator<char> >, Config::StringParameter> >, std::less<std::basic_string<char, std::char_traits<char>, std::allocator<char> > >, std::allocator<std::pair<const std::basic_string<char, std::char_traits<char>, std::allocator<char> >, Config::StringParameter> > >::_Rb_tree_impl<std::less<std::basic_string<char, std::char_traits<char>, std::allocator<char> > >, false>::_M_initialize
FUNC 6063c 3b 0 std::_Rb_tree<std::basic_string<char, std::char_traits<char>, std::allocator<char> >, std::pair<const std::basic_string<char, std::char_traits<char>, std::allocator<char> >, Config::StringParameter>, std::_Select1st<std::pair<const std::basic_string<char, std::char_traits<char>, std::allocator<char> >, Config::StringParameter> >, std::less<std::basic_string<char, std::char_traits<char>, std::allocator<char> > >, std::allocator<std::pair<const std::basic_string<char, std::char_traits<char>, std::allocator<char> >, Config::StringParameter> > >::get_allocator
FUNC 60678 1a 0 std::allocator<std::pair<const std::basic_string<char, std::char_traits<char>, std::allocator<char> >, Config::StringParameter> >::~allocator
FUNC 60692 55 0 std::pair<const std::basic_string<char, std::char_traits<char>, std::allocator<char> >, Config::StringParameter>::~pair
FUNC 606e8 1e 0 __gnu_cxx::new_allocator<std::pair<const std::basic_string<char, std::char_traits<char>, std::allocator<char> >, Config::StringParameter> >::destroy
FUNC 60706 2a 0 std::_Rb_tree<std::basic_string<char, std::char_traits<char>, std::allocator<char> >, std::pair<const std::basic_string<char, std::char_traits<char>, std::allocator<char> >, Config::StringParameter>, std::_Select1st<std::pair<const std::basic_string<char, std::char_traits<char>, std::allocator<char> >, Config::StringParameter> >, std::less<std::basic_string<char, std::char_traits<char>, std::allocator<char> > >, std::allocator<std::pair<const std::basic_string<char, std::char_traits<char>, std::allocator<char> >, Config::StringParameter> > >::_M_put_node
FUNC 60730 12 0 std::_Rb_tree<std::basic_string<char, std::char_traits<char>, std::allocator<char> >, std::pair<const std::basic_string<char, std::char_traits<char>, std::allocator<char> >, Config::StringParameter>, std::_Select1st<std::pair<const std::basic_string<char, std::char_traits<char>, std::allocator<char> >, Config::StringParameter> >, std::less<std::basic_string<char, std::char_traits<char>, std::allocator<char> > >, std::allocator<std::pair<const std::basic_string<char, std::char_traits<char>, std::allocator<char> >, Config::StringParameter> > >::_S_value
FUNC 60742 bb 0 std::_Rb_tree<std::basic_string<char, std::char_traits<char>, std::allocator<char> >, std::pair<const std::basic_string<char, std::char_traits<char>, std::allocator<char> >, Config::StringParameter>, std::_Select1st<std::pair<const std::basic_string<char, std::char_traits<char>, std::allocator<char> >, Config::StringParameter> >, std::less<std::basic_string<char, std::char_traits<char>, std::allocator<char> > >, std::allocator<std::pair<const std::basic_string<char, std::char_traits<char>, std::allocator<char> >, Config::StringParameter> > >::_M_create_node
FUNC 607fd 12 0 std::_Rb_tree<std::basic_string<char, std::char_traits<char>, std::allocator<char> >, std::pair<const std::basic_string<char, std::char_traits<char>, std::allocator<char> >, Config::StringParameter>, std::_Select1st<std::pair<const std::basic_string<char, std::char_traits<char>, std::allocator<char> >, Config::StringParameter> >, std::less<std::basic_string<char, std::char_traits<char>, std::allocator<char> > >, std::allocator<std::pair<const std::basic_string<char, std::char_traits<char>, std::allocator<char> >, Config::StringParameter> > >::_S_value
FUNC 60810 12 0 std::_Rb_tree<std::basic_string<char, std::char_traits<char>, std::allocator<char> >, std::pair<const std::basic_string<char, std::char_traits<char>, std::allocator<char> >, Config::StringParameter>, std::_Select1st<std::pair<const std::basic_string<char, std::char_traits<char>, std::allocator<char> >, Config::StringParameter> >, std::less<std::basic_string<char, std::char_traits<char>, std::allocator<char> > >, std::allocator<std::pair<const std::basic_string<char, std::char_traits<char>, std::allocator<char> >, Config::StringParameter> > >::_M_rightmost
FUNC 60822 12 0 std::_Rb_tree<std::basic_string<char, std::char_traits<char>, std::allocator<char> >, std::pair<const std::basic_string<char, std::char_traits<char>, std::allocator<char> >, Config::StringParameter>, std::_Select1st<std::pair<const std::basic_string<char, std::char_traits<char>, std::allocator<char> >, Config::StringParameter> >, std::less<std::basic_string<char, std::char_traits<char>, std::allocator<char> > >, std::allocator<std::pair<const std::basic_string<char, std::char_traits<char>, std::allocator<char> >, Config::StringParameter> > >::size
FUNC 60834 12 0 std::_Rb_tree<std::basic_string<char, std::char_traits<char>, std::allocator<char> >, std::pair<const std::basic_string<char, std::char_traits<char>, std::allocator<char> >, Config::StringParameter>, std::_Select1st<std::pair<const std::basic_string<char, std::char_traits<char>, std::allocator<char> >, Config::StringParameter> >, std::less<std::basic_string<char, std::char_traits<char>, std::allocator<char> > >, std::allocator<std::pair<const std::basic_string<char, std::char_traits<char>, std::allocator<char> >, Config::StringParameter> > >::_M_leftmost
FUNC 60846 28 0 std::_Rb_tree_const_iterator<std::pair<const std::basic_string<char, std::char_traits<char>, std::allocator<char> >, Config::StringParameter> >::operator--
FUNC 6086e 12 0 std::_Rb_tree<std::basic_string<char, std::char_traits<char>, std::allocator<char> >, std::pair<const std::basic_string<char, std::char_traits<char>, std::allocator<char> >, Config::StringParameter>, std::_Select1st<std::pair<const std::basic_string<char, std::char_traits<char>, std::allocator<char> >, Config::StringParameter> >, std::less<std::basic_string<char, std::char_traits<char>, std::allocator<char> > >, std::allocator<std::pair<const std::basic_string<char, std::char_traits<char>, std::allocator<char> >, Config::StringParameter> > >::_S_right
FUNC 60880 28 0 std::_Rb_tree_const_iterator<std::pair<const std::basic_string<char, std::char_traits<char>, std::allocator<char> >, Config::StringParameter> >::operator++
FUNC 608a8 5c 0 __gnu_cxx::new_allocator<Config::XmlGroup>::allocate
FUNC 60904 2d 0 std::uninitialized_copy<__gnu_cxx::__normal_iterator<const Config::XmlGroup*, std::vector<Config::XmlGroup, std::allocator<Config::XmlGroup> > >, Config::XmlGroup*>
FUNC 60931 1d 0 std::__niter_base<__gnu_cxx::__normal_iterator<const Config::XmlGroup*, std::vector<Config::XmlGroup, std::allocator<Config::XmlGroup> > >, true>::__b
FUNC 6094e 1d 0 std::__niter_base<__gnu_cxx::__normal_iterator<Config::XmlGroup*, std::vector<Config::XmlGroup, std::allocator<Config::XmlGroup> > >, true>::__b
FUNC 6096b 31 0 std::__copy_move_a<false, const Config::XmlGroup*, Config::XmlGroup*>
FUNC 6099c 4b 0 std::_Destroy_aux<false>::__destroy<__gnu_cxx::__normal_iterator<Config::XmlGroup*, std::vector<Config::XmlGroup, std::allocator<Config::XmlGroup> > > >
FUNC 609e7 e 0 std::__niter_base<Config::XmlGroup*, false>::__b
FUNC 609f5 31 0 std::__copy_move_a<false, Config::XmlGroup*, Config::XmlGroup*>
FUNC 60a26 92 0 std::__uninitialized_copy<false>::uninitialized_copy<Config::XmlGroup*, Config::XmlGroup*>
FUNC 60ab8 5c 0 __gnu_cxx::new_allocator<Config::XmlParameter>::allocate
FUNC 60b14 2d 0 std::uninitialized_copy<__gnu_cxx::__normal_iterator<const Config::XmlParameter*, std::vector<Config::XmlParameter, std::allocator<Config::XmlParameter> > >, Config::XmlParameter*>
FUNC 60b41 1d 0 std::__niter_base<__gnu_cxx::__normal_iterator<const Config::XmlParameter*, std::vector<Config::XmlParameter, std::allocator<Config::XmlParameter> > >, true>::__b
FUNC 60b5e 1d 0 std::__niter_base<__gnu_cxx::__normal_iterator<Config::XmlParameter*, std::vector<Config::XmlParameter, std::allocator<Config::XmlParameter> > >, true>::__b
FUNC 60b7b 31 0 std::__copy_move_a<false, const Config::XmlParameter*, Config::XmlParameter*>
FUNC 60bac 4b 0 std::_Destroy_aux<false>::__destroy<__gnu_cxx::__normal_iterator<Config::XmlParameter*, std::vector<Config::XmlParameter, std::allocator<Config::XmlParameter> > > >
FUNC 60bf7 e 0 std::__niter_base<Config::XmlParameter*, false>::__b
FUNC 60c05 31 0 std::__copy_move_a<false, Config::XmlParameter*, Config::XmlParameter*>
FUNC 60c36 92 0 std::__uninitialized_copy<false>::uninitialized_copy<Config::XmlParameter*, Config::XmlParameter*>
FUNC 60cc8 53d 0 std::vector<char, std::allocator<char> >::_M_fill_insert
FUNC 61205 45 0 rapidxml::xml_document<char>::skip<rapidxml::xml_document<char>::node_name_pred, 0>
FUNC 6124a 2eb 0 rapidxml::xml_document<char>::parse_node_attributes<0>
FUNC 61536 18e 0 rapidxml::xml_document<char>::parse_node_contents<0>
FUNC 616c4 2a 0 rapidxml::xml_base<char>::value
FUNC 616ee 26 0 rapidxml::xml_base<char>::value_size
FUNC 61714 3ca 0 rapidxml::internal::print_node<std::ostream_iterator<char, char, std::char_traits<char> >, char>
FUNC 61ade a 0 __gnu_cxx::new_allocator<Config::XmlGroup>::new_allocator
FUNC 61ae8 1a 0 std::_Destroy<Config::XmlGroup>
FUNC 61b02 a 0 __gnu_cxx::new_allocator<Config::XmlParameter>::new_allocator
FUNC 61b0c 1a 0 std::_Destroy<Config::XmlParameter>
FUNC 61b26 a 0 __gnu_cxx::new_allocator<std::_Rb_tree_node<std::pair<const std::basic_string<char, std::char_traits<char>, std::allocator<char> >, Config::IntParameter> > >::new_allocator
FUNC 61b30 e 0 std::_Rb_tree<std::basic_string<char, std::char_traits<char>, std::allocator<char> >, std::pair<const std::basic_string<char, std::char_traits<char>, std::allocator<char> >, Config::IntParameter>, std::_Select1st<std::pair<const std::basic_string<char, std::char_traits<char>, std::allocator<char> >, Config::IntParameter> >, std::less<std::basic_string<char, std::char_traits<char>, std::allocator<char> > >, std::allocator<std::pair<const std::basic_string<char, std::char_traits<char>, std::allocator<char> >, Config::IntParameter> > >::_M_get_Node_allocator
FUNC 61b3e 1e 0 std::allocator<std::pair<const std::basic_string<char, std::char_traits<char>, std::allocator<char> >, Config::IntParameter> >::allocator<std::_Rb_tree_node<std::pair<const std::basic_string<char, std::char_traits<char>, std::allocator<char> >, Config::IntParameter> > >
FUNC 61b5c a 0 __gnu_cxx::new_allocator<std::pair<const std::basic_string<char, std::char_traits<char>, std::allocator<char> >, Config::IntParameter> >::~new_allocator
FUNC 61b66 22 0 __gnu_cxx::new_allocator<std::_Rb_tree_node<std::pair<const std::basic_string<char, std::char_traits<char>, std::allocator<char> >, Config::IntParameter> > >::deallocate
FUNC 61b88 24 0 std::_Rb_tree<std::basic_string<char, std::char_traits<char>, std::allocator<char> >, std::pair<const std::basic_string<char, std::char_traits<char>, std::allocator<char> >, Config::IntParameter>, std::_Select1st<std::pair<const std::basic_string<char, std::char_traits<char>, std::allocator<char> >, Config::IntParameter> >, std::less<std::basic_string<char, std::char_traits<char>, std::allocator<char> > >, std::allocator<std::pair<const std::basic_string<char, std::char_traits<char>, std::allocator<char> >, Config::IntParameter> > >::_M_get_node
FUNC 61bac 6b 0 std::pair<const std::basic_string<char, std::char_traits<char>, std::allocator<char> >, Config::IntParameter>::pair
FUNC 61c18 77 0 __gnu_cxx::new_allocator<std::pair<const std::basic_string<char, std::char_traits<char>, std::allocator<char> >, Config::IntParameter> >::construct
FUNC 61c90 a 0 __gnu_cxx::new_allocator<std::_Rb_tree_node<std::pair<const std::basic_string<char, std::char_traits<char>, std::allocator<char> >, Config::StringParameter> > >::new_allocator
FUNC 61c9a e 0 std::_Rb_tree<std::basic_string<char, std::char_traits<char>, std::allocator<char> >, std::pair<const std::basic_string<char, std::char_traits<char>, std::allocator<char> >, Config::StringParameter>, std::_Select1st<std::pair<const std::basic_string<char, std::char_traits<char>, std::allocator<char> >, Config::StringParameter> >, std::less<std::basic_string<char, std::char_traits<char>, std::allocator<char> > >, std::allocator<std::pair<const std::basic_string<char, std::char_traits<char>, std::allocator<char> >, Config::StringParameter> > >::_M_get_Node_allocator
FUNC 61ca8 1e 0 std::allocator<std::pair<const std::basic_string<char, std::char_traits<char>, std::allocator<char> >, Config::StringParameter> >::allocator<std::_Rb_tree_node<std::pair<const std::basic_string<char, std::char_traits<char>, std::allocator<char> >, Config::StringParameter> > >
FUNC 61cc6 a 0 __gnu_cxx::new_allocator<std::pair<const std::basic_string<char, std::char_traits<char>, std::allocator<char> >, Config::StringParameter> >::~new_allocator
FUNC 61cd0 22 0 __gnu_cxx::new_allocator<std::_Rb_tree_node<std::pair<const std::basic_string<char, std::char_traits<char>, std::allocator<char> >, Config::StringParameter> > >::deallocate
FUNC 61cf2 24 0 std::_Rb_tree<std::basic_string<char, std::char_traits<char>, std::allocator<char> >, std::pair<const std::basic_string<char, std::char_traits<char>, std::allocator<char> >, Config::StringParameter>, std::_Select1st<std::pair<const std::basic_string<char, std::char_traits<char>, std::allocator<char> >, Config::StringParameter> >, std::less<std::basic_string<char, std::char_traits<char>, std::allocator<char> > >, std::allocator<std::pair<const std::basic_string<char, std::char_traits<char>, std::allocator<char> >, Config::StringParameter> > >::_M_get_node
FUNC 61d16 6b 0 std::pair<const std::basic_string<char, std::char_traits<char>, std::allocator<char> >, Config::StringParameter>::pair
FUNC 61d82 77 0 __gnu_cxx::new_allocator<std::pair<const std::basic_string<char, std::char_traits<char>, std::allocator<char> >, Config::StringParameter> >::construct
FUNC 61dfa 14 0 __gnu_cxx::new_allocator<Config::XmlGroup>::max_size
FUNC 61e0e ac 0 std::__uninitialized_copy<false>::uninitialized_copy<__gnu_cxx::__normal_iterator<const Config::XmlGroup*, std::vector<Config::XmlGroup, std::allocator<Config::XmlGroup> > >, Config::XmlGroup*>
FUNC 61eba e 0 __gnu_cxx::__normal_iterator<const Config::XmlGroup*, std::vector<Config::XmlGroup, std::allocator<Config::XmlGroup> > >::base
FUNC 61ec8 e 0 __gnu_cxx::__normal_iterator<Config::XmlGroup*, std::vector<Config::XmlGroup, std::allocator<Config::XmlGroup> > >::base
FUNC 61ed6 74 0 std::__copy_move<false, false, std::random_access_iterator_tag>::__copy_m<const Config::XmlGroup*, Config::XmlGroup*>
FUNC 61f4a 3c 0 __gnu_cxx::operator!=<Config::XmlGroup*, std::vector<Config::XmlGroup, std::allocator<Config::XmlGroup> > >
FUNC 61f86 20 0 __gnu_cxx::__normal_iterator<Config::XmlGroup*, std::vector<Config::XmlGroup, std::allocator<Config::XmlGroup> > >::operator++
FUNC 61fa6 11 0 __gnu_cxx::__normal_iterator<Config::XmlGroup*, std::vector<Config::XmlGroup, std::allocator<Config::XmlGroup> > >::operator*
FUNC 61fb7 74 0 std::__copy_move<false, false, std::random_access_iterator_tag>::__copy_m<Config::XmlGroup*, Config::XmlGroup*>
FUNC 6202c a3 0 Config::XmlGroup::XmlGroup
FUNC 620cf 73 0 std::_Construct<Config::XmlGroup, Config::XmlGroup>
FUNC 62142 14 0 __gnu_cxx::new_allocator<Config::XmlParameter>::max_size
FUNC 62156 ac 0 std::__uninitialized_copy<false>::uninitialized_copy<__gnu_cxx::__normal_iterator<const Config::XmlParameter*, std::vector<Config::XmlParameter, std::allocator<Config::XmlParameter> > >, Config::XmlParameter*>
FUNC 62202 e 0 __gnu_cxx::__normal_iterator<const Config::XmlParameter*, std::vector<Config::XmlParameter, std::allocator<Config::XmlParameter> > >::base
FUNC 62210 e 0 __gnu_cxx::__normal_iterator<Config::XmlParameter*, std::vector<Config::XmlParameter, std::allocator<Config::XmlParameter> > >::base
FUNC 6221e cb 0 Config::XmlParameter::operator=
FUNC 622e9 74 0 std::__copy_move<false, false, std::random_access_iterator_tag>::__copy_m<const Config::XmlParameter*, Config::XmlParameter*>
FUNC 6235d 3c 0 __gnu_cxx::operator!=<Config::XmlParameter*, std::vector<Config::XmlParameter, std::allocator<Config::XmlParameter> > >
FUNC 6239a 20 0 __gnu_cxx::__normal_iterator<Config::XmlParameter*, std::vector<Config::XmlParameter, std::allocator<Config::XmlParameter> > >::operator++
FUNC 623ba 11 0 __gnu_cxx::__normal_iterator<Config::XmlParameter*, std::vector<Config::XmlParameter, std::allocator<Config::XmlParameter> > >::operator*
FUNC 623cb 74 0 std::__copy_move<false, false, std::random_access_iterator_tag>::__copy_m<Config::XmlParameter*, Config::XmlParameter*>
FUNC 62440 186 0 Config::XmlParameter::XmlParameter
FUNC 625c6 73 0 std::_Construct<Config::XmlParameter, Config::XmlParameter>
FUNC 62639 42 0 __gnu_cxx::operator-<char*, std::vector<char, std::allocator<char> > >
FUNC 6267b 3b 0 std::__uninitialized_move_a<char*, char*, std::allocator<char> >
FUNC 626b6 46 0 std::copy_backward<char*, char*>
FUNC 626fc 46 0 std::fill<char*, char>
FUNC 62742 ca 0 std::vector<char, std::allocator<char> >::_M_check_len
FUNC 6280c 1b 0 rapidxml::xml_document<char>::node_name_pred::test
FUNC 62827 1b 0 rapidxml::xml_document<char>::attribute_name_pred::test
FUNC 62842 45 0 rapidxml::xml_document<char>::skip<rapidxml::xml_document<char>::attribute_name_pred, 0>
FUNC 62888 e4 0 rapidxml::memory_pool<char>::allocate_attribute
FUNC 6296c c6 0 rapidxml::xml_node<char>::append_attribute
FUNC 62a32 372 0 rapidxml::xml_document<char>::skip_and_expand_character_refs<rapidxml::xml_document<char>::attribute_value_pred<'\''>, rapidxml::xml_document<char>::attribute_value_pure_pred<'\''>, 0>
FUNC 62da4 372 0 rapidxml::xml_document<char>::skip_and_expand_character_refs<rapidxml::xml_document<char>::attribute_value_pred<'\"'>, rapidxml::xml_document<char>::attribute_value_pure_pred<'\"'>, 0>
FUNC 63116 100 0 rapidxml::xml_document<char>::parse_and_append_data<0>
FUNC 63216 c9 0 rapidxml::internal::print_children<std::ostream_iterator<char, char, std::char_traits<char> >, char>
FUNC 632df 680 0 rapidxml::internal::print_element_node<std::ostream_iterator<char, char, std::char_traits<char> >, char>
FUNC 6395f 121 0 rapidxml::internal::print_data_node<std::ostream_iterator<char, char, std::char_traits<char> >, char>
FUNC 63a80 32c 0 rapidxml::internal::print_cdata_node<std::ostream_iterator<char, char, std::char_traits<char> >, char>
FUNC 63dac 204 0 rapidxml::internal::print_declaration_node<std::ostream_iterator<char, char, std::char_traits<char> >, char>
FUNC 63fb0 255 0 rapidxml::internal::print_comment_node<std::ostream_iterator<char, char, std::char_traits<char> >, char>
FUNC 64205 301 0 rapidxml::internal::print_doctype_node<std::ostream_iterator<char, char, std::char_traits<char> >, char>
FUNC 64506 2cb 0 rapidxml::internal::print_pi_node<std::ostream_iterator<char, char, std::char_traits<char> >, char>
FUNC 647d2 e 0 std::ostream_iterator<char, char, std::char_traits<char> >::operator++
FUNC 647e0 e 0 std::ostream_iterator<char, char, std::char_traits<char> >::operator*
FUNC 647ee 58 0 std::ostream_iterator<char, char, std::char_traits<char> >::operator=
FUNC 64846 a 0 __gnu_cxx::new_allocator<std::pair<const std::basic_string<char, std::char_traits<char>, std::allocator<char> >, Config::IntParameter> >::new_allocator
FUNC 64850 4e 0 __gnu_cxx::new_allocator<std::_Rb_tree_node<std::pair<const std::basic_string<char, std::char_traits<char>, std::allocator<char> >, Config::IntParameter> > >::allocate
FUNC 6489e a 0 __gnu_cxx::new_allocator<std::pair<const std::basic_string<char, std::char_traits<char>, std::allocator<char> >, Config::StringParameter> >::new_allocator
FUNC 648a8 4e 0 __gnu_cxx::new_allocator<std::_Rb_tree_node<std::pair<const std::basic_string<char, std::char_traits<char>, std::allocator<char> >, Config::StringParameter> > >::allocate
FUNC 648f6 3c 0 __gnu_cxx::operator!=<const Config::XmlGroup*, std::vector<Config::XmlGroup, std::allocator<Config::XmlGroup> > >
FUNC 64932 20 0 __gnu_cxx::__normal_iterator<const Config::XmlGroup*, std::vector<Config::XmlGroup, std::allocator<Config::XmlGroup> > >::operator++
FUNC 64952 11 0 __gnu_cxx::__normal_iterator<const Config::XmlGroup*, std::vector<Config::XmlGroup, std::allocator<Config::XmlGroup> > >::operator*
FUNC 64964 b9 0 std::vector<Config::XmlGroup, std::allocator<Config::XmlGroup> >::vector
FUNC 64a1e b9 0 std::vector<Config::XmlParameter, std::allocator<Config::XmlParameter> >::vector
FUNC 64ad7 3c 0 __gnu_cxx::operator!=<const Config::XmlParameter*, std::vector<Config::XmlParameter, std::allocator<Config::XmlParameter> > >
FUNC 64b14 20 0 __gnu_cxx::__normal_iterator<const Config::XmlParameter*, std::vector<Config::XmlParameter, std::allocator<Config::XmlParameter> > >::operator++
FUNC 64b34 11 0 __gnu_cxx::__normal_iterator<const Config::XmlParameter*, std::vector<Config::XmlParameter, std::allocator<Config::XmlParameter> > >::operator*
FUNC 64b45 58 0 std::__copy_move_backward_a2<false, char*, char*>
FUNC 64b9e 22 0 std::vector<char, std::allocator<char> >::max_size
FUNC 64bc0 1a 0 rapidxml::xml_attribute<char>::xml_attribute
FUNC 64bda 45 0 rapidxml::xml_document<char>::skip<rapidxml::xml_document<char>::attribute_value_pure_pred<'\''>, 0>
FUNC 64c1f 1b 0 attribute_value_pred<'\''>::test
FUNC 64c3a 1b1 0 rapidxml::xml_document<char>::insert_coded_character<0>
FUNC 64deb 45 0 rapidxml::xml_document<char>::skip<rapidxml::xml_document<char>::attribute_value_pure_pred<'\"'>, 0>
FUNC 64e30 1b 0 attribute_value_pred<'\"'>::test
FUNC 64e4b 372 0 rapidxml::xml_document<char>::skip_and_expand_character_refs<rapidxml::xml_document<char>::text_pred, rapidxml::xml_document<char>::text_pure_no_ws_pred, 0>
FUNC 651bd 79 0 rapidxml::internal::fill_chars<std::ostream_iterator<char, char, std::char_traits<char> >, char>
FUNC 65236 79 0 rapidxml::internal::copy_chars<std::ostream_iterator<char, char, std::char_traits<char> >, char>
FUNC 652af 3ac 0 rapidxml::internal::print_attributes<std::ostream_iterator<char, char, std::char_traits<char> >, char>
FUNC 6565b 53e 0 rapidxml::internal::copy_and_expand_chars<std::ostream_iterator<char, char, std::char_traits<char> >, char>
FUNC 65b9a 14 0 __gnu_cxx::new_allocator<std::_Rb_tree_node<std::pair<const std::basic_string<char, std::char_traits<char>, std::allocator<char> >, Config::IntParameter> > >::max_size
FUNC 65bae 14 0 __gnu_cxx::new_allocator<std::_Rb_tree_node<std::pair<const std::basic_string<char, std::char_traits<char>, std::allocator<char> >, Config::StringParameter> > >::max_size
FUNC 65bc2 e 0 std::_Vector_base<Config::XmlGroup, std::allocator<Config::XmlGroup> >::_M_get_Tp_allocator
FUNC 65bd0 a6 0 std::_Vector_base<Config::XmlGroup, std::allocator<Config::XmlGroup> >::_Vector_base
FUNC 65c76 e 0 std::_Vector_base<Config::XmlParameter, std::allocator<Config::XmlParameter> >::_M_get_Tp_allocator
FUNC 65c84 a6 0 std::_Vector_base<Config::XmlParameter, std::allocator<Config::XmlParameter> >::_Vector_base
FUNC 65d2a 31 0 std::__copy_move_backward_a<false, char*, char*>
FUNC 65d5c e 0 std::_Vector_base<char, std::allocator<char> >::_M_get_Tp_allocator
FUNC 65d6a 1b 0 attribute_value_pure_pred<'\''>::test
FUNC 65d85 1b 0 attribute_value_pure_pred<'\"'>::test
FUNC 65da0 1b 0 rapidxml::xml_document<char>::text_pred::test
FUNC 65dbb 45 0 rapidxml::xml_document<char>::skip<rapidxml::xml_document<char>::text_pure_no_ws_pred, 0>
FUNC 65e00 11 0 std::ostream_iterator<char, char, std::char_traits<char> >::operator++
FUNC 65e12 d0 0 rapidxml::xml_attribute<char>::next_attribute
FUNC 65ee2 40 0 rapidxml::internal::find_char<char, '\"'>
FUNC 65f22 48 0 std::_Vector_base<Config::XmlGroup, std::allocator<Config::XmlGroup> >::_Vector_impl::_Vector_impl
FUNC 65f6a 48 0 std::_Vector_base<Config::XmlParameter, std::allocator<Config::XmlParameter> >::_Vector_impl::_Vector_impl
FUNC 65fb2 54 0 std::__copy_move_backward<false, true, std::random_access_iterator_tag>::__copy_move_b<char>
FUNC 66006 1b 0 rapidxml::xml_document<char>::text_pure_no_ws_pred::test
FUNC 66022 25 0 std::allocator<Config::XmlGroup>::allocator
FUNC 66048 25 0 std::allocator<Config::XmlParameter>::allocator
FUNC 6606e e 0 __gnu_cxx::new_allocator<Config::XmlGroup>::new_allocator
FUNC 6607c e 0 __gnu_cxx::new_allocator<Config::XmlParameter>::new_allocator
FUNC 6608a 3a 0 boost::detail::sp_counted_impl_p<Config::ConfigCenter>::~sp_counted_impl_p
FUNC 660c4 26 0 boost::detail::sp_counted_impl_p<Config::ConfigCenter>::~sp_counted_impl_p
FUNC 660ea 1e 0 boost::detail::sp_counted_impl_p<Config::ConfigCenter>::dispose
FUNC 66108 13 0 boost::detail::sp_counted_impl_p<Config::ConfigCenter>::get_deleter
FUNC 66122 6c 0 boost::exception_detail::clone_impl<boost::exception_detail::error_info_injector<boost::condition_error> >::clone
FUNC 66194 53 0 boost::exception_detail::clone_impl<boost::exception_detail::error_info_injector<boost::condition_error> >::rethrow
FUNC 661e8 e5 0 Config::IntParameter::IntParameter
FUNC 662ce 113 0 Config::IntParameter::IntParameter
FUNC 663e2 77 0 Config::IntParameter::~IntParameter
FUNC 6645a 40 0 Config::IntParameter::get
FUNC 6649a 190 0 Config::IntParameter::set
FUNC 6662a 48e 0 Config::IntParameter::set
FUNC 66ab8 1d9 0 Config::IntParameter::setRange
FUNC 66c92 53 0 Config::IntParameter::setRange
FUNC 66ce6 8d 0 Config::IntParameter::registerWatcher
FUNC 66d74 7a 0 Config::IntParameter::unregisterWatcher
FUNC 66dee 181 0 __static_initialization_and_destruction_0
FUNC 66f6f 15 0 _GLOBAL__I__ZN6Config12IntParameterC2ERKSs
FUNC 66f84 15 0 boost::function_base::function_base
FUNC 66f9a 17 0 boost::function_base::empty
FUNC 66fb2 14 0 boost::function_base::has_trivial_copy_and_destroy
FUNC 66fc6 ab 0 boost::bad_function_call::bad_function_call
FUNC 67072 f1 0 boost::shared_mutex::lock_upgrade
FUNC 67164 70 0 boost::shared_mutex::unlock_upgrade
FUNC 671d4 d7 0 boost::shared_mutex::unlock_upgrade_and_lock
FUNC 672ac 64 0 boost::shared_mutex::unlock_and_lock_upgrade
FUNC 67310 e 0 Config::IntParameter::_getName
FUNC 6731e 1a 0 std::map<void*, boost::function<void(int)>, std::less<void*>, std::allocator<std::pair<void* const, boost::function<void(int)> > > >::~map
FUNC 67338 76 0 std::runtime_error::runtime_error
FUNC 673ae 3a 0 boost::bad_function_call::~bad_function_call
FUNC 673e8 26 0 boost::bad_function_call::~bad_function_call
FUNC 6740e 1a 0 std::map<void*, boost::function<void(int)>, std::less<void*>, std::allocator<std::pair<void* const, boost::function<void(int)> > > >::map
FUNC 67428 1a 0 std::_Rb_tree<void*, std::pair<void* const, boost::function<void(int)> >, std::_Select1st<std::pair<void* const, boost::function<void(int)> > >, std::less<void*>, std::allocator<std::pair<void* const, boost::function<void(int)> > > >::_Rb_tree_impl<std::less<void*>, false>::~_Rb_tree_impl
FUNC 67442 63 0 std::_Rb_tree<void*, std::pair<void* const, boost::function<void(int)> >, std::_Select1st<std::pair<void* const, boost::function<void(int)> > >, std::less<void*>, std::allocator<std::pair<void* const, boost::function<void(int)> > > >::~_Rb_tree
FUNC 674a6 31 0 boost::upgrade_lock<boost::shared_mutex>::upgrade_lock
FUNC 674d8 2d 0 boost::upgrade_lock<boost::shared_mutex>::~upgrade_lock
FUNC 67506 52 0 boost::upgrade_to_unique_lock<boost::shared_mutex>::upgrade_to_unique_lock
FUNC 67558 91 0 boost::upgrade_to_unique_lock<boost::shared_mutex>::~upgrade_to_unique_lock
FUNC 675ea 1a 0 std::map<void*, boost::function<void(int)>, std::less<void*>, std::allocator<std::pair<void* const, boost::function<void(int)> > > >::begin
FUNC 67604 1a 0 std::map<void*, boost::function<void(int)>, std::less<void*>, std::allocator<std::pair<void* const, boost::function<void(int)> > > >::end
FUNC 6761e 22 0 std::_Rb_tree_iterator<std::pair<void* const, boost::function<void(int)> > >::operator!=
FUNC 67640 36 0 std::_Rb_tree_iterator<std::pair<void* const, boost::function<void(int)> > >::operator++
FUNC 67676 15 0 std::_Rb_tree_iterator<std::pair<void* const, boost::function<void(int)> > >::operator->
FUNC 6768c 84 0 boost::function1<void, int>::operator()
FUNC 67710 1a 0 boost::function<void(int)>::~function
FUNC 6772a 1e 0 std::pair<void* const, boost::function<void(int)> >::~pair
FUNC 67748 161 0 std::map<void*, boost::function<void(int)>, std::less<void*>, std::allocator<std::pair<void* const, boost::function<void(int)> > > >::operator[]
FUNC 678aa 73 0 boost::function<void(int)>::operator=
FUNC 6791e 25 0 std::map<void*, boost::function<void(int)>, std::less<void*>, std::allocator<std::pair<void* const, boost::function<void(int)> > > >::erase
FUNC 67944 30 0 boost::bad_function_call::bad_function_call
FUNC 67974 80 0 boost::exception_detail::error_info_injector<boost::bad_function_call>::error_info_injector
FUNC 679f4 63 0 boost::exception_detail::clone_impl<boost::exception_detail::error_info_injector<boost::bad_function_call> >::clone_impl
FUNC 67a57 a2 0 boost::throw_exception<boost::bad_function_call>
FUNC 67afa 1a 0 std::_Rb_tree<void*, std::pair<void* const, boost::function<void(int)> >, std::_Select1st<std::pair<void* const, boost::function<void(int)> > >, std::less<void*>, std::allocator<std::pair<void* const, boost::function<void(int)> > > >::_Rb_tree
FUNC 67b14 1a 0 std::allocator<std::_Rb_tree_node<std::pair<void* const, boost::function<void(int)> > > >::~allocator
FUNC 67b2e 69 0 std::_Rb_tree<void*, std::pair<void* const, boost::function<void(int)> >, std::_Select1st<std::pair<void* const, boost::function<void(int)> > >, std::less<void*>, std::allocator<std::pair<void* const, boost::function<void(int)> > > >::_M_erase
FUNC 67b98 12 0 std::_Rb_tree<void*, std::pair<void* const, boost::function<void(int)> >, std::_Select1st<std::pair<void* const, boost::function<void(int)> > >, std::less<void*>, std::allocator<std::pair<void* const, boost::function<void(int)> > > >::_M_begin
FUNC 67baa 76 0 boost::upgrade_lock<boost::shared_mutex>::lock
FUNC 67c20 12 0 boost::upgrade_lock<boost::shared_mutex>::owns_lock
FUNC 67c32 19 0 boost::detail::thread_move_t<boost::upgrade_lock<boost::shared_mutex> >::thread_move_t
FUNC 67c4b e 0 boost::move<boost::upgrade_lock<boost::shared_mutex> >
FUNC 67c5a 6a 0 boost::unique_lock<boost::shared_mutex>::unique_lock
FUNC 67cc4 19 0 boost::detail::thread_move_t<boost::unique_lock<boost::shared_mutex> >::thread_move_t
FUNC 67cdd e 0 boost::move<boost::unique_lock<boost::shared_mutex> >
FUNC 67cec 74 0 boost::upgrade_lock<boost::shared_mutex>::operator=
FUNC 67d60 2c 0 std::_Rb_tree<void*, std::pair<void* const, boost::function<void(int)> >, std::_Select1st<std::pair<void* const, boost::function<void(int)> > >, std::less<void*>, std::allocator<std::pair<void* const, boost::function<void(int)> > > >::begin
FUNC 67d8c 2c 0 std::_Rb_tree<void*, std::pair<void* const, boost::function<void(int)> >, std::_Select1st<std::pair<void* const, boost::function<void(int)> > >, std::less<void*>, std::allocator<std::pair<void* const, boost::function<void(int)> > > >::end
FUNC 67db8 15 0 boost::function1<void, int>::get_vtable
FUNC 67dce 25 0 std::map<void*, boost::function<void(int)>, std::less<void*>, std::allocator<std::pair<void* const, boost::function<void(int)> > > >::lower_bound
FUNC 67df4 1a 0 std::map<void*, boost::function<void(int)>, std::less<void*>, std::allocator<std::pair<void* const, boost::function<void(int)> > > >::key_comp
FUNC 67e0e 15 0 std::_Rb_tree_iterator<std::pair<void* const, boost::function<void(int)> > >::operator*
FUNC 67e24 26 0 std::less<void*>::operator()
FUNC 67e4a 22 0 std::_Rb_tree_iterator<std::pair<void* const, boost::function<void(int)> > >::operator==
FUNC 67e6c 1a 0 boost::function<void(int)>::function
FUNC 67e86 1a 0 boost::function1<void, int>::~function1
FUNC 67ea0 3b 0 std::pair<void* const, boost::function<void(int)> >::pair
FUNC 67edc 40 0 std::map<void*, boost::function<void(int)>, std::less<void*>, std::allocator<std::pair<void* const, boost::function<void(int)> > > >::insert
FUNC 67f1c 25 0 boost::function<void(int)>::function
FUNC 67f42 9b 0 boost::function1<void, int>::swap
FUNC 67fde 83 0 std::_Rb_tree<void*, std::pair<void* const, boost::function<void(int)> >, std::_Select1st<std::pair<void* const, boost::function<void(int)> > >, std::less<void*>, std::allocator<std::pair<void* const, boost::function<void(int)> > > >::erase
FUNC 68061 2f 0 boost::enable_error_info<boost::bad_function_call>
FUNC 68090 93 0 boost::exception_detail::error_info_injector<boost::bad_function_call>::~error_info_injector
FUNC 68132 26 0 boost::exception_detail::error_info_injector<boost::bad_function_call>::~error_info_injector
FUNC 68158 2f 0 boost::enable_current_exception<boost::exception_detail::error_info_injector<boost::bad_function_call> >
FUNC 68188 7a 0 boost::exception_detail::clone_impl<boost::exception_detail::error_info_injector<boost::bad_function_call> >::~clone_impl
FUNC 68220 26 0 boost::exception_detail::clone_impl<boost::exception_detail::error_info_injector<boost::bad_function_call> >::~clone_impl
FUNC 68246 61 0 std::_Rb_tree<void*, std::pair<void* const, boost::function<void(int)> >, std::_Select1st<std::pair<void* const, boost::function<void(int)> > >, std::less<void*>, std::allocator<std::pair<void* const, boost::function<void(int)> > > >::_Rb_tree_impl<std::less<void*>, false>::_Rb_tree_impl
FUNC 682a8 a 0 __gnu_cxx::new_allocator<std::_Rb_tree_node<std::pair<void* const, boost::function<void(int)> > > >::~new_allocator
FUNC 682b2 12 0 std::_Rb_tree<void*, std::pair<void* const, boost::function<void(int)> >, std::_Select1st<std::pair<void* const, boost::function<void(int)> > >, std::less<void*>, std::allocator<std::pair<void* const, boost::function<void(int)> > > >::_S_right
FUNC 682c4 12 0 std::_Rb_tree<void*, std::pair<void* const, boost::function<void(int)> >, std::_Select1st<std::pair<void* const, boost::function<void(int)> > >, std::less<void*>, std::allocator<std::pair<void* const, boost::function<void(int)> > > >::_S_left
FUNC 682d6 86 0 std::_Rb_tree<void*, std::pair<void* const, boost::function<void(int)> >, std::_Select1st<std::pair<void* const, boost::function<void(int)> > >, std::less<void*>, std::allocator<std::pair<void* const, boost::function<void(int)> > > >::_M_destroy_node
FUNC 6835c 11 0 boost::detail::thread_move_t<boost::upgrade_lock<boost::shared_mutex> >::operator->
FUNC 6836e 7d 0 boost::upgrade_lock<boost::shared_mutex>::upgrade_lock
FUNC 683ec 40 0 boost::upgrade_lock<boost::shared_mutex>::swap
FUNC 6842c 19 0 std::_Rb_tree_iterator<std::pair<void* const, boost::function<void(int)> > >::_Rb_tree_iterator
FUNC 68446 53 0 std::_Rb_tree<void*, std::pair<void* const, boost::function<void(int)> >, std::_Select1st<std::pair<void* const, boost::function<void(int)> > >, std::less<void*>, std::allocator<std::pair<void* const, boost::function<void(int)> > > >::lower_bound
FUNC 6849a a 0 std::_Rb_tree<void*, std::pair<void* const, boost::function<void(int)> >, std::_Select1st<std::pair<void* const, boost::function<void(int)> > >, std::less<void*>, std::allocator<std::pair<void* const, boost::function<void(int)> > > >::key_comp
FUNC 684a4 a 0 std::unary_function<int, void>::unary_function
FUNC 684ae 26 0 boost::function1<void, int>::function1
FUNC 684d4 5d 0 boost::function1<void, int>::clear
FUNC 68532 1c 0 std::_Rb_tree_const_iterator<std::pair<void* const, boost::function<void(int)> > >::_Rb_tree_const_iterator
FUNC 6854e 4c0 0 std::_Rb_tree<void*, std::pair<void* const, boost::function<void(int)> >, std::_Select1st<std::pair<void* const, boost::function<void(int)> > >, std::less<void*>, std::allocator<std::pair<void* const, boost::function<void(int)> > > >::_M_insert_unique_
FUNC 68a0e 3d 0 boost::function1<void, int>::function1
FUNC 68a4c f5 0 boost::function1<void, int>::move_assign
FUNC 68b42 204 0 std::_Rb_tree<void*, std::pair<void* const, boost::function<void(int)> >, std::_Select1st<std::pair<void* const, boost::function<void(int)> > >, std::less<void*>, std::allocator<std::pair<void* const, boost::function<void(int)> > > >::equal_range
FUNC 68d46 12 0 std::_Rb_tree<void*, std::pair<void* const, boost::function<void(int)> >, std::_Select1st<std::pair<void* const, boost::function<void(int)> > >, std::less<void*>, std::allocator<std::pair<void* const, boost::function<void(int)> > > >::size
FUNC 68d58 bc 0 std::_Rb_tree<void*, std::pair<void* const, boost::function<void(int)> >, std::_Select1st<std::pair<void* const, boost::function<void(int)> > >, std::less<void*>, std::allocator<std::pair<void* const, boost::function<void(int)> > > >::erase
FUNC 68e14 4c 0 boost::exception_detail::error_info_injector<boost::bad_function_call>::error_info_injector
FUNC 68e60 b9 0 boost::exception_detail::clone_impl<boost::exception_detail::error_info_injector<boost::bad_function_call> >::clone_impl
FUNC 68f1a 1a 0 std::allocator<std::_Rb_tree_node<std::pair<void* const, boost::function<void(int)> > > >::allocator
FUNC 68f34 41 0 std::_Rb_tree<void*, std::pair<void* const, boost::function<void(int)> >, std::_Select1st<std::pair<void* const, boost::function<void(int)> > >, std::less<void*>, std::allocator<std::pair<void* const, boost::function<void(int)> > > >::_Rb_tree_impl<std::less<void*>, false>::_M_initialize
FUNC 68f76 3b 0 std::_Rb_tree<void*, std::pair<void* const, boost::function<void(int)> >, std::_Select1st<std::pair<void* const, boost::function<void(int)> > >, std::less<void*>, std::allocator<std::pair<void* const, boost::function<void(int)> > > >::get_allocator
FUNC 68fb2 1a 0 std::allocator<std::pair<void* const, boost::function<void(int)> > >::~allocator
FUNC 68fcc 1e 0 __gnu_cxx::new_allocator<std::pair<void* const, boost::function<void(int)> > >::destroy
FUNC 68fea 2a 0 std::_Rb_tree<void*, std::pair<void* const, boost::function<void(int)> >, std::_Select1st<std::pair<void* const, boost::function<void(int)> > >, std::less<void*>, std::allocator<std::pair<void* const, boost::function<void(int)> > > >::_M_put_node
FUNC 69014 11 0 boost::detail::thread_move_t<boost::unique_lock<boost::shared_mutex> >::operator->
FUNC 69025 32 0 std::swap<boost::shared_mutex*>
FUNC 69058 12 0 std::_Rb_tree<void*, std::pair<void* const, boost::function<void(int)> >, std::_Select1st<std::pair<void* const, boost::function<void(int)> > >, std::less<void*>, std::allocator<std::pair<void* const, boost::function<void(int)> > > >::_M_end
FUNC 6906a 92 0 std::_Rb_tree<void*, std::pair<void* const, boost::function<void(int)> >, std::_Select1st<std::pair<void* const, boost::function<void(int)> > >, std::less<void*>, std::allocator<std::pair<void* const, boost::function<void(int)> > > >::_M_lower_bound
FUNC 690fc 40 0 boost::detail::function::basic_vtable1<void, int>::clear
FUNC 6913c 12 0 std::_Rb_tree<void*, std::pair<void* const, boost::function<void(int)> >, std::_Select1st<std::pair<void* const, boost::function<void(int)> > >, std::less<void*>, std::allocator<std::pair<void* const, boost::function<void(int)> > > >::_M_rightmost
FUNC 6914e 2c 0 std::_Rb_tree<void*, std::pair<void* const, boost::function<void(int)> >, std::_Select1st<std::pair<void* const, boost::function<void(int)> > >, std::less<void*>, std::allocator<std::pair<void* const, boost::function<void(int)> > > >::_S_key
FUNC 6917a 12 0 std::_Select1st<std::pair<void* const, boost::function<void(int)> > >::operator()
FUNC 6918c e3 0 std::_Rb_tree<void*, std::pair<void* const, boost::function<void(int)> >, std::_Select1st<std::pair<void* const, boost::function<void(int)> > >, std::less<void*>, std::allocator<std::pair<void* const, boost::function<void(int)> > > >::_M_insert_
FUNC 69270 271 0 std::_Rb_tree<void*, std::pair<void* const, boost::function<void(int)> >, std::_Select1st<std::pair<void* const, boost::function<void(int)> > >, std::less<void*>, std::allocator<std::pair<void* const, boost::function<void(int)> > > >::_M_insert_unique
FUNC 694e2 12 0 std::_Rb_tree<void*, std::pair<void* const, boost::function<void(int)> >, std::_Select1st<std::pair<void* const, boost::function<void(int)> > >, std::less<void*>, std::allocator<std::pair<void* const, boost::function<void(int)> > > >::_M_leftmost
FUNC 694f4 28 0 std::_Rb_tree_const_iterator<std::pair<void* const, boost::function<void(int)> > >::operator--
FUNC 6951c 12 0 std::_Rb_tree<void*, std::pair<void* const, boost::function<void(int)> >, std::_Select1st<std::pair<void* const, boost::function<void(int)> > >, std::less<void*>, std::allocator<std::pair<void* const, boost::function<void(int)> > > >::_S_right
FUNC 6952e 28 0 std::_Rb_tree_const_iterator<std::pair<void* const, boost::function<void(int)> > >::operator++
FUNC 69556 97 0 boost::function1<void, int>::assign_to_own
FUNC 695ed 2c 0 std::_Rb_tree<void*, std::pair<void* const, boost::function<void(int)> >, std::_Select1st<std::pair<void* const, boost::function<void(int)> > >, std::less<void*>, std::allocator<std::pair<void* const, boost::function<void(int)> > > >::_S_key
FUNC 6961a 8f 0 std::_Rb_tree<void*, std::pair<void* const, boost::function<void(int)> >, std::_Select1st<std::pair<void* const, boost::function<void(int)> > >, std::less<void*>, std::allocator<std::pair<void* const, boost::function<void(int)> > > >::_M_upper_bound
FUNC 696aa 2f 0 std::pair<std::_Rb_tree_iterator<std::pair<void* const, boost::function<void(int)> > >, std::_Rb_tree_iterator<std::pair<void* const, boost::function<void(int)> > > >::pair
FUNC 696da 8d 0 std::_Rb_tree<void*, std::pair<void* const, boost::function<void(int)> >, std::_Select1st<std::pair<void* const, boost::function<void(int)> > >, std::less<void*>, std::allocator<std::pair<void* const, boost::function<void(int)> > > >::clear
FUNC 69768 54 0 std::_Rb_tree<void*, std::pair<void* const, boost::function<void(int)> >, std::_Select1st<std::pair<void* const, boost::function<void(int)> > >, std::less<void*>, std::allocator<std::pair<void* const, boost::function<void(int)> > > >::erase
FUNC 697bc a 0 __gnu_cxx::new_allocator<std::_Rb_tree_node<std::pair<void* const, boost::function<void(int)> > > >::new_allocator
FUNC 697c6 e 0 std::_Rb_tree<void*, std::pair<void* const, boost::function<void(int)> >, std::_Select1st<std::pair<void* const, boost::function<void(int)> > >, std::less<void*>, std::allocator<std::pair<void* const, boost::function<void(int)> > > >::_M_get_Node_allocator
FUNC 697d4 1e 0 std::allocator<std::pair<void* const, boost::function<void(int)> > >::allocator<std::_Rb_tree_node<std::pair<void* const, boost::function<void(int)> > > >
FUNC 697f2 a 0 __gnu_cxx::new_allocator<std::pair<void* const, boost::function<void(int)> > >::~new_allocator
FUNC 697fc 22 0 __gnu_cxx::new_allocator<std::_Rb_tree_node<std::pair<void* const, boost::function<void(int)> > > >::deallocate
FUNC 6981e 12 0 std::_Rb_tree<void*, std::pair<void* const, boost::function<void(int)> >, std::_Select1st<std::pair<void* const, boost::function<void(int)> > >, std::less<void*>, std::allocator<std::pair<void* const, boost::function<void(int)> > > >::_S_value
FUNC 69830 bb 0 std::_Rb_tree<void*, std::pair<void* const, boost::function<void(int)> >, std::_Select1st<std::pair<void* const, boost::function<void(int)> > >, std::less<void*>, std::allocator<std::pair<void* const, boost::function<void(int)> > > >::_M_create_node
FUNC 698ec 2e 0 std::pair<std::_Rb_tree_iterator<std::pair<void* const, boost::function<void(int)> > >, bool>::pair
FUNC 6991a 28 0 std::_Rb_tree_iterator<std::pair<void* const, boost::function<void(int)> > >::operator--
FUNC 69942 12 0 std::_Rb_tree<void*, std::pair<void* const, boost::function<void(int)> >, std::_Select1st<std::pair<void* const, boost::function<void(int)> > >, std::less<void*>, std::allocator<std::pair<void* const, boost::function<void(int)> > > >::_S_value
FUNC 69954 12 0 std::_Rb_tree<void*, std::pair<void* const, boost::function<void(int)> >, std::_Select1st<std::pair<void* const, boost::function<void(int)> > >, std::less<void*>, std::allocator<std::pair<void* const, boost::function<void(int)> > > >::_M_root
FUNC 69966 a 0 __gnu_cxx::new_allocator<std::pair<void* const, boost::function<void(int)> > >::new_allocator
FUNC 69970 24 0 std::_Rb_tree<void*, std::pair<void* const, boost::function<void(int)> >, std::_Select1st<std::pair<void* const, boost::function<void(int)> > >, std::less<void*>, std::allocator<std::pair<void* const, boost::function<void(int)> > > >::_M_get_node
FUNC 69994 3b 0 std::pair<void* const, boost::function<void(int)> >::pair
FUNC 699d0 77 0 __gnu_cxx::new_allocator<std::pair<void* const, boost::function<void(int)> > >::construct
FUNC 69a48 55 0 __gnu_cxx::new_allocator<std::_Rb_tree_node<std::pair<void* const, boost::function<void(int)> > > >::allocate
FUNC 69a9e 14 0 __gnu_cxx::new_allocator<std::_Rb_tree_node<std::pair<void* const, boost::function<void(int)> > > >::max_size
FUNC 69ab8 6c 0 boost::exception_detail::clone_impl<boost::exception_detail::error_info_injector<boost::bad_function_call> >::clone
FUNC 69b2a 53 0 boost::exception_detail::clone_impl<boost::exception_detail::error_info_injector<boost::bad_function_call> >::rethrow
FUNC 69b80 e9 0 Config::StringParameter::StringParameter
FUNC 69c6a 103 0 Config::StringParameter::StringParameter
FUNC 69d6e a6 0 Config::StringParameter::~StringParameter
FUNC 69e14 7b 0 Config::StringParameter::get
FUNC 69e90 2a1 0 Config::StringParameter::set
FUNC 6a132 8d 0 Config::StringParameter::registerWatcher
FUNC 6a1c0 7a 0 Config::StringParameter::unregisterWatcher
FUNC 6a23a 181 0 __static_initialization_and_destruction_0
FUNC 6a3bb 15 0 _GLOBAL__I__ZN6Config15StringParameterC2ERKSs
FUNC 6a3d0 2d 0 std::char_traits<char>::compare
FUNC 6a3fe e 0 Config::StringParameter::_getName
FUNC 6a40c 1a 0 std::map<void*, boost::function<void(const std::string&)>, std::less<void*>, std::allocator<std::pair<void* const, boost::function<void(const std::string&)> > > >::~map
FUNC 6a426 1a 0 std::map<void*, boost::function<void(const std::string&)>, std::less<void*>, std::allocator<std::pair<void* const, boost::function<void(const std::string&)> > > >::map
FUNC 6a440 1a 0 std::_Rb_tree<void*, std::pair<void* const, boost::function<void(const std::string&)> >, std::_Select1st<std::pair<void* const, boost::function<void(const std::string&)> > >, std::less<void*>, std::allocator<std::pair<void* const, boost::function<void(const std::string&)> > > >::_Rb_tree_impl<std::less<void*>, false>::~_Rb_tree_impl
FUNC 6a45a 63 0 std::_Rb_tree<void*, std::pair<void* const, boost::function<void(const std::string&)> >, std::_Select1st<std::pair<void* const, boost::function<void(const std::string&)> > >, std::less<void*>, std::allocator<std::pair<void* const, boost::function<void(const std::string&)> > > >::~_Rb_tree
FUNC 6a4bd 84 0 std::operator==<char>
FUNC 6a542 1a 0 std::map<void*, boost::function<void(const std::string&)>, std::less<void*>, std::allocator<std::pair<void* const, boost::function<void(const std::string&)> > > >::begin
FUNC 6a55c 1a 0 std::map<void*, boost::function<void(const std::string&)>, std::less<void*>, std::allocator<std::pair<void* const, boost::function<void(const std::string&)> > > >::end
FUNC 6a576 22 0 std::_Rb_tree_iterator<std::pair<void* const, boost::function<void(const std::string&)> > >::operator!=
FUNC 6a598 36 0 std::_Rb_tree_iterator<std::pair<void* const, boost::function<void(const std::string&)> > >::operator++
FUNC 6a5ce 15 0 std::_Rb_tree_iterator<std::pair<void* const, boost::function<void(const std::string&)> > >::operator->
FUNC 6a5e4 87 0 boost::function1<void, const std::string&>::operator()
FUNC 6a66c 1a 0 boost::function<void(const std::string&)>::~function
FUNC 6a686 1e 0 std::pair<void* const, boost::function<void(const std::string&)> >::~pair
FUNC 6a6a4 161 0 std::map<void*, boost::function<void(const std::string&)>, std::less<void*>, std::allocator<std::pair<void* const, boost::function<void(const std::string&)> > > >::operator[]
FUNC 6a806 73 0 boost::function<void(const std::string&)>::operator=
FUNC 6a87a 25 0 std::map<void*, boost::function<void(const std::string&)>, std::less<void*>, std::allocator<std::pair<void* const, boost::function<void(const std::string&)> > > >::erase
FUNC 6a8a0 1a 0 std::_Rb_tree<void*, std::pair<void* const, boost::function<void(const std::string&)> >, std::_Select1st<std::pair<void* const, boost::function<void(const std::string&)> > >, std::less<void*>, std::allocator<std::pair<void* const, boost::function<void(const std::string&)> > > >::_Rb_tree
FUNC 6a8ba 1a 0 std::allocator<std::_Rb_tree_node<std::pair<void* const, boost::function<void(const std::string&)> > > >::~allocator
FUNC 6a8d4 69 0 std::_Rb_tree<void*, std::pair<void* const, boost::function<void(const std::string&)> >, std::_Select1st<std::pair<void* const, boost::function<void(const std::string&)> > >, std::less<void*>, std::allocator<std::pair<void* const, boost::function<void(const std::string&)> > > >::_M_erase
FUNC 6a93e 12 0 std::_Rb_tree<void*, std::pair<void* const, boost::function<void(const std::string&)> >, std::_Select1st<std::pair<void* const, boost::function<void(const std::string&)> > >, std::less<void*>, std::allocator<std::pair<void* const, boost::function<void(const std::string&)> > > >::_M_begin
FUNC 6a950 2c 0 std::_Rb_tree<void*, std::pair<void* const, boost::function<void(const std::string&)> >, std::_Select1st<std::pair<void* const, boost::function<void(const std::string&)> > >, std::less<void*>, std::allocator<std::pair<void* const, boost::function<void(const std::string&)> > > >::begin
FUNC 6a97c 2c 0 std::_Rb_tree<void*, std::pair<void* const, boost::function<void(const std::string&)> >, std::_Select1st<std::pair<void* const, boost::function<void(const std::string&)> > >, std::less<void*>, std::allocator<std::pair<void* const, boost::function<void(const std::string&)> > > >::end
FUNC 6a9a8 15 0 boost::function1<void, const std::string&>::get_vtable
FUNC 6a9be 25 0 std::map<void*, boost::function<void(const std::string&)>, std::less<void*>, std::allocator<std::pair<void* const, boost::function<void(const std::string&)> > > >::lower_bound
FUNC 6a9e4 1a 0 std::map<void*, boost::function<void(const std::string&)>, std::less<void*>, std::allocator<std::pair<void* const, boost::function<void(const std::string&)> > > >::key_comp
FUNC 6a9fe 15 0 std::_Rb_tree_iterator<std::pair<void* const, boost::function<void(const std::string&)> > >::operator*
FUNC 6aa14 22 0 std::_Rb_tree_iterator<std::pair<void* const, boost::function<void(const std::string&)> > >::operator==
FUNC 6aa36 1a 0 boost::function<void(const std::string&)>::function
FUNC 6aa50 1a 0 boost::function1<void, const std::string&>::~function1
FUNC 6aa6a 3b 0 std::pair<void* const, boost::function<void(const std::string&)> >::pair
FUNC 6aaa6 40 0 std::map<void*, boost::function<void(const std::string&)>, std::less<void*>, std::allocator<std::pair<void* const, boost::function<void(const std::string&)> > > >::insert
FUNC 6aae6 25 0 boost::function<void(const std::string&)>::function
FUNC 6ab0c 9b 0 boost::function1<void, const std::string&>::swap
FUNC 6aba8 83 0 std::_Rb_tree<void*, std::pair<void* const, boost::function<void(const std::string&)> >, std::_Select1st<std::pair<void* const, boost::function<void(const std::string&)> > >, std::less<void*>, std::allocator<std::pair<void* const, boost::function<void(const std::string&)> > > >::erase
FUNC 6ac2c 61 0 std::_Rb_tree<void*, std::pair<void* const, boost::function<void(const std::string&)> >, std::_Select1st<std::pair<void* const, boost::function<void(const std::string&)> > >, std::less<void*>, std::allocator<std::pair<void* const, boost::function<void(const std::string&)> > > >::_Rb_tree_impl<std::less<void*>, false>::_Rb_tree_impl
FUNC 6ac8e a 0 __gnu_cxx::new_allocator<std::_Rb_tree_node<std::pair<void* const, boost::function<void(const std::string&)> > > >::~new_allocator
FUNC 6ac98 12 0 std::_Rb_tree<void*, std::pair<void* const, boost::function<void(const std::string&)> >, std::_Select1st<std::pair<void* const, boost::function<void(const std::string&)> > >, std::less<void*>, std::allocator<std::pair<void* const, boost::function<void(const std::string&)> > > >::_S_right
FUNC 6acaa 12 0 std::_Rb_tree<void*, std::pair<void* const, boost::function<void(const std::string&)> >, std::_Select1st<std::pair<void* const, boost::function<void(const std::string&)> > >, std::less<void*>, std::allocator<std::pair<void* const, boost::function<void(const std::string&)> > > >::_S_left
FUNC 6acbc 86 0 std::_Rb_tree<void*, std::pair<void* const, boost::function<void(const std::string&)> >, std::_Select1st<std::pair<void* const, boost::function<void(const std::string&)> > >, std::less<void*>, std::allocator<std::pair<void* const, boost::function<void(const std::string&)> > > >::_M_destroy_node
FUNC 6ad42 19 0 std::_Rb_tree_iterator<std::pair<void* const, boost::function<void(const std::string&)> > >::_Rb_tree_iterator
FUNC 6ad5c 53 0 std::_Rb_tree<void*, std::pair<void* const, boost::function<void(const std::string&)> >, std::_Select1st<std::pair<void* const, boost::function<void(const std::string&)> > >, std::less<void*>, std::allocator<std::pair<void* const, boost::function<void(const std::string&)> > > >::lower_bound
FUNC 6adb0 a 0 std::_Rb_tree<void*, std::pair<void* const, boost::function<void(const std::string&)> >, std::_Select1st<std::pair<void* const, boost::function<void(const std::string&)> > >, std::less<void*>, std::allocator<std::pair<void* const, boost::function<void(const std::string&)> > > >::key_comp
FUNC 6adba a 0 std::unary_function<const std::string&, void>::unary_function
FUNC 6adc4 26 0 boost::function1<void, const std::string&>::function1
FUNC 6adea 5d 0 boost::function1<void, const std::string&>::clear
FUNC 6ae48 1c 0 std::_Rb_tree_const_iterator<std::pair<void* const, boost::function<void(const std::string&)> > >::_Rb_tree_const_iterator
FUNC 6ae64 4c0 0 std::_Rb_tree<void*, std::pair<void* const, boost::function<void(const std::string&)> >, std::_Select1st<std::pair<void* const, boost::function<void(const std::string&)> > >, std::less<void*>, std::allocator<std::pair<void* const, boost::function<void(const std::string&)> > > >::_M_insert_unique_
FUNC 6b324 3d 0 boost::function1<void, const std::string&>::function1
FUNC 6b362 f5 0 boost::function1<void, const std::string&>::move_assign
FUNC 6b458 204 0 std::_Rb_tree<void*, std::pair<void* const, boost::function<void(const std::string&)> >, std::_Select1st<std::pair<void* const, boost::function<void(const std::string&)> > >, std::less<void*>, std::allocator<std::pair<void* const, boost::function<void(const std::string&)> > > >::equal_range
FUNC 6b65c 12 0 std::_Rb_tree<void*, std::pair<void* const, boost::function<void(const std::string&)> >, std::_Select1st<std::pair<void* const, boost::function<void(const std::string&)> > >, std::less<void*>, std::allocator<std::pair<void* const, boost::function<void(const std::string&)> > > >::size
FUNC 6b66e bc 0 std::_Rb_tree<void*, std::pair<void* const, boost::function<void(const std::string&)> >, std::_Select1st<std::pair<void* const, boost::function<void(const std::string&)> > >, std::less<void*>, std::allocator<std::pair<void* const, boost::function<void(const std::string&)> > > >::erase
FUNC 6b72a 1a 0 std::allocator<std::_Rb_tree_node<std::pair<void* const, boost::function<void(const std::string&)> > > >::allocator
FUNC 6b744 41 0 std::_Rb_tree<void*, std::pair<void* const, boost::function<void(const std::string&)> >, std::_Select1st<std::pair<void* const, boost::function<void(const std::string&)> > >, std::less<void*>, std::allocator<std::pair<void* const, boost::function<void(const std::string&)> > > >::_Rb_tree_impl<std::less<void*>, false>::_M_initialize
FUNC 6b786 3b 0 std::_Rb_tree<void*, std::pair<void* const, boost::function<void(const std::string&)> >, std::_Select1st<std::pair<void* const, boost::function<void(const std::string&)> > >, std::less<void*>, std::allocator<std::pair<void* const, boost::function<void(const std::string&)> > > >::get_allocator
FUNC 6b7c2 1a 0 std::allocator<std::pair<void* const, boost::function<void(const std::string&)> > >::~allocator
FUNC 6b7dc 1e 0 __gnu_cxx::new_allocator<std::pair<void* const, boost::function<void(const std::string&)> > >::destroy
FUNC 6b7fa 2a 0 std::_Rb_tree<void*, std::pair<void* const, boost::function<void(const std::string&)> >, std::_Select1st<std::pair<void* const, boost::function<void(const std::string&)> > >, std::less<void*>, std::allocator<std::pair<void* const, boost::function<void(const std::string&)> > > >::_M_put_node
FUNC 6b824 12 0 std::_Rb_tree<void*, std::pair<void* const, boost::function<void(const std::string&)> >, std::_Select1st<std::pair<void* const, boost::function<void(const std::string&)> > >, std::less<void*>, std::allocator<std::pair<void* const, boost::function<void(const std::string&)> > > >::_M_end
FUNC 6b836 92 0 std::_Rb_tree<void*, std::pair<void* const, boost::function<void(const std::string&)> >, std::_Select1st<std::pair<void* const, boost::function<void(const std::string&)> > >, std::less<void*>, std::allocator<std::pair<void* const, boost::function<void(const std::string&)> > > >::_M_lower_bound
FUNC 6b8c8 40 0 boost::detail::function::basic_vtable1<void, const std::string&>::clear
FUNC 6b908 12 0 std::_Rb_tree<void*, std::pair<void* const, boost::function<void(const std::string&)> >, std::_Select1st<std::pair<void* const, boost::function<void(const std::string&)> > >, std::less<void*>, std::allocator<std::pair<void* const, boost::function<void(const std::string&)> > > >::_M_rightmost
FUNC 6b91a 2c 0 std::_Rb_tree<void*, std::pair<void* const, boost::function<void(const std::string&)> >, std::_Select1st<std::pair<void* const, boost::function<void(const std::string&)> > >, std::less<void*>, std::allocator<std::pair<void* const, boost::function<void(const std::string&)> > > >::_S_key
FUNC 6b946 12 0 std::_Select1st<std::pair<void* const, boost::function<void(const std::string&)> > >::operator()
FUNC 6b958 e3 0 std::_Rb_tree<void*, std::pair<void* const, boost::function<void(const std::string&)> >, std::_Select1st<std::pair<void* const, boost::function<void(const std::string&)> > >, std::less<void*>, std::allocator<std::pair<void* const, boost::function<void(const std::string&)> > > >::_M_insert_
FUNC 6ba3c 271 0 std::_Rb_tree<void*, std::pair<void* const, boost::function<void(const std::string&)> >, std::_Select1st<std::pair<void* const, boost::function<void(const std::string&)> > >, std::less<void*>, std::allocator<std::pair<void* const, boost::function<void(const std::string&)> > > >::_M_insert_unique
FUNC 6bcae 12 0 std::_Rb_tree<void*, std::pair<void* const, boost::function<void(const std::string&)> >, std::_Select1st<std::pair<void* const, boost::function<void(const std::string&)> > >, std::less<void*>, std::allocator<std::pair<void* const, boost::function<void(const std::string&)> > > >::_M_leftmost
FUNC 6bcc0 28 0 std::_Rb_tree_const_iterator<std::pair<void* const, boost::function<void(const std::string&)> > >::operator--
FUNC 6bce8 12 0 std::_Rb_tree<void*, std::pair<void* const, boost::function<void(const std::string&)> >, std::_Select1st<std::pair<void* const, boost::function<void(const std::string&)> > >, std::less<void*>, std::allocator<std::pair<void* const, boost::function<void(const std::string&)> > > >::_S_right
FUNC 6bcfa 28 0 std::_Rb_tree_const_iterator<std::pair<void* const, boost::function<void(const std::string&)> > >::operator++
FUNC 6bd22 97 0 boost::function1<void, const std::string&>::assign_to_own
FUNC 6bdb9 2c 0 std::_Rb_tree<void*, std::pair<void* const, boost::function<void(const std::string&)> >, std::_Select1st<std::pair<void* const, boost::function<void(const std::string&)> > >, std::less<void*>, std::allocator<std::pair<void* const, boost::function<void(const std::string&)> > > >::_S_key
FUNC 6bde6 8f 0 std::_Rb_tree<void*, std::pair<void* const, boost::function<void(const std::string&)> >, std::_Select1st<std::pair<void* const, boost::function<void(const std::string&)> > >, std::less<void*>, std::allocator<std::pair<void* const, boost::function<void(const std::string&)> > > >::_M_upper_bound
FUNC 6be76 2f 0 std::pair<std::_Rb_tree_iterator<std::pair<void* const, boost::function<void(const std::string&)> > >, std::_Rb_tree_iterator<std::pair<void* const, boost::function<void(const std::string&)> > > >::pair
FUNC 6bea6 8d 0 std::_Rb_tree<void*, std::pair<void* const, boost::function<void(const std::string&)> >, std::_Select1st<std::pair<void* const, boost::function<void(const std::string&)> > >, std::less<void*>, std::allocator<std::pair<void* const, boost::function<void(const std::string&)> > > >::clear
FUNC 6bf34 54 0 std::_Rb_tree<void*, std::pair<void* const, boost::function<void(const std::string&)> >, std::_Select1st<std::pair<void* const, boost::function<void(const std::string&)> > >, std::less<void*>, std::allocator<std::pair<void* const, boost::function<void(const std::string&)> > > >::erase
FUNC 6bf88 a 0 __gnu_cxx::new_allocator<std::_Rb_tree_node<std::pair<void* const, boost::function<void(const std::string&)> > > >::new_allocator
FUNC 6bf92 e 0 std::_Rb_tree<void*, std::pair<void* const, boost::function<void(const std::string&)> >, std::_Select1st<std::pair<void* const, boost::function<void(const std::string&)> > >, std::less<void*>, std::allocator<std::pair<void* const, boost::function<void(const std::string&)> > > >::_M_get_Node_allocator
FUNC 6bfa0 1e 0 std::allocator<std::pair<void* const, boost::function<void(const std::string&)> > >::allocator<std::_Rb_tree_node<std::pair<void* const, boost::function<void(const std::string&)> > > >
FUNC 6bfbe a 0 __gnu_cxx::new_allocator<std::pair<void* const, boost::function<void(const std::string&)> > >::~new_allocator
FUNC 6bfc8 22 0 __gnu_cxx::new_allocator<std::_Rb_tree_node<std::pair<void* const, boost::function<void(const std::string&)> > > >::deallocate
FUNC 6bfea 12 0 std::_Rb_tree<void*, std::pair<void* const, boost::function<void(const std::string&)> >, std::_Select1st<std::pair<void* const, boost::function<void(const std::string&)> > >, std::less<void*>, std::allocator<std::pair<void* const, boost::function<void(const std::string&)> > > >::_S_value
FUNC 6bffc bb 0 std::_Rb_tree<void*, std::pair<void* const, boost::function<void(const std::string&)> >, std::_Select1st<std::pair<void* const, boost::function<void(const std::string&)> > >, std::less<void*>, std::allocator<std::pair<void* const, boost::function<void(const std::string&)> > > >::_M_create_node
FUNC 6c0b8 2e 0 std::pair<std::_Rb_tree_iterator<std::pair<void* const, boost::function<void(const std::string&)> > >, bool>::pair
FUNC 6c0e6 28 0 std::_Rb_tree_iterator<std::pair<void* const, boost::function<void(const std::string&)> > >::operator--
FUNC 6c10e 12 0 std::_Rb_tree<void*, std::pair<void* const, boost::function<void(const std::string&)> >, std::_Select1st<std::pair<void* const, boost::function<void(const std::string&)> > >, std::less<void*>, std::allocator<std::pair<void* const, boost::function<void(const std::string&)> > > >::_S_value
FUNC 6c120 12 0 std::_Rb_tree<void*, std::pair<void* const, boost::function<void(const std::string&)> >, std::_Select1st<std::pair<void* const, boost::function<void(const std::string&)> > >, std::less<void*>, std::allocator<std::pair<void* const, boost::function<void(const std::string&)> > > >::_M_root
FUNC 6c132 a 0 __gnu_cxx::new_allocator<std::pair<void* const, boost::function<void(const std::string&)> > >::new_allocator
FUNC 6c13c 24 0 std::_Rb_tree<void*, std::pair<void* const, boost::function<void(const std::string&)> >, std::_Select1st<std::pair<void* const, boost::function<void(const std::string&)> > >, std::less<void*>, std::allocator<std::pair<void* const, boost::function<void(const std::string&)> > > >::_M_get_node
FUNC 6c160 3b 0 std::pair<void* const, boost::function<void(const std::string&)> >::pair
FUNC 6c19c 77 0 __gnu_cxx::new_allocator<std::pair<void* const, boost::function<void(const std::string&)> > >::construct
FUNC 6c214 55 0 __gnu_cxx::new_allocator<std::_Rb_tree_node<std::pair<void* const, boost::function<void(const std::string&)> > > >::allocate
FUNC 6c26a 14 0 __gnu_cxx::new_allocator<std::_Rb_tree_node<std::pair<void* const, boost::function<void(const std::string&)> > > >::max_size
FUNC 6c280 88e 0 Config::XmlGroup::parse
FUNC 6cb0e 250 0 Config::XmlGroup::genNode
FUNC 6cd5e 61c 0 Config::XmlGroup::convertToMap
FUNC 6d37a 383 0 Config::XmlGroup::refreshFromMap
FUNC 6d6fd 257 0 __static_initialization_and_destruction_0
FUNC 6d954 15 0 _GLOBAL__I__ZN6Config8XmlGroup9GROUP_TAGE
FUNC 6d96a 139 0 Config::XmlParameter::XmlParameter
FUNC 6daa4 e 0 Config::XmlParameter::getName
FUNC 6dab2 12 0 Config::XmlParameter::getId
FUNC 6dac4 12 0 Config::XmlParameter::getValueType
FUNC 6dad6 12 0 Config::XmlParameter::getValueRange
FUNC 6dae8 12 0 Config::XmlParameter::getValue
FUNC 6dafa 29 0 Config::XmlParameter::setValue
FUNC 6db24 55 0 std::pair<std::basic_string<char, std::char_traits<char>, std::allocator<char> >, Config::IntParameter>::~pair
FUNC 6db7a 55 0 std::pair<std::basic_string<char, std::char_traits<char>, std::allocator<char> >, Config::StringParameter>::~pair
FUNC 6dbd0 7a 0 std::vector<Config::XmlGroup, std::allocator<Config::XmlGroup> >::push_back
FUNC 6dc4a 7a 0 std::vector<Config::XmlParameter, std::allocator<Config::XmlParameter> >::push_back
FUNC 6dcc4 3e 0 __gnu_cxx::__normal_iterator<Config::XmlGroup*, std::vector<Config::XmlGroup, std::allocator<Config::XmlGroup> > >::operator++
FUNC 6dd02 11 0 __gnu_cxx::__normal_iterator<Config::XmlGroup*, std::vector<Config::XmlGroup, std::allocator<Config::XmlGroup> > >::operator->
FUNC 6dd14 3e 0 __gnu_cxx::__normal_iterator<Config::XmlParameter*, std::vector<Config::XmlParameter, std::allocator<Config::XmlParameter> > >::operator++
FUNC 6dd52 11 0 __gnu_cxx::__normal_iterator<Config::XmlParameter*, std::vector<Config::XmlParameter, std::allocator<Config::XmlParameter> > >::operator->
FUNC 6dd64 6b 0 std::pair<std::basic_string<char, std::char_traits<char>, std::allocator<char> >, Config::IntParameter>::pair
FUNC 6ddd0 6b 0 std::pair<const std::basic_string<char, std::char_traits<char>, std::allocator<char> >, Config::IntParameter>::pair<std::basic_string<char, std::char_traits<char>, std::allocator<char> >, Config::IntParameter>
FUNC 6de3c 6b 0 std::pair<std::basic_string<char, std::char_traits<char>, std::allocator<char> >, Config::StringParameter>::pair
FUNC 6dea8 6b 0 std::pair<const std::basic_string<char, std::char_traits<char>, std::allocator<char> >, Config::StringParameter>::pair<std::basic_string<char, std::char_traits<char>, std::allocator<char> >, Config::StringParameter>
FUNC 6df14 77 0 __gnu_cxx::new_allocator<Config::XmlGroup>::construct
FUNC 6df8c 3e6 0 std::vector<Config::XmlGroup, std::allocator<Config::XmlGroup> >::_M_insert_aux
FUNC 6e372 77 0 __gnu_cxx::new_allocator<Config::XmlParameter>::construct
FUNC 6e3ea 3e6 0 std::vector<Config::XmlParameter, std::allocator<Config::XmlParameter> >::_M_insert_aux
FUNC 6e7d0 46 0 std::copy_backward<Config::XmlGroup*, Config::XmlGroup*>
FUNC 6e816 ca 0 std::vector<Config::XmlGroup, std::allocator<Config::XmlGroup> >::_M_check_len
FUNC 6e8e0 57 0 __gnu_cxx::operator-<Config::XmlGroup*, std::vector<Config::XmlGroup, std::allocator<Config::XmlGroup> > >
FUNC 6e937 3b 0 std::__uninitialized_move_a<Config::XmlGroup*, Config::XmlGroup*, std::allocator<Config::XmlGroup> >
FUNC 6e972 1e 0 __gnu_cxx::new_allocator<Config::XmlGroup>::destroy
FUNC 6e990 46 0 std::copy_backward<Config::XmlParameter*, Config::XmlParameter*>
FUNC 6e9d6 ca 0 std::vector<Config::XmlParameter, std::allocator<Config::XmlParameter> >::_M_check_len
FUNC 6eaa0 57 0 __gnu_cxx::operator-<Config::XmlParameter*, std::vector<Config::XmlParameter, std::allocator<Config::XmlParameter> > >
FUNC 6eaf7 3b 0 std::__uninitialized_move_a<Config::XmlParameter*, Config::XmlParameter*, std::allocator<Config::XmlParameter> >
FUNC 6eb32 1e 0 __gnu_cxx::new_allocator<Config::XmlParameter>::destroy
FUNC 6eb50 58 0 std::__copy_move_backward_a2<false, Config::XmlGroup*, Config::XmlGroup*>
FUNC 6eba8 22 0 std::vector<Config::XmlGroup, std::allocator<Config::XmlGroup> >::max_size
FUNC 6ebca 58 0 std::__copy_move_backward_a2<false, Config::XmlParameter*, Config::XmlParameter*>
FUNC 6ec22 22 0 std::vector<Config::XmlParameter, std::allocator<Config::XmlParameter> >::max_size
FUNC 6ec44 31 0 std::__copy_move_backward_a<false, Config::XmlGroup*, Config::XmlGroup*>
FUNC 6ec75 31 0 std::__copy_move_backward_a<false, Config::XmlParameter*, Config::XmlParameter*>
FUNC 6eca6 74 0 std::__copy_move_backward<false, false, std::random_access_iterator_tag>::__copy_move_b<Config::XmlGroup*, Config::XmlGroup*>
FUNC 6ed1a 74 0 std::__copy_move_backward<false, false, std::random_access_iterator_tag>::__copy_move_b<Config::XmlParameter*, Config::XmlParameter*>
FUNC 6ed90 5ed 0 Config::XmlParameter::parse
FUNC 6f37e 29f 0 Config::XmlParameter::genNode
FUNC 6f61e d8 0 Config::XmlParameter::setValue
FUNC 6f6f6 587 0 __static_initialization_and_destruction_0
FUNC 6fc7d 15 0 _GLOBAL__I__ZN6Config12XmlParameter13PARAMETER_TAGE
FUNC 6fc94 550 0 WgjXml::WgjXml
FUNC 701e4 581 0 WgjXml::~WgjXml
FUNC 70766 6c 0 WgjXml::LoadXml
FUNC 707d2 a1 0 WgjXml::Get_Point61850
FUNC 70874 1f1 0 WgjXml::GetTransmitChannel
FUNC 70a66 96 0 WgjXml::Get_61850
FUNC 70afc 1b8 0 WgjXml::GetRedisConnectionConfig
FUNC 70cb4 db 0 WgjXml::GetCollectionRedisInfo
FUNC 70d90 72 0 WgjXml::GetPcapConfigInfo
FUNC 70e02 6b 0 WgjXml::GetAllChannelName
FUNC 70e6e f2 0 WgjXml::GetParseConfigInfo
FUNC 70f60 be 0 WgjXml::GetIEC61850ServerPoint
FUNC 7101e 85 0 WgjXml::InitIEC103Xml
FUNC 710a4 36 0 WgjXml::GetIEC103Param
FUNC 710da 36 0 WgjXml::GetIEC103Point
FUNC 71110 bf 0 WgjXml::GetIEC104WFPoint
FUNC 711d0 89 0 WgjXml::GetIEC104WFParam
FUNC 7125a 89 0 WgjXml::Get61850IP
FUNC 712e4 732 0 WgjXml::parse_61850
FUNC 71a16 68e 0 WgjXml::parse_Iec104
FUNC 720a4 55e 0 WgjXml::parse_Iec104Param
FUNC 72602 452 0 WgjXml::parse_Iec103
FUNC 72a54 215 0 WgjXml::find_RedisInfo
FUNC 72c6a 178 0 WgjXml::get_AllChannel
FUNC 72de2 62a 0 WgjXml::getParseConfigInfo
FUNC 7340c 2b0 0 WgjXml::GetDataStorageConfig
FUNC 736bc 487 0 WgjXml::getPcapConfigInfo
FUNC 73b44 35d 0 WgjXml::getIEC61850ServerPoint
FUNC 73ea2 314 0 WgjXml::parse_61850IP
FUNC 741b6 40 0 __static_initialization_and_destruction_0
FUNC 741f6 15 0 _GLOBAL__I__ZN6WgjXmlC2Ev
FUNC 7420c 1a 0 TiXmlString::~TiXmlString
FUNC 74226 15 0 TiXmlString::c_str
FUNC 7423c 38 0 TiXmlString::quit
FUNC 74274 1e 0 TiXmlNode::Value
FUNC 74292 1a 0 TiXmlNode::NextSiblingElement
FUNC 742ac 1a 0 TiXmlNode::FirstChildElement
FUNC 742c6 18 0 TiXmlNode::NoChildren
FUNC 742de 4a 0 TiXmlDocument::~TiXmlDocument
FUNC 74328 26 0 TiXmlDocument::~TiXmlDocument
FUNC 7434e 1a 0 TiXmlDocument::RootElement
FUNC 74368 1a 0 std::map<std::basic_string<char, std::char_traits<char>, std::allocator<char> >, IEC61850_STRUCT::IED_61850, std::less<std::basic_string<char, std::char_traits<char>, std::allocator<char> > >, std::allocator<std::pair<const std::basic_string<char, std::char_traits<char>, std::allocator<char> >, IEC61850_STRUCT::IED_61850> > >::~map
FUNC 74382 139 0 IEC61850_STRUCT::IED_61850::IED_61850
FUNC 744bc 140 0 IEC61850_STRUCT::IED_61850::~IED_61850
FUNC 745fc 1a 0 std::list<std::basic_string<char, std::char_traits<char>, std::allocator<char> >, std::allocator<std::basic_string<char, std::char_traits<char>, std::allocator<char> > > >::~list
FUNC 74616 1a 0 std::map<std::basic_string<char, std::char_traits<char>, std::allocator<char> >, std::map<int, std::map<int, IEC104WF::stPointTable, std::less<int>, std::allocator<std::pair<const int, IEC104WF::stPointTable> > >, std::less<int>, std::allocator<std::pair<const int, std::map<int, IEC104WF::stPointTable, std::less<int>, std::allocator<std::pair<const int, IEC104WF::stPointTable> > > > > >, std::less<std::basic_string<char, std::char_traits<char>, std::allocator<char> > >, std::allocator<std::pair<const std::basic_string<char, std::char_traits<char>, std::allocator<char> >, std::map<int, std::map<int, IEC104WF::stPointTable, std::less<int>, std::allocator<std::pair<const int, IEC104WF::stPointTable> > >, std::less<int>, std::allocator<std::pair<const int, std::map<int, IEC104WF::stPointTable, std::less<int>, std::allocator<std::pair<const int, IEC104WF::stPointTable> > > > > > > > >::~map
FUNC 74630 1a 0 std::map<int, std::map<int, IEC104WF::stPointTable, std::less<int>, std::allocator<std::pair<const int, IEC104WF::stPointTable> > >, std::less<int>, std::allocator<std::pair<const int, std::map<int, IEC104WF::stPointTable, std::less<int>, std::allocator<std::pair<const int, IEC104WF::stPointTable> > > > > >::~map
FUNC 7464a 1a 0 std::map<int, IEC104WF::stPointTable, std::less<int>, std::allocator<std::pair<const int, IEC104WF::stPointTable> > >::~map
FUNC 74664 1a 0 IEC104WF::stPointTable::stPointTable
FUNC 7467e 1a 0 IEC104WF::stPointTable::~stPointTable
FUNC 74698 82 0 IEC103::stConfigParam::stConfigParam
FUNC 7471a 121 0 IEC61850_STRUCT::IED_61850::operator=
FUNC 7483c 45 0 IEC104WF::stPointTable::operator=
FUNC 74882 7b 0 IEC103::stConfigParam::operator=
FUNC 748fe 1a 0 std::map<std::basic_string<char, std::char_traits<char>, std::allocator<char> >, IEC61850_STRUCT::IED_61850, std::less<std::basic_string<char, std::char_traits<char>, std::allocator<char> > >, std::allocator<std::pair<const std::basic_string<char, std::char_traits<char>, std::allocator<char> >, IEC61850_STRUCT::IED_61850> > >::map
FUNC 74918 1a 0 std::_Rb_tree<std::basic_string<char, std::char_traits<char>, std::allocator<char> >, std::pair<const std::basic_string<char, std::char_traits<char>, std::allocator<char> >, IEC61850_STRUCT::IED_61850>, std::_Select1st<std::pair<const std::basic_string<char, std::char_traits<char>, std::allocator<char> >, IEC61850_STRUCT::IED_61850> >, std::less<std::basic_string<char, std::char_traits<char>, std::allocator<char> > >, std::allocator<std::pair<const std::basic_string<char, std::char_traits<char>, std::allocator<char> >, IEC61850_STRUCT::IED_61850> > >::_Rb_tree_impl<std::less<std::basic_string<char, std::char_traits<char>, std::allocator<char> > >, false>::~_Rb_tree_impl
FUNC 74932 63 0 std::_Rb_tree<std::basic_string<char, std::char_traits<char>, std::allocator<char> >, std::pair<const std::basic_string<char, std::char_traits<char>, std::allocator<char> >, IEC61850_STRUCT::IED_61850>, std::_Select1st<std::pair<const std::basic_string<char, std::char_traits<char>, std::allocator<char> >, IEC61850_STRUCT::IED_61850> >, std::less<std::basic_string<char, std::char_traits<char>, std::allocator<char> > >, std::allocator<std::pair<const std::basic_string<char, std::char_traits<char>, std::allocator<char> >, IEC61850_STRUCT::IED_61850> > >::~_Rb_tree
FUNC 74996 1a 0 std::list<std::basic_string<char, std::char_traits<char>, std::allocator<char> >, std::allocator<std::basic_string<char, std::char_traits<char>, std::allocator<char> > > >::list
FUNC 749b0 1a 0 std::_List_base<std::basic_string<char, std::char_traits<char>, std::allocator<char> >, std::allocator<std::basic_string<char, std::char_traits<char>, std::allocator<char> > > >::_List_impl::~_List_impl
FUNC 749ca 51 0 std::_List_base<std::basic_string<char, std::char_traits<char>, std::allocator<char> >, std::allocator<std::basic_string<char, std::char_traits<char>, std::allocator<char> > > >::~_List_base
FUNC 74a1c 1a 0 std::map<std::basic_string<char, std::char_traits<char>, std::allocator<char> >, std::map<int, std::map<int, IEC104WF::stPointTable, std::less<int>, std::allocator<std::pair<const int, IEC104WF::stPointTable> > >, std::less<int>, std::allocator<std::pair<const int, std::map<int, IEC104WF::stPointTable, std::less<int>, std::allocator<std::pair<const int, IEC104WF::stPointTable> > > > > >, std::less<std::basic_string<char, std::char_traits<char>, std::allocator<char> > >, std::allocator<std::pair<const std::basic_string<char, std::char_traits<char>, std::allocator<char> >, std::map<int, std::map<int, IEC104WF::stPointTable, std::less<int>, std::allocator<std::pair<const int, IEC104WF::stPointTable> > >, std::less<int>, std::allocator<std::pair<const int, std::map<int, IEC104WF::stPointTable, std::less<int>, std::allocator<std::pair<const int, IEC104WF::stPointTable> > > > > > > > >::map
FUNC 74a36 1a 0 std::_Rb_tree<std::basic_string<char, std::char_traits<char>, std::allocator<char> >, std::pair<const std::basic_string<char, std::char_traits<char>, std::allocator<char> >, std::map<int, std::map<int, IEC104WF::stPointTable, std::less<int>, std::allocator<std::pair<const int, IEC104WF::stPointTable> > >, std::less<int>, std::allocator<std::pair<const int, std::map<int, IEC104WF::stPointTable, std::less<int>, std::allocator<std::pair<const int, IEC104WF::stPointTable> > > > > > >, std::_Select1st<std::pair<const std::basic_string<char, std::char_traits<char>, std::allocator<char> >, std::map<int, std::map<int, IEC104WF::stPointTable, std::less<int>, std::allocator<std::pair<const int, IEC104WF::stPointTable> > >, std::less<int>, std::allocator<std::pair<const int, std::map<int, IEC104WF::stPointTable, std::less<int>, std::allocator<std::pair<const int, IEC104WF::stPointTable> > > > > > > >, std::less<std::basic_string<char, std::char_traits<char>, std::allocator<char> > >, std::allocator<std::pair<const std::basic_string<char, std::char_traits<char>, std::allocator<char> >, std::map<int, std::map<int, IEC104WF::stPointTable, std::less<int>, std::allocator<std::pair<const int, IEC104WF::stPointTable> > >, std::less<int>, std::allocator<std::pair<const int, std::map<int, IEC104WF::stPointTable, std::less<int>, std::allocator<std::pair<const int, IEC104WF::stPointTable> > > > > > > > >::_Rb_tree_impl<std::less<std::basic_string<char, std::char_traits<char>, std::allocator<char> > >, false>::~_Rb_tree_impl
FUNC 74a50 63 0 std::_Rb_tree<std::basic_string<char, std::char_traits<char>, std::allocator<char> >, std::pair<const std::basic_string<char, std::char_traits<char>, std::allocator<char> >, std::map<int, std::map<int, IEC104WF::stPointTable, std::less<int>, std::allocator<std::pair<const int, IEC104WF::stPointTable> > >, std::less<int>, std::allocator<std::pair<const int, std::map<int, IEC104WF::stPointTable, std::less<int>, std::allocator<std::pair<const int, IEC104WF::stPointTable> > > > > > >, std::_Select1st<std::pair<const std::basic_string<char, std::char_traits<char>, std::allocator<char> >, std::map<int, std::map<int, IEC104WF::stPointTable, std::less<int>, std::allocator<std::pair<const int, IEC104WF::stPointTable> > >, std::less<int>, std::allocator<std::pair<const int, std::map<int, IEC104WF::stPointTable, std::less<int>, std::allocator<std::pair<const int, IEC104WF::stPointTable> > > > > > > >, std::less<std::basic_string<char, std::char_traits<char>, std::allocator<char> > >, std::allocator<std::pair<const std::basic_string<char, std::char_traits<char>, std::allocator<char> >, std::map<int, std::map<int, IEC104WF::stPointTable, std::less<int>, std::allocator<std::pair<const int, IEC104WF::stPointTable> > >, std::less<int>, std::allocator<std::pair<const int, std::map<int, IEC104WF::stPointTable, std::less<int>, std::allocator<std::pair<const int, IEC104WF::stPointTable> > > > > > > > >::~_Rb_tree
FUNC 74ab4 1a 0 std::map<int, std::map<int, IEC104WF::stPointTable, std::less<int>, std::allocator<std::pair<const int, IEC104WF::stPointTable> > >, std::less<int>, std::allocator<std::pair<const int, std::map<int, IEC104WF::stPointTable, std::less<int>, std::allocator<std::pair<const int, IEC104WF::stPointTable> > > > > >::map
FUNC 74ace 1a 0 std::_Rb_tree<int, std::pair<const int, std::map<int, IEC104WF::stPointTable, std::less<int>, std::allocator<std::pair<const int, IEC104WF::stPointTable> > > >, std::_Select1st<std::pair<const int, std::map<int, IEC104WF::stPointTable, std::less<int>, std::allocator<std::pair<const int, IEC104WF::stPointTable> > > > >, std::less<int>, std::allocator<std::pair<const int, std::map<int, IEC104WF::stPointTable, std::less<int>, std::allocator<std::pair<const int, IEC104WF::stPointTable> > > > > >::_Rb_tree_impl<std::less<int>, false>::~_Rb_tree_impl
FUNC 74ae8 63 0 std::_Rb_tree<int, std::pair<const int, std::map<int, IEC104WF::stPointTable, std::less<int>, std::allocator<std::pair<const int, IEC104WF::stPointTable> > > >, std::_Select1st<std::pair<const int, std::map<int, IEC104WF::stPointTable, std::less<int>, std::allocator<std::pair<const int, IEC104WF::stPointTable> > > > >, std::less<int>, std::allocator<std::pair<const int, std::map<int, IEC104WF::stPointTable, std::less<int>, std::allocator<std::pair<const int, IEC104WF::stPointTable> > > > > >::~_Rb_tree
FUNC 74b4c 1a 0 std::map<int, IEC104WF::stPointTable, std::less<int>, std::allocator<std::pair<const int, IEC104WF::stPointTable> > >::map
FUNC 74b66 1a 0 std::_Rb_tree<int, std::pair<const int, IEC104WF::stPointTable>, std::_Select1st<std::pair<const int, IEC104WF::stPointTable> >, std::less<int>, std::allocator<std::pair<const int, IEC104WF::stPointTable> > >::_Rb_tree_impl<std::less<int>, false>::~_Rb_tree_impl
FUNC 74b80 63 0 std::_Rb_tree<int, std::pair<const int, IEC104WF::stPointTable>, std::_Select1st<std::pair<const int, IEC104WF::stPointTable> >, std::less<int>, std::allocator<std::pair<const int, IEC104WF::stPointTable> > >::~_Rb_tree
FUNC 74be4 1a 0 std::map<std::basic_string<char, std::char_traits<char>, std::allocator<char> >, IEC103::stConfigParam, std::less<std::basic_string<char, std::char_traits<char>, std::allocator<char> > >, std::allocator<std::pair<const std::basic_string<char, std::char_traits<char>, std::allocator<char> >, IEC103::stConfigParam> > >::map
FUNC 74bfe 1a 0 std::map<std::basic_string<char, std::char_traits<char>, std::allocator<char> >, std::map<std::basic_string<char, std::char_traits<char>, std::allocator<char> >, std::basic_string<char, std::char_traits<char>, std::allocator<char> >, std::less<std::basic_string<char, std::char_traits<char>, std::allocator<char> > >, std::allocator<std::pair<const std::basic_string<char, std::char_traits<char>, std::allocator<char> >, std::basic_string<char, std::char_traits<char>, std::allocator<char> > > > >, std::less<std::basic_string<char, std::char_traits<char>, std::allocator<char> > >, std::allocator<std::pair<const std::basic_string<char, std::char_traits<char>, std::allocator<char> >, std::map<std::basic_string<char, std::char_traits<char>, std::allocator<char> >, std::basic_string<char, std::char_traits<char>, std::allocator<char> >, std::less<std::basic_string<char, std::char_traits<char>, std::allocator<char> > >, std::allocator<std::pair<const std::basic_string<char, std::char_traits<char>, std::allocator<char> >, std::basic_string<char, std::char_traits<char>, std::allocator<char> > > > > > > >::map
FUNC 74c18 1a 0 std::map<std::basic_string<char, std::char_traits<char>, std::allocator<char> >, IEC61850_STRUCT::IED_61850, std::less<std::basic_string<char, std::char_traits<char>, std::allocator<char> > >, std::allocator<std::pair<const std::basic_string<char, std::char_traits<char>, std::allocator<char> >, IEC61850_STRUCT::IED_61850> > >::clear
FUNC 74c32 25 0 std::map<std::basic_string<char, std::char_traits<char>, std::allocator<char> >, IEC61850_STRUCT::IED_61850, std::less<std::basic_string<char, std::char_traits<char>, std::allocator<char> > >, std::allocator<std::pair<const std::basic_string<char, std::char_traits<char>, std::allocator<char> >, IEC61850_STRUCT::IED_61850> > >::map
FUNC 74c57 2a 0 std::operator==<char, std::char_traits<char>, std::allocator<char> >
FUNC 74c82 1a 0 std::map<std::basic_string<char, std::char_traits<char>, std::allocator<char> >, IEC103::stConfigParam, std::less<std::basic_string<char, std::char_traits<char>, std::allocator<char> > >, std::allocator<std::pair<const std::basic_string<char, std::char_traits<char>, std::allocator<char> >, IEC103::stConfigParam> > >::clear
FUNC 74c9c 1a 0 std::map<std::basic_string<char, std::char_traits<char>, std::allocator<char> >, std::map<std::basic_string<char, std::char_traits<char>, std::allocator<char> >, std::basic_string<char, std::char_traits<char>, std::allocator<char> >, std::less<std::basic_string<char, std::char_traits<char>, std::allocator<char> > >, std::allocator<std::pair<const std::basic_string<char, std::char_traits<char>, std::allocator<char> >, std::basic_string<char, std::char_traits<char>, std::allocator<char> > > > >, std::less<std::basic_string<char, std::char_traits<char>, std::allocator<char> > >, std::allocator<std::pair<const std::basic_string<char, std::char_traits<char>, std::allocator<char> >, std::map<std::basic_string<char, std::char_traits<char>, std::allocator<char> >, std::basic_string<char, std::char_traits<char>, std::allocator<char> >, std::less<std::basic_string<char, std::char_traits<char>, std::allocator<char> > >, std::allocator<std::pair<const std::basic_string<char, std::char_traits<char>, std::allocator<char> >, std::basic_string<char, std::char_traits<char>, std::allocator<char> > > > > > > >::clear
FUNC 74cb6 25 0 std::map<std::basic_string<char, std::char_traits<char>, std::allocator<char> >, IEC103::stConfigParam, std::less<std::basic_string<char, std::char_traits<char>, std::allocator<char> > >, std::allocator<std::pair<const std::basic_string<char, std::char_traits<char>, std::allocator<char> >, IEC103::stConfigParam> > >::map
FUNC 74cdc 25 0 std::map<std::basic_string<char, std::char_traits<char>, std::allocator<char> >, std::map<std::basic_string<char, std::char_traits<char>, std::allocator<char> >, std::basic_string<char, std::char_traits<char>, std::allocator<char> >, std::less<std::basic_string<char, std::char_traits<char>, std::allocator<char> > >, std::allocator<std::pair<const std::basic_string<char, std::char_traits<char>, std::allocator<char> >, std::basic_string<char, std::char_traits<char>, std::allocator<char> > > > >, std::less<std::basic_string<char, std::char_traits<char>, std::allocator<char> > >, std::allocator<std::pair<const std::basic_string<char, std::char_traits<char>, std::allocator<char> >, std::map<std::basic_string<char, std::char_traits<char>, std::allocator<char> >, std::basic_string<char, std::char_traits<char>, std::allocator<char> >, std::less<std::basic_string<char, std::char_traits<char>, std::allocator<char> > >, std::allocator<std::pair<const std::basic_string<char, std::char_traits<char>, std::allocator<char> >, std::basic_string<char, std::char_traits<char>, std::allocator<char> > > > > > > >::map
FUNC 74d02 1a 0 std::map<std::basic_string<char, std::char_traits<char>, std::allocator<char> >, std::map<int, std::map<int, IEC104WF::stPointTable, std::less<int>, std::allocator<std::pair<const int, IEC104WF::stPointTable> > >, std::less<int>, std::allocator<std::pair<const int, std::map<int, IEC104WF::stPointTable, std::less<int>, std::allocator<std::pair<const int, IEC104WF::stPointTable> > > > > >, std::less<std::basic_string<char, std::char_traits<char>, std::allocator<char> > >, std::allocator<std::pair<const std::basic_string<char, std::char_traits<char>, std::allocator<char> >, std::map<int, std::map<int, IEC104WF::stPointTable, std::less<int>, std::allocator<std::pair<const int, IEC104WF::stPointTable> > >, std::less<int>, std::allocator<std::pair<const int, std::map<int, IEC104WF::stPointTable, std::less<int>, std::allocator<std::pair<const int, IEC104WF::stPointTable> > > > > > > > >::clear
FUNC 74d1c 1a 0 std::map<int, std::map<int, IEC104WF::stPointTable, std::less<int>, std::allocator<std::pair<const int, IEC104WF::stPointTable> > >, std::less<int>, std::allocator<std::pair<const int, std::map<int, IEC104WF::stPointTable, std::less<int>, std::allocator<std::pair<const int, IEC104WF::stPointTable> > > > > >::clear
FUNC 74d36 1a 0 std::map<int, IEC104WF::stPointTable, std::less<int>, std::allocator<std::pair<const int, IEC104WF::stPointTable> > >::clear
FUNC 74d50 25 0 std::map<std::basic_string<char, std::char_traits<char>, std::allocator<char> >, std::map<int, std::map<int, IEC104WF::stPointTable, std::less<int>, std::allocator<std::pair<const int, IEC104WF::stPointTable> > >, std::less<int>, std::allocator<std::pair<const int, std::map<int, IEC104WF::stPointTable, std::less<int>, std::allocator<std::pair<const int, IEC104WF::stPointTable> > > > > >, std::less<std::basic_string<char, std::char_traits<char>, std::allocator<char> > >, std::allocator<std::pair<const std::basic_string<char, std::char_traits<char>, std::allocator<char> >, std::map<int, std::map<int, IEC104WF::stPointTable, std::less<int>, std::allocator<std::pair<const int, IEC104WF::stPointTable> > >, std::less<int>, std::allocator<std::pair<const int, std::map<int, IEC104WF::stPointTable, std::less<int>, std::allocator<std::pair<const int, IEC104WF::stPointTable> > > > > > > > >::map
FUNC 74d76 26 0 std::list<std::basic_string<char, std::char_traits<char>, std::allocator<char> >, std::allocator<std::basic_string<char, std::char_traits<char>, std::allocator<char> > > >::clear
FUNC 74d9c cf 0 std::list<std::basic_string<char, std::char_traits<char>, std::allocator<char> >, std::allocator<std::basic_string<char, std::char_traits<char>, std::allocator<char> > > >::list
FUNC 74e6c 55 0 std::pair<const std::basic_string<char, std::char_traits<char>, std::allocator<char> >, IEC61850_STRUCT::IED_61850>::~pair
FUNC 74ec2 1b7 0 std::map<std::basic_string<char, std::char_traits<char>, std::allocator<char> >, IEC61850_STRUCT::IED_61850, std::less<std::basic_string<char, std::char_traits<char>, std::allocator<char> > >, std::allocator<std::pair<const std::basic_string<char, std::char_traits<char>, std::allocator<char> >, IEC61850_STRUCT::IED_61850> > >::operator[]
FUNC 7507a 29 0 std::map<std::basic_string<char, std::char_traits<char>, std::allocator<char> >, std::basic_string<char, std::char_traits<char>, std::allocator<char> >, std::less<std::basic_string<char, std::char_traits<char>, std::allocator<char> > >, std::allocator<std::pair<const std::basic_string<char, std::char_traits<char>, std::allocator<char> >, std::basic_string<char, std::char_traits<char>, std::allocator<char> > > > >::operator=
FUNC 750a4 9e 0 WgjXml::stringToNum<float>
FUNC 75142 92 0 WgjXml::stringToNum<int>
FUNC 751d4 1e 0 std::pair<const int, IEC104WF::stPointTable>::~pair
FUNC 751f2 15e 0 std::map<int, IEC104WF::stPointTable, std::less<int>, std::allocator<std::pair<const int, IEC104WF::stPointTable> > >::operator[]
FUNC 75350 1e 0 std::pair<const int, std::map<int, IEC104WF::stPointTable, std::less<int>, std::allocator<std::pair<const int, IEC104WF::stPointTable> > > >::~pair
FUNC 7536e 185 0 std::map<int, std::map<int, IEC104WF::stPointTable, std::less<int>, std::allocator<std::pair<const int, IEC104WF::stPointTable> > >, std::less<int>, std::allocator<std::pair<const int, std::map<int, IEC104WF::stPointTable, std::less<int>, std::allocator<std::pair<const int, IEC104WF::stPointTable> > > > > >::operator[]
FUNC 754f4 29 0 std::map<int, IEC104WF::stPointTable, std::less<int>, std::allocator<std::pair<const int, IEC104WF::stPointTable> > >::operator=
FUNC 7551e 55 0 std::pair<const std::basic_string<char, std::char_traits<char>, std::allocator<char> >, std::map<int, std::map<int, IEC104WF::stPointTable, std::less<int>, std::allocator<std::pair<const int, IEC104WF::stPointTable> > >, std::less<int>, std::allocator<std::pair<const int, std::map<int, IEC104WF::stPointTable, std::less<int>, std::allocator<std::pair<const int, IEC104WF::stPointTable> > > > > > >::~pair
FUNC 75574 185 0 std::map<std::basic_string<char, std::char_traits<char>, std::allocator<char> >, std::map<int, std::map<int, IEC104WF::stPointTable, std::less<int>, std::allocator<std::pair<const int, IEC104WF::stPointTable> > >, std::less<int>, std::allocator<std::pair<const int, std::map<int, IEC104WF::stPointTable, std::less<int>, std::allocator<std::pair<const int, IEC104WF::stPointTable> > > > > >, std::less<std::basic_string<char, std::char_traits<char>, std::allocator<char> > >, std::allocator<std::pair<const std::basic_string<char, std::char_traits<char>, std::allocator<char> >, std::map<int, std::map<int, IEC104WF::stPointTable, std::less<int>, std::allocator<std::pair<const int, IEC104WF::stPointTable> > >, std::less<int>, std::allocator<std::pair<const int, std::map<int, IEC104WF::stPointTable, std::less<int>, std::allocator<std::pair<const int, IEC104WF::stPointTable> > > > > > > > >::operator[]
FUNC 756fa 29 0 std::map<int, std::map<int, IEC104WF::stPointTable, std::less<int>, std::allocator<std::pair<const int, IEC104WF::stPointTable> > >, std::less<int>, std::allocator<std::pair<const int, std::map<int, IEC104WF::stPointTable, std::less<int>, std::allocator<std::pair<const int, IEC104WF::stPointTable> > > > > >::operator=
FUNC 75723 28 0 std::operator!=<char, std::char_traits<char>, std::allocator<char> >
FUNC 7574c 187 0 std::map<std::basic_string<char, std::char_traits<char>, std::allocator<char> >, IEC103::stConfigParam, std::less<std::basic_string<char, std::char_traits<char>, std::allocator<char> > >, std::allocator<std::pair<const std::basic_string<char, std::char_traits<char>, std::allocator<char> >, IEC103::stConfigParam> > >::operator[]
FUNC 758d4 185 0 std::map<std::basic_string<char, std::char_traits<char>, std::allocator<char> >, std::map<std::basic_string<char, std::char_traits<char>, std::allocator<char> >, std::basic_string<char, std::char_traits<char>, std::allocator<char> >, std::less<std::basic_string<char, std::char_traits<char>, std::allocator<char> > >, std::allocator<std::pair<const std::basic_string<char, std::char_traits<char>, std::allocator<char> >, std::basic_string<char, std::char_traits<char>, std::allocator<char> > > > >, std::less<std::basic_string<char, std::char_traits<char>, std::allocator<char> > >, std::allocator<std::pair<const std::basic_string<char, std::char_traits<char>, std::allocator<char> >, std::map<std::basic_string<char, std::char_traits<char>, std::allocator<char> >, std::basic_string<char, std::char_traits<char>, std::allocator<char> >, std::less<std::basic_string<char, std::char_traits<char>, std::allocator<char> > >, std::allocator<std::pair<const std::basic_string<char, std::char_traits<char>, std::allocator<char> >, std::basic_string<char, std::char_traits<char>, std::allocator<char> > > > > > > >::operator[]
FUNC 75a5a 34 0 std::list<std::basic_string<char, std::char_traits<char>, std::allocator<char> >, std::allocator<std::basic_string<char, std::char_traits<char>, std::allocator<char> > > >::push_back
FUNC 75a8e 1a 0 std::_Rb_tree<std::basic_string<char, std::char_traits<char>, std::allocator<char> >, std::pair<const std::basic_string<char, std::char_traits<char>, std::allocator<char> >, IEC61850_STRUCT::IED_61850>, std::_Select1st<std::pair<const std::basic_string<char, std::char_traits<char>, std::allocator<char> >, IEC61850_STRUCT::IED_61850> >, std::less<std::basic_string<char, std::char_traits<char>, std::allocator<char> > >, std::allocator<std::pair<const std::basic_string<char, std::char_traits<char>, std::allocator<char> >, IEC61850_STRUCT::IED_61850> > >::_Rb_tree
FUNC 75aa8 1a 0 std::allocator<std::_Rb_tree_node<std::pair<const std::basic_string<char, std::char_traits<char>, std::allocator<char> >, IEC61850_STRUCT::IED_61850> > >::~allocator
FUNC 75ac2 69 0 std::_Rb_tree<std::basic_string<char, std::char_traits<char>, std::allocator<char> >, std::pair<const std::basic_string<char, std::char_traits<char>, std::allocator<char> >, IEC61850_STRUCT::IED_61850>, std::_Select1st<std::pair<const std::basic_string<char, std::char_traits<char>, std::allocator<char> >, IEC61850_STRUCT::IED_61850> >, std::less<std::basic_string<char, std::char_traits<char>, std::allocator<char> > >, std::allocator<std::pair<const std::basic_string<char, std::char_traits<char>, std::allocator<char> >, IEC61850_STRUCT::IED_61850> > >::_M_erase
FUNC 75b2c 12 0 std::_Rb_tree<std::basic_string<char, std::char_traits<char>, std::allocator<char> >, std::pair<const std::basic_string<char, std::char_traits<char>, std::allocator<char> >, IEC61850_STRUCT::IED_61850>, std::_Select1st<std::pair<const std::basic_string<char, std::char_traits<char>, std::allocator<char> >, IEC61850_STRUCT::IED_61850> >, std::less<std::basic_string<char, std::char_traits<char>, std::allocator<char> > >, std::allocator<std::pair<const std::basic_string<char, std::char_traits<char>, std::allocator<char> >, IEC61850_STRUCT::IED_61850> > >::_M_begin
FUNC 75b3e 26 0 std::_List_base<std::basic_string<char, std::char_traits<char>, std::allocator<char> >, std::allocator<std::basic_string<char, std::char_traits<char>, std::allocator<char> > > >::_List_base
FUNC 75b64 1a 0 std::allocator<std::_List_node<std::basic_string<char, std::char_traits<char>, std::allocator<char> > > >::~allocator
FUNC 75b7e b8 0 std::_List_base<std::basic_string<char, std::char_traits<char>, std::allocator<char> >, std::allocator<std::basic_string<char, std::char_traits<char>, std::allocator<char> > > >::_M_clear
FUNC 75c36 1a 0 std::_Rb_tree<std::basic_string<char, std::char_traits<char>, std::allocator<char> >, std::pair<const std::basic_string<char, std::char_traits<char>, std::allocator<char> >, std::map<int, std::map<int, IEC104WF::stPointTable, std::less<int>, std::allocator<std::pair<const int, IEC104WF::stPointTable> > >, std::less<int>, std::allocator<std::pair<const int, std::map<int, IEC104WF::stPointTable, std::less<int>, std::allocator<std::pair<const int, IEC104WF::stPointTable> > > > > > >, std::_Select1st<std::pair<const std::basic_string<char, std::char_traits<char>, std::allocator<char> >, std::map<int, std::map<int, IEC104WF::stPointTable, std::less<int>, std::allocator<std::pair<const int, IEC104WF::stPointTable> > >, std::less<int>, std::allocator<std::pair<const int, std::map<int, IEC104WF::stPointTable, std::less<int>, std::allocator<std::pair<const int, IEC104WF::stPointTable> > > > > > > >, std::less<std::basic_string<char, std::char_traits<char>, std::allocator<char> > >, std::allocator<std::pair<const std::basic_string<char, std::char_traits<char>, std::allocator<char> >, std::map<int, std::map<int, IEC104WF::stPointTable, std::less<int>, std::allocator<std::pair<const int, IEC104WF::stPointTable> > >, std::less<int>, std::allocator<std::pair<const int, std::map<int, IEC104WF::stPointTable, std::less<int>, std::allocator<std::pair<const int, IEC104WF::stPointTable> > > > > > > > >::_Rb_tree
FUNC 75c50 1a 0 std::allocator<std::_Rb_tree_node<std::pair<const std::basic_string<char, std::char_traits<char>, std::allocator<char> >, std::map<int, std::map<int, IEC104WF::stPointTable, std::less<int>, std::allocator<std::pair<const int, IEC104WF::stPointTable> > >, std::less<int>, std::allocator<std::pair<const int, std::map<int, IEC104WF::stPointTable, std::less<int>, std::allocator<std::pair<const int, IEC104WF::stPointTable> > > > > > > > >::~allocator
FUNC 75c6a 69 0 std::_Rb_tree<std::basic_string<char, std::char_traits<char>, std::allocator<char> >, std::pair<const std::basic_string<char, std::char_traits<char>, std::allocator<char> >, std::map<int, std::map<int, IEC104WF::stPointTable, std::less<int>, std::allocator<std::pair<const int, IEC104WF::stPointTable> > >, std::less<int>, std::allocator<std::pair<const int, std::map<int, IEC104WF::stPointTable, std::less<int>, std::allocator<std::pair<const int, IEC104WF::stPointTable> > > > > > >, std::_Select1st<std::pair<const std::basic_string<char, std::char_traits<char>, std::allocator<char> >, std::map<int, std::map<int, IEC104WF::stPointTable, std::less<int>, std::allocator<std::pair<const int, IEC104WF::stPointTable> > >, std::less<int>, std::allocator<std::pair<const int, std::map<int, IEC104WF::stPointTable, std::less<int>, std::allocator<std::pair<const int, IEC104WF::stPointTable> > > > > > > >, std::less<std::basic_string<char, std::char_traits<char>, std::allocator<char> > >, std::allocator<std::pair<const std::basic_string<char, std::char_traits<char>, std::allocator<char> >, std::map<int, std::map<int, IEC104WF::stPointTable, std::less<int>, std::allocator<std::pair<const int, IEC104WF::stPointTable> > >, std::less<int>, std::allocator<std::pair<const int, std::map<int, IEC104WF::stPointTable, std::less<int>, std::allocator<std::pair<const int, IEC104WF::stPointTable> > > > > > > > >::_M_erase
FUNC 75cd4 12 0 std::_Rb_tree<std::basic_string<char, std::char_traits<char>, std::allocator<char> >, std::pair<const std::basic_string<char, std::char_traits<char>, std::allocator<char> >, std::map<int, std::map<int, IEC104WF::stPointTable, std::less<int>, std::allocator<std::pair<const int, IEC104WF::stPointTable> > >, std::less<int>, std::allocator<std::pair<const int, std::map<int, IEC104WF::stPointTable, std::less<int>, std::allocator<std::pair<const int, IEC104WF::stPointTable> > > > > > >, std::_Select1st<std::pair<const std::basic_string<char, std::char_traits<char>, std::allocator<char> >, std::map<int, std::map<int, IEC104WF::stPointTable, std::less<int>, std::allocator<std::pair<const int, IEC104WF::stPointTable> > >, std::less<int>, std::allocator<std::pair<const int, std::map<int, IEC104WF::stPointTable, std::less<int>, std::allocator<std::pair<const int, IEC104WF::stPointTable> > > > > > > >, std::less<std::basic_string<char, std::char_traits<char>, std::allocator<char> > >, std::allocator<std::pair<const std::basic_string<char, std::char_traits<char>, std::allocator<char> >, std::map<int, std::map<int, IEC104WF::stPointTable, std::less<int>, std::allocator<std::pair<const int, IEC104WF::stPointTable> > >, std::less<int>, std::allocator<std::pair<const int, std::map<int, IEC104WF::stPointTable, std::less<int>, std::allocator<std::pair<const int, IEC104WF::stPointTable> > > > > > > > >::_M_begin
FUNC 75ce6 1a 0 std::_Rb_tree<int, std::pair<const int, std::map<int, IEC104WF::stPointTable, std::less<int>, std::allocator<std::pair<const int, IEC104WF::stPointTable> > > >, std::_Select1st<std::pair<const int, std::map<int, IEC104WF::stPointTable, std::less<int>, std::allocator<std::pair<const int, IEC104WF::stPointTable> > > > >, std::less<int>, std::allocator<std::pair<const int, std::map<int, IEC104WF::stPointTable, std::less<int>, std::allocator<std::pair<const int, IEC104WF::stPointTable> > > > > >::_Rb_tree
FUNC 75d00 1a 0 std::allocator<std::_Rb_tree_node<std::pair<const int, std::map<int, IEC104WF::stPointTable, std::less<int>, std::allocator<std::pair<const int, IEC104WF::stPointTable> > > > > >::~allocator
FUNC 75d1a 69 0 std::_Rb_tree<int, std::pair<const int, std::map<int, IEC104WF::stPointTable, std::less<int>, std::allocator<std::pair<const int, IEC104WF::stPointTable> > > >, std::_Select1st<std::pair<const int, std::map<int, IEC104WF::stPointTable, std::less<int>, std::allocator<std::pair<const int, IEC104WF::stPointTable> > > > >, std::less<int>, std::allocator<std::pair<const int, std::map<int, IEC104WF::stPointTable, std::less<int>, std::allocator<std::pair<const int, IEC104WF::stPointTable> > > > > >::_M_erase
FUNC 75d84 12 0 std::_Rb_tree<int, std::pair<const int, std::map<int, IEC104WF::stPointTable, std::less<int>, std::allocator<std::pair<const int, IEC104WF::stPointTable> > > >, std::_Select1st<std::pair<const int, std::map<int, IEC104WF::stPointTable, std::less<int>, std::allocator<std::pair<const int, IEC104WF::stPointTable> > > > >, std::less<int>, std::allocator<std::pair<const int, std::map<int, IEC104WF::stPointTable, std::less<int>, std::allocator<std::pair<const int, IEC104WF::stPointTable> > > > > >::_M_begin
FUNC 75d96 1a 0 std::_Rb_tree<int, std::pair<const int, IEC104WF::stPointTable>, std::_Select1st<std::pair<const int, IEC104WF::stPointTable> >, std::less<int>, std::allocator<std::pair<const int, IEC104WF::stPointTable> > >::_Rb_tree
FUNC 75db0 1a 0 std::allocator<std::_Rb_tree_node<std::pair<const int, IEC104WF::stPointTable> > >::~allocator
FUNC 75dca 69 0 std::_Rb_tree<int, std::pair<const int, IEC104WF::stPointTable>, std::_Select1st<std::pair<const int, IEC104WF::stPointTable> >, std::less<int>, std::allocator<std::pair<const int, IEC104WF::stPointTable> > >::_M_erase
FUNC 75e34 12 0 std::_Rb_tree<int, std::pair<const int, IEC104WF::stPointTable>, std::_Select1st<std::pair<const int, IEC104WF::stPointTable> >, std::less<int>, std::allocator<std::pair<const int, IEC104WF::stPointTable> > >::_M_begin
FUNC 75e46 1a 0 std::_Rb_tree<std::basic_string<char, std::char_traits<char>, std::allocator<char> >, std::pair<const std::basic_string<char, std::char_traits<char>, std::allocator<char> >, IEC103::stConfigParam>, std::_Select1st<std::pair<const std::basic_string<char, std::char_traits<char>, std::allocator<char> >, IEC103::stConfigParam> >, std::less<std::basic_string<char, std::char_traits<char>, std::allocator<char> > >, std::allocator<std::pair<const std::basic_string<char, std::char_traits<char>, std::allocator<char> >, IEC103::stConfigParam> > >::_Rb_tree
FUNC 75e60 1a 0 std::_Rb_tree<std::basic_string<char, std::char_traits<char>, std::allocator<char> >, std::pair<const std::basic_string<char, std::char_traits<char>, std::allocator<char> >, std::map<std::basic_string<char, std::char_traits<char>, std::allocator<char> >, std::basic_string<char, std::char_traits<char>, std::allocator<char> >, std::less<std::basic_string<char, std::char_traits<char>, std::allocator<char> > >, std::allocator<std::pair<const std::basic_string<char, std::char_traits<char>, std::allocator<char> >, std::basic_string<char, std::char_traits<char>, std::allocator<char> > > > > >, std::_Select1st<std::pair<const std::basic_string<char, std::char_traits<char>, std::allocator<char> >, std::map<std::basic_string<char, std::char_traits<char>, std::allocator<char> >, std::basic_string<char, std::char_traits<char>, std::allocator<char> >, std::less<std::basic_string<char, std::char_traits<char>, std::allocator<char> > >, std::allocator<std::pair<const std::basic_string<char, std::char_traits<char>, std::allocator<char> >, std::basic_string<char, std::char_traits<char>, std::allocator<char> > > > > > >, std::less<std::basic_string<char, std::char_traits<char>, std::allocator<char> > >, std::allocator<std::pair<const std::basic_string<char, std::char_traits<char>, std::allocator<char> >, std::map<std::basic_string<char, std::char_traits<char>, std::allocator<char> >, std::basic_string<char, std::char_traits<char>, std::allocator<char> >, std::less<std::basic_string<char, std::char_traits<char>, std::allocator<char> > >, std::allocator<std::pair<const std::basic_string<char, std::char_traits<char>, std::allocator<char> >, std::basic_string<char, std::char_traits<char>, std::allocator<char> > > > > > > >::_Rb_tree
FUNC 75e7a 8d 0 std::_Rb_tree<std::basic_string<char, std::char_traits<char>, std::allocator<char> >, std::pair<const std::basic_string<char, std::char_traits<char>, std::allocator<char> >, IEC61850_STRUCT::IED_61850>, std::_Select1st<std::pair<const std::basic_string<char, std::char_traits<char>, std::allocator<char> >, IEC61850_STRUCT::IED_61850> >, std::less<std::basic_string<char, std::char_traits<char>, std::allocator<char> > >, std::allocator<std::pair<const std::basic_string<char, std::char_traits<char>, std::allocator<char> >, IEC61850_STRUCT::IED_61850> > >::clear
FUNC 75f08 11d 0 std::_Rb_tree<std::basic_string<char, std::char_traits<char>, std::allocator<char> >, std::pair<const std::basic_string<char, std::char_traits<char>, std::allocator<char> >, IEC61850_STRUCT::IED_61850>, std::_Select1st<std::pair<const std::basic_string<char, std::char_traits<char>, std::allocator<char> >, IEC61850_STRUCT::IED_61850> >, std::less<std::basic_string<char, std::char_traits<char>, std::allocator<char> > >, std::allocator<std::pair<const std::basic_string<char, std::char_traits<char>, std::allocator<char> >, IEC61850_STRUCT::IED_61850> > >::_Rb_tree
FUNC 76026 8d 0 std::_Rb_tree<std::basic_string<char, std::char_traits<char>, std::allocator<char> >, std::pair<const std::basic_string<char, std::char_traits<char>, std::allocator<char> >, IEC103::stConfigParam>, std::_Select1st<std::pair<const std::basic_string<char, std::char_traits<char>, std::allocator<char> >, IEC103::stConfigParam> >, std::less<std::basic_string<char, std::char_traits<char>, std::allocator<char> > >, std::allocator<std::pair<const std::basic_string<char, std::char_traits<char>, std::allocator<char> >, IEC103::stConfigParam> > >::clear
FUNC 760b4 8d 0 std::_Rb_tree<std::basic_string<char, std::char_traits<char>, std::allocator<char> >, std::pair<const std::basic_string<char, std::char_traits<char>, std::allocator<char> >, std::map<std::basic_string<char, std::char_traits<char>, std::allocator<char> >, std::basic_string<char, std::char_traits<char>, std::allocator<char> >, std::less<std::basic_string<char, std::char_traits<char>, std::allocator<char> > >, std::allocator<std::pair<const std::basic_string<char, std::char_traits<char>, std::allocator<char> >, std::basic_string<char, std::char_traits<char>, std::allocator<char> > > > > >, std::_Select1st<std::pair<const std::basic_string<char, std::char_traits<char>, std::allocator<char> >, std::map<std::basic_string<char, std::char_traits<char>, std::allocator<char> >, std::basic_string<char, std::char_traits<char>, std::allocator<char> >, std::less<std::basic_string<char, std::char_traits<char>, std::allocator<char> > >, std::allocator<std::pair<const std::basic_string<char, std::char_traits<char>, std::allocator<char> >, std::basic_string<char, std::char_traits<char>, std::allocator<char> > > > > > >, std::less<std::basic_string<char, std::char_traits<char>, std::allocator<char> > >, std::allocator<std::pair<const std::basic_string<char, std::char_traits<char>, std::allocator<char> >, std::map<std::basic_string<char, std::char_traits<char>, std::allocator<char> >, std::basic_string<char, std::char_traits<char>, std::allocator<char> >, std::less<std::basic_string<char, std::char_traits<char>, std::allocator<char> > >, std::allocator<std::pair<const std::basic_string<char, std::char_traits<char>, std::allocator<char> >, std::basic_string<char, std::char_traits<char>, std::allocator<char> > > > > > > >::clear
FUNC 76142 11d 0 std::_Rb_tree<std::basic_string<char, std::char_traits<char>, std::allocator<char> >, std::pair<const std::basic_string<char, std::char_traits<char>, std::allocator<char> >, IEC103::stConfigParam>, std::_Select1st<std::pair<const std::basic_string<char, std::char_traits<char>, std::allocator<char> >, IEC103::stConfigParam> >, std::less<std::basic_string<char, std::char_traits<char>, std::allocator<char> > >, std::allocator<std::pair<const std::basic_string<char, std::char_traits<char>, std::allocator<char> >, IEC103::stConfigParam> > >::_Rb_tree
FUNC 76260 11d 0 std::_Rb_tree<std::basic_string<char, std::char_traits<char>, std::allocator<char> >, std::pair<const std::basic_string<char, std::char_traits<char>, std::allocator<char> >, std::map<std::basic_string<char, std::char_traits<char>, std::allocator<char> >, std::basic_string<char, std::char_traits<char>, std::allocator<char> >, std::less<std::basic_string<char, std::char_traits<char>, std::allocator<char> > >, std::allocator<std::pair<const std::basic_string<char, std::char_traits<char>, std::allocator<char> >, std::basic_string<char, std::char_traits<char>, std::allocator<char> > > > > >, std::_Select1st<std::pair<const std::basic_string<char, std::char_traits<char>, std::allocator<char> >, std::map<std::basic_string<char, std::char_traits<char>, std::allocator<char> >, std::basic_string<char, std::char_traits<char>, std::allocator<char> >, std::less<std::basic_string<char, std::char_traits<char>, std::allocator<char> > >, std::allocator<std::pair<const std::basic_string<char, std::char_traits<char>, std::allocator<char> >, std::basic_string<char, std::char_traits<char>, std::allocator<char> > > > > > >, std::less<std::basic_string<char, std::char_traits<char>, std::allocator<char> > >, std::allocator<std::pair<const std::basic_string<char, std::char_traits<char>, std::allocator<char> >, std::map<std::basic_string<char, std::char_traits<char>, std::allocator<char> >, std::basic_string<char, std::char_traits<char>, std::allocator<char> >, std::less<std::basic_string<char, std::char_traits<char>, std::allocator<char> > >, std::allocator<std::pair<const std::basic_string<char, std::char_traits<char>, std::allocator<char> >, std::basic_string<char, std::char_traits<char>, std::allocator<char> > > > > > > >::_Rb_tree
FUNC 7637e 8d 0 std::_Rb_tree<std::basic_string<char, std::char_traits<char>, std::allocator<char> >, std::pair<const std::basic_string<char, std::char_traits<char>, std::allocator<char> >, std::map<int, std::map<int, IEC104WF::stPointTable, std::less<int>, std::allocator<std::pair<const int, IEC104WF::stPointTable> > >, std::less<int>, std::allocator<std::pair<const int, std::map<int, IEC104WF::stPointTable, std::less<int>, std::allocator<std::pair<const int, IEC104WF::stPointTable> > > > > > >, std::_Select1st<std::pair<const std::basic_string<char, std::char_traits<char>, std::allocator<char> >, std::map<int, std::map<int, IEC104WF::stPointTable, std::less<int>, std::allocator<std::pair<const int, IEC104WF::stPointTable> > >, std::less<int>, std::allocator<std::pair<const int, std::map<int, IEC104WF::stPointTable, std::less<int>, std::allocator<std::pair<const int, IEC104WF::stPointTable> > > > > > > >, std::less<std::basic_string<char, std::char_traits<char>, std::allocator<char> > >, std::allocator<std::pair<const std::basic_string<char, std::char_traits<char>, std::allocator<char> >, std::map<int, std::map<int, IEC104WF::stPointTable, std::less<int>, std::allocator<std::pair<const int, IEC104WF::stPointTable> > >, std::less<int>, std::allocator<std::pair<const int, std::map<int, IEC104WF::stPointTable, std::less<int>, std::allocator<std::pair<const int, IEC104WF::stPointTable> > > > > > > > >::clear
FUNC 7640c 8d 0 std::_Rb_tree<int, std::pair<const int, std::map<int, IEC104WF::stPointTable, std::less<int>, std::allocator<std::pair<const int, IEC104WF::stPointTable> > > >, std::_Select1st<std::pair<const int, std::map<int, IEC104WF::stPointTable, std::less<int>, std::allocator<std::pair<const int, IEC104WF::stPointTable> > > > >, std::less<int>, std::allocator<std::pair<const int, std::map<int, IEC104WF::stPointTable, std::less<int>, std::allocator<std::pair<const int, IEC104WF::stPointTable> > > > > >::clear
FUNC 7649a 8d 0 std::_Rb_tree<int, std::pair<const int, IEC104WF::stPointTable>, std::_Select1st<std::pair<const int, IEC104WF::stPointTable> >, std::less<int>, std::allocator<std::pair<const int, IEC104WF::stPointTable> > >::clear
FUNC 76528 11d 0 std::_Rb_tree<std::basic_string<char, std::char_traits<char>, std::allocator<char> >, std::pair<const std::basic_string<char, std::char_traits<char>, std::allocator<char> >, std::map<int, std::map<int, IEC104WF::stPointTable, std::less<int>, std::allocator<std::pair<const int, IEC104WF::stPointTable> > >, std::less<int>, std::allocator<std::pair<const int, std::map<int, IEC104WF::stPointTable, std::less<int>, std::allocator<std::pair<const int, IEC104WF::stPointTable> > > > > > >, std::_Select1st<std::pair<const std::basic_string<char, std::char_traits<char>, std::allocator<char> >, std::map<int, std::map<int, IEC104WF::stPointTable, std::less<int>, std::allocator<std::pair<const int, IEC104WF::stPointTable> > >, std::less<int>, std::allocator<std::pair<const int, std::map<int, IEC104WF::stPointTable, std::less<int>, std::allocator<std::pair<const int, IEC104WF::stPointTable> > > > > > > >, std::less<std::basic_string<char, std::char_traits<char>, std::allocator<char> > >, std::allocator<std::pair<const std::basic_string<char, std::char_traits<char>, std::allocator<char> >, std::map<int, std::map<int, IEC104WF::stPointTable, std::less<int>, std::allocator<std::pair<const int, IEC104WF::stPointTable> > >, std::less<int>, std::allocator<std::pair<const int, std::map<int, IEC104WF::stPointTable, std::less<int>, std::allocator<std::pair<const int, IEC104WF::stPointTable> > > > > > > > >::_Rb_tree
FUNC 76646 21 0 std::_List_base<std::basic_string<char, std::char_traits<char>, std::allocator<char> >, std::allocator<std::basic_string<char, std::char_traits<char>, std::allocator<char> > > >::_M_init
FUNC 76668 e 0 std::_List_base<std::basic_string<char, std::char_traits<char>, std::allocator<char> >, std::allocator<std::basic_string<char, std::char_traits<char>, std::allocator<char> > > >::_M_get_Node_allocator
FUNC 76676 1e 0 std::allocator<std::basic_string<char, std::char_traits<char>, std::allocator<char> > >::allocator<std::_List_node<std::basic_string<char, std::char_traits<char>, std::allocator<char> > > >
FUNC 76694 50 0 std::_List_base<std::basic_string<char, std::char_traits<char>, std::allocator<char> >, std::allocator<std::basic_string<char, std::char_traits<char>, std::allocator<char> > > >::_List_base
FUNC 766e4 28 0 std::list<std::basic_string<char, std::char_traits<char>, std::allocator<char> >, std::allocator<std::basic_string<char, std::char_traits<char>, std::allocator<char> > > >::begin
FUNC 7670c 25 0 std::list<std::basic_string<char, std::char_traits<char>, std::allocator<char> >, std::allocator<std::basic_string<char, std::char_traits<char>, std::allocator<char> > > >::end
FUNC 76732 59 0 std::list<std::basic_string<char, std::char_traits<char>, std::allocator<char> >, std::allocator<std::basic_string<char, std::char_traits<char>, std::allocator<char> > > >::_M_initialize_dispatch<std::_List_const_iterator<std::basic_string<char, std::char_traits<char>, std::allocator<char> > > >
FUNC 7678c 25 0 std::map<std::basic_string<char, std::char_traits<char>, std::allocator<char> >, IEC61850_STRUCT::IED_61850, std::less<std::basic_string<char, std::char_traits<char>, std::allocator<char> > >, std::allocator<std::pair<const std::basic_string<char, std::char_traits<char>, std::allocator<char> >, IEC61850_STRUCT::IED_61850> > >::lower_bound
FUNC 767b2 1a 0 std::map<std::basic_string<char, std::char_traits<char>, std::allocator<char> >, IEC61850_STRUCT::IED_61850, std::less<std::basic_string<char, std::char_traits<char>, std::allocator<char> > >, std::allocator<std::pair<const std::basic_string<char, std::char_traits<char>, std::allocator<char> >, IEC61850_STRUCT::IED_61850> > >::key_comp
FUNC 767cc 15 0 std::_Rb_tree_iterator<std::pair<const std::basic_string<char, std::char_traits<char>, std::allocator<char> >, IEC61850_STRUCT::IED_61850> >::operator*
FUNC 767e2 1a 0 std::map<std::basic_string<char, std::char_traits<char>, std::allocator<char> >, IEC61850_STRUCT::IED_61850, std::less<std::basic_string<char, std::char_traits<char>, std::allocator<char> > >, std::allocator<std::pair<const std::basic_string<char, std::char_traits<char>, std::allocator<char> >, IEC61850_STRUCT::IED_61850> > >::end
FUNC 767fc 22 0 std::_Rb_tree_iterator<std::pair<const std::basic_string<char, std::char_traits<char>, std::allocator<char> >, IEC61850_STRUCT::IED_61850> >::operator==
FUNC 7681e 1dc 0 IEC61850_STRUCT::IED_61850::IED_61850
FUNC 769fa 6b 0 std::pair<const std::basic_string<char, std::char_traits<char>, std::allocator<char> >, IEC61850_STRUCT::IED_61850>::pair
FUNC 76a66 40 0 std::map<std::basic_string<char, std::char_traits<char>, std::allocator<char> >, IEC61850_STRUCT::IED_61850, std::less<std::basic_string<char, std::char_traits<char>, std::allocator<char> > >, std::allocator<std::pair<const std::basic_string<char, std::char_traits<char>, std::allocator<char> >, IEC61850_STRUCT::IED_61850> > >::insert
FUNC 76aa6 f8 0 std::_Rb_tree<std::basic_string<char, std::char_traits<char>, std::allocator<char> >, std::pair<const std::basic_string<char, std::char_traits<char>, std::allocator<char> >, std::basic_string<char, std::char_traits<char>, std::allocator<char> > >, std::_Select1st<std::pair<const std::basic_string<char, std::char_traits<char>, std::allocator<char> >, std::basic_string<char, std::char_traits<char>, std::allocator<char> > > >, std::less<std::basic_string<char, std::char_traits<char>, std::allocator<char> > >, std::allocator<std::pair<const std::basic_string<char, std::char_traits<char>, std::allocator<char> >, std::basic_string<char, std::char_traits<char>, std::allocator<char> > > > >::operator=
FUNC 76b9e 25 0 std::map<int, IEC104WF::stPointTable, std::less<int>, std::allocator<std::pair<const int, IEC104WF::stPointTable> > >::lower_bound
FUNC 76bc4 1a 0 std::map<int, IEC104WF::stPointTable, std::less<int>, std::allocator<std::pair<const int, IEC104WF::stPointTable> > >::key_comp
FUNC 76bde 15 0 std::_Rb_tree_iterator<std::pair<const int, IEC104WF::stPointTable> >::operator*
FUNC 76bf4 23 0 std::less<int>::operator()
FUNC 76c18 1a 0 std::map<int, IEC104WF::stPointTable, std::less<int>, std::allocator<std::pair<const int, IEC104WF::stPointTable> > >::end
FUNC 76c32 22 0 std::_Rb_tree_iterator<std::pair<const int, IEC104WF::stPointTable> >::operator==
FUNC 76c54 41 0 IEC104WF::stPointTable::stPointTable
FUNC 76c96 39 0 std::pair<const int, IEC104WF::stPointTable>::pair
FUNC 76cd0 40 0 std::map<int, IEC104WF::stPointTable, std::less<int>, std::allocator<std::pair<const int, IEC104WF::stPointTable> > >::insert
FUNC 76d10 25 0 std::map<int, std::map<int, IEC104WF::stPointTable, std::less<int>, std::allocator<std::pair<const int, IEC104WF::stPointTable> > >, std::less<int>, std::allocator<std::pair<const int, std::map<int, IEC104WF::stPointTable, std::less<int>, std::allocator<std::pair<const int, IEC104WF::stPointTable> > > > > >::lower_bound
FUNC 76d36 1a 0 std::map<int, std::map<int, IEC104WF::stPointTable, std::less<int>, std::allocator<std::pair<const int, IEC104WF::stPointTable> > >, std::less<int>, std::allocator<std::pair<const int, std::map<int, IEC104WF::stPointTable, std::less<int>, std::allocator<std::pair<const int, IEC104WF::stPointTable> > > > > >::key_comp
FUNC 76d50 15 0 std::_Rb_tree_iterator<std::pair<const int, std::map<int, IEC104WF::stPointTable, std::less<int>, std::allocator<std::pair<const int, IEC104WF::stPointTable> > > > >::operator*
FUNC 76d66 1a 0 std::map<int, std::map<int, IEC104WF::stPointTable, std::less<int>, std::allocator<std::pair<const int, IEC104WF::stPointTable> > >, std::less<int>, std::allocator<std::pair<const int, std::map<int, IEC104WF::stPointTable, std::less<int>, std::allocator<std::pair<const int, IEC104WF::stPointTable> > > > > >::end
FUNC 76d80 22 0 std::_Rb_tree_iterator<std::pair<const int, std::map<int, IEC104WF::stPointTable, std::less<int>, std::allocator<std::pair<const int, IEC104WF::stPointTable> > > > >::operator==
FUNC 76da2 39 0 std::pair<const int, std::map<int, IEC104WF::stPointTable, std::less<int>, std::allocator<std::pair<const int, IEC104WF::stPointTable> > > >::pair
FUNC 76ddc 40 0 std::map<int, std::map<int, IEC104WF::stPointTable, std::less<int>, std::allocator<std::pair<const int, IEC104WF::stPointTable> > >, std::less<int>, std::allocator<std::pair<const int, std::map<int, IEC104WF::stPointTable, std::less<int>, std::allocator<std::pair<const int, IEC104WF::stPointTable> > > > > >::insert
FUNC 76e1c f8 0 std::_Rb_tree<int, std::pair<const int, IEC104WF::stPointTable>, std::_Select1st<std::pair<const int, IEC104WF::stPointTable> >, std::less<int>, std::allocator<std::pair<const int, IEC104WF::stPointTable> > >::operator=
FUNC 76f14 25 0 std::map<std::basic_string<char, std::char_traits<char>, std::allocator<char> >, std::map<int, std::map<int, IEC104WF::stPointTable, std::less<int>, std::allocator<std::pair<const int, IEC104WF::stPointTable> > >, std::less<int>, std::allocator<std::pair<const int, std::map<int, IEC104WF::stPointTable, std::less<int>, std::allocator<std::pair<const int, IEC104WF::stPointTable> > > > > >, std::less<std::basic_string<char, std::char_traits<char>, std::allocator<char> > >, std::allocator<std::pair<const std::basic_string<char, std::char_traits<char>, std::allocator<char> >, std::map<int, std::map<int, IEC104WF::stPointTable, std::less<int>, std::allocator<std::pair<const int, IEC104WF::stPointTable> > >, std::less<int>, std::allocator<std::pair<const int, std::map<int, IEC104WF::stPointTable, std::less<int>, std::allocator<std::pair<const int, IEC104WF::stPointTable> > > > > > > > >::lower_bound
FUNC 76f3a 1a 0 std::map<std::basic_string<char, std::char_traits<char>, std::allocator<char> >, std::map<int, std::map<int, IEC104WF::stPointTable, std::less<int>, std::allocator<std::pair<const int, IEC104WF::stPointTable> > >, std::less<int>, std::allocator<std::pair<const int, std::map<int, IEC104WF::stPointTable, std::less<int>, std::allocator<std::pair<const int, IEC104WF::stPointTable> > > > > >, std::less<std::basic_string<char, std::char_traits<char>, std::allocator<char> > >, std::allocator<std::pair<const std::basic_string<char, std::char_traits<char>, std::allocator<char> >, std::map<int, std::map<int, IEC104WF::stPointTable, std::less<int>, std::allocator<std::pair<const int, IEC104WF::stPointTable> > >, std::less<int>, std::allocator<std::pair<const int, std::map<int, IEC104WF::stPointTable, std::less<int>, std::allocator<std::pair<const int, IEC104WF::stPointTable> > > > > > > > >::key_comp
FUNC 76f54 15 0 std::_Rb_tree_iterator<std::pair<const std::basic_string<char, std::char_traits<char>, std::allocator<char> >, std::map<int, std::map<int, IEC104WF::stPointTable, std::less<int>, std::allocator<std::pair<const int, IEC104WF::stPointTable> > >, std::less<int>, std::allocator<std::pair<const int, std::map<int, IEC104WF::stPointTable, std::less<int>, std::allocator<std::pair<const int, IEC104WF::stPointTable> > > > > > > >::operator*
FUNC 76f6a 1a 0 std::map<std::basic_string<char, std::char_traits<char>, std::allocator<char> >, std::map<int, std::map<int, IEC104WF::stPointTable, std::less<int>, std::allocator<std::pair<const int, IEC104WF::stPointTable> > >, std::less<int>, std::allocator<std::pair<const int, std::map<int, IEC104WF::stPointTable, std::less<int>, std::allocator<std::pair<const int, IEC104WF::stPointTable> > > > > >, std::less<std::basic_string<char, std::char_traits<char>, std::allocator<char> > >, std::allocator<std::pair<const std::basic_string<char, std::char_traits<char>, std::allocator<char> >, std::map<int, std::map<int, IEC104WF::stPointTable, std::less<int>, std::allocator<std::pair<const int, IEC104WF::stPointTable> > >, std::less<int>, std::allocator<std::pair<const int, std::map<int, IEC104WF::stPointTable, std::less<int>, std::allocator<std::pair<const int, IEC104WF::stPointTable> > > > > > > > >::end
FUNC 76f84 22 0 std::_Rb_tree_iterator<std::pair<const std::basic_string<char, std::char_traits<char>, std::allocator<char> >, std::map<int, std::map<int, IEC104WF::stPointTable, std::less<int>, std::allocator<std::pair<const int, IEC104WF::stPointTable> > >, std::less<int>, std::allocator<std::pair<const int, std::map<int, IEC104WF::stPointTable, std::less<int>, std::allocator<std::pair<const int, IEC104WF::stPointTable> > > > > > > >::operator==
FUNC 76fa6 6b 0 std::pair<const std::basic_string<char, std::char_traits<char>, std::allocator<char> >, std::map<int, std::map<int, IEC104WF::stPointTable, std::less<int>, std::allocator<std::pair<const int, IEC104WF::stPointTable> > >, std::less<int>, std::allocator<std::pair<const int, std::map<int, IEC104WF::stPointTable, std::less<int>, std::allocator<std::pair<const int, IEC104WF::stPointTable> > > > > > >::pair
FUNC 77012 40 0 std::map<std::basic_string<char, std::char_traits<char>, std::allocator<char> >, std::map<int, std::map<int, IEC104WF::stPointTable, std::less<int>, std::allocator<std::pair<const int, IEC104WF::stPointTable> > >, std::less<int>, std::allocator<std::pair<const int, std::map<int, IEC104WF::stPointTable, std::less<int>, std::allocator<std::pair<const int, IEC104WF::stPointTable> > > > > >, std::less<std::basic_string<char, std::char_traits<char>, std::allocator<char> > >, std::allocator<std::pair<const std::basic_string<char, std::char_traits<char>, std::allocator<char> >, std::map<int, std::map<int, IEC104WF::stPointTable, std::less<int>, std::allocator<std::pair<const int, IEC104WF::stPointTable> > >, std::less<int>, std::allocator<std::pair<const int, std::map<int, IEC104WF::stPointTable, std::less<int>, std::allocator<std::pair<const int, IEC104WF::stPointTable> > > > > > > > >::insert
FUNC 77052 f8 0 std::_Rb_tree<int, std::pair<const int, std::map<int, IEC104WF::stPointTable, std::less<int>, std::allocator<std::pair<const int, IEC104WF::stPointTable> > > >, std::_Select1st<std::pair<const int, std::map<int, IEC104WF::stPointTable, std::less<int>, std::allocator<std::pair<const int, IEC104WF::stPointTable> > > > >, std::less<int>, std::allocator<std::pair<const int, std::map<int, IEC104WF::stPointTable, std::less<int>, std::allocator<std::pair<const int, IEC104WF::stPointTable> > > > > >::operator=
FUNC 7714a 25 0 std::map<std::basic_string<char, std::char_traits<char>, std::allocator<char> >, IEC103::stConfigParam, std::less<std::basic_string<char, std::char_traits<char>, std::allocator<char> > >, std::allocator<std::pair<const std::basic_string<char, std::char_traits<char>, std::allocator<char> >, IEC103::stConfigParam> > >::lower_bound
FUNC 77170 1a 0 std::map<std::basic_string<char, std::char_traits<char>, std::allocator<char> >, IEC103::stConfigParam, std::less<std::basic_string<char, std::char_traits<char>, std::allocator<char> > >, std::allocator<std::pair<const std::basic_string<char, std::char_traits<char>, std::allocator<char> >, IEC103::stConfigParam> > >::key_comp
FUNC 7718a 15 0 std::_Rb_tree_iterator<std::pair<const std::basic_string<char, std::char_traits<char>, std::allocator<char> >, IEC103::stConfigParam> >::operator*
FUNC 771a0 1a 0 std::map<std::basic_string<char, std::char_traits<char>, std::allocator<char> >, IEC103::stConfigParam, std::less<std::basic_string<char, std::char_traits<char>, std::allocator<char> > >, std::allocator<std::pair<const std::basic_string<char, std::char_traits<char>, std::allocator<char> >, IEC103::stConfigParam> > >::end
FUNC 771ba 22 0 std::_Rb_tree_iterator<std::pair<const std::basic_string<char, std::char_traits<char>, std::allocator<char> >, IEC103::stConfigParam> >::operator==
FUNC 771dc bf 0 IEC103::stConfigParam::stConfigParam
FUNC 7729c 6b 0 std::pair<const std::basic_string<char, std::char_traits<char>, std::allocator<char> >, IEC103::stConfigParam>::pair
FUNC 77308 40 0 std::map<std::basic_string<char, std::char_traits<char>, std::allocator<char> >, IEC103::stConfigParam, std::less<std::basic_string<char, std::char_traits<char>, std::allocator<char> > >, std::allocator<std::pair<const std::basic_string<char, std::char_traits<char>, std::allocator<char> >, IEC103::stConfigParam> > >::insert
FUNC 77348 25 0 std::map<std::basic_string<char, std::char_traits<char>, std::allocator<char> >, std::map<std::basic_string<char, std::char_traits<char>, std::allocator<char> >, std::basic_string<char, std::char_traits<char>, std::allocator<char> >, std::less<std::basic_string<char, std::char_traits<char>, std::allocator<char> > >, std::allocator<std::pair<const std::basic_string<char, std::char_traits<char>, std::allocator<char> >, std::basic_string<char, std::char_traits<char>, std::allocator<char> > > > >, std::less<std::basic_string<char, std::char_traits<char>, std::allocator<char> > >, std::allocator<std::pair<const std::basic_string<char, std::char_traits<char>, std::allocator<char> >, std::map<std::basic_string<char, std::char_traits<char>, std::allocator<char> >, std::basic_string<char, std::char_traits<char>, std::allocator<char> >, std::less<std::basic_string<char, std::char_traits<char>, std::allocator<char> > >, std::allocator<std::pair<const std::basic_string<char, std::char_traits<char>, std::allocator<char> >, std::basic_string<char, std::char_traits<char>, std::allocator<char> > > > > > > >::lower_bound
FUNC 7736e 1a 0 std::map<std::basic_string<char, std::char_traits<char>, std::allocator<char> >, std::map<std::basic_string<char, std::char_traits<char>, std::allocator<char> >, std::basic_string<char, std::char_traits<char>, std::allocator<char> >, std::less<std::basic_string<char, std::char_traits<char>, std::allocator<char> > >, std::allocator<std::pair<const std::basic_string<char, std::char_traits<char>, std::allocator<char> >, std::basic_string<char, std::char_traits<char>, std::allocator<char> > > > >, std::less<std::basic_string<char, std::char_traits<char>, std::allocator<char> > >, std::allocator<std::pair<const std::basic_string<char, std::char_traits<char>, std::allocator<char> >, std::map<std::basic_string<char, std::char_traits<char>, std::allocator<char> >, std::basic_string<char, std::char_traits<char>, std::allocator<char> >, std::less<std::basic_string<char, std::char_traits<char>, std::allocator<char> > >, std::allocator<std::pair<const std::basic_string<char, std::char_traits<char>, std::allocator<char> >, std::basic_string<char, std::char_traits<char>, std::allocator<char> > > > > > > >::key_comp
FUNC 77388 15 0 std::_Rb_tree_iterator<std::pair<const std::basic_string<char, std::char_traits<char>, std::allocator<char> >, std::map<std::basic_string<char, std::char_traits<char>, std::allocator<char> >, std::basic_string<char, std::char_traits<char>, std::allocator<char> >, std::less<std::basic_string<char, std::char_traits<char>, std::allocator<char> > >, std::allocator<std::pair<const std::basic_string<char, std::char_traits<char>, std::allocator<char> >, std::basic_string<char, std::char_traits<char>, std::allocator<char> > > > > > >::operator*
FUNC 7739e 1a 0 std::map<std::basic_string<char, std::char_traits<char>, std::allocator<char> >, std::map<std::basic_string<char, std::char_traits<char>, std::allocator<char> >, std::basic_string<char, std::char_traits<char>, std::allocator<char> >, std::less<std::basic_string<char, std::char_traits<char>, std::allocator<char> > >, std::allocator<std::pair<const std::basic_string<char, std::char_traits<char>, std::allocator<char> >, std::basic_string<char, std::char_traits<char>, std::allocator<char> > > > >, std::less<std::basic_string<char, std::char_traits<char>, std::allocator<char> > >, std::allocator<std::pair<const std::basic_string<char, std::char_traits<char>, std::allocator<char> >, std::map<std::basic_string<char, std::char_traits<char>, std::allocator<char> >, std::basic_string<char, std::char_traits<char>, std::allocator<char> >, std::less<std::basic_string<char, std::char_traits<char>, std::allocator<char> > >, std::allocator<std::pair<const std::basic_string<char, std::char_traits<char>, std::allocator<char> >, std::basic_string<char, std::char_traits<char>, std::allocator<char> > > > > > > >::end
FUNC 773b8 22 0 std::_Rb_tree_iterator<std::pair<const std::basic_string<char, std::char_traits<char>, std::allocator<char> >, std::map<std::basic_string<char, std::char_traits<char>, std::allocator<char> >, std::basic_string<char, std::char_traits<char>, std::allocator<char> >, std::less<std::basic_string<char, std::char_traits<char>, std::allocator<char> > >, std::allocator<std::pair<const std::basic_string<char, std::char_traits<char>, std::allocator<char> >, std::basic_string<char, std::char_traits<char>, std::allocator<char> > > > > > >::operator==
FUNC 773da 6b 0 std::pair<const std::basic_string<char, std::char_traits<char>, std::allocator<char> >, std::map<std::basic_string<char, std::char_traits<char>, std::allocator<char> >, std::basic_string<char, std::char_traits<char>, std::allocator<char> >, std::less<std::basic_string<char, std::char_traits<char>, std::allocator<char> > >, std::allocator<std::pair<const std::basic_string<char, std::char_traits<char>, std::allocator<char> >, std::basic_string<char, std::char_traits<char>, std::allocator<char> > > > > >::pair
FUNC 77446 40 0 std::map<std::basic_string<char, std::char_traits<char>, std::allocator<char> >, std::map<std::basic_string<char, std::char_traits<char>, std::allocator<char> >, std::basic_string<char, std::char_traits<char>, std::allocator<char> >, std::less<std::basic_string<char, std::char_traits<char>, std::allocator<char> > >, std::allocator<std::pair<const std::basic_string<char, std::char_traits<char>, std::allocator<char> >, std::basic_string<char, std::char_traits<char>, std::allocator<char> > > > >, std::less<std::basic_string<char, std::char_traits<char>, std::allocator<char> > >, std::allocator<std::pair<const std::basic_string<char, std::char_traits<char>, std::allocator<char> >, std::map<std::basic_string<char, std::char_traits<char>, std::allocator<char> >, std::basic_string<char, std::char_traits<char>, std::allocator<char> >, std::less<std::basic_string<char, std::char_traits<char>, std::allocator<char> > >, std::allocator<std::pair<const std::basic_string<char, std::char_traits<char>, std::allocator<char> >, std::basic_string<char, std::char_traits<char>, std::allocator<char> > > > > > > >::insert
FUNC 77486 25 0 std::list<std::basic_string<char, std::char_traits<char>, std::allocator<char> >, std::allocator<std::basic_string<char, std::char_traits<char>, std::allocator<char> > > >::end
FUNC 774ac 40 0 std::list<std::basic_string<char, std::char_traits<char>, std::allocator<char> >, std::allocator<std::basic_string<char, std::char_traits<char>, std::allocator<char> > > >::_M_insert
FUNC 774ec 61 0 std::_Rb_tree<std::basic_string<char, std::char_traits<char>, std::allocator<char> >, std::pair<const std::basic_string<char, std::char_traits<char>, std::allocator<char> >, IEC61850_STRUCT::IED_61850>, std::_Select1st<std::pair<const std::basic_string<char, std::char_traits<char>, std::allocator<char> >, IEC61850_STRUCT::IED_61850> >, std::less<std::basic_string<char, std::char_traits<char>, std::allocator<char> > >, std::allocator<std::pair<const std::basic_string<char, std::char_traits<char>, std::allocator<char> >, IEC61850_STRUCT::IED_61850> > >::_Rb_tree_impl<std::less<std::basic_string<char, std::char_traits<char>, std::allocator<char> > >, false>::_Rb_tree_impl
FUNC 7754e a 0 __gnu_cxx::new_allocator<std::_Rb_tree_node<std::pair<const std::basic_string<char, std::char_traits<char>, std::allocator<char> >, IEC61850_STRUCT::IED_61850> > >::~new_allocator
FUNC 77558 12 0 std::_Rb_tree<std::basic_string<char, std::char_traits<char>, std::allocator<char> >, std::pair<const std::basic_string<char, std::char_traits<char>, std::allocator<char> >, IEC61850_STRUCT::IED_61850>, std::_Select1st<std::pair<const std::basic_string<char, std::char_traits<char>, std::allocator<char> >, IEC61850_STRUCT::IED_61850> >, std::less<std::basic_string<char, std::char_traits<char>, std::allocator<char> > >, std::allocator<std::pair<const std::basic_string<char, std::char_traits<char>, std::allocator<char> >, IEC61850_STRUCT::IED_61850> > >::_S_right
FUNC 7756a 12 0 std::_Rb_tree<std::basic_string<char, std::char_traits<char>, std::allocator<char> >, std::pair<const std::basic_string<char, std::char_traits<char>, std::allocator<char> >, IEC61850_STRUCT::IED_61850>, std::_Select1st<std::pair<const std::basic_string<char, std::char_traits<char>, std::allocator<char> >, IEC61850_STRUCT::IED_61850> >, std::less<std::basic_string<char, std::char_traits<char>, std::allocator<char> > >, std::allocator<std::pair<const std::basic_string<char, std::char_traits<char>, std::allocator<char> >, IEC61850_STRUCT::IED_61850> > >::_S_left
FUNC 7757c 86 0 std::_Rb_tree<std::basic_string<char, std::char_traits<char>, std::allocator<char> >, std::pair<const std::basic_string<char, std::char_traits<char>, std::allocator<char> >, IEC61850_STRUCT::IED_61850>, std::_Select1st<std::pair<const std::basic_string<char, std::char_traits<char>, std::allocator<char> >, IEC61850_STRUCT::IED_61850> >, std::less<std::basic_string<char, std::char_traits<char>, std::allocator<char> > >, std::allocator<std::pair<const std::basic_string<char, std::char_traits<char>, std::allocator<char> >, IEC61850_STRUCT::IED_61850> > >::_M_destroy_node
FUNC 77602 31 0 std::_List_base<std::basic_string<char, std::char_traits<char>, std::allocator<char> >, std::allocator<std::basic_string<char, std::char_traits<char>, std::allocator<char> > > >::_List_impl::_List_impl
FUNC 77634 a 0 __gnu_cxx::new_allocator<std::_List_node<std::basic_string<char, std::char_traits<char>, std::allocator<char> > > >::~new_allocator
FUNC 7763e 3b 0 std::_List_base<std::basic_string<char, std::char_traits<char>, std::allocator<char> >, std::allocator<std::basic_string<char, std::char_traits<char>, std::allocator<char> > > >::_M_get_Tp_allocator
FUNC 7767a 2a 0 std::_List_base<std::basic_string<char, std::char_traits<char>, std::allocator<char> >, std::allocator<std::basic_string<char, std::char_traits<char>, std::allocator<char> > > >::_M_put_node
FUNC 776a4 61 0 std::_Rb_tree<std::basic_string<char, std::char_traits<char>, std::allocator<char> >, std::pair<const std::basic_string<char, std::char_traits<char>, std::allocator<char> >, std::map<int, std::map<int, IEC104WF::stPointTable, std::less<int>, std::allocator<std::pair<const int, IEC104WF::stPointTable> > >, std::less<int>, std::allocator<std::pair<const int, std::map<int, IEC104WF::stPointTable, std::less<int>, std::allocator<std::pair<const int, IEC104WF::stPointTable> > > > > > >, std::_Select1st<std::pair<const std::basic_string<char, std::char_traits<char>, std::allocator<char> >, std::map<int, std::map<int, IEC104WF::stPointTable, std::less<int>, std::allocator<std::pair<const int, IEC104WF::stPointTable> > >, std::less<int>, std::allocator<std::pair<const int, std::map<int, IEC104WF::stPointTable, std::less<int>, std::allocator<std::pair<const int, IEC104WF::stPointTable> > > > > > > >, std::less<std::basic_string<char, std::char_traits<char>, std::allocator<char> > >, std::allocator<std::pair<const std::basic_string<char, std::char_traits<char>, std::allocator<char> >, std::map<int, std::map<int, IEC104WF::stPointTable, std::less<int>, std::allocator<std::pair<const int, IEC104WF::stPointTable> > >, std::less<int>, std::allocator<std::pair<const int, std::map<int, IEC104WF::stPointTable, std::less<int>, std::allocator<std::pair<const int, IEC104WF::stPointTable> > > > > > > > >::_Rb_tree_impl<std::less<std::basic_string<char, std::char_traits<char>, std::allocator<char> > >, false>::_Rb_tree_impl
FUNC 77706 a 0 __gnu_cxx::new_allocator<std::_Rb_tree_node<std::pair<const std::basic_string<char, std::char_traits<char>, std::allocator<char> >, std::map<int, std::map<int, IEC104WF::stPointTable, std::less<int>, std::allocator<std::pair<const int, IEC104WF::stPointTable> > >, std::less<int>, std::allocator<std::pair<const int, std::map<int, IEC104WF::stPointTable, std::less<int>, std::allocator<std::pair<const int, IEC104WF::stPointTable> > > > > > > > >::~new_allocator
FUNC 77710 12 0 std::_Rb_tree<std::basic_string<char, std::char_traits<char>, std::allocator<char> >, std::pair<const std::basic_string<char, std::char_traits<char>, std::allocator<char> >, std::map<int, std::map<int, IEC104WF::stPointTable, std::less<int>, std::allocator<std::pair<const int, IEC104WF::stPointTable> > >, std::less<int>, std::allocator<std::pair<const int, std::map<int, IEC104WF::stPointTable, std::less<int>, std::allocator<std::pair<const int, IEC104WF::stPointTable> > > > > > >, std::_Select1st<std::pair<const std::basic_string<char, std::char_traits<char>, std::allocator<char> >, std::map<int, std::map<int, IEC104WF::stPointTable, std::less<int>, std::allocator<std::pair<const int, IEC104WF::stPointTable> > >, std::less<int>, std::allocator<std::pair<const int, std::map<int, IEC104WF::stPointTable, std::less<int>, std::allocator<std::pair<const int, IEC104WF::stPointTable> > > > > > > >, std::less<std::basic_string<char, std::char_traits<char>, std::allocator<char> > >, std::allocator<std::pair<const std::basic_string<char, std::char_traits<char>, std::allocator<char> >, std::map<int, std::map<int, IEC104WF::stPointTable, std::less<int>, std::allocator<std::pair<const int, IEC104WF::stPointTable> > >, std::less<int>, std::allocator<std::pair<const int, std::map<int, IEC104WF::stPointTable, std::less<int>, std::allocator<std::pair<const int, IEC104WF::stPointTable> > > > > > > > >::_S_right
FUNC 77722 12 0 std::_Rb_tree<std::basic_string<char, std::char_traits<char>, std::allocator<char> >, std::pair<const std::basic_string<char, std::char_traits<char>, std::allocator<char> >, std::map<int, std::map<int, IEC104WF::stPointTable, std::less<int>, std::allocator<std::pair<const int, IEC104WF::stPointTable> > >, std::less<int>, std::allocator<std::pair<const int, std::map<int, IEC104WF::stPointTable, std::less<int>, std::allocator<std::pair<const int, IEC104WF::stPointTable> > > > > > >, std::_Select1st<std::pair<const std::basic_string<char, std::char_traits<char>, std::allocator<char> >, std::map<int, std::map<int, IEC104WF::stPointTable, std::less<int>, std::allocator<std::pair<const int, IEC104WF::stPointTable> > >, std::less<int>, std::allocator<std::pair<const int, std::map<int, IEC104WF::stPointTable, std::less<int>, std::allocator<std::pair<const int, IEC104WF::stPointTable> > > > > > > >, std::less<std::basic_string<char, std::char_traits<char>, std::allocator<char> > >, std::allocator<std::pair<const std::basic_string<char, std::char_traits<char>, std::allocator<char> >, std::map<int, std::map<int, IEC104WF::stPointTable, std::less<int>, std::allocator<std::pair<const int, IEC104WF::stPointTable> > >, std::less<int>, std::allocator<std::pair<const int, std::map<int, IEC104WF::stPointTable, std::less<int>, std::allocator<std::pair<const int, IEC104WF::stPointTable> > > > > > > > >::_S_left
FUNC 77734 86 0 std::_Rb_tree<std::basic_string<char, std::char_traits<char>, std::allocator<char> >, std::pair<const std::basic_string<char, std::char_traits<char>, std::allocator<char> >, std::map<int, std::map<int, IEC104WF::stPointTable, std::less<int>, std::allocator<std::pair<const int, IEC104WF::stPointTable> > >, std::less<int>, std::allocator<std::pair<const int, std::map<int, IEC104WF::stPointTable, std::less<int>, std::allocator<std::pair<const int, IEC104WF::stPointTable> > > > > > >, std::_Select1st<std::pair<const std::basic_string<char, std::char_traits<char>, std::allocator<char> >, std::map<int, std::map<int, IEC104WF::stPointTable, std::less<int>, std::allocator<std::pair<const int, IEC104WF::stPointTable> > >, std::less<int>, std::allocator<std::pair<const int, std::map<int, IEC104WF::stPointTable, std::less<int>, std::allocator<std::pair<const int, IEC104WF::stPointTable> > > > > > > >, std::less<std::basic_string<char, std::char_traits<char>, std::allocator<char> > >, std::allocator<std::pair<const std::basic_string<char, std::char_traits<char>, std::allocator<char> >, std::map<int, std::map<int, IEC104WF::stPointTable, std::less<int>, std::allocator<std::pair<const int, IEC104WF::stPointTable> > >, std::less<int>, std::allocator<std::pair<const int, std::map<int, IEC104WF::stPointTable, std::less<int>, std::allocator<std::pair<const int, IEC104WF::stPointTable> > > > > > > > >::_M_destroy_node
FUNC 777ba 61 0 std::_Rb_tree<int, std::pair<const int, std::map<int, IEC104WF::stPointTable, std::less<int>, std::allocator<std::pair<const int, IEC104WF::stPointTable> > > >, std::_Select1st<std::pair<const int, std::map<int, IEC104WF::stPointTable, std::less<int>, std::allocator<std::pair<const int, IEC104WF::stPointTable> > > > >, std::less<int>, std::allocator<std::pair<const int, std::map<int, IEC104WF::stPointTable, std::less<int>, std::allocator<std::pair<const int, IEC104WF::stPointTable> > > > > >::_Rb_tree_impl<std::less<int>, false>::_Rb_tree_impl
FUNC 7781c a 0 __gnu_cxx::new_allocator<std::_Rb_tree_node<std::pair<const int, std::map<int, IEC104WF::stPointTable, std::less<int>, std::allocator<std::pair<const int, IEC104WF::stPointTable> > > > > >::~new_allocator
FUNC 77826 12 0 std::_Rb_tree<int, std::pair<const int, std::map<int, IEC104WF::stPointTable, std::less<int>, std::allocator<std::pair<const int, IEC104WF::stPointTable> > > >, std::_Select1st<std::pair<const int, std::map<int, IEC104WF::stPointTable, std::less<int>, std::allocator<std::pair<const int, IEC104WF::stPointTable> > > > >, std::less<int>, std::allocator<std::pair<const int, std::map<int, IEC104WF::stPointTable, std::less<int>, std::allocator<std::pair<const int, IEC104WF::stPointTable> > > > > >::_S_right
FUNC 77838 12 0 std::_Rb_tree<int, std::pair<const int, std::map<int, IEC104WF::stPointTable, std::less<int>, std::allocator<std::pair<const int, IEC104WF::stPointTable> > > >, std::_Select1st<std::pair<const int, std::map<int, IEC104WF::stPointTable, std::less<int>, std::allocator<std::pair<const int, IEC104WF::stPointTable> > > > >, std::less<int>, std::allocator<std::pair<const int, std::map<int, IEC104WF::stPointTable, std::less<int>, std::allocator<std::pair<const int, IEC104WF::stPointTable> > > > > >::_S_left
FUNC 7784a 86 0 std::_Rb_tree<int, std::pair<const int, std::map<int, IEC104WF::stPointTable, std::less<int>, std::allocator<std::pair<const int, IEC104WF::stPointTable> > > >, std::_Select1st<std::pair<const int, std::map<int, IEC104WF::stPointTable, std::less<int>, std::allocator<std::pair<const int, IEC104WF::stPointTable> > > > >, std::less<int>, std::allocator<std::pair<const int, std::map<int, IEC104WF::stPointTable, std::less<int>, std::allocator<std::pair<const int, IEC104WF::stPointTable> > > > > >::_M_destroy_node
FUNC 778d0 61 0 std::_Rb_tree<int, std::pair<const int, IEC104WF::stPointTable>, std::_Select1st<std::pair<const int, IEC104WF::stPointTable> >, std::less<int>, std::allocator<std::pair<const int, IEC104WF::stPointTable> > >::_Rb_tree_impl<std::less<int>, false>::_Rb_tree_impl
FUNC 77932 a 0 __gnu_cxx::new_allocator<std::_Rb_tree_node<std::pair<const int, IEC104WF::stPointTable> > >::~new_allocator
FUNC 7793c 12 0 std::_Rb_tree<int, std::pair<const int, IEC104WF::stPointTable>, std::_Select1st<std::pair<const int, IEC104WF::stPointTable> >, std::less<int>, std::allocator<std::pair<const int, IEC104WF::stPointTable> > >::_S_right
FUNC 7794e 12 0 std::_Rb_tree<int, std::pair<const int, IEC104WF::stPointTable>, std::_Select1st<std::pair<const int, IEC104WF::stPointTable> >, std::less<int>, std::allocator<std::pair<const int, IEC104WF::stPointTable> > >::_S_left
FUNC 77960 86 0 std::_Rb_tree<int, std::pair<const int, IEC104WF::stPointTable>, std::_Select1st<std::pair<const int, IEC104WF::stPointTable> >, std::less<int>, std::allocator<std::pair<const int, IEC104WF::stPointTable> > >::_M_destroy_node
FUNC 779e6 61 0 std::_Rb_tree<std::basic_string<char, std::char_traits<char>, std::allocator<char> >, std::pair<const std::basic_string<char, std::char_traits<char>, std::allocator<char> >, IEC103::stConfigParam>, std::_Select1st<std::pair<const std::basic_string<char, std::char_traits<char>, std::allocator<char> >, IEC103::stConfigParam> >, std::less<std::basic_string<char, std::char_traits<char>, std::allocator<char> > >, std::allocator<std::pair<const std::basic_string<char, std::char_traits<char>, std::allocator<char> >, IEC103::stConfigParam> > >::_Rb_tree_impl<std::less<std::basic_string<char, std::char_traits<char>, std::allocator<char> > >, false>::_Rb_tree_impl
FUNC 77a48 61 0 std::_Rb_tree<std::basic_string<char, std::char_traits<char>, std::allocator<char> >, std::pair<const std::basic_string<char, std::char_traits<char>, std::allocator<char> >, std::map<std::basic_string<char, std::char_traits<char>, std::allocator<char> >, std::basic_string<char, std::char_traits<char>, std::allocator<char> >, std::less<std::basic_string<char, std::char_traits<char>, std::allocator<char> > >, std::allocator<std::pair<const std::basic_string<char, std::char_traits<char>, std::allocator<char> >, std::basic_string<char, std::char_traits<char>, std::allocator<char> > > > > >, std::_Select1st<std::pair<const std::basic_string<char, std::char_traits<char>, std::allocator<char> >, std::map<std::basic_string<char, std::char_traits<char>, std::allocator<char> >, std::basic_string<char, std::char_traits<char>, std::allocator<char> >, std::less<std::basic_string<char, std::char_traits<char>, std::allocator<char> > >, std::allocator<std::pair<const std::basic_string<char, std::char_traits<char>, std::allocator<char> >, std::basic_string<char, std::char_traits<char>, std::allocator<char> > > > > > >, std::less<std::basic_string<char, std::char_traits<char>, std::allocator<char> > >, std::allocator<std::pair<const std::basic_string<char, std::char_traits<char>, std::allocator<char> >, std::map<std::basic_string<char, std::char_traits<char>, std::allocator<char> >, std::basic_string<char, std::char_traits<char>, std::allocator<char> >, std::less<std::basic_string<char, std::char_traits<char>, std::allocator<char> > >, std::allocator<std::pair<const std::basic_string<char, std::char_traits<char>, std::allocator<char> >, std::basic_string<char, std::char_traits<char>, std::allocator<char> > > > > > > >::_Rb_tree_impl<std::less<std::basic_string<char, std::char_traits<char>, std::allocator<char> > >, false>::_Rb_tree_impl
FUNC 77aaa 12 0 std::_Rb_tree<std::basic_string<char, std::char_traits<char>, std::allocator<char> >, std::pair<const std::basic_string<char, std::char_traits<char>, std::allocator<char> >, IEC61850_STRUCT::IED_61850>, std::_Select1st<std::pair<const std::basic_string<char, std::char_traits<char>, std::allocator<char> >, IEC61850_STRUCT::IED_61850> >, std::less<std::basic_string<char, std::char_traits<char>, std::allocator<char> > >, std::allocator<std::pair<const std::basic_string<char, std::char_traits<char>, std::allocator<char> >, IEC61850_STRUCT::IED_61850> > >::_M_end
FUNC 77abc 12 0 std::_Rb_tree<std::basic_string<char, std::char_traits<char>, std::allocator<char> >, std::pair<const std::basic_string<char, std::char_traits<char>, std::allocator<char> >, IEC61850_STRUCT::IED_61850>, std::_Select1st<std::pair<const std::basic_string<char, std::char_traits<char>, std::allocator<char> >, IEC61850_STRUCT::IED_61850> >, std::less<std::basic_string<char, std::char_traits<char>, std::allocator<char> > >, std::allocator<std::pair<const std::basic_string<char, std::char_traits<char>, std::allocator<char> >, IEC61850_STRUCT::IED_61850> > >::_M_leftmost
FUNC 77ace 12 0 std::_Rb_tree<std::basic_string<char, std::char_traits<char>, std::allocator<char> >, std::pair<const std::basic_string<char, std::char_traits<char>, std::allocator<char> >, IEC61850_STRUCT::IED_61850>, std::_Select1st<std::pair<const std::basic_string<char, std::char_traits<char>, std::allocator<char> >, IEC61850_STRUCT::IED_61850> >, std::less<std::basic_string<char, std::char_traits<char>, std::allocator<char> > >, std::allocator<std::pair<const std::basic_string<char, std::char_traits<char>, std::allocator<char> >, IEC61850_STRUCT::IED_61850> > >::_M_root
FUNC 77ae0 12 0 std::_Rb_tree<std::basic_string<char, std::char_traits<char>, std::allocator<char> >, std::pair<const std::basic_string<char, std::char_traits<char>, std::allocator<char> >, IEC61850_STRUCT::IED_61850>, std::_Select1st<std::pair<const std::basic_string<char, std::char_traits<char>, std::allocator<char> >, IEC61850_STRUCT::IED_61850> >, std::less<std::basic_string<char, std::char_traits<char>, std::allocator<char> > >, std::allocator<std::pair<const std::basic_string<char, std::char_traits<char>, std::allocator<char> >, IEC61850_STRUCT::IED_61850> > >::_M_rightmost
FUNC 77af2 e 0 std::_Rb_tree<std::basic_string<char, std::char_traits<char>, std::allocator<char> >, std::pair<const std::basic_string<char, std::char_traits<char>, std::allocator<char> >, IEC61850_STRUCT::IED_61850>, std::_Select1st<std::pair<const std::basic_string<char, std::char_traits<char>, std::allocator<char> >, IEC61850_STRUCT::IED_61850> >, std::less<std::basic_string<char, std::char_traits<char>, std::allocator<char> > >, std::allocator<std::pair<const std::basic_string<char, std::char_traits<char>, std::allocator<char> >, IEC61850_STRUCT::IED_61850> > >::_M_get_Node_allocator
FUNC 77b00 70 0 std::_Rb_tree<std::basic_string<char, std::char_traits<char>, std::allocator<char> >, std::pair<const std::basic_string<char, std::char_traits<char>, std::allocator<char> >, IEC61850_STRUCT::IED_61850>, std::_Select1st<std::pair<const std::basic_string<char, std::char_traits<char>, std::allocator<char> >, IEC61850_STRUCT::IED_61850> >, std::less<std::basic_string<char, std::char_traits<char>, std::allocator<char> > >, std::allocator<std::pair<const std::basic_string<char, std::char_traits<char>, std::allocator<char> >, IEC61850_STRUCT::IED_61850> > >::_Rb_tree_impl<std::less<std::basic_string<char, std::char_traits<char>, std::allocator<char> > >, false>::_Rb_tree_impl
FUNC 77b70 12 0 std::_Rb_tree<std::basic_string<char, std::char_traits<char>, std::allocator<char> >, std::pair<const std::basic_string<char, std::char_traits<char>, std::allocator<char> >, IEC61850_STRUCT::IED_61850>, std::_Select1st<std::pair<const std::basic_string<char, std::char_traits<char>, std::allocator<char> >, IEC61850_STRUCT::IED_61850> >, std::less<std::basic_string<char, std::char_traits<char>, std::allocator<char> > >, std::allocator<std::pair<const std::basic_string<char, std::char_traits<char>, std::allocator<char> >, IEC61850_STRUCT::IED_61850> > >::_M_root
FUNC 77b82 169 0 std::_Rb_tree<std::basic_string<char, std::char_traits<char>, std::allocator<char> >, std::pair<const std::basic_string<char, std::char_traits<char>, std::allocator<char> >, IEC61850_STRUCT::IED_61850>, std::_Select1st<std::pair<const std::basic_string<char, std::char_traits<char>, std::allocator<char> >, IEC61850_STRUCT::IED_61850> >, std::less<std::basic_string<char, std::char_traits<char>, std::allocator<char> > >, std::allocator<std::pair<const std::basic_string<char, std::char_traits<char>, std::allocator<char> >, IEC61850_STRUCT::IED_61850> > >::_M_copy
FUNC 77cec 12 0 std::_Rb_tree<std::basic_string<char, std::char_traits<char>, std::allocator<char> >, std::pair<const std::basic_string<char, std::char_traits<char>, std::allocator<char> >, IEC61850_STRUCT::IED_61850>, std::_Select1st<std::pair<const std::basic_string<char, std::char_traits<char>, std::allocator<char> >, IEC61850_STRUCT::IED_61850> >, std::less<std::basic_string<char, std::char_traits<char>, std::allocator<char> > >, std::allocator<std::pair<const std::basic_string<char, std::char_traits<char>, std::allocator<char> >, IEC61850_STRUCT::IED_61850> > >::_M_begin
FUNC 77cfe 1a 0 std::_Rb_tree<std::basic_string<char, std::char_traits<char>, std::allocator<char> >, std::pair<const std::basic_string<char, std::char_traits<char>, std::allocator<char> >, IEC61850_STRUCT::IED_61850>, std::_Select1st<std::pair<const std::basic_string<char, std::char_traits<char>, std::allocator<char> >, IEC61850_STRUCT::IED_61850> >, std::less<std::basic_string<char, std::char_traits<char>, std::allocator<char> > >, std::allocator<std::pair<const std::basic_string<char, std::char_traits<char>, std::allocator<char> >, IEC61850_STRUCT::IED_61850> > >::_S_minimum
FUNC 77d18 1a 0 std::_Rb_tree<std::basic_string<char, std::char_traits<char>, std::allocator<char> >, std::pair<const std::basic_string<char, std::char_traits<char>, std::allocator<char> >, IEC61850_STRUCT::IED_61850>, std::_Select1st<std::pair<const std::basic_string<char, std::char_traits<char>, std::allocator<char> >, IEC61850_STRUCT::IED_61850> >, std::less<std::basic_string<char, std::char_traits<char>, std::allocator<char> > >, std::allocator<std::pair<const std::basic_string<char, std::char_traits<char>, std::allocator<char> >, IEC61850_STRUCT::IED_61850> > >::_S_maximum
FUNC 77d32 12 0 std::_Rb_tree<std::basic_string<char, std::char_traits<char>, std::allocator<char> >, std::pair<const std::basic_string<char, std::char_traits<char>, std::allocator<char> >, IEC103::stConfigParam>, std::_Select1st<std::pair<const std::basic_string<char, std::char_traits<char>, std::allocator<char> >, IEC103::stConfigParam> >, std::less<std::basic_string<char, std::char_traits<char>, std::allocator<char> > >, std::allocator<std::pair<const std::basic_string<char, std::char_traits<char>, std::allocator<char> >, IEC103::stConfigParam> > >::_M_end
FUNC 77d44 12 0 std::_Rb_tree<std::basic_string<char, std::char_traits<char>, std::allocator<char> >, std::pair<const std::basic_string<char, std::char_traits<char>, std::allocator<char> >, IEC103::stConfigParam>, std::_Select1st<std::pair<const std::basic_string<char, std::char_traits<char>, std::allocator<char> >, IEC103::stConfigParam> >, std::less<std::basic_string<char, std::char_traits<char>, std::allocator<char> > >, std::allocator<std::pair<const std::basic_string<char, std::char_traits<char>, std::allocator<char> >, IEC103::stConfigParam> > >::_M_leftmost
FUNC 77d56 12 0 std::_Rb_tree<std::basic_string<char, std::char_traits<char>, std::allocator<char> >, std::pair<const std::basic_string<char, std::char_traits<char>, std::allocator<char> >, IEC103::stConfigParam>, std::_Select1st<std::pair<const std::basic_string<char, std::char_traits<char>, std::allocator<char> >, IEC103::stConfigParam> >, std::less<std::basic_string<char, std::char_traits<char>, std::allocator<char> > >, std::allocator<std::pair<const std::basic_string<char, std::char_traits<char>, std::allocator<char> >, IEC103::stConfigParam> > >::_M_root
FUNC 77d68 12 0 std::_Rb_tree<std::basic_string<char, std::char_traits<char>, std::allocator<char> >, std::pair<const std::basic_string<char, std::char_traits<char>, std::allocator<char> >, IEC103::stConfigParam>, std::_Select1st<std::pair<const std::basic_string<char, std::char_traits<char>, std::allocator<char> >, IEC103::stConfigParam> >, std::less<std::basic_string<char, std::char_traits<char>, std::allocator<char> > >, std::allocator<std::pair<const std::basic_string<char, std::char_traits<char>, std::allocator<char> >, IEC103::stConfigParam> > >::_M_rightmost
FUNC 77d7a 12 0 std::_Rb_tree<std::basic_string<char, std::char_traits<char>, std::allocator<char> >, std::pair<const std::basic_string<char, std::char_traits<char>, std::allocator<char> >, std::map<std::basic_string<char, std::char_traits<char>, std::allocator<char> >, std::basic_string<char, std::char_traits<char>, std::allocator<char> >, std::less<std::basic_string<char, std::char_traits<char>, std::allocator<char> > >, std::allocator<std::pair<const std::basic_string<char, std::char_traits<char>, std::allocator<char> >, std::basic_string<char, std::char_traits<char>, std::allocator<char> > > > > >, std::_Select1st<std::pair<const std::basic_string<char, std::char_traits<char>, std::allocator<char> >, std::map<std::basic_string<char, std::char_traits<char>, std::allocator<char> >, std::basic_string<char, std::char_traits<char>, std::allocator<char> >, std::less<std::basic_string<char, std::char_traits<char>, std::allocator<char> > >, std::allocator<std::pair<const std::basic_string<char, std::char_traits<char>, std::allocator<char> >, std::basic_string<char, std::char_traits<char>, std::allocator<char> > > > > > >, std::less<std::basic_string<char, std::char_traits<char>, std::allocator<char> > >, std::allocator<std::pair<const std::basic_string<char, std::char_traits<char>, std::allocator<char> >, std::map<std::basic_string<char, std::char_traits<char>, std::allocator<char> >, std::basic_string<char, std::char_traits<char>, std::allocator<char> >, std::less<std::basic_string<char, std::char_traits<char>, std::allocator<char> > >, std::allocator<std::pair<const std::basic_string<char, std::char_traits<char>, std::allocator<char> >, std::basic_string<char, std::char_traits<char>, std::allocator<char> > > > > > > >::_M_end
FUNC 77d8c 12 0 std::_Rb_tree<std::basic_string<char, std::char_traits<char>, std::allocator<char> >, std::pair<const std::basic_string<char, std::char_traits<char>, std::allocator<char> >, std::map<std::basic_string<char, std::char_traits<char>, std::allocator<char> >, std::basic_string<char, std::char_traits<char>, std::allocator<char> >, std::less<std::basic_string<char, std::char_traits<char>, std::allocator<char> > >, std::allocator<std::pair<const std::basic_string<char, std::char_traits<char>, std::allocator<char> >, std::basic_string<char, std::char_traits<char>, std::allocator<char> > > > > >, std::_Select1st<std::pair<const std::basic_string<char, std::char_traits<char>, std::allocator<char> >, std::map<std::basic_string<char, std::char_traits<char>, std::allocator<char> >, std::basic_string<char, std::char_traits<char>, std::allocator<char> >, std::less<std::basic_string<char, std::char_traits<char>, std::allocator<char> > >, std::allocator<std::pair<const std::basic_string<char, std::char_traits<char>, std::allocator<char> >, std::basic_string<char, std::char_traits<char>, std::allocator<char> > > > > > >, std::less<std::basic_string<char, std::char_traits<char>, std::allocator<char> > >, std::allocator<std::pair<const std::basic_string<char, std::char_traits<char>, std::allocator<char> >, std::map<std::basic_string<char, std::char_traits<char>, std::allocator<char> >, std::basic_string<char, std::char_traits<char>, std::allocator<char> >, std::less<std::basic_string<char, std::char_traits<char>, std::allocator<char> > >, std::allocator<std::pair<const std::basic_string<char, std::char_traits<char>, std::allocator<char> >, std::basic_string<char, std::char_traits<char>, std::allocator<char> > > > > > > >::_M_leftmost
FUNC 77d9e 12 0 std::_Rb_tree<std::basic_string<char, std::char_traits<char>, std::allocator<char> >, std::pair<const std::basic_string<char, std::char_traits<char>, std::allocator<char> >, std::map<std::basic_string<char, std::char_traits<char>, std::allocator<char> >, std::basic_string<char, std::char_traits<char>, std::allocator<char> >, std::less<std::basic_string<char, std::char_traits<char>, std::allocator<char> > >, std::allocator<std::pair<const std::basic_string<char, std::char_traits<char>, std::allocator<char> >, std::basic_string<char, std::char_traits<char>, std::allocator<char> > > > > >, std::_Select1st<std::pair<const std::basic_string<char, std::char_traits<char>, std::allocator<char> >, std::map<std::basic_string<char, std::char_traits<char>, std::allocator<char> >, std::basic_string<char, std::char_traits<char>, std::allocator<char> >, std::less<std::basic_string<char, std::char_traits<char>, std::allocator<char> > >, std::allocator<std::pair<const std::basic_string<char, std::char_traits<char>, std::allocator<char> >, std::basic_string<char, std::char_traits<char>, std::allocator<char> > > > > > >, std::less<std::basic_string<char, std::char_traits<char>, std::allocator<char> > >, std::allocator<std::pair<const std::basic_string<char, std::char_traits<char>, std::allocator<char> >, std::map<std::basic_string<char, std::char_traits<char>, std::allocator<char> >, std::basic_string<char, std::char_traits<char>, std::allocator<char> >, std::less<std::basic_string<char, std::char_traits<char>, std::allocator<char> > >, std::allocator<std::pair<const std::basic_string<char, std::char_traits<char>, std::allocator<char> >, std::basic_string<char, std::char_traits<char>, std::allocator<char> > > > > > > >::_M_root
FUNC 77db0 12 0 std::_Rb_tree<std::basic_string<char, std::char_traits<char>, std::allocator<char> >, std::pair<const std::basic_string<char, std::char_traits<char>, std::allocator<char> >, std::map<std::basic_string<char, std::char_traits<char>, std::allocator<char> >, std::basic_string<char, std::char_traits<char>, std::allocator<char> >, std::less<std::basic_string<char, std::char_traits<char>, std::allocator<char> > >, std::allocator<std::pair<const std::basic_string<char, std::char_traits<char>, std::allocator<char> >, std::basic_string<char, std::char_traits<char>, std::allocator<char> > > > > >, std::_Select1st<std::pair<const std::basic_string<char, std::char_traits<char>, std::allocator<char> >, std::map<std::basic_string<char, std::char_traits<char>, std::allocator<char> >, std::basic_string<char, std::char_traits<char>, std::allocator<char> >, std::less<std::basic_string<char, std::char_traits<char>, std::allocator<char> > >, std::allocator<std::pair<const std::basic_string<char, std::char_traits<char>, std::allocator<char> >, std::basic_string<char, std::char_traits<char>, std::allocator<char> > > > > > >, std::less<std::basic_string<char, std::char_traits<char>, std::allocator<char> > >, std::allocator<std::pair<const std::basic_string<char, std::char_traits<char>, std::allocator<char> >, std::map<std::basic_string<char, std::char_traits<char>, std::allocator<char> >, std::basic_string<char, std::char_traits<char>, std::allocator<char> >, std::less<std::basic_string<char, std::char_traits<char>, std::allocator<char> > >, std::allocator<std::pair<const std::basic_string<char, std::char_traits<char>, std::allocator<char> >, std::basic_string<char, std::char_traits<char>, std::allocator<char> > > > > > > >::_M_rightmost
FUNC 77dc2 70 0 std::_Rb_tree<std::basic_string<char, std::char_traits<char>, std::allocator<char> >, std::pair<const std::basic_string<char, std::char_traits<char>, std::allocator<char> >, IEC103::stConfigParam>, std::_Select1st<std::pair<const std::basic_string<char, std::char_traits<char>, std::allocator<char> >, IEC103::stConfigParam> >, std::less<std::basic_string<char, std::char_traits<char>, std::allocator<char> > >, std::allocator<std::pair<const std::basic_string<char, std::char_traits<char>, std::allocator<char> >, IEC103::stConfigParam> > >::_Rb_tree_impl<std::less<std::basic_string<char, std::char_traits<char>, std::allocator<char> > >, false>::_Rb_tree_impl
FUNC 77e32 12 0 std::_Rb_tree<std::basic_string<char, std::char_traits<char>, std::allocator<char> >, std::pair<const std::basic_string<char, std::char_traits<char>, std::allocator<char> >, IEC103::stConfigParam>, std::_Select1st<std::pair<const std::basic_string<char, std::char_traits<char>, std::allocator<char> >, IEC103::stConfigParam> >, std::less<std::basic_string<char, std::char_traits<char>, std::allocator<char> > >, std::allocator<std::pair<const std::basic_string<char, std::char_traits<char>, std::allocator<char> >, IEC103::stConfigParam> > >::_M_root
FUNC 77e44 169 0 std::_Rb_tree<std::basic_string<char, std::char_traits<char>, std::allocator<char> >, std::pair<const std::basic_string<char, std::char_traits<char>, std::allocator<char> >, IEC103::stConfigParam>, std::_Select1st<std::pair<const std::basic_string<char, std::char_traits<char>, std::allocator<char> >, IEC103::stConfigParam> >, std::less<std::basic_string<char, std::char_traits<char>, std::allocator<char> > >, std::allocator<std::pair<const std::basic_string<char, std::char_traits<char>, std::allocator<char> >, IEC103::stConfigParam> > >::_M_copy
FUNC 77fae 12 0 std::_Rb_tree<std::basic_string<char, std::char_traits<char>, std::allocator<char> >, std::pair<const std::basic_string<char, std::char_traits<char>, std::allocator<char> >, IEC103::stConfigParam>, std::_Select1st<std::pair<const std::basic_string<char, std::char_traits<char>, std::allocator<char> >, IEC103::stConfigParam> >, std::less<std::basic_string<char, std::char_traits<char>, std::allocator<char> > >, std::allocator<std::pair<const std::basic_string<char, std::char_traits<char>, std::allocator<char> >, IEC103::stConfigParam> > >::_M_begin
FUNC 77fc0 1a 0 std::_Rb_tree<std::basic_string<char, std::char_traits<char>, std::allocator<char> >, std::pair<const std::basic_string<char, std::char_traits<char>, std::allocator<char> >, IEC103::stConfigParam>, std::_Select1st<std::pair<const std::basic_string<char, std::char_traits<char>, std::allocator<char> >, IEC103::stConfigParam> >, std::less<std::basic_string<char, std::char_traits<char>, std::allocator<char> > >, std::allocator<std::pair<const std::basic_string<char, std::char_traits<char>, std::allocator<char> >, IEC103::stConfigParam> > >::_S_minimum
FUNC 77fda 1a 0 std::_Rb_tree<std::basic_string<char, std::char_traits<char>, std::allocator<char> >, std::pair<const std::basic_string<char, std::char_traits<char>, std::allocator<char> >, IEC103::stConfigParam>, std::_Select1st<std::pair<const std::basic_string<char, std::char_traits<char>, std::allocator<char> >, IEC103::stConfigParam> >, std::less<std::basic_string<char, std::char_traits<char>, std::allocator<char> > >, std::allocator<std::pair<const std::basic_string<char, std::char_traits<char>, std::allocator<char> >, IEC103::stConfigParam> > >::_S_maximum
FUNC 77ff4 70 0 std::_Rb_tree<std::basic_string<char, std::char_traits<char>, std::allocator<char> >, std::pair<const std::basic_string<char, std::char_traits<char>, std::allocator<char> >, std::map<std::basic_string<char, std::char_traits<char>, std::allocator<char> >, std::basic_string<char, std::char_traits<char>, std::allocator<char> >, std::less<std::basic_string<char, std::char_traits<char>, std::allocator<char> > >, std::allocator<std::pair<const std::basic_string<char, std::char_traits<char>, std::allocator<char> >, std::basic_string<char, std::char_traits<char>, std::allocator<char> > > > > >, std::_Select1st<std::pair<const std::basic_string<char, std::char_traits<char>, std::allocator<char> >, std::map<std::basic_string<char, std::char_traits<char>, std::allocator<char> >, std::basic_string<char, std::char_traits<char>, std::allocator<char> >, std::less<std::basic_string<char, std::char_traits<char>, std::allocator<char> > >, std::allocator<std::pair<const std::basic_string<char, std::char_traits<char>, std::allocator<char> >, std::basic_string<char, std::char_traits<char>, std::allocator<char> > > > > > >, std::less<std::basic_string<char, std::char_traits<char>, std::allocator<char> > >, std::allocator<std::pair<const std::basic_string<char, std::char_traits<char>, std::allocator<char> >, std::map<std::basic_string<char, std::char_traits<char>, std::allocator<char> >, std::basic_string<char, std::char_traits<char>, std::allocator<char> >, std::less<std::basic_string<char, std::char_traits<char>, std::allocator<char> > >, std::allocator<std::pair<const std::basic_string<char, std::char_traits<char>, std::allocator<char> >, std::basic_string<char, std::char_traits<char>, std::allocator<char> > > > > > > >::_Rb_tree_impl<std::less<std::basic_string<char, std::char_traits<char>, std::allocator<char> > >, false>::_Rb_tree_impl
FUNC 78064 12 0 std::_Rb_tree<std::basic_string<char, std::char_traits<char>, std::allocator<char> >, std::pair<const std::basic_string<char, std::char_traits<char>, std::allocator<char> >, std::map<std::basic_string<char, std::char_traits<char>, std::allocator<char> >, std::basic_string<char, std::char_traits<char>, std::allocator<char> >, std::less<std::basic_string<char, std::char_traits<char>, std::allocator<char> > >, std::allocator<std::pair<const std::basic_string<char, std::char_traits<char>, std::allocator<char> >, std::basic_string<char, std::char_traits<char>, std::allocator<char> > > > > >, std::_Select1st<std::pair<const std::basic_string<char, std::char_traits<char>, std::allocator<char> >, std::map<std::basic_string<char, std::char_traits<char>, std::allocator<char> >, std::basic_string<char, std::char_traits<char>, std::allocator<char> >, std::less<std::basic_string<char, std::char_traits<char>, std::allocator<char> > >, std::allocator<std::pair<const std::basic_string<char, std::char_traits<char>, std::allocator<char> >, std::basic_string<char, std::char_traits<char>, std::allocator<char> > > > > > >, std::less<std::basic_string<char, std::char_traits<char>, std::allocator<char> > >, std::allocator<std::pair<const std::basic_string<char, std::char_traits<char>, std::allocator<char> >, std::map<std::basic_string<char, std::char_traits<char>, std::allocator<char> >, std::basic_string<char, std::char_traits<char>, std::allocator<char> >, std::less<std::basic_string<char, std::char_traits<char>, std::allocator<char> > >, std::allocator<std::pair<const std::basic_string<char, std::char_traits<char>, std::allocator<char> >, std::basic_string<char, std::char_traits<char>, std::allocator<char> > > > > > > >::_M_root
FUNC 78076 169 0 std::_Rb_tree<std::basic_string<char, std::char_traits<char>, std::allocator<char> >, std::pair<const std::basic_string<char, std::char_traits<char>, std::allocator<char> >, std::map<std::basic_string<char, std::char_traits<char>, std::allocator<char> >, std::basic_string<char, std::char_traits<char>, std::allocator<char> >, std::less<std::basic_string<char, std::char_traits<char>, std::allocator<char> > >, std::allocator<std::pair<const std::basic_string<char, std::char_traits<char>, std::allocator<char> >, std::basic_string<char, std::char_traits<char>, std::allocator<char> > > > > >, std::_Select1st<std::pair<const std::basic_string<char, std::char_traits<char>, std::allocator<char> >, std::map<std::basic_string<char, std::char_traits<char>, std::allocator<char> >, std::basic_string<char, std::char_traits<char>, std::allocator<char> >, std::less<std::basic_string<char, std::char_traits<char>, std::allocator<char> > >, std::allocator<std::pair<const std::basic_string<char, std::char_traits<char>, std::allocator<char> >, std::basic_string<char, std::char_traits<char>, std::allocator<char> > > > > > >, std::less<std::basic_string<char, std::char_traits<char>, std::allocator<char> > >, std::allocator<std::pair<const std::basic_string<char, std::char_traits<char>, std::allocator<char> >, std::map<std::basic_string<char, std::char_traits<char>, std::allocator<char> >, std::basic_string<char, std::char_traits<char>, std::allocator<char> >, std::less<std::basic_string<char, std::char_traits<char>, std::allocator<char> > >, std::allocator<std::pair<const std::basic_string<char, std::char_traits<char>, std::allocator<char> >, std::basic_string<char, std::char_traits<char>, std::allocator<char> > > > > > > >::_M_copy
FUNC 781e0 12 0 std::_Rb_tree<std::basic_string<char, std::char_traits<char>, std::allocator<char> >, std::pair<const std::basic_string<char, std::char_traits<char>, std::allocator<char> >, std::map<std::basic_string<char, std::char_traits<char>, std::allocator<char> >, std::basic_string<char, std::char_traits<char>, std::allocator<char> >, std::less<std::basic_string<char, std::char_traits<char>, std::allocator<char> > >, std::allocator<std::pair<const std::basic_string<char, std::char_traits<char>, std::allocator<char> >, std::basic_string<char, std::char_traits<char>, std::allocator<char> > > > > >, std::_Select1st<std::pair<const std::basic_string<char, std::char_traits<char>, std::allocator<char> >, std::map<std::basic_string<char, std::char_traits<char>, std::allocator<char> >, std::basic_string<char, std::char_traits<char>, std::allocator<char> >, std::less<std::basic_string<char, std::char_traits<char>, std::allocator<char> > >, std::allocator<std::pair<const std::basic_string<char, std::char_traits<char>, std::allocator<char> >, std::basic_string<char, std::char_traits<char>, std::allocator<char> > > > > > >, std::less<std::basic_string<char, std::char_traits<char>, std::allocator<char> > >, std::allocator<std::pair<const std::basic_string<char, std::char_traits<char>, std::allocator<char> >, std::map<std::basic_string<char, std::char_traits<char>, std::allocator<char> >, std::basic_string<char, std::char_traits<char>, std::allocator<char> >, std::less<std::basic_string<char, std::char_traits<char>, std::allocator<char> > >, std::allocator<std::pair<const std::basic_string<char, std::char_traits<char>, std::allocator<char> >, std::basic_string<char, std::char_traits<char>, std::allocator<char> > > > > > > >::_M_begin
FUNC 781f2 1a 0 std::_Rb_tree<std::basic_string<char, std::char_traits<char>, std::allocator<char> >, std::pair<const std::basic_string<char, std::char_traits<char>, std::allocator<char> >, std::map<std::basic_string<char, std::char_traits<char>, std::allocator<char> >, std::basic_string<char, std::char_traits<char>, std::allocator<char> >, std::less<std::basic_string<char, std::char_traits<char>, std::allocator<char> > >, std::allocator<std::pair<const std::basic_string<char, std::char_traits<char>, std::allocator<char> >, std::basic_string<char, std::char_traits<char>, std::allocator<char> > > > > >, std::_Select1st<std::pair<const std::basic_string<char, std::char_traits<char>, std::allocator<char> >, std::map<std::basic_string<char, std::char_traits<char>, std::allocator<char> >, std::basic_string<char, std::char_traits<char>, std::allocator<char> >, std::less<std::basic_string<char, std::char_traits<char>, std::allocator<char> > >, std::allocator<std::pair<const std::basic_string<char, std::char_traits<char>, std::allocator<char> >, std::basic_string<char, std::char_traits<char>, std::allocator<char> > > > > > >, std::less<std::basic_string<char, std::char_traits<char>, std::allocator<char> > >, std::allocator<std::pair<const std::basic_string<char, std::char_traits<char>, std::allocator<char> >, std::map<std::basic_string<char, std::char_traits<char>, std::allocator<char> >, std::basic_string<char, std::char_traits<char>, std::allocator<char> >, std::less<std::basic_string<char, std::char_traits<char>, std::allocator<char> > >, std::allocator<std::pair<const std::basic_string<char, std::char_traits<char>, std::allocator<char> >, std::basic_string<char, std::char_traits<char>, std::allocator<char> > > > > > > >::_S_minimum
FUNC 7820c 1a 0 std::_Rb_tree<std::basic_string<char, std::char_traits<char>, std::allocator<char> >, std::pair<const std::basic_string<char, std::char_traits<char>, std::allocator<char> >, std::map<std::basic_string<char, std::char_traits<char>, std::allocator<char> >, std::basic_string<char, std::char_traits<char>, std::allocator<char> >, std::less<std::basic_string<char, std::char_traits<char>, std::allocator<char> > >, std::allocator<std::pair<const std::basic_string<char, std::char_traits<char>, std::allocator<char> >, std::basic_string<char, std::char_traits<char>, std::allocator<char> > > > > >, std::_Select1st<std::pair<const std::basic_string<char, std::char_traits<char>, std::allocator<char> >, std::map<std::basic_string<char, std::char_traits<char>, std::allocator<char> >, std::basic_string<char, std::char_traits<char>, std::allocator<char> >, std::less<std::basic_string<char, std::char_traits<char>, std::allocator<char> > >, std::allocator<std::pair<const std::basic_string<char, std::char_traits<char>, std::allocator<char> >, std::basic_string<char, std::char_traits<char>, std::allocator<char> > > > > > >, std::less<std::basic_string<char, std::char_traits<char>, std::allocator<char> > >, std::allocator<std::pair<const std::basic_string<char, std::char_traits<char>, std::allocator<char> >, std::map<std::basic_string<char, std::char_traits<char>, std::allocator<char> >, std::basic_string<char, std::char_traits<char>, std::allocator<char> >, std::less<std::basic_string<char, std::char_traits<char>, std::allocator<char> > >, std::allocator<std::pair<const std::basic_string<char, std::char_traits<char>, std::allocator<char> >, std::basic_string<char, std::char_traits<char>, std::allocator<char> > > > > > > >::_S_maximum
FUNC 78226 12 0 std::_Rb_tree<std::basic_string<char, std::char_traits<char>, std::allocator<char> >, std::pair<const std::basic_string<char, std::char_traits<char>, std::allocator<char> >, std::map<int, std::map<int, IEC104WF::stPointTable, std::less<int>, std::allocator<std::pair<const int, IEC104WF::stPointTable> > >, std::less<int>, std::allocator<std::pair<const int, std::map<int, IEC104WF::stPointTable, std::less<int>, std::allocator<std::pair<const int, IEC104WF::stPointTable> > > > > > >, std::_Select1st<std::pair<const std::basic_string<char, std::char_traits<char>, std::allocator<char> >, std::map<int, std::map<int, IEC104WF::stPointTable, std::less<int>, std::allocator<std::pair<const int, IEC104WF::stPointTable> > >, std::less<int>, std::allocator<std::pair<const int, std::map<int, IEC104WF::stPointTable, std::less<int>, std::allocator<std::pair<const int, IEC104WF::stPointTable> > > > > > > >, std::less<std::basic_string<char, std::char_traits<char>, std::allocator<char> > >, std::allocator<std::pair<const std::basic_string<char, std::char_traits<char>, std::allocator<char> >, std::map<int, std::map<int, IEC104WF::stPointTable, std::less<int>, std::allocator<std::pair<const int, IEC104WF::stPointTable> > >, std::less<int>, std::allocator<std::pair<const int, std::map<int, IEC104WF::stPointTable, std::less<int>, std::allocator<std::pair<const int, IEC104WF::stPointTable> > > > > > > > >::_M_end
